ccopy_reg
_reconstructor
p1
(cpsychopy.data
ExperimentHandler
p2
c__builtin__
object
p3
NtRp4
(dp5
S'originPath'
p6
NsS'dataFileName'
p7
VC:\u005cDocuments and Settings\u005cExperimental user\u005cMy Documents\u005cconsciousness\u005cuncon_feat\u005cexperiment_scripts\u005cdata/clara_Experiment_EEG_version_2019_may_23_1058
p8
sS'runtimeInfo'
p9
NsS'name'
p10
VExperiment_EEG_version
p11
sS'dataNames'
p12
(lp13
S'image_onset_time'
p14
aS'response_window'
p15
aS'correctAns'
p16
aS'probe_onset'
p17
aS'discrim_resptime'
p18
aS'response.corr'
p19
aS'response.keys'
p20
aS'response.rt'
p21
aS'visible_resptime'
p22
aS'visible.keys'
p23
aS'visible.corr'
p24
aS'visible.rt'
p25
aS'probeFrames'
p26
aS'jitter2'
p27
asS'autoLog'
p28
I01
sS'extraInfo'
p29
(dp30
Vn_square
p31
V32
p32
sVexperiment_color
p33
Vbw
p34
sS'frameRate'
p35
cnumpy.core.multiarray
scalar
p36
(cnumpy
dtype
p37
(S'f8'
I0
I1
tRp38
(I3
S'<'
NNNI-1
I-1
I0
tbS'%\xa7\xd0L\x1d\xf2X@'
tRp39
sS'date'
p40
V2019_may_23_1058
p41
sVsession
p42
V018
p43
sVimage_size
p44
V256
p45
sVpremask_dur
p46
V20
p47
sVprobeFrames
p48
V5
sVparticipant
p49
Vclara
p50
sS'expName'
p51
g11
sVpostmask_dur
p52
V20
p53
ssS'loopsUnfinished'
p54
(lp55
sS'saveWideText'
p56
I00
sS'thisEntry'
p57
(dp58
sS'version'
p59
S''
sS'_paramNamesSoFar'
p60
(lp61
S'category'
p62
aS'probe_path'
p63
aS'subcategory'
p64
aS'fixation_duration'
p65
aS'label'
p66
asS'entries'
p67
(lp68
(dp69
g31
g32
sg17
F3.7364795515313745
sg24
I0
sg35
g39
sg14
F3.7167059138882905
sg16
g36
(g37
(S'i4'
I0
I1
tRp70
(I3
S'<'
NNNI-1
I-1
I0
tbS'\x02\x00\x00\x00'
tRp71
sg42
g43
sg46
g47
sg15
S'V_nV'
p72
sg22
F5.5215508965775371
sg64
VBuildings
p73
sg62
VNonliving_Things
p74
sg49
g50
sS'trials.thisN'
p75
I0
sg19
I1
sg27
g36
(g38
S'\x00\x00\x00\x00\x00\x00\x1a@'
tRp76
sg52
g53
sg23
S'2'
sg18
F4.9993937278632075
sg33
g34
sg51
g11
sg20
S'2'
sg65
g36
(g37
(S'i8'
I0
I1
tRp77
(I3
S'<'
NNNI-1
I-1
I0
tbS'\x00\x00\x00\x00\x00\x00\x00\x00'
tRp78
sg44
g45
sg40
g41
sg25
F0.15053633647039533
sS'trials.thisIndex'
p79
g36
(g37
(S'i4'
I0
I1
tRp80
(I3
S'<'
NNNI-1
I-1
I0
tbS')\x00\x00\x00'
tRp81
sg26
V5
sS'trials.thisRepN'
p82
I0
sg66
Vhouse
p83
sg63
V../experiment_stimuli/bw_bc_bl/Nonliving_Things/Buildings/house_26.jpg
p84
sg21
F0.49129021563567221
sS'trials.thisTrialN'
p85
I0
sa(dp86
g31
g32
sg17
F7.4097329112701118
sg24
I0
sg35
g39
sg14
F7.4047207310795784
sg16
g36
(g70
S'\x02\x00\x00\x00'
tRp87
sg42
g43
sg46
g47
sg15
g72
sg22
F9.0990616725757718
sg64
g73
sg62
g74
sg49
g50
sS'trials.thisN'
p88
I1
sg19
I1
sg27
g36
(g38
S'\x00\x00\x00\x00\x00\x00\x1e@'
tRp89
sg52
g53
sg23
S'2'
sg18
F8.667378997663036
sg33
g34
sg51
g11
sg20
S'2'
sg65
g36
(g77
S'\x00\x00\x00\x00\x00\x00\x00\x00'
tRp90
sg44
g45
sg40
g41
sg25
F0.18061340576969087
sS'trials.thisIndex'
p91
g36
(g80
S'\x0e\x00\x00\x00'
tRp92
sg26
V5
sS'trials.thisRepN'
p93
I0
sg66
Vcathedral
p94
sg63
V../experiment_stimuli/bw_bc_bl/Nonliving_Things/Buildings/cathedral_16.jpg
p95
sg21
F0.41112327761948109
sS'trials.thisTrialN'
p96
I1
sa(dp97
g31
g32
sg17
F11.017880192026496
sg24
I0
sg35
g39
sg14
F11.012559238355607
sg16
g36
(g70
S'\x02\x00\x00\x00'
tRp98
sg42
g43
sg46
g47
sg15
g72
sg22
F12.6367245267611
sg64
VKitchen_Uten
p99
sg62
g74
sg49
g50
sS'trials.thisN'
p100
I2
sg19
I1
sg27
g36
(g38
S'\x00\x00\x00\x00\x00\x00\x18@'
tRp101
sg52
g53
sg23
S'2'
sg18
F12.265185565454885
sg33
g34
sg51
g11
sg20
S'2'
sg65
g36
(g77
S'\x00\x00\x00\x00\x00\x00\x00\x00'
tRp102
sg44
g45
sg40
g41
sg25
F0.30086869490332901
sS'trials.thisIndex'
p103
g36
(g80
S'\x1f\x00\x00\x00'
tRp104
sg26
V5
sS'trials.thisRepN'
p105
I0
sg66
Vfrying-pan
p106
sg63
V../experiment_stimuli/bw_bc_bl/Nonliving_Things/Kitchen_Uten/frying-pan_10.jpg
p107
sg21
F0.3509900295175612
sS'trials.thisTrialN'
p108
I2
sa(dp109
g31
g32
sg17
F14.675554568180814
sg24
I1
sg35
g39
sg14
F14.670513786841184
sg16
g36
(g70
S'\x01\x00\x00\x00'
tRp110
sg42
g43
sg46
g47
sg15
g72
sg22
F16.725455917185172
sg64
VAnimals
p111
sg62
VLiving_Things
p112
sg49
g50
sS'trials.thisN'
p113
I3
sg19
I0
sg27
g36
(g38
S'\x00\x00\x00\x00\x00\x00\x18@'
tRp114
sg52
g53
sg23
S'1'
sg18
F15.913116013398394
sg33
g34
sg51
g11
sg20
S'2'
sg65
g36
(g77
S'\x00\x00\x00\x00\x00\x00\x00\x00'
tRp115
sg44
g45
sg40
g41
sg25
F0.04030581028200686
sS'trials.thisIndex'
p116
g36
(g80
S"'\x00\x00\x00"
tRp117
sg26
V5
sS'trials.thisRepN'
p118
I0
sg66
Vhippopotamus
p119
sg63
V../experiment_stimuli/bw_bc_bl/Living_Things/Animals/hippopotamus_20.jpg
p120
sg21
F0.79178698710165918
sS'trials.thisTrialN'
p121
I3
sa(dp122
g31
g32
sg17
F18.504407800734043
sg24
I1
sg35
g39
sg14
F18.498830906813964
sg16
g36
(g70
S'\x01\x00\x00\x00'
tRp123
sg42
g43
sg46
g47
sg15
g72
sg22
F20.864609239622951
sg64
VBirds
p124
sg62
g112
sg49
g50
sS'trials.thisN'
p125
I4
sg19
I1
sg27
g36
(g38
S'\x00\x00\x00\x00\x00\x00\x18@'
tRp126
sg52
g53
sg23
S'1'
sg18
F19.75145978690125
sg33
g34
sg51
g11
sg20
S'1'
sg65
g36
(g77
S'\x00\x00\x00\x00\x00\x00\x00\x00'
tRp127
sg44
g45
sg40
g41
sg25
F0.8721164723392576
sS'trials.thisIndex'
p128
g36
(g80
S'<\x00\x00\x00'
tRp129
sg26
V5
sS'trials.thisRepN'
p130
I0
sg66
Vpelican
p131
sg63
V../experiment_stimuli/bw_bc_bl/Living_Things/Birds/pelican_14.jpg
p132
sg21
F1.0926096003968269
sS'trials.thisTrialN'
p133
I4
sa(dp134
g31
g32
sg17
F23.474446362582967
sg24
I0
sg35
g39
sg14
F23.469640360213816
sg16
g36
(g70
S'\x02\x00\x00\x00'
tRp135
sg42
g43
sg46
g47
sg15
S'nV_V'
p136
sg22
F25.40449843974784
sg64
g111
sg62
g112
sg49
g50
sS'trials.thisN'
p137
I5
sg19
I1
sg27
g36
(g38
S'\x00\x00\x00\x00\x00\x00\x18@'
tRp138
sg52
g53
sg23
S'2'
sg18
F24.752330211922526
sg33
g34
sg51
g11
sg20
S'2'
sg65
g36
(g77
S'\x00\x00\x00\x00\x00\x00\x00\x00'
tRp139
sg44
g45
sg40
g41
sg25
F0.1705882903188467
sS'trials.thisIndex'
p140
g36
(g80
S'\x01\x00\x00\x00'
tRp141
sg26
V5
sS'trials.thisRepN'
p142
I0
sg66
Varmadillo
p143
sg63
V../experiment_stimuli/bw_bc_bl/Living_Things/Animals/armadillo_0.jpg
p144
sg21
F0.63160988665185869
sS'trials.thisTrialN'
p145
I5
sa(dp146
g31
g32
sg17
F27.312868146458641
sg24
I0
sg35
g39
sg14
F27.3079806601163
sg16
g36
(g70
S'\x02\x00\x00\x00'
tRp147
sg42
g43
sg46
g47
sg15
g72
sg22
F29.282919988501817
sg64
VFurniture
p148
sg62
g74
sg49
g50
sS'trials.thisN'
p149
I6
sg19
I1
sg27
g36
(g38
S'\x00\x00\x00\x00\x00\x00\x1c@'
tRp150
sg52
g53
sg23
S'3'
sg18
F28.580650591524318
sg33
g34
sg51
g11
sg20
S'2'
sg65
g36
(g77
S'\x00\x00\x00\x00\x00\x00\x00\x00'
tRp151
sg44
g45
sg40
g41
sg25
F0.060352958738803864
sS'trials.thisIndex'
p152
g36
(g80
S'\x08\x00\x00\x00'
tRp153
sg26
V5
sS'trials.thisRepN'
p154
I0
sg66
Vbookcase
p155
sg63
V../experiment_stimuli/bw_bc_bl/Nonliving_Things/Furniture/bookcase_2.jpg
p156
sg21
F0.68171134614385664
sS'trials.thisTrialN'
p157
I6
sa(dp158
g31
g32
sg17
F31.081815304700285
sg24
I0
sg35
g39
sg14
F31.076172438217327
sg16
g36
(g70
S'\x01\x00\x00\x00'
tRp159
sg42
g43
sg46
g47
sg15
g136
sg22
F33.381660950137302
sg64
VMusical_Inst
p160
sg62
g74
sg49
g50
sS'trials.thisN'
p161
I7
sg19
I0
sg27
g36
(g38
S'\x00\x00\x00\x00\x00\x00 @'
tRp162
sg52
g53
sg23
S'3'
sg18
F32.328794318251312
sg33
g34
sg51
g11
sg20
S'2'
sg65
g36
(g77
S'\x00\x00\x00\x00\x00\x00\x00\x00'
tRp163
sg44
g45
sg40
g41
sg25
F0.15056447871029377
sS'trials.thisIndex'
p164
g36
(g80
S'$\x00\x00\x00'
tRp165
sg26
V5
sS'trials.thisRepN'
p166
I0
sg66
Vguitar
p167
sg63
V../experiment_stimuli/bw_bc_bl/Nonliving_Things/Musical_Inst/guitar_17.jpg
p168
sg21
F1.0323074304033071
sS'trials.thisTrialN'
p169
I7
sa(dp170
g31
g32
sg17
F35.27002913528122
sg24
I1
sg35
g39
sg14
F35.265275662066415
sg16
g36
(g70
S'\x01\x00\x00\x00'
tRp171
sg42
g43
sg46
g47
sg15
g136
sg22
F37.200138526735827
sg64
g99
sg62
g74
sg49
g50
sS'trials.thisN'
p172
I8
sg19
I1
sg27
g36
(g38
S'\x00\x00\x00\x00\x00\x00\x18@'
tRp173
sg52
g53
sg23
S'1'
sg18
F36.497858182527125
sg33
g34
sg51
g11
sg20
S'1'
sg65
g36
(g77
S'\x00\x00\x00\x00\x00\x00\x00\x00'
tRp174
sg44
g45
sg40
g41
sg25
F0.67168368468992412
sS'trials.thisIndex'
p175
g36
(g80
S'\x16\x00\x00\x00'
tRp176
sg26
V5
sS'trials.thisRepN'
p177
I0
sg66
Vcup
p178
sg63
V../experiment_stimuli/bw_bc_bl/Nonliving_Things/Kitchen_Uten/cup_20.jpg
p179
sg21
F0.68172242096625268
sS'trials.thisTrialN'
p180
I8
sa(dp181
g31
g32
sg17
F39.609540468081832
sg24
I1
sg35
g39
sg14
F39.604708281578496
sg16
g36
(g70
S'\x02\x00\x00\x00'
tRp182
sg42
g43
sg46
g47
sg15
g136
sg22
F41.218855149578303
sg64
VMarine_creatures
p183
sg62
g112
sg49
g50
sS'trials.thisN'
p184
I9
sg19
I0
sg27
g36
(g38
S'\x00\x00\x00\x00\x00\x00\x18@'
tRp185
sg52
g53
sg23
S'1'
sg18
F40.84731638035737
sg33
g34
sg51
g11
sg20
S'1'
sg65
g36
(g77
S'\x00\x00\x00\x00\x00\x00\x00\x00'
tRp186
sg44
g45
sg40
g41
sg25
F0.15054096421226859
sS'trials.thisIndex'
p187
g36
(g80
S'\x15\x00\x00\x00'
tRp188
sg26
V5
sS'trials.thisRepN'
p189
I0
sg66
Vcrab
p190
sg63
V../experiment_stimuli/bw_bc_bl/Living_Things/Marine_creatures/crab_18.jpg
p191
sg21
F0.35098664625547826
sS'trials.thisTrialN'
p192
I9
sa(dp193
g31
g32
sg17
F43.107694324105978
sg24
I1
sg35
g39
sg14
F43.102315438678488
sg16
g36
(g70
S'\x01\x00\x00\x00'
tRp194
sg42
g43
sg46
g47
sg15
g72
sg22
F44.766599716385826
sg64
g183
sg62
g112
sg49
g50
sS'trials.thisN'
p195
I10
sg19
I0
sg27
g36
(g38
S'\x00\x00\x00\x00\x00\x00\x18@'
tRp196
sg52
g53
sg23
S'1'
sg18
F44.354937562951818
sg33
g34
sg51
g11
sg20
S'2'
sg65
g36
(g77
S'\x00\x00\x00\x00\x00\x00\x00\x00'
tRp197
sg44
g45
sg40
g41
sg25
F0.23071462078951299
sS'trials.thisIndex'
p198
g36
(g80
S'^\x00\x00\x00'
tRp199
sg26
V5
sS'trials.thisRepN'
p200
I0
sg66
Vwhale
p201
sg63
V../experiment_stimuli/bw_bc_bl/Living_Things/Marine_creatures/whale_6.jpg
p202
sg21
F0.39108824101276696
sS'trials.thisTrialN'
p203
I10
sa(dp204
g31
g32
sg17
F46.735094697447494
sg24
I1
sg35
g39
sg14
F46.730209259781986
sg16
g36
(g70
S'\x01\x00\x00\x00'
tRp205
sg42
g43
sg46
g47
sg15
g72
sg22
F48.364405378466472
sg64
g124
sg62
g112
sg49
g50
sS'trials.thisN'
p206
I11
sg19
I1
sg27
g36
(g38
S'\x00\x00\x00\x00\x00\x00\x18@'
tRp207
sg52
g53
sg23
S'1'
sg18
F48.012887829681858
sg33
g34
sg51
g11
sg20
S'1'
sg65
g36
(g77
S'\x00\x00\x00\x00\x00\x00\x00\x00'
tRp208
sg44
g45
sg40
g41
sg25
F0.72188036842271686
sS'trials.thisIndex'
p209
g36
(g80
S'?\x00\x00\x00'
tRp210
sg26
V5
sS'trials.thisRepN'
p211
I0
sg66
Vpigeon
p212
sg63
V../experiment_stimuli/bw_bc_bl/Living_Things/Birds/pigeon_17.jpg
p213
sg21
F0.33094781311228871
sS'trials.thisTrialN'
p214
I11
sa(dp215
g31
g32
sg17
F50.824543081223965
sg24
I0
sg35
g39
sg14
F50.819091362413019
sg16
g36
(g70
S'\x02\x00\x00\x00'
tRp216
sg42
g43
sg46
g47
sg15
g72
sg22
F52.844105323543772
sg64
g73
sg62
g74
sg49
g50
sS'trials.thisN'
p217
I12
sg19
I1
sg27
g36
(g38
S'\x00\x00\x00\x00\x00\x00\x1e@'
tRp218
sg52
g53
sg23
S'3'
sg18
F52.131844027899206
sg33
g34
sg51
g11
sg20
S'2'
sg65
g36
(g77
S'\x00\x00\x00\x00\x00\x00\x00\x00'
tRp219
sg44
g45
sg40
g41
sg25
F0.17058654199354351
sS'trials.thisIndex'
p220
g36
(g80
S'\x0c\x00\x00\x00'
tRp221
sg26
V5
sS'trials.thisRepN'
p222
I0
sg66
Vcastle
p223
sg63
V../experiment_stimuli/bw_bc_bl/Nonliving_Things/Buildings/castle_22.jpg
p224
sg21
F0.691725431708619
sS'trials.thisTrialN'
p225
I12
sa(dp226
g31
g32
sg17
F54.753186486428604
sg24
I0
sg35
g39
sg14
F54.747628295328468
sg16
g36
(g70
S'\x02\x00\x00\x00'
tRp227
sg42
g43
sg46
g47
sg15
g136
sg22
F56.642383174505085
sg64
g111
sg62
g112
sg49
g50
sS'trials.thisN'
p228
I13
sg19
I1
sg27
g36
(g38
S'\x00\x00\x00\x00\x00\x00 @'
tRp229
sg52
g53
sg23
S'3'
sg18
F56.040343210333958
sg33
g34
sg51
g11
sg20
S'2'
sg65
g36
(g77
S'\x00\x00\x00\x00\x00\x00\x00\x00'
tRp230
sg44
g45
sg40
g41
sg25
F0.15060544852167368
sS'trials.thisIndex'
p231
g36
(g80
S'2\x00\x00\x00'
tRp232
sg26
V5
sS'trials.thisRepN'
p233
I0
sg66
Vlynx
p234
sg63
V../experiment_stimuli/bw_bc_bl/Living_Things/Animals/lynx_24.jpg
p235
sg21
F0.58148588635958731
sS'trials.thisTrialN'
p236
I13
sa(dp237
g31
g32
sg17
F58.53064619936049
sg24
I0
sg35
g39
sg14
F58.525834606727585
sg16
g36
(g70
S'\x02\x00\x00\x00'
tRp238
sg42
g43
sg46
g47
sg15
g72
sg22
F60.220186341088265
sg64
g73
sg62
g74
sg49
g50
sS'trials.thisN'
p239
I14
sg19
I1
sg27
g36
(g38
S'\x00\x00\x00\x00\x00\x00\x18@'
tRp240
sg52
g53
sg23
S'3'
sg18
F59.788491816725582
sg33
g34
sg51
g11
sg20
S'2'
sg65
g36
(g77
S'\x00\x00\x00\x00\x00\x00\x00\x00'
tRp241
sg44
g45
sg40
g41
sg25
F0.12048474070616066
sS'trials.thisIndex'
p242
g36
(g80
S'\x11\x00\x00\x00'
tRp243
sg26
V5
sS'trials.thisRepN'
p244
I0
sg66
Vchurch
p245
sg63
V../experiment_stimuli/bw_bc_bl/Nonliving_Things/Buildings/church_20.jpg
p246
sg21
F0.41113450285047293
sS'trials.thisTrialN'
p247
I14
sa(dp248
g31
g32
sg17
F62.078312105732039
sg24
I1
sg35
g39
sg14
F62.073553478578106
sg16
g36
(g70
S'\x01\x00\x00\x00'
tRp249
sg42
g43
sg46
g47
sg15
g72
sg22
F63.858062786515802
sg64
g124
sg62
g112
sg49
g50
sS'trials.thisN'
p250
I15
sg19
I1
sg27
g36
(g38
S'\x00\x00\x00\x00\x00\x00\x1e@'
tRp251
sg52
g53
sg23
S'1'
sg18
F63.306133337551728
sg33
g34
sg51
g11
sg20
S'1'
sg65
g36
(g77
S'\x00\x00\x00\x00\x00\x00\x00\x00'
tRp252
sg44
g45
sg40
g41
sg25
F0.2507838481105864
sS'trials.thisIndex'
p253
g36
(g80
S',\x00\x00\x00'
tRp254
sg26
V5
sS'trials.thisRepN'
p255
I0
sg66
Vkiwi
p256
sg63
V../experiment_stimuli/bw_bc_bl/Living_Things/Birds/kiwi_6.jpg
p257
sg21
F0.53137967549264431
sS'trials.thisTrialN'
p258
I15
sa(dp259
g31
g32
sg17
F65.846656005829573
sg24
I1
sg35
g39
sg14
F65.84174321917817
sg16
g36
(g70
S'\x02\x00\x00\x00'
tRp260
sg42
g43
sg46
g47
sg15
g72
sg22
F67.435845904052258
sg64
VTools
p261
sg62
g74
sg49
g50
sS'trials.thisN'
p262
I16
sg19
I1
sg27
g36
(g38
S'\x00\x00\x00\x00\x00\x00\x1c@'
tRp263
sg52
g53
sg23
S'1'
sg18
F67.104389620944858
sg33
g34
sg51
g11
sg20
S'2'
sg65
g36
(g77
S'\x00\x00\x00\x00\x00\x00\x00\x00'
tRp264
sg44
g45
sg40
g41
sg25
F0.11047501536086202
sS'trials.thisIndex'
p265
g36
(g80
S'%\x00\x00\x00'
tRp266
sg26
V5
sS'trials.thisRepN'
p267
I0
sg66
Vhammer
p268
sg63
V../experiment_stimuli/bw_bc_bl/Nonliving_Things/Tools/hammer_1.jpg
p269
sg21
F0.31089728837832808
sS'trials.thisTrialN'
p270
I16
sa(dp271
g31
g32
sg17
F69.284249383490533
sg24
I0
sg35
g39
sg14
F69.279214556794614
sg16
g36
(g70
S'\x01\x00\x00\x00'
tRp272
sg42
g43
sg46
g47
sg15
g136
sg22
F72.346515981946141
sg64
g160
sg62
g74
sg49
g50
sS'trials.thisN'
p273
I17
sg19
I1
sg27
g36
(g38
S'\x00\x00\x00\x00\x00\x00\x1c@'
tRp274
sg52
g53
sg23
S'3'
sg18
F70.561906641814858
sg33
g34
sg51
g11
sg20
S'1'
sg65
g36
(g77
S'\x00\x00\x00\x00\x00\x00\x00\x00'
tRp275
sg44
g45
sg40
g41
sg25
F0.1204806505702436
sS'trials.thisIndex'
p276
g36
(g80
S'H\x00\x00\x00'
tRp277
sg26
V5
sS'trials.thisRepN'
p278
I0
sg66
Vsaxophone
p279
sg63
V../experiment_stimuli/bw_bc_bl/Nonliving_Things/Musical_Inst/saxophone_5.jpg
p280
sg21
F1.764067349024117
sS'trials.thisTrialN'
p281
I17
sa(dp282
g31
g32
sg17
F74.206290839705616
sg24
I0
sg35
g39
sg14
F74.199912885902449
sg16
g36
(g70
S'\x02\x00\x00\x00'
tRp283
sg42
g43
sg46
g47
sg15
g136
sg22
F75.984440016560256
sg64
g183
sg62
g112
sg49
g50
sS'trials.thisN'
p284
I18
sg19
I0
sg27
g36
(g38
S'\x00\x00\x00\x00\x00\x00\x1a@'
tRp285
sg52
g53
sg23
S'3'
sg18
F75.45253750286065
sg33
g34
sg51
g11
sg20
S'1'
sg65
g36
(g77
S'\x00\x00\x00\x00\x00\x00\x00\x00'
tRp286
sg44
g45
sg40
g41
sg25
F0.12053124001249671
sS'trials.thisIndex'
p287
g36
(g80
S'7\x00\x00\x00'
tRp288
sg26
V5
sS'trials.thisRepN'
p289
I0
sg66
Vnarwhal
p290
sg63
V../experiment_stimuli/bw_bc_bl/Living_Things/Marine_creatures/narwhal_13.jpg
p291
sg21
F0.51134741748683155
sS'trials.thisTrialN'
p292
I18
sa(dp293
g31
g32
sg17
F77.844096297165379
sg24
I0
sg35
g39
sg14
F77.837822420755401
sg16
g36
(g70
S'\x02\x00\x00\x00'
tRp294
sg42
g43
sg46
g47
sg15
g72
sg22
F79.642378768650815
sg64
VVehicles
p295
sg62
g74
sg49
g50
sS'trials.thisN'
p296
I19
sg19
I1
sg27
g36
(g38
S'\x00\x00\x00\x00\x00\x00\x1c@'
tRp297
sg52
g53
sg23
S'2'
sg18
F79.070405542617664
sg33
g34
sg51
g11
sg20
S'2'
sg65
g36
(g77
S'\x00\x00\x00\x00\x00\x00\x00\x00'
tRp298
sg44
g45
sg40
g41
sg25
F0.21068823826499283
sS'trials.thisIndex'
p299
g36
(g80
S'6\x00\x00\x00'
tRp300
sg26
V5
sS'trials.thisRepN'
p301
I0
sg66
Vmotorbike
p302
sg63
V../experiment_stimuli/bw_bc_bl/Nonliving_Things/Vehicles/motorbike_25.jpg
p303
sg21
F0.55141473445110023
sS'trials.thisTrialN'
p304
I19
sa(dp305
g31
g32
sg17
F81.590878190007061
sg24
I1
sg35
g39
sg14
F81.585971425753087
sg16
g36
(g70
S'\x02\x00\x00\x00'
tRp306
sg42
g43
sg46
g47
sg15
g136
sg22
F83.230191994691268
sg64
g124
sg62
g112
sg49
g50
sS'trials.thisN'
p307
I20
sg19
I0
sg27
g36
(g38
S'\x00\x00\x00\x00\x00\x00\x1a@'
tRp308
sg52
g53
sg23
S'1'
sg18
F82.818557529011741
sg33
g34
sg51
g11
sg20
S'1'
sg65
g36
(g77
S'\x00\x00\x00\x00\x00\x00\x00\x00'
tRp309
sg44
g45
sg40
g41
sg25
F0.28082716604694724
sS'trials.thisIndex'
p310
g36
(g80
S'!\x00\x00\x00'
tRp311
sg26
V5
sS'trials.thisRepN'
p312
I0
sg66
Vgoldfinch
p313
sg63
V../experiment_stimuli/bw_bc_bl/Living_Things/Birds/goldfinch_10.jpg
p314
sg21
F0.3910761175211519
sS'trials.thisTrialN'
p315
I20
sa(dp316
g31
g32
sg17
F85.249466150766239
sg24
I1
sg35
g39
sg14
F85.243921181187034
sg16
g36
(g70
S'\x01\x00\x00\x00'
tRp317
sg42
g43
sg46
g47
sg15
g72
sg22
F87.188787106191739
sg64
g183
sg62
g112
sg49
g50
sS'trials.thisN'
p318
I21
sg19
I1
sg27
g36
(g38
S'\x00\x00\x00\x00\x00\x00 @'
tRp319
sg52
g53
sg23
S'1'
sg18
F86.506571000441909
sg33
g34
sg51
g11
sg20
S'1'
sg65
g36
(g77
S'\x00\x00\x00\x00\x00\x00\x00\x00'
tRp320
sg44
g45
sg40
g41
sg25
F0.18061699229292572
sS'trials.thisIndex'
p321
g36
(g80
S'A\x00\x00\x00'
tRp322
sg26
V5
sS'trials.thisRepN'
p323
I0
sg66
Vpomfret
p324
sg63
V../experiment_stimuli/bw_bc_bl/Living_Things/Marine_creatures/pomfret_13.jpg
p325
sg21
F0.66166120069101453
sS'trials.thisTrialN'
p326
I21
sa(dp327
g31
g32
sg17
F89.107986394781619
sg24
I1
sg35
g39
sg14
F89.102310739224777
sg16
g36
(g70
S'\x02\x00\x00\x00'
tRp328
sg42
g43
sg46
g47
sg15
g136
sg22
F91.207523547811434
sg64
g111
sg62
g112
sg49
g50
sS'trials.thisN'
p329
I22
sg19
I1
sg27
g36
(g38
S'\x00\x00\x00\x00\x00\x00\x1a@'
tRp330
sg52
g53
sg23
S'1'
sg18
F90.374974948819727
sg33
g34
sg51
g11
sg20
S'2'
sg65
g36
(g77
S'\x00\x00\x00\x00\x00\x00\x00\x00'
tRp331
sg44
g45
sg40
g41
sg25
F0.26083759125322104
sS'trials.thisIndex'
p332
g36
(g80
S'\x14\x00\x00\x00'
tRp333
sg26
V5
sS'trials.thisRepN'
p334
I0
sg66
Vcow
p335
sg63
V../experiment_stimuli/bw_bc_bl/Living_Things/Animals/cow_26.jpg
p336
sg21
F0.81198841240257025
sS'trials.thisTrialN'
p337
I22
sa(dp338
g31
g32
sg17
F93.206403807969764
sg24
I0
sg35
g39
sg14
F93.201214792206883
sg16
g36
(g70
S'\x02\x00\x00\x00'
tRp339
sg42
g43
sg46
g47
sg15
g136
sg22
F99.495534354588017
sg64
VInsects
p340
sg62
g112
sg49
g50
sS'trials.thisN'
p341
I23
sg19
I1
sg27
g36
(g38
S'\x00\x00\x00\x00\x00\x00\x18@'
tRp342
sg52
g53
sg23
S'3'
sg18
F94.483905862085521
sg33
g34
sg51
g11
sg20
S'2'
sg65
g36
(g77
S'\x00\x00\x00\x00\x00\x00\x00\x00'
tRp343
sg44
g45
sg40
g41
sg25
F0.080415468430146575
sS'trials.thisIndex'
p344
g36
(g80
S'\n\x00\x00\x00'
tRp345
sg26
V5
sS'trials.thisRepN'
p346
I0
sg66
Vbutterfly
p347
sg63
V../experiment_stimuli/bw_bc_bl/Living_Things/Insects/butterfly_13.jpg
p348
sg21
F4.9910735017620027
sS'trials.thisTrialN'
p349
I23
sa(dp350
g31
g32
sg17
F101.31390254595317
sg24
I0
sg35
g39
sg14
F101.30884587788023
sg16
g36
(g70
S'\x02\x00\x00\x00'
tRp351
sg42
g43
sg46
g47
sg15
g72
sg22
F103.07338296039961
sg64
g148
sg62
g74
sg49
g50
sS'trials.thisN'
p352
I24
sg19
I1
sg27
g36
(g38
S'\x00\x00\x00\x00\x00\x00 @'
tRp353
sg52
g53
sg23
S'3'
sg18
F102.57148851687089
sg33
g34
sg51
g11
sg20
S'2'
sg65
g36
(g77
S'\x00\x00\x00\x00\x00\x00\x00\x00'
tRp354
sg44
g45
sg40
g41
sg25
F0.14052752126008272
sS'trials.thisIndex'
p355
g36
(g80
S'E\x00\x00\x00'
tRp356
sg26
V5
sS'trials.thisRepN'
p357
I0
sg66
Vrocking-chair
p358
sg63
V../experiment_stimuli/bw_bc_bl/Nonliving_Things/Furniture/rocking-chair_12.jpg
p359
sg21
F0.48133123083971441
sS'trials.thisTrialN'
p360
I24
sa(dp361
g31
g32
sg17
F104.95243972609751
sg24
I1
sg35
g39
sg14
F104.94675149931572
sg16
g36
(g70
S'\x02\x00\x00\x00'
tRp362
sg42
g43
sg46
g47
sg15
g136
sg22
F106.53083397075534
sg64
g124
sg62
g112
sg49
g50
sS'trials.thisN'
p363
I25
sg19
I0
sg27
g36
(g38
S'\x00\x00\x00\x00\x00\x00\x18@'
tRp364
sg52
g53
sg23
S'1'
sg18
F106.18935456429608
sg33
g34
sg51
g11
sg20
S'1'
sg65
g36
(g77
S'\x00\x00\x00\x00\x00\x00\x00\x00'
tRp365
sg44
g45
sg40
g41
sg25
F0.26078936294652522
sS'trials.thisIndex'
p366
g36
(g80
S'*\x00\x00\x00'
tRp367
sg26
V5
sS'trials.thisRepN'
p368
I0
sg66
Vhummingbird
p369
sg63
V../experiment_stimuli/bw_bc_bl/Living_Things/Birds/hummingbird_12.jpg
p370
sg21
F0.32092459569685161
sS'trials.thisTrialN'
p371
I25
sa(dp372
g31
g32
sg17
F108.5293799310457
sg24
I1
sg35
g39
sg14
F108.52453346317634
sg16
g36
(g70
S'\x02\x00\x00\x00'
tRp373
sg42
g43
sg46
g47
sg15
g136
sg22
F110.26897016796283
sg64
g111
sg62
g112
sg49
g50
sS'trials.thisN'
p374
I26
sg19
I1
sg27
g36
(g38
S'\x00\x00\x00\x00\x00\x00\x1a@'
tRp375
sg52
g53
sg23
S'1'
sg18
F109.78718074853532
sg33
g34
sg51
g11
sg20
S'2'
sg65
g36
(g77
S'\x00\x00\x00\x00\x00\x00\x00\x00'
tRp376
sg44
g45
sg40
g41
sg25
F0.15055536269210279
sS'trials.thisIndex'
p377
g36
(g80
S'D\x00\x00\x00'
tRp378
sg26
V5
sS'trials.thisRepN'
p379
I0
sg66
Vrhino
p380
sg63
V../experiment_stimuli/bw_bc_bl/Living_Things/Animals/rhino_19.jpg
p381
sg21
F0.45120888017117977
sS'trials.thisTrialN'
p382
I26
sa(dp383
g31
g32
sg17
F112.15725454222411
sg24
I0
sg35
g39
sg14
F112.1524139274843
sg16
g36
(g70
S'\x01\x00\x00\x00'
tRp384
sg42
g43
sg46
g47
sg15
g136
sg22
F113.85675156395882
sg64
g295
sg62
g74
sg49
g50
sS'trials.thisN'
p385
I27
sg19
I1
sg27
g36
(g38
S'\x00\x00\x00\x00\x00\x00\x18@'
tRp386
sg52
g53
sg23
S'3'
sg18
F113.44514112407342
sg33
g34
sg51
g11
sg20
S'1'
sg65
g36
(g77
S'\x00\x00\x00\x00\x00\x00\x00\x00'
tRp387
sg44
g45
sg40
g41
sg25
F0.14053144608624279
sS'trials.thisIndex'
p388
g36
(g80
S'L\x00\x00\x00'
tRp389
sg26
V5
sS'trials.thisRepN'
p390
I0
sg66
Vship
p391
sg63
V../experiment_stimuli/bw_bc_bl/Nonliving_Things/Vehicles/ship_18.jpg
p392
sg21
F0.39108439907431602
sS'trials.thisTrialN'
p393
I27
sa(dp394
g31
g32
sg17
F115.73606177303009
sg24
I0
sg35
g39
sg14
F115.73019489482976
sg16
g36
(g70
S'\x02\x00\x00\x00'
tRp395
sg42
g43
sg46
g47
sg15
g136
sg22
F117.64486093260348
sg64
g124
sg62
g112
sg49
g50
sS'trials.thisN'
p396
I28
sg19
I1
sg27
g36
(g38
S'\x00\x00\x00\x00\x00\x00\x1a@'
tRp397
sg52
g53
sg23
S'3'
sg18
F117.00286020967178
sg33
g34
sg51
g11
sg20
S'2'
sg65
g36
(g77
S'\x00\x00\x00\x00\x00\x00\x00\x00'
tRp398
sg44
g45
sg40
g41
sg25
F0.18061468005180359
sS'trials.thisIndex'
p399
g36
(g80
S'F\x00\x00\x00'
tRp400
sg26
V5
sS'trials.thisRepN'
p401
I0
sg66
Vrooster
p402
sg63
V../experiment_stimuli/bw_bc_bl/Living_Things/Birds/rooster_5.jpg
p403
sg21
F0.62141802115365863
sS'trials.thisTrialN'
p404
I28
sa(dp405
g31
g32
sg17
F119.56346410186961
sg24
I0
sg35
g39
sg14
F119.55851681577042
sg16
g36
(g70
S'\x02\x00\x00\x00'
tRp406
sg42
g43
sg46
g47
sg15
g72
sg22
F121.59359370032325
sg64
g295
sg62
g74
sg49
g50
sS'trials.thisN'
p407
I29
sg19
I0
sg27
g36
(g38
S'\x00\x00\x00\x00\x00\x00\x18@'
tRp408
sg52
g53
sg23
S'3'
sg18
F120.81113513186574
sg33
g34
sg51
g11
sg20
S'1'
sg65
g36
(g77
S'\x00\x00\x00\x00\x00\x00\x00\x00'
tRp409
sg44
g45
sg40
g41
sg25
F0.17064122925512493
sS'trials.thisIndex'
p410
g36
(g80
S'\x07\x00\x00\x00'
tRp411
sg26
V5
sS'trials.thisRepN'
p412
I0
sg66
Vboat
p413
sg63
V../experiment_stimuli/bw_bc_bl/Nonliving_Things/Vehicles/boat_23.jpg
p414
sg21
F0.76188478409312665
sS'trials.thisTrialN'
p415
I29
sa(dp416
g31
g32
sg17
F123.50184781849384
sg24
I1
sg35
g39
sg14
F123.49707419518381
sg16
g36
(g70
S'\x02\x00\x00\x00'
tRp417
sg42
g43
sg46
g47
sg15
g72
sg22
F125.51208806643263
sg64
g148
sg62
g74
sg49
g50
sS'trials.thisN'
p418
I30
sg19
I0
sg27
g36
(g38
S'\x00\x00\x00\x00\x00\x00\x18@'
tRp419
sg52
g53
sg23
S'1'
sg18
F124.72965772706084
sg33
g34
sg51
g11
sg20
S'1'
sg65
g36
(g77
S'\x00\x00\x00\x00\x00\x00\x00\x00'
tRp420
sg44
g45
sg40
g41
sg25
F0.20065098721534014
sS'trials.thisIndex'
p421
g36
(g80
S'\x1d\x00\x00\x00'
tRp422
sg26
V5
sS'trials.thisRepN'
p423
I0
sg66
Vfilling-cabinet
p424
sg63
V../experiment_stimuli/bw_bc_bl/Nonliving_Things/Furniture/filling-cabinet_19.jpg
p425
sg21
F0.76188503950834274
sS'trials.thisTrialN'
p426
I30
sa(dp427
g31
g32
sg17
F127.4505620978307
sg24
I1
sg35
g39
sg14
F127.44566489732824
sg16
g36
(g70
S'\x01\x00\x00\x00'
tRp428
sg42
g43
sg46
g47
sg15
g136
sg22
F130.23236956261098
sg64
g160
sg62
g74
sg49
g50
sS'trials.thisN'
p429
I31
sg19
I0
sg27
g36
(g38
S'\x00\x00\x00\x00\x00\x00\x1a@'
tRp430
sg52
g53
sg23
S'1'
sg18
F128.70830764900893
sg33
g34
sg51
g11
sg20
S'2'
sg65
g36
(g77
S'\x00\x00\x00\x00\x00\x00\x00\x00'
tRp431
sg44
g45
sg40
g41
sg25
F0.18066074349917471
sS'trials.thisIndex'
p432
g36
(g80
S'\x19\x00\x00\x00'
tRp433
sg26
V5
sS'trials.thisRepN'
p434
I0
sg66
Vdrum
p435
sg63
V../experiment_stimuli/bw_bc_bl/Nonliving_Things/Musical_Inst/drum_16.jpg
p436
sg21
F1.503493336495012
sS'trials.thisTrialN'
p437
I31
sa(dp438
g31
g32
sg17
F132.15161330159754
sg24
I1
sg35
g39
sg14
F132.14590733475052
sg16
g36
(g70
S'\x01\x00\x00\x00'
tRp439
sg42
g43
sg46
g47
sg15
g72
sg22
F134.72212254814804
sg64
g124
sg62
g112
sg49
g50
sS'trials.thisN'
p440
I32
sg19
I1
sg27
g36
(g38
S'\x00\x00\x00\x00\x00\x00\x1e@'
tRp441
sg52
g53
sg23
S'1'
sg18
F133.41854476626031
sg33
g34
sg51
g11
sg20
S'1'
sg65
g36
(g77
S'\x00\x00\x00\x00\x00\x00\x00\x00'
tRp442
sg44
g45
sg40
g41
sg25
F0.46121782320551574
sS'trials.thisIndex'
p443
g36
(g80
S'C\x00\x00\x00'
tRp444
sg26
V5
sS'trials.thisRepN'
p445
I0
sg66
Vraven
p446
sg63
V../experiment_stimuli/bw_bc_bl/Living_Things/Birds/raven_8.jpg
p447
sg21
F1.2830155049450696
sS'trials.thisTrialN'
p448
I32
sa(dp449
g31
g32
sg17
F136.92196740396321
sg24
I0
sg35
g39
sg14
F136.91624674899504
sg16
g36
(g70
S'\x02\x00\x00\x00'
tRp450
sg42
g43
sg46
g47
sg15
g72
sg22
F139.15177676687017
sg64
g148
sg62
g74
sg49
g50
sS'trials.thisN'
p451
I33
sg19
I0
sg27
g36
(g38
S'\x00\x00\x00\x00\x00\x00\x1a@'
tRp452
sg52
g53
sg23
S'3'
sg18
F138.20897112647071
sg33
g34
sg51
g11
sg20
S'1'
sg65
g36
(g77
S'\x00\x00\x00\x00\x00\x00\x00\x00'
tRp453
sg44
g45
sg40
g41
sg25
F0.40108756045810878
sS'trials.thisIndex'
p454
g36
(g80
S'\x02\x00\x00\x00'
tRp455
sg26
V5
sS'trials.thisRepN'
p456
I0
sg66
Varmchair
p457
sg63
V../experiment_stimuli/bw_bc_bl/Nonliving_Things/Furniture/armchair_20.jpg
p458
sg21
F0.92224410781636834
sS'trials.thisTrialN'
p459
I33
sa(dp460
g31
g32
sg17
F141.29073720891029
sg24
I0
sg35
g39
sg14
F141.28575967485085
sg16
g36
(g70
S'\x02\x00\x00\x00'
tRp461
sg42
g43
sg46
g47
sg15
g72
sg22
F142.98010361962952
sg64
g160
sg62
g74
sg49
g50
sS'trials.thisN'
p462
I34
sg19
I1
sg27
g36
(g38
S'\x00\x00\x00\x00\x00\x00\x1e@'
tRp463
sg52
g53
sg23
S'3'
sg18
F142.55841552349739
sg33
g34
sg51
g11
sg20
S'2'
sg65
g36
(g77
S'\x00\x00\x00\x00\x00\x00\x00\x00'
tRp464
sg44
g45
sg40
g41
sg25
F0.12047970318235457
sS'trials.thisIndex'
p465
g36
(g80
S'X\x00\x00\x00'
tRp466
sg26
V5
sS'trials.thisRepN'
p467
I0
sg66
Vtrumpet
p468
sg63
V../experiment_stimuli/bw_bc_bl/Nonliving_Things/Musical_Inst/trumpet_14.jpg
p469
sg21
F0.40112523664720356
sS'trials.thisTrialN'
p470
I34
sa(dp471
g31
g32
sg17
F144.83831157861277
sg24
I0
sg35
g39
sg14
F144.8334787983913
sg16
g36
(g70
S'\x01\x00\x00\x00'
tRp472
sg42
g43
sg46
g47
sg15
g72
sg22
F147.41970262443647
sg64
g124
sg62
g112
sg49
g50
sS'trials.thisN'
p473
I35
sg19
I1
sg27
g36
(g38
S'\x00\x00\x00\x00\x00\x00\x1c@'
tRp474
sg52
g53
sg23
S'2'
sg18
F146.08608785551041
sg33
g34
sg51
g11
sg20
S'1'
sg65
g36
(g77
S'\x00\x00\x00\x00\x00\x00\x00\x00'
tRp475
sg44
g45
sg40
g41
sg25
F0.21076473733410239
sS'trials.thisIndex'
p476
g36
(g80
S'"\x00\x00\x00'
tRp477
sg26
V5
sS'trials.thisRepN'
p478
I0
sg66
Vgoose
p479
sg63
V../experiment_stimuli/bw_bc_bl/Living_Things/Birds/goose_20.jpg
p480
sg21
F1.3130777024198323
sS'trials.thisTrialN'
p481
I35
sa(dp482
g31
g32
sg17
F149.36820651963353
sg24
I0
sg35
g39
sg14
F149.36331772129051
sg16
g36
(g70
S'\x02\x00\x00\x00'
tRp483
sg42
g43
sg46
g47
sg15
g72
sg22
F151.24802803387865
sg64
g73
sg62
g74
sg49
g50
sS'trials.thisN'
p484
I36
sg19
I1
sg27
g36
(g38
S'\x00\x00\x00\x00\x00\x00\x1c@'
tRp485
sg52
g53
sg23
S'2'
sg18
F150.60590724879876
sg33
g34
sg51
g11
sg20
S'2'
sg65
g36
(g77
S'\x00\x00\x00\x00\x00\x00\x00\x00'
tRp486
sg44
g45
sg40
g41
sg25
F0.28082962823100388
sS'trials.thisIndex'
p487
g36
(g80
S':\x00\x00\x00'
tRp488
sg26
V5
sS'trials.thisRepN'
p489
I0
sg66
Vpalace
p490
sg63
V../experiment_stimuli/bw_bc_bl/Nonliving_Things/Buildings/palace_1.jpg
p491
sg21
F0.62157765822485089
sS'trials.thisTrialN'
p492
I36
sa(dp493
g31
g32
sg17
F153.26659972639754
sg24
I1
sg35
g39
sg14
F153.26178187411278
sg16
g36
(g70
S'\x02\x00\x00\x00'
tRp494
sg42
g43
sg46
g47
sg15
g72
sg22
F154.97616435564123
sg64
g148
sg62
g74
sg49
g50
sS'trials.thisN'
p495
I37
sg19
I0
sg27
g36
(g38
S'\x00\x00\x00\x00\x00\x00\x1a@'
tRp496
sg52
g53
sg23
S'1'
sg18
F154.4943645040039
sg33
g34
sg51
g11
sg20
S'1'
sg65
g36
(g77
S'\x00\x00\x00\x00\x00\x00\x00\x00'
tRp497
sg44
g45
sg40
g41
sg25
F0.92222379217855632
sS'trials.thisIndex'
p498
g36
(g80
S'\x13\x00\x00\x00'
tRp499
sg26
V5
sS'trials.thisRepN'
p500
I0
sg66
Vcouch
p501
sg63
V../experiment_stimuli/bw_bc_bl/Nonliving_Things/Furniture/couch_23.jpg
p502
sg21
F0.46122768777422607
sS'trials.thisTrialN'
p503
I37
sa(dp504
g31
g32
sg17
F157.6362127144821
sg24
I0
sg35
g39
sg14
F157.631300709676
sg16
g36
(g70
S'\x01\x00\x00\x00'
tRp505
sg42
g43
sg46
g47
sg15
g136
sg22
F159.77657978679053
sg64
g148
sg62
g74
sg49
g50
sS'trials.thisN'
p506
I38
sg19
I1
sg27
g36
(g38
S'\x00\x00\x00\x00\x00\x00\x18@'
tRp507
sg52
g53
sg23
S'2'
sg18
F158.89392981864512
sg33
g34
sg51
g11
sg20
S'1'
sg65
g36
(g77
S'\x00\x00\x00\x00\x00\x00\x00\x00'
tRp508
sg44
g45
sg40
g41
sg25
F0.12047992483712733
sS'trials.thisIndex'
p509
g36
(g80
S'\x00\x00\x00\x00'
tRp510
sg26
V5
sS'trials.thisRepN'
p511
I0
sg66
VChest-of-drawers
p512
sg63
V../experiment_stimuli/bw_bc_bl/Nonliving_Things/Furniture/Chest-of-drawers_7.jpg
p513
sg21
F0.86210096161812544
sS'trials.thisTrialN'
p514
I38
sa(dp515
g31
g32
sg17
F161.63698387588374
sg24
I0
sg35
g39
sg14
F161.63004853925668
sg16
g36
(g70
S'\x02\x00\x00\x00'
tRp516
sg42
g43
sg46
g47
sg15
g72
sg22
F163.46460600243881
sg64
g160
sg62
g74
sg49
g50
sS'trials.thisN'
p517
I39
sg19
I1
sg27
g36
(g38
S'\x00\x00\x00\x00\x00\x00\x1a@'
tRp518
sg52
g53
sg23
S'2'
sg18
F162.88260474009439
sg33
g34
sg51
g11
sg20
S'2'
sg65
g36
(g77
S'\x00\x00\x00\x00\x00\x00\x00\x00'
tRp519
sg44
g45
sg40
g41
sg25
F0.31089604762382805
sS'trials.thisIndex'
p520
g36
(g80
S'>\x00\x00\x00'
tRp521
sg26
V5
sS'trials.thisRepN'
p522
I0
sg66
Vpiano
p523
sg63
V../experiment_stimuli/bw_bc_bl/Nonliving_Things/Musical_Inst/piano__21.jpg
p524
sg21
F0.56145769939757884
sS'trials.thisTrialN'
p525
I39
sa(dp526
g31
g32
sg17
F165.51322915568016
sg24
I1
sg35
g39
sg14
F165.50840936368331
sg16
g36
(g70
S'\x01\x00\x00\x00'
tRp527
sg42
g43
sg46
g47
sg15
g72
sg22
F167.11237963684835
sg64
g124
sg62
g112
sg49
g50
sS'trials.thisN'
p528
I40
sg19
I1
sg27
g36
(g38
S'\x00\x00\x00\x00\x00\x00\x18@'
tRp529
sg52
g53
sg23
S'1'
sg18
F166.75100914668292
sg33
g34
sg51
g11
sg20
S'1'
sg65
g36
(g77
S'\x00\x00\x00\x00\x00\x00\x00\x00'
tRp530
sg44
g45
sg40
g41
sg25
F0.2708082830067724
sS'trials.thisIndex'
p531
g36
(g80
S'\x04\x00\x00\x00'
tRp532
sg26
V5
sS'trials.thisRepN'
p533
I0
sg66
Vbarn-owl
p534
sg63
V../experiment_stimuli/bw_bc_bl/Living_Things/Birds/barn-owl_23.jpg
p535
sg21
F0.34080580715090036
sS'trials.thisTrialN'
p536
I40
sa(dp537
g31
g32
sg17
F169.12106559122913
sg24
I1
sg35
g39
sg14
F169.11626014881767
sg16
g36
(g70
S'\x02\x00\x00\x00'
tRp538
sg42
g43
sg46
g47
sg15
g72
sg22
F170.9007692495361
sg64
g99
sg62
g74
sg49
g50
sS'trials.thisN'
p539
I41
sg19
I1
sg27
g36
(g38
S'\x00\x00\x00\x00\x00\x00\x18@'
tRp540
sg52
g53
sg23
S'1'
sg18
F170.37889219378121
sg33
g34
sg51
g11
sg20
S'2'
sg65
g36
(g77
S'\x00\x00\x00\x00\x00\x00\x00\x00'
tRp541
sg44
g45
sg40
g41
sg25
F0.62158538005314767
sS'trials.thisIndex'
p542
g36
(g80
S'\x1e\x00\x00\x00'
tRp543
sg26
V5
sS'trials.thisRepN'
p544
I0
sg66
Vfondue
p545
sg63
V../experiment_stimuli/bw_bc_bl/Nonliving_Things/Kitchen_Uten/fondue_17.jpg
p546
sg21
F0.50131393317133188
sS'trials.thisTrialN'
p547
I41
sa(dp548
g31
g32
sg17
F173.26009099837393
sg24
I0
sg35
g39
sg14
F173.25524513889104
sg16
g36
(g70
S'\x01\x00\x00\x00'
tRp549
sg42
g43
sg46
g47
sg15
g136
sg22
F175.62102163722739
sg64
g295
sg62
g74
sg49
g50
sS'trials.thisN'
p550
I42
sg19
I1
sg27
g36
(g38
S'\x00\x00\x00\x00\x00\x00\x1a@'
tRp551
sg52
g53
sg23
S'3'
sg18
F174.55797858349979
sg33
g34
sg51
g11
sg20
S'1'
sg65
g36
(g77
S'\x00\x00\x00\x00\x00\x00\x00\x00'
tRp552
sg44
g45
sg40
g41
sg25
F0.26079696835950017
sS'trials.thisIndex'
p553
g36
(g80
S'[\x00\x00\x00'
tRp554
sg26
V5
sS'trials.thisRepN'
p555
I0
sg66
Vvan
p556
sg63
V../experiment_stimuli/bw_bc_bl/Nonliving_Things/Vehicles/van_19.jpg
p557
sg21
F1.0424952879548073
sS'trials.thisTrialN'
p558
I42
sa(dp559
g31
g32
sg17
F177.620553876739
sg24
I0
sg35
g39
sg14
F177.61472308798693
sg16
g36
(g70
S'\x02\x00\x00\x00'
tRp560
sg42
g43
sg46
g47
sg15
g136
sg22
F179.87025869917125
sg64
g111
sg62
g112
sg49
g50
sS'trials.thisN'
p561
I43
sg19
I1
sg27
g36
(g38
S'\x00\x00\x00\x00\x00\x00\x1a@'
tRp562
sg52
g53
sg23
S'2'
sg18
F178.88739029411227
sg33
g34
sg51
g11
sg20
S'2'
sg65
g36
(g77
S'\x00\x00\x00\x00\x00\x00\x00\x00'
tRp563
sg44
g45
sg40
g41
sg25
F0.50132889533415437
sS'trials.thisIndex'
p564
g36
(g80
S'\x1b\x00\x00\x00'
tRp565
sg26
V5
sS'trials.thisRepN'
p566
I0
sg66
Velephant
p567
sg63
V../experiment_stimuli/bw_bc_bl/Living_Things/Animals/elephant_9.jpg
p568
sg21
F0.96231710887514055
sS'trials.thisTrialN'
p569
I43
sa(dp570
g31
g32
sg17
F182.1103853425011
sg24
I0
sg35
g39
sg14
F182.10448600584641
sg16
g36
(g70
S'\x01\x00\x00\x00'
tRp571
sg42
g43
sg46
g47
sg15
g136
sg22
F183.80882157478482
sg64
g73
sg62
g74
sg49
g50
sS'trials.thisN'
p572
I44
sg19
I0
sg27
g36
(g38
S'\x00\x00\x00\x00\x00\x00\x18@'
tRp573
sg52
g53
sg23
S'2'
sg18
F183.3671312010847
sg33
g34
sg51
g11
sg20
S'2'
sg65
g36
(g77
S'\x00\x00\x00\x00\x00\x00\x00\x00'
tRp574
sg44
g45
sg40
g41
sg25
F0.20065219746902585
sS'trials.thisIndex'
p575
g36
(g80
S'5\x00\x00\x00'
tRp576
sg26
V5
sS'trials.thisRepN'
p577
I0
sg66
Vmill
p578
sg63
V../experiment_stimuli/bw_bc_bl/Nonliving_Things/Buildings/mill_1.jpg
p579
sg21
F0.4211395550519228
sS'trials.thisTrialN'
p580
I44
sa(dp581
g31
g32
sg17
F185.74736285326071
sg24
I0
sg35
g39
sg14
F185.74239788693376
sg16
g36
(g70
S'\x01\x00\x00\x00'
tRp582
sg42
g43
sg46
g47
sg15
g72
sg22
F187.55697875656188
sg64
g124
sg62
g112
sg49
g50
sS'trials.thisN'
p583
I45
sg19
I1
sg27
g36
(g38
S'\x00\x00\x00\x00\x00\x00\x18@'
tRp584
sg52
g53
sg23
S'2'
sg18
F186.99502175184898
sg33
g34
sg51
g11
sg20
S'1'
sg65
g36
(g77
S'\x00\x00\x00\x00\x00\x00\x00\x00'
tRp585
sg44
g45
sg40
g41
sg25
F0.16060873004607856
sS'trials.thisIndex'
p586
g36
(g80
S'O\x00\x00\x00'
tRp587
sg26
V5
sS'trials.thisRepN'
p588
I0
sg66
Vsparrow
p589
sg63
V../experiment_stimuli/bw_bc_bl/Living_Things/Birds/sparrow_9.jpg
p590
sg21
F0.54141714074648917
sS'trials.thisTrialN'
p591
I45
sa(dp592
g31
g32
sg17
F189.4556069446262
sg24
I1
sg35
g39
sg14
F189.45045196241699
sg16
g36
(g70
S'\x02\x00\x00\x00'
tRp593
sg42
g43
sg46
g47
sg15
g72
sg22
F190.98446407564916
sg64
g73
sg62
g74
sg49
g50
sS'trials.thisN'
p594
I46
sg19
I0
sg27
g36
(g38
S'\x00\x00\x00\x00\x00\x00 @'
tRp595
sg52
g53
sg23
S'1'
sg18
F190.69305371888913
sg33
g34
sg51
g11
sg20
S'1'
sg65
g36
(g77
S'\x00\x00\x00\x00\x00\x00\x00\x00'
tRp596
sg44
g45
sg40
g41
sg25
F0.21069530583918095
sS'trials.thisIndex'
p597
g36
(g80
S'\x1c\x00\x00\x00'
tRp598
sg26
V5
sS'trials.thisRepN'
p599
I0
sg66
Vfactory
p600
sg63
V../experiment_stimuli/bw_bc_bl/Nonliving_Things/Buildings/factory_7.jpg
p601
sg21
F0.27081672684289515
sS'trials.thisTrialN'
p602
I46
sa(dp603
g31
g32
sg17
F192.93284501763992
sg24
I0
sg35
g39
sg14
F192.92801360948943
sg16
g36
(g70
S'\x01\x00\x00\x00'
tRp604
sg42
g43
sg46
g47
sg15
g136
sg22
F194.82279118010774
sg64
g160
sg62
g74
sg49
g50
sS'trials.thisN'
p605
I47
sg19
I1
sg27
g36
(g38
S'\x00\x00\x00\x00\x00\x00\x1e@'
tRp606
sg52
g53
sg23
S'3'
sg18
F194.20068139047362
sg33
g34
sg51
g11
sg20
S'1'
sg65
g36
(g77
S'\x00\x00\x00\x00\x00\x00\x00\x00'
tRp607
sg44
g45
sg40
g41
sg25
F0.17064937204122543
sS'trials.thisIndex'
p608
g36
(g80
S'\\\x00\x00\x00'
tRp609
sg26
V5
sS'trials.thisRepN'
p610
I0
sg66
Vviolin
p611
sg63
V../experiment_stimuli/bw_bc_bl/Nonliving_Things/Musical_Inst/violin_22.jpg
p612
sg21
F0.6015444602817297
sS'trials.thisTrialN'
p613
I47
sa(dp614
g31
g32
sg17
F196.73107040324248
sg24
I0
sg35
g39
sg14
F196.726269306615
sg16
g36
(g70
S'\x02\x00\x00\x00'
tRp615
sg42
g43
sg46
g47
sg15
g72
sg22
F198.76135659357533
sg64
g99
sg62
g74
sg49
g50
sS'trials.thisN'
p616
I48
sg19
I1
sg27
g36
(g38
S'\x00\x00\x00\x00\x00\x00\x1e@'
tRp617
sg52
g53
sg23
S'3'
sg18
F197.97890065261163
sg33
g34
sg51
g11
sg20
S'2'
sg65
g36
(g77
S'\x00\x00\x00\x00\x00\x00\x00\x00'
tRp618
sg44
g45
sg40
g41
sg25
F0.12048361636698246
sS'trials.thisIndex'
p619
g36
(g80
S'B\x00\x00\x00'
tRp620
sg26
V5
sS'trials.thisRepN'
p621
I0
sg66
Vpot
p622
sg63
V../experiment_stimuli/bw_bc_bl/Nonliving_Things/Kitchen_Uten/pot_20.jpg
p623
sg21
F0.76190134044736624
sS'trials.thisTrialN'
p624
I48
sa(dp625
g31
g32
sg17
F200.6195898714941
sg24
I1
sg35
g39
sg14
F200.61473816656508
sg16
g36
(g70
S'\x01\x00\x00\x00'
tRp626
sg42
g43
sg46
g47
sg15
g72
sg22
F202.22885876824148
sg64
g111
sg62
g112
sg49
g50
sS'trials.thisN'
p627
I49
sg19
I1
sg27
g36
(g38
S'\x00\x00\x00\x00\x00\x00\x1a@'
tRp628
sg52
g53
sg23
S'1'
sg18
F201.84730534534901
sg33
g34
sg51
g11
sg20
S'1'
sg65
g36
(g77
S'\x00\x00\x00\x00\x00\x00\x00\x00'
tRp629
sg44
g45
sg40
g41
sg25
F0.23073719162493944
sS'trials.thisIndex'
p630
g36
(g80
S'R\x00\x00\x00'
tRp631
sg26
V5
sS'trials.thisRepN'
p632
I0
sg66
Vtapir
p633
sg63
V../experiment_stimuli/bw_bc_bl/Living_Things/Animals/tapir_2.jpg
p634
sg21
F0.36048973561264575
sS'trials.thisTrialN'
p635
I49
sa(dp636
g31
g32
sg17
F204.1995713301003
sg24
I1
sg35
g39
sg14
F204.19251166423783
sg16
g36
(g70
S'\x02\x00\x00\x00'
tRp637
sg42
g43
sg46
g47
sg15
g72
sg22
F205.9068623452913
sg64
g295
sg62
g74
sg49
g50
sS'trials.thisN'
p638
I50
sg19
I1
sg27
g36
(g38
S'\x00\x00\x00\x00\x00\x00\x1a@'
tRp639
sg52
g53
sg23
S'1'
sg18
F205.43510768795386
sg33
g34
sg51
g11
sg20
S'2'
sg65
g36
(g77
S'\x00\x00\x00\x00\x00\x00\x00\x00'
tRp640
sg44
g45
sg40
g41
sg25
F0.24076756695285439
sS'trials.thisIndex'
p641
g36
(g80
S'W\x00\x00\x00'
tRp642
sg26
V5
sS'trials.thisRepN'
p643
I0
sg66
Vtrain
p644
sg63
V../experiment_stimuli/bw_bc_bl/Nonliving_Things/Vehicles/train_25.jpg
p645
sg21
F0.4512094552628696
sS'trials.thisTrialN'
p646
I50
sa(dp647
g31
g32
sg17
F207.88533476251177
sg24
I0
sg35
g39
sg14
F207.88052256824449
sg16
g36
(g70
S'\x02\x00\x00\x00'
tRp648
sg42
g43
sg46
g47
sg15
g136
sg22
F209.59491323353723
sg64
g183
sg62
g112
sg49
g50
sS'trials.thisN'
p649
I51
sg19
I0
sg27
g36
(g38
S'\x00\x00\x00\x00\x00\x00\x1a@'
tRp650
sg52
g53
sg23
S'2'
sg18
F209.13314203475602
sg33
g34
sg51
g11
sg20
S'1'
sg65
g36
(g77
S'\x00\x00\x00\x00\x00\x00\x00\x00'
tRp651
sg44
g45
sg40
g41
sg25
F0.16061080503277481
sS'trials.thisIndex'
p652
g36
(g80
S'P\x00\x00\x00'
tRp653
sg26
V5
sS'trials.thisRepN'
p654
I0
sg66
Vsperm-whale
p655
sg63
V../experiment_stimuli/bw_bc_bl/Living_Things/Marine_creatures/sperm-whale_10.jpg
p656
sg21
F0.44120041071437299
sS'trials.thisTrialN'
p657
I51
sa(dp658
g31
g32
sg17
F211.49319723527879
sg24
I1
sg35
g39
sg14
F211.48837825562805
sg16
g36
(g70
S'\x01\x00\x00\x00'
tRp659
sg42
g43
sg46
g47
sg15
g72
sg22
F213.45330290799029
sg64
g183
sg62
g112
sg49
g50
sS'trials.thisN'
p660
I52
sg19
I0
sg27
g36
(g38
S'\x00\x00\x00\x00\x00\x00\x18@'
tRp661
sg52
g53
sg23
S'1'
sg18
F212.73096454609185
sg33
g34
sg51
g11
sg20
S'2'
sg65
g36
(g77
S'\x00\x00\x00\x00\x00\x00\x00\x00'
tRp662
sg44
g45
sg40
g41
sg25
F0.090435468126088381
sS'trials.thisIndex'
p663
g36
(g80
S'\x17\x00\x00\x00'
tRp664
sg26
V5
sS'trials.thisRepN'
p665
I0
sg66
Vdolphin
p666
sg63
V../experiment_stimuli/bw_bc_bl/Living_Things/Marine_creatures/dolphin_9.jpg
p667
sg21
F0.70175722800195217
sS'trials.thisTrialN'
p668
I52
sa(dp669
g31
g32
sg17
F215.28161675762385
sg24
I1
sg35
g39
sg14
F215.27659575431608
sg16
g36
(g70
S'\x01\x00\x00\x00'
tRp670
sg42
g43
sg46
g47
sg15
g72
sg22
F217.73256837809458
sg64
g340
sg62
g112
sg49
g50
sS'trials.thisN'
p671
I53
sg19
I1
sg27
g36
(g38
S'\x00\x00\x00\x00\x00\x00\x18@'
tRp672
sg52
g53
sg23
S'1'
sg18
F216.53924494213425
sg33
g34
sg51
g11
sg20
S'1'
sg65
g36
(g77
S'\x00\x00\x00\x00\x00\x00\x00\x00'
tRp673
sg44
g45
sg40
g41
sg25
F1.2629715364892036
sS'trials.thisIndex'
p674
g36
(g80
S'\x18\x00\x00\x00'
tRp675
sg26
V5
sS'trials.thisRepN'
p676
I0
sg66
Vdragonfly
p677
sg63
V../experiment_stimuli/bw_bc_bl/Living_Things/Insects/dragonfly_0.jpg
p678
sg21
F1.1727598432917148
sS'trials.thisTrialN'
p679
I53
sa(dp680
g31
g32
sg17
F220.73344519804232
sg24
I0
sg35
g39
sg14
F220.72845048364252
sg16
g36
(g70
S'\x01\x00\x00\x00'
tRp681
sg42
g43
sg46
g47
sg15
g72
sg22
F227.48380438331515
sg64
g183
sg62
g112
sg49
g50
sS'trials.thisN'
p682
I54
sg19
I1
sg27
g36
(g38
S'\x00\x00\x00\x00\x00\x00\x1e@'
tRp683
sg52
g53
sg23
S'3'
sg18
F222.02116031991318
sg33
g34
sg51
g11
sg20
S'1'
sg65
g36
(g77
S'\x00\x00\x00\x00\x00\x00\x00\x00'
tRp684
sg44
g45
sg40
g41
sg25
F0.15054778382182121
sS'trials.thisIndex'
p685
g36
(g80
S'4\x00\x00\x00'
tRp686
sg26
V5
sS'trials.thisRepN'
p687
I0
sg66
Vmanatee
p688
sg63
V../experiment_stimuli/bw_bc_bl/Living_Things/Marine_creatures/manatee_13.jpg
p689
sg21
F5.4420657155569643
sS'trials.thisTrialN'
p690
I54
sa(dp691
g31
g32
sg17
F229.37225719494745
sg24
I1
sg35
g39
sg14
F229.36722891754471
sg16
g36
(g70
S'\x01\x00\x00\x00'
tRp692
sg42
g43
sg46
g47
sg15
g72
sg22
F231.1216848436743
sg64
g124
sg62
g112
sg49
g50
sS'trials.thisN'
p693
I55
sg19
I1
sg27
g36
(g38
S'\x00\x00\x00\x00\x00\x00\x1a@'
tRp694
sg52
g53
sg23
S'1'
sg18
F230.62987548112869
sg33
g34
sg51
g11
sg20
S'1'
sg65
g36
(g77
S'\x00\x00\x00\x00\x00\x00\x00\x00'
tRp695
sg44
g45
sg40
g41
sg25
F0.51133371819742024
sS'trials.thisIndex'
p696
g36
(g80
S'8\x00\x00\x00'
tRp697
sg26
V5
sS'trials.thisRepN'
p698
I0
sg66
Vostrich
p699
sg63
V../experiment_stimuli/bw_bc_bl/Living_Things/Birds/ostrich_4.jpg
p700
sg21
F0.47125847986899316
sS'trials.thisTrialN'
p701
I55
sa(dp702
g31
g32
sg17
F233.37204180308618
sg24
I0
sg35
g39
sg14
F233.3659250412602
sg16
g36
(g70
S'\x01\x00\x00\x00'
tRp703
sg42
g43
sg46
g47
sg15
g136
sg22
F235.34086361015216
sg64
g99
sg62
g74
sg49
g50
sS'trials.thisN'
p704
I56
sg19
I1
sg27
g36
(g38
S'\x00\x00\x00\x00\x00\x00\x18@'
tRp705
sg52
g53
sg23
S'2'
sg18
F234.63859193492681
sg33
g34
sg51
g11
sg20
S'1'
sg65
g36
(g77
S'\x00\x00\x00\x00\x00\x00\x00\x00'
tRp706
sg44
g45
sg40
g41
sg25
F0.17058875621296465
sS'trials.thisIndex'
p707
g36
(g80
S'S\x00\x00\x00'
tRp708
sg26
V5
sS'trials.thisRepN'
p709
I0
sg66
Vteapot
p710
sg63
V../experiment_stimuli/bw_bc_bl/Nonliving_Things/Kitchen_Uten/teapot_23.jpg
p711
sg21
F0.6817073910497129
sS'trials.thisTrialN'
p712
I56
sa(dp713
g31
g32
sg17
F237.25046716048382
sg24
I1
sg35
g39
sg14
F237.24435202241875
sg16
g36
(g70
S'\x02\x00\x00\x00'
tRp714
sg42
g43
sg46
g47
sg15
g136
sg22
F239.22931765089743
sg64
g124
sg62
g112
sg49
g50
sS'trials.thisN'
p715
I57
sg19
I1
sg27
g36
(g38
S'\x00\x00\x00\x00\x00\x00\x18@'
tRp716
sg52
g53
sg23
S'1'
sg18
F238.50700074387714
sg33
g34
sg51
g11
sg20
S'2'
sg65
g36
(g77
S'\x00\x00\x00\x00\x00\x00\x00\x00'
tRp717
sg44
g45
sg40
g41
sg25
F0.26078804698772728
sS'trials.thisIndex'
p718
g36
(g80
S';\x00\x00\x00'
tRp719
sg26
V5
sS'trials.thisRepN'
p720
I0
sg66
Vpartridge
p721
sg63
V../experiment_stimuli/bw_bc_bl/Living_Things/Birds/partridge_23.jpg
p722
sg21
F0.70176366739906371
sS'trials.thisTrialN'
p723
I57
sa(dp724
g31
g32
sg17
F241.22802189504728
sg24
I0
sg35
g39
sg14
F241.22301725600846
sg16
g36
(g70
S'\x02\x00\x00\x00'
tRp725
sg42
g43
sg46
g47
sg15
g72
sg22
F243.11775933508761
sg64
g295
sg62
g74
sg49
g50
sS'trials.thisN'
p726
I58
sg19
I0
sg27
g36
(g38
S'\x00\x00\x00\x00\x00\x00\x18@'
tRp727
sg52
g53
sg23
S'2'
sg18
F242.49566994351335
sg33
g34
sg51
g11
sg20
S'1'
sg65
g36
(g77
S'\x00\x00\x00\x00\x00\x00\x00\x00'
tRp728
sg44
g45
sg40
g41
sg25
F0.19063087529502809
sS'trials.thisIndex'
p729
g36
(g80
S'@\x00\x00\x00'
tRp730
sg26
V5
sS'trials.thisRepN'
p731
I0
sg66
Vplane
p732
sg63
V../experiment_stimuli/bw_bc_bl/Nonliving_Things/Vehicles/plane_1.jpg
p733
sg21
F0.60153076471760869
sS'trials.thisTrialN'
p734
I58
sa(dp735
g31
g32
sg17
F245.04622654709965
sg24
I0
sg35
g39
sg14
F245.04130336944945
sg16
g36
(g70
S'\x01\x00\x00\x00'
tRp736
sg42
g43
sg46
g47
sg15
g72
sg22
F246.76569538027979
sg64
g124
sg62
g112
sg49
g50
sS'trials.thisN'
p737
I59
sg19
I1
sg27
g36
(g38
S'\x00\x00\x00\x00\x00\x00\x1e@'
tRp738
sg52
g53
sg23
S'2'
sg18
F246.3039502564352
sg33
g34
sg51
g11
sg20
S'1'
sg65
g36
(g77
S'\x00\x00\x00\x00\x00\x00\x00\x00'
tRp739
sg44
g45
sg40
g41
sg25
F0.18061502231284976
sS'trials.thisIndex'
p740
g36
(g80
S'&\x00\x00\x00'
tRp741
sg26
V5
sS'trials.thisRepN'
p742
I0
sg66
Vhen
p743
sg63
V../experiment_stimuli/bw_bc_bl/Living_Things/Birds/hen_9.jpg
p744
sg21
F0.44118600874207914
sS'trials.thisTrialN'
p745
I59
sa(dp746
g31
g32
sg17
F248.68429985037073
sg24
I1
sg35
g39
sg14
F248.67920702090487
sg16
g36
(g70
S'\x01\x00\x00\x00'
tRp747
sg42
g43
sg46
g47
sg15
g136
sg22
F250.70410975813866
sg64
g148
sg62
g74
sg49
g50
sS'trials.thisN'
p748
I60
sg19
I0
sg27
g36
(g38
S'\x00\x00\x00\x00\x00\x00\x18@'
tRp749
sg52
g53
sg23
S'1'
sg18
F249.93183689750731
sg33
g34
sg51
g11
sg20
S'2'
sg65
g36
(g77
S'\x00\x00\x00\x00\x00\x00\x00\x00'
tRp750
sg44
g45
sg40
g41
sg25
F0.16061495151370764
sS'trials.thisIndex'
p751
g36
(g80
S'Q\x00\x00\x00'
tRp752
sg26
V5
sS'trials.thisRepN'
p753
I0
sg66
Vtable
p754
sg63
V../experiment_stimuli/bw_bc_bl/Nonliving_Things/Furniture/table_20.jpg
p755
sg21
F0.7517026481218636
sS'trials.thisTrialN'
p756
I60
sa(dp757
g31
g32
sg17
F252.60266199661419
sg24
I0
sg35
g39
sg14
F252.59773980779573
sg16
g36
(g70
S'\x02\x00\x00\x00'
tRp758
sg42
g43
sg46
g47
sg15
g136
sg22
F254.51253291149624
sg64
g111
sg62
g112
sg49
g50
sS'trials.thisN'
p759
I61
sg19
I1
sg27
g36
(g38
S'\x00\x00\x00\x00\x00\x00\x18@'
tRp760
sg52
g53
sg23
S'2'
sg18
F253.88043482881039
sg33
g34
sg51
g11
sg20
S'2'
sg65
g36
(g77
S'\x00\x00\x00\x00\x00\x00\x00\x00'
tRp761
sg44
g45
sg40
g41
sg25
F0.28067728108726442
sS'trials.thisIndex'
p762
g36
(g80
S'\r\x00\x00\x00'
tRp763
sg26
V5
sS'trials.thisRepN'
p764
I0
sg66
Vcat
p765
sg63
V../experiment_stimuli/bw_bc_bl/Living_Things/Animals/cat_10.jpg
p766
sg21
F0.61156486184336245
sS'trials.thisTrialN'
p767
I61
sa(dp768
g31
g32
sg17
F256.53114340780303
sg24
I0
sg35
g39
sg14
F256.52626905660145
sg16
g36
(g70
S'\x01\x00\x00\x00'
tRp769
sg42
g43
sg46
g47
sg15
g72
sg22
F258.53127821395174
sg64
g124
sg62
g112
sg49
g50
sS'trials.thisN'
p770
I62
sg19
I1
sg27
g36
(g38
S'\x00\x00\x00\x00\x00\x00\x1a@'
tRp771
sg52
g53
sg23
S'2'
sg18
F257.80897281784564
sg33
g34
sg51
g11
sg20
S'1'
sg65
g36
(g77
S'\x00\x00\x00\x00\x00\x00\x00\x00'
tRp772
sg44
g45
sg40
g41
sg25
F0.23057411494664848
sS'trials.thisIndex'
p773
g36
(g80
S'J\x00\x00\x00'
tRp774
sg26
V5
sS'trials.thisRepN'
p775
I0
sg66
Vseagull
p776
sg63
V../experiment_stimuli/bw_bc_bl/Living_Things/Birds/seagull_5.jpg
p777
sg21
F0.70174968312494457
sS'trials.thisTrialN'
p778
I62
sa(dp779
g31
g32
sg17
F260.49978733016178
sg24
I0
sg35
g39
sg14
F260.49489377997816
sg16
g36
(g70
S'\x01\x00\x00\x00'
tRp780
sg42
g43
sg46
g47
sg15
g72
sg22
F262.60997341363691
sg64
g111
sg62
g112
sg49
g50
sS'trials.thisN'
p781
I63
sg19
I1
sg27
g36
(g38
S'\x00\x00\x00\x00\x00\x00\x18@'
tRp782
sg52
g53
sg23
S'2'
sg18
F261.76756297820248
sg33
g34
sg51
g11
sg20
S'1'
sg65
g36
(g77
S'\x00\x00\x00\x00\x00\x00\x00\x00'
tRp783
sg44
g45
sg40
g41
sg25
F0.1806150411721319
sS'trials.thisIndex'
p784
g36
(g80
S'T\x00\x00\x00'
tRp785
sg26
V5
sS'trials.thisRepN'
p786
I0
sg66
Vtiger
p787
sg63
V../experiment_stimuli/bw_bc_bl/Living_Things/Animals/tiger_18.jpg
p788
sg21
F0.82184985047206283
sS'trials.thisTrialN'
p789
I63
sa(dp790
g31
g32
sg17
F264.52875416306779
sg24
I1
sg35
g39
sg14
F264.52365226997063
sg16
g36
(g70
S'\x01\x00\x00\x00'
tRp791
sg42
g43
sg46
g47
sg15
g72
sg22
F267.32038541184738
sg64
g340
sg62
g112
sg49
g50
sS'trials.thisN'
p792
I64
sg19
I0
sg27
g36
(g38
S'\x00\x00\x00\x00\x00\x00\x18@'
tRp793
sg52
g53
sg23
S'1'
sg18
F265.78630553651601
sg33
g34
sg51
g11
sg20
S'2'
sg65
g36
(g77
S'\x00\x00\x00\x00\x00\x00\x00\x00'
tRp794
sg44
g45
sg40
g41
sg25
F0.15059300884604454
sS'trials.thisIndex'
p795
g36
(g80
S'I\x00\x00\x00'
tRp796
sg26
V5
sS'trials.thisRepN'
p797
I0
sg66
Vscorpion
p798
sg63
V../experiment_stimuli/bw_bc_bl/Living_Things/Insects/scorpion_17.jpg
p799
sg21
F1.5135167941916734
sS'trials.thisTrialN'
p800
I64
sa(dp801
g31
g32
sg17
F269.20873716473579
sg24
I0
sg35
g39
sg14
F269.20383443054743
sg16
g36
(g70
S'\x02\x00\x00\x00'
tRp802
sg42
g43
sg46
g47
sg15
g72
sg22
F271.58966225432232
sg64
g99
sg62
g74
sg49
g50
sS'trials.thisN'
p803
I65
sg19
I1
sg27
g36
(g38
S'\x00\x00\x00\x00\x00\x00\x18@'
tRp804
sg52
g53
sg23
S'3'
sg18
F270.48652224848047
sg33
g34
sg51
g11
sg20
S'2'
sg65
g36
(g77
S'\x00\x00\x00\x00\x00\x00\x00\x00'
tRp805
sg44
g45
sg40
g41
sg25
F0.23077426245436072
sS'trials.thisIndex'
p806
g36
(g80
S'M\x00\x00\x00'
tRp807
sg26
V5
sS'trials.thisRepN'
p808
I0
sg66
Vsmall-saucepan
p809
sg63
V../experiment_stimuli/bw_bc_bl/Nonliving_Things/Kitchen_Uten/small-saucepan_13.jpg
p810
sg21
F1.072554872604087
sS'trials.thisTrialN'
p811
I65
sa(dp812
g31
g32
sg17
F273.55817435542122
sg24
I0
sg35
g39
sg14
F273.55328465113416
sg16
g36
(g70
S'\x02\x00\x00\x00'
tRp813
sg42
g43
sg46
g47
sg15
g72
sg22
F275.57815683237277
sg64
g148
sg62
g74
sg49
g50
sS'trials.thisN'
p814
I66
sg19
I1
sg27
g36
(g38
S'\x00\x00\x00\x00\x00\x00\x1a@'
tRp815
sg52
g53
sg23
S'3'
sg18
F274.82595638697967
sg33
g34
sg51
g11
sg20
S'2'
sg65
g36
(g77
S'\x00\x00\x00\x00\x00\x00\x00\x00'
tRp816
sg44
g45
sg40
g41
sg25
F0.15055291913449764
sS'trials.thisIndex'
p817
g36
(g80
S'N\x00\x00\x00'
tRp818
sg26
V5
sS'trials.thisRepN'
p819
I0
sg66
Vsofa
p820
sg63
V../experiment_stimuli/bw_bc_bl/Nonliving_Things/Furniture/sofa_4.jpg
p821
sg21
F0.7316556153818965
sS'trials.thisTrialN'
p822
I66
sa(dp823
g31
g32
sg17
F277.46662546717562
sg24
I1
sg35
g39
sg14
F277.46178514556959
sg16
g36
(g70
S'\x01\x00\x00\x00'
tRp824
sg42
g43
sg46
g47
sg15
g136
sg22
F278.97571158013307
sg64
g99
sg62
g74
sg49
g50
sS'trials.thisN'
p825
I67
sg19
I1
sg27
g36
(g38
S'\x00\x00\x00\x00\x00\x00\x18@'
tRp826
sg52
g53
sg23
S'1'
sg18
F278.69436122244224
sg33
g34
sg51
g11
sg20
S'1'
sg65
g36
(g77
S'\x00\x00\x00\x00\x00\x00\x00\x00'
tRp827
sg44
g45
sg40
g41
sg25
F0.1906288112513721
sS'trials.thisIndex'
p828
g36
(g80
S'G\x00\x00\x00'
tRp829
sg26
V5
sS'trials.thisRepN'
p830
I0
sg66
Vsaucepan
p831
sg63
V../experiment_stimuli/bw_bc_bl/Nonliving_Things/Kitchen_Uten/saucepan_0.jpg
p832
sg21
F0.26080194907262921
sS'trials.thisTrialN'
p833
I67
sa(dp834
g31
g32
sg17
F280.90413976297714
sg24
I0
sg35
g39
sg14
F280.8992563970387
sg16
g36
(g70
S'\x01\x00\x00\x00'
tRp835
sg42
g43
sg46
g47
sg15
g136
sg22
F282.74389355792664
sg64
g148
sg62
g74
sg49
g50
sS'trials.thisN'
p836
I68
sg19
I1
sg27
g36
(g38
S'\x00\x00\x00\x00\x00\x00\x18@'
tRp837
sg52
g53
sg23
S'3'
sg18
F282.16190353548154
sg33
g34
sg51
g11
sg20
S'1'
sg65
g36
(g77
S'\x00\x00\x00\x00\x00\x00\x00\x00'
tRp838
sg44
g45
sg40
g41
sg25
F0.11047276365570724
sS'trials.thisIndex'
p839
g36
(g80
S'\x05\x00\x00\x00'
tRp840
sg26
V5
sS'trials.thisRepN'
p841
I0
sg66
Vbed
p842
sg63
V../experiment_stimuli/bw_bc_bl/Nonliving_Things/Furniture/bed_9.jpg
p843
sg21
F0.56144652678631246
sS'trials.thisTrialN'
p844
I68
sa(dp845
g31
g32
sg17
F284.59226154512726
sg24
I1
sg35
g39
sg14
F284.58727130084299
sg16
g36
(g70
S'\x01\x00\x00\x00'
tRp846
sg42
g43
sg46
g47
sg15
g136
sg22
F286.10120061901398
sg64
g73
sg62
g74
sg49
g50
sS'trials.thisN'
p847
I69
sg19
I0
sg27
g36
(g38
S'\x00\x00\x00\x00\x00\x00\x1a@'
tRp848
sg52
g53
sg23
S'1'
sg18
F285.81985311442986
sg33
g34
sg51
g11
sg20
S'2'
sg65
g36
(g77
S'\x00\x00\x00\x00\x00\x00\x00\x00'
tRp849
sg44
g45
sg40
g41
sg25
F0.030302599770948291
sS'trials.thisIndex'
p850
g36
(g80
S'#\x00\x00\x00'
tRp851
sg26
V5
sS'trials.thisRepN'
p852
I0
sg66
Vgranary
p853
sg63
V../experiment_stimuli/bw_bc_bl/Nonliving_Things/Buildings/granary_16.jpg
p854
sg21
F0.26080046407878399
sS'trials.thisTrialN'
p855
I69
sa(dp856
g31
g32
sg17
F287.86935132648796
sg24
I0
sg35
g39
sg14
F287.86439805524424
sg16
g36
(g70
S'\x02\x00\x00\x00'
tRp857
sg42
g43
sg46
g47
sg15
g136
sg22
F290.24019757541828
sg64
g124
sg62
g112
sg49
g50
sS'trials.thisN'
p858
I70
sg19
I0
sg27
g36
(g38
S'\x00\x00\x00\x00\x00\x00\x1a@'
tRp859
sg52
g53
sg23
S'2'
sg18
F289.12704279553145
sg33
g34
sg51
g11
sg20
S'1'
sg65
g36
(g77
S'\x00\x00\x00\x00\x00\x00\x00\x00'
tRp860
sg44
g45
sg40
g41
sg25
F0.080394318792968988
sS'trials.thisIndex'
p861
g36
(g80
S'U\x00\x00\x00'
tRp862
sg26
V5
sS'trials.thisRepN'
p863
I0
sg66
Vtoucan
p864
sg63
V../experiment_stimuli/bw_bc_bl/Living_Things/Birds/toucan_9.jpg
p865
sg21
F1.092599889729172
sS'trials.thisTrialN'
p866
I70
sa(dp867
g31
g32
sg17
F292.05847761756741
sg24
I1
sg35
g39
sg14
F292.05350967356935
sg16
g36
(g70
S'\x01\x00\x00\x00'
tRp868
sg42
g43
sg46
g47
sg15
g136
sg22
F294.56962753366679
sg64
g295
sg62
g74
sg49
g50
sS'trials.thisN'
p869
I71
sg19
I1
sg27
g36
(g38
S'\x00\x00\x00\x00\x00\x00\x18@'
tRp870
sg52
g53
sg23
S'1'
sg18
F293.30613047466613
sg33
g34
sg51
g11
sg20
S'1'
sg65
g36
(g77
S'\x00\x00\x00\x00\x00\x00\x00\x00'
tRp871
sg44
g45
sg40
g41
sg25
F0.2006648404058069
sS'trials.thisIndex'
p872
g36
(g80
S'V\x00\x00\x00'
tRp873
sg26
V5
sS'trials.thisRepN'
p874
I0
sg66
Vtractor
p875
sg63
V../experiment_stimuli/bw_bc_bl/Nonliving_Things/Vehicles/tractor_22.jpg
p876
sg21
F1.2429474587552249
sS'trials.thisTrialN'
p877
I71
sa(dp878
g31
g32
sg17
F296.50811209855601
sg24
I0
sg35
g39
sg14
F296.50317754177377
sg16
g36
(g70
S'\x01\x00\x00\x00'
tRp879
sg42
g43
sg46
g47
sg15
g72
sg22
F298.49815131258219
sg64
g183
sg62
g112
sg49
g50
sS'trials.thisN'
p880
I72
sg19
I1
sg27
g36
(g38
S'\x00\x00\x00\x00\x00\x00\x1e@'
tRp881
sg52
g53
sg23
S'2'
sg18
F297.7758449993562
sg33
g34
sg51
g11
sg20
S'1'
sg65
g36
(g77
S'\x00\x00\x00\x00\x00\x00\x00\x00'
tRp882
sg44
g45
sg40
g41
sg25
F0.090411426965147257
sS'trials.thisIndex'
p883
g36
(g80
S'K\x00\x00\x00'
tRp884
sg26
V5
sS'trials.thisRepN'
p885
I0
sg66
Vshark
p886
sg63
V../experiment_stimuli/bw_bc_bl/Living_Things/Marine_creatures/shark_20.jpg
p887
sg21
F0.70175164146348834
sS'trials.thisTrialN'
p888
I72
sa(dp889
g31
g32
sg17
F300.32649215799756
sg24
I0
sg35
g39
sg14
F300.32147930143401
sg16
g36
(g70
S'\x02\x00\x00\x00'
tRp890
sg42
g43
sg46
g47
sg15
g72
sg22
F302.60708708688617
sg64
g148
sg62
g74
sg49
g50
sS'trials.thisN'
p891
I73
sg19
I1
sg27
g36
(g38
S'\x00\x00\x00\x00\x00\x00\x1a@'
tRp892
sg52
g53
sg23
S'2'
sg18
F301.58412542496808
sg33
g34
sg51
g11
sg20
S'2'
sg65
g36
(g77
S'\x00\x00\x00\x00\x00\x00\x00\x00'
tRp893
sg44
g45
sg40
g41
sg25
F0.21067157667130232
sS'trials.thisIndex'
p894
g36
(g80
S'\x06\x00\x00\x00'
tRp895
sg26
V5
sS'trials.thisRepN'
p896
I0
sg66
Vbedside-table
p897
sg63
V../experiment_stimuli/bw_bc_bl/Nonliving_Things/Furniture/bedside-table_21.jpg
p898
sg21
F1.0024057116825134
sS'trials.thisTrialN'
p899
I73
sa(dp900
g31
g32
sg17
F304.55564263509586
sg24
I1
sg35
g39
sg14
F304.5506860294845
sg16
g36
(g70
S'\x02\x00\x00\x00'
tRp901
sg42
g43
sg46
g47
sg15
g136
sg22
F306.7760044077877
sg64
g111
sg62
g112
sg49
g50
sS'trials.thisN'
p902
I74
sg19
I0
sg27
g36
(g38
S'\x00\x00\x00\x00\x00\x00\x18@'
tRp903
sg52
g53
sg23
S'1'
sg18
F305.81331833777949
sg33
g34
sg51
g11
sg20
S'1'
sg65
g36
(g77
S'\x00\x00\x00\x00\x00\x00\x00\x00'
tRp904
sg44
g45
sg40
g41
sg25
F2.7963108096737415
sS'trials.thisIndex'
p905
g36
(g80
S'(\x00\x00\x00'
tRp906
sg26
V5
sS'trials.thisRepN'
p907
I0
sg66
Vhorse
p908
sg63
V../experiment_stimuli/bw_bc_bl/Living_Things/Animals/horse_24.jpg
p909
sg21
F0.94211620278656483
sS'trials.thisTrialN'
p910
I74
sa(dp911
g31
g32
sg17
F311.3104126600083
sg24
I1
sg35
g39
sg14
F311.30535562708974
sg16
g36
(g70
S'\x02\x00\x00\x00'
tRp912
sg42
g43
sg46
g47
sg15
g136
sg22
F313.18007243261673
sg64
g183
sg62
g112
sg49
g50
sS'trials.thisN'
p913
I75
sg19
I1
sg27
g36
(g38
S'\x00\x00\x00\x00\x00\x00\x18@'
tRp914
sg52
g53
sg23
S'1'
sg18
F312.59806928248145
sg33
g34
sg51
g11
sg20
S'2'
sg65
g36
(g77
S'\x00\x00\x00\x00\x00\x00\x00\x00'
tRp915
sg44
g45
sg40
g41
sg25
F0.080245418706908822
sS'trials.thisIndex'
p916
g36
(g80
S'1\x00\x00\x00'
tRp917
sg26
V5
sS'trials.thisRepN'
p918
I0
sg66
Vlobster
p919
sg63
V../experiment_stimuli/bw_bc_bl/Living_Things/Marine_creatures/lobster_11.jpg
p920
sg21
F0.56143965106457472
sS'trials.thisTrialN'
p921
I75
sa(dp922
g31
g32
sg17
F314.99989510281011
sg24
I0
sg35
g39
sg14
F314.99338716594502
sg16
g36
(g70
S'\x02\x00\x00\x00'
tRp923
sg42
g43
sg46
g47
sg15
g72
sg22
F317.5896795433946
sg64
g160
sg62
g74
sg49
g50
sS'trials.thisN'
p924
I76
sg19
I1
sg27
g36
(g38
S'\x00\x00\x00\x00\x00\x00\x18@'
tRp925
sg52
g53
sg23
S'3'
sg18
F316.29610712546855
sg33
g34
sg51
g11
sg20
S'2'
sg65
g36
(g77
S'\x00\x00\x00\x00\x00\x00\x00\x00'
tRp926
sg44
g45
sg40
g41
sg25
F0.18061505979858339
sS'trials.thisIndex'
p927
g36
(g80
S'Y\x00\x00\x00'
tRp928
sg26
V5
sS'trials.thisRepN'
p929
I0
sg66
Vtuba
p930
sg63
V../experiment_stimuli/bw_bc_bl/Nonliving_Things/Musical_Inst/tuba_21.jpg
p931
sg21
F1.2730201068334281
sS'trials.thisTrialN'
p932
I76
sa(dp933
g31
g32
sg17
F319.50831565563567
sg24
I0
sg35
g39
sg14
F319.5031823196914
sg16
g36
(g70
S'\x02\x00\x00\x00'
tRp934
sg42
g43
sg46
g47
sg15
g72
sg22
F321.31776541075669
sg64
g148
sg62
g74
sg49
g50
sS'trials.thisN'
p935
I77
sg19
I0
sg27
g36
(g38
S'\x00\x00\x00\x00\x00\x00 @'
tRp936
sg52
g53
sg23
S'2'
sg18
F320.77585007040761
sg33
g34
sg51
g11
sg20
S'1'
sg65
g36
(g77
S'\x00\x00\x00\x00\x00\x00\x00\x00'
tRp937
sg44
g45
sg40
g41
sg25
F0.11045571137219667
sS'trials.thisIndex'
p938
g36
(g80
S'\x0f\x00\x00\x00'
tRp939
sg26
V5
sS'trials.thisRepN'
p940
I0
sg66
Vchair
p941
sg63
V../experiment_stimuli/bw_bc_bl/Nonliving_Things/Furniture/chair_0.jpg
p942
sg21
F0.5213662360329181
sS'trials.thisTrialN'
p943
I77
sa(dp944
g31
g32
sg17
F323.16616498399526
sg24
I1
sg35
g39
sg14
F323.16113307862543
sg16
g36
(g70
S'\x02\x00\x00\x00'
tRp945
sg42
g43
sg46
g47
sg15
g136
sg22
F325.02584239956923
sg64
g124
sg62
g112
sg49
g50
sS'trials.thisN'
p946
I78
sg19
I1
sg27
g36
(g38
S'\x00\x00\x00\x00\x00\x00\x18@'
tRp947
sg52
g53
sg23
S'1'
sg18
F324.43380204751156
sg33
g34
sg51
g11
sg20
S'2'
sg65
g36
(g77
S'\x00\x00\x00\x00\x00\x00\x00\x00'
tRp948
sg44
g45
sg40
g41
sg25
F0.18061367655172944
sS'trials.thisIndex'
p949
g36
(g80
S'3\x00\x00\x00'
tRp950
sg26
V5
sS'trials.thisRepN'
p951
I0
sg66
Vmagpie
p952
sg63
V../experiment_stimuli/bw_bc_bl/Living_Things/Birds/magpie_19.jpg
p953
sg21
F0.57147801853716373
sS'trials.thisTrialN'
p954
I78
sa(dp955
g31
g32
sg17
F326.94427847722545
sg24
I0
sg35
g39
sg14
F326.93936270195991
sg16
g36
(g70
S'\x02\x00\x00\x00'
tRp956
sg42
g43
sg46
g47
sg15
g72
sg22
F328.85451355972327
sg64
g148
sg62
g74
sg49
g50
sS'trials.thisN'
p957
I79
sg19
I1
sg27
g36
(g38
S'\x00\x00\x00\x00\x00\x00\x1a@'
tRp958
sg52
g53
sg23
S'3'
sg18
F328.22203736216761
sg33
g34
sg51
g11
sg20
S'2'
sg65
g36
(g77
S'\x00\x00\x00\x00\x00\x00\x00\x00'
tRp959
sg44
g45
sg40
g41
sg25
F0.14037342928349972
sS'trials.thisIndex'
p960
g36
(g80
S']\x00\x00\x00'
tRp961
sg26
V5
sS'trials.thisRepN'
p962
I0
sg66
Vwardrobe
p963
sg63
V../experiment_stimuli/bw_bc_bl/Nonliving_Things/Furniture/wardrobe_21.jpg
p964
sg21
F0.61156735429540277
sS'trials.thisTrialN'
p965
I79
sa(dp966
g31
g32
sg17
F330.732702834066
sg24
I0
sg35
g39
sg14
F330.7275798174087
sg16
g36
(g70
S'\x01\x00\x00\x00'
tRp967
sg42
g43
sg46
g47
sg15
g72
sg22
F333.29380673426203
sg64
g111
sg62
g112
sg49
g50
sS'trials.thisN'
p968
I80
sg19
I1
sg27
g36
(g38
S'\x00\x00\x00\x00\x00\x00\x1c@'
tRp969
sg52
g53
sg23
S'2'
sg18
F332.00025000027381
sg33
g34
sg51
g11
sg20
S'1'
sg65
g36
(g77
S'\x00\x00\x00\x00\x00\x00\x00\x00'
tRp970
sg44
g45
sg40
g41
sg25
F0.24075941252522171
sS'trials.thisIndex'
p971
g36
(g80
S'_\x00\x00\x00'
tRp972
sg26
V5
sS'trials.thisRepN'
p973
I0
sg66
Vzebra
p974
sg63
V../experiment_stimuli/bw_bc_bl/Living_Things/Animals/zebra_6.jpg
p975
sg21
F1.2730129640549421
sS'trials.thisTrialN'
p976
I80
sa(dp977
g31
g32
sg17
F335.27246586303227
sg24
I0
sg35
g39
sg14
F335.26745388563722
sg16
g36
(g70
S'\x02\x00\x00\x00'
tRp978
sg42
g43
sg46
g47
sg15
g136
sg22
F337.49291709274985
sg64
g340
sg62
g112
sg49
g50
sS'trials.thisN'
p979
I81
sg19
I0
sg27
g36
(g38
S'\x00\x00\x00\x00\x00\x00\x18@'
tRp980
sg52
g53
sg23
S'2'
sg18
F336.52007166459225
sg33
g34
sg51
g11
sg20
S'1'
sg65
g36
(g77
S'\x00\x00\x00\x00\x00\x00\x00\x00'
tRp981
sg44
g45
sg40
g41
sg25
F0.14052451378665864
sS'trials.thisIndex'
p982
g36
(g80
S'-\x00\x00\x00'
tRp983
sg26
V5
sS'trials.thisRepN'
p984
I0
sg66
Vladybird
p985
sg63
V../experiment_stimuli/bw_bc_bl/Living_Things/Insects/ladybird_16.jpg
p986
sg21
F0.95229438086971641
sS'trials.thisTrialN'
p987
I81
sa(dp988
g31
g32
sg17
F339.3728449549526
sg24
I0
sg35
g39
sg14
F339.36635457421653
sg16
g36
(g70
S'\x01\x00\x00\x00'
tRp989
sg42
g43
sg46
g47
sg15
g136
sg22
F341.24107184214517
sg64
g99
sg62
g74
sg49
g50
sS'trials.thisN'
p990
I82
sg19
I0
sg27
g36
(g38
S'\x00\x00\x00\x00\x00\x00\x18@'
tRp991
sg52
g53
sg23
S'2'
sg18
F340.60896840225905
sg33
g34
sg51
g11
sg20
S'2'
sg65
g36
(g77
S'\x00\x00\x00\x00\x00\x00\x00\x00'
tRp992
sg44
g45
sg40
g41
sg25
F0.22070174897089601
sS'trials.thisIndex'
p993
g36
(g80
S'\x12\x00\x00\x00'
tRp994
sg26
V5
sS'trials.thisRepN'
p995
I0
sg66
Vcoking-pot
p996
sg63
V../experiment_stimuli/bw_bc_bl/Nonliving_Things/Kitchen_Uten/coking-pot_22.jpg
p997
sg21
F0.61155413277447224
sS'trials.thisTrialN'
p998
I82
sa(dp999
g31
g32
sg17
F343.19987873244099
sg24
I1
sg35
g39
sg14
F343.19467640481889
sg16
g36
(g70
S'\x01\x00\x00\x00'
tRp1000
sg42
g43
sg46
g47
sg15
g72
sg22
F344.81884228717536
sg64
g111
sg62
g112
sg49
g50
sS'trials.thisN'
p1001
I83
sg19
I1
sg27
g36
(g38
S'\x00\x00\x00\x00\x00\x00\x1a@'
tRp1002
sg52
g53
sg23
S'1'
sg18
F344.43729828530923
sg33
g34
sg51
g11
sg20
S'1'
sg65
g36
(g77
S'\x00\x00\x00\x00\x00\x00\x00\x00'
tRp1003
sg44
g45
sg40
g41
sg25
F0.8220104796346277
sS'trials.thisIndex'
p1004
g36
(g80
S'\x10\x00\x00\x00'
tRp1005
sg26
V5
sS'trials.thisRepN'
p1006
I0
sg66
Vcheetah
p1007
sg63
V../experiment_stimuli/bw_bc_bl/Living_Things/Animals/cheetah_9.jpg
p1008
sg21
F0.36101122084073722
sS'trials.thisTrialN'
p1009
I83
sa(dp1010
g31
g32
sg17
F347.37871449813247
sg24
I0
sg35
g39
sg14
F347.37376164435409
sg16
g36
(g70
S'\x01\x00\x00\x00'
tRp1011
sg42
g43
sg46
g47
sg15
g136
sg22
F349.59925257996656
sg64
g295
sg62
g74
sg49
g50
sS'trials.thisN'
p1012
I84
sg19
I1
sg27
g36
(g38
S'\x00\x00\x00\x00\x00\x00\x1c@'
tRp1013
sg52
g53
sg23
S'3'
sg18
F348.63641802337952
sg33
g34
sg51
g11
sg20
S'1'
sg65
g36
(g77
S'\x00\x00\x00\x00\x00\x00\x00\x00'
tRp1014
sg44
g45
sg40
g41
sg25
F0.20065814489498734
sS'trials.thisIndex'
p1015
g36
(g80
S'\t\x00\x00\x00'
tRp1016
sg26
V5
sS'trials.thisRepN'
p1017
I0
sg66
Vbus
p1018
sg63
V../experiment_stimuli/bw_bc_bl/Nonliving_Things/Vehicles/bus_4.jpg
p1019
sg21
F0.94227732089348137
sS'trials.thisTrialN'
p1020
I84
sa(dp1021
g31
g32
sg17
F351.5378798271995
sg24
I1
sg35
g39
sg14
F351.53282059519552
sg16
g36
(g70
S'\x01\x00\x00\x00'
tRp1022
sg42
g43
sg46
g47
sg15
g136
sg22
F353.16698219138198
sg64
g148
sg62
g74
sg49
g50
sS'trials.thisN'
p1023
I85
sg19
I1
sg27
g36
(g38
S'\x00\x00\x00\x00\x00\x00\x1a@'
tRp1024
sg52
g53
sg23
S'1'
sg18
F352.76539013837464
sg33
g34
sg51
g11
sg20
S'1'
sg65
g36
(g77
S'\x00\x00\x00\x00\x00\x00\x00\x00'
tRp1025
sg44
g45
sg40
g41
sg25
F0.23073757160454988
sS'trials.thisIndex'
p1026
g36
(g80
S'/\x00\x00\x00'
tRp1027
sg26
V5
sS'trials.thisRepN'
p1028
I0
sg66
Vlectern
p1029
sg63
V../experiment_stimuli/bw_bc_bl/Nonliving_Things/Furniture/lectern_24.jpg
p1030
sg21
F0.38105026842094958
sS'trials.thisTrialN'
p1031
I85
sa(dp1032
g31
g32
sg17
F355.13577908533625
sg24
I0
sg35
g39
sg14
F355.13062760676257
sg16
g36
(g70
S'\x01\x00\x00\x00'
tRp1033
sg42
g43
sg46
g47
sg15
g136
sg22
F359.35043796221726
sg64
g295
sg62
g74
sg49
g50
sS'trials.thisN'
p1034
I86
sg19
I1
sg27
g36
(g38
S'\x00\x00\x00\x00\x00\x00\x1a@'
tRp1035
sg52
g53
sg23
S'3'
sg18
F356.38325291895308
sg33
g34
sg51
g11
sg20
S'1'
sg65
g36
(g77
S'\x00\x00\x00\x00\x00\x00\x00\x00'
tRp1036
sg44
g45
sg40
g41
sg25
F0.37102593434974551
sS'trials.thisIndex'
p1037
g36
(g80
S'\x0b\x00\x00\x00'
tRp1038
sg26
V5
sS'trials.thisRepN'
p1039
I0
sg66
Vcar
p1040
sg63
V../experiment_stimuli/bw_bc_bl/Nonliving_Things/Vehicles/car_12.jpg
p1041
sg21
F2.9466334388125688
sS'trials.thisTrialN'
p1042
I86
sa(dp1043
g31
g32
sg17
F361.45950325345621
sg24
I1
sg35
g39
sg14
F361.45437502209097
sg16
g36
(g70
S'\x02\x00\x00\x00'
tRp1044
sg42
g43
sg46
g47
sg15
g72
sg22
F362.98833958362229
sg64
g261
sg62
g74
sg49
g50
sS'trials.thisN'
p1045
I87
sg19
I1
sg27
g36
(g38
S'\x00\x00\x00\x00\x00\x00\x18@'
tRp1046
sg52
g53
sg23
S'1'
sg18
F362.68695940379985
sg33
g34
sg51
g11
sg20
S'2'
sg65
g36
(g77
S'\x00\x00\x00\x00\x00\x00\x00\x00'
tRp1047
sg44
g45
sg40
g41
sg25
F0.14054327295161784
sS'trials.thisIndex'
p1048
g36
(g80
S'\x03\x00\x00\x00'
tRp1049
sg26
V5
sS'trials.thisRepN'
p1050
I0
sg66
Vaxe
p1051
sg63
V../experiment_stimuli/bw_bc_bl/Nonliving_Things/Tools/axe_6.jpg
p1052
sg21
F0.28082927875220776
sS'trials.thisTrialN'
p1053
I87
sa(dp1054
g31
g32
sg17
F364.86681182403117
sg24
I0
sg35
g39
sg14
F364.86178292217664
sg16
g36
(g70
S'\x01\x00\x00\x00'
tRp1055
sg42
g43
sg46
g47
sg15
g72
sg22
F366.86680370336398
sg64
g124
sg62
g112
sg49
g50
sS'trials.thisN'
p1056
I88
sg19
I1
sg27
g36
(g38
S'\x00\x00\x00\x00\x00\x00\x1c@'
tRp1057
sg52
g53
sg23
S'2'
sg18
F366.13446022942662
sg33
g34
sg51
g11
sg20
S'1'
sg65
g36
(g77
S'\x00\x00\x00\x00\x00\x00\x00\x00'
tRp1058
sg44
g45
sg40
g41
sg25
F0.14053240441717207
sS'trials.thisIndex'
p1059
g36
(g80
S'=\x00\x00\x00'
tRp1060
sg26
V5
sS'trials.thisRepN'
p1061
I0
sg66
Vpenguin
p1062
sg63
V../experiment_stimuli/bw_bc_bl/Living_Things/Birds/penguin_10.jpg
p1063
sg21
F0.71178995259106159
sS'trials.thisTrialN'
p1064
I88
sa(dp1065
g31
g32
sg17
F368.74536932213232
sg24
I1
sg35
g39
sg14
F368.74021256156266
sg16
g36
(g70
S'\x02\x00\x00\x00'
tRp1066
sg42
g43
sg46
g47
sg15
g136
sg22
F370.16396657726727
sg64
g111
sg62
g112
sg49
g50
sS'trials.thisN'
p1067
I89
sg19
I0
sg27
g36
(g38
S'\x00\x00\x00\x00\x00\x00\x18@'
tRp1068
sg52
g53
sg23
S'1'
sg18
F369.99284371570684
sg33
g34
sg51
g11
sg20
S'1'
sg65
g36
(g77
S'\x00\x00\x00\x00\x00\x00\x00\x00'
tRp1069
sg44
g45
sg40
g41
sg25
F0.17058460949920118
sS'trials.thisIndex'
p1070
g36
(g80
S'Z\x00\x00\x00'
tRp1071
sg26
V5
sS'trials.thisRepN'
p1072
I0
sg66
Vturtle
p1073
sg63
V../experiment_stimuli/bw_bc_bl/Living_Things/Animals/turtle_19.jpg
p1074
sg21
F0.1505667835008353
sS'trials.thisTrialN'
p1075
I89
sa(dp1076
g31
g32
sg17
F372.07269300078042
sg24
I0
sg35
g39
sg14
F372.06744748936035
sg16
g36
(g70
S'\x01\x00\x00\x00'
tRp1077
sg42
g43
sg46
g47
sg15
g72
sg22
F374.2627148879692
sg64
g111
sg62
g112
sg49
g50
sS'trials.thisN'
p1078
I90
sg19
I1
sg27
g36
(g38
S'\x00\x00\x00\x00\x00\x00\x1a@'
tRp1079
sg52
g53
sg23
S'2'
sg18
F373.3601645056624
sg33
g34
sg51
g11
sg20
S'1'
sg65
g36
(g77
S'\x00\x00\x00\x00\x00\x00\x00\x00'
tRp1080
sg44
g45
sg40
g41
sg25
F0.081259986618533731
sS'trials.thisIndex'
p1081
g36
(g80
S' \x00\x00\x00'
tRp1082
sg26
V5
sS'trials.thisRepN'
p1083
I0
sg66
Vgiraffe
p1084
sg63
V../experiment_stimuli/bw_bc_bl/Living_Things/Animals/giraffe_10.jpg
p1085
sg21
F0.88198334979824722
sS'trials.thisTrialN'
p1086
I90
sa(dp1087
g31
g32
sg17
F376.0813562257681
sg24
I0
sg35
g39
sg14
F376.07616224396043
sg16
g36
(g70
S'\x02\x00\x00\x00'
tRp1088
sg42
g43
sg46
g47
sg15
g136
sg22
F377.88073809887283
sg64
g124
sg62
g112
sg49
g50
sS'trials.thisN'
p1089
I91
sg19
I1
sg27
g36
(g38
S'\x00\x00\x00\x00\x00\x00\x18@'
tRp1090
sg52
g53
sg23
S'3'
sg18
F377.34883199841715
sg33
g34
sg51
g11
sg20
S'2'
sg65
g36
(g77
S'\x00\x00\x00\x00\x00\x00\x00\x00'
tRp1091
sg44
g45
sg40
g41
sg25
F0.11046319594606757
sS'trials.thisIndex'
p1092
g36
(g80
S'\x1a\x00\x00\x00'
tRp1093
sg26
V5
sS'trials.thisRepN'
p1094
I0
sg66
Vduck
p1095
sg63
V../experiment_stimuli/bw_bc_bl/Living_Things/Birds/duck_2.jpg
p1096
sg21
F0.50132262078113854
sS'trials.thisTrialN'
p1097
I91
sa(dp1098
g31
g32
sg17
F379.72931051533669
sg24
I0
sg35
g39
sg14
F379.72409215057269
sg16
g36
(g70
S'\x01\x00\x00\x00'
tRp1099
sg42
g43
sg46
g47
sg15
g136
sg22
F381.94957996229641
sg64
g148
sg62
g74
sg49
g50
sS'trials.thisN'
p1100
I92
sg19
I1
sg27
g36
(g38
S'\x00\x00\x00\x00\x00\x00\x18@'
tRp1101
sg52
g53
sg23
S'3'
sg18
F380.97672357177362
sg33
g34
sg51
g11
sg20
S'1'
sg65
g36
(g77
S'\x00\x00\x00\x00\x00\x00\x00\x00'
tRp1102
sg44
g45
sg40
g41
sg25
F0.130511574447155
sS'trials.thisIndex'
p1103
g36
(g80
S'.\x00\x00\x00'
tRp1104
sg26
V5
sS'trials.thisRepN'
p1105
I0
sg66
Vlamp
p1106
sg63
V../experiment_stimuli/bw_bc_bl/Nonliving_Things/Furniture/lamp_9.jpg
p1107
sg21
F0.9523015005979687
sS'trials.thisTrialN'
p1108
I92
sa(dp1109
g31
g32
sg17
F383.82814891147427
sg24
I1
sg35
g39
sg14
F383.82300300430506
sg16
g36
(g70
S'\x01\x00\x00\x00'
tRp1110
sg42
g43
sg46
g47
sg15
g72
sg22
F385.52735189977102
sg64
g183
sg62
g112
sg49
g50
sS'trials.thisN'
p1111
I93
sg19
I1
sg27
g36
(g38
S'\x00\x00\x00\x00\x00\x00\x18@'
tRp1112
sg52
g53
sg23
S'1'
sg18
F385.05559021234512
sg33
g34
sg51
g11
sg20
S'1'
sg65
g36
(g77
S'\x00\x00\x00\x00\x00\x00\x00\x00'
tRp1113
sg44
g45
sg40
g41
sg25
F0.18061148840934038
sS'trials.thisIndex'
p1114
g36
(g80
S'+\x00\x00\x00'
tRp1115
sg26
V5
sS'trials.thisRepN'
p1116
I0
sg66
Vkiller-whale
p1117
sg63
V../experiment_stimuli/bw_bc_bl/Living_Things/Marine_creatures/killer-whale_22.jpg
p1118
sg21
F0.45120543288066983
sS'trials.thisTrialN'
p1119
I93
sa(dp1120
g31
g32
sg17
F387.44622521195561
sg24
I1
sg35
g39
sg14
F387.44087078841403
sg16
g36
(g70
S'\x02\x00\x00\x00'
tRp1121
sg42
g43
sg46
g47
sg15
g136
sg22
F389.80664716265164
sg64
g111
sg62
g112
sg49
g50
sS'trials.thisN'
p1122
I94
sg19
I1
sg27
g36
(g38
S'\x00\x00\x00\x00\x00\x00\x1a@'
tRp1123
sg52
g53
sg23
S'1'
sg18
F388.68348037591204
sg33
g34
sg51
g11
sg20
S'2'
sg65
g36
(g77
S'\x00\x00\x00\x00\x00\x00\x00\x00'
tRp1124
sg44
g45
sg40
g41
sg25
F0.090411231387406588
sS'trials.thisIndex'
p1125
g36
(g80
S'0\x00\x00\x00'
tRp1126
sg26
V5
sS'trials.thisRepN'
p1127
I0
sg66
Vlioness
p1128
sg63
V../experiment_stimuli/bw_bc_bl/Living_Things/Animals/lioness_19.jpg
p1129
sg21
F1.102623840328306
sS'trials.thisTrialN'
p1130
I94
sa(dp1131
g31
g32
sg17
F391.63536667567678
sg24
I1
sg35
g39
sg14
F391.62997645582072
sg16
g36
(g70
S'\x01\x00\x00\x00'
tRp1132
sg42
g43
sg46
g47
sg15
g72
sg22
F393.53478205972351
sg64
g124
sg62
g112
sg49
g50
sS'trials.thisN'
p1133
I95
sg19
I1
sg27
g36
(g38
S'\x00\x00\x00\x00\x00\x00\x1a@'
tRp1134
sg52
g53
sg23
S'1'
sg18
F392.91266783000901
sg33
g34
sg51
g11
sg20
S'1'
sg65
g36
(g77
S'\x00\x00\x00\x00\x00\x00\x00\x00'
tRp1135
sg44
g45
sg40
g41
sg25
F0.22070138459093869
sS'trials.thisIndex'
p1136
g36
(g80
S'9\x00\x00\x00'
tRp1137
sg26
V5
sS'trials.thisRepN'
p1138
I0
sg66
Vowl
p1139
sg63
V../experiment_stimuli/bw_bc_bl/Living_Things/Birds/owl_20.jpg
p1140
sg21
F0.60154615552164614
sS'trials.thisTrialN'
p1141
I95
sasS'loops'
p1142
(lp1143
g1
(cpsychopy.data
TrialHandler
p1144
g3
NtRp1145
(dp1146
S'origin'
p1147
NsS'thisTrial'
p1148
(lp1149
sS'_exp'
p1150
I97317136
sg10
S'trials'
p1151
sg6
I-1
sS'thisRepN'
p1152
I1
sg28
I01
sg29
g30
sS'data'
p1153
g1
(cpsychopy.data
DataHandler
p1154
c__builtin__
dict
p1155
(dp1156
g20
cnumpy.core.multiarray
_reconstruct
p1157
(cnumpy
ndarray
p1158
(I0
tS'b'
tRp1159
(I1
(I96
I1
tg37
(S'O4'
I0
I1
tRp1160
(I3
S'|'
NNNI-1
I-1
I63
tbI00
(lp1161
S'1'
aS'2'
aS'1'
aS'2'
aS'1'
aS'1'
aS'2'
aS'1'
aS'2'
aS'1'
aS'2'
aS'1'
aS'2'
aS'2'
aS'2'
aS'1'
aS'1'
aS'2'
aS'2'
aS'1'
aS'2'
aS'1'
aS'1'
aS'2'
aS'1'
aS'2'
aS'2'
aS'2'
aS'1'
aS'1'
aS'2'
aS'2'
aS'1'
aS'1'
aS'1'
aS'2'
aS'2'
aS'2'
aS'1'
aS'2'
aS'1'
aS'2'
aS'1'
aS'1'
aS'1'
aS'1'
aS'1'
aS'1'
aS'2'
aS'2'
aS'2'
aS'2'
aS'1'
aS'2'
aS'2'
aS'1'
aS'1'
aS'1'
aS'2'
aS'2'
aS'1'
aS'1'
aS'2'
aS'1'
aS'1'
aS'1'
aS'2'
aS'1'
aS'2'
aS'2'
aS'2'
aS'1'
aS'1'
aS'2'
aS'1'
aS'1'
aS'1'
aS'2'
aS'2'
aS'1'
aS'1'
aS'2'
aS'1'
aS'1'
aS'1'
aS'1'
aS'1'
aS'2'
aS'2'
aS'2'
aS'1'
aS'1'
aS'1'
aS'2'
aS'2'
aS'1'
atbsg17
cnumpy.ma.core
_mareconstruct
p1162
(cnumpy.ma.core
MaskedArray
p1163
g1158
(I0
tp1164
S'b'
tRp1165
(I1
(I96
I1
tg37
(S'f4'
I0
I1
tRp1166
(I3
S'<'
NNNI-1
I-1
I0
tbI00
S'\xdf\xa2\x1dC\xab\xcb\xbbA\x06\xec\x08C\xd1\xba\xb4Cc\x83%C\xbbs\x8cC\xca)\x96C~ \xefB\xc1\x80\xdaAz\xb0\xadC\xaei\xbaBa\x91\xb1CULKBH\x9a|C\x88\x1c\xed@\x10\xc1\x9fC\x96\x99\xabCb\x1fjB\xb9\xaf\xa9C@D\x19CJ7\xb2B+p\x1eB\x83\x14\rBB~SC\x18HWC\xb0\xe6\xfeBj\n\xbcC\xdd\x9e1C\xa3t=C\xf2\x00\xf7B\xfe\x1e)C=I0AN\t\xbaC\x88.\xa3B\x9c\xd6\x10C\xcfK\x8eC\x8f\xa7\xf8A}\xb1\x83B\xd6\x0buC\x12\xcfjA\x1fG\x98C{"o@\xa6\xe7\xd1B\x01\xea\xbfC1PxB\xe0\xa2\xa7CZ\xdd\xbdC\xd9\xc4\xafC\x1e\xb9\xc1C\xbc\xa7\x9bCC\x03[BE\x95\xa1C\xc3\xbb\\CB\x1c6C-\xb0\x9bB\x9fi\x94BL_eCT\xd1\xc3CC^\x15C\x1f@mC\x07\t\x94A\xf4n\xb6C\x11\xa3!C\xbd\xf0:B`:qC\xba\x7f\xaaB\'\xbbDC\xd0&\x04C\x0b\x0f\xd9B\xb8\xa0\xcaB\xddx\xe7B\xba\xbb\x8aC\x89\x91\x8aB\xaeC\x84C\xfdC\x80C\nA\x94C\x84P\xe0B\xb8\x9a\x86Cr\xc7\x88CS\xbf9C\xa5\xe2OC.\xafxC\x9d\x9eHC>_iC\xf9?\x82CG\xef\x8fC|\x07\x92C\x173LCnJ\rC\xfd\x7f\x9dCh_\xb8C\x95B-C\xcf\xee@C\xdex\xa3CGn,B\xc9]\xa5C'
S'\x00\x00\x00\x00\x00\x00\x00\x00\x00\x00\x00\x00\x00\x00\x00\x00\x00\x00\x00\x00\x00\x00\x00\x00\x00\x00\x00\x00\x00\x00\x00\x00\x00\x00\x00\x00\x00\x00\x00\x00\x00\x00\x00\x00\x00\x00\x00\x00\x00\x00\x00\x00\x00\x00\x00\x00\x00\x00\x00\x00\x00\x00\x00\x00\x00\x00\x00\x00\x00\x00\x00\x00\x00\x00\x00\x00\x00\x00\x00\x00\x00\x00\x00\x00\x00\x00\x00\x00\x00\x00\x00\x00\x00\x00\x00\x00'
NtbsS'ran'
p1167
g1162
(g1163
g1158
g1164
S'b'
tRp1168
(I1
(I96
I1
tg1166
I00
S'\x00\x00\x80?\x00\x00\x80?\x00\x00\x80?\x00\x00\x80?\x00\x00\x80?\x00\x00\x80?\x00\x00\x80?\x00\x00\x80?\x00\x00\x80?\x00\x00\x80?\x00\x00\x80?\x00\x00\x80?\x00\x00\x80?\x00\x00\x80?\x00\x00\x80?\x00\x00\x80?\x00\x00\x80?\x00\x00\x80?\x00\x00\x80?\x00\x00\x80?\x00\x00\x80?\x00\x00\x80?\x00\x00\x80?\x00\x00\x80?\x00\x00\x80?\x00\x00\x80?\x00\x00\x80?\x00\x00\x80?\x00\x00\x80?\x00\x00\x80?\x00\x00\x80?\x00\x00\x80?\x00\x00\x80?\x00\x00\x80?\x00\x00\x80?\x00\x00\x80?\x00\x00\x80?\x00\x00\x80?\x00\x00\x80?\x00\x00\x80?\x00\x00\x80?\x00\x00\x80?\x00\x00\x80?\x00\x00\x80?\x00\x00\x80?\x00\x00\x80?\x00\x00\x80?\x00\x00\x80?\x00\x00\x80?\x00\x00\x80?\x00\x00\x80?\x00\x00\x80?\x00\x00\x80?\x00\x00\x80?\x00\x00\x80?\x00\x00\x80?\x00\x00\x80?\x00\x00\x80?\x00\x00\x80?\x00\x00\x80?\x00\x00\x80?\x00\x00\x80?\x00\x00\x80?\x00\x00\x80?\x00\x00\x80?\x00\x00\x80?\x00\x00\x80?\x00\x00\x80?\x00\x00\x80?\x00\x00\x80?\x00\x00\x80?\x00\x00\x80?\x00\x00\x80?\x00\x00\x80?\x00\x00\x80?\x00\x00\x80?\x00\x00\x80?\x00\x00\x80?\x00\x00\x80?\x00\x00\x80?\x00\x00\x80?\x00\x00\x80?\x00\x00\x80?\x00\x00\x80?\x00\x00\x80?\x00\x00\x80?\x00\x00\x80?\x00\x00\x80?\x00\x00\x80?\x00\x00\x80?\x00\x00\x80?\x00\x00\x80?\x00\x00\x80?\x00\x00\x80?\x00\x00\x80?\x00\x00\x80?'
S'\x00\x00\x00\x00\x00\x00\x00\x00\x00\x00\x00\x00\x00\x00\x00\x00\x00\x00\x00\x00\x00\x00\x00\x00\x00\x00\x00\x00\x00\x00\x00\x00\x00\x00\x00\x00\x00\x00\x00\x00\x00\x00\x00\x00\x00\x00\x00\x00\x00\x00\x00\x00\x00\x00\x00\x00\x00\x00\x00\x00\x00\x00\x00\x00\x00\x00\x00\x00\x00\x00\x00\x00\x00\x00\x00\x00\x00\x00\x00\x00\x00\x00\x00\x00\x00\x00\x00\x00\x00\x00\x00\x00\x00\x00\x00\x00'
Ntbsg24
g1162
(g1163
g1158
g1164
S'b'
tRp1169
(I1
(I96
I1
tg1166
I00
S'\x00\x00\x00\x00\x00\x00\x00\x00\x00\x00\x00\x00\x00\x00\x80?\x00\x00\x80?\x00\x00\x00\x00\x00\x00\x00\x00\x00\x00\x00\x00\x00\x00\x00\x00\x00\x00\x00\x00\x00\x00\x00\x00\x00\x00\x00\x00\x00\x00\x00\x00\x00\x00\x00\x00\x00\x00\x00\x00\x00\x00\x00\x00\x00\x00\x80?\x00\x00\x00\x00\x00\x00\x00\x00\x00\x00\x80?\x00\x00\x80?\x00\x00\x80?\x00\x00\x80?\x00\x00\x80?\x00\x00\x80?\x00\x00\x80?\x00\x00\x00\x00\x00\x00\x00\x00\x00\x00\x80?\x00\x00\x80?\x00\x00\x80?\x00\x00\x00\x00\x00\x00\x00\x00\x00\x00\x80?\x00\x00\x00\x00\x00\x00\x80?\x00\x00\x00\x00\x00\x00\x80?\x00\x00\x00\x00\x00\x00\x80?\x00\x00\x80?\x00\x00\x00\x00\x00\x00\x80?\x00\x00\x80?\x00\x00\x80?\x00\x00\x00\x00\x00\x00\x00\x00\x00\x00\x80?\x00\x00\x80?\x00\x00\x80?\x00\x00\x00\x00\x00\x00\x80?\x00\x00\x00\x00\x00\x00\x00\x00\x00\x00\x00\x00\x00\x00\x00\x00\x00\x00\x80?\x00\x00\x80?\x00\x00\x00\x00\x00\x00\x80?\x00\x00\x80?\x00\x00\x00\x00\x00\x00\x00\x00\x00\x00\x80?\x00\x00\x00\x00\x00\x00\x80?\x00\x00\x00\x00\x00\x00\x80?\x00\x00\x80?\x00\x00\x00\x00\x00\x00\x00\x00\x00\x00\x80?\x00\x00\x00\x00\x00\x00\x80?\x00\x00\x00\x00\x00\x00\x00\x00\x00\x00\x00\x00\x00\x00\x00\x00\x00\x00\x00\x00\x00\x00\x00\x00\x00\x00\x00\x00\x00\x00\x80?\x00\x00\x80?\x00\x00\x00\x00\x00\x00\x00\x00\x00\x00\x00\x00\x00\x00\x80?\x00\x00\x80?\x00\x00\x00\x00\x00\x00\x00\x00\x00\x00\x80?\x00\x00\x00\x00\x00\x00\x00\x00\x00\x00\x00\x00\x00\x00\x80?\x00\x00\x00\x00'
S'\x00\x00\x00\x00\x00\x00\x00\x00\x00\x00\x00\x00\x00\x00\x00\x00\x00\x00\x00\x00\x00\x00\x00\x00\x00\x00\x00\x00\x00\x00\x00\x00\x00\x00\x00\x00\x00\x00\x00\x00\x00\x00\x00\x00\x00\x00\x00\x00\x00\x00\x00\x00\x00\x00\x00\x00\x00\x00\x00\x00\x00\x00\x00\x00\x00\x00\x00\x00\x00\x00\x00\x00\x00\x00\x00\x00\x00\x00\x00\x00\x00\x00\x00\x00\x00\x00\x00\x00\x00\x00\x00\x00\x00\x00\x00\x00'
Ntbsg14
g1162
(g1163
g1158
g1164
S'b'
tRp1170
(I1
(I96
I1
tg1166
I00
S"\x9d\xa1\x1dC\xd3\xc1\xbbA\x8f\xea\x08C)\xba\xb4C'\x82%C\x1bs\x8cC&)\x96C\xf6\x1d\xefB\xbfv\xdaA\xd7\xaf\xadC\x06g\xbaB\xb8\x90\xb1C\xc0FKB\x05\x99|Cy\xf3\xec@h\xc0\x9fC\xeb\x98\xabCt\x1ajB\xe5\xae\xa9C\x04C\x19Cb4\xb2B9k\x1eB\xa4\x0f\rB\x06}SC\xcfFWC.\xe4\xfeB\xc0\t\xbcC^\x9d1CQs=C\x81\xfe\xf6B\xc3\x1d)Cq30A\xa2\x08\xbaC\x04,\xa3B_\xd5\x10C,K\x8eC\x00\x9c\xf8A\xf9\xae\x83B\x93\nuCm\xbajA}F\x98C\x82\xdem@\xbd\xe4\xd1BX\xe9\xbfCRKxB<\xa2\xa7C\xaf\xdc\xbdC3\xc4\xafCn\xb8\xc1C\x16\xa7\x9bC\x92\xfdZB\xa0\x94\xa1C|\xba\\C\xc0\x1a6C\xf7\xac\x9bB[f\x94B\x03^eC\xa3\xd0\xc3C\x02]\x15C\x8e>mC\x9b\xfd\x93AOn\xb6CK\xa1!C\xbc\xeb:B\x189qC\xe3|\xaaB\xed\xb9DCZ%\x04C\x90\x0c\xd9B!\x9e\xcaB\xdcu\xe7B\x1c\xbb\x8aC\xf5\x8e\x8aB\x07C\x84C]C\x80Ch@\x94C\tN\xe0B\x17\x9a\x86C\xd2\xc6\x88C\x0e\xbe9Cj\xe1OC\xe1\xadxC_\x9dHC\xad]iCY?\x82C\xa5\xee\x8fC\xd9\x06\x92CH1LC(I\rC'\x7f\x9dC\xbf^\xb8CXA-C\x92\xed@C=x\xa3C\xc5h,B!]\xa5C"
S'\x00\x00\x00\x00\x00\x00\x00\x00\x00\x00\x00\x00\x00\x00\x00\x00\x00\x00\x00\x00\x00\x00\x00\x00\x00\x00\x00\x00\x00\x00\x00\x00\x00\x00\x00\x00\x00\x00\x00\x00\x00\x00\x00\x00\x00\x00\x00\x00\x00\x00\x00\x00\x00\x00\x00\x00\x00\x00\x00\x00\x00\x00\x00\x00\x00\x00\x00\x00\x00\x00\x00\x00\x00\x00\x00\x00\x00\x00\x00\x00\x00\x00\x00\x00\x00\x00\x00\x00\x00\x00\x00\x00\x00\x00\x00\x00'
Ntbsg16
g1157
(g1158
(I0
tS'b'
tRp1171
(I1
(I96
I1
tg1160
I00
(lp1172
g505
ag135
ag450
ag1044
ag527
ag835
ag890
ag406
ag147
ag1011
ag339
ag1033
ag216
ag758
ag87
ag934
ag1000
ag238
ag989
ag494
ag328
ag182
ag171
ag659
ag670
ag428
ag1088
ag560
ag593
ag417
ag538
ag98
ag1077
ag306
ag472
ag846
ag159
ag260
ag736
ag110
ag901
ag71
ag362
ag1110
ag249
ag978
ag1099
ag1022
ag1121
ag912
ag227
ag945
ag681
ag571
ag294
ag283
ag692
ag1132
ag483
ag714
ag123
ag1055
ag516
ag205
ag725
ag317
ag615
ag439
ag373
ag351
ag395
ag824
ag272
ag791
ag769
ag879
ag384
ag802
ag813
ag582
ag648
ag747
ag626
ag703
ag780
ag857
ag868
ag637
ag461
ag923
ag1066
ag549
ag604
ag956
ag194
ag967
atbsg15
g1157
(g1158
(I0
tS'b'
tRp1173
(I1
(I96
I1
tg1160
I00
(lp1174
g136
ag136
ag72
ag72
ag72
ag136
ag72
ag72
ag72
ag136
ag136
ag136
ag72
ag136
ag72
ag72
ag72
ag72
ag136
ag72
ag136
ag136
ag136
ag72
ag72
ag136
ag136
ag136
ag72
ag72
ag72
ag72
ag72
ag136
ag72
ag136
ag136
ag72
ag72
ag72
ag136
ag72
ag136
ag72
ag72
ag136
ag136
ag136
ag136
ag136
ag136
ag136
ag72
ag136
ag72
ag136
ag72
ag72
ag72
ag136
ag72
ag72
ag72
ag72
ag72
ag72
ag72
ag72
ag136
ag72
ag136
ag136
ag136
ag72
ag72
ag72
ag136
ag72
ag72
ag72
ag136
ag136
ag72
ag136
ag72
ag136
ag136
ag72
ag72
ag72
ag136
ag136
ag136
ag72
ag72
ag72
atbsg22
g1162
(g1163
g1158
g1164
S'b'
tRp1175
(I1
(I96
I1
tg1166
I00
S"\xce\xc6\x1fCj<\xcbA\xdb&\x0bC\x82~\xb5C\xc5\x1c'C8_\x8dC\xb5M\x97C\xec/\xf3BlC\xeaA\xb4\xcc\xaeC\xb7\xfd\xc6B\xdb\xac\xb3C]`SB5\x83~C\xc2\x95\x11A\xad\xa8\xa0C\xd0h\xacCy\xe1pB\xdb\x9e\xaaC\xe6\xf9\x1aCAj\xb6B\x1c\xe0$B\xf1\xcc\x14B\x0ctUC\x8a\xbbYC};\x02C\xbc\xf0\xbcC\xc9\xde3C\x06\xfc>C0\x06\xfbB\x99\xe6*C\x060JA\xa1!\xbbC\xdcu\xa6Brk\x13C\xf4\x0c\x8fC\xd2\x86\x05B'\xdf\x86B\x05\xc4vC\xbc\xcd\x85ATc\x99C\x8c\xb0\xb0@\xc9\x0f\xd5B\x80\xc3\xc0C\xa8n\x7fB\x18\xbf\xa8C\x8c\xf9\xbeC`\x95\xb0C@\xe7\xc2C\r\x97\x9cC\xcd\x91bBO\x83\xa2C\xdb{cC\x0f\xcf7C\xe6H\x9fB\t\xf8\x97B'\x1fgCt\xc4\xc4C\x7f?\x17C\xb5:oC\xb8\xea\xa6A\xf3n\xb7C\xf0v#C'uAB%\x1esC\xa9`\xaeB\xe8\xc2FC\xdd\xb8\x06C\xb6\x89\xdcB\x92%\xceB+J\xebB\xe4|\x8bCk\xb1\x90B\x02\xa9\x85C\x01D\x81C\xc3?\x95C\xa8\xb6\xe3Bz\xcb\x87C\x01\xca\x89C\x96\x8e;CL\x98QCA\xb4zC\x96:JCCWkC\x14N\x83C\xbf\x1e\x91C\xeaH\x93C(\xe8MC\xe8\xfa\x0eC{\xcb\x9eC\xfd\x14\xb9C\xfb\x9e/C\xa2\xd2BCam\xa4C\x00\x113B\x9b\xa5\xa6C"
S'\x00\x00\x00\x00\x00\x00\x00\x00\x00\x00\x00\x00\x00\x00\x00\x00\x00\x00\x00\x00\x00\x00\x00\x00\x00\x00\x00\x00\x00\x00\x00\x00\x00\x00\x00\x00\x00\x00\x00\x00\x00\x00\x00\x00\x00\x00\x00\x00\x00\x00\x00\x00\x00\x00\x00\x00\x00\x00\x00\x00\x00\x00\x00\x00\x00\x00\x00\x00\x00\x00\x00\x00\x00\x00\x00\x00\x00\x00\x00\x00\x00\x00\x00\x00\x00\x00\x00\x00\x00\x00\x00\x00\x00\x00\x00\x00'
Ntbsg26
g1157
(g1158
(I0
tS'b'
tRp1176
(I1
(I96
I1
tg1160
I00
(lp1177
g36
(g80
S'\x04\x00\x00\x00'
tRp1178
ag36
(g80
S'\x06\x00\x00\x00'
tRp1179
ag36
(g80
S'\x07\x00\x00\x00'
tRp1180
aI1
ag36
(g80
S'\x02\x00\x00\x00'
tRp1181
ag36
(g80
S'\x03\x00\x00\x00'
tRp1182
ag36
(g80
S'\x04\x00\x00\x00'
tRp1183
ag36
(g80
S'\x03\x00\x00\x00'
tRp1184
ag36
(g80
S'\x05\x00\x00\x00'
tRp1185
ag36
(g80
S'\x04\x00\x00\x00'
tRp1186
ag36
(g80
S'\x06\x00\x00\x00'
tRp1187
ag36
(g80
S'\x02\x00\x00\x00'
tRp1188
ag36
(g80
S'\t\x00\x00\x00'
tRp1189
ag36
(g80
S'\x06\x00\x00\x00'
tRp1190
aS'4.0'
p1191
ag36
(g80
S'\x05\x00\x00\x00'
tRp1192
ag36
(g80
S'\x01\x00\x00\x00'
tRp1193
ag36
(g80
S'\x04\x00\x00\x00'
tRp1194
ag36
(g80
S'\x02\x00\x00\x00'
tRp1195
ag36
(g80
S'\x01\x00\x00\x00'
tRp1196
ag36
(g80
S'\x05\x00\x00\x00'
tRp1197
ag36
(g80
S'\x02\x00\x00\x00'
tRp1198
ag36
(g80
S'\x01\x00\x00\x00'
tRp1199
ag36
(g80
S'\x02\x00\x00\x00'
tRp1200
ag36
(g80
S'\x04\x00\x00\x00'
tRp1201
ag36
(g80
S'\x04\x00\x00\x00'
tRp1202
ag36
(g80
S'\x05\x00\x00\x00'
tRp1203
ag36
(g80
S'\x05\x00\x00\x00'
tRp1204
ag36
(g80
S'\x02\x00\x00\x00'
tRp1205
aI1
ag36
(g80
S'\x04\x00\x00\x00'
tRp1206
aS'3.0'
p1207
ag36
(g80
S'\x06\x00\x00\x00'
tRp1208
aI1
ag36
(g80
S'\x03\x00\x00\x00'
tRp1209
ag36
(g80
S'\x01\x00\x00\x00'
tRp1210
ag36
(g80
S'\x03\x00\x00\x00'
tRp1211
ag36
(g80
S'\x04\x00\x00\x00'
tRp1212
ag36
(g80
S'\x04\x00\x00\x00'
tRp1213
aS'2.0'
p1214
ag36
(g80
S'\x03\x00\x00\x00'
tRp1215
aS'5.0'
p1216
ag36
(g80
S'\x02\x00\x00\x00'
tRp1217
aI1
ag36
(g80
S'\x01\x00\x00\x00'
tRp1218
ag36
(g80
S'\x03\x00\x00\x00'
tRp1219
ag36
(g80
S'\x03\x00\x00\x00'
tRp1220
ag36
(g80
S'\x01\x00\x00\x00'
tRp1221
ag36
(g80
S'\x02\x00\x00\x00'
tRp1222
ag36
(g80
S'\x06\x00\x00\x00'
tRp1223
ag36
(g80
S'\x07\x00\x00\x00'
tRp1224
ag36
(g80
S'\x04\x00\x00\x00'
tRp1225
ag36
(g80
S'\x07\x00\x00\x00'
tRp1226
ag36
(g80
S'\x04\x00\x00\x00'
tRp1227
ag36
(g80
S'\x01\x00\x00\x00'
tRp1228
ag36
(g80
S'\x03\x00\x00\x00'
tRp1229
ag36
(g80
S'\x04\x00\x00\x00'
tRp1230
ag36
(g80
S'\x05\x00\x00\x00'
tRp1231
ag36
(g80
S'\x02\x00\x00\x00'
tRp1232
ag36
(g80
S'\x04\x00\x00\x00'
tRp1233
ag36
(g80
S'\x03\x00\x00\x00'
tRp1234
ag36
(g80
S'\x04\x00\x00\x00'
tRp1235
ag36
(g80
S'\x03\x00\x00\x00'
tRp1236
ag36
(g80
S'\x06\x00\x00\x00'
tRp1237
ag36
(g80
S'\x05\x00\x00\x00'
tRp1238
ag36
(g80
S'\x04\x00\x00\x00'
tRp1239
ag36
(g80
S'\x03\x00\x00\x00'
tRp1240
ag36
(g80
S'\x05\x00\x00\x00'
tRp1241
ag36
(g80
S'\x04\x00\x00\x00'
tRp1242
ag36
(g80
S'\x04\x00\x00\x00'
tRp1243
ag36
(g80
S'\x05\x00\x00\x00'
tRp1244
ag36
(g80
S'\x01\x00\x00\x00'
tRp1245
ag36
(g80
S'\x06\x00\x00\x00'
tRp1246
ag36
(g80
S'\x03\x00\x00\x00'
tRp1247
ag36
(g80
S'\x05\x00\x00\x00'
tRp1248
ag36
(g80
S'\x05\x00\x00\x00'
tRp1249
ag36
(g80
S'\x07\x00\x00\x00'
tRp1250
ag36
(g80
S'\x06\x00\x00\x00'
tRp1251
ag36
(g80
S'\x04\x00\x00\x00'
tRp1252
ag36
(g80
S'\x03\x00\x00\x00'
tRp1253
ag36
(g80
S'\x03\x00\x00\x00'
tRp1254
ag36
(g80
S'\x03\x00\x00\x00'
tRp1255
ag36
(g80
S'\x01\x00\x00\x00'
tRp1256
ag36
(g80
S'\x05\x00\x00\x00'
tRp1257
ag36
(g80
S'\x04\x00\x00\x00'
tRp1258
ag36
(g80
S'\x04\x00\x00\x00'
tRp1259
ag36
(g80
S'\x03\x00\x00\x00'
tRp1260
ag36
(g80
S'\x02\x00\x00\x00'
tRp1261
ag36
(g80
S'\x05\x00\x00\x00'
tRp1262
ag36
(g80
S'\x07\x00\x00\x00'
tRp1263
ag36
(g80
S'\x03\x00\x00\x00'
tRp1264
ag36
(g80
S'\x07\x00\x00\x00'
tRp1265
ag36
(g80
S'\x05\x00\x00\x00'
tRp1266
ag36
(g80
S'\x06\x00\x00\x00'
tRp1267
ag36
(g80
S'\x03\x00\x00\x00'
tRp1268
ag36
(g80
S'\x04\x00\x00\x00'
tRp1269
atbsg21
g1162
(g1163
g1158
g1164
S'b'
tRp1270
(I1
(I96
I1
tg1166
I00
S'\xa6\xb2\\?/\xb1!?1\x18l?\xdb\xc8\x8f>\x19~\xae>\xf6\xba\x0f?\xd5N\x80?\xe2\nC?\xa3\x84.?\x169q?\xe0\xb6\x9f@\xa4\x95<@\xeb\x141?\x84\x8f\x1c?\xc0~\xd2>Bx\x05?v\xd6\xb8>9\x80\xd2>\xd0\x8e\x1c?\t&\xec>y\xdeO?\x86\xb4\xb3>\\\x85.?]\xa63?\xff\x1c\x96?xr\xc0?\xaeV\x00?jZv?}\xa8\x8a>\xe6\nC?\x1cV\x00?\xf7\xb4\xb3>\xa9\xc9a?!;\xc8>\xee\x12\xa8?\xa3\x87\x85>\xa6"\x84?\xee-\x9f>"\xe3\xe1>\x8d\xb2J?\x87.q?d\x8a\xfb>;P\xa4>f\x04\xe7>\x80\x08\x08?\x91\xc9s?\x08\xcas?\x05\x19\xc3>\xc7"\x8d?\x82\xba\x0f?B\xdc\x14?bL\x12?g%\xae@\x9b\x9f\xd7>\x84)\r?\xaa\xe7\x02?\xcbH\xf1>\xee\xfe\x19?\xb7\x1f\x1f?\xc9\xa63?\xa2\xda\x8b?\xde76?\xb1\xbb\x0f?\xfeq\xa9>\xec\xfd\x19?\xa1b)?\xf7\x0bC?\xda9\xa4?\xda\x04\xe7>\x0cq\xf6>@\x15\x1f?\xd5\x87\x85>\xf5\xcc\xe1?\xeb\xba\xc1?\xde\xa53?\xff\xa53?7<\xc8>zI\x89?\xc8M;?P\x9a\n?\x05\xe5\xe1>\x96o@?\x1c\x92\xb8>`\x84.?\xc0dR?P\xda\x8b?\xe7\x18\x9f?\xed\x04\xe7>I`\xcd>S\xf2\xa2?..\x1a>|p\x85?\xd1\xfe\x19?\xae\x8f\x1c?\xb8<\xc8>\x17\xf2\xa2?'
S'\x00\x00\x00\x00\x00\x00\x00\x00\x00\x00\x00\x00\x00\x00\x00\x00\x00\x00\x00\x00\x00\x00\x00\x00\x00\x00\x00\x00\x00\x00\x00\x00\x00\x00\x00\x00\x00\x00\x00\x00\x00\x00\x00\x00\x00\x00\x00\x00\x00\x00\x00\x00\x00\x00\x00\x00\x00\x00\x00\x00\x00\x00\x00\x00\x00\x00\x00\x00\x00\x00\x00\x00\x00\x00\x00\x00\x00\x00\x00\x00\x00\x00\x00\x00\x00\x00\x00\x00\x00\x00\x00\x00\x00\x00\x00\x00'
NtbsS'order'
p1271
g1162
(g1163
g1158
g1164
S'b'
tRp1272
(I1
(I96
I1
tg1166
I00
S'\x00\x00\x18B\x00\x00\xa0@\x00\x00\x04B\x00\x00\xaeB\x00\x00 B\x00\x00\x88B\x00\x00\x92B\x00\x00\xe8A\x00\x00\xc0@\x00\x00\xa8B\x00\x00\xb8A\x00\x00\xacB\x00\x00@A\x00\x00tB\x00\x00\x80?\x00\x00\x9aB\x00\x00\xa6B\x00\x00`A\x00\x00\xa4B\x00\x00\x14B\x00\x00\xb0A\x00\x00\x10A\x00\x00\x00A\x00\x00PB\x00\x00TB\x00\x00\xf8A\x00\x00\xb6B\x00\x00,B\x00\x008B\x00\x00\xf0A\x00\x00$B\x00\x00\x00@\x00\x00\xb4B\x00\x00\xa0A\x00\x00\x0cB\x00\x00\x8aB\x00\x00\xe0@\x00\x00\x80A\x00\x00lB\x00\x00@@\x00\x00\x94B\x00\x00\x00\x00\x00\x00\xc8A\x00\x00\xbaB\x00\x00pA\x00\x00\xa2B\x00\x00\xb8B\x00\x00\xaaB\x00\x00\xbcB\x00\x00\x96B\x00\x00PA\x00\x00\x9cB\x00\x00XB\x00\x000B\x00\x00\x98A\x00\x00\x90A\x00\x00\\B\x00\x00\xbeB\x00\x00\x10B\x00\x00dB\x00\x00\x80@\x00\x00\xb0B\x00\x00\x1cB\x00\x000A\x00\x00hB\x00\x00\xa8A\x00\x00@B\x00\x00\x00B\x00\x00\xd0A\x00\x00\xc0A\x00\x00\xe0A\x00\x00\x86B\x00\x00\x88A\x00\x00\x80B\x00\x00xB\x00\x00\x90B\x00\x00\xd8A\x00\x00\x82B\x00\x00\x84B\x00\x004B\x00\x00LB\x00\x00pB\x00\x00DB\x00\x00`B\x00\x00|B\x00\x00\x8cB\x00\x00\x8eB\x00\x00HB\x00\x00\x08B\x00\x00\x98B\x00\x00\xb2B\x00\x00(B\x00\x00<B\x00\x00\x9eB\x00\x00 A\x00\x00\xa0B'
S'\x00\x00\x00\x00\x00\x00\x00\x00\x00\x00\x00\x00\x00\x00\x00\x00\x00\x00\x00\x00\x00\x00\x00\x00\x00\x00\x00\x00\x00\x00\x00\x00\x00\x00\x00\x00\x00\x00\x00\x00\x00\x00\x00\x00\x00\x00\x00\x00\x00\x00\x00\x00\x00\x00\x00\x00\x00\x00\x00\x00\x00\x00\x00\x00\x00\x00\x00\x00\x00\x00\x00\x00\x00\x00\x00\x00\x00\x00\x00\x00\x00\x00\x00\x00\x00\x00\x00\x00\x00\x00\x00\x00\x00\x00\x00\x00'
Ntbsg19
g1162
(g1163
g1158
g1164
S'b'
tRp1273
(I1
(I96
I1
tg1166
I00
S'\x00\x00\x80?\x00\x00\x80?\x00\x00\x00\x00\x00\x00\x80?\x00\x00\x80?\x00\x00\x80?\x00\x00\x80?\x00\x00\x00\x00\x00\x00\x80?\x00\x00\x80?\x00\x00\x80?\x00\x00\x80?\x00\x00\x80?\x00\x00\x80?\x00\x00\x80?\x00\x00\x00\x00\x00\x00\x80?\x00\x00\x80?\x00\x00\x00\x00\x00\x00\x00\x00\x00\x00\x80?\x00\x00\x00\x00\x00\x00\x80?\x00\x00\x00\x00\x00\x00\x80?\x00\x00\x00\x00\x00\x00\x80?\x00\x00\x80?\x00\x00\x00\x00\x00\x00\x00\x00\x00\x00\x80?\x00\x00\x80?\x00\x00\x80?\x00\x00\x00\x00\x00\x00\x80?\x00\x00\x00\x00\x00\x00\x00\x00\x00\x00\x80?\x00\x00\x80?\x00\x00\x00\x00\x00\x00\x00\x00\x00\x00\x80?\x00\x00\x00\x00\x00\x00\x80?\x00\x00\x80?\x00\x00\x00\x00\x00\x00\x80?\x00\x00\x80?\x00\x00\x80?\x00\x00\x80?\x00\x00\x80?\x00\x00\x80?\x00\x00\x80?\x00\x00\x00\x00\x00\x00\x80?\x00\x00\x00\x00\x00\x00\x80?\x00\x00\x80?\x00\x00\x80?\x00\x00\x80?\x00\x00\x80?\x00\x00\x80?\x00\x00\x80?\x00\x00\x80?\x00\x00\x00\x00\x00\x00\x80?\x00\x00\x80?\x00\x00\x80?\x00\x00\x80?\x00\x00\x80?\x00\x00\x80?\x00\x00\x80?\x00\x00\x80?\x00\x00\x00\x00\x00\x00\x80?\x00\x00\x80?\x00\x00\x80?\x00\x00\x80?\x00\x00\x80?\x00\x00\x80?\x00\x00\x00\x00\x00\x00\x00\x00\x00\x00\x80?\x00\x00\x80?\x00\x00\x80?\x00\x00\x00\x00\x00\x00\x80?\x00\x00\x80?\x00\x00\x80?\x00\x00\x80?\x00\x00\x00\x00\x00\x00\x80?\x00\x00\x80?\x00\x00\x80?\x00\x00\x00\x00\x00\x00\x80?'
S'\x00\x00\x00\x00\x00\x00\x00\x00\x00\x00\x00\x00\x00\x00\x00\x00\x00\x00\x00\x00\x00\x00\x00\x00\x00\x00\x00\x00\x00\x00\x00\x00\x00\x00\x00\x00\x00\x00\x00\x00\x00\x00\x00\x00\x00\x00\x00\x00\x00\x00\x00\x00\x00\x00\x00\x00\x00\x00\x00\x00\x00\x00\x00\x00\x00\x00\x00\x00\x00\x00\x00\x00\x00\x00\x00\x00\x00\x00\x00\x00\x00\x00\x00\x00\x00\x00\x00\x00\x00\x00\x00\x00\x00\x00\x00\x00'
Ntbsg27
g1157
(g1158
(I0
tS'b'
tRp1274
(I1
(I96
I1
tg1160
I00
(lp1275
g507
ag138
ag452
ag1046
ag529
ag837
ag892
ag408
ag150
ag1013
ag342
ag1035
ag218
ag760
ag89
ag936
ag1002
ag240
ag991
ag496
ag330
ag185
ag173
ag661
ag672
ag430
ag1090
ag562
ag595
ag419
ag540
ag101
ag1079
ag308
ag474
ag848
ag162
ag263
ag738
ag114
ag903
ag76
ag364
ag1112
ag251
ag980
ag1101
ag1024
ag1123
ag914
ag229
ag947
ag683
ag573
ag297
ag285
ag694
ag1134
ag485
ag716
ag126
ag1057
ag518
ag207
ag727
ag319
ag617
ag441
ag375
ag353
ag397
ag826
ag274
ag793
ag771
ag881
ag386
ag804
ag815
ag584
ag650
ag749
ag628
ag705
ag782
ag859
ag870
ag639
ag463
ag925
ag1068
ag551
ag606
ag958
ag196
ag969
atbsg23
g1157
(g1158
(I0
tS'b'
tRp1276
(I1
(I96
I1
tg1160
I00
(lp1277
S'2'
aS'2'
aS'3'
aS'1'
aS'1'
aS'3'
aS'2'
aS'3'
aS'3'
aS'3'
aS'3'
aS'3'
aS'3'
aS'2'
aS'2'
aS'2'
aS'1'
aS'3'
aS'2'
aS'1'
aS'1'
aS'1'
aS'1'
aS'1'
aS'1'
aS'1'
aS'3'
aS'2'
aS'1'
aS'1'
aS'1'
aS'2'
aS'2'
aS'1'
aS'2'
aS'1'
aS'3'
aS'1'
aS'2'
aS'1'
aS'1'
aS'2'
aS'1'
aS'1'
aS'1'
aS'2'
aS'3'
aS'1'
aS'1'
aS'1'
aS'3'
aS'1'
aS'3'
aS'2'
aS'2'
aS'3'
aS'1'
aS'1'
aS'2'
aS'1'
aS'1'
aS'2'
aS'2'
aS'1'
aS'2'
aS'1'
aS'3'
aS'1'
aS'1'
aS'3'
aS'3'
aS'1'
aS'3'
aS'1'
aS'2'
aS'2'
aS'3'
aS'3'
aS'3'
aS'2'
aS'2'
aS'1'
aS'1'
aS'2'
aS'2'
aS'2'
aS'1'
aS'1'
aS'3'
aS'3'
aS'1'
aS'3'
aS'3'
aS'3'
aS'1'
aS'2'
atbsg18
g1162
(g1163
g1158
g1164
S'b'
tRp1278
(I1
(I96
I1
tg1166
I00
S'\xd9\xe4\x1eC\xc6\x04\xc6A\x7f5\nC\xeeW\xb5CB\xc0&C\xb9\x14\x8dC\xc5\xca\x96CM\x9f\xf1B,\xa5\xe4AvQ\xaeC\xc3\xf7\xbcB\x0e1\xb2C\x02\x87PBd\xe1}C\x96\xad\nAOc\xa0C\xf97\xacCj\'oB\xf3M\xaaC\x8f~\x1aC\xfd\xbf\xb4B\xa7c#B\xcf\xfd\x11B \xbbTC\x0c\x8aXCT\xb5\x00C\xa7\xac\xbcC,\xe32Cl\xb1>C\x96u\xf9B\xff`*C3>DA\x1a\xae\xbaC\x1a\xa3\xa5B\n\x16\x12C\xf1\xe8\x8eC\xafP\x01Bs5\x86B\xd0MvC \x9c~A\x1b\xe8\x98C\t\xfb\x9f@\xf3`\xd4B\x1e\x87\xc0C{9}B\x92B\xa8C\x05}\xbeC\xf8a\xb0C|W\xc2C\x8eL\x9cCP)`B\x877\xa2Ck\x05^C\xfc]7C\x0c$\x9eB\xb3\xe7\x96B@\xa1fC\xd2t\xc4C\x1d\x9b\x16C\xcb\x81nC\xfd\x02\x9eA6\x11\xb7C\xf2\xe1"C2\r@B\xe4~rC]\x03\xadB\x99\xfaEC&k\x05C\t\x93\xdbB\x9a$\xcdBw\x01\xeaB\xe1X\x8bC\xb2\x1f\x8dB\xa6\xe4\x84C\x8c\xe7\x80CO\xe3\x94C\xea\xe3\xe2BF>\x87C\xb9i\x89C\xba\xfe:C\x16"QC\x8d\xeeyC\xe9\xd8IC{\xa3jC@\xe2\x82CC\x90\x90C/\xa7\x92CcoMC\xf4\x8e\x0eC\xe7%\x9eC\x16\xff\xb8C\xd8\x8e.C`3BCl\x1c\xa4Cuk1B\x08\x00\xa6C'
S'\x00\x00\x00\x00\x00\x00\x00\x00\x00\x00\x00\x00\x00\x00\x00\x00\x00\x00\x00\x00\x00\x00\x00\x00\x00\x00\x00\x00\x00\x00\x00\x00\x00\x00\x00\x00\x00\x00\x00\x00\x00\x00\x00\x00\x00\x00\x00\x00\x00\x00\x00\x00\x00\x00\x00\x00\x00\x00\x00\x00\x00\x00\x00\x00\x00\x00\x00\x00\x00\x00\x00\x00\x00\x00\x00\x00\x00\x00\x00\x00\x00\x00\x00\x00\x00\x00\x00\x00\x00\x00\x00\x00\x00\x00\x00\x00'
Ntbsg25
g1162
(g1163
g1158
g1164
S'b'
tRp1279
(I1
(I96
I1
tg1166
I00
S".\xbe\xf6=\xb2\xae.>Y[\xcd>\x93\xea\x0f>b\xa7\x8a>\x8b?\xe2=J\xbaW>\x93\xbc.>\xaa4w=TyM>\xdd\xb0\xa4=\x1c\xf7\xbd>=\xae.>\xef\xb4\x8f>\xb8\xf28>\x9b6\xe2=GoR?\xb4\xc0\xf6=\xa4\xffa>\xdc\x16l?\x81\x8c\x85>i'\x1a>v\xf3+?;6\xb9=\r\xa9\xa1?!\xff8>\x87:\xe2=\x17W\x00?\x83\xc0W>twM>8 \x1f?v\x0b\x9a>\xa3k\xa6=\x94\xc8\x8f>\xb6\xd2W>(=\xf8<\x93-\x1a>\xba@\xe2=%\xf38>\xb5\x17%=\xc2\xf62@3&\x1a>/\x86\x85>8\xf28>\xbef\x80>\xa8\xe5\x0f>\xd4\xa4\x05>xFl>\x86)\xb9=\xb6W\xa4=Q8\x1a>\xcb\xf28>3)\x1a>\xc5wM>\xa8\xbeW>\x15\xd9\xf6=\xc4\xe6\x02?\x8b\xffa>\xe7\xc8\x8f>\x03\x86\x85>\x06C_?\xba\xe7\x0f>\xc4-\x9f>'\xcd8?\xbd4C>\xa9\xf38>\x1d\xc0\xf6=\xbe$\xec>/+\x1a>r\xe6\x0f>\x0e\xf38>34C>\x8f\xbe\xf6=\x0e5\x1a>\x9f\x1bl>\xa0)\xb9=z\xe7\x0f>\x17Pl>\x8b*\x1a>\x9dv$>)w$>?x$>_Fl>\xd2\xae.>&\xf38>\xc7\xa5\xa4=\x15{M>\xc6\x8bv>\x10\xbe\xf6='\xf38>\xbb\xad.>.\x87\x85>\xb6\xbe.>\r\xbe\x0f>t@l>\xa3\x89v>"
S'\x00\x00\x00\x00\x00\x00\x00\x00\x00\x00\x00\x00\x00\x00\x00\x00\x00\x00\x00\x00\x00\x00\x00\x00\x00\x00\x00\x00\x00\x00\x00\x00\x00\x00\x00\x00\x00\x00\x00\x00\x00\x00\x00\x00\x00\x00\x00\x00\x00\x00\x00\x00\x00\x00\x00\x00\x00\x00\x00\x00\x00\x00\x00\x00\x00\x00\x00\x00\x00\x00\x00\x00\x00\x00\x00\x00\x00\x00\x00\x00\x00\x00\x00\x00\x00\x00\x00\x00\x00\x00\x00\x00\x00\x00\x00\x00'
NtbstRp1280
(dp1281
S'isNumeric'
p1282
(dp1283
g23
I00
sg20
I00
sg17
I01
sg1167
I01
sg22
I01
sg24
I01
sg14
I01
sg18
I01
sg16
I00
sg19
I01
sg26
I00
sg27
I00
sg15
I00
sg21
I01
sg1271
I01
sg25
I01
ssg1151
g1145
sS'dataTypes'
p1284
(lp1285
g1167
ag1271
ag14
ag15
ag16
ag17
ag18
ag19
ag20
ag21
ag22
ag23
ag24
ag25
ag26
ag27
asS'dataShape'
p1286
(lp1287
I96
aI1
asbsS'method'
p1288
S'random'
p1289
sS'sequenceIndices'
p1290
g1157
(g1158
(I0
tS'b'
tRp1291
(I1
(I96
I1
tg80
I01
S')\x00\x00\x00\x0e\x00\x00\x00\x1f\x00\x00\x00\'\x00\x00\x00<\x00\x00\x00\x01\x00\x00\x00\x08\x00\x00\x00$\x00\x00\x00\x16\x00\x00\x00\x15\x00\x00\x00^\x00\x00\x00?\x00\x00\x00\x0c\x00\x00\x002\x00\x00\x00\x11\x00\x00\x00,\x00\x00\x00%\x00\x00\x00H\x00\x00\x007\x00\x00\x006\x00\x00\x00!\x00\x00\x00A\x00\x00\x00\x14\x00\x00\x00\n\x00\x00\x00E\x00\x00\x00*\x00\x00\x00D\x00\x00\x00L\x00\x00\x00F\x00\x00\x00\x07\x00\x00\x00\x1d\x00\x00\x00\x19\x00\x00\x00C\x00\x00\x00\x02\x00\x00\x00X\x00\x00\x00"\x00\x00\x00:\x00\x00\x00\x13\x00\x00\x00\x00\x00\x00\x00>\x00\x00\x00\x04\x00\x00\x00\x1e\x00\x00\x00[\x00\x00\x00\x1b\x00\x00\x005\x00\x00\x00O\x00\x00\x00\x1c\x00\x00\x00\\\x00\x00\x00B\x00\x00\x00R\x00\x00\x00W\x00\x00\x00P\x00\x00\x00\x17\x00\x00\x00\x18\x00\x00\x004\x00\x00\x008\x00\x00\x00S\x00\x00\x00;\x00\x00\x00@\x00\x00\x00&\x00\x00\x00Q\x00\x00\x00\r\x00\x00\x00J\x00\x00\x00T\x00\x00\x00I\x00\x00\x00M\x00\x00\x00N\x00\x00\x00G\x00\x00\x00\x05\x00\x00\x00#\x00\x00\x00U\x00\x00\x00V\x00\x00\x00K\x00\x00\x00\x06\x00\x00\x00(\x00\x00\x001\x00\x00\x00Y\x00\x00\x00\x0f\x00\x00\x003\x00\x00\x00]\x00\x00\x00_\x00\x00\x00-\x00\x00\x00\x12\x00\x00\x00\x10\x00\x00\x00\t\x00\x00\x00/\x00\x00\x00\x0b\x00\x00\x00\x03\x00\x00\x00=\x00\x00\x00Z\x00\x00\x00 \x00\x00\x00\x1a\x00\x00\x00.\x00\x00\x00+\x00\x00\x000\x00\x00\x009\x00\x00\x00'
tbsS'finished'
p1292
I01
sS'nReps'
p1293
I1
sS'nRemaining'
p1294
I-1
sS'trialList'
p1295
(lp1296
g1
(cpsychopy.data
TrialType
p1297
g1155
(dp1298
g62
g74
sg63
g513
sg64
g148
sg65
g508
sg66
g512
stRp1299
ag1
(g1297
g1155
(dp1300
g62
g112
sg63
g144
sg64
g111
sg65
g139
sg66
g143
stRp1301
ag1
(g1297
g1155
(dp1302
g62
g74
sg63
g458
sg64
g148
sg65
g453
sg66
g457
stRp1303
ag1
(g1297
g1155
(dp1304
g62
g74
sg63
g1052
sg64
g261
sg65
g1047
sg66
g1051
stRp1305
ag1
(g1297
g1155
(dp1306
g62
g112
sg63
g535
sg64
g124
sg65
g530
sg66
g534
stRp1307
ag1
(g1297
g1155
(dp1308
g62
g74
sg63
g843
sg64
g148
sg65
g838
sg66
g842
stRp1309
ag1
(g1297
g1155
(dp1310
g62
g74
sg63
g898
sg64
g148
sg65
g893
sg66
g897
stRp1311
ag1
(g1297
g1155
(dp1312
g62
g74
sg63
g414
sg64
g295
sg65
g409
sg66
g413
stRp1313
ag1
(g1297
g1155
(dp1314
g62
g74
sg63
g156
sg64
g148
sg65
g151
sg66
g155
stRp1315
ag1
(g1297
g1155
(dp1316
g62
g74
sg63
g1019
sg64
g295
sg65
g1014
sg66
g1018
stRp1317
ag1
(g1297
g1155
(dp1318
g62
g112
sg63
g348
sg64
g340
sg65
g343
sg66
g347
stRp1319
ag1
(g1297
g1155
(dp1320
g62
g74
sg63
g1041
sg64
g295
sg65
g1036
sg66
g1040
stRp1321
ag1
(g1297
g1155
(dp1322
g62
g74
sg63
g224
sg64
g73
sg65
g219
sg66
g223
stRp1323
ag1
(g1297
g1155
(dp1324
g62
g112
sg63
g766
sg64
g111
sg65
g761
sg66
g765
stRp1325
ag1
(g1297
g1155
(dp1326
g62
g74
sg63
g95
sg64
g73
sg65
g90
sg66
g94
stRp1327
ag1
(g1297
g1155
(dp1328
g62
g74
sg63
g942
sg64
g148
sg65
g937
sg66
g941
stRp1329
ag1
(g1297
g1155
(dp1330
g62
g112
sg63
g1008
sg64
g111
sg65
g1003
sg66
g1007
stRp1331
ag1
(g1297
g1155
(dp1332
g62
g74
sg63
g246
sg64
g73
sg65
g241
sg66
g245
stRp1333
ag1
(g1297
g1155
(dp1334
g62
g74
sg63
g997
sg64
g99
sg65
g992
sg66
g996
stRp1335
ag1
(g1297
g1155
(dp1336
g62
g74
sg63
g502
sg64
g148
sg65
g497
sg66
g501
stRp1337
ag1
(g1297
g1155
(dp1338
g62
g112
sg63
g336
sg64
g111
sg65
g331
sg66
g335
stRp1339
ag1
(g1297
g1155
(dp1340
g62
g112
sg63
g191
sg64
g183
sg65
g186
sg66
g190
stRp1341
ag1
(g1297
g1155
(dp1342
g62
g74
sg63
g179
sg64
g99
sg65
g174
sg66
g178
stRp1343
ag1
(g1297
g1155
(dp1344
g62
g112
sg63
g667
sg64
g183
sg65
g662
sg66
g666
stRp1345
ag1
(g1297
g1155
(dp1346
g62
g112
sg63
g678
sg64
g340
sg65
g673
sg66
g677
stRp1347
ag1
(g1297
g1155
(dp1348
g62
g74
sg63
g436
sg64
g160
sg65
g431
sg66
g435
stRp1349
ag1
(g1297
g1155
(dp1350
g62
g112
sg63
g1096
sg64
g124
sg65
g1091
sg66
g1095
stRp1351
ag1
(g1297
g1155
(dp1352
g62
g112
sg63
g568
sg64
g111
sg65
g563
sg66
g567
stRp1353
ag1
(g1297
g1155
(dp1354
g62
g74
sg63
g601
sg64
g73
sg65
g596
sg66
g600
stRp1355
ag1
(g1297
g1155
(dp1356
g62
g74
sg63
g425
sg64
g148
sg65
g420
sg66
g424
stRp1357
ag1
(g1297
g1155
(dp1358
g62
g74
sg63
g546
sg64
g99
sg65
g541
sg66
g545
stRp1359
ag1
(g1297
g1155
(dp1360
g62
g74
sg63
g107
sg64
g99
sg65
g102
sg66
g106
stRp1361
ag1
(g1297
g1155
(dp1362
g62
g112
sg63
g1085
sg64
g111
sg65
g1080
sg66
g1084
stRp1363
ag1
(g1297
g1155
(dp1364
g62
g112
sg63
g314
sg64
g124
sg65
g309
sg66
g313
stRp1365
ag1
(g1297
g1155
(dp1366
g62
g112
sg63
g480
sg64
g124
sg65
g475
sg66
g479
stRp1367
ag1
(g1297
g1155
(dp1368
g62
g74
sg63
g854
sg64
g73
sg65
g849
sg66
g853
stRp1369
ag1
(g1297
g1155
(dp1370
g62
g74
sg63
g168
sg64
g160
sg65
g163
sg66
g167
stRp1371
ag1
(g1297
g1155
(dp1372
g62
g74
sg63
g269
sg64
g261
sg65
g264
sg66
g268
stRp1373
ag1
(g1297
g1155
(dp1374
g62
g112
sg63
g744
sg64
g124
sg65
g739
sg66
g743
stRp1375
ag1
(g1297
g1155
(dp1376
g62
g112
sg63
g120
sg64
g111
sg65
g115
sg66
g119
stRp1377
ag1
(g1297
g1155
(dp1378
g62
g112
sg63
g909
sg64
g111
sg65
g904
sg66
g908
stRp1379
ag1
(g1297
g1155
(dp1380
g62
g74
sg63
g84
sg64
g73
sg65
g78
sg66
g83
stRp1381
ag1
(g1297
g1155
(dp1382
g62
g112
sg63
g370
sg64
g124
sg65
g365
sg66
g369
stRp1383
ag1
(g1297
g1155
(dp1384
g62
g112
sg63
g1118
sg64
g183
sg65
g1113
sg66
g1117
stRp1385
ag1
(g1297
g1155
(dp1386
g62
g112
sg63
g257
sg64
g124
sg65
g252
sg66
g256
stRp1387
ag1
(g1297
g1155
(dp1388
g62
g112
sg63
g986
sg64
g340
sg65
g981
sg66
g985
stRp1389
ag1
(g1297
g1155
(dp1390
g62
g74
sg63
g1107
sg64
g148
sg65
g1102
sg66
g1106
stRp1391
ag1
(g1297
g1155
(dp1392
g62
g74
sg63
g1030
sg64
g148
sg65
g1025
sg66
g1029
stRp1393
ag1
(g1297
g1155
(dp1394
g62
g112
sg63
g1129
sg64
g111
sg65
g1124
sg66
g1128
stRp1395
ag1
(g1297
g1155
(dp1396
g62
g112
sg63
g920
sg64
g183
sg65
g915
sg66
g919
stRp1397
ag1
(g1297
g1155
(dp1398
g62
g112
sg63
g235
sg64
g111
sg65
g230
sg66
g234
stRp1399
ag1
(g1297
g1155
(dp1400
g62
g112
sg63
g953
sg64
g124
sg65
g948
sg66
g952
stRp1401
ag1
(g1297
g1155
(dp1402
g62
g112
sg63
g689
sg64
g183
sg65
g684
sg66
g688
stRp1403
ag1
(g1297
g1155
(dp1404
g62
g74
sg63
g579
sg64
g73
sg65
g574
sg66
g578
stRp1405
ag1
(g1297
g1155
(dp1406
g62
g74
sg63
g303
sg64
g295
sg65
g298
sg66
g302
stRp1407
ag1
(g1297
g1155
(dp1408
g62
g112
sg63
g291
sg64
g183
sg65
g286
sg66
g290
stRp1409
ag1
(g1297
g1155
(dp1410
g62
g112
sg63
g700
sg64
g124
sg65
g695
sg66
g699
stRp1411
ag1
(g1297
g1155
(dp1412
g62
g112
sg63
g1140
sg64
g124
sg65
g1135
sg66
g1139
stRp1413
ag1
(g1297
g1155
(dp1414
g62
g74
sg63
g491
sg64
g73
sg65
g486
sg66
g490
stRp1415
ag1
(g1297
g1155
(dp1416
g62
g112
sg63
g722
sg64
g124
sg65
g717
sg66
g721
stRp1417
ag1
(g1297
g1155
(dp1418
g62
g112
sg63
g132
sg64
g124
sg65
g127
sg66
g131
stRp1419
ag1
(g1297
g1155
(dp1420
g62
g112
sg63
g1063
sg64
g124
sg65
g1058
sg66
g1062
stRp1421
ag1
(g1297
g1155
(dp1422
g62
g74
sg63
g524
sg64
g160
sg65
g519
sg66
g523
stRp1423
ag1
(g1297
g1155
(dp1424
g62
g112
sg63
g213
sg64
g124
sg65
g208
sg66
g212
stRp1425
ag1
(g1297
g1155
(dp1426
g62
g74
sg63
g733
sg64
g295
sg65
g728
sg66
g732
stRp1427
ag1
(g1297
g1155
(dp1428
g62
g112
sg63
g325
sg64
g183
sg65
g320
sg66
g324
stRp1429
ag1
(g1297
g1155
(dp1430
g62
g74
sg63
g623
sg64
g99
sg65
g618
sg66
g622
stRp1431
ag1
(g1297
g1155
(dp1432
g62
g112
sg63
g447
sg64
g124
sg65
g442
sg66
g446
stRp1433
ag1
(g1297
g1155
(dp1434
g62
g112
sg63
g381
sg64
g111
sg65
g376
sg66
g380
stRp1435
ag1
(g1297
g1155
(dp1436
g62
g74
sg63
g359
sg64
g148
sg65
g354
sg66
g358
stRp1437
ag1
(g1297
g1155
(dp1438
g62
g112
sg63
g403
sg64
g124
sg65
g398
sg66
g402
stRp1439
ag1
(g1297
g1155
(dp1440
g62
g74
sg63
g832
sg64
g99
sg65
g827
sg66
g831
stRp1441
ag1
(g1297
g1155
(dp1442
g62
g74
sg63
g280
sg64
g160
sg65
g275
sg66
g279
stRp1443
ag1
(g1297
g1155
(dp1444
g62
g112
sg63
g799
sg64
g340
sg65
g794
sg66
g798
stRp1445
ag1
(g1297
g1155
(dp1446
g62
g112
sg63
g777
sg64
g124
sg65
g772
sg66
g776
stRp1447
ag1
(g1297
g1155
(dp1448
g62
g112
sg63
g887
sg64
g183
sg65
g882
sg66
g886
stRp1449
ag1
(g1297
g1155
(dp1450
g62
g74
sg63
g392
sg64
g295
sg65
g387
sg66
g391
stRp1451
ag1
(g1297
g1155
(dp1452
g62
g74
sg63
g810
sg64
g99
sg65
g805
sg66
g809
stRp1453
ag1
(g1297
g1155
(dp1454
g62
g74
sg63
g821
sg64
g148
sg65
g816
sg66
g820
stRp1455
ag1
(g1297
g1155
(dp1456
g62
g112
sg63
g590
sg64
g124
sg65
g585
sg66
g589
stRp1457
ag1
(g1297
g1155
(dp1458
g62
g112
sg63
g656
sg64
g183
sg65
g651
sg66
g655
stRp1459
ag1
(g1297
g1155
(dp1460
g62
g74
sg63
g755
sg64
g148
sg65
g750
sg66
g754
stRp1461
ag1
(g1297
g1155
(dp1462
g62
g112
sg63
g634
sg64
g111
sg65
g629
sg66
g633
stRp1463
ag1
(g1297
g1155
(dp1464
g62
g74
sg63
g711
sg64
g99
sg65
g706
sg66
g710
stRp1465
ag1
(g1297
g1155
(dp1466
g62
g112
sg63
g788
sg64
g111
sg65
g783
sg66
g787
stRp1467
ag1
(g1297
g1155
(dp1468
g62
g112
sg63
g865
sg64
g124
sg65
g860
sg66
g864
stRp1469
ag1
(g1297
g1155
(dp1470
g62
g74
sg63
g876
sg64
g295
sg65
g871
sg66
g875
stRp1471
ag1
(g1297
g1155
(dp1472
g62
g74
sg63
g645
sg64
g295
sg65
g640
sg66
g644
stRp1473
ag1
(g1297
g1155
(dp1474
g62
g74
sg63
g469
sg64
g160
sg65
g464
sg66
g468
stRp1475
ag1
(g1297
g1155
(dp1476
g62
g74
sg63
g931
sg64
g160
sg65
g926
sg66
g930
stRp1477
ag1
(g1297
g1155
(dp1478
g62
g112
sg63
g1074
sg64
g111
sg65
g1069
sg66
g1073
stRp1479
ag1
(g1297
g1155
(dp1480
g62
g74
sg63
g557
sg64
g295
sg65
g552
sg66
g556
stRp1481
ag1
(g1297
g1155
(dp1482
g62
g74
sg63
g612
sg64
g160
sg65
g607
sg66
g611
stRp1483
ag1
(g1297
g1155
(dp1484
g62
g74
sg63
g964
sg64
g148
sg65
g959
sg66
g963
stRp1485
ag1
(g1297
g1155
(dp1486
g62
g112
sg63
g202
sg64
g183
sg65
g197
sg66
g201
stRp1487
ag1
(g1297
g1155
(dp1488
g62
g112
sg63
g975
sg64
g111
sg65
g970
sg66
g974
stRp1489
asS'seed'
p1490
NsS'thisIndex'
p1491
g1137
sS'thisN'
p1492
I96
sS'thisTrialN'
p1493
I0
sS'nTotal'
p1494
I96
sS'_warnUseOfNext'
p1495
I01
sbasS'savePickle'
p1496
I00
sb.