ccopy_reg
_reconstructor
p1
(cpsychopy.data
ExperimentHandler
p2
c__builtin__
object
p3
NtRp4
(dp5
S'originPath'
p6
NsS'dataFileName'
p7
VC:\u005cDocuments and Settings\u005cExperimental user\u005cMy Documents\u005cconsciousness\u005cuncon_feat\u005cexperiment_scripts\u005cdata/clara_Experiment_EEG_version_2019_may_23_1021
p8
sS'runtimeInfo'
p9
NsS'name'
p10
VExperiment_EEG_version
p11
sS'dataNames'
p12
(lp13
S'image_onset_time'
p14
aS'response_window'
p15
aS'correctAns'
p16
aS'probe_onset'
p17
aS'discrim_resptime'
p18
aS'response.corr'
p19
aS'response.keys'
p20
aS'response.rt'
p21
aS'visible_resptime'
p22
aS'visible.keys'
p23
aS'visible.corr'
p24
aS'visible.rt'
p25
aS'probeFrames'
p26
aS'jitter2'
p27
asS'autoLog'
p28
I01
sS'extraInfo'
p29
(dp30
Vn_square
p31
V32
p32
sVexperiment_color
p33
Vbw
p34
sS'frameRate'
p35
cnumpy.core.multiarray
scalar
p36
(cnumpy
dtype
p37
(S'f8'
I0
I1
tRp38
(I3
S'<'
NNNI-1
I-1
I0
tbS'6\x7f\x1b\xd1\x08\xf2X@'
tRp39
sS'date'
p40
V2019_may_23_1021
p41
sVsession
p42
V014
p43
sVimage_size
p44
V256
p45
sVpremask_dur
p46
V20
p47
sVprobeFrames
p48
V5
sVparticipant
p49
Vclara
p50
sS'expName'
p51
g11
sVpostmask_dur
p52
V20
p53
ssS'loopsUnfinished'
p54
(lp55
sS'saveWideText'
p56
I00
sS'thisEntry'
p57
(dp58
sS'version'
p59
S''
sS'_paramNamesSoFar'
p60
(lp61
S'category'
p62
aS'probe_path'
p63
aS'subcategory'
p64
aS'fixation_duration'
p65
aS'label'
p66
asS'entries'
p67
(lp68
(dp69
g31
g32
sg17
F3.7387849397491664
sg24
I0
sg35
g39
sg14
F3.7159890106413513
sg16
g36
(g37
(S'i4'
I0
I1
tRp70
(I3
S'<'
NNNI-1
I-1
I0
tbS'\x01\x00\x00\x00'
tRp71
sg42
g43
sg46
g47
sg15
S'V_nV'
p72
sg22
F5.6912010950036347
sg64
VMarine_creatures
p73
sg62
VLiving_Things
p74
sg49
g50
sS'trials.thisN'
p75
I0
sg19
I1
sg27
g36
(g38
S'\x00\x00\x00\x00\x00\x00\x1a@'
tRp76
sg52
g53
sg23
S'2'
sg18
F4.9986737347207963
sg33
g34
sg51
g11
sg20
S'1'
sg65
g36
(g37
(S'i8'
I0
I1
tRp77
(I3
S'<'
NNNI-1
I-1
I0
tbS'\x00\x00\x00\x00\x00\x00\x00\x00'
tRp78
sg44
g45
sg40
g41
sg25
F0.12048344360664487
sS'trials.thisIndex'
p79
g36
(g37
(S'i4'
I0
I1
tRp80
(I3
S'<'
NNNI-1
I-1
I0
tbS'A\x00\x00\x00'
tRp81
sg26
V5
sS'trials.thisRepN'
p82
I0
sg66
Vpomfret
p83
sg63
V../experiment_stimuli/bw_bc_bl/Living_Things/Marine_creatures/pomfret_26.jpg
p84
sg21
F0.66167592979036272
sS'trials.thisTrialN'
p85
I0
sa(dp86
g31
g32
sg17
F7.5492194250691682
sg24
I0
sg35
g39
sg14
F7.544306168332696
sg16
g36
(g70
S'\x01\x00\x00\x00'
tRp87
sg42
g43
sg46
g47
sg15
g72
sg22
F9.2987630041316152
sg64
VInsects
p88
sg62
g74
sg49
g50
sS'trials.thisN'
p89
I1
sg19
I0
sg27
g36
(g38
S'\x00\x00\x00\x00\x00\x00\x1a@'
tRp90
sg52
g53
sg23
S'2'
sg18
F8.8069580816663802
sg33
g34
sg51
g11
sg20
S'2'
sg65
g36
(g77
S'\x00\x00\x00\x00\x00\x00\x00\x00'
tRp91
sg44
g45
sg40
g41
sg25
F2.6960876886732876
sS'trials.thisIndex'
p92
g36
(g80
S'\x18\x00\x00\x00'
tRp93
sg26
V5
sS'trials.thisRepN'
p94
I0
sg66
Vdragonfly
p95
sg63
V../experiment_stimuli/bw_bc_bl/Living_Things/Insects/dragonfly_18.jpg
p96
sg21
F0.471256198361516
sS'trials.thisTrialN'
p97
I1
sa(dp98
g31
g32
sg17
F13.732424755347893
sg24
I0
sg35
g39
sg14
F13.727755036903545
sg16
g36
(g70
S'\x01\x00\x00\x00'
tRp99
sg42
g43
sg46
g47
sg15
S'nV_V'
p100
sg22
F15.76281581656076
sg64
VKitchen_Uten
p101
sg62
VNonliving_Things
p102
sg49
g50
sS'trials.thisN'
p103
I2
sg19
I1
sg27
g36
(g38
S'\x00\x00\x00\x00\x00\x00\x18@'
tRp104
sg52
g53
sg23
S'2'
sg18
F14.980373781640083
sg33
g34
sg51
g11
sg20
S'1'
sg65
g36
(g77
S'\x00\x00\x00\x00\x00\x00\x00\x00'
tRp105
sg44
g45
sg40
g41
sg25
F0.14054027292877436
sS'trials.thisIndex'
p106
g36
(g80
S'G\x00\x00\x00'
tRp107
sg26
V5
sS'trials.thisRepN'
p108
I0
sg66
Vsaucepan
p109
sg63
V../experiment_stimuli/bw_bc_bl/Nonliving_Things/Kitchen_Uten/saucepan_14.jpg
p110
sg21
F0.76188454730436206
sS'trials.thisTrialN'
p111
I2
sa(dp112
g31
g32
sg17
F17.641175475437194
sg24
I0
sg35
g39
sg14
F17.636243749177083
sg16
g36
(g70
S'\x01\x00\x00\x00'
tRp113
sg42
g43
sg46
g47
sg15
g100
sg22
F19.390693269437179
sg64
VBuildings
p114
sg62
g102
sg49
g50
sS'trials.thisN'
p115
I3
sg19
I0
sg27
g36
(g38
S'\x00\x00\x00\x00\x00\x00\x18@'
tRp116
sg52
g53
sg23
S'2'
sg18
F18.878850960638374
sg33
g34
sg51
g11
sg20
S'2'
sg65
g36
(g77
S'\x00\x00\x00\x00\x00\x00\x00\x00'
tRp117
sg44
g45
sg40
g41
sg25
F0.21067780978046358
sS'trials.thisIndex'
p118
g36
(g80
S'\x11\x00\x00\x00'
tRp119
sg26
V5
sS'trials.thisRepN'
p120
I0
sg66
Vchurch
p121
sg63
V../experiment_stimuli/bw_bc_bl/Nonliving_Things/Buildings/church_21.jpg
p122
sg21
F0.49129742663353682
sS'trials.thisTrialN'
p123
I3
sa(dp124
g31
g32
sg17
F21.33913605264388
sg24
I1
sg35
g39
sg14
F21.334290565922856
sg16
g36
(g70
S'\x02\x00\x00\x00'
tRp125
sg42
g43
sg46
g47
sg15
g72
sg22
F22.908374717924744
sg64
VMusical_Inst
p126
sg62
g102
sg49
g50
sS'trials.thisN'
p127
I4
sg19
I0
sg27
g36
(g38
S'\x00\x00\x00\x00\x00\x00\x18@'
tRp128
sg52
g53
sg23
S'1'
sg18
F22.566862515173852
sg33
g34
sg51
g11
sg20
S'1'
sg65
g36
(g77
S'\x00\x00\x00\x00\x00\x00\x00\x00'
tRp129
sg44
g45
sg40
g41
sg25
F0.260790697298944
sS'trials.thisIndex'
p130
g36
(g80
S'$\x00\x00\x00'
tRp131
sg26
V5
sS'trials.thisRepN'
p132
I0
sg66
Vguitar
p133
sg63
V../experiment_stimuli/bw_bc_bl/Nonliving_Things/Musical_Inst/guitar_22.jpg
p134
sg21
F0.32091859192587435
sS'trials.thisTrialN'
p135
I4
sa(dp136
g31
g32
sg17
F24.906940399901941
sg24
I1
sg35
g39
sg14
F24.902040116954595
sg16
g36
(g70
S'\x02\x00\x00\x00'
tRp137
sg42
g43
sg46
g47
sg15
g72
sg22
F26.937102230964229
sg64
VTools
p138
sg62
g102
sg49
g50
sS'trials.thisN'
p139
I5
sg19
I1
sg27
g36
(g38
S'\x00\x00\x00\x00\x00\x00 @'
tRp140
sg52
g53
sg23
S'1'
sg18
F26.154659782536328
sg33
g34
sg51
g11
sg20
S'2'
sg65
g36
(g77
S'\x00\x00\x00\x00\x00\x00\x00\x00'
tRp141
sg44
g45
sg40
g41
sg25
F1.05357481748797
sS'trials.thisIndex'
p142
g36
(g80
S'\x03\x00\x00\x00'
tRp143
sg26
V5
sS'trials.thisRepN'
p144
I0
sg66
Vaxe
p145
sg63
V../experiment_stimuli/bw_bc_bl/Nonliving_Things/Tools/axe_3.jpg
p146
sg21
F0.76188403624109924
sS'trials.thisTrialN'
p147
I5
sa(dp148
g31
g32
sg17
F29.727274899370968
sg24
I0
sg35
g39
sg14
F29.722523260861635
sg16
g36
(g70
S'\x02\x00\x00\x00'
tRp149
sg42
g43
sg46
g47
sg15
g72
sg22
F31.947992459870875
sg64
VFurniture
p150
sg62
g102
sg49
g50
sS'trials.thisN'
p151
I6
sg19
I1
sg27
g36
(g38
S'\x00\x00\x00\x00\x00\x00\x18@'
tRp152
sg52
g53
sg23
S'3'
sg18
F30.995185831328854
sg33
g34
sg51
g11
sg20
S'2'
sg65
g36
(g77
S'\x00\x00\x00\x00\x00\x00\x00\x00'
tRp153
sg44
g45
sg40
g41
sg25
F0.23073841724544764
sS'trials.thisIndex'
p154
g36
(g80
S']\x00\x00\x00'
tRp155
sg26
V5
sS'trials.thisRepN'
p156
I0
sg66
Vwardrobe
p157
sg63
V../experiment_stimuli/bw_bc_bl/Nonliving_Things/Furniture/wardrobe_18.jpg
p158
sg21
F0.92223393102176487
sS'trials.thisTrialN'
p159
I6
sa(dp160
g31
g32
sg17
F33.916597353061661
sg24
I1
sg35
g39
sg14
F33.911622973158956
sg16
g36
(g70
S'\x01\x00\x00\x00'
tRp161
sg42
g43
sg46
g47
sg15
g72
sg22
F35.996797456173226
sg64
g73
sg62
g74
sg49
g50
sS'trials.thisN'
p162
I7
sg19
I1
sg27
g36
(g38
S'\x00\x00\x00\x00\x00\x00\x1e@'
tRp163
sg52
g53
sg23
S'1'
sg18
F35.164255052339286
sg33
g34
sg51
g11
sg20
S'1'
sg65
g36
(g77
S'\x00\x00\x00\x00\x00\x00\x00\x00'
tRp164
sg44
g45
sg40
g41
sg25
F0.22054255986586213
sS'trials.thisIndex'
p165
g36
(g80
S'1\x00\x00\x00'
tRp166
sg26
V5
sS'trials.thisRepN'
p167
I0
sg66
Vlobster
p168
sg63
V../experiment_stimuli/bw_bc_bl/Living_Things/Marine_creatures/lobster_9.jpg
p169
sg21
F0.81198647269047797
sS'trials.thisTrialN'
p170
I7
sa(dp171
g31
g32
sg17
F37.955111816059798
sg24
I0
sg35
g39
sg14
F37.950401360867545
sg16
g36
(g70
S'\x02\x00\x00\x00'
tRp172
sg42
g43
sg46
g47
sg15
g72
sg22
F40.887436745688319
sg64
g114
sg62
g102
sg49
g50
sS'trials.thisN'
p173
I8
sg19
I1
sg27
g36
(g38
S'\x00\x00\x00\x00\x00\x00\x18@'
tRp174
sg52
g53
sg23
S'3'
sg18
F39.233094814233482
sg33
g34
sg51
g11
sg20
S'2'
sg65
g36
(g77
S'\x00\x00\x00\x00\x00\x00\x00\x00'
tRp175
sg44
g45
sg40
g41
sg25
F0.2006568405777216
sS'trials.thisIndex'
p176
g36
(g80
S')\x00\x00\x00'
tRp177
sg26
V5
sS'trials.thisRepN'
p178
I0
sg66
Vhouse
p179
sg63
V../experiment_stimuli/bw_bc_bl/Nonliving_Things/Buildings/house_3.jpg
p180
sg21
F1.6337811092380434
sS'trials.thisTrialN'
p181
I8
sa(dp182
g31
g32
sg17
F42.825816492317244
sg24
I0
sg35
g39
sg14
F42.820993734523654
sg16
g36
(g70
S'\x02\x00\x00\x00'
tRp183
sg42
g43
sg46
g47
sg15
g72
sg22
F44.705571909900755
sg64
g150
sg62
g102
sg49
g50
sS'trials.thisN'
p184
I9
sg19
I1
sg27
g36
(g38
S'\x00\x00\x00\x00\x00\x00\x18@'
tRp185
sg52
g53
sg23
S'3'
sg18
F44.083634993759915
sg33
g34
sg51
g11
sg20
S'2'
sg65
g36
(g77
S'\x00\x00\x00\x00\x00\x00\x00\x00'
tRp186
sg44
g45
sg40
g41
sg25
F0.15055241924710572
sS'trials.thisIndex'
p187
g36
(g80
S'Q\x00\x00\x00'
tRp188
sg26
V5
sS'trials.thisRepN'
p189
I0
sg66
Vtable
p190
sg63
V../experiment_stimuli/bw_bc_bl/Nonliving_Things/Furniture/table_17.jpg
p191
sg21
F0.60137589857913554
sS'trials.thisTrialN'
p192
I9
sa(dp193
g31
g32
sg17
F46.594117475906387
sg24
I1
sg35
g39
sg14
F46.589181215967983
sg16
g36
(g70
S'\x02\x00\x00\x00'
tRp194
sg42
g43
sg46
g47
sg15
g72
sg22
F48.263461316470057
sg64
VVehicles
p195
sg62
g102
sg49
g50
sS'trials.thisN'
p196
I10
sg19
I0
sg27
g36
(g38
S'\x00\x00\x00\x00\x00\x00\x18@'
tRp197
sg52
g53
sg23
S'1'
sg18
F47.821763386484236
sg33
g34
sg51
g11
sg20
S'1'
sg65
g36
(g77
S'\x00\x00\x00\x00\x00\x00\x00\x00'
tRp198
sg44
g45
sg40
g41
sg25
F0.23074379656463861
sS'trials.thisIndex'
p199
g36
(g80
S'@\x00\x00\x00'
tRp200
sg26
V5
sS'trials.thisRepN'
p201
I0
sg66
Vplane
p202
sg63
V../experiment_stimuli/bw_bc_bl/Nonliving_Things/Vehicles/plane_16.jpg
p203
sg21
F0.42114337859675288
sS'trials.thisTrialN'
p204
I10
sa(dp205
g31
g32
sg17
F50.2325586497318
sg24
I1
sg35
g39
sg14
F50.227092487504706
sg16
g36
(g70
S'\x02\x00\x00\x00'
tRp206
sg42
g43
sg46
g47
sg15
g72
sg22
F51.841234021121636
sg64
g114
sg62
g102
sg49
g50
sS'trials.thisN'
p207
I11
sg19
I0
sg27
g36
(g38
S'\x00\x00\x00\x00\x00\x00\x18@'
tRp208
sg52
g53
sg23
S'1'
sg18
F51.469695432344452
sg33
g34
sg51
g11
sg20
S'1'
sg65
g36
(g77
S'\x00\x00\x00\x00\x00\x00\x00\x00'
tRp209
sg44
g45
sg40
g41
sg25
F0.2506135837174952
sS'trials.thisIndex'
p210
g36
(g80
S'\x1c\x00\x00\x00'
tRp211
sg26
V5
sS'trials.thisRepN'
p212
I0
sg66
Vfactory
p213
sg63
V../experiment_stimuli/bw_bc_bl/Nonliving_Things/Buildings/factory_8.jpg
p214
sg21
F0.35099466098472476
sS'trials.thisTrialN'
p215
I11
sa(dp216
g31
g32
sg17
F53.830425682943314
sg24
I1
sg35
g39
sg14
F53.824910265859216
sg16
g36
(g70
S'\x01\x00\x00\x00'
tRp217
sg42
g43
sg46
g47
sg15
g72
sg22
F55.479149886639789
sg64
g88
sg62
g74
sg49
g50
sS'trials.thisN'
p218
I12
sg19
I1
sg27
g36
(g38
S'\x00\x00\x00\x00\x00\x00\x18@'
tRp219
sg52
g53
sg23
S'1'
sg18
F55.097581531619653
sg33
g34
sg51
g11
sg20
S'1'
sg65
g36
(g77
S'\x00\x00\x00\x00\x00\x00\x00\x00'
tRp220
sg44
g45
sg40
g41
sg25
F2.0446736495941877
sS'trials.thisIndex'
p221
g36
(g80
S'-\x00\x00\x00'
tRp222
sg26
V5
sS'trials.thisRepN'
p223
I0
sg66
Vladybird
p224
sg63
V../experiment_stimuli/bw_bc_bl/Living_Things/Insects/ladybird_11.jpg
p225
sg21
F0.36100819823332131
sS'trials.thisTrialN'
p226
I12
sa(dp227
g31
g32
sg17
F59.261440079193562
sg24
I0
sg35
g39
sg14
F59.256722286110744
sg16
g36
(g70
S'\x01\x00\x00\x00'
tRp228
sg42
g43
sg46
g47
sg15
g100
sg22
F61.462169151986018
sg64
g150
sg62
g102
sg49
g50
sS'trials.thisN'
p229
I13
sg19
I1
sg27
g36
(g38
S'\x00\x00\x00\x00\x00\x00\x1a@'
tRp230
sg52
g53
sg23
S'3'
sg18
F60.549433881416917
sg33
g34
sg51
g11
sg20
S'1'
sg65
g36
(g77
S'\x00\x00\x00\x00\x00\x00\x00\x00'
tRp231
sg44
g45
sg40
g41
sg25
F0.060347519116476178
sS'trials.thisIndex'
p232
g36
(g80
S'\x02\x00\x00\x00'
tRp233
sg26
V5
sS'trials.thisRepN'
p234
I0
sg66
Varmchair
p235
sg63
V../experiment_stimuli/bw_bc_bl/Nonliving_Things/Furniture/armchair_16.jpg
p236
sg21
F0.89217383181676269
sS'trials.thisTrialN'
p237
I13
sa(dp238
g31
g32
sg17
F63.260919842170551
sg24
I0
sg35
g39
sg14
F63.255420221714303
sg16
g36
(g70
S'\x02\x00\x00\x00'
tRp239
sg42
g43
sg46
g47
sg15
g72
sg22
F64.979783180402592
sg64
g195
sg62
g102
sg49
g50
sS'trials.thisN'
p240
I14
sg19
I1
sg27
g36
(g38
S'\x00\x00\x00\x00\x00\x00\x18@'
tRp241
sg52
g53
sg23
S'3'
sg18
F64.528078454080969
sg33
g34
sg51
g11
sg20
S'2'
sg65
g36
(g77
S'\x00\x00\x00\x00\x00\x00\x00\x00'
tRp242
sg44
g45
sg40
g41
sg25
F0.14054500963538885
sS'trials.thisIndex'
p243
g36
(g80
S'W\x00\x00\x00'
tRp244
sg26
V5
sS'trials.thisRepN'
p245
I0
sg66
Vtrain
p246
sg63
V../experiment_stimuli/bw_bc_bl/Nonliving_Things/Vehicles/train_16.jpg
p247
sg21
F0.43116081017069519
sS'trials.thisTrialN'
p248
I14
sa(dp249
g31
g32
sg17
F66.858167478116229
sg24
I1
sg35
g39
sg14
F66.853247593622655
sg16
g36
(g70
S'\x01\x00\x00\x00'
tRp250
sg42
g43
sg46
g47
sg15
g72
sg22
F68.196836554445326
sg64
VBirds
p251
sg62
g74
sg49
g50
sS'trials.thisN'
p252
I15
sg19
I0
sg27
g36
(g38
S'\x00\x00\x00\x00\x00\x00\x1a@'
tRp253
sg52
g53
sg23
S'1'
sg18
F68.095834113890305
sg33
g34
sg51
g11
sg20
S'2'
sg65
g36
(g77
S'\x00\x00\x00\x00\x00\x00\x00\x00'
tRp254
sg44
g45
sg40
g41
sg25
F0.09044061042368412
sS'trials.thisIndex'
p255
g36
(g80
S'\x1a\x00\x00\x00'
tRp256
sg26
V5
sS'trials.thisRepN'
p257
I0
sg66
Vduck
p258
sg63
V../experiment_stimuli/bw_bc_bl/Living_Things/Birds/duck_20.jpg
p259
sg21
F0.080432960763573647
sS'trials.thisTrialN'
p260
I15
sa(dp261
g31
g32
sg17
F70.024848637636751
sg24
I0
sg35
g39
sg14
F70.020121168112382
sg16
g36
(g70
S'\x02\x00\x00\x00'
tRp262
sg42
g43
sg46
g47
sg15
g72
sg22
F72.055180432507768
sg64
g101
sg62
g102
sg49
g50
sS'trials.thisN'
p263
I16
sg19
I1
sg27
g36
(g38
S'\x00\x00\x00\x00\x00\x00\x18@'
tRp264
sg52
g53
sg23
S'2'
sg18
F71.282763133756816
sg33
g34
sg51
g11
sg20
S'2'
sg65
g36
(g77
S'\x00\x00\x00\x00\x00\x00\x00\x00'
tRp265
sg44
g45
sg40
g41
sg25
F0.20068977982737124
sS'trials.thisIndex'
p266
g36
(g80
S'\x1f\x00\x00\x00'
tRp267
sg26
V5
sS'trials.thisRepN'
p268
I0
sg66
Vfrying-pan
p269
sg63
V../experiment_stimuli/bw_bc_bl/Nonliving_Things/Kitchen_Uten/frying-pan_1.jpg
p270
sg21
F0.7518605669029057
sS'trials.thisTrialN'
p271
I16
sa(dp272
g31
g32
sg17
F73.994403543416411
sg24
I0
sg35
g39
sg14
F73.988797225290909
sg16
g36
(g70
S'\x01\x00\x00\x00'
tRp273
sg42
g43
sg46
g47
sg15
g100
sg22
F75.73320439318195
sg64
g150
sg62
g102
sg49
g50
sS'trials.thisN'
p274
I17
sg19
I1
sg27
g36
(g38
S'\x00\x00\x00\x00\x00\x00\x1c@'
tRp275
sg52
g53
sg23
S'2'
sg18
F75.241372545715421
sg33
g34
sg51
g11
sg20
S'1'
sg65
g36
(g77
S'\x00\x00\x00\x00\x00\x00\x00\x00'
tRp276
sg44
g45
sg40
g41
sg25
F0.10046054283156991
sS'trials.thisIndex'
p277
g36
(g80
S'\x08\x00\x00\x00'
tRp278
sg26
V5
sS'trials.thisRepN'
p279
I0
sg66
Vbookcase
p280
sg63
V../experiment_stimuli/bw_bc_bl/Nonliving_Things/Furniture/bookcase_15.jpg
p281
sg21
F0.47127183363772929
sS'trials.thisTrialN'
p282
I17
sa(dp283
g31
g32
sg17
F77.572096414165571
sg24
I1
sg35
g39
sg14
F77.566530640935525
sg16
g36
(g70
S'\x01\x00\x00\x00'
tRp284
sg42
g43
sg46
g47
sg15
g72
sg22
F79.461317786481231
sg64
g251
sg62
g74
sg49
g50
sS'trials.thisN'
p285
I18
sg19
I1
sg27
g36
(g38
S'\x00\x00\x00\x00\x00\x00\x1a@'
tRp286
sg52
g53
sg23
S'1'
sg18
F78.809128675609827
sg33
g34
sg51
g11
sg20
S'1'
sg65
g36
(g77
S'\x00\x00\x00\x00\x00\x00\x00\x00'
tRp287
sg44
g45
sg40
g41
sg25
F0.16056890739127994
sS'trials.thisIndex'
p288
g36
(g80
S'C\x00\x00\x00'
tRp289
sg26
V5
sS'trials.thisRepN'
p290
I0
sg66
Vraven
p291
sg63
V../experiment_stimuli/bw_bc_bl/Living_Things/Birds/raven_11.jpg
p292
sg21
F0.63163022487424314
sS'trials.thisTrialN'
p293
I18
sa(dp294
g31
g32
sg17
F81.359661715803668
sg24
I0
sg35
g39
sg14
F81.35476286127232
sg16
g36
(g70
S'\x01\x00\x00\x00'
tRp295
sg42
g43
sg46
g47
sg15
g100
sg22
F83.309650044888258
sg64
g101
sg62
g102
sg49
g50
sS'trials.thisN'
p296
I19
sg19
I1
sg27
g36
(g38
S'\x00\x00\x00\x00\x00\x00\x18@'
tRp297
sg52
g53
sg23
S'2'
sg18
F82.617404545191675
sg33
g34
sg51
g11
sg20
S'1'
sg65
g36
(g77
S'\x00\x00\x00\x00\x00\x00\x00\x00'
tRp298
sg44
g45
sg40
g41
sg25
F0.14052764163352549
sS'trials.thisIndex'
p299
g36
(g80
S'B\x00\x00\x00'
tRp300
sg26
V5
sS'trials.thisRepN'
p301
I0
sg66
Vpot
p302
sg63
V../experiment_stimuli/bw_bc_bl/Nonliving_Things/Kitchen_Uten/pot_23.jpg
p303
sg21
F0.67168783559463918
sS'trials.thisTrialN'
p304
I19
sa(dp305
g31
g32
sg17
F85.188021286390722
sg24
I0
sg35
g39
sg14
F85.183084623888135
sg16
g36
(g70
S'\x02\x00\x00\x00'
tRp306
sg42
g43
sg46
g47
sg15
g72
sg22
F87.338436316465959
sg64
g114
sg62
g102
sg49
g50
sS'trials.thisN'
p307
I20
sg19
I1
sg27
g36
(g38
S'\x00\x00\x00\x00\x00\x00\x1a@'
tRp308
sg52
g53
sg23
S'2'
sg18
F86.435702511575073
sg33
g34
sg51
g11
sg20
S'2'
sg65
g36
(g77
S'\x00\x00\x00\x00\x00\x00\x00\x00'
tRp309
sg44
g45
sg40
g41
sg25
F1.0424883973319083
sS'trials.thisIndex'
p310
g36
(g80
S'\x0e\x00\x00\x00'
tRp311
sg26
V5
sS'trials.thisRepN'
p312
I0
sg66
Vcathedral
p313
sg63
V../experiment_stimuli/bw_bc_bl/Nonliving_Things/Buildings/cathedral_3.jpg
p314
sg21
F0.88216239982284606
sS'trials.thisTrialN'
p315
I20
sa(dp316
g31
g32
sg17
F90.118604657938704
sg24
I1
sg35
g39
sg14
F90.113819181220606
sg16
g36
(g70
S'\x01\x00\x00\x00'
tRp317
sg42
g43
sg46
g47
sg15
g72
sg22
F91.778073072433472
sg64
g88
sg62
g74
sg49
g50
sS'trials.thisN'
p318
I21
sg19
I0
sg27
g36
(g38
S'\x00\x00\x00\x00\x00\x00\x18@'
tRp319
sg52
g53
sg23
S'1'
sg18
F91.356407156446949
sg33
g34
sg51
g11
sg20
S'2'
sg65
g36
(g77
S'\x00\x00\x00\x00\x00\x00\x00\x00'
tRp320
sg44
g45
sg40
g41
sg25
F0.14054284431040287
sS'trials.thisIndex'
p321
g36
(g80
S'\n\x00\x00\x00'
tRp322
sg26
V5
sS'trials.thisRepN'
p323
I0
sg66
Vbutterfly
p324
sg63
V../experiment_stimuli/bw_bc_bl/Living_Things/Insects/butterfly_14.jpg
p325
sg21
F0.40109946625307202
sS'trials.thisTrialN'
p326
I21
sa(dp327
g31
g32
sg17
F93.657075067982078
sg24
I0
sg35
g39
sg14
F93.65149004291743
sg16
g36
(g70
S'\x01\x00\x00\x00'
tRp328
sg42
g43
sg46
g47
sg15
g100
sg22
F95.666509440401569
sg64
g150
sg62
g102
sg49
g50
sS'trials.thisN'
p329
I22
sg19
I1
sg27
g36
(g38
S'\x00\x00\x00\x00\x00\x00\x18@'
tRp330
sg52
g53
sg23
S'2'
sg18
F94.924161199713126
sg33
g34
sg51
g11
sg20
S'1'
sg65
g36
(g77
S'\x00\x00\x00\x00\x00\x00\x00\x00'
tRp331
sg44
g45
sg40
g41
sg25
F0.12048365804366767
sS'trials.thisIndex'
p332
g36
(g80
S'\x13\x00\x00\x00'
tRp333
sg26
V5
sS'trials.thisRepN'
p334
I0
sg66
Vcouch
p335
sg63
V../experiment_stimuli/bw_bc_bl/Nonliving_Things/Furniture/couch_2.jpg
p336
sg21
F0.72179536218754947
sS'trials.thisTrialN'
p337
I22
sa(dp338
g31
g32
sg17
F97.524810307659209
sg24
I0
sg35
g39
sg14
F97.519900194136426
sg16
g36
(g70
S'\x01\x00\x00\x00'
tRp339
sg42
g43
sg46
g47
sg15
g72
sg22
F99.484834327595308
sg64
g73
sg62
g74
sg49
g50
sS'trials.thisN'
p340
I23
sg19
I1
sg27
g36
(g38
S'\x00\x00\x00\x00\x00\x00\x18@'
tRp341
sg52
g53
sg23
S'3'
sg18
F98.782547870418057
sg33
g34
sg51
g11
sg20
S'1'
sg65
g36
(g77
S'\x00\x00\x00\x00\x00\x00\x00\x00'
tRp342
sg44
g45
sg40
g41
sg25
F0.10044747870415449
sS'trials.thisIndex'
p343
g36
(g80
S'7\x00\x00\x00'
tRp344
sg26
V5
sS'trials.thisRepN'
p345
I0
sg66
Vnarwhal
p346
sg63
V../experiment_stimuli/bw_bc_bl/Living_Things/Marine_creatures/narwhal_18.jpg
p347
sg21
F0.68172770272940397
sS'trials.thisTrialN'
p348
I23
sa(dp349
g31
g32
sg17
F101.32306953123771
sg24
I0
sg35
g39
sg14
F101.31816066941246
sg16
g36
(g70
S'\x02\x00\x00\x00'
tRp350
sg42
g43
sg46
g47
sg15
g100
sg22
F103.2630261243321
sg64
g73
sg62
g74
sg49
g50
sS'trials.thisN'
p351
I24
sg19
I1
sg27
g36
(g38
S'\x00\x00\x00\x00\x00\x00\x1a@'
tRp352
sg52
g53
sg23
S'2'
sg18
F102.56076173810288
sg33
g34
sg51
g11
sg20
S'2'
sg65
g36
(g77
S'\x00\x00\x00\x00\x00\x00\x00\x00'
tRp353
sg44
g45
sg40
g41
sg25
F0.21068531344644725
sS'trials.thisIndex'
p354
g36
(g80
S'4\x00\x00\x00'
tRp355
sg26
V5
sS'trials.thisRepN'
p356
I0
sg66
Vmanatee
p357
sg63
V../experiment_stimuli/bw_bc_bl/Living_Things/Marine_creatures/manatee_8.jpg
p358
sg21
F0.68171133450232446
sS'trials.thisTrialN'
p359
I24
sa(dp360
g31
g32
sg17
F105.21239789784886
sg24
I1
sg35
g39
sg14
F105.20666628843173
sg16
g36
(g70
S'\x01\x00\x00\x00'
tRp361
sg42
g43
sg46
g47
sg15
g100
sg22
F106.85099180298857
sg64
g114
sg62
g102
sg49
g50
sS'trials.thisN'
p362
I25
sg19
I1
sg27
g36
(g38
S'\x00\x00\x00\x00\x00\x00\x18@'
tRp363
sg52
g53
sg23
S'1'
sg18
F106.43918939982541
sg33
g34
sg51
g11
sg20
S'1'
sg65
g36
(g77
S'\x00\x00\x00\x00\x00\x00\x00\x00'
tRp364
sg44
g45
sg40
g41
sg25
F0.25076413038186729
sS'trials.thisIndex'
p365
g36
(g80
S':\x00\x00\x00'
tRp366
sg26
V5
sS'trials.thisRepN'
p367
I0
sg66
Vpalace
p368
sg63
V../experiment_stimuli/bw_bc_bl/Nonliving_Things/Buildings/palace_20.jpg
p369
sg21
F0.39124578004702926
sS'trials.thisTrialN'
p370
I25
sa(dp371
g31
g32
sg17
F108.83933660876937
sg24
I0
sg35
g39
sg14
F108.83449865574948
sg16
g36
(g70
S'\x02\x00\x00\x00'
tRp372
sg42
g43
sg46
g47
sg15
g100
sg22
F110.81958626373671
sg64
g251
sg62
g74
sg49
g50
sS'trials.thisN'
p373
I26
sg19
I1
sg27
g36
(g38
S'\x00\x00\x00\x00\x00\x00\x18@'
tRp374
sg52
g53
sg23
S'2'
sg18
F110.08712314465083
sg33
g34
sg51
g11
sg20
S'2'
sg65
g36
(g77
S'\x00\x00\x00\x00\x00\x00\x00\x00'
tRp375
sg44
g45
sg40
g41
sg25
F1.8943519641179591
sS'trials.thisIndex'
p376
g36
(g80
S'O\x00\x00\x00'
tRp377
sg26
V5
sS'trials.thisRepN'
p378
I0
sg66
Vsparrow
p379
sg63
V../experiment_stimuli/bw_bc_bl/Living_Things/Birds/sparrow_7.jpg
p380
sg21
F0.70189538388513029
sS'trials.thisTrialN'
p381
I26
sa(dp382
g31
g32
sg17
F114.45166171644814
sg24
I0
sg35
g39
sg14
F114.44670981774107
sg16
g36
(g70
S'\x02\x00\x00\x00'
tRp383
sg42
g43
sg46
g47
sg15
g100
sg22
F116.06085709552281
sg64
VAnimals
p384
sg62
g74
sg49
g50
sS'trials.thisN'
p385
I27
sg19
I1
sg27
g36
(g38
S'\x00\x00\x00\x00\x00\x00\x18@'
tRp386
sg52
g53
sg23
S'2'
sg18
F115.68930700328201
sg33
g34
sg51
g11
sg20
S'2'
sg65
g36
(g77
S'\x00\x00\x00\x00\x00\x00\x00\x00'
tRp387
sg44
g45
sg40
g41
sg25
F0.48127046460285783
sS'trials.thisIndex'
p388
g36
(g80
S'(\x00\x00\x00'
tRp389
sg26
V5
sS'trials.thisRepN'
p390
I0
sg66
Vhorse
p391
sg63
V../experiment_stimuli/bw_bc_bl/Living_Things/Animals/horse_0.jpg
p392
sg21
F0.35098731517791748
sS'trials.thisTrialN'
p393
I27
sa(dp394
g31
g32
sg17
F118.27979600452818
sg24
I0
sg35
g39
sg14
F118.27502305456437
sg16
g36
(g70
S'\x02\x00\x00\x00'
tRp395
sg42
g43
sg46
g47
sg15
g100
sg22
F119.60859024897218
sg64
g384
sg62
g74
sg49
g50
sS'trials.thisN'
p396
I28
sg19
I1
sg27
g36
(g38
S'\x00\x00\x00\x00\x00\x00\x18@'
tRp397
sg52
g53
sg23
S'2'
sg18
F119.50760390935466
sg33
g34
sg51
g11
sg20
S'2'
sg65
g36
(g77
S'\x00\x00\x00\x00\x00\x00\x00\x00'
tRp398
sg44
g45
sg40
g41
sg25
F0.20050959824584424
sS'trials.thisIndex'
p399
g36
(g80
S'D\x00\x00\x00'
tRp400
sg26
V5
sS'trials.thisRepN'
p401
I0
sg66
Vrhino
p402
sg63
V../experiment_stimuli/bw_bc_bl/Living_Things/Animals/rhino_5.jpg
p403
sg21
F0.080420972313731909
sS'trials.thisTrialN'
p404
I28
sa(dp405
g31
g32
sg17
F121.54777826974168
sg24
I0
sg35
g39
sg14
F121.54212059918791
sg16
g36
(g70
S'\x02\x00\x00\x00'
tRp406
sg42
g43
sg46
g47
sg15
g72
sg22
F123.26634278544225
sg64
g150
sg62
g102
sg49
g50
sS'trials.thisN'
p407
I29
sg19
I0
sg27
g36
(g38
S'\x00\x00\x00\x00\x00\x00\x1e@'
tRp408
sg52
g53
sg23
S'2'
sg18
F122.77470727753825
sg33
g34
sg51
g11
sg20
S'1'
sg65
g36
(g77
S'\x00\x00\x00\x00\x00\x00\x00\x00'
tRp409
sg44
g45
sg40
g41
sg25
F0.12032969365827739
sS'trials.thisIndex'
p410
g36
(g80
S'/\x00\x00\x00'
tRp411
sg26
V5
sS'trials.thisRepN'
p412
I0
sg66
Vlectern
p413
sg63
V../experiment_stimuli/bw_bc_bl/Nonliving_Things/Furniture/lectern_13.jpg
p414
sg21
F0.47109382855705917
sS'trials.thisTrialN'
p415
I29
sa(dp416
g31
g32
sg17
F125.12466163001955
sg24
I1
sg35
g39
sg14
F125.11989972833544
sg16
g36
(g70
S'\x01\x00\x00\x00'
tRp417
sg42
g43
sg46
g47
sg15
g100
sg22
F126.90442431042902
sg64
g150
sg62
g102
sg49
g50
sS'trials.thisN'
p418
I30
sg19
I1
sg27
g36
(g38
S'\x00\x00\x00\x00\x00\x00\x1e@'
tRp419
sg52
g53
sg23
S'1'
sg18
F126.35248203086667
sg33
g34
sg51
g11
sg20
S'1'
sg65
g36
(g77
S'\x00\x00\x00\x00\x00\x00\x00\x00'
tRp420
sg44
g45
sg40
g41
sg25
F0.16056992951780558
sS'trials.thisIndex'
p421
g36
(g80
S'\x1d\x00\x00\x00'
tRp422
sg26
V5
sS'trials.thisRepN'
p423
I0
sg66
Vfilling-cabinet
p424
sg63
V../experiment_stimuli/bw_bc_bl/Nonliving_Things/Furniture/filling-cabinet_21.jpg
p425
sg21
F0.53138186712749302
sS'trials.thisTrialN'
p426
I30
sa(dp427
g31
g32
sg17
F128.80271718767472
sg24
I0
sg35
g39
sg14
F128.79789712536149
sg16
g36
(g70
S'\x01\x00\x00\x00'
tRp428
sg42
g43
sg46
g47
sg15
g72
sg22
F130.98331689066254
sg64
g384
sg62
g74
sg49
g50
sS'trials.thisN'
p429
I31
sg19
I1
sg27
g36
(g38
S'\x00\x00\x00\x00\x00\x00\x18@'
tRp430
sg52
g53
sg23
S'2'
sg18
F130.06054318533279
sg33
g34
sg51
g11
sg20
S'1'
sg65
g36
(g77
S'\x00\x00\x00\x00\x00\x00\x00\x00'
tRp431
sg44
g45
sg40
g41
sg25
F0.13051449530757964
sS'trials.thisIndex'
p432
g36
(g80
S'_\x00\x00\x00'
tRp433
sg26
V5
sS'trials.thisRepN'
p434
I0
sg66
Vzebra
p435
sg63
V../experiment_stimuli/bw_bc_bl/Living_Things/Animals/zebra_4.jpg
p436
sg21
F0.90220441739074886
sS'trials.thisTrialN'
p437
I31
sa(dp438
g31
g32
sg17
F132.85255380091257
sg24
I1
sg35
g39
sg14
F132.84670302364975
sg16
g36
(g70
S'\x01\x00\x00\x00'
tRp439
sg42
g43
sg46
g47
sg15
g72
sg22
F134.76149974763393
sg64
g384
sg62
g74
sg49
g50
sS'trials.thisN'
p440
I32
sg19
I0
sg27
g36
(g38
S'\x00\x00\x00\x00\x00\x00\x18@'
tRp441
sg52
g53
sg23
S'1'
sg18
F134.09932310669683
sg33
g34
sg51
g11
sg20
S'2'
sg65
g36
(g77
S'\x00\x00\x00\x00\x00\x00\x00\x00'
tRp442
sg44
g45
sg40
g41
sg25
F0.010237165261059999
sS'trials.thisIndex'
p443
g36
(g80
S'\x01\x00\x00\x00'
tRp444
sg26
V5
sS'trials.thisRepN'
p445
I0
sg66
Varmadillo
p446
sg63
V../experiment_stimuli/bw_bc_bl/Living_Things/Animals/armadillo_11.jpg
p447
sg21
F0.6416207468137145
sS'trials.thisTrialN'
p448
I32
sa(dp449
g31
g32
sg17
F136.50948678143322
sg24
I0
sg35
g39
sg14
F136.50465212133713
sg16
g36
(g70
S'\x01\x00\x00\x00'
tRp450
sg42
g43
sg46
g47
sg15
g72
sg22
F139.15103389392607
sg64
g251
sg62
g74
sg49
g50
sS'trials.thisN'
p451
I33
sg19
I1
sg27
g36
(g38
S'\x00\x00\x00\x00\x00\x00\x1a@'
tRp452
sg52
g53
sg23
S'2'
sg18
F137.7773178156931
sg33
g34
sg51
g11
sg20
S'1'
sg65
g36
(g77
S'\x00\x00\x00\x00\x00\x00\x00\x00'
tRp453
sg44
g45
sg40
g41
sg25
F0.010259872069582343
sS'trials.thisIndex'
p454
g36
(g80
S'*\x00\x00\x00'
tRp455
sg26
V5
sS'trials.thisRepN'
p456
I0
sg66
Vhummingbird
p457
sg63
V../experiment_stimuli/bw_bc_bl/Living_Things/Birds/hummingbird_11.jpg
p458
sg21
F1.3531679739244282
sS'trials.thisTrialN'
p459
I33
sa(dp460
g31
g32
sg17
F140.89897778187878
sg24
I0
sg35
g39
sg14
F140.894197948277
sg16
g36
(g70
S'\x02\x00\x00\x00'
tRp461
sg42
g43
sg46
g47
sg15
g72
sg22
F142.9793668447528
sg64
g195
sg62
g102
sg49
g50
sS'trials.thisN'
p462
I34
sg19
I1
sg27
g36
(g38
S'\x00\x00\x00\x00\x00\x00 @'
tRp463
sg52
g53
sg23
S'3'
sg18
F142.15683887270279
sg33
g34
sg51
g11
sg20
S'2'
sg65
g36
(g77
S'\x00\x00\x00\x00\x00\x00\x00\x00'
tRp464
sg44
g45
sg40
g41
sg25
F0.11030460824258626
sS'trials.thisIndex'
p465
g36
(g80
S'\t\x00\x00\x00'
tRp466
sg26
V5
sS'trials.thisRepN'
p467
I0
sg66
Vbus
p468
sg63
V../experiment_stimuli/bw_bc_bl/Nonliving_Things/Vehicles/bus_17.jpg
p469
sg21
F0.80197619134560227
sS'trials.thisTrialN'
p470
I34
sa(dp471
g31
g32
sg17
F144.82863628864288
sg24
I1
sg35
g39
sg14
F144.82273396383971
sg16
g36
(g70
S'\x02\x00\x00\x00'
tRp472
sg42
g43
sg46
g47
sg15
g72
sg22
F146.58721096813679
sg64
g195
sg62
g102
sg49
g50
sS'trials.thisN'
p473
I35
sg19
I0
sg27
g36
(g38
S'\x00\x00\x00\x00\x00\x00\x18@'
tRp474
sg52
g53
sg23
S'1'
sg18
F146.0653454719577
sg33
g34
sg51
g11
sg20
S'1'
sg65
g36
(g77
S'\x00\x00\x00\x00\x00\x00\x00\x00'
tRp475
sg44
g45
sg40
g41
sg25
F0.25075716804713011
sS'trials.thisIndex'
p476
g36
(g80
S'L\x00\x00\x00'
tRp477
sg26
V5
sS'trials.thisRepN'
p478
I0
sg66
Vship
p479
sg63
V../experiment_stimuli/bw_bc_bl/Nonliving_Things/Vehicles/ship_14.jpg
p480
sg21
F0.50131989945657551
sS'trials.thisTrialN'
p481
I35
sa(dp482
g31
g32
sg17
F148.57584709301591
sg24
I0
sg35
g39
sg14
F148.57088376185857
sg16
g36
(g70
S'\x01\x00\x00\x00'
tRp483
sg42
g43
sg46
g47
sg15
g72
sg22
F150.4155179944355
sg64
g251
sg62
g74
sg49
g50
sS'trials.thisN'
p484
I36
sg19
I1
sg27
g36
(g38
S'\x00\x00\x00\x00\x00\x00\x1a@'
tRp485
sg52
g53
sg23
S'2'
sg18
F149.83352780668065
sg33
g34
sg51
g11
sg20
S'1'
sg65
g36
(g77
S'\x00\x00\x00\x00\x00\x00\x00\x00'
tRp486
sg44
g45
sg40
g41
sg25
F0.11045609088614583
sS'trials.thisIndex'
p487
g36
(g80
S'&\x00\x00\x00'
tRp488
sg26
V5
sS'trials.thisRepN'
p489
I0
sg66
Vhen
p490
sg63
V../experiment_stimuli/bw_bc_bl/Living_Things/Birds/hen_19.jpg
p491
sg21
F0.56144551560282707
sS'trials.thisTrialN'
p492
I36
sa(dp493
g31
g32
sg17
F152.26483531738631
sg24
I0
sg35
g39
sg14
F152.25889748916961
sg16
g36
(g70
S'\x01\x00\x00\x00'
tRp494
sg42
g43
sg46
g47
sg15
g72
sg22
F153.98331219493411
sg64
g384
sg62
g74
sg49
g50
sS'trials.thisN'
p495
I37
sg19
I1
sg27
g36
(g38
S'\x00\x00\x00\x00\x00\x00\x18@'
tRp496
sg52
g53
sg23
S'2'
sg18
F153.51152413222007
sg33
g34
sg51
g11
sg20
S'1'
sg65
g36
(g77
S'\x00\x00\x00\x00\x00\x00\x00\x00'
tRp497
sg44
g45
sg40
g41
sg25
F0.090263549471274018
sS'trials.thisIndex'
p498
g36
(g80
S'2\x00\x00\x00'
tRp499
sg26
V5
sS'trials.thisRepN'
p500
I0
sg66
Vlynx
p501
sg63
V../experiment_stimuli/bw_bc_bl/Living_Things/Animals/lynx_12.jpg
p502
sg21
F0.4512083048466593
sS'trials.thisTrialN'
p503
I37
sa(dp504
g31
g32
sg17
F155.81365654943511
sg24
I0
sg35
g39
sg14
F155.80661775567569
sg16
g36
(g70
S'\x02\x00\x00\x00'
tRp505
sg42
g43
sg46
g47
sg15
g100
sg22
F157.65127603663132
sg64
g384
sg62
g74
sg49
g50
sS'trials.thisN'
p506
I38
sg19
I1
sg27
g36
(g38
S'\x00\x00\x00\x00\x00\x00\x18@'
tRp507
sg52
g53
sg23
S'2'
sg18
F157.04921957221813
sg33
g34
sg51
g11
sg20
S'2'
sg65
g36
(g77
S'\x00\x00\x00\x00\x00\x00\x00\x00'
tRp508
sg44
g45
sg40
g41
sg25
F0.42113997205160558
sS'trials.thisIndex'
p509
g36
(g80
S'\x10\x00\x00\x00'
tRp510
sg26
V5
sS'trials.thisRepN'
p511
I0
sg66
Vcheetah
p512
sg63
V../experiment_stimuli/bw_bc_bl/Living_Things/Animals/cheetah_3.jpg
p513
sg21
F0.58149158931337297
sS'trials.thisTrialN'
p514
I38
sa(dp515
g31
g32
sg17
F159.81029980024323
sg24
I0
sg35
g39
sg14
F159.80531564960256
sg16
g36
(g70
S'\x02\x00\x00\x00'
tRp516
sg42
g43
sg46
g47
sg15
g100
sg22
F161.63994273985736
sg64
g251
sg62
g74
sg49
g50
sS'trials.thisN'
p517
I39
sg19
I1
sg27
g36
(g38
S'\x00\x00\x00\x00\x00\x00\x18@'
tRp518
sg52
g53
sg23
S'2'
sg18
F161.03788565145805
sg33
g34
sg51
g11
sg20
S'2'
sg65
g36
(g77
S'\x00\x00\x00\x00\x00\x00\x00\x00'
tRp519
sg44
g45
sg40
g41
sg25
F0.23056598729453981
sS'trials.thisIndex'
p520
g36
(g80
S'3\x00\x00\x00'
tRp521
sg26
V5
sS'trials.thisRepN'
p522
I0
sg66
Vmagpie
p523
sg63
V../experiment_stimuli/bw_bc_bl/Living_Things/Birds/magpie_8.jpg
p524
sg21
F0.58149221353232861
sS'trials.thisTrialN'
p525
I39
sa(dp526
g31
g32
sg17
F163.60836322559044
sg24
I0
sg35
g39
sg14
F163.60356764029711
sg16
g36
(g70
S'\x01\x00\x00\x00'
tRp527
sg42
g43
sg46
g47
sg15
g72
sg22
F165.67873386433348
sg64
g73
sg62
g74
sg49
g50
sS'trials.thisN'
p528
I40
sg19
I1
sg27
g36
(g38
S'\x00\x00\x00\x00\x00\x00\x18@'
tRp529
sg52
g53
sg23
S'2'
sg18
F164.83614322100766
sg33
g34
sg51
g11
sg20
S'1'
sg65
g36
(g77
S'\x00\x00\x00\x00\x00\x00\x00\x00'
tRp530
sg44
g45
sg40
g41
sg25
F0.17061600415036082
sS'trials.thisIndex'
p531
g36
(g80
S'+\x00\x00\x00'
tRp532
sg26
V5
sS'trials.thisRepN'
p533
I0
sg66
Vkiller-whale
p534
sg63
V../experiment_stimuli/bw_bc_bl/Living_Things/Marine_creatures/killer-whale_2.jpg
p535
sg21
F0.82203137781471014
sS'trials.thisTrialN'
p536
I40
sa(dp537
g31
g32
sg17
F167.58718068269081
sg24
I1
sg35
g39
sg14
F167.58222003956325
sg16
g36
(g70
S'\x01\x00\x00\x00'
tRp538
sg42
g43
sg46
g47
sg15
g100
sg22
F169.05607628147118
sg64
g150
sg62
g102
sg49
g50
sS'trials.thisN'
p539
I41
sg19
I0
sg27
g36
(g38
S'\x00\x00\x00\x00\x00\x00\x18@'
tRp540
sg52
g53
sg23
S'1'
sg18
F168.81480606365949
sg33
g34
sg51
g11
sg20
S'2'
sg65
g36
(g77
S'\x00\x00\x00\x00\x00\x00\x00\x00'
tRp541
sg44
g45
sg40
g41
sg25
F0.12050256738439202
sS'trials.thisIndex'
p542
g36
(g80
S'\x0f\x00\x00\x00'
tRp543
sg26
V5
sS'trials.thisRepN'
p544
I0
sg66
Vchair
p545
sg63
V../experiment_stimuli/bw_bc_bl/Nonliving_Things/Furniture/chair_22.jpg
p546
sg21
F0.22071035439148545
sS'trials.thisTrialN'
p547
I41
sa(dp548
g31
g32
sg17
F170.91429813858122
sg24
I1
sg35
g39
sg14
F170.90946406149305
sg16
g36
(g70
S'\x02\x00\x00\x00'
tRp549
sg42
g43
sg46
g47
sg15
g72
sg22
F172.30311658349819
sg64
g101
sg62
g102
sg49
g50
sS'trials.thisN'
p550
I42
sg19
I0
sg27
g36
(g38
S'\x00\x00\x00\x00\x00\x00\x1e@'
tRp551
sg52
g53
sg23
S'1'
sg18
F172.16206845664419
sg33
g34
sg51
g11
sg20
S'1'
sg65
g36
(g77
S'\x00\x00\x00\x00\x00\x00\x00\x00'
tRp552
sg44
g45
sg40
g41
sg25
F0.25076541234739125
sS'trials.thisIndex'
p553
g36
(g80
S'\x12\x00\x00\x00'
tRp554
sg26
V5
sS'trials.thisRepN'
p555
I0
sg66
Vcoking-pot
p556
sg63
V../experiment_stimuli/bw_bc_bl/Nonliving_Things/Kitchen_Uten/coking-pot_24.jpg
p557
sg21
F0.12048868788406253
sS'trials.thisTrialN'
p558
I42
sa(dp559
g31
g32
sg17
F174.29171356209554
sg24
I0
sg35
g39
sg14
F174.28679314418696
sg16
g36
(g70
S'\x02\x00\x00\x00'
tRp560
sg42
g43
sg46
g47
sg15
g72
sg22
F176.10137805878185
sg64
g150
sg62
g102
sg49
g50
sS'trials.thisN'
p561
I43
sg19
I0
sg27
g36
(g38
S'\x00\x00\x00\x00\x00\x00\x18@'
tRp562
sg52
g53
sg23
S'3'
sg18
F175.55946061294526
sg33
g34
sg51
g11
sg20
S'1'
sg65
g36
(g77
S'\x00\x00\x00\x00\x00\x00\x00\x00'
tRp563
sg44
g45
sg40
g41
sg25
F0.11047107214108109
sS'trials.thisIndex'
p564
g36
(g80
S'\x05\x00\x00\x00'
tRp565
sg26
V5
sS'trials.thisRepN'
p566
I0
sg66
Vbed
p567
sg63
V../experiment_stimuli/bw_bc_bl/Nonliving_Things/Furniture/bed_3.jpg
p568
sg21
F0.52136072865687311
sS'trials.thisTrialN'
p569
I43
sa(dp570
g31
g32
sg17
F177.94971533562057
sg24
I0
sg35
g39
sg14
F177.94475247827359
sg16
g36
(g70
S'\x01\x00\x00\x00'
tRp571
sg42
g43
sg46
g47
sg15
g100
sg22
F180.28030558605678
sg64
g126
sg62
g102
sg49
g50
sS'trials.thisN'
p572
I44
sg19
I1
sg27
g36
(g38
S'\x00\x00\x00\x00\x00\x00\x18@'
tRp573
sg52
g53
sg23
S'3'
sg18
F179.18734881398268
sg33
g34
sg51
g11
sg20
S'1'
sg65
g36
(g77
S'\x00\x00\x00\x00\x00\x00\x00\x00'
tRp574
sg44
g45
sg40
g41
sg25
F0.12033703597262502
sS'trials.thisIndex'
p575
g36
(g80
S'Y\x00\x00\x00'
tRp576
sg26
V5
sS'trials.thisRepN'
p577
I0
sg66
Vtuba
p578
sg63
V../experiment_stimuli/bw_bc_bl/Nonliving_Things/Musical_Inst/tuba_14.jpg
p579
sg21
F1.0723994460422546
sS'trials.thisTrialN'
p580
I44
sa(dp581
g31
g32
sg17
F182.1386461481452
sg24
I0
sg35
g39
sg14
F182.13384694280103
sg16
g36
(g70
S'\x02\x00\x00\x00'
tRp582
sg42
g43
sg46
g47
sg15
g100
sg22
F183.99858167674392
sg64
g73
sg62
g74
sg49
g50
sS'trials.thisN'
p583
I45
sg19
I0
sg27
g36
(g38
S'\x00\x00\x00\x00\x00\x00\x1a@'
tRp584
sg52
g53
sg23
S'2'
sg18
F183.36643032403663
sg33
g34
sg51
g11
sg20
S'1'
sg65
g36
(g77
S'\x00\x00\x00\x00\x00\x00\x00\x00'
tRp585
sg44
g45
sg40
g41
sg25
F0.10044629080221057
sS'trials.thisIndex'
p586
g36
(g80
S'K\x00\x00\x00'
tRp587
sg26
V5
sS'trials.thisRepN'
p588
I0
sg66
Vshark
p589
sg63
V../experiment_stimuli/bw_bc_bl/Living_Things/Marine_creatures/shark_26.jpg
p590
sg21
F0.61158697796054184
sS'trials.thisTrialN'
p591
I45
sa(dp592
g31
g32
sg17
F185.8377465850208
sg24
I1
sg35
g39
sg14
F185.83189121424221
sg16
g36
(g70
S'\x01\x00\x00\x00'
tRp593
sg42
g43
sg46
g47
sg15
g72
sg22
F187.46610496030189
sg64
g73
sg62
g74
sg49
g50
sS'trials.thisN'
p594
I46
sg19
I0
sg27
g36
(g38
S'\x00\x00\x00\x00\x00\x00\x1a@'
tRp595
sg52
g53
sg23
S'1'
sg18
F187.0644661069382
sg33
g34
sg51
g11
sg20
S'2'
sg65
g36
(g77
S'\x00\x00\x00\x00\x00\x00\x00\x00'
tRp596
sg44
g45
sg40
g41
sg25
F0.070381875615566969
sS'trials.thisIndex'
p597
g36
(g80
S'P\x00\x00\x00'
tRp598
sg26
V5
sS'trials.thisRepN'
p599
I0
sg66
Vsperm-whale
p600
sg63
V../experiment_stimuli/bw_bc_bl/Living_Things/Marine_creatures/sperm-whale_11.jpg
p601
sg21
F0.38106659147888422
sS'trials.thisTrialN'
p602
I46
sa(dp603
g31
g32
sg17
F189.27534768055193
sg24
I0
sg35
g39
sg14
F189.26936619100161
sg16
g36
(g70
S'\x02\x00\x00\x00'
tRp604
sg42
g43
sg46
g47
sg15
g72
sg22
F191.07394979777746
sg64
g101
sg62
g102
sg49
g50
sS'trials.thisN'
p605
I47
sg19
I1
sg27
g36
(g38
S'\x00\x00\x00\x00\x00\x00 @'
tRp606
sg52
g53
sg23
S'3'
sg18
F190.53200692008249
sg33
g34
sg51
g11
sg20
S'2'
sg65
g36
(g77
S'\x00\x00\x00\x00\x00\x00\x00\x00'
tRp607
sg44
g45
sg40
g41
sg25
F0.12048639473505318
sS'trials.thisIndex'
p608
g36
(g80
S'M\x00\x00\x00'
tRp609
sg26
V5
sS'trials.thisRepN'
p610
I0
sg66
Vsmall-saucepan
p611
sg63
V../experiment_stimuli/bw_bc_bl/Nonliving_Things/Kitchen_Uten/small-saucepan_18.jpg
p612
sg21
F0.52136152191087604
sS'trials.thisTrialN'
p613
I47
sa(dp614
g31
g32
sg17
F192.93228059704416
sg24
I1
sg35
g39
sg14
F192.92731603677385
sg16
g36
(g70
S'\x02\x00\x00\x00'
tRp615
sg42
g43
sg46
g47
sg15
g100
sg22
F194.45126771158539
sg64
g251
sg62
g74
sg49
g50
sS'trials.thisN'
p616
I48
sg19
I0
sg27
g36
(g38
S'\x00\x00\x00\x00\x00\x00\x18@'
tRp617
sg52
g53
sg23
S'1'
sg18
F194.16992798889987
sg33
g34
sg51
g11
sg20
S'1'
sg65
g36
(g77
S'\x00\x00\x00\x00\x00\x00\x00\x00'
tRp618
sg44
g45
sg40
g41
sg25
F0.19063133397139609
sS'trials.thisIndex'
p619
g36
(g80
S'?\x00\x00\x00'
tRp620
sg26
V5
sS'trials.thisRepN'
p621
I0
sg66
Vpigeon
p622
sg63
V../experiment_stimuli/bw_bc_bl/Living_Things/Birds/pigeon_1.jpg
p623
sg21
F0.2607952612452209
sS'trials.thisTrialN'
p624
I48
sa(dp625
g31
g32
sg17
F196.37971152924001
sg24
I0
sg35
g39
sg14
F196.37483694124967
sg16
g36
(g70
S'\x02\x00\x00\x00'
tRp626
sg42
g43
sg46
g47
sg15
g100
sg22
F198.91096820635721
sg64
g251
sg62
g74
sg49
g50
sS'trials.thisN'
p627
I49
sg19
I1
sg27
g36
(g38
S'\x00\x00\x00\x00\x00\x00\x1c@'
tRp628
sg52
g53
sg23
S'2'
sg18
F197.63745293370448
sg33
g34
sg51
g11
sg20
S'2'
sg65
g36
(g77
S'\x00\x00\x00\x00\x00\x00\x00\x00'
tRp629
sg44
g45
sg40
g41
sg25
F0.1405240511521697
sS'trials.thisIndex'
p630
g36
(g80
S'<\x00\x00\x00'
tRp631
sg26
V5
sS'trials.thisRepN'
p632
I0
sg66
Vpelican
p633
sg63
V../experiment_stimuli/bw_bc_bl/Living_Things/Birds/pelican_4.jpg
p634
sg21
F1.2529663825407624
sS'trials.thisTrialN'
p635
I49
sa(dp636
g31
g32
sg17
F200.78925697947852
sg24
I0
sg35
g39
sg14
F200.78439680859447
sg16
g36
(g70
S'\x01\x00\x00\x00'
tRp637
sg42
g43
sg46
g47
sg15
g72
sg22
F202.59901764756069
sg64
g384
sg62
g74
sg49
g50
sS'trials.thisN'
p638
I50
sg19
I1
sg27
g36
(g38
S'\x00\x00\x00\x00\x00\x00\x1e@'
tRp639
sg52
g53
sg23
S'2'
sg18
F202.03701616986655
sg33
g34
sg51
g11
sg20
S'1'
sg65
g36
(g77
S'\x00\x00\x00\x00\x00\x00\x00\x00'
tRp640
sg44
g45
sg40
g41
sg25
F0.14053300605155528
sS'trials.thisIndex'
p641
g36
(g80
S"'\x00\x00\x00"
tRp642
sg26
V5
sS'trials.thisRepN'
p643
I0
sg66
Vhippopotamus
p644
sg63
V../experiment_stimuli/bw_bc_bl/Living_Things/Animals/hippopotamus_14.jpg
p645
sg21
F0.54141014092601836
sS'trials.thisTrialN'
p646
I50
sa(dp647
g31
g32
sg17
F204.47729577776045
sg24
I1
sg35
g39
sg14
F204.47242121607997
sg16
g36
(g70
S'\x02\x00\x00\x00'
tRp648
sg42
g43
sg46
g47
sg15
g100
sg22
F205.94626585277729
sg64
g73
sg62
g74
sg49
g50
sS'trials.thisN'
p649
I51
sg19
I0
sg27
g36
(g38
S'\x00\x00\x00\x00\x00\x00\x1e@'
tRp650
sg52
g53
sg23
S'1'
sg18
F205.71503591979854
sg33
g34
sg51
g11
sg20
S'1'
sg65
g36
(g77
S'\x00\x00\x00\x00\x00\x00\x00\x00'
tRp651
sg44
g45
sg40
g41
sg25
F1.3732116192113608
sS'trials.thisIndex'
p652
g36
(g80
S'^\x00\x00\x00'
tRp653
sg26
V5
sS'trials.thisRepN'
p654
I0
sg66
Vwhale
p655
sg63
V../experiment_stimuli/bw_bc_bl/Living_Things/Marine_creatures/whale_3.jpg
p656
sg21
F0.21068660309538245
sS'trials.thisTrialN'
p657
I51
sa(dp658
g31
g32
sg17
F209.05734698125161
sg24
I1
sg35
g39
sg14
F209.05236652656458
sg16
g36
(g70
S'\x01\x00\x00\x00'
tRp659
sg42
g43
sg46
g47
sg15
g100
sg22
F211.39811345073394
sg64
g150
sg62
g102
sg49
g50
sS'trials.thisN'
p660
I52
sg19
I1
sg27
g36
(g38
S'\x00\x00\x00\x00\x00\x00\x1c@'
tRp661
sg52
g53
sg23
S'1'
sg18
F210.31501371413469
sg33
g34
sg51
g11
sg20
S'1'
sg65
g36
(g77
S'\x00\x00\x00\x00\x00\x00\x00\x00'
tRp662
sg44
g45
sg40
g41
sg25
F0.18061971757560968
sS'trials.thisIndex'
p663
g36
(g80
S'N\x00\x00\x00'
tRp664
sg26
V5
sS'trials.thisRepN'
p665
I0
sg66
Vsofa
p666
sg63
V../experiment_stimuli/bw_bc_bl/Nonliving_Things/Furniture/sofa_23.jpg
p667
sg21
F1.0625403390731663
sS'trials.thisTrialN'
p668
I52
sa(dp669
g31
g32
sg17
F213.3176344637759
sg24
I0
sg35
g39
sg14
F213.31163660995662
sg16
g36
(g70
S'\x01\x00\x00\x00'
tRp670
sg42
g43
sg46
g47
sg15
g72
sg22
F215.4668101281859
sg64
g251
sg62
g74
sg49
g50
sS'trials.thisN'
p671
I53
sg19
I1
sg27
g36
(g38
S'\x00\x00\x00\x00\x00\x00\x1e@'
tRp672
sg52
g53
sg23
S'2'
sg18
F214.58429607539438
sg33
g34
sg51
g11
sg20
S'1'
sg65
g36
(g77
S'\x00\x00\x00\x00\x00\x00\x00\x00'
tRp673
sg44
g45
sg40
g41
sg25
F0.12033353606238961
sS'trials.thisIndex'
p674
g36
(g80
S'8\x00\x00\x00'
tRp675
sg26
V5
sS'trials.thisRepN'
p676
I0
sg66
Vostrich
p677
sg63
V../experiment_stimuli/bw_bc_bl/Living_Things/Birds/ostrich_1.jpg
p678
sg21
F0.86194261792115867
sS'trials.thisTrialN'
p679
I53
sa(dp680
g31
g32
sg17
F217.32530735712498
sg24
I0
sg35
g39
sg14
F217.32034692447633
sg16
g36
(g70
S'\x02\x00\x00\x00'
tRp681
sg42
g43
sg46
g47
sg15
g100
sg22
F219.05474901013076
sg64
g251
sg62
g74
sg49
g50
sS'trials.thisN'
p682
I54
sg19
I1
sg27
g36
(g38
S'\x00\x00\x00\x00\x00\x00\x1a@'
tRp683
sg52
g53
sg23
S'2'
sg18
F218.58299214229919
sg33
g34
sg51
g11
sg20
S'2'
sg65
g36
(g77
S'\x00\x00\x00\x00\x00\x00\x00\x00'
tRp684
sg44
g45
sg40
g41
sg25
F0.20065505499951541
sS'trials.thisIndex'
p685
g36
(g80
S'=\x00\x00\x00'
tRp686
sg26
V5
sS'trials.thisRepN'
p687
I0
sg66
Vpenguin
p688
sg63
V../experiment_stimuli/bw_bc_bl/Living_Things/Birds/penguin_0.jpg
p689
sg21
F0.45121246273629367
sS'trials.thisTrialN'
p690
I54
sa(dp691
g31
g32
sg17
F220.99322587600909
sg24
I0
sg35
g39
sg14
F220.98831884865649
sg16
g36
(g70
S'\x02\x00\x00\x00'
tRp692
sg42
g43
sg46
g47
sg15
g72
sg22
F222.99438391183503
sg64
g126
sg62
g102
sg49
g50
sS'trials.thisN'
p693
I55
sg19
I0
sg27
g36
(g38
S'\x00\x00\x00\x00\x00\x00 @'
tRp694
sg52
g53
sg23
S'3'
sg18
F222.24094050680287
sg33
g34
sg51
g11
sg20
S'1'
sg65
g36
(g77
S'\x00\x00\x00\x00\x00\x00\x00\x00'
tRp695
sg44
g45
sg40
g41
sg25
F0.12048142123967409
sS'trials.thisIndex'
p696
g36
(g80
S'>\x00\x00\x00'
tRp697
sg26
V5
sS'trials.thisRepN'
p698
I0
sg66
Vpiano
p699
sg63
V../experiment_stimuli/bw_bc_bl/Nonliving_Things/Musical_Inst/piano__7.jpg
p700
sg21
F0.73182871821336448
sS'trials.thisTrialN'
p701
I55
sa(dp702
g31
g32
sg17
F224.85153451748192
sg24
I1
sg35
g39
sg14
F224.84670584648848
sg16
g36
(g70
S'\x01\x00\x00\x00'
tRp703
sg42
g43
sg46
g47
sg15
g72
sg22
F226.51096404530108
sg64
g251
sg62
g74
sg49
g50
sS'trials.thisN'
p704
I56
sg19
I1
sg27
g36
(g38
S'\x00\x00\x00\x00\x00\x00\x1e@'
tRp705
sg52
g53
sg23
S'1'
sg18
F226.07928559253924
sg33
g34
sg51
g11
sg20
S'1'
sg65
g36
(g77
S'\x00\x00\x00\x00\x00\x00\x00\x00'
tRp706
sg44
g45
sg40
g41
sg25
F0.20066008507274091
sS'trials.thisIndex'
p707
g36
(g80
S'"\x00\x00\x00'
tRp708
sg26
V5
sS'trials.thisRepN'
p709
I0
sg66
Vgoose
p710
sg63
V../experiment_stimuli/bw_bc_bl/Living_Things/Birds/goose_1.jpg
p711
sg21
F0.41112025873735547
sS'trials.thisTrialN'
p712
I56
sa(dp713
g31
g32
sg17
F228.44935468700714
sg24
I0
sg35
g39
sg14
F228.44452918483876
sg16
g36
(g70
S'\x01\x00\x00\x00'
tRp714
sg42
g43
sg46
g47
sg15
g72
sg22
F230.32927009067498
sg64
g251
sg62
g74
sg49
g50
sS'trials.thisN'
p715
I57
sg19
I1
sg27
g36
(g38
S'\x00\x00\x00\x00\x00\x00\x18@'
tRp716
sg52
g53
sg23
S'2'
sg18
F229.70717359054834
sg33
g34
sg51
g11
sg20
S'1'
sg65
g36
(g77
S'\x00\x00\x00\x00\x00\x00\x00\x00'
tRp717
sg44
g45
sg40
g41
sg25
F0.13050623261369765
sS'trials.thisIndex'
p718
g36
(g80
S'U\x00\x00\x00'
tRp719
sg26
V5
sS'trials.thisRepN'
p720
I0
sg66
Vtoucan
p721
sg63
V../experiment_stimuli/bw_bc_bl/Living_Things/Birds/toucan_24.jpg
p722
sg21
F0.60153300175443292
sS'trials.thisTrialN'
p723
I57
sa(dp724
g31
g32
sg17
F232.19760333327577
sg24
I0
sg35
g39
sg14
F232.19267918984406
sg16
g36
(g70
S'\x02\x00\x00\x00'
tRp725
sg42
g43
sg46
g47
sg15
g72
sg22
F233.81684860191308
sg64
g114
sg62
g102
sg49
g50
sS'trials.thisN'
p726
I58
sg19
I1
sg27
g36
(g38
S'\x00\x00\x00\x00\x00\x00\x1c@'
tRp727
sg52
g53
sg23
S'2'
sg18
F233.4452964796219
sg33
g34
sg51
g11
sg20
S'2'
sg65
g36
(g77
S'\x00\x00\x00\x00\x00\x00\x00\x00'
tRp728
sg44
g45
sg40
g41
sg25
F0.20065852091647685
sS'trials.thisIndex'
p729
g36
(g80
S'#\x00\x00\x00'
tRp730
sg26
V5
sS'trials.thisRepN'
p731
I0
sg66
Vgranary
p732
sg63
V../experiment_stimuli/bw_bc_bl/Nonliving_Things/Buildings/granary_7.jpg
p733
sg21
F0.35099861584603786
sS'trials.thisTrialN'
p734
I58
sa(dp735
g31
g32
sg17
F235.75530709209852
sg24
I1
sg35
g39
sg14
F235.75043210946023
sg16
g36
(g70
S'\x01\x00\x00\x00'
tRp736
sg42
g43
sg46
g47
sg15
g72
sg22
F237.15393269341439
sg64
g384
sg62
g74
sg49
g50
sS'trials.thisN'
p737
I59
sg19
I1
sg27
g36
(g38
S'\x00\x00\x00\x00\x00\x00\x1e@'
tRp738
sg52
g53
sg23
S'1'
sg18
F236.98300175042823
sg33
g34
sg51
g11
sg20
S'1'
sg65
g36
(g77
S'\x00\x00\x00\x00\x00\x00\x00\x00'
tRp739
sg44
g45
sg40
g41
sg25
F0.21067659580148757
sS'trials.thisIndex'
p740
g36
(g80
S'0\x00\x00\x00'
tRp741
sg26
V5
sS'trials.thisRepN'
p742
I0
sg66
Vlioness
p743
sg63
V../experiment_stimuli/bw_bc_bl/Living_Things/Animals/lioness_24.jpg
p744
sg21
F0.14956960617564619
sS'trials.thisTrialN'
p745
I59
sa(dp746
g31
g32
sg17
F239.10254121478647
sg24
I0
sg35
g39
sg14
F239.09768974315375
sg16
g36
(g70
S'\x02\x00\x00\x00'
tRp747
sg42
g43
sg46
g47
sg15
g72
sg22
F241.27307240408845
sg64
g101
sg62
g102
sg49
g50
sS'trials.thisN'
p748
I60
sg19
I1
sg27
g36
(g38
S'\x00\x00\x00\x00\x00\x00\x18@'
tRp749
sg52
g53
sg23
S'2'
sg18
F240.34029666893184
sg33
g34
sg51
g11
sg20
S'2'
sg65
g36
(g77
S'\x00\x00\x00\x00\x00\x00\x00\x00'
tRp750
sg44
g45
sg40
g41
sg25
F0.21170704322867095
sS'trials.thisIndex'
p751
g36
(g80
S'\x16\x00\x00\x00'
tRp752
sg26
V5
sS'trials.thisRepN'
p753
I0
sg66
Vcup
p754
sg63
V../experiment_stimuli/bw_bc_bl/Nonliving_Things/Kitchen_Uten/cup_19.jpg
p755
sg21
F0.91221272922120988
sS'trials.thisTrialN'
p756
I60
sa(dp757
g31
g32
sg17
F243.22277653007768
sg24
I1
sg35
g39
sg14
F243.21664129476994
sg16
g36
(g70
S'\x01\x00\x00\x00'
tRp758
sg42
g43
sg46
g47
sg15
g72
sg22
F244.48000791179948
sg64
g384
sg62
g74
sg49
g50
sS'trials.thisN'
p759
I61
sg19
I1
sg27
g36
(g38
S'\x00\x00\x00\x00\x00\x00\x1a@'
tRp760
sg52
g53
sg23
S'1'
sg18
F244.44922518730164
sg33
g34
sg51
g11
sg20
S'1'
sg65
g36
(g77
S'\x00\x00\x00\x00\x00\x00\x00\x00'
tRp761
sg44
g45
sg40
g41
sg25
F1.3631875370629132
sS'trials.thisIndex'
p762
g36
(g80
S'Z\x00\x00\x00'
tRp763
sg26
V5
sS'trials.thisRepN'
p764
I0
sg66
Vturtle
p765
sg63
V../experiment_stimuli/bw_bc_bl/Living_Things/Animals/turtle_23.jpg
p766
sg21
F0.010245142737403512
sS'trials.thisTrialN'
p767
I61
sa(dp768
g31
g32
sg17
F247.58226215583272
sg24
I1
sg35
g39
sg14
F247.576130800182
sg16
g36
(g70
S'\x02\x00\x00\x00'
tRp769
sg42
g43
sg46
g47
sg15
g100
sg22
F249.69136761967093
sg64
g384
sg62
g74
sg49
g50
sS'trials.thisN'
p770
I62
sg19
I0
sg27
g36
(g38
S'\x00\x00\x00\x00\x00\x00\x1c@'
tRp771
sg52
g53
sg23
S'1'
sg18
F248.81872050417587
sg33
g34
sg51
g11
sg20
S'1'
sg65
g36
(g77
S'\x00\x00\x00\x00\x00\x00\x00\x00'
tRp772
sg44
g45
sg40
g41
sg25
F0.25076276576146483
sS'trials.thisIndex'
p773
g36
(g80
S'\x1b\x00\x00\x00'
tRp774
sg26
V5
sS'trials.thisRepN'
p775
I0
sg66
Velephant
p776
sg63
V../experiment_stimuli/bw_bc_bl/Living_Things/Animals/elephant_23.jpg
p777
sg21
F0.85209229309111834
sS'trials.thisTrialN'
p778
I62
sa(dp779
g31
g32
sg17
F251.67979526612908
sg24
I1
sg35
g39
sg14
F251.67503307131119
sg16
g36
(g70
S'\x02\x00\x00\x00'
tRp780
sg42
g43
sg46
g47
sg15
g100
sg22
F254.01077565387823
sg64
g73
sg62
g74
sg49
g50
sS'trials.thisN'
p781
I63
sg19
I1
sg27
g36
(g38
S'\x00\x00\x00\x00\x00\x00\x18@'
tRp782
sg52
g53
sg23
S'1'
sg18
F252.92765687615611
sg33
g34
sg51
g11
sg20
S'2'
sg65
g36
(g77
S'\x00\x00\x00\x00\x00\x00\x00\x00'
tRp783
sg44
g45
sg40
g41
sg25
F0.060199878178536892
sS'trials.thisIndex'
p784
g36
(g80
S'\x17\x00\x00\x00'
tRp785
sg26
V5
sS'trials.thisRepN'
p786
I0
sg66
Vdolphin
p787
sg63
V../experiment_stimuli/bw_bc_bl/Living_Things/Marine_creatures/dolphin_15.jpg
p788
sg21
F1.0625414254609495
sS'trials.thisTrialN'
p789
I63
sa(dp790
g31
g32
sg17
F255.80882184626535
sg24
I0
sg35
g39
sg14
F255.80400779168122
sg16
g36
(g70
S'\x02\x00\x00\x00'
tRp791
sg42
g43
sg46
g47
sg15
g72
sg22
F257.97938175336458
sg64
g114
sg62
g102
sg49
g50
sS'trials.thisN'
p792
I64
sg19
I1
sg27
g36
(g38
S'\x00\x00\x00\x00\x00\x00\x1a@'
tRp793
sg52
g53
sg23
S'2'
sg18
F257.08669738750905
sg33
g34
sg51
g11
sg20
S'2'
sg65
g36
(g77
S'\x00\x00\x00\x00\x00\x00\x00\x00'
tRp794
sg44
g45
sg40
g41
sg25
F0.16057046363130212
sS'trials.thisIndex'
p795
g36
(g80
S'\x0c\x00\x00\x00'
tRp796
sg26
V5
sS'trials.thisRepN'
p797
I0
sg66
Vcastle
p798
sg63
V../experiment_stimuli/bw_bc_bl/Nonliving_Things/Buildings/castle_17.jpg
p799
sg21
F0.87212529173120856
sS'trials.thisTrialN'
p800
I64
sa(dp801
g31
g32
sg17
F259.87766514229588
sg24
I0
sg35
g39
sg14
F259.87285021878779
sg16
g36
(g70
S'\x02\x00\x00\x00'
tRp802
sg42
g43
sg46
g47
sg15
g72
sg22
F261.72753105894662
sg64
g195
sg62
g102
sg49
g50
sS'trials.thisN'
p803
I65
sg19
I1
sg27
g36
(g38
S'\x00\x00\x00\x00\x00\x00\x1e@'
tRp804
sg52
g53
sg23
S'3'
sg18
F261.13549904152751
sg33
g34
sg51
g11
sg20
S'2'
sg65
g36
(g77
S'\x00\x00\x00\x00\x00\x00\x00\x00'
tRp805
sg44
g45
sg40
g41
sg25
F0.10044070100411773
sS'trials.thisIndex'
p806
g36
(g80
S'\x0b\x00\x00\x00'
tRp807
sg26
V5
sS'trials.thisRepN'
p808
I0
sg66
Vcar
p809
sg63
V../experiment_stimuli/bw_bc_bl/Nonliving_Things/Vehicles/car_10.jpg
p810
sg21
F0.5614555380307138
sS'trials.thisTrialN'
p811
I65
sa(dp812
g31
g32
sg17
F263.5657437404152
sg24
I1
sg35
g39
sg14
F263.56087978417054
sg16
g36
(g70
S'\x02\x00\x00\x00'
tRp813
sg42
g43
sg46
g47
sg15
g72
sg22
F265.02469925605692
sg64
g195
sg62
g102
sg49
g50
sS'trials.thisN'
p814
I66
sg19
I0
sg27
g36
(g38
S'\x00\x00\x00\x00\x00\x00\x18@'
tRp815
sg52
g53
sg23
S'1'
sg18
F264.80347447702661
sg33
g34
sg51
g11
sg20
S'1'
sg65
g36
(g77
S'\x00\x00\x00\x00\x00\x00\x00\x00'
tRp816
sg44
g45
sg40
g41
sg25
F0.23072076356038451
sS'trials.thisIndex'
p817
g36
(g80
S'V\x00\x00\x00'
tRp818
sg26
V5
sS'trials.thisRepN'
p819
I0
sg66
Vtractor
p820
sg63
V../experiment_stimuli/bw_bc_bl/Nonliving_Things/Vehicles/tractor_24.jpg
p821
sg21
F0.20066159986890852
sS'trials.thisTrialN'
p822
I66
sa(dp823
g31
g32
sg17
F266.99448189139366
sg24
I0
sg35
g39
sg14
F266.98832249850966
sg16
g36
(g70
S'\x02\x00\x00\x00'
tRp824
sg42
g43
sg46
g47
sg15
g72
sg22
F269.4341259370558
sg64
g195
sg62
g102
sg49
g50
sS'trials.thisN'
p825
I67
sg19
I1
sg27
g36
(g38
S'\x00\x00\x00\x00\x00\x00\x18@'
tRp826
sg52
g53
sg23
S'2'
sg18
F268.24094669823535
sg33
g34
sg51
g11
sg20
S'2'
sg65
g36
(g77
S'\x00\x00\x00\x00\x00\x00\x00\x00'
tRp827
sg44
g45
sg40
g41
sg25
F0.18061298853717744
sS'trials.thisIndex'
p828
g36
(g80
S'[\x00\x00\x00'
tRp829
sg26
V5
sS'trials.thisRepN'
p830
I0
sg66
Vvan
p831
sg63
V../experiment_stimuli/bw_bc_bl/Nonliving_Things/Vehicles/van_8.jpg
p832
sg21
F1.1726191425696015
sS'trials.thisTrialN'
p833
I67
sa(dp834
g31
g32
sg17
F271.35271923057735
sg24
I1
sg35
g39
sg14
F271.3477970531676
sg16
g36
(g70
S'\x02\x00\x00\x00'
tRp835
sg42
g43
sg46
g47
sg15
g72
sg22
F273.11228551575914
sg64
g126
sg62
g102
sg49
g50
sS'trials.thisN'
p836
I68
sg19
I1
sg27
g36
(g38
S'\x00\x00\x00\x00\x00\x00 @'
tRp837
sg52
g53
sg23
S'1'
sg18
F272.60042165848427
sg33
g34
sg51
g11
sg20
S'2'
sg65
g36
(g77
S'\x00\x00\x00\x00\x00\x00\x00\x00'
tRp838
sg44
g45
sg40
g41
sg25
F0.08039388619363308
sS'trials.thisIndex'
p839
g36
(g80
S'X\x00\x00\x00'
tRp840
sg26
V5
sS'trials.thisRepN'
p841
I0
sg66
Vtrumpet
p842
sg63
V../experiment_stimuli/bw_bc_bl/Nonliving_Things/Musical_Inst/trumpet_20.jpg
p843
sg21
F0.49130900879390538
sS'trials.thisTrialN'
p844
I68
sa(dp845
g31
g32
sg17
F274.93188744876534
sg24
I1
sg35
g39
sg14
F274.92557356576435
sg16
g36
(g70
S'\x01\x00\x00\x00'
tRp846
sg42
g43
sg46
g47
sg15
g72
sg22
F276.68005551025271
sg64
g251
sg62
g74
sg49
g50
sS'trials.thisN'
p847
I69
sg19
I0
sg27
g36
(g38
S'\x00\x00\x00\x00\x00\x00\x18@'
tRp848
sg52
g53
sg23
S'1'
sg18
F276.17820322024636
sg33
g34
sg51
g11
sg20
S'2'
sg65
g36
(g77
S'\x00\x00\x00\x00\x00\x00\x00\x00'
tRp849
sg44
g45
sg40
g41
sg25
F0.090422423323616385
sS'trials.thisIndex'
p850
g36
(g80
S'!\x00\x00\x00'
tRp851
sg26
V5
sS'trials.thisRepN'
p852
I0
sg66
Vgoldfinch
p853
sg63
V../experiment_stimuli/bw_bc_bl/Living_Things/Birds/goldfinch_8.jpg
p854
sg21
F0.48129014135338366
sS'trials.thisTrialN'
p855
I69
sa(dp856
g31
g32
sg17
F278.5084327198565
sg24
I0
sg35
g39
sg14
F278.50335326255299
sg16
g36
(g70
S'\x01\x00\x00\x00'
tRp857
sg42
g43
sg46
g47
sg15
g72
sg22
F280.58854568889365
sg64
g251
sg62
g74
sg49
g50
sS'trials.thisN'
p858
I70
sg19
I1
sg27
g36
(g38
S'\x00\x00\x00\x00\x00\x00\x1a@'
tRp859
sg52
g53
sg23
S'2'
sg18
F279.76600251416676
sg33
g34
sg51
g11
sg20
S'1'
sg65
g36
(g77
S'\x00\x00\x00\x00\x00\x00\x00\x00'
tRp860
sg44
g45
sg40
g41
sg25
F0.15055114845745265
sS'trials.thisIndex'
p861
g36
(g80
S';\x00\x00\x00'
tRp862
sg26
V5
sS'trials.thisRepN'
p863
I0
sg66
Vpartridge
p864
sg63
V../experiment_stimuli/bw_bc_bl/Living_Things/Birds/partridge_5.jpg
p865
sg21
F0.80196916102431715
sS'trials.thisTrialN'
p866
I70
sa(dp867
g31
g32
sg17
F282.47833271813579
sg24
I0
sg35
g39
sg14
F282.47199660982005
sg16
g36
(g70
S'\x01\x00\x00\x00'
tRp868
sg42
g43
sg46
g47
sg15
g100
sg22
F284.42688770662062
sg64
g126
sg62
g102
sg49
g50
sS'trials.thisN'
p869
I71
sg19
I1
sg27
g36
(g38
S'\x00\x00\x00\x00\x00\x00\x1e@'
tRp870
sg52
g53
sg23
S'3'
sg18
F283.73463141429238
sg33
g34
sg51
g11
sg20
S'1'
sg65
g36
(g77
S'\x00\x00\x00\x00\x00\x00\x00\x00'
tRp871
sg44
g45
sg40
g41
sg25
F0.030283927218988538
sS'trials.thisIndex'
p872
g36
(g80
S'\\\x00\x00\x00'
tRp873
sg26
V5
sS'trials.thisRepN'
p874
I0
sg66
Vviolin
p875
sg63
V../experiment_stimuli/bw_bc_bl/Nonliving_Things/Musical_Inst/violin_6.jpg
p876
sg21
F0.67169858328998089
sS'trials.thisTrialN'
p877
I71
sa(dp878
g31
g32
sg17
F286.19505610945635
sg24
I0
sg35
g39
sg14
F286.19006946659647
sg16
g36
(g70
S'\x01\x00\x00\x00'
tRp879
sg42
g43
sg46
g47
sg15
g72
sg22
F290.82076872303151
sg64
g384
sg62
g74
sg49
g50
sS'trials.thisN'
p880
I72
sg19
I1
sg27
g36
(g38
S'\x00\x00\x00\x00\x00\x00\x18@'
tRp881
sg52
g53
sg23
S'2'
sg18
F287.43266565585509
sg33
g34
sg51
g11
sg20
S'1'
sg65
g36
(g77
S'\x00\x00\x00\x00\x00\x00\x00\x00'
tRp882
sg44
g45
sg40
g41
sg25
F0.10044077970087528
sS'trials.thisIndex'
p883
g36
(g80
S'\r\x00\x00\x00'
tRp884
sg26
V5
sS'trials.thisRepN'
p885
I0
sg66
Vcat
p886
sg63
V../experiment_stimuli/bw_bc_bl/Living_Things/Animals/cat_23.jpg
p887
sg21
F3.3675493546761572
sS'trials.thisTrialN'
p888
I72
sa(dp889
g31
g32
sg17
F292.65899784024805
sg24
I1
sg35
g39
sg14
F292.65412764344364
sg16
g36
(g70
S'\x02\x00\x00\x00'
tRp890
sg42
g43
sg46
g47
sg15
g72
sg22
F294.12796697951853
sg64
g126
sg62
g102
sg49
g50
sS'trials.thisN'
p891
I73
sg19
I0
sg27
g36
(g38
S'\x00\x00\x00\x00\x00\x00\x1a@'
tRp892
sg52
g53
sg23
S'1'
sg18
F293.8866986904759
sg33
g34
sg51
g11
sg20
S'1'
sg65
g36
(g77
S'\x00\x00\x00\x00\x00\x00\x00\x00'
tRp893
sg44
g45
sg40
g41
sg25
F0.2006571302190423
sS'trials.thisIndex'
p894
g36
(g80
S'\x19\x00\x00\x00'
tRp895
sg26
V5
sS'trials.thisRepN'
p896
I0
sg66
Vdrum
p897
sg63
V../experiment_stimuli/bw_bc_bl/Nonliving_Things/Musical_Inst/drum_1.jpg
p898
sg21
F0.2207094666082412
sS'trials.thisTrialN'
p899
I73
sa(dp900
g31
g32
sg17
F296.0663916352205
sg24
I1
sg35
g39
sg14
F296.06153566366993
sg16
g36
(g70
S'\x02\x00\x00\x00'
tRp901
sg42
g43
sg46
g47
sg15
g72
sg22
F297.50529560353607
sg64
g150
sg62
g102
sg49
g50
sS'trials.thisN'
p902
I74
sg19
I0
sg27
g36
(g38
S'\x00\x00\x00\x00\x00\x00\x1a@'
tRp903
sg52
g53
sg23
S'1'
sg18
F297.30413222871721
sg33
g34
sg51
g11
sg20
S'1'
sg65
g36
(g77
S'\x00\x00\x00\x00\x00\x00\x00\x00'
tRp904
sg44
g45
sg40
g41
sg25
F0.18061239458620548
sS'trials.thisIndex'
p905
g36
(g80
S'.\x00\x00\x00'
tRp906
sg26
V5
sS'trials.thisRepN'
p907
I0
sg66
Vlamp
p908
sg63
V../experiment_stimuli/bw_bc_bl/Nonliving_Things/Furniture/lamp_22.jpg
p909
sg21
F0.18061957112513483
sS'trials.thisTrialN'
p910
I74
sa(dp911
g31
g32
sg17
F299.42528733913787
sg24
I0
sg35
g39
sg14
F299.41883454052731
sg16
g36
(g70
S'\x01\x00\x00\x00'
tRp912
sg42
g43
sg46
g47
sg15
g100
sg22
F301.5841914541088
sg64
g101
sg62
g102
sg49
g50
sS'trials.thisN'
p913
I75
sg19
I1
sg27
g36
(g38
S'\x00\x00\x00\x00\x00\x00\x18@'
tRp914
sg52
g53
sg23
S'3'
sg18
F300.69149638921954
sg33
g34
sg51
g11
sg20
S'1'
sg65
g36
(g77
S'\x00\x00\x00\x00\x00\x00\x00\x00'
tRp915
sg44
g45
sg40
g41
sg25
F0.14053036319091916
sS'trials.thisIndex'
p916
g36
(g80
S'S\x00\x00\x00'
tRp917
sg26
V5
sS'trials.thisRepN'
p918
I0
sg66
Vteapot
p919
sg63
V../experiment_stimuli/bw_bc_bl/Nonliving_Things/Kitchen_Uten/teapot_16.jpg
p920
sg21
F0.87213077279739082
sS'trials.thisTrialN'
p921
I75
sa(dp922
g31
g32
sg17
F303.46272621979006
sg24
I0
sg35
g39
sg14
F303.45760802994482
sg16
g36
(g70
S'\x02\x00\x00\x00'
tRp923
sg42
g43
sg46
g47
sg15
g100
sg22
F305.27222074870951
sg64
g384
sg62
g74
sg49
g50
sS'trials.thisN'
p924
I76
sg19
I0
sg27
g36
(g38
S'\x00\x00\x00\x00\x00\x00\x1c@'
tRp925
sg52
g53
sg23
S'2'
sg18
F304.71023238776252
sg33
g34
sg51
g11
sg20
S'1'
sg65
g36
(g77
S'\x00\x00\x00\x00\x00\x00\x00\x00'
tRp926
sg44
g45
sg40
g41
sg25
F0.12048556027002633
sS'trials.thisIndex'
p927
g36
(g80
S'T\x00\x00\x00'
tRp928
sg26
V5
sS'trials.thisRepN'
p929
I0
sg66
Vtiger
p930
sg63
V../experiment_stimuli/bw_bc_bl/Living_Things/Animals/tiger_24.jpg
p931
sg21
F0.54140606569126248
sS'trials.thisTrialN'
p932
I76
sa(dp933
g31
g32
sg17
F307.13070296333171
sg24
I1
sg35
g39
sg14
F307.12557943537831
sg16
g36
(g70
S'\x02\x00\x00\x00'
tRp934
sg42
g43
sg46
g47
sg15
g100
sg22
F308.82992781605572
sg64
g73
sg62
g74
sg49
g50
sS'trials.thisN'
p935
I77
sg19
I0
sg27
g36
(g38
S'\x00\x00\x00\x00\x00\x00\x18@'
tRp936
sg52
g53
sg23
S'1'
sg18
F308.35816328669898
sg33
g34
sg51
g11
sg20
S'1'
sg65
g36
(g77
S'\x00\x00\x00\x00\x00\x00\x00\x00'
tRp937
sg44
g45
sg40
g41
sg25
F0.42113593104295433
sS'trials.thisIndex'
p938
g36
(g80
S'\x15\x00\x00\x00'
tRp939
sg26
V5
sS'trials.thisRepN'
p940
I0
sg66
Vcrab
p941
sg63
V../experiment_stimuli/bw_bc_bl/Living_Things/Marine_creatures/crab_6.jpg
p942
sg21
F0.45120612438768148
sS'trials.thisTrialN'
p943
I77
sa(dp944
g31
g32
sg17
F310.98911789664999
sg24
I1
sg35
g39
sg14
F310.98397866962478
sg16
g36
(g70
S'\x02\x00\x00\x00'
tRp945
sg42
g43
sg46
g47
sg15
g72
sg22
F312.73842902830802
sg64
g126
sg62
g102
sg49
g50
sS'trials.thisN'
p946
I78
sg19
I0
sg27
g36
(g38
S'\x00\x00\x00\x00\x00\x00\x18@'
tRp947
sg52
g53
sg23
S'1'
sg18
F312.22657467820682
sg33
g34
sg51
g11
sg20
S'1'
sg65
g36
(g77
S'\x00\x00\x00\x00\x00\x00\x00\x00'
tRp948
sg44
g45
sg40
g41
sg25
F1.3130922545678914
sS'trials.thisIndex'
p949
g36
(g80
S'H\x00\x00\x00'
tRp950
sg26
V5
sS'trials.thisRepN'
p951
I0
sg66
Vsaxophone
p952
sg63
V../experiment_stimuli/bw_bc_bl/Nonliving_Things/Musical_Inst/saxophone_22.jpg
p953
sg21
F0.4912966366391629
sS'trials.thisTrialN'
p954
I78
sa(dp955
g31
g32
sg17
F315.78964283387177
sg24
I0
sg35
g39
sg14
F315.78440271713771
sg16
g36
(g70
S'\x01\x00\x00\x00'
tRp956
sg42
g43
sg46
g47
sg15
g72
sg22
F317.59900731220841
sg64
g384
sg62
g74
sg49
g50
sS'trials.thisN'
p957
I79
sg19
I1
sg27
g36
(g38
S'\x00\x00\x00\x00\x00\x00\x18@'
tRp958
sg52
g53
sg23
S'2'
sg18
F317.04705364909023
sg33
g34
sg51
g11
sg20
S'1'
sg65
g36
(g77
S'\x00\x00\x00\x00\x00\x00\x00\x00'
tRp959
sg44
g45
sg40
g41
sg25
F0.11047236528247595
sS'trials.thisIndex'
p960
g36
(g80
S'\x14\x00\x00\x00'
tRp961
sg26
V5
sS'trials.thisRepN'
p962
I0
sg66
Vcow
p963
sg63
V../experiment_stimuli/bw_bc_bl/Living_Things/Animals/cow_7.jpg
p964
sg21
F0.53139246115460992
sS'trials.thisTrialN'
p965
I79
sa(dp966
g31
g32
sg17
F319.45050711510703
sg24
I0
sg35
g39
sg14
F319.44235232984647
sg16
g36
(g70
S'\x01\x00\x00\x00'
tRp967
sg42
g43
sg46
g47
sg15
g100
sg22
F321.1968284775503
sg64
g195
sg62
g102
sg49
g50
sS'trials.thisN'
p968
I80
sg19
I1
sg27
g36
(g38
S'\x00\x00\x00\x00\x00\x00\x1a@'
tRp969
sg52
g53
sg23
S'2'
sg18
F320.68496506405063
sg33
g34
sg51
g11
sg20
S'1'
sg65
g36
(g77
S'\x00\x00\x00\x00\x00\x00\x00\x00'
tRp970
sg44
g45
sg40
g41
sg25
F0.04030483984388411
sS'trials.thisIndex'
p971
g36
(g80
S'\x07\x00\x00\x00'
tRp972
sg26
V5
sS'trials.thisRepN'
p973
I0
sg66
Vboat
p974
sg63
V../experiment_stimuli/bw_bc_bl/Nonliving_Things/Vehicles/boat_25.jpg
p975
sg21
F0.49130654288455844
sS'trials.thisTrialN'
p976
I80
sa(dp977
g31
g32
sg17
F322.9782507577911
sg24
I1
sg35
g39
sg14
F322.97002378967591
sg16
g36
(g70
S'\x01\x00\x00\x00'
tRp978
sg42
g43
sg46
g47
sg15
g72
sg22
F324.8046767024789
sg64
g88
sg62
g74
sg49
g50
sS'trials.thisN'
p979
I81
sg19
I0
sg27
g36
(g38
S'\x00\x00\x00\x00\x00\x00\x18@'
tRp980
sg52
g53
sg23
S'1'
sg18
F324.20261152414605
sg33
g34
sg51
g11
sg20
S'2'
sg65
g36
(g77
S'\x00\x00\x00\x00\x00\x00\x00\x00'
tRp981
sg44
g45
sg40
g41
sg25
F0.060350823914632201
sS'trials.thisIndex'
p982
g36
(g80
S'I\x00\x00\x00'
tRp983
sg26
V5
sS'trials.thisRepN'
p984
I0
sg66
Vscorpion
p985
sg63
V../experiment_stimuli/bw_bc_bl/Living_Things/Insects/scorpion_9.jpg
p986
sg21
F0.58150161546654999
sS'trials.thisTrialN'
p987
I81
sa(dp988
g31
g32
sg17
F326.60325842862949
sg24
I0
sg35
g39
sg14
F326.5979461891111
sg16
g36
(g70
S'\x02\x00\x00\x00'
tRp989
sg42
g43
sg46
g47
sg15
g72
sg22
F328.58287416445091
sg64
g195
sg62
g102
sg49
g50
sS'trials.thisN'
p990
I82
sg19
I1
sg27
g36
(g38
S'\x00\x00\x00\x00\x00\x00\x1c@'
tRp991
sg52
g53
sg23
S'2'
sg18
F327.85054152086377
sg33
g34
sg51
g11
sg20
S'2'
sg65
g36
(g77
S'\x00\x00\x00\x00\x00\x00\x00\x00'
tRp992
sg44
g45
sg40
g41
sg25
F0.2307382479775697
sS'trials.thisIndex'
p993
g36
(g80
S'6\x00\x00\x00'
tRp994
sg26
V5
sS'trials.thisRepN'
p995
I0
sg66
Vmotorbike
p996
sg63
V../experiment_stimuli/bw_bc_bl/Nonliving_Things/Vehicles/motorbike_22.jpg
p997
sg21
F0.71178290038369596
sS'trials.thisTrialN'
p998
I82
sa(dp999
g31
g32
sg17
F330.55172066274099
sg24
I0
sg35
g39
sg14
F330.54649452725425
sg16
g36
(g70
S'\x02\x00\x00\x00'
tRp1000
sg42
g43
sg46
g47
sg15
g100
sg22
F332.30094527290203
sg64
g384
sg62
g74
sg49
g50
sS'trials.thisN'
p1001
I83
sg19
I1
sg27
g36
(g38
S'\x00\x00\x00\x00\x00\x00\x18@'
tRp1002
sg52
g53
sg23
S'2'
sg18
F331.79912323807366
sg33
g34
sg51
g11
sg20
S'2'
sg65
g36
(g77
S'\x00\x00\x00\x00\x00\x00\x00\x00'
tRp1003
sg44
g45
sg40
g41
sg25
F0.17059371829964221
sS'trials.thisIndex'
p1004
g36
(g80
S'R\x00\x00\x00'
tRp1005
sg26
V5
sS'trials.thisRepN'
p1006
I0
sg66
Vtapir
p1007
sg63
V../experiment_stimuli/bw_bc_bl/Living_Things/Animals/tapir_19.jpg
p1008
sg21
F0.48127526161260903
sS'trials.thisTrialN'
p1009
I83
sa(dp1010
g31
g32
sg17
F334.21972398855723
sg24
I1
sg35
g39
sg14
F334.21448504109867
sg16
g36
(g70
S'\x01\x00\x00\x00'
tRp1011
sg42
g43
sg46
g47
sg15
g100
sg22
F336.06914909998886
sg64
g150
sg62
g102
sg49
g50
sS'trials.thisN'
p1012
I84
sg19
I1
sg27
g36
(g38
S'\x00\x00\x00\x00\x00\x00\x1a@'
tRp1013
sg52
g53
sg23
S'1'
sg18
F335.44705731747672
sg33
g34
sg51
g11
sg20
S'1'
sg65
g36
(g77
S'\x00\x00\x00\x00\x00\x00\x00\x00'
tRp1014
sg44
g45
sg40
g41
sg25
F0.18062789039686322
sS'trials.thisIndex'
p1015
g36
(g80
S'\x00\x00\x00\x00'
tRp1016
sg26
V5
sS'trials.thisRepN'
p1017
I0
sg66
VChest-of-drawers
p1018
sg63
V../experiment_stimuli/bw_bc_bl/Nonliving_Things/Furniture/Chest-of-drawers_20.jpg
p1019
sg21
F0.60154288518242538
sS'trials.thisTrialN'
p1020
I84
sa(dp1021
g31
g32
sg17
F337.99788687936962
sg24
I0
sg35
g39
sg14
F337.99268561974168
sg16
g36
(g70
S'\x01\x00\x00\x00'
tRp1022
sg42
g43
sg46
g47
sg15
g100
sg22
F339.98767839418724
sg64
g138
sg62
g102
sg49
g50
sS'trials.thisN'
p1023
I85
sg19
I1
sg27
g36
(g38
S'\x00\x00\x00\x00\x00\x00\x1a@'
tRp1024
sg52
g53
sg23
S'2'
sg18
F339.25533166062087
sg33
g34
sg51
g11
sg20
S'1'
sg65
g36
(g77
S'\x00\x00\x00\x00\x00\x00\x00\x00'
tRp1025
sg44
g45
sg40
g41
sg25
F0.080401558894664049
sS'trials.thisIndex'
p1026
g36
(g80
S'%\x00\x00\x00'
tRp1027
sg26
V5
sS'trials.thisRepN'
p1028
I0
sg66
Vhammer
p1029
sg63
V../experiment_stimuli/bw_bc_bl/Nonliving_Things/Tools/hammer_3.jpg
p1030
sg21
F0.71178716304711998
sS'trials.thisTrialN'
p1031
I85
sa(dp1032
g31
g32
sg17
F341.80643273028545
sg24
I0
sg35
g39
sg14
F341.80096398526803
sg16
g36
(g70
S'\x02\x00\x00\x00'
tRp1033
sg42
g43
sg46
g47
sg15
g72
sg22
F343.81602174299769
sg64
g114
sg62
g102
sg49
g50
sS'trials.thisN'
p1034
I86
sg19
I0
sg27
g36
(g38
S'\x00\x00\x00\x00\x00\x00\x18@'
tRp1035
sg52
g53
sg23
S'2'
sg18
F343.06361035723239
sg33
g34
sg51
g11
sg20
S'1'
sg65
g36
(g77
S'\x00\x00\x00\x00\x00\x00\x00\x00'
tRp1036
sg44
g45
sg40
g41
sg25
F0.060351451393216848
sS'trials.thisIndex'
p1037
g36
(g80
S'5\x00\x00\x00'
tRp1038
sg26
V5
sS'trials.thisRepN'
p1039
I0
sg66
Vmill
p1040
sg63
V../experiment_stimuli/bw_bc_bl/Nonliving_Things/Buildings/mill_6.jpg
p1041
sg21
F0.73183503421023488
sS'trials.thisTrialN'
p1042
I86
sa(dp1043
g31
g32
sg17
F345.61449500499293
sg24
I0
sg35
g39
sg14
F345.60925439605489
sg16
g36
(g70
S'\x01\x00\x00\x00'
tRp1044
sg42
g43
sg46
g47
sg15
g72
sg22
F347.80465496960096
sg64
g251
sg62
g74
sg49
g50
sS'trials.thisN'
p1045
I87
sg19
I1
sg27
g36
(g38
S'\x00\x00\x00\x00\x00\x00\x18@'
tRp1046
sg52
g53
sg23
S'2'
sg18
F346.85184914898127
sg33
g34
sg51
g11
sg20
S'1'
sg65
g36
(g77
S'\x00\x00\x00\x00\x00\x00\x00\x00'
tRp1047
sg44
g45
sg40
g41
sg25
F0.020260469289496541
sS'trials.thisIndex'
p1048
g36
(g80
S'9\x00\x00\x00'
tRp1049
sg26
V5
sS'trials.thisRepN'
p1050
I0
sg66
Vowl
p1051
sg63
V../experiment_stimuli/bw_bc_bl/Living_Things/Birds/owl_16.jpg
p1052
sg21
F0.9322601449675858
sS'trials.thisTrialN'
p1053
I87
sa(dp1054
g31
g32
sg17
F349.56322499061935
sg24
I1
sg35
g39
sg14
F349.55783001543023
sg16
g36
(g70
S'\x02\x00\x00\x00'
tRp1055
sg42
g43
sg46
g47
sg15
g100
sg22
F352.00378058711067
sg64
g384
sg62
g74
sg49
g50
sS'trials.thisN'
p1056
I88
sg19
I0
sg27
g36
(g38
S'\x00\x00\x00\x00\x00\x00\x18@'
tRp1057
sg52
g53
sg23
S'1'
sg18
F350.79040937055834
sg33
g34
sg51
g11
sg20
S'1'
sg65
g36
(g77
S'\x00\x00\x00\x00\x00\x00\x00\x00'
tRp1058
sg44
g45
sg40
g41
sg25
F0.31088923569768667
sS'trials.thisIndex'
p1059
g36
(g80
S' \x00\x00\x00'
tRp1060
sg26
V5
sS'trials.thisRepN'
p1061
I0
sg66
Vgiraffe
p1062
sg63
V../experiment_stimuli/bw_bc_bl/Living_Things/Animals/giraffe_25.jpg
p1063
sg21
F1.1928184847347438
sS'trials.thisTrialN'
p1064
I88
sa(dp1065
g31
g32
sg17
F354.06304347864352
sg24
I0
sg35
g39
sg14
F354.05761324078776
sg16
g36
(g70
S'\x02\x00\x00\x00'
tRp1066
sg42
g43
sg46
g47
sg15
g100
sg22
F355.89224450383335
sg64
g251
sg62
g74
sg49
g50
sS'trials.thisN'
p1067
I89
sg19
I1
sg27
g36
(g38
S'\x00\x00\x00\x00\x00\x00\x18@'
tRp1068
sg52
g53
sg23
S'3'
sg18
F355.3202595487237
sg33
g34
sg51
g11
sg20
S'2'
sg65
g36
(g77
S'\x00\x00\x00\x00\x00\x00\x00\x00'
tRp1069
sg44
g45
sg40
g41
sg25
F0.12048495886847377
sS'trials.thisIndex'
p1070
g36
(g80
S',\x00\x00\x00'
tRp1071
sg26
V5
sS'trials.thisRepN'
p1072
I0
sg66
Vkiwi
p1073
sg63
V../experiment_stimuli/bw_bc_bl/Living_Things/Birds/kiwi_1.jpg
p1074
sg21
F0.551430948311463
sS'trials.thisTrialN'
p1075
I89
sa(dp1076
g31
g32
sg17
F357.75092414021492
sg24
I0
sg35
g39
sg14
F357.74563182517886
sg16
g36
(g70
S'\x01\x00\x00\x00'
tRp1077
sg42
g43
sg46
g47
sg15
g100
sg22
F360.69270616746508
sg64
g101
sg62
g102
sg49
g50
sS'trials.thisN'
p1078
I90
sg19
I1
sg27
g36
(g38
S'\x00\x00\x00\x00\x00\x00\x18@'
tRp1079
sg52
g53
sg23
S'2'
sg18
F358.98823608551174
sg33
g34
sg51
g11
sg20
S'1'
sg65
g36
(g77
S'\x00\x00\x00\x00\x00\x00\x00\x00'
tRp1080
sg44
g45
sg40
g41
sg25
F0.15055313357152045
sS'trials.thisIndex'
p1081
g36
(g80
S'\x1e\x00\x00\x00'
tRp1082
sg26
V5
sS'trials.thisRepN'
p1083
I0
sg66
Vfondue
p1084
sg63
V../experiment_stimuli/bw_bc_bl/Nonliving_Things/Kitchen_Uten/fondue_21.jpg
p1085
sg21
F1.6738783093169332
sS'trials.thisTrialN'
p1086
I90
sa(dp1087
g31
g32
sg17
F362.59171330509707
sg24
I1
sg35
g39
sg14
F362.58616420067847
sg16
g36
(g70
S'\x02\x00\x00\x00'
tRp1088
sg42
g43
sg46
g47
sg15
g72
sg22
F364.30050839670002
sg64
g150
sg62
g102
sg49
g50
sS'trials.thisN'
p1089
I91
sg19
I1
sg27
g36
(g38
S'\x00\x00\x00\x00\x00\x00\x1a@'
tRp1090
sg52
g53
sg23
S'1'
sg18
F363.81874748808332
sg33
g34
sg51
g11
sg20
S'2'
sg65
g36
(g77
S'\x00\x00\x00\x00\x00\x00\x00\x00'
tRp1091
sg44
g45
sg40
g41
sg25
F0.070516779785975814
sS'trials.thisIndex'
p1092
g36
(g80
S'\x06\x00\x00\x00'
tRp1093
sg26
V5
sS'trials.thisRepN'
p1094
I0
sg66
Vbedside-table
p1095
sg63
V../experiment_stimuli/bw_bc_bl/Nonliving_Things/Furniture/bedside-table_11.jpg
p1096
sg21
F0.46123388316482306
sS'trials.thisTrialN'
p1097
I91
sa(dp1098
g31
g32
sg17
F366.11937026493251
sg24
I1
sg35
g39
sg14
F366.11382220569067
sg16
g36
(g70
S'\x01\x00\x00\x00'
tRp1099
sg42
g43
sg46
g47
sg15
g72
sg22
F367.54746547807008
sg64
g251
sg62
g74
sg49
g50
sS'trials.thisN'
p1100
I92
sg19
I1
sg27
g36
(g38
S'\x00\x00\x00\x00\x00\x00\x1c@'
tRp1101
sg52
g53
sg23
S'1'
sg18
F367.35643176292069
sg33
g34
sg51
g11
sg20
S'1'
sg65
g36
(g77
S'\x00\x00\x00\x00\x00\x00\x00\x00'
tRp1102
sg44
g45
sg40
g41
sg25
F2.1549193714745343
sS'trials.thisIndex'
p1103
g36
(g80
S'\x04\x00\x00\x00'
tRp1104
sg26
V5
sS'trials.thisRepN'
p1105
I0
sg66
Vbarn-owl
p1106
sg63
V../experiment_stimuli/bw_bc_bl/Living_Things/Birds/barn-owl_8.jpg
p1107
sg21
F0.17046000994741917
sS'trials.thisTrialN'
p1108
I92
sa(dp1109
g31
g32
sg17
F371.44102310342714
sg24
I0
sg35
g39
sg14
F371.4353884588927
sg16
g36
(g70
S'\x02\x00\x00\x00'
tRp1110
sg42
g43
sg46
g47
sg15
g72
sg22
F373.58069650176913
sg64
g150
sg62
g102
sg49
g50
sS'trials.thisN'
p1111
I93
sg19
I1
sg27
g36
(g38
S'\x00\x00\x00\x00\x00\x00\x1c@'
tRp1112
sg52
g53
sg23
S'3'
sg18
F372.69803523295559
sg33
g34
sg51
g11
sg20
S'2'
sg65
g36
(g77
S'\x00\x00\x00\x00\x00\x00\x00\x00'
tRp1113
sg44
g45
sg40
g41
sg25
F0.11047186166979373
sS'trials.thisIndex'
p1114
g36
(g80
S'E\x00\x00\x00'
tRp1115
sg26
V5
sS'trials.thisRepN'
p1116
I0
sg66
Vrocking-chair
p1117
sg63
V../experiment_stimuli/bw_bc_bl/Nonliving_Things/Furniture/rocking-chair_18.jpg
p1118
sg21
F0.86211002571508288
sS'trials.thisTrialN'
p1119
I93
sa(dp1120
g31
g32
sg17
F375.4295880261343
sg24
I0
sg35
g39
sg14
F375.42406151909381
sg16
g36
(g70
S'\x02\x00\x00\x00'
tRp1121
sg42
g43
sg46
g47
sg15
g100
sg22
F377.09835478127934
sg64
g251
sg62
g74
sg49
g50
sS'trials.thisN'
p1122
I94
sg19
I0
sg27
g36
(g38
S'\x00\x00\x00\x00\x00\x00\x18@'
tRp1123
sg52
g53
sg23
S'2'
sg18
F376.65665020118468
sg33
g34
sg51
g11
sg20
S'1'
sg65
g36
(g77
S'\x00\x00\x00\x00\x00\x00\x00\x00'
tRp1124
sg44
g45
sg40
g41
sg25
F0.070388119900599122
sS'trials.thisIndex'
p1125
g36
(g80
S'J\x00\x00\x00'
tRp1126
sg26
V5
sS'trials.thisRepN'
p1127
I0
sg66
Vseagull
p1128
sg63
V../experiment_stimuli/bw_bc_bl/Living_Things/Birds/seagull_7.jpg
p1129
sg21
F0.42114605475217104
sS'trials.thisTrialN'
p1130
I94
sa(dp1131
g31
g32
sg17
F378.91721340548247
sg24
I1
sg35
g39
sg14
F378.91167351859622
sg16
g36
(g70
S'\x02\x00\x00\x00'
tRp1132
sg42
g43
sg46
g47
sg15
g100
sg22
F380.53585411491804
sg64
g251
sg62
g74
sg49
g50
sS'trials.thisN'
p1133
I95
sg19
I0
sg27
g36
(g38
S'\x00\x00\x00\x00\x00\x00\x18@'
tRp1134
sg52
g53
sg23
S'1'
sg18
F380.14422303950414
sg33
g34
sg51
g11
sg20
S'1'
sg65
g36
(g77
S'\x00\x00\x00\x00\x00\x00\x00\x00'
tRp1135
sg44
g45
sg40
g41
sg25
F0.2307444135658443
sS'trials.thisIndex'
p1136
g36
(g80
S'F\x00\x00\x00'
tRp1137
sg26
V5
sS'trials.thisRepN'
p1138
I0
sg66
Vrooster
p1139
sg63
V../experiment_stimuli/bw_bc_bl/Living_Things/Birds/rooster_24.jpg
p1140
sg21
F0.37103317491710186
sS'trials.thisTrialN'
p1141
I95
sasS'loops'
p1142
(lp1143
g1
(cpsychopy.data
TrialHandler
p1144
g3
NtRp1145
(dp1146
S'origin'
p1147
NsS'thisTrial'
p1148
(lp1149
sS'_exp'
p1150
I97313040
sg10
S'trials'
p1151
sg6
I-1
sS'thisRepN'
p1152
I1
sg28
I01
sg29
g30
sS'data'
p1153
g1
(cpsychopy.data
DataHandler
p1154
c__builtin__
dict
p1155
(dp1156
g20
cnumpy.core.multiarray
_reconstruct
p1157
(cnumpy
ndarray
p1158
(I0
tS'b'
tRp1159
(I1
(I96
I1
tg37
(S'O4'
I0
I1
tRp1160
(I3
S'|'
NNNI-1
I-1
I63
tbI00
(lp1161
S'1'
aS'2'
aS'1'
aS'2'
aS'1'
aS'1'
aS'2'
aS'1'
aS'1'
aS'2'
aS'2'
aS'2'
aS'2'
aS'1'
aS'2'
aS'2'
aS'2'
aS'2'
aS'1'
aS'1'
aS'1'
aS'1'
aS'2'
aS'2'
aS'2'
aS'1'
aS'2'
aS'1'
aS'1'
aS'1'
aS'1'
aS'2'
aS'1'
aS'2'
aS'1'
aS'2'
aS'1'
aS'1'
aS'1'
aS'1'
aS'2'
aS'2'
aS'1'
aS'1'
aS'2'
aS'1'
aS'1'
aS'1'
aS'1'
aS'1'
aS'1'
aS'2'
aS'2'
aS'1'
aS'2'
aS'1'
aS'1'
aS'1'
aS'1'
aS'1'
aS'2'
aS'2'
aS'1'
aS'1'
aS'1'
aS'1'
aS'1'
aS'1'
aS'2'
aS'2'
aS'1'
aS'1'
aS'1'
aS'2'
aS'1'
aS'1'
aS'1'
aS'2'
aS'1'
aS'2'
aS'2'
aS'2'
aS'2'
aS'1'
aS'1'
aS'1'
aS'1'
aS'2'
aS'2'
aS'1'
aS'1'
aS'2'
aS'1'
aS'2'
aS'1'
aS'1'
atbsg17
cnumpy.ma.core
_mareconstruct
p1162
(cnumpy.ma.core
MaskedArray
p1163
g1158
(I0
tp1164
S'b'
tRp1165
(I1
(I96
I1
tg37
(S'f4'
I0
I1
tRp1166
(I3
S'<'
NNNI-1
I-1
I0
tbI00
S' \x1c\xa7CA\xda\x04C\xb7\x0bmBjA\xc7AH\x0f\xb7C\xaeJ.C\xbdK\xb5C\xaa\xb9\x9fC"\xfd\x93B#\xe6\x0cC\xba<\xb4BW\xf0\x81C\x0f\xcf\x7fC\xf8\x18\x8fCD`\xaaBQ\x96\'CL\xd0\x1bC!!\x8dA\x0f\xea*ClP\xbbB\x13\xe5\x9dC\xbb\x90\x99C@\x1aoC\x07\xae{C5\x93\xf1@ZT\x92Cb\xb7\x85B\x0f\x95wC$\xeeHB\xd4?\xfaB\x1e\xe0\xb2C\xb9\x0c\x8cB\x18\xc8\xaeCHw\x89C\xfe\xd9`C\x962hC\x8d\xb6\xaaA\xbb\xff\xa8Ck\x93\x14C\r\xcaHC@\xe7\xe4B\t\xd2\x17Bn\x82\x08C\xbe\x9b#C\x12\x08\xb1C[RWB\x80\x08\x94Cv\x18\xf3B\\\xc1kC\x98\xaa\x07B\xccC\x18Cp\xcf\x1fCi\xa5\xcaB9\xe7\xaaC8M\xa3C\xb4\x0c\xc3BPQUC\xa8\xce\xacC\xbfl\xd2B\x14A\x8bC5aDCGSYCD\xfe\\C\xaa\xee@C``:BAHo@&\xb8\xa2B\xea$\x9bBA\x8f\xecBs\xb8\xb9Cgu\xbdC\x03\xb8[A\x9b~\x9bC7}\xa1C\xfd\xb6\xbbC~#6C"\xd4\x10C}F=C\xae\x0eQC\xbe\xad\xd9Bw\xd69C\xa3M+B\x9fF\xa5Cp\xb6\x95C;\xbb\x97C\tsdCj\xc8\x83C/\x0b}B&\xad\x87C!\xf31C\x089sCK\x7f\x85C:=\x8dCv\xd1\xedA0zLC\x7f\xcd\x00C'
S'\x00\x00\x00\x00\x00\x00\x00\x00\x00\x00\x00\x00\x00\x00\x00\x00\x00\x00\x00\x00\x00\x00\x00\x00\x00\x00\x00\x00\x00\x00\x00\x00\x00\x00\x00\x00\x00\x00\x00\x00\x00\x00\x00\x00\x00\x00\x00\x00\x00\x00\x00\x00\x00\x00\x00\x00\x00\x00\x00\x00\x00\x00\x00\x00\x00\x00\x00\x00\x00\x00\x00\x00\x00\x00\x00\x00\x00\x00\x00\x00\x00\x00\x00\x00\x00\x00\x00\x00\x00\x00\x00\x00\x00\x00\x00\x00'
NtbsS'ran'
p1167
g1162
(g1163
g1158
g1164
S'b'
tRp1168
(I1
(I96
I1
tg1166
I00
S'\x00\x00\x80?\x00\x00\x80?\x00\x00\x80?\x00\x00\x80?\x00\x00\x80?\x00\x00\x80?\x00\x00\x80?\x00\x00\x80?\x00\x00\x80?\x00\x00\x80?\x00\x00\x80?\x00\x00\x80?\x00\x00\x80?\x00\x00\x80?\x00\x00\x80?\x00\x00\x80?\x00\x00\x80?\x00\x00\x80?\x00\x00\x80?\x00\x00\x80?\x00\x00\x80?\x00\x00\x80?\x00\x00\x80?\x00\x00\x80?\x00\x00\x80?\x00\x00\x80?\x00\x00\x80?\x00\x00\x80?\x00\x00\x80?\x00\x00\x80?\x00\x00\x80?\x00\x00\x80?\x00\x00\x80?\x00\x00\x80?\x00\x00\x80?\x00\x00\x80?\x00\x00\x80?\x00\x00\x80?\x00\x00\x80?\x00\x00\x80?\x00\x00\x80?\x00\x00\x80?\x00\x00\x80?\x00\x00\x80?\x00\x00\x80?\x00\x00\x80?\x00\x00\x80?\x00\x00\x80?\x00\x00\x80?\x00\x00\x80?\x00\x00\x80?\x00\x00\x80?\x00\x00\x80?\x00\x00\x80?\x00\x00\x80?\x00\x00\x80?\x00\x00\x80?\x00\x00\x80?\x00\x00\x80?\x00\x00\x80?\x00\x00\x80?\x00\x00\x80?\x00\x00\x80?\x00\x00\x80?\x00\x00\x80?\x00\x00\x80?\x00\x00\x80?\x00\x00\x80?\x00\x00\x80?\x00\x00\x80?\x00\x00\x80?\x00\x00\x80?\x00\x00\x80?\x00\x00\x80?\x00\x00\x80?\x00\x00\x80?\x00\x00\x80?\x00\x00\x80?\x00\x00\x80?\x00\x00\x80?\x00\x00\x80?\x00\x00\x80?\x00\x00\x80?\x00\x00\x80?\x00\x00\x80?\x00\x00\x80?\x00\x00\x80?\x00\x00\x80?\x00\x00\x80?\x00\x00\x80?\x00\x00\x80?\x00\x00\x80?\x00\x00\x80?\x00\x00\x80?\x00\x00\x80?\x00\x00\x80?'
S'\x00\x00\x00\x00\x00\x00\x00\x00\x00\x00\x00\x00\x00\x00\x00\x00\x00\x00\x00\x00\x00\x00\x00\x00\x00\x00\x00\x00\x00\x00\x00\x00\x00\x00\x00\x00\x00\x00\x00\x00\x00\x00\x00\x00\x00\x00\x00\x00\x00\x00\x00\x00\x00\x00\x00\x00\x00\x00\x00\x00\x00\x00\x00\x00\x00\x00\x00\x00\x00\x00\x00\x00\x00\x00\x00\x00\x00\x00\x00\x00\x00\x00\x00\x00\x00\x00\x00\x00\x00\x00\x00\x00\x00\x00\x00\x00'
Ntbsg24
g1162
(g1163
g1158
g1164
S'b'
tRp1169
(I1
(I96
I1
tg1166
I00
S'\x00\x00\x80?\x00\x00\x80?\x00\x00\x00\x00\x00\x00\x80?\x00\x00\x80?\x00\x00\x00\x00\x00\x00\x80?\x00\x00\x00\x00\x00\x00\x00\x00\x00\x00\x00\x00\x00\x00\x80?\x00\x00\x00\x00\x00\x00\x00\x00\x00\x00\x00\x00\x00\x00\x00\x00\x00\x00\x80?\x00\x00\x00\x00\x00\x00\x00\x00\x00\x00\x80?\x00\x00\x00\x00\x00\x00\x00\x00\x00\x00\x80?\x00\x00\x00\x00\x00\x00\x80?\x00\x00\x00\x00\x00\x00\x80?\x00\x00\x80?\x00\x00\x80?\x00\x00\x80?\x00\x00\x80?\x00\x00\x00\x00\x00\x00\x00\x00\x00\x00\x80?\x00\x00\x80?\x00\x00\x80?\x00\x00\x00\x00\x00\x00\x80?\x00\x00\x00\x00\x00\x00\x00\x00\x00\x00\x00\x00\x00\x00\x00\x00\x00\x00\x00\x00\x00\x00\x00\x00\x00\x00\x00\x00\x00\x00\x00\x00\x00\x00\x80?\x00\x00\x80?\x00\x00\x00\x00\x00\x00\x80?\x00\x00\x80?\x00\x00\x00\x00\x00\x00\x00\x00\x00\x00\x00\x00\x00\x00\x00\x00\x00\x00\x00\x00\x00\x00\x00\x00\x00\x00\x00\x00\x00\x00\x00\x00\x00\x00\x80?\x00\x00\x00\x00\x00\x00\x00\x00\x00\x00\x00\x00\x00\x00\x00\x00\x00\x00\x80?\x00\x00\x80?\x00\x00\x00\x00\x00\x00\x00\x00\x00\x00\x80?\x00\x00\x00\x00\x00\x00\x00\x00\x00\x00\x80?\x00\x00\x00\x00\x00\x00\x80?\x00\x00\x80?\x00\x00\x00\x00\x00\x00\x00\x00\x00\x00\x80?\x00\x00\x00\x00\x00\x00\x80?\x00\x00\x00\x00\x00\x00\x80?\x00\x00\x00\x00\x00\x00\x00\x00\x00\x00\x00\x00\x00\x00\x00\x00\x00\x00\x00\x00\x00\x00\x80?\x00\x00\x00\x00\x00\x00\x80?\x00\x00\x00\x00\x00\x00\x80?\x00\x00\x00\x00\x00\x00\x00\x00\x00\x00\x00\x00\x00\x00\x80?\x00\x00\x00\x00'
S'\x00\x00\x00\x00\x00\x00\x00\x00\x00\x00\x00\x00\x00\x00\x00\x00\x00\x00\x00\x00\x00\x00\x00\x00\x00\x00\x00\x00\x00\x00\x00\x00\x00\x00\x00\x00\x00\x00\x00\x00\x00\x00\x00\x00\x00\x00\x00\x00\x00\x00\x00\x00\x00\x00\x00\x00\x00\x00\x00\x00\x00\x00\x00\x00\x00\x00\x00\x00\x00\x00\x00\x00\x00\x00\x00\x00\x00\x00\x00\x00\x00\x00\x00\x00\x00\x00\x00\x00\x00\x00\x00\x00\x00\x00\x00\x00'
Ntbsg14
g1162
(g1163
g1158
g1164
S'b'
tRp1170
(I1
(I96
I1
tg1166
I00
S't\x1b\xa7C\xc2\xd8\x04C\xe2\x06mBa7\xc7A\x92\x0e\xb7CkI.C\x07K\xb5C\x9f\xb8\x9fCD\xfa\x93B\xea\xe4\x0cCG:\xb4B\xba\xef\x81C\xd3\xcd\x7fCT\x18\x8fC\xbd]\xaaB\x0c\x95\'C\x7f\xce\x1bC\x07\x17\x8dA\xd3\xe8*C\x90M\xbbBg\xe4\x9dC\x13\x90\x99C\x02\x19oC\xcf\xac{C\xf5j\xf1@\xbaS\x92C\xdd\xb4\x85B}\x93wC\x8b\xe8HBc=\xfaBq\xdf\xb2CM\n\x8cBg\xc7\xaeCyv\x89C\xc2\xd8`CS1hC\xa1\xac\xaaA\x10\xff\xa8C%\x92\x14C\xce\xc8HC\xb7\xe4\xe4B6\xcd\x17B1\x81\x08C\x83\x9a#C`\x07\xb1C\xb5LWB\xe0\x07\x94C\x91\x15\xf3B\x1c\xc0kC\x80\xa5\x07BGB\x18C)\xce\x1fC\xe6\xa2\xcaB\x86\xe6\xaaC\x8aL\xa3C0\n\xc3B\xc7OUC\xfc\xcd\xacC\xd0i\xd2Bn@\x8bC\xf5_DC\x02RYC\x02\xfd\\Ce\xed@CR[:B\xc4\xd2m@\xa3\xb5\xa2B\x10"\x9bB\xd0\x8c\xecB\xbb\xb7\xb9C\xb2t\xbdC\xe2\xa4[A\xf3}\x9bC*|\xa1CH\xb6\xbbCD"6C\x9f\xd2\x10C\xf5D=Ch\rQCC\xab\xd9B\xf7\xd49C\xb3H+B\xf4E\xa5C\x9c\xb5\x95C\x93\xba\x97C\xcdqdC\xcb\xc7\x83C\x8d\x05}B\x85\xac\x87C\xdb\xf11Cv7sC\x81~\x85Cj<\x8dC\xba\xc7\xedA\xf1xLCC\xcc\x00C'
S'\x00\x00\x00\x00\x00\x00\x00\x00\x00\x00\x00\x00\x00\x00\x00\x00\x00\x00\x00\x00\x00\x00\x00\x00\x00\x00\x00\x00\x00\x00\x00\x00\x00\x00\x00\x00\x00\x00\x00\x00\x00\x00\x00\x00\x00\x00\x00\x00\x00\x00\x00\x00\x00\x00\x00\x00\x00\x00\x00\x00\x00\x00\x00\x00\x00\x00\x00\x00\x00\x00\x00\x00\x00\x00\x00\x00\x00\x00\x00\x00\x00\x00\x00\x00\x00\x00\x00\x00\x00\x00\x00\x00\x00\x00\x00\x00'
Ntbsg16
g1157
(g1158
(I0
tS'b'
tRp1171
(I1
(I96
I1
tg1160
I00
(lp1172
g1011
ag439
ag228
ag137
ag1099
ag560
ag1088
ag967
ag273
ag461
ag317
ag802
ag791
ag879
ag306
ag538
ag505
ag113
ag549
ag328
ag956
ag934
ag747
ag780
ag87
ag890
ag250
ag769
ag206
ag417
ag1077
ag262
ag1055
ag846
ag703
ag725
ag125
ag1022
ag483
ag637
ag383
ag172
ag450
ag527
ag1066
ag217
ag901
ag406
ag736
ag161
ag494
ag516
ag350
ag1033
ag989
ag339
ag670
ag1044
ag361
ag857
ag626
ag681
ag692
ag615
ag194
ag71
ag295
ag284
ag395
ag1110
ag1132
ag99
ag945
ag978
ag1121
ag582
ag472
ag604
ag659
ag372
ag593
ag183
ag1000
ag912
ag923
ag714
ag813
ag239
ag835
ag571
ag758
ag824
ag868
ag149
ag648
ag428
atbsg15
g1157
(g1158
(I0
tS'b'
tRp1173
(I1
(I96
I1
tg1160
I00
(lp1174
g100
ag72
ag100
ag72
ag72
ag72
ag72
ag100
ag100
ag72
ag72
ag72
ag72
ag72
ag72
ag100
ag100
ag100
ag72
ag100
ag72
ag100
ag72
ag100
ag72
ag72
ag72
ag100
ag72
ag100
ag100
ag72
ag100
ag72
ag72
ag72
ag72
ag100
ag72
ag72
ag100
ag72
ag72
ag72
ag100
ag72
ag72
ag72
ag72
ag72
ag72
ag100
ag100
ag72
ag72
ag72
ag72
ag72
ag100
ag72
ag100
ag100
ag72
ag100
ag72
ag72
ag100
ag72
ag100
ag72
ag100
ag100
ag72
ag72
ag100
ag100
ag72
ag72
ag100
ag100
ag72
ag72
ag100
ag100
ag100
ag72
ag72
ag72
ag72
ag100
ag72
ag72
ag100
ag72
ag100
ag72
atbsg22
g1162
(g1163
g1158
g1164
S'b'
tRp1175
(I1
(I96
I1
tg1166
I00
S"\xda\x08\xa8C\xf2\xc2\x06CC\xd9uB/\x7f\xd7A\x13\xc6\xb7C\xf4\x190Cw&\xb6C2\x99\xa0Cgw\x97B\xb8\xfa\x0eC`\x8e\xb7B \xdd\x82C\\\xfd\x80C\x0fi\x91CH\xad\xaeB[\x0e)C\xba\xa6\x1dC$ \x9bA\x99M,CAU\xbfB\xac\xcc\x9eC;j\x9aC\xe8EqC\xc2\x02~C\xbc\xc7\x14Aa\x10\x93C\xc8d\x88B\xfd\xb0yCl]OB\x11\xcf\xfdB\xabX\xb4CA\x1c\x90B|\x00\xb0C\x0cW\x8aC\xcf\x82bC\x1d\xd1iCZD\xb7Al\xfe\xa9C_j\x16CY\x99JC)\x1f\xe8B\xbc\x8c#B\xaa&\x0bC\xc2\xad%C5\xf2\xb1C\xa6\xea]B\xae\xc0\x94C^\x88\xf6Bh'mC\xb8\xfc\x0fB\xba\xfb\x19C\xd3\xa3!C\xab\x86\xceBs\xe8\xabC\x9cJ\xa4C<\xf8\xc6B\x81wWC\xff\xe6\xadC\xb5\xb3\xd5BUK\x8cC5\xe9FC\x04\x0e[C\x90\xfe^C\x86sBC\xc9\rABR\x1e\xb6@\x8a\x9e\xa6B2\xec\x9eB\x997\xefBT\xca\xbaC\x97D\xbeC~4|A\x85^\x9cC\x00g\xa2C\x97\x8c\xbcC\xa3\xff7CS\x96\x12C\xee\x12?C\xebeSC\xa1\xa3\xddBSw;C\x81\xd22B\x85&\xa6C\xc7\xca\x96C\xd8\xa2\x98CKTfC)\x83\x84C\xa6\xf5\x81B_\x8e\x88C\xc2G4C\xe2ztC\x91\xb7\x86C\xa46\x8eC}\x95\xffA>\xf2MC\xbb\xfb\x02C"
S'\x00\x00\x00\x00\x00\x00\x00\x00\x00\x00\x00\x00\x00\x00\x00\x00\x00\x00\x00\x00\x00\x00\x00\x00\x00\x00\x00\x00\x00\x00\x00\x00\x00\x00\x00\x00\x00\x00\x00\x00\x00\x00\x00\x00\x00\x00\x00\x00\x00\x00\x00\x00\x00\x00\x00\x00\x00\x00\x00\x00\x00\x00\x00\x00\x00\x00\x00\x00\x00\x00\x00\x00\x00\x00\x00\x00\x00\x00\x00\x00\x00\x00\x00\x00\x00\x00\x00\x00\x00\x00\x00\x00\x00\x00\x00\x00'
Ntbsg26
g1157
(g1158
(I0
tS'b'
tRp1176
(I1
(I96
I1
tg1160
I00
(lp1177
g36
(g80
S'\x01\x00\x00\x00'
tRp1178
ag36
(g80
S'\x03\x00\x00\x00'
tRp1179
ag36
(g80
S'\x07\x00\x00\x00'
tRp1180
ag36
(g80
S'\x03\x00\x00\x00'
tRp1181
ag36
(g80
S'\x02\x00\x00\x00'
tRp1182
ag36
(g80
S'\x05\x00\x00\x00'
tRp1183
ag36
(g80
S'\x01\x00\x00\x00'
tRp1184
ag36
(g80
S'\x02\x00\x00\x00'
tRp1185
ag36
(g80
S'\x03\x00\x00\x00'
tRp1186
ag36
(g80
S'\x04\x00\x00\x00'
tRp1187
ag36
(g80
S'\x02\x00\x00\x00'
tRp1188
ag36
(g80
S'\x04\x00\x00\x00'
tRp1189
ag36
(g80
S'\x05\x00\x00\x00'
tRp1190
aI1
ag36
(g80
S'\x03\x00\x00\x00'
tRp1191
aI1
ag36
(g80
S'\x02\x00\x00\x00'
tRp1192
aS'2.0'
p1193
ag36
(g80
S'\x03\x00\x00\x00'
tRp1194
ag36
(g80
S'\x05\x00\x00\x00'
tRp1195
ag36
(g80
S'\x03\x00\x00\x00'
tRp1196
ag36
(g80
S'\x01\x00\x00\x00'
tRp1197
ag36
(g80
S'\x02\x00\x00\x00'
tRp1198
ag36
(g80
S'\x03\x00\x00\x00'
tRp1199
aS'4.0'
p1200
aI1
ag36
(g80
S'\x02\x00\x00\x00'
tRp1201
ag36
(g80
S'\x02\x00\x00\x00'
tRp1202
ag36
(g80
S'\x02\x00\x00\x00'
tRp1203
aI1
ag36
(g80
S'\x02\x00\x00\x00'
tRp1204
ag36
(g80
S'\x04\x00\x00\x00'
tRp1205
ag36
(g80
S'\x01\x00\x00\x00'
tRp1206
ag36
(g80
S'\x03\x00\x00\x00'
tRp1207
ag36
(g80
S'\x01\x00\x00\x00'
tRp1208
ag36
(g80
S'\x02\x00\x00\x00'
tRp1209
aS'1.0'
p1210
ag36
(g80
S'\x04\x00\x00\x00'
tRp1211
ag36
(g80
S'\x04\x00\x00\x00'
tRp1212
ag36
(g80
S'\x03\x00\x00\x00'
tRp1213
ag36
(g80
S'\x02\x00\x00\x00'
tRp1214
ag36
(g80
S'\x06\x00\x00\x00'
tRp1215
ag36
(g80
S'\x05\x00\x00\x00'
tRp1216
aI1
ag36
(g80
S'\x04\x00\x00\x00'
tRp1217
ag36
(g80
S'\x05\x00\x00\x00'
tRp1218
ag36
(g80
S'\x02\x00\x00\x00'
tRp1219
aI1
ag36
(g80
S'\x01\x00\x00\x00'
tRp1220
ag36
(g80
S'\x03\x00\x00\x00'
tRp1221
ag36
(g80
S'\x03\x00\x00\x00'
tRp1222
ag36
(g80
S'\x01\x00\x00\x00'
tRp1223
ag36
(g80
S'\x02\x00\x00\x00'
tRp1224
ag36
(g80
S'\x03\x00\x00\x00'
tRp1225
ag36
(g80
S'\x03\x00\x00\x00'
tRp1226
ag36
(g80
S'\x04\x00\x00\x00'
tRp1227
ag36
(g80
S'\x05\x00\x00\x00'
tRp1228
ag36
(g80
S'\x02\x00\x00\x00'
tRp1229
ag36
(g80
S'\x01\x00\x00\x00'
tRp1230
ag36
(g80
S'\x04\x00\x00\x00'
tRp1231
ag36
(g80
S'\x04\x00\x00\x00'
tRp1232
ag36
(g80
S'\x04\x00\x00\x00'
tRp1233
ag36
(g80
S'\x03\x00\x00\x00'
tRp1234
ag36
(g80
S'\x02\x00\x00\x00'
tRp1235
ag36
(g80
S'\x01\x00\x00\x00'
tRp1236
aS'5.0'
p1237
ag36
(g80
S'\x04\x00\x00\x00'
tRp1238
ag36
(g80
S'\x02\x00\x00\x00'
tRp1239
ag36
(g80
S'\x01\x00\x00\x00'
tRp1240
ag36
(g80
S'\x04\x00\x00\x00'
tRp1241
aI1
aS'3.0'
p1242
ag36
(g80
S'\x02\x00\x00\x00'
tRp1243
ag36
(g80
S'\x01\x00\x00\x00'
tRp1244
ag36
(g80
S'\x01\x00\x00\x00'
tRp1245
aI1
ag36
(g80
S'\x02\x00\x00\x00'
tRp1246
ag36
(g80
S'\x04\x00\x00\x00'
tRp1247
ag36
(g80
S'\x04\x00\x00\x00'
tRp1248
ag36
(g80
S'\x03\x00\x00\x00'
tRp1249
aI1
ag36
(g80
S'\x04\x00\x00\x00'
tRp1250
ag36
(g80
S'\x02\x00\x00\x00'
tRp1251
ag36
(g80
S'\x05\x00\x00\x00'
tRp1252
ag36
(g80
S'\x02\x00\x00\x00'
tRp1253
ag36
(g80
S'\x03\x00\x00\x00'
tRp1254
ag36
(g80
S'\x02\x00\x00\x00'
tRp1255
ag36
(g80
S'\x05\x00\x00\x00'
tRp1256
ag36
(g80
S'\x02\x00\x00\x00'
tRp1257
ag36
(g80
S'\x02\x00\x00\x00'
tRp1258
ag36
(g80
S'\x01\x00\x00\x00'
tRp1259
ag36
(g80
S'\x03\x00\x00\x00'
tRp1260
ag36
(g80
S'\x03\x00\x00\x00'
tRp1261
ag36
(g80
S'\x05\x00\x00\x00'
tRp1262
ag36
(g80
S'\x02\x00\x00\x00'
tRp1263
ag36
(g80
S'\x04\x00\x00\x00'
tRp1264
atbsg21
g1162
(g1163
g1158
g1164
S'b'
tRp1265
(I1
(I96
I1
tg1166
I00
S'\xb7\xfe\x19?BA$?\x81ed?\xd5\nC?\x12\x8d.>\xe6w\x05?\xd9&\xec>\x88\x8c\xfb>\x8bJ\xf1>PNM?\xe9\\\xcd>\x8d\xbb\x0f?\x9aC_?\xee\x85W@e\xd5a?\xe5\x01b>\xa2\xdc\x14?V\x8b\xfb>\xc6\xc2\xf6=\x95\xc78?V\t\x08?}\x04\xe7>\xc6\x86i?\\\x01\x88?~H\xf1>\xaa\x01b>\t\xba\xa4=\xb8"Z?\x92\xb5\xb3>\xa4\x08\x08?\xa5A\xd6?\xefy@?G\xae\x98?\xa9k\xf6>[~\xd2>\x17\xb6\xb3>qO\xa4>\xaf76?\xe5\xba\x0f?\xdb\x99\n?\x9c\xb4\xb3>\xbd\x1f\xd1?\x9c4\xad?\xa6pR?\x94*\r?\x11\xd6\xb8>V\xf48>63\xf1>\xc6(\x19>X\xdeO?\xc6\x04\xe7>\xac\xdc\x14?\xa2\x84.?\x8aY;?g76?\xb5\x85.?E\xa8\\?\x9a\xa8n?^Q\xc8>\xdaMM?4a\xa0?R\x05\xe7> Y;?\xf5\x86\x85>\x1b\xa0\xd7>\x98c)?\xbc\xf3+?\x85\xb2!?\xc0\xb3\xa4=>\xb3\\?\x0f\xf8\xbd>\xde\nC?<\x8b\xfb>J\xdd\x14?u\xa0\xd7>\xf7\x90\x1c?\x80V\x00?\xf3w\x05?R\x01\x88?j\xaf3?)\x1b\xc3>\xc5\xf3\x19?\xb6i\xf6>\xf6C_?\x97\x99\n?\x11\xfe\x19?<zM>\x1c\xc1\xdc>\xdb\x8c\xfb>cD\x89?>\xdb\'<b\x18\x96?p\xf4+?\x86\x17l?;\xbeW>\xde\xf6f?'
S'\x00\x00\x00\x00\x00\x00\x00\x00\x00\x00\x00\x00\x00\x00\x00\x00\x00\x00\x00\x00\x00\x00\x00\x00\x00\x00\x00\x00\x00\x00\x00\x00\x00\x00\x00\x00\x00\x00\x00\x00\x00\x00\x00\x00\x00\x00\x00\x00\x00\x00\x00\x00\x00\x00\x00\x00\x00\x00\x00\x00\x00\x00\x00\x00\x00\x00\x00\x00\x00\x00\x00\x00\x00\x00\x00\x00\x00\x00\x00\x00\x00\x00\x00\x00\x00\x00\x00\x00\x00\x00\x00\x00\x00\x00\x00\x00'
NtbsS'order'
p1266
g1162
(g1163
g1158
g1164
S'b'
tRp1267
(I1
(I96
I1
tg1166
I00
S'\x00\x00\xa8B\x00\x00\x00B\x00\x00PA\x00\x00\xa0@\x00\x00\xb8B\x00\x00,B\x00\x00\xb6B\x00\x00\xa0B\x00\x00\x88A\x00\x00\x08B\x00\x00\xa8A\x00\x00\x82B\x00\x00\x80B\x00\x00\x90B\x00\x00\xa0A\x00\x00$B\x00\x00\x18B\x00\x00@@\x00\x00(B\x00\x00\xb0A\x00\x00\x9eB\x00\x00\x9aB\x00\x00pB\x00\x00|B\x00\x00\x80?\x00\x00\x92B\x00\x00pA\x00\x00xB\x00\x000A\x00\x00\xf0A\x00\x00\xb4B\x00\x00\x80A\x00\x00\xb0B\x00\x00\x8aB\x00\x00`B\x00\x00hB\x00\x00\x80@\x00\x00\xaaB\x00\x00\x10B\x00\x00HB\x00\x00\xd8A\x00\x00\x00A\x00\x00\x04B\x00\x00 B\x00\x00\xb2B\x00\x00@A\x00\x00\x94B\x00\x00\xe8A\x00\x00lB\x00\x00\xe0@\x00\x00\x14B\x00\x00\x1cB\x00\x00\xc0A\x00\x00\xacB\x00\x00\xa4B\x00\x00\xb8A\x00\x00TB\x00\x00\xaeB\x00\x00\xc8A\x00\x00\x8cB\x00\x00DB\x00\x00XB\x00\x00\\B\x00\x00@B\x00\x00 A\x00\x00\x00\x00\x00\x00\x98A\x00\x00\x90A\x00\x00\xe0A\x00\x00\xbaB\x00\x00\xbeB\x00\x00\x00@\x00\x00\x9cB\x00\x00\xa2B\x00\x00\xbcB\x00\x004B\x00\x00\x0cB\x00\x00<B\x00\x00PB\x00\x00\xd0A\x00\x008B\x00\x00\x10A\x00\x00\xa6B\x00\x00\x96B\x00\x00\x98B\x00\x00dB\x00\x00\x84B\x00\x00`A\x00\x00\x88B\x00\x000B\x00\x00tB\x00\x00\x86B\x00\x00\x8eB\x00\x00\xc0@\x00\x00LB\x00\x00\xf8A'
S'\x00\x00\x00\x00\x00\x00\x00\x00\x00\x00\x00\x00\x00\x00\x00\x00\x00\x00\x00\x00\x00\x00\x00\x00\x00\x00\x00\x00\x00\x00\x00\x00\x00\x00\x00\x00\x00\x00\x00\x00\x00\x00\x00\x00\x00\x00\x00\x00\x00\x00\x00\x00\x00\x00\x00\x00\x00\x00\x00\x00\x00\x00\x00\x00\x00\x00\x00\x00\x00\x00\x00\x00\x00\x00\x00\x00\x00\x00\x00\x00\x00\x00\x00\x00\x00\x00\x00\x00\x00\x00\x00\x00\x00\x00\x00\x00'
Ntbsg19
g1162
(g1163
g1158
g1164
S'b'
tRp1268
(I1
(I96
I1
tg1166
I00
S'\x00\x00\x80?\x00\x00\x00\x00\x00\x00\x80?\x00\x00\x80?\x00\x00\x80?\x00\x00\x00\x00\x00\x00\x80?\x00\x00\x80?\x00\x00\x80?\x00\x00\x80?\x00\x00\x00\x00\x00\x00\x80?\x00\x00\x80?\x00\x00\x80?\x00\x00\x80?\x00\x00\x00\x00\x00\x00\x80?\x00\x00\x00\x00\x00\x00\x00\x00\x00\x00\x80?\x00\x00\x80?\x00\x00\x00\x00\x00\x00\x80?\x00\x00\x80?\x00\x00\x00\x00\x00\x00\x00\x00\x00\x00\x00\x00\x00\x00\x00\x00\x00\x00\x00\x00\x00\x00\x80?\x00\x00\x80?\x00\x00\x80?\x00\x00\x00\x00\x00\x00\x00\x00\x00\x00\x80?\x00\x00\x80?\x00\x00\x00\x00\x00\x00\x80?\x00\x00\x80?\x00\x00\x80?\x00\x00\x80?\x00\x00\x80?\x00\x00\x80?\x00\x00\x80?\x00\x00\x80?\x00\x00\x80?\x00\x00\x00\x00\x00\x00\x00\x00\x00\x00\x80?\x00\x00\x80?\x00\x00\x80?\x00\x00\x80?\x00\x00\x80?\x00\x00\x00\x00\x00\x00\x80?\x00\x00\x80?\x00\x00\x80?\x00\x00\x80?\x00\x00\x80?\x00\x00\x80?\x00\x00\x80?\x00\x00\x80?\x00\x00\x00\x00\x00\x00\x00\x00\x00\x00\x00\x00\x00\x00\x80?\x00\x00\x80?\x00\x00\x80?\x00\x00\x80?\x00\x00\x80?\x00\x00\x00\x00\x00\x00\x80?\x00\x00\x00\x00\x00\x00\x00\x00\x00\x00\x00\x00\x00\x00\x00\x00\x00\x00\x00\x00\x00\x00\x80?\x00\x00\x80?\x00\x00\x80?\x00\x00\x00\x00\x00\x00\x80?\x00\x00\x80?\x00\x00\x80?\x00\x00\x00\x00\x00\x00\x80?\x00\x00\x00\x00\x00\x00\x80?\x00\x00\x80?\x00\x00\x80?\x00\x00\x80?\x00\x00\x80?\x00\x00\x80?\x00\x00\x80?\x00\x00\x00\x00\x00\x00\x80?'
S'\x00\x00\x00\x00\x00\x00\x00\x00\x00\x00\x00\x00\x00\x00\x00\x00\x00\x00\x00\x00\x00\x00\x00\x00\x00\x00\x00\x00\x00\x00\x00\x00\x00\x00\x00\x00\x00\x00\x00\x00\x00\x00\x00\x00\x00\x00\x00\x00\x00\x00\x00\x00\x00\x00\x00\x00\x00\x00\x00\x00\x00\x00\x00\x00\x00\x00\x00\x00\x00\x00\x00\x00\x00\x00\x00\x00\x00\x00\x00\x00\x00\x00\x00\x00\x00\x00\x00\x00\x00\x00\x00\x00\x00\x00\x00\x00'
Ntbsg27
g1157
(g1158
(I0
tS'b'
tRp1269
(I1
(I96
I1
tg1160
I00
(lp1270
g1013
ag441
ag230
ag140
ag1101
ag562
ag1090
ag969
ag275
ag463
ag319
ag804
ag793
ag881
ag308
ag540
ag507
ag116
ag551
ag330
ag958
ag936
ag749
ag782
ag90
ag892
ag253
ag771
ag208
ag419
ag1079
ag264
ag1057
ag848
ag705
ag727
ag128
ag1024
ag485
ag639
ag386
ag174
ag452
ag529
ag1068
ag219
ag903
ag408
ag738
ag163
ag496
ag518
ag352
ag1035
ag991
ag341
ag672
ag1046
ag363
ag859
ag628
ag683
ag694
ag617
ag197
ag76
ag297
ag286
ag397
ag1112
ag1134
ag104
ag947
ag980
ag1123
ag584
ag474
ag606
ag661
ag374
ag595
ag185
ag1002
ag914
ag925
ag716
ag815
ag241
ag837
ag573
ag760
ag826
ag870
ag152
ag650
ag430
atbsg23
g1157
(g1158
(I0
tS'b'
tRp1271
(I1
(I96
I1
tg1160
I00
(lp1272
S'1'
aS'1'
aS'3'
aS'1'
aS'1'
aS'3'
aS'1'
aS'2'
aS'2'
aS'3'
aS'1'
aS'3'
aS'2'
aS'2'
aS'2'
aS'1'
aS'2'
aS'2'
aS'1'
aS'2'
aS'2'
aS'1'
aS'2'
aS'1'
aS'2'
aS'1'
aS'1'
aS'1'
aS'1'
aS'1'
aS'2'
aS'2'
aS'1'
aS'1'
aS'1'
aS'2'
aS'1'
aS'2'
aS'2'
aS'2'
aS'2'
aS'3'
aS'2'
aS'2'
aS'3'
aS'1'
aS'1'
aS'2'
aS'1'
aS'1'
aS'2'
aS'2'
aS'2'
aS'2'
aS'2'
aS'3'
aS'2'
aS'2'
aS'1'
aS'2'
aS'2'
aS'2'
aS'3'
aS'1'
aS'1'
aS'2'
aS'2'
aS'1'
aS'2'
aS'3'
aS'1'
aS'2'
aS'1'
aS'1'
aS'2'
aS'2'
aS'1'
aS'3'
aS'1'
aS'2'
aS'1'
aS'3'
aS'2'
aS'3'
aS'2'
aS'2'
aS'1'
aS'3'
aS'1'
aS'3'
aS'1'
aS'2'
aS'3'
aS'3'
aS'1'
aS'2'
atbsg18
g1162
(g1163
g1158
g1164
S'b'
tRp1273
(I1
(I96
I1
tg1166
I00
S"9\xb9\xa7Cm\x19\x06C\x9f2rB\xbe<\xd1A\xa0\xad\xb7C9\x8f/C\xcd\xe8\xb5C\xadW\xa0C\x95{\x96B'(\x0eC{\xb6\xb6BX\x91\x82C\x19\x8b\x80Cb\xb7\x8fC\x14\xdf\xacB\x97\xd0(C\x9a\x0c\x1dC\xe3\x07\x97A}),C,\xd9\xbdB\x06\x86\x9eC\xd8-\x9aC\x1eWpC{\xed|CM\xe9\x0cA\x7f\xf1\x92C\x111\x88B\x98\xd1xC\xf8\xe0MBy\xb4\xfcB\x7f~\xb3C\xc6\x90\x8eB,e\xafC\xcf\x16\x8aCL\x14bC\xffqiC\xef\x88\xb4A\xaf\xa0\xa9Cb\xd5\x15Cz\tJC\xed`\xe7B\xb0\xee\x1cB\xfe\xc6\tC\r\xd6$C\xfe\xa8\xb1C\xecc\\B\xee\xa6\x94C\xa6\x8c\xf5B\xa6\xfblC2\xa8\x0cB\xf3\x82\x19C\xb3\t!C\x1c\x1f\xcdB$\x88\xabC\xdf\xec\xa3C\xaa\x90\xc5B\x94\x95VC\tm\xadC\xdd\xe0\xd4B\x0c\xe2\x8bC0\xa3EC?\x95ZC\xae=^C\x80+BC|I?B#\xf5\x9f@\x1c<\xa5BF\x9e\x9dB\xe5\x03\xefBYY\xbaCv\x12\xbeC\x9c\xafoA\x00\x1d\x9cC\xef\x19\xa2C\rT\xbcC\xce]7C\xba\x10\x12C2\x88>C\xa5PRC\x9b,\xdcB\x81\x10;C\xa4U0BJ\xe6\xa5C\x83X\x96C\xe9Z\x98C\t\xb5eC\xd8f\x84C`\x0e\x81B\xdbL\x88C\xf6/3C\x00stC\xd7\x1e\x86C\x08\xde\x8dC$\xf6\xf7A\r\xb7MC\x80\x0f\x02C"
S'\x00\x00\x00\x00\x00\x00\x00\x00\x00\x00\x00\x00\x00\x00\x00\x00\x00\x00\x00\x00\x00\x00\x00\x00\x00\x00\x00\x00\x00\x00\x00\x00\x00\x00\x00\x00\x00\x00\x00\x00\x00\x00\x00\x00\x00\x00\x00\x00\x00\x00\x00\x00\x00\x00\x00\x00\x00\x00\x00\x00\x00\x00\x00\x00\x00\x00\x00\x00\x00\x00\x00\x00\x00\x00\x00\x00\x00\x00\x00\x00\x00\x00\x00\x00\x00\x00\x00\x00\x00\x00\x00\x00\x00\x00\x00\x00'
Ntbsg25
g1162
(g1163
g1158
g1164
S'b'
tRp1274
(I1
(I96
I1
tg1166
I00
S'\x85\xf68>\xc8\xb9\'<\xf6.w=\x8a\xdb\x86?3\xea\t@\xa8>\xe2=\x1ak\x90=\xb0\x16%=B\xbe\xcd=b\xe7\xe1=w\xea\x0f>\xdb\xb3\xcd=\x95l$>\xe5\xb3\xcd=Cp\x85?\r\xca\xf6=\xa9\x9f\xd7>\xec\xbbW>Sd\x80>#\xc0\xf6=V?\xe2=!\x9f\xd7>\xbb\xc9X>&\x94v=\xb3\x8c,@\x10yM>\xed8\xb9=\xfac\x80>lP\x80>rl$>\x9a*\x1a>\x9f\x81M>\xe0,\x9f>d/\xb9=\xd6yM>myM>\\\x86\x85>\x93\xa9\xa4=\xce6\xe2=\xe2\xe7\x0f>\x15i\xf6>\xfdxM>\x06\x19(<\xf6\xb5.>\xd1\xc0\xf6=\xef\xdb\x02@u\xf28>jo\xf6=\x9b\xbbW>\xe9\xd5a>\x19\xdc\xb8=}\x19l>\xe4\xbdW>\x153w=\xa6Fl>h\xb7\xcd=nq\xf6=I\xf9\xa5<(d\x80>\x15*\x1a>\x89\xe5\x0f>\x85xM>\xf7\xbe\xf6=\xdc4C>\x1aHl>\x06\xc0\xf6=z\xe6\x0f>-l$>cRM>\x12?\xe2=CHl>\xca\xe9\x0f>h\x13\xa8?m2w=\xa6\'\x90=\xc9\xb6\xcd=>c\x80>\x92\xc1\xf6=`\xf48> z\xf2?_$\x90=j*\x1a>\x1f\xb0.>1\xe7\x0f>"\xc1\xf6=m\xa3\x05>\x10Bl>\x08\xeb\x0f>\x8d\xa5\xa4=Ds\xf6=\xee|\xae?\x9c\xf28>\x00\x16\xf8<\xb1Fl>f\xc5\xaf?\x98\xa5\x05>'
S'\x00\x00\x00\x00\x00\x00\x00\x00\x00\x00\x00\x00\x00\x00\x00\x00\x00\x00\x00\x00\x00\x00\x00\x00\x00\x00\x00\x00\x00\x00\x00\x00\x00\x00\x00\x00\x00\x00\x00\x00\x00\x00\x00\x00\x00\x00\x00\x00\x00\x00\x00\x00\x00\x00\x00\x00\x00\x00\x00\x00\x00\x00\x00\x00\x00\x00\x00\x00\x00\x00\x00\x00\x00\x00\x00\x00\x00\x00\x00\x00\x00\x00\x00\x00\x00\x00\x00\x00\x00\x00\x00\x00\x00\x00\x00\x00'
NtbstRp1275
(dp1276
S'isNumeric'
p1277
(dp1278
g23
I00
sg20
I00
sg17
I01
sg1167
I01
sg22
I01
sg24
I01
sg14
I01
sg18
I01
sg16
I00
sg19
I01
sg26
I00
sg27
I00
sg15
I00
sg21
I01
sg1266
I01
sg25
I01
ssg1151
g1145
sS'dataTypes'
p1279
(lp1280
g1167
ag1266
ag14
ag15
ag16
ag17
ag18
ag19
ag20
ag21
ag22
ag23
ag24
ag25
ag26
ag27
asS'dataShape'
p1281
(lp1282
I96
aI1
asbsS'method'
p1283
S'random'
p1284
sS'sequenceIndices'
p1285
g1157
(g1158
(I0
tS'b'
tRp1286
(I1
(I96
I1
tg80
I01
S'A\x00\x00\x00\x18\x00\x00\x00G\x00\x00\x00\x11\x00\x00\x00$\x00\x00\x00\x03\x00\x00\x00]\x00\x00\x001\x00\x00\x00)\x00\x00\x00Q\x00\x00\x00@\x00\x00\x00\x1c\x00\x00\x00-\x00\x00\x00\x02\x00\x00\x00W\x00\x00\x00\x1a\x00\x00\x00\x1f\x00\x00\x00\x08\x00\x00\x00C\x00\x00\x00B\x00\x00\x00\x0e\x00\x00\x00\n\x00\x00\x00\x13\x00\x00\x007\x00\x00\x004\x00\x00\x00:\x00\x00\x00O\x00\x00\x00(\x00\x00\x00D\x00\x00\x00/\x00\x00\x00\x1d\x00\x00\x00_\x00\x00\x00\x01\x00\x00\x00*\x00\x00\x00\t\x00\x00\x00L\x00\x00\x00&\x00\x00\x002\x00\x00\x00\x10\x00\x00\x003\x00\x00\x00+\x00\x00\x00\x0f\x00\x00\x00\x12\x00\x00\x00\x05\x00\x00\x00Y\x00\x00\x00K\x00\x00\x00P\x00\x00\x00M\x00\x00\x00?\x00\x00\x00<\x00\x00\x00\'\x00\x00\x00^\x00\x00\x00N\x00\x00\x008\x00\x00\x00=\x00\x00\x00>\x00\x00\x00"\x00\x00\x00U\x00\x00\x00#\x00\x00\x000\x00\x00\x00\x16\x00\x00\x00Z\x00\x00\x00\x1b\x00\x00\x00\x17\x00\x00\x00\x0c\x00\x00\x00\x0b\x00\x00\x00V\x00\x00\x00[\x00\x00\x00X\x00\x00\x00!\x00\x00\x00;\x00\x00\x00\\\x00\x00\x00\r\x00\x00\x00\x19\x00\x00\x00.\x00\x00\x00S\x00\x00\x00T\x00\x00\x00\x15\x00\x00\x00H\x00\x00\x00\x14\x00\x00\x00\x07\x00\x00\x00I\x00\x00\x006\x00\x00\x00R\x00\x00\x00\x00\x00\x00\x00%\x00\x00\x005\x00\x00\x009\x00\x00\x00 \x00\x00\x00,\x00\x00\x00\x1e\x00\x00\x00\x06\x00\x00\x00\x04\x00\x00\x00E\x00\x00\x00J\x00\x00\x00F\x00\x00\x00'
tbsS'finished'
p1287
I01
sS'nReps'
p1288
I1
sS'nRemaining'
p1289
I-1
sS'trialList'
p1290
(lp1291
g1
(cpsychopy.data
TrialType
p1292
g1155
(dp1293
g62
g102
sg63
g1019
sg64
g150
sg65
g1014
sg66
g1018
stRp1294
ag1
(g1292
g1155
(dp1295
g62
g74
sg63
g447
sg64
g384
sg65
g442
sg66
g446
stRp1296
ag1
(g1292
g1155
(dp1297
g62
g102
sg63
g236
sg64
g150
sg65
g231
sg66
g235
stRp1298
ag1
(g1292
g1155
(dp1299
g62
g102
sg63
g146
sg64
g138
sg65
g141
sg66
g145
stRp1300
ag1
(g1292
g1155
(dp1301
g62
g74
sg63
g1107
sg64
g251
sg65
g1102
sg66
g1106
stRp1302
ag1
(g1292
g1155
(dp1303
g62
g102
sg63
g568
sg64
g150
sg65
g563
sg66
g567
stRp1304
ag1
(g1292
g1155
(dp1305
g62
g102
sg63
g1096
sg64
g150
sg65
g1091
sg66
g1095
stRp1306
ag1
(g1292
g1155
(dp1307
g62
g102
sg63
g975
sg64
g195
sg65
g970
sg66
g974
stRp1308
ag1
(g1292
g1155
(dp1309
g62
g102
sg63
g281
sg64
g150
sg65
g276
sg66
g280
stRp1310
ag1
(g1292
g1155
(dp1311
g62
g102
sg63
g469
sg64
g195
sg65
g464
sg66
g468
stRp1312
ag1
(g1292
g1155
(dp1313
g62
g74
sg63
g325
sg64
g88
sg65
g320
sg66
g324
stRp1314
ag1
(g1292
g1155
(dp1315
g62
g102
sg63
g810
sg64
g195
sg65
g805
sg66
g809
stRp1316
ag1
(g1292
g1155
(dp1317
g62
g102
sg63
g799
sg64
g114
sg65
g794
sg66
g798
stRp1318
ag1
(g1292
g1155
(dp1319
g62
g74
sg63
g887
sg64
g384
sg65
g882
sg66
g886
stRp1320
ag1
(g1292
g1155
(dp1321
g62
g102
sg63
g314
sg64
g114
sg65
g309
sg66
g313
stRp1322
ag1
(g1292
g1155
(dp1323
g62
g102
sg63
g546
sg64
g150
sg65
g541
sg66
g545
stRp1324
ag1
(g1292
g1155
(dp1325
g62
g74
sg63
g513
sg64
g384
sg65
g508
sg66
g512
stRp1326
ag1
(g1292
g1155
(dp1327
g62
g102
sg63
g122
sg64
g114
sg65
g117
sg66
g121
stRp1328
ag1
(g1292
g1155
(dp1329
g62
g102
sg63
g557
sg64
g101
sg65
g552
sg66
g556
stRp1330
ag1
(g1292
g1155
(dp1331
g62
g102
sg63
g336
sg64
g150
sg65
g331
sg66
g335
stRp1332
ag1
(g1292
g1155
(dp1333
g62
g74
sg63
g964
sg64
g384
sg65
g959
sg66
g963
stRp1334
ag1
(g1292
g1155
(dp1335
g62
g74
sg63
g942
sg64
g73
sg65
g937
sg66
g941
stRp1336
ag1
(g1292
g1155
(dp1337
g62
g102
sg63
g755
sg64
g101
sg65
g750
sg66
g754
stRp1338
ag1
(g1292
g1155
(dp1339
g62
g74
sg63
g788
sg64
g73
sg65
g783
sg66
g787
stRp1340
ag1
(g1292
g1155
(dp1341
g62
g74
sg63
g96
sg64
g88
sg65
g91
sg66
g95
stRp1342
ag1
(g1292
g1155
(dp1343
g62
g102
sg63
g898
sg64
g126
sg65
g893
sg66
g897
stRp1344
ag1
(g1292
g1155
(dp1345
g62
g74
sg63
g259
sg64
g251
sg65
g254
sg66
g258
stRp1346
ag1
(g1292
g1155
(dp1347
g62
g74
sg63
g777
sg64
g384
sg65
g772
sg66
g776
stRp1348
ag1
(g1292
g1155
(dp1349
g62
g102
sg63
g214
sg64
g114
sg65
g209
sg66
g213
stRp1350
ag1
(g1292
g1155
(dp1351
g62
g102
sg63
g425
sg64
g150
sg65
g420
sg66
g424
stRp1352
ag1
(g1292
g1155
(dp1353
g62
g102
sg63
g1085
sg64
g101
sg65
g1080
sg66
g1084
stRp1354
ag1
(g1292
g1155
(dp1355
g62
g102
sg63
g270
sg64
g101
sg65
g265
sg66
g269
stRp1356
ag1
(g1292
g1155
(dp1357
g62
g74
sg63
g1063
sg64
g384
sg65
g1058
sg66
g1062
stRp1358
ag1
(g1292
g1155
(dp1359
g62
g74
sg63
g854
sg64
g251
sg65
g849
sg66
g853
stRp1360
ag1
(g1292
g1155
(dp1361
g62
g74
sg63
g711
sg64
g251
sg65
g706
sg66
g710
stRp1362
ag1
(g1292
g1155
(dp1363
g62
g102
sg63
g733
sg64
g114
sg65
g728
sg66
g732
stRp1364
ag1
(g1292
g1155
(dp1365
g62
g102
sg63
g134
sg64
g126
sg65
g129
sg66
g133
stRp1366
ag1
(g1292
g1155
(dp1367
g62
g102
sg63
g1030
sg64
g138
sg65
g1025
sg66
g1029
stRp1368
ag1
(g1292
g1155
(dp1369
g62
g74
sg63
g491
sg64
g251
sg65
g486
sg66
g490
stRp1370
ag1
(g1292
g1155
(dp1371
g62
g74
sg63
g645
sg64
g384
sg65
g640
sg66
g644
stRp1372
ag1
(g1292
g1155
(dp1373
g62
g74
sg63
g392
sg64
g384
sg65
g387
sg66
g391
stRp1374
ag1
(g1292
g1155
(dp1375
g62
g102
sg63
g180
sg64
g114
sg65
g175
sg66
g179
stRp1376
ag1
(g1292
g1155
(dp1377
g62
g74
sg63
g458
sg64
g251
sg65
g453
sg66
g457
stRp1378
ag1
(g1292
g1155
(dp1379
g62
g74
sg63
g535
sg64
g73
sg65
g530
sg66
g534
stRp1380
ag1
(g1292
g1155
(dp1381
g62
g74
sg63
g1074
sg64
g251
sg65
g1069
sg66
g1073
stRp1382
ag1
(g1292
g1155
(dp1383
g62
g74
sg63
g225
sg64
g88
sg65
g220
sg66
g224
stRp1384
ag1
(g1292
g1155
(dp1385
g62
g102
sg63
g909
sg64
g150
sg65
g904
sg66
g908
stRp1386
ag1
(g1292
g1155
(dp1387
g62
g102
sg63
g414
sg64
g150
sg65
g409
sg66
g413
stRp1388
ag1
(g1292
g1155
(dp1389
g62
g74
sg63
g744
sg64
g384
sg65
g739
sg66
g743
stRp1390
ag1
(g1292
g1155
(dp1391
g62
g74
sg63
g169
sg64
g73
sg65
g164
sg66
g168
stRp1392
ag1
(g1292
g1155
(dp1393
g62
g74
sg63
g502
sg64
g384
sg65
g497
sg66
g501
stRp1394
ag1
(g1292
g1155
(dp1395
g62
g74
sg63
g524
sg64
g251
sg65
g519
sg66
g523
stRp1396
ag1
(g1292
g1155
(dp1397
g62
g74
sg63
g358
sg64
g73
sg65
g353
sg66
g357
stRp1398
ag1
(g1292
g1155
(dp1399
g62
g102
sg63
g1041
sg64
g114
sg65
g1036
sg66
g1040
stRp1400
ag1
(g1292
g1155
(dp1401
g62
g102
sg63
g997
sg64
g195
sg65
g992
sg66
g996
stRp1402
ag1
(g1292
g1155
(dp1403
g62
g74
sg63
g347
sg64
g73
sg65
g342
sg66
g346
stRp1404
ag1
(g1292
g1155
(dp1405
g62
g74
sg63
g678
sg64
g251
sg65
g673
sg66
g677
stRp1406
ag1
(g1292
g1155
(dp1407
g62
g74
sg63
g1052
sg64
g251
sg65
g1047
sg66
g1051
stRp1408
ag1
(g1292
g1155
(dp1409
g62
g102
sg63
g369
sg64
g114
sg65
g364
sg66
g368
stRp1410
ag1
(g1292
g1155
(dp1411
g62
g74
sg63
g865
sg64
g251
sg65
g860
sg66
g864
stRp1412
ag1
(g1292
g1155
(dp1413
g62
g74
sg63
g634
sg64
g251
sg65
g629
sg66
g633
stRp1414
ag1
(g1292
g1155
(dp1415
g62
g74
sg63
g689
sg64
g251
sg65
g684
sg66
g688
stRp1416
ag1
(g1292
g1155
(dp1417
g62
g102
sg63
g700
sg64
g126
sg65
g695
sg66
g699
stRp1418
ag1
(g1292
g1155
(dp1419
g62
g74
sg63
g623
sg64
g251
sg65
g618
sg66
g622
stRp1420
ag1
(g1292
g1155
(dp1421
g62
g102
sg63
g203
sg64
g195
sg65
g198
sg66
g202
stRp1422
ag1
(g1292
g1155
(dp1423
g62
g74
sg63
g84
sg64
g73
sg65
g78
sg66
g83
stRp1424
ag1
(g1292
g1155
(dp1425
g62
g102
sg63
g303
sg64
g101
sg65
g298
sg66
g302
stRp1426
ag1
(g1292
g1155
(dp1427
g62
g74
sg63
g292
sg64
g251
sg65
g287
sg66
g291
stRp1428
ag1
(g1292
g1155
(dp1429
g62
g74
sg63
g403
sg64
g384
sg65
g398
sg66
g402
stRp1430
ag1
(g1292
g1155
(dp1431
g62
g102
sg63
g1118
sg64
g150
sg65
g1113
sg66
g1117
stRp1432
ag1
(g1292
g1155
(dp1433
g62
g74
sg63
g1140
sg64
g251
sg65
g1135
sg66
g1139
stRp1434
ag1
(g1292
g1155
(dp1435
g62
g102
sg63
g110
sg64
g101
sg65
g105
sg66
g109
stRp1436
ag1
(g1292
g1155
(dp1437
g62
g102
sg63
g953
sg64
g126
sg65
g948
sg66
g952
stRp1438
ag1
(g1292
g1155
(dp1439
g62
g74
sg63
g986
sg64
g88
sg65
g981
sg66
g985
stRp1440
ag1
(g1292
g1155
(dp1441
g62
g74
sg63
g1129
sg64
g251
sg65
g1124
sg66
g1128
stRp1442
ag1
(g1292
g1155
(dp1443
g62
g74
sg63
g590
sg64
g73
sg65
g585
sg66
g589
stRp1444
ag1
(g1292
g1155
(dp1445
g62
g102
sg63
g480
sg64
g195
sg65
g475
sg66
g479
stRp1446
ag1
(g1292
g1155
(dp1447
g62
g102
sg63
g612
sg64
g101
sg65
g607
sg66
g611
stRp1448
ag1
(g1292
g1155
(dp1449
g62
g102
sg63
g667
sg64
g150
sg65
g662
sg66
g666
stRp1450
ag1
(g1292
g1155
(dp1451
g62
g74
sg63
g380
sg64
g251
sg65
g375
sg66
g379
stRp1452
ag1
(g1292
g1155
(dp1453
g62
g74
sg63
g601
sg64
g73
sg65
g596
sg66
g600
stRp1454
ag1
(g1292
g1155
(dp1455
g62
g102
sg63
g191
sg64
g150
sg65
g186
sg66
g190
stRp1456
ag1
(g1292
g1155
(dp1457
g62
g74
sg63
g1008
sg64
g384
sg65
g1003
sg66
g1007
stRp1458
ag1
(g1292
g1155
(dp1459
g62
g102
sg63
g920
sg64
g101
sg65
g915
sg66
g919
stRp1460
ag1
(g1292
g1155
(dp1461
g62
g74
sg63
g931
sg64
g384
sg65
g926
sg66
g930
stRp1462
ag1
(g1292
g1155
(dp1463
g62
g74
sg63
g722
sg64
g251
sg65
g717
sg66
g721
stRp1464
ag1
(g1292
g1155
(dp1465
g62
g102
sg63
g821
sg64
g195
sg65
g816
sg66
g820
stRp1466
ag1
(g1292
g1155
(dp1467
g62
g102
sg63
g247
sg64
g195
sg65
g242
sg66
g246
stRp1468
ag1
(g1292
g1155
(dp1469
g62
g102
sg63
g843
sg64
g126
sg65
g838
sg66
g842
stRp1470
ag1
(g1292
g1155
(dp1471
g62
g102
sg63
g579
sg64
g126
sg65
g574
sg66
g578
stRp1472
ag1
(g1292
g1155
(dp1473
g62
g74
sg63
g766
sg64
g384
sg65
g761
sg66
g765
stRp1474
ag1
(g1292
g1155
(dp1475
g62
g102
sg63
g832
sg64
g195
sg65
g827
sg66
g831
stRp1476
ag1
(g1292
g1155
(dp1477
g62
g102
sg63
g876
sg64
g126
sg65
g871
sg66
g875
stRp1478
ag1
(g1292
g1155
(dp1479
g62
g102
sg63
g158
sg64
g150
sg65
g153
sg66
g157
stRp1480
ag1
(g1292
g1155
(dp1481
g62
g74
sg63
g656
sg64
g73
sg65
g651
sg66
g655
stRp1482
ag1
(g1292
g1155
(dp1483
g62
g74
sg63
g436
sg64
g384
sg65
g431
sg66
g435
stRp1484
asS'seed'
p1485
NsS'thisIndex'
p1486
g1137
sS'thisN'
p1487
I96
sS'thisTrialN'
p1488
I0
sS'nTotal'
p1489
I96
sS'_warnUseOfNext'
p1490
I01
sbasS'savePickle'
p1491
I00
sb.