ccopy_reg
_reconstructor
p1
(cpsychopy.data
ExperimentHandler
p2
c__builtin__
object
p3
NtRp4
(dp5
S'originPath'
p6
NsS'dataFileName'
p7
VC:\u005cDocuments and Settings\u005cExperimental user\u005cMy Documents\u005cconsciousness\u005cuncon_feat\u005cexperiment_scripts\u005cdata/alvaro_Experiment_EEG_version_2019_may_16_1118
p8
sS'runtimeInfo'
p9
NsS'name'
p10
VExperiment_EEG_version
p11
sS'dataNames'
p12
(lp13
S'image_onset_time'
p14
aS'response_window'
p15
aS'correctAns'
p16
aS'probe_onset'
p17
aS'discrim_resptime'
p18
aS'response.corr'
p19
aS'response.keys'
p20
aS'response.rt'
p21
aS'visible_resptime'
p22
aS'visible.keys'
p23
aS'visible.corr'
p24
aS'visible.rt'
p25
aS'probeFrames'
p26
aS'jitter2'
p27
asS'autoLog'
p28
I01
sS'extraInfo'
p29
(dp30
Vn_square
p31
V32
p32
sVexperiment_color
p33
Vbw
p34
sS'frameRate'
p35
cnumpy.core.multiarray
scalar
p36
(cnumpy
dtype
p37
(S'f8'
I0
I1
tRp38
(I3
S'<'
NNNI-1
I-1
I0
tbS'\xb2\x1c\xe6\xa7\xfa\xf1X@'
tRp39
sS'date'
p40
V2019_may_16_1118
p41
sVsession
p42
V008
p43
sVimage_size
p44
V256
p45
sVpremask_dur
p46
V20
p47
sVprobeFrames
p48
V5
sVparticipant
p49
Valvaro
p50
sS'expName'
p51
g11
sVpostmask_dur
p52
V20
p53
ssS'loopsUnfinished'
p54
(lp55
sS'saveWideText'
p56
I00
sS'thisEntry'
p57
(dp58
sS'version'
p59
S''
sS'_paramNamesSoFar'
p60
(lp61
S'category'
p62
aS'probe_path'
p63
aS'subcategory'
p64
aS'fixation_duration'
p65
aS'label'
p66
asS'entries'
p67
(lp68
(dp69
g31
g32
sg17
F3.7418090767459944
sg24
I0
sg35
g39
sg14
F3.7187231783755124
sg16
g36
(g37
(S'i4'
I0
I1
tRp70
(I3
S'<'
NNNI-1
I-1
I0
tbS'\x02\x00\x00\x00'
tRp71
sg42
g43
sg46
g47
sg15
S'V_nV'
p72
sg22
F5.6037564037833363
sg64
VVehicles
p73
sg62
VNonliving_Things
p74
sg49
g50
sS'trials.thisN'
p75
I0
sg19
I1
sg27
g36
(g38
S'\x00\x00\x00\x00\x00\x00\x1e@'
tRp76
sg52
g53
sg23
S'2'
sg18
F5.001403579255566
sg33
g34
sg51
g11
sg20
S'2'
sg65
g36
(g37
(S'i8'
I0
I1
tRp77
(I3
S'<'
NNNI-1
I-1
I0
tbS'\x00\x00\x00\x00\x00\x00\x00\x00'
tRp78
sg44
g45
sg40
g41
sg25
F0.40109114651568234
sS'trials.thisIndex'
p79
g36
(g37
(S'i4'
I0
I1
tRp80
(I3
S'<'
NNNI-1
I-1
I0
tbS'\x07\x00\x00\x00'
tRp81
sg26
V5
sS'trials.thisRepN'
p82
I0
sg66
Vboat
p83
sg63
V../experiment_stimuli/bw_bc_bl/Nonliving_Things/Vehicles/boat_22.jpg
p84
sg21
F0.57150117622222751
sS'trials.thisTrialN'
p85
I0
sa(dp86
g31
g32
sg17
F7.7421924283262342
sg24
I0
sg35
g39
sg14
F7.7374479589052498
sg16
g36
(g70
S'\x02\x00\x00\x00'
tRp87
sg42
g43
sg46
g47
sg15
g72
sg22
F9.4618235224625096
sg64
VKitchen_Uten
p88
sg62
g74
sg49
g50
sS'trials.thisN'
p89
I1
sg19
I1
sg27
g36
(g38
S'\x00\x00\x00\x00\x00\x00\x18@'
tRp90
sg52
g53
sg23
S'2'
sg18
F9.0000991199631244
sg33
g34
sg51
g11
sg20
S'2'
sg65
g36
(g77
S'\x00\x00\x00\x00\x00\x00\x00\x00'
tRp91
sg44
g45
sg40
g41
sg25
F0.39108041417784989
sS'trials.thisIndex'
p92
g36
(g80
S'\x12\x00\x00\x00'
tRp93
sg26
V5
sS'trials.thisRepN'
p94
I0
sg66
Vcoking-pot
p95
sg63
V../experiment_stimuli/bw_bc_bl/Nonliving_Things/Kitchen_Uten/coking-pot_10.jpg
p96
sg21
F0.44119165139272809
sS'trials.thisTrialN'
p97
I1
sa(dp98
g31
g32
sg17
F11.590809580869973
sg24
I0
sg35
g39
sg14
F11.585816502105445
sg16
g36
(g70
S'\x01\x00\x00\x00'
tRp99
sg42
g43
sg46
g47
sg15
S'nV_V'
p100
sg22
F13.620862763142213
sg64
VBuildings
p101
sg62
g74
sg49
g50
sS'trials.thisN'
p102
I2
sg19
I1
sg27
g36
(g38
S'\x00\x00\x00\x00\x00\x00\x1c@'
tRp103
sg52
g53
sg23
S'2'
sg18
F12.838442427222617
sg33
g34
sg51
g11
sg20
S'1'
sg65
g36
(g77
S'\x00\x00\x00\x00\x00\x00\x00\x00'
tRp104
sg44
g45
sg40
g41
sg25
F0.49130745639558882
sS'trials.thisIndex'
p105
g36
(g80
S'#\x00\x00\x00'
tRp106
sg26
V5
sS'trials.thisRepN'
p107
I0
sg66
Vgranary
p108
sg63
V../experiment_stimuli/bw_bc_bl/Nonliving_Things/Buildings/granary_6.jpg
p109
sg21
F0.76188269769772887
sS'trials.thisTrialN'
p110
I2
sa(dp111
g31
g32
sg17
F15.849967925227247
sg24
I1
sg35
g39
sg14
F15.845074446871877
sg16
g36
(g70
S'\x01\x00\x00\x00'
tRp112
sg42
g43
sg46
g47
sg15
g72
sg22
F17.429154692799784
sg64
VMarine_creatures
p113
sg62
VLiving_Things
p114
sg49
g50
sS'trials.thisN'
p115
I3
sg19
I1
sg27
g36
(g38
S'\x00\x00\x00\x00\x00\x00\x18@'
tRp116
sg52
g53
sg23
S'1'
sg18
F17.087676996830851
sg33
g34
sg51
g11
sg20
S'1'
sg65
g36
(g77
S'\x00\x00\x00\x00\x00\x00\x00\x00'
tRp117
sg44
g45
sg40
g41
sg25
F0.39107088046148419
sS'trials.thisIndex'
p118
g36
(g80
S'P\x00\x00\x00'
tRp119
sg26
V5
sS'trials.thisRepN'
p120
I0
sg66
Vsperm-whale
p121
sg63
V../experiment_stimuli/bw_bc_bl/Living_Things/Marine_creatures/sperm-whale_24.jpg
p122
sg21
F0.32093081332277507
sS'trials.thisTrialN'
p123
I3
sa(dp124
g31
g32
sg17
F19.558576432755217
sg24
I0
sg35
g39
sg14
F19.553129864274524
sg16
g36
(g70
S'\x01\x00\x00\x00'
tRp125
sg42
g43
sg46
g47
sg15
g72
sg22
F21.638312189257704
sg64
VAnimals
p126
sg62
g114
sg49
g50
sS'trials.thisN'
p127
I4
sg19
I1
sg27
g36
(g38
S'\x00\x00\x00\x00\x00\x00\x1a@'
tRp128
sg52
g53
sg23
S'2'
sg18
F20.81577882275451
sg33
g34
sg51
g11
sg20
S'1'
sg65
g36
(g77
S'\x00\x00\x00\x00\x00\x00\x00\x00'
tRp129
sg44
g45
sg40
g41
sg25
F0.40108966536354274
sS'trials.thisIndex'
p130
g36
(g80
S'_\x00\x00\x00'
tRp131
sg26
V5
sS'trials.thisRepN'
p132
I0
sg66
Vzebra
p133
sg63
V../experiment_stimuli/bw_bc_bl/Living_Things/Animals/zebra_25.jpg
p134
sg21
F0.80196937173604965
sS'trials.thisTrialN'
p135
I4
sa(dp136
g31
g32
sg17
F23.777216842514463
sg24
I1
sg35
g39
sg14
F23.772305916878395
sg16
g36
(g70
S'\x02\x00\x00\x00'
tRp137
sg42
g43
sg46
g47
sg15
g72
sg22
F25.647006410290487
sg64
VFurniture
p138
sg62
g74
sg49
g50
sS'trials.thisN'
p139
I5
sg19
I1
sg27
g36
(g38
S'\x00\x00\x00\x00\x00\x00\x1e@'
tRp140
sg52
g53
sg23
S'1'
sg18
F25.024925559991971
sg33
g34
sg51
g11
sg20
S'2'
sg65
g36
(g77
S'\x00\x00\x00\x00\x00\x00\x00\x00'
tRp141
sg44
g45
sg40
g41
sg25
F0.4712469051592052
sS'trials.thisIndex'
p142
g36
(g80
S'\x08\x00\x00\x00'
tRp143
sg26
V5
sS'trials.thisRepN'
p144
I0
sg66
Vbookcase
p145
sg63
V../experiment_stimuli/bw_bc_bl/Nonliving_Things/Furniture/bookcase_5.jpg
p146
sg21
F0.60154021612834185
sS'trials.thisTrialN'
p147
I5
sa(dp148
g31
g32
sg17
F27.856120418873616
sg24
I1
sg35
g39
sg14
F27.851166753098369
sg16
g36
(g70
S'\x01\x00\x00\x00'
tRp149
sg42
g43
sg46
g47
sg15
g100
sg22
F30.818260376574472
sg64
g138
sg62
g74
sg49
g50
sS'trials.thisN'
p150
I6
sg19
I1
sg27
g36
(g38
S'\x00\x00\x00\x00\x00\x00\x18@'
tRp151
sg52
g53
sg23
S'1'
sg18
F29.113819147576578
sg33
g34
sg51
g11
sg20
S'1'
sg65
g36
(g77
S'\x00\x00\x00\x00\x00\x00\x00\x00'
tRp152
sg44
g45
sg40
g41
sg25
F0.40110664651729167
sS'trials.thisIndex'
p153
g36
(g80
S'\x0f\x00\x00\x00'
tRp154
sg26
V5
sS'trials.thisRepN'
p155
I0
sg66
Vchair
p156
sg63
V../experiment_stimuli/bw_bc_bl/Nonliving_Things/Furniture/chair_13.jpg
p157
sg21
F1.6838851959910244
sS'trials.thisTrialN'
p158
I6
sa(dp159
g31
g32
sg17
F32.95713463134598
sg24
I0
sg35
g39
sg14
F32.95225997234229
sg16
g36
(g70
S'\x02\x00\x00\x00'
tRp160
sg42
g43
sg46
g47
sg15
g100
sg22
F35.207834417000413
sg64
VInsects
p161
sg62
g114
sg49
g50
sS'trials.thisN'
p162
I7
sg19
I1
sg27
g36
(g38
S'\x00\x00\x00\x00\x00\x00 @'
tRp163
sg52
g53
sg23
S'2'
sg18
F34.244988360791467
sg33
g34
sg51
g11
sg20
S'2'
sg65
g36
(g77
S'\x00\x00\x00\x00\x00\x00\x00\x00'
tRp164
sg44
g45
sg40
g41
sg25
F0.70175178442150354
sS'trials.thisIndex'
p165
g36
(g80
S'-\x00\x00\x00'
tRp166
sg26
V5
sS'trials.thisRepN'
p167
I0
sg66
Vladybird
p168
sg63
V../experiment_stimuli/bw_bc_bl/Living_Things/Insects/ladybird_17.jpg
p169
sg21
F0.94230511377099901
sS'trials.thisTrialN'
p170
I7
sa(dp171
g31
g32
sg17
F37.647399005014449
sg24
I0
sg35
g39
sg14
F37.642468286212534
sg16
g36
(g70
S'\x02\x00\x00\x00'
tRp172
sg42
g43
sg46
g47
sg15
g100
sg22
F39.637444621301256
sg64
g126
sg62
g114
sg49
g50
sS'trials.thisN'
p173
I8
sg19
I1
sg27
g36
(g38
S'\x00\x00\x00\x00\x00\x00\x1c@'
tRp174
sg52
g53
sg23
S'2'
sg18
F38.925142615567893
sg33
g34
sg51
g11
sg20
S'2'
sg65
g36
(g77
S'\x00\x00\x00\x00\x00\x00\x00\x00'
tRp175
sg44
g45
sg40
g41
sg25
F0.38106899370905012
sS'trials.thisIndex'
p176
g36
(g80
S'0\x00\x00\x00'
tRp177
sg26
V5
sS'trials.thisRepN'
p178
I0
sg66
Vlioness
p179
sg63
V../experiment_stimuli/bw_bc_bl/Living_Things/Animals/lioness_12.jpg
p180
sg21
F0.69173488637898117
sS'trials.thisTrialN'
p181
I8
sa(dp182
g31
g32
sg17
F41.756458781077527
sg24
I0
sg35
g39
sg14
F41.751385771087371
sg16
g36
(g70
S'\x01\x00\x00\x00'
tRp183
sg42
g43
sg46
g47
sg15
g100
sg22
F43.676335733151063
sg64
g138
sg62
g74
sg49
g50
sS'trials.thisN'
p184
I9
sg19
I1
sg27
g36
(g38
S'\x00\x00\x00\x00\x00\x00\x1a@'
tRp185
sg52
g53
sg23
S'2'
sg18
F43.024049240280874
sg33
g34
sg51
g11
sg20
S'1'
sg65
g36
(g77
S'\x00\x00\x00\x00\x00\x00\x00\x00'
tRp186
sg44
g45
sg40
g41
sg25
F0.44117592973634601
sS'trials.thisIndex'
p187
g36
(g80
S'E\x00\x00\x00'
tRp188
sg26
V5
sS'trials.thisRepN'
p189
I0
sg66
Vrocking-chair
p190
sg63
V../experiment_stimuli/bw_bc_bl/Nonliving_Things/Furniture/rocking-chair_3.jpg
p191
sg21
F0.63172951654996723
sS'trials.thisTrialN'
p192
I9
sa(dp193
g31
g32
sg17
F45.855143577908166
sg24
I1
sg35
g39
sg14
F45.850292233983055
sg16
g36
(g70
S'\x01\x00\x00\x00'
tRp194
sg42
g43
sg46
g47
sg15
g72
sg22
F47.494523295084946
sg64
g126
sg62
g114
sg49
g50
sS'trials.thisN'
p195
I10
sg19
I1
sg27
g36
(g38
S'\x00\x00\x00\x00\x00\x00\x1c@'
tRp196
sg52
g53
sg23
S'1'
sg18
F47.112940278719179
sg33
g34
sg51
g11
sg20
S'1'
sg65
g36
(g77
S'\x00\x00\x00\x00\x00\x00\x00\x00'
tRp197
sg44
g45
sg40
g41
sg25
F0.3810455579077825
sS'trials.thisIndex'
p198
g36
(g80
S'R\x00\x00\x00'
tRp199
sg26
V5
sS'trials.thisRepN'
p200
I0
sg66
Vtapir
p201
sg63
V../experiment_stimuli/bw_bc_bl/Living_Things/Animals/tapir_5.jpg
p202
sg21
F0.36102374689653516
sS'trials.thisTrialN'
p203
I10
sa(dp204
g31
g32
sg17
F49.614509565173648
sg24
I1
sg35
g39
sg14
F49.608463283395395
sg16
g36
(g70
S'\x01\x00\x00\x00'
tRp205
sg42
g43
sg46
g47
sg15
g72
sg22
F51.994293791358359
sg64
VBirds
p206
sg62
g114
sg49
g50
sS'trials.thisN'
p207
I11
sg19
I1
sg27
g36
(g38
S'\x00\x00\x00\x00\x00\x00\x1c@'
tRp208
sg52
g53
sg23
S'1'
sg18
F50.901176273589954
sg33
g34
sg51
g11
sg20
S'1'
sg65
g36
(g77
S'\x00\x00\x00\x00\x00\x00\x00\x00'
tRp209
sg44
g45
sg40
g41
sg25
F0.43115677253808826
sS'trials.thisIndex'
p210
g36
(g80
S'"\x00\x00\x00'
tRp211
sg26
V5
sS'trials.thisRepN'
p212
I0
sg66
Vgoose
p213
sg63
V../experiment_stimuli/bw_bc_bl/Living_Things/Birds/goose_26.jpg
p214
sg21
F1.0725559025304392
sS'trials.thisTrialN'
p215
I11
sa(dp216
g31
g32
sg17
F54.163218943052925
sg24
I1
sg35
g39
sg14
F54.158359133405611
sg16
g36
(g70
S'\x01\x00\x00\x00'
tRp217
sg42
g43
sg46
g47
sg15
g100
sg22
F56.754690183093771
sg64
g88
sg62
g74
sg49
g50
sS'trials.thisN'
p218
I12
sg19
I1
sg27
g36
(g38
S'\x00\x00\x00\x00\x00\x00\x18@'
tRp219
sg52
g53
sg23
S'1'
sg18
F55.481133328285068
sg33
g34
sg51
g11
sg20
S'1'
sg65
g36
(g77
S'\x00\x00\x00\x00\x00\x00\x00\x00'
tRp220
sg44
g45
sg40
g41
sg25
F2.0145988583099097
sS'trials.thisIndex'
p221
g36
(g80
S'\x1e\x00\x00\x00'
tRp222
sg26
V5
sS'trials.thisRepN'
p223
I0
sg66
Vfondue
p224
sg63
V../experiment_stimuli/bw_bc_bl/Nonliving_Things/Kitchen_Uten/fondue_7.jpg
p225
sg21
F1.2529491611057892
sS'trials.thisTrialN'
p226
I12
sa(dp227
g31
g32
sg17
F60.507183960056864
sg24
I0
sg35
g39
sg14
F60.502145908423699
sg16
g36
(g70
S'\x01\x00\x00\x00'
tRp228
sg42
g43
sg46
g47
sg15
g100
sg22
F62.447002528817393
sg64
VMusical_Inst
p229
sg62
g74
sg49
g50
sS'trials.thisN'
p230
I13
sg19
I1
sg27
g36
(g38
S'\x00\x00\x00\x00\x00\x00\x18@'
tRp231
sg52
g53
sg23
S'3'
sg18
F61.834940945031121
sg33
g34
sg51
g11
sg20
S'1'
sg65
g36
(g77
S'\x00\x00\x00\x00\x00\x00\x00\x00'
tRp232
sg44
g45
sg40
g41
sg25
F0.62157141393981874
sS'trials.thisIndex'
p233
g36
(g80
S'\\\x00\x00\x00'
tRp234
sg26
V5
sS'trials.thisRepN'
p235
I0
sg66
Vviolin
p236
sg63
V../experiment_stimuli/bw_bc_bl/Nonliving_Things/Musical_Inst/violin_19.jpg
p237
sg21
F0.59151239332277328
sS'trials.thisTrialN'
p238
I13
sa(dp239
g31
g32
sg17
F64.806290830369107
sg24
I0
sg35
g39
sg14
F64.8014879708644
sg16
g36
(g70
S'\x01\x00\x00\x00'
tRp240
sg42
g43
sg46
g47
sg15
g100
sg22
F66.776471185963601
sg64
g138
sg62
g74
sg49
g50
sS'trials.thisN'
p241
I14
sg19
I1
sg27
g36
(g38
S'\x00\x00\x00\x00\x00\x00\x1e@'
tRp242
sg52
g53
sg23
S'2'
sg18
F66.11424253473524
sg33
g34
sg51
g11
sg20
S'1'
sg65
g36
(g77
S'\x00\x00\x00\x00\x00\x00\x00\x00'
tRp243
sg44
g45
sg40
g41
sg25
F0.5915260206675157
sS'trials.thisIndex'
p244
g36
(g80
S'\x00\x00\x00\x00'
tRp245
sg26
V5
sS'trials.thisRepN'
p246
I0
sg66
VChest-of-drawers
p247
sg63
V../experiment_stimuli/bw_bc_bl/Nonliving_Things/Furniture/Chest-of-drawers_16.jpg
p248
sg21
F0.64162446116097271
sS'trials.thisTrialN'
p249
I14
sa(dp250
g31
g32
sg17
F69.105787002947181
sg24
I0
sg35
g39
sg14
F69.100835623219609
sg16
g36
(g70
S'\x01\x00\x00\x00'
tRp251
sg42
g43
sg46
g47
sg15
g100
sg22
F71.16596160386689
sg64
g73
sg62
g74
sg49
g50
sS'trials.thisN'
p252
I15
sg19
I1
sg27
g36
(g38
S'\x00\x00\x00\x00\x00\x00\x18@'
tRp253
sg52
g53
sg23
S'3'
sg18
F70.403566120075993
sg33
g34
sg51
g11
sg20
S'1'
sg65
g36
(g77
S'\x00\x00\x00\x00\x00\x00\x00\x00'
tRp254
sg44
g45
sg40
g41
sg25
F0.40108728944323957
sS'trials.thisIndex'
p255
g36
(g80
S'@\x00\x00\x00'
tRp256
sg26
V5
sS'trials.thisRepN'
p257
I0
sg66
Vplane
p258
sg63
V../experiment_stimuli/bw_bc_bl/Nonliving_Things/Vehicles/plane_19.jpg
p259
sg21
F0.74184555606916547
sS'trials.thisTrialN'
p260
I15
sa(dp261
g31
g32
sg17
F73.305596671300009
sg24
I1
sg35
g39
sg14
F73.299966628197581
sg16
g36
(g70
S'\x01\x00\x00\x00'
tRp262
sg42
g43
sg46
g47
sg15
g72
sg22
F75.044241139781661
sg64
g113
sg62
g114
sg49
g50
sS'trials.thisN'
p263
I16
sg19
I0
sg27
g36
(g38
S'\x00\x00\x00\x00\x00\x00\x1a@'
tRp264
sg52
g53
sg23
S'1'
sg18
F74.582653822028078
sg33
g34
sg51
g11
sg20
S'2'
sg65
g36
(g77
S'\x00\x00\x00\x00\x00\x00\x00\x00'
tRp265
sg44
g45
sg40
g41
sg25
F0.22074628574773669
sS'trials.thisIndex'
p266
g36
(g80
S'^\x00\x00\x00'
tRp267
sg26
V5
sS'trials.thisRepN'
p268
I0
sg66
Vwhale
p269
sg63
V../experiment_stimuli/bw_bc_bl/Living_Things/Marine_creatures/whale_8.jpg
p270
sg21
F0.44102279306389391
sS'trials.thisTrialN'
p271
I16
sa(dp272
g31
g32
sg17
F77.002842484158464
sg24
I0
sg35
g39
sg14
F76.998010121285915
sg16
g36
(g70
S'\x01\x00\x00\x00'
tRp273
sg42
g43
sg46
g47
sg15
g100
sg22
F80.245700688567013
sg64
g138
sg62
g74
sg49
g50
sS'trials.thisN'
p274
I17
sg19
I1
sg27
g36
(g38
S'\x00\x00\x00\x00\x00\x00\x18@'
tRp275
sg52
g53
sg23
S'2'
sg18
F78.290721017634496
sg33
g34
sg51
g11
sg20
S'1'
sg65
g36
(g77
S'\x00\x00\x00\x00\x00\x00\x00\x00'
tRp276
sg44
g45
sg40
g41
sg25
F0.3710465996991843
sS'trials.thisIndex'
p277
g36
(g80
S'N\x00\x00\x00'
tRp278
sg26
V5
sS'trials.thisRepN'
p279
I0
sg66
Vsofa
p280
sg63
V../experiment_stimuli/bw_bc_bl/Nonliving_Things/Furniture/sofa_16.jpg
p281
sg21
F1.934439972625114
sS'trials.thisTrialN'
p282
I17
sa(dp283
g31
g32
sg17
F82.354613913805224
sg24
I0
sg35
g39
sg14
F82.349635996622965
sg16
g36
(g70
S'\x02\x00\x00\x00'
tRp284
sg42
g43
sg46
g47
sg15
g72
sg22
F84.254416754934937
sg64
g101
sg62
g74
sg49
g50
sS'trials.thisN'
p285
I18
sg19
I1
sg27
g36
(g38
S'\x00\x00\x00\x00\x00\x00\x18@'
tRp286
sg52
g53
sg23
S'2'
sg18
F83.632322164368816
sg33
g34
sg51
g11
sg20
S'2'
sg65
g36
(g77
S'\x00\x00\x00\x00\x00\x00\x00\x00'
tRp287
sg44
g45
sg40
g41
sg25
F0.37102868629153818
sS'trials.thisIndex'
p288
g36
(g80
S':\x00\x00\x00'
tRp289
sg26
V5
sS'trials.thisRepN'
p290
I0
sg66
Vpalace
p291
sg63
V../experiment_stimuli/bw_bc_bl/Nonliving_Things/Buildings/palace_16.jpg
p292
sg21
F0.60153959156014025
sS'trials.thisTrialN'
p293
I18
sa(dp294
g31
g32
sg17
F86.363212038413621
sg24
I0
sg35
g39
sg14
F86.358351845294237
sg16
g36
(g70
S'\x01\x00\x00\x00'
tRp295
sg42
g43
sg46
g47
sg15
g72
sg22
F88.132842935738154
sg64
g126
sg62
g114
sg49
g50
sS'trials.thisN'
p296
I19
sg19
I0
sg27
g36
(g38
S'\x00\x00\x00\x00\x00\x00\x1e@'
tRp297
sg52
g53
sg23
S'2'
sg18
F87.63101890811231
sg33
g34
sg51
g11
sg20
S'2'
sg65
g36
(g77
S'\x00\x00\x00\x00\x00\x00\x00\x00'
tRp298
sg44
g45
sg40
g41
sg25
F0.3209135279757902
sS'trials.thisIndex'
p299
g36
(g80
S'\r\x00\x00\x00'
tRp300
sg26
V5
sS'trials.thisRepN'
p301
I0
sg66
Vcat
p302
sg63
V../experiment_stimuli/bw_bc_bl/Living_Things/Animals/cat_18.jpg
p303
sg21
F0.48127051745541394
sS'trials.thisTrialN'
p304
I19
sa(dp305
g31
g32
sg17
F90.191595943411812
sg24
I0
sg35
g39
sg14
F90.186675134347752
sg16
g36
(g70
S'\x02\x00\x00\x00'
tRp306
sg42
g43
sg46
g47
sg15
g72
sg22
F92.101483609993011
sg64
g88
sg62
g74
sg49
g50
sS'trials.thisN'
p307
I20
sg19
I1
sg27
g36
(g38
S'\x00\x00\x00\x00\x00\x00\x1a@'
tRp308
sg52
g53
sg23
S'2'
sg18
F91.449324318324216
sg33
g34
sg51
g11
sg20
S'2'
sg65
g36
(g77
S'\x00\x00\x00\x00\x00\x00\x00\x00'
tRp309
sg44
g45
sg40
g41
sg25
F0.37102250999305397
sS'trials.thisIndex'
p310
g36
(g80
S'B\x00\x00\x00'
tRp311
sg26
V5
sS'trials.thisRepN'
p312
I0
sg66
Vpot
p313
sg63
V../experiment_stimuli/bw_bc_bl/Nonliving_Things/Kitchen_Uten/pot_25.jpg
p314
sg21
F0.63161366106942296
sS'trials.thisTrialN'
p315
I20
sa(dp316
g31
g32
sg17
F94.211822946672328
sg24
I1
sg35
g39
sg14
F94.205416523618624
sg16
g36
(g70
S'\x01\x00\x00\x00'
tRp317
sg42
g43
sg46
g47
sg15
g72
sg22
F95.55899225117173
sg64
g206
sg62
g114
sg49
g50
sS'trials.thisN'
p318
I21
sg19
I1
sg27
g36
(g38
S'\x00\x00\x00\x00\x00\x00\x18@'
tRp319
sg52
g53
sg23
S'1'
sg18
F95.458031230838969
sg33
g34
sg51
g11
sg20
S'1'
sg65
g36
(g77
S'\x00\x00\x00\x00\x00\x00\x00\x00'
tRp320
sg44
g45
sg40
g41
sg25
F0.41111493168864399
sS'trials.thisIndex'
p321
g36
(g80
S'!\x00\x00\x00'
tRp322
sg26
V5
sS'trials.thisRepN'
p323
I0
sg66
Vgoldfinch
p324
sg63
V../experiment_stimuli/bw_bc_bl/Living_Things/Birds/goldfinch_11.jpg
p325
sg21
F0.080400231992825866
sS'trials.thisTrialN'
p326
I21
sa(dp327
g31
g32
sg17
F97.70801251498051
sg24
I0
sg35
g39
sg14
F97.703009323566221
sg16
g36
(g70
S'\x02\x00\x00\x00'
tRp328
sg42
g43
sg46
g47
sg15
g100
sg22
F99.838287498918362
sg64
g126
sg62
g114
sg49
g50
sS'trials.thisN'
p329
I22
sg19
I1
sg27
g36
(g38
S'\x00\x00\x00\x00\x00\x00\x18@'
tRp330
sg52
g53
sg23
S'2'
sg18
F98.985709682689048
sg33
g34
sg51
g11
sg20
S'2'
sg65
g36
(g77
S'\x00\x00\x00\x00\x00\x00\x00\x00'
tRp331
sg44
g45
sg40
g41
sg25
F0.41111185261979699
sS'trials.thisIndex'
p332
g36
(g80
S'2\x00\x00\x00'
tRp333
sg26
V5
sS'trials.thisRepN'
p334
I0
sg66
Vlynx
p335
sg63
V../experiment_stimuli/bw_bc_bl/Living_Things/Animals/lynx_5.jpg
p336
sg21
F0.83202755020465702
sS'trials.thisTrialN'
p337
I22
sa(dp338
g31
g32
sg17
F101.98803777853027
sg24
I0
sg35
g39
sg14
F101.9823210638715
sg16
g36
(g70
S'\x02\x00\x00\x00'
tRp339
sg42
g43
sg46
g47
sg15
g72
sg22
F103.83697819011286
sg64
VTools
p340
sg62
g74
sg49
g50
sS'trials.thisN'
p341
I23
sg19
I1
sg27
g36
(g38
S'\x00\x00\x00\x00\x00\x00\x1c@'
tRp342
sg52
g53
sg23
S'2'
sg18
F103.25498029217124
sg33
g34
sg51
g11
sg20
S'2'
sg65
g36
(g77
S'\x00\x00\x00\x00\x00\x00\x00\x00'
tRp343
sg44
g45
sg40
g41
sg25
F0.34097496280446649
sS'trials.thisIndex'
p344
g36
(g80
S'%\x00\x00\x00'
tRp345
sg26
V5
sS'trials.thisRepN'
p346
I0
sg66
Vhammer
p347
sg63
V../experiment_stimuli/bw_bc_bl/Nonliving_Things/Tools/hammer_21.jpg
p348
sg21
F0.56144923344254494
sS'trials.thisTrialN'
p349
I23
sa(dp350
g31
g32
sg17
F105.9158495713491
sg24
I1
sg35
g39
sg14
F105.91085237276275
sg16
g36
(g70
S'\x02\x00\x00\x00'
tRp351
sg42
g43
sg46
g47
sg15
g100
sg22
F107.25442884105723
sg64
g126
sg62
g114
sg49
g50
sS'trials.thisN'
p352
I24
sg19
I0
sg27
g36
(g38
S'\x00\x00\x00\x00\x00\x00\x1a@'
tRp353
sg52
g53
sg23
S'1'
sg18
F107.1735061617801
sg33
g34
sg51
g11
sg20
S'1'
sg65
g36
(g77
S'\x00\x00\x00\x00\x00\x00\x00\x00'
tRp354
sg44
g45
sg40
g41
sg25
F0.3309561510104686
sS'trials.thisIndex'
p355
g36
(g80
S'\x1b\x00\x00\x00'
tRp356
sg26
V5
sS'trials.thisRepN'
p357
I0
sg66
Velephant
p358
sg63
V../experiment_stimuli/bw_bc_bl/Living_Things/Animals/elephant_16.jpg
p359
sg21
F0.060361515497788787
sS'trials.thisTrialN'
p360
I24
sa(dp361
g31
g32
sg17
F109.32317620585673
sg24
I0
sg35
g39
sg14
F109.31826228019781
sg16
g36
(g70
S'\x01\x00\x00\x00'
tRp362
sg42
g43
sg46
g47
sg15
g100
sg22
F111.60389945621137
sg64
g73
sg62
g74
sg49
g50
sS'trials.thisN'
p363
I25
sg19
I1
sg27
g36
(g38
S'\x00\x00\x00\x00\x00\x00\x1e@'
tRp364
sg52
g53
sg23
S'3'
sg18
F110.59094476385508
sg33
g34
sg51
g11
sg20
S'1'
sg65
g36
(g77
S'\x00\x00\x00\x00\x00\x00\x00\x00'
tRp365
sg44
g45
sg40
g41
sg25
F0.30087184894364327
sS'trials.thisIndex'
p366
g36
(g80
S'L\x00\x00\x00'
tRp367
sg26
V5
sS'trials.thisRepN'
p368
I0
sg66
Vship
p369
sg63
V../experiment_stimuli/bw_bc_bl/Nonliving_Things/Vehicles/ship_0.jpg
p370
sg21
F0.99239693419076502
sS'trials.thisTrialN'
p371
I25
sa(dp372
g31
g32
sg17
F113.64428206533194
sg24
I1
sg35
g39
sg14
F113.63765288214199
sg16
g36
(g70
S'\x01\x00\x00\x00'
tRp373
sg42
g43
sg46
g47
sg15
g100
sg22
F115.22172910196241
sg64
g138
sg62
g74
sg49
g50
sS'trials.thisN'
p374
I26
sg19
I0
sg27
g36
(g38
S'\x00\x00\x00\x00\x00\x00\x18@'
tRp375
sg52
g53
sg23
S'1'
sg18
F114.88025195489172
sg33
g34
sg51
g11
sg20
S'2'
sg65
g36
(g77
S'\x00\x00\x00\x00\x00\x00\x00\x00'
tRp376
sg44
g45
sg40
g41
sg25
F0.37102241965476424
sS'trials.thisIndex'
p377
g36
(g80
S'Q\x00\x00\x00'
tRp378
sg26
V5
sS'trials.thisRepN'
p379
I0
sg66
Vtable
p380
sg63
V../experiment_stimuli/bw_bc_bl/Nonliving_Things/Furniture/table_22.jpg
p381
sg21
F0.31090453977230936
sS'trials.thisTrialN'
p382
I26
sa(dp383
g31
g32
sg17
F117.33057747862767
sg24
I1
sg35
g39
sg14
F117.32566980854608
sg16
g36
(g70
S'\x01\x00\x00\x00'
tRp384
sg42
g43
sg46
g47
sg15
g100
sg22
F118.95984775805846
sg64
g229
sg62
g74
sg49
g50
sS'trials.thisN'
p385
I27
sg19
I0
sg27
g36
(g38
S'\x00\x00\x00\x00\x00\x00\x18@'
tRp386
sg52
g53
sg23
S'1'
sg18
F118.57829816977028
sg33
g34
sg51
g11
sg20
S'2'
sg65
g36
(g77
S'\x00\x00\x00\x00\x00\x00\x00\x00'
tRp387
sg44
g45
sg40
g41
sg25
F0.23072539852000773
sS'trials.thisIndex'
p388
g36
(g80
S'>\x00\x00\x00'
tRp389
sg26
V5
sS'trials.thisRepN'
p390
I0
sg66
Vpiano
p391
sg63
V../experiment_stimuli/bw_bc_bl/Nonliving_Things/Musical_Inst/piano__0.jpg
p392
sg21
F0.36100694653578103
sS'trials.thisTrialN'
p393
I27
sa(dp394
g31
g32
sg17
F120.92829958174843
sg24
I0
sg35
g39
sg14
F120.92349252686836
sg16
g36
(g70
S'\x01\x00\x00\x00'
tRp395
sg42
g43
sg46
g47
sg15
g100
sg22
F122.7280602727551
sg64
g138
sg62
g74
sg49
g50
sS'trials.thisN'
p396
I28
sg19
I1
sg27
g36
(g38
S'\x00\x00\x00\x00\x00\x00\x18@'
tRp397
sg52
g53
sg23
S'3'
sg18
F122.19616108969785
sg33
g34
sg51
g11
sg20
S'1'
sg65
g36
(g77
S'\x00\x00\x00\x00\x00\x00\x00\x00'
tRp398
sg44
g45
sg40
g41
sg25
F0.35100546176545322
sS'trials.thisIndex'
p399
g36
(g80
S'\x13\x00\x00\x00'
tRp400
sg26
V5
sS'trials.thisRepN'
p401
I0
sg66
Vcouch
p402
sg63
V../experiment_stimuli/bw_bc_bl/Nonliving_Things/Furniture/couch_20.jpg
p403
sg21
F0.51133675570599735
sS'trials.thisTrialN'
p404
I28
sa(dp405
g31
g32
sg17
F124.81681617803406
sg24
I1
sg35
g39
sg14
F124.81195549224503
sg16
g36
(g70
S'\x02\x00\x00\x00'
tRp406
sg42
g43
sg46
g47
sg15
g100
sg22
F126.45615664403886
sg64
g206
sg62
g114
sg49
g50
sS'trials.thisN'
p407
I29
sg19
I1
sg27
g36
(g38
S'\x00\x00\x00\x00\x00\x00 @'
tRp408
sg52
g53
sg23
S'1'
sg18
F126.05454314011149
sg33
g34
sg51
g11
sg20
S'2'
sg65
g36
(g77
S'\x00\x00\x00\x00\x00\x00\x00\x00'
tRp409
sg44
g45
sg40
g41
sg25
F0.25076356658246368
sS'trials.thisIndex'
p410
g36
(g80
S',\x00\x00\x00'
tRp411
sg26
V5
sS'trials.thisRepN'
p412
I0
sg66
Vkiwi
p413
sg63
V../experiment_stimuli/bw_bc_bl/Living_Things/Birds/kiwi_26.jpg
p414
sg21
F0.38106469297781587
sS'trials.thisTrialN'
p415
I29
sa(dp416
g31
g32
sg17
F128.44482268567663
sg24
I1
sg35
g39
sg14
F128.43982152070384
sg16
g36
(g70
S'\x01\x00\x00\x00'
tRp417
sg42
g43
sg46
g47
sg15
g72
sg22
F130.81563192012254
sg64
g161
sg62
g114
sg49
g50
sS'trials.thisN'
p418
I30
sg19
I0
sg27
g36
(g38
S'\x00\x00\x00\x00\x00\x00\x1a@'
tRp419
sg52
g53
sg23
S'1'
sg18
F129.69245332549326
sg33
g34
sg51
g11
sg20
S'2'
sg65
g36
(g77
S'\x00\x00\x00\x00\x00\x00\x00\x00'
tRp420
sg44
g45
sg40
g41
sg25
F0.28082737664226443
sS'trials.thisIndex'
p421
g36
(g80
S'I\x00\x00\x00'
tRp422
sg26
V5
sS'trials.thisRepN'
p423
I0
sg66
Vscorpion
p424
sg63
V../experiment_stimuli/bw_bc_bl/Living_Things/Insects/scorpion_19.jpg
p425
sg21
F1.102619118639268
sS'trials.thisTrialN'
p426
I30
sa(dp427
g31
g32
sg17
F132.83430600201245
sg24
I1
sg35
g39
sg14
F132.8293677570764
sg16
g36
(g70
S'\x01\x00\x00\x00'
tRp428
sg42
g43
sg46
g47
sg15
g72
sg22
F134.92457438597921
sg64
g126
sg62
g114
sg49
g50
sS'trials.thisN'
p429
I31
sg19
I1
sg27
g36
(g38
S'\x00\x00\x00\x00\x00\x00\x18@'
tRp430
sg52
g53
sg23
S'1'
sg18
F134.11206112371292
sg33
g34
sg51
g11
sg20
S'1'
sg65
g36
(g77
S'\x00\x00\x00\x00\x00\x00\x00\x00'
tRp431
sg44
g45
sg40
g41
sg25
F0.28083127131685615
sS'trials.thisIndex'
p432
g36
(g80
S'(\x00\x00\x00'
tRp433
sg26
V5
sS'trials.thisRepN'
p434
I0
sg66
Vhorse
p435
sg63
V../experiment_stimuli/bw_bc_bl/Living_Things/Animals/horse_3.jpg
p436
sg21
F0.7919542781310156
sS'trials.thisTrialN'
p437
I31
sa(dp438
g31
g32
sg17
F136.94323128741235
sg24
I1
sg35
g39
sg14
F136.93830629065633
sg16
g36
(g70
S'\x01\x00\x00\x00'
tRp439
sg42
g43
sg46
g47
sg15
g100
sg22
F138.91323925834149
sg64
g73
sg62
g74
sg49
g50
sS'trials.thisN'
p440
I32
sg19
I1
sg27
g36
(g38
S'\x00\x00\x00\x00\x00\x00 @'
tRp441
sg52
g53
sg23
S'1'
sg18
F138.25105909153353
sg33
g34
sg51
g11
sg20
S'1'
sg65
g36
(g77
S'\x00\x00\x00\x00\x00\x00\x00\x00'
tRp442
sg44
g45
sg40
g41
sg25
F0.26078900950960815
sS'trials.thisIndex'
p443
g36
(g80
S'W\x00\x00\x00'
tRp444
sg26
V5
sS'trials.thisRepN'
p445
I0
sg66
Vtrain
p446
sg63
V../experiment_stimuli/bw_bc_bl/Nonliving_Things/Vehicles/train_1.jpg
p447
sg21
F0.6416124802781269
sS'trials.thisTrialN'
p448
I32
sa(dp449
g31
g32
sg17
F140.91180897760205
sg24
I1
sg35
g39
sg14
F140.90693229960743
sg16
g36
(g70
S'\x02\x00\x00\x00'
tRp450
sg42
g43
sg46
g47
sg15
g72
sg22
F143.04220324556809
sg64
g229
sg62
g74
sg49
g50
sS'trials.thisN'
p451
I33
sg19
I1
sg27
g36
(g38
S'\x00\x00\x00\x00\x00\x00\x18@'
tRp452
sg52
g53
sg23
S'1'
sg18
F142.22970801708288
sg33
g34
sg51
g11
sg20
S'2'
sg65
g36
(g77
S'\x00\x00\x00\x00\x00\x00\x00\x00'
tRp453
sg44
g45
sg40
g41
sg25
F0.29085651121567935
sS'trials.thisIndex'
p454
g36
(g80
S'\x19\x00\x00\x00'
tRp455
sg26
V5
sS'trials.thisRepN'
p456
I0
sg66
Vdrum
p457
sg63
V../experiment_stimuli/bw_bc_bl/Nonliving_Things/Musical_Inst/drum_12.jpg
p458
sg21
F0.7919399063102901
sS'trials.thisTrialN'
p459
I33
sa(dp460
g31
g32
sg17
F145.07194751838688
sg24
I0
sg35
g39
sg14
F145.06597170571331
sg16
g36
(g70
S'\x01\x00\x00\x00'
tRp461
sg42
g43
sg46
g47
sg15
g72
sg22
F149.08539677702356
sg64
g206
sg62
g114
sg49
g50
sS'trials.thisN'
p462
I34
sg19
I1
sg27
g36
(g38
S'\x00\x00\x00\x00\x00\x00\x1c@'
tRp463
sg52
g53
sg23
S'3'
sg18
F146.40879195579328
sg33
g34
sg51
g11
sg20
S'1'
sg65
g36
(g77
S'\x00\x00\x00\x00\x00\x00\x00\x00'
tRp464
sg44
g45
sg40
g41
sg25
F0.29084865015465766
sS'trials.thisIndex'
p465
g36
(g80
S'8\x00\x00\x00'
tRp466
sg26
V5
sS'trials.thisRepN'
p467
I0
sg66
Vostrich
p468
sg63
V../experiment_stimuli/bw_bc_bl/Living_Things/Birds/ostrich_15.jpg
p469
sg21
F2.656011649989523
sS'trials.thisTrialN'
p470
I34
sa(dp471
g31
g32
sg17
F151.11400757730007
sg24
I0
sg35
g39
sg14
F151.10910309525207
sg16
g36
(g70
S'\x01\x00\x00\x00'
tRp472
sg42
g43
sg46
g47
sg15
g100
sg22
F153.24442083749454
sg64
g138
sg62
g74
sg49
g50
sS'trials.thisN'
p473
I35
sg19
I1
sg27
g36
(g38
S'\x00\x00\x00\x00\x00\x00\x1e@'
tRp474
sg52
g53
sg23
S'2'
sg18
F152.42186441831291
sg33
g34
sg51
g11
sg20
S'1'
sg65
g36
(g77
S'\x00\x00\x00\x00\x00\x00\x00\x00'
tRp475
sg44
g45
sg40
g41
sg25
F0.54141021252144128
sS'trials.thisIndex'
p476
g36
(g80
S'\x05\x00\x00\x00'
tRp477
sg26
V5
sS'trials.thisRepN'
p478
I0
sg66
Vbed
p479
sg63
V../experiment_stimuli/bw_bc_bl/Nonliving_Things/Furniture/bed_15.jpg
p480
sg21
F0.80197612743359059
sS'trials.thisTrialN'
p481
I35
sa(dp482
g31
g32
sg17
F155.52364139817655
sg24
I0
sg35
g39
sg14
F155.51869250717573
sg16
g36
(g70
S'\x02\x00\x00\x00'
tRp483
sg42
g43
sg46
g47
sg15
g72
sg22
F159.42782751086634
sg64
g88
sg62
g74
sg49
g50
sS'trials.thisN'
p484
I36
sg19
I1
sg27
g36
(g38
S'\x00\x00\x00\x00\x00\x00\x18@'
tRp485
sg52
g53
sg23
S'3'
sg18
F156.82142372219823
sg33
g34
sg51
g11
sg20
S'2'
sg65
g36
(g77
S'\x00\x00\x00\x00\x00\x00\x00\x00'
tRp486
sg44
g45
sg40
g41
sg25
F0.37104728748090565
sS'trials.thisIndex'
p487
g36
(g80
S'\x16\x00\x00\x00'
tRp488
sg26
V5
sS'trials.thisRepN'
p489
I0
sg66
Vcup
p490
sg63
V../experiment_stimuli/bw_bc_bl/Nonliving_Things/Kitchen_Uten/cup_14.jpg
p491
sg21
F2.5858472789404914
sS'trials.thisTrialN'
p492
I36
sa(dp493
g31
g32
sg17
F161.53768969292287
sg24
I0
sg35
g39
sg14
F161.53176372917369
sg16
g36
(g70
S'\x02\x00\x00\x00'
tRp494
sg42
g43
sg46
g47
sg15
g72
sg22
F163.70712902932428
sg64
g229
sg62
g74
sg49
g50
sS'trials.thisN'
p495
I37
sg19
I1
sg27
g36
(g38
S'\x00\x00\x00\x00\x00\x00\x18@'
tRp496
sg52
g53
sg23
S'3'
sg18
F162.80443358526099
sg33
g34
sg51
g11
sg20
S'2'
sg65
g36
(g77
S'\x00\x00\x00\x00\x00\x00\x00\x00'
tRp497
sg44
g45
sg40
g41
sg25
F0.54139350214973092
sS'trials.thisIndex'
p498
g36
(g80
S'Y\x00\x00\x00'
tRp499
sg26
V5
sS'trials.thisRepN'
p500
I0
sg66
Vtuba
p501
sg63
V../experiment_stimuli/bw_bc_bl/Nonliving_Things/Musical_Inst/tuba_18.jpg
p502
sg21
F0.88214371213689446
sS'trials.thisTrialN'
p503
I37
sa(dp504
g31
g32
sg17
F165.98738759057596
sg24
I0
sg35
g39
sg14
F165.98143563070334
sg16
g36
(g70
S'\x02\x00\x00\x00'
tRp505
sg42
g43
sg46
g47
sg15
g72
sg22
F168.03652980411425
sg64
g138
sg62
g74
sg49
g50
sS'trials.thisN'
p506
I38
sg19
I1
sg27
g36
(g38
S'\x00\x00\x00\x00\x00\x00\x18@'
tRp507
sg52
g53
sg23
S'2'
sg18
F167.23406482650898
sg33
g34
sg51
g11
sg20
S'2'
sg65
g36
(g77
S'\x00\x00\x00\x00\x00\x00\x00\x00'
tRp508
sg44
g45
sg40
g41
sg25
F0.37102423165924847
sS'trials.thisIndex'
p509
g36
(g80
S'/\x00\x00\x00'
tRp510
sg26
V5
sS'trials.thisRepN'
p511
I0
sg66
Vlectern
p512
sg63
V../experiment_stimuli/bw_bc_bl/Nonliving_Things/Furniture/lectern_15.jpg
p513
sg21
F0.78192200069315732
sS'trials.thisTrialN'
p514
I38
sa(dp515
g31
g32
sg17
F170.14527527638711
sg24
I1
sg35
g39
sg14
F170.14047833404038
sg16
g36
(g70
S'\x02\x00\x00\x00'
tRp516
sg42
g43
sg46
g47
sg15
g100
sg22
F172.06531630479731
sg64
g113
sg62
g114
sg49
g50
sS'trials.thisN'
p517
I39
sg19
I0
sg27
g36
(g38
S'\x00\x00\x00\x00\x00\x00\x1e@'
tRp518
sg52
g53
sg23
S'1'
sg18
F171.38308164686896
sg33
g34
sg51
g11
sg20
S'1'
sg65
g36
(g77
S'\x00\x00\x00\x00\x00\x00\x00\x00'
tRp519
sg44
g45
sg40
g41
sg25
F0.25077062658965588
sS'trials.thisIndex'
p520
g36
(g80
S'\x17\x00\x00\x00'
tRp521
sg26
V5
sS'trials.thisRepN'
p522
I0
sg66
Vdolphin
p523
sg63
V../experiment_stimuli/bw_bc_bl/Living_Things/Marine_creatures/dolphin_14.jpg
p524
sg21
F0.66167714027687907
sS'trials.thisTrialN'
p525
I39
sa(dp526
g31
g32
sg17
F174.05390991887543
sg24
I1
sg35
g39
sg14
F174.0489755764138
sg16
g36
(g70
S'\x02\x00\x00\x00'
tRp527
sg42
g43
sg46
g47
sg15
g100
sg22
F175.77337328647263
sg64
g126
sg62
g114
sg49
g50
sS'trials.thisN'
p528
I40
sg19
I1
sg27
g36
(g38
S'\x00\x00\x00\x00\x00\x00\x18@'
tRp529
sg52
g53
sg23
S'1'
sg18
F175.30159872327931
sg33
g34
sg51
g11
sg20
S'2'
sg65
g36
(g77
S'\x00\x00\x00\x00\x00\x00\x00\x00'
tRp530
sg44
g45
sg40
g41
sg25
F0.25075932603795081
sS'trials.thisIndex'
p531
g36
(g80
S'Z\x00\x00\x00'
tRp532
sg26
V5
sS'trials.thisRepN'
p533
I0
sg66
Vturtle
p534
sg63
V../experiment_stimuli/bw_bc_bl/Living_Things/Animals/turtle_7.jpg
p535
sg21
F0.45120884280186146
sS'trials.thisTrialN'
p536
I40
sa(dp537
g31
g32
sg17
F177.76289946609177
sg24
I1
sg35
g39
sg14
F177.75705704616848
sg16
g36
(g70
S'\x02\x00\x00\x00'
tRp538
sg42
g43
sg46
g47
sg15
g100
sg22
F179.25093712913804
sg64
g113
sg62
g114
sg49
g50
sS'trials.thisN'
p539
I41
sg19
I1
sg27
g36
(g38
S'\x00\x00\x00\x00\x00\x00\x1e@'
tRp540
sg52
g53
sg23
S'1'
sg18
F179.03972724021878
sg33
g34
sg51
g11
sg20
S'2'
sg65
g36
(g77
S'\x00\x00\x00\x00\x00\x00\x00\x00'
tRp541
sg44
g45
sg40
g41
sg25
F0.1906858590664342
sS'trials.thisIndex'
p542
g36
(g80
S'+\x00\x00\x00'
tRp543
sg26
V5
sS'trials.thisRepN'
p544
I0
sg66
Vkiller-whale
p545
sg63
V../experiment_stimuli/bw_bc_bl/Living_Things/Marine_creatures/killer-whale_0.jpg
p546
sg21
F0.19065510795917362
sS'trials.thisTrialN'
p547
I41
sa(dp548
g31
g32
sg17
F181.1805165882688
sg24
I0
sg35
g39
sg14
F181.17446489317808
sg16
g36
(g70
S'\x02\x00\x00\x00'
tRp549
sg42
g43
sg46
g47
sg15
g100
sg22
F183.06924430583604
sg64
g206
sg62
g114
sg49
g50
sS'trials.thisN'
p550
I42
sg19
I1
sg27
g36
(g38
S'\x00\x00\x00\x00\x00\x00\x18@'
tRp551
sg52
g53
sg23
S'2'
sg18
F182.47720081487205
sg33
g34
sg51
g11
sg20
S'2'
sg65
g36
(g77
S'\x00\x00\x00\x00\x00\x00\x00\x00'
tRp552
sg44
g45
sg40
g41
sg25
F0.29085147369187325
sS'trials.thisIndex'
p553
g36
(g80
S'O\x00\x00\x00'
tRp554
sg26
V5
sS'trials.thisRepN'
p555
I0
sg66
Vsparrow
p556
sg63
V../experiment_stimuli/bw_bc_bl/Living_Things/Birds/sparrow_24.jpg
p557
sg21
F0.57147780410014093
sS'trials.thisTrialN'
p558
I42
sa(dp559
g31
g32
sg17
F185.09787868126296
sg24
I0
sg35
g39
sg14
F185.0929922965588
sg16
g36
(g70
S'\x01\x00\x00\x00'
tRp560
sg42
g43
sg46
g47
sg15
g100
sg22
F186.87749218707904
sg64
g73
sg62
g74
sg49
g50
sS'trials.thisN'
p561
I43
sg19
I1
sg27
g36
(g38
S'\x00\x00\x00\x00\x00\x00\x18@'
tRp562
sg52
g53
sg23
S'2'
sg18
F186.38570224528667
sg33
g34
sg51
g11
sg20
S'1'
sg65
g36
(g77
S'\x00\x00\x00\x00\x00\x00\x00\x00'
tRp563
sg44
g45
sg40
g41
sg25
F0.33093983179423958
sS'trials.thisIndex'
p564
g36
(g80
S'\x0b\x00\x00\x00'
tRp565
sg26
V5
sS'trials.thisRepN'
p566
I0
sg66
Vcar
p567
sg63
V../experiment_stimuli/bw_bc_bl/Nonliving_Things/Vehicles/car_26.jpg
p568
sg21
F0.47124875476583838
sS'trials.thisTrialN'
p569
I43
sa(dp570
g31
g32
sg17
F188.94619875145145
sg24
I0
sg35
g39
sg14
F188.94134947156999
sg16
g36
(g70
S'\x01\x00\x00\x00'
tRp571
sg42
g43
sg46
g47
sg15
g72
sg22
F190.8060381236719
sg64
g113
sg62
g114
sg49
g50
sS'trials.thisN'
p572
I44
sg19
I0
sg27
g36
(g38
S'\x00\x00\x00\x00\x00\x00\x1c@'
tRp573
sg52
g53
sg23
S'2'
sg18
F190.22404883464333
sg33
g34
sg51
g11
sg20
S'2'
sg65
g36
(g77
S'\x00\x00\x00\x00\x00\x00\x00\x00'
tRp574
sg44
g45
sg40
g41
sg25
F0.27083554223645478
sS'trials.thisIndex'
p575
g36
(g80
S'A\x00\x00\x00'
tRp576
sg26
V5
sS'trials.thisRepN'
p577
I0
sg66
Vpomfret
p578
sg63
V../experiment_stimuli/bw_bc_bl/Living_Things/Marine_creatures/pomfret_10.jpg
p579
sg21
F0.56144324853084981
sS'trials.thisTrialN'
p580
I44
sa(dp581
g31
g32
sg17
F192.81469954061322
sg24
I0
sg35
g39
sg14
F192.80976029206067
sg16
g36
(g70
S'\x02\x00\x00\x00'
tRp582
sg42
g43
sg46
g47
sg15
g72
sg22
F194.95505605288781
sg64
g340
sg62
g74
sg49
g50
sS'trials.thisN'
p583
I45
sg19
I1
sg27
g36
(g38
S'\x00\x00\x00\x00\x00\x00 @'
tRp584
sg52
g53
sg23
S'2'
sg18
F194.08242512575816
sg33
g34
sg51
g11
sg20
S'2'
sg65
g36
(g77
S'\x00\x00\x00\x00\x00\x00\x00\x00'
tRp585
sg44
g45
sg40
g41
sg25
F0.25076413445640355
sS'trials.thisIndex'
p586
g36
(g80
S'\x03\x00\x00\x00'
tRp587
sg26
V5
sS'trials.thisRepN'
p588
I0
sg66
Vaxe
p589
sg63
V../experiment_stimuli/bw_bc_bl/Nonliving_Things/Tools/axe_15.jpg
p590
sg21
F0.85207435337360948
sS'trials.thisTrialN'
p591
I45
sa(dp592
g31
g32
sg17
F196.94354430760723
sg24
I0
sg35
g39
sg14
F196.93873912876006
sg16
g36
(g70
S'\x01\x00\x00\x00'
tRp593
sg42
g43
sg46
g47
sg15
g100
sg22
F198.81343785161152
sg64
g138
sg62
g74
sg49
g50
sS'trials.thisN'
p594
I46
sg19
I1
sg27
g36
(g38
S'\x00\x00\x00\x00\x00\x00 @'
tRp595
sg52
g53
sg23
S'3'
sg18
F198.20139314339031
sg33
g34
sg51
g11
sg20
S'1'
sg65
g36
(g77
S'\x00\x00\x00\x00\x00\x00\x00\x00'
tRp596
sg44
g45
sg40
g41
sg25
F0.25078028067946434
sS'trials.thisIndex'
p597
g36
(g80
S'\x02\x00\x00\x00'
tRp598
sg26
V5
sS'trials.thisRepN'
p599
I0
sg66
Varmchair
p600
sg63
V../experiment_stimuli/bw_bc_bl/Nonliving_Things/Furniture/armchair_13.jpg
p601
sg21
F0.59151587053202093
sS'trials.thisTrialN'
p602
I46
sa(dp603
g31
g32
sg17
F200.80208044988103
sg24
I1
sg35
g39
sg14
F200.7971197089646
sg16
g36
(g70
S'\x01\x00\x00\x00'
tRp604
sg42
g43
sg46
g47
sg15
g72
sg22
F202.69189081760123
sg64
g126
sg62
g114
sg49
g50
sS'trials.thisN'
p605
I47
sg19
I0
sg27
g36
(g38
S'\x00\x00\x00\x00\x00\x00\x18@'
tRp606
sg52
g53
sg23
S'1'
sg18
F202.03972612356301
sg33
g34
sg51
g11
sg20
S'2'
sg65
g36
(g77
S'\x00\x00\x00\x00\x00\x00\x00\x00'
tRp607
sg44
g45
sg40
g41
sg25
F0.97233566117938608
sS'trials.thisIndex'
p608
g36
(g80
S'D\x00\x00\x00'
tRp609
sg26
V5
sS'trials.thisRepN'
p610
I0
sg66
Vrhino
p611
sg63
V../experiment_stimuli/bw_bc_bl/Living_Things/Animals/rhino_4.jpg
p612
sg21
F0.63161435630172491
sS'trials.thisTrialN'
p613
I47
sa(dp614
g31
g32
sg17
F205.40432456496637
sg24
I1
sg35
g39
sg14
F205.3971313451184
sg16
g36
(g70
S'\x02\x00\x00\x00'
tRp615
sg42
g43
sg46
g47
sg15
g72
sg22
F207.33197292452678
sg64
g101
sg62
g74
sg49
g50
sS'trials.thisN'
p616
I48
sg19
I1
sg27
g36
(g38
S'\x00\x00\x00\x00\x00\x00\x1a@'
tRp617
sg52
g53
sg23
S'1'
sg18
F206.64975509338547
sg33
g34
sg51
g11
sg20
S'2'
sg65
g36
(g77
S'\x00\x00\x00\x00\x00\x00\x00\x00'
tRp618
sg44
g45
sg40
g41
sg25
F2.766236875555478
sS'trials.thisIndex'
p619
g36
(g80
S'\x0c\x00\x00\x00'
tRp620
sg26
V5
sS'trials.thisRepN'
p621
I0
sg66
Vcastle
p622
sg63
V../experiment_stimuli/bw_bc_bl/Nonliving_Things/Buildings/castle_26.jpg
p623
sg21
F0.66166453540790826
sS'trials.thisTrialN'
p624
I48
sa(dp625
g31
g32
sg17
F211.83620781148784
sg24
I1
sg35
g39
sg14
F211.83111126837321
sg16
g36
(g70
S'\x02\x00\x00\x00'
tRp626
sg42
g43
sg46
g47
sg15
g100
sg22
F213.51554664096329
sg64
g206
sg62
g114
sg49
g50
sS'trials.thisN'
p627
I49
sg19
I0
sg27
g36
(g38
S'\x00\x00\x00\x00\x00\x00\x18@'
tRp628
sg52
g53
sg23
S'1'
sg18
F213.0937597041484
sg33
g34
sg51
g11
sg20
S'1'
sg65
g36
(g77
S'\x00\x00\x00\x00\x00\x00\x00\x00'
tRp629
sg44
g45
sg40
g41
sg25
F1.0124237296404317
sS'trials.thisIndex'
p630
g36
(g80
S'=\x00\x00\x00'
tRp631
sg26
V5
sS'trials.thisRepN'
p632
I0
sg66
Vpenguin
p633
sg63
V../experiment_stimuli/bw_bc_bl/Living_Things/Birds/penguin_11.jpg
p634
sg21
F0.40123688138555735
sS'trials.thisTrialN'
p635
I49
sa(dp636
g31
g32
sg17
F216.26570582948625
sg24
I1
sg35
g39
sg14
F216.26074079924729
sg16
g36
(g70
S'\x01\x00\x00\x00'
tRp637
sg42
g43
sg46
g47
sg15
g72
sg22
F219.12760548584629
sg64
g161
sg62
g114
sg49
g50
sS'trials.thisN'
p638
I50
sg19
I1
sg27
g36
(g38
S'\x00\x00\x00\x00\x00\x00\x1a@'
tRp639
sg52
g53
sg23
S'1'
sg18
F217.5434291997226
sg33
g34
sg51
g11
sg20
S'1'
sg65
g36
(g77
S'\x00\x00\x00\x00\x00\x00\x00\x00'
tRp640
sg44
g45
sg40
g41
sg25
F0.67167857999447733
sS'trials.thisIndex'
p641
g36
(g80
S'\x18\x00\x00\x00'
tRp642
sg26
V5
sS'trials.thisRepN'
p643
I0
sg66
Vdragonfly
p644
sg63
V../experiment_stimuli/bw_bc_bl/Living_Things/Insects/dragonfly_13.jpg
p645
sg21
F1.563621339853853
sS'trials.thisTrialN'
p646
I50
sa(dp647
g31
g32
sg17
F221.53700529492926
sg24
I0
sg35
g39
sg14
F221.5322050784016
sg16
g36
(g70
S'\x02\x00\x00\x00'
tRp648
sg42
g43
sg46
g47
sg15
g72
sg22
F223.56727600074373
sg64
g88
sg62
g74
sg49
g50
sS'trials.thisN'
p649
I51
sg19
I1
sg27
g36
(g38
S'\x00\x00\x00\x00\x00\x00\x1c@'
tRp650
sg52
g53
sg23
S'3'
sg18
F222.84495258214884
sg33
g34
sg51
g11
sg20
S'2'
sg65
g36
(g77
S'\x00\x00\x00\x00\x00\x00\x00\x00'
tRp651
sg44
g45
sg40
g41
sg25
F0.28082403435837477
sS'trials.thisIndex'
p652
g36
(g80
S'G\x00\x00\x00'
tRp653
sg26
V5
sS'trials.thisRepN'
p654
I0
sg66
Vsaucepan
p655
sg63
V../experiment_stimuli/bw_bc_bl/Nonliving_Things/Kitchen_Uten/saucepan_16.jpg
p656
sg21
F0.70175126171670854
sS'trials.thisTrialN'
p657
I51
sa(dp658
g31
g32
sg17
F225.58611251995899
sg24
I0
sg35
g39
sg14
F225.58099987148307
sg16
g36
(g70
S'\x02\x00\x00\x00'
tRp659
sg42
g43
sg46
g47
sg15
g72
sg22
F227.39559833880048
sg64
g73
sg62
g74
sg49
g50
sS'trials.thisN'
p660
I52
sg19
I1
sg27
g36
(g38
S'\x00\x00\x00\x00\x00\x00\x1a@'
tRp661
sg52
g53
sg23
S'3'
sg18
F226.87371047458146
sg33
g34
sg51
g11
sg20
S'2'
sg65
g36
(g77
S'\x00\x00\x00\x00\x00\x00\x00\x00'
tRp662
sg44
g45
sg40
g41
sg25
F0.24129147676285356
sS'trials.thisIndex'
p663
g36
(g80
S'6\x00\x00\x00'
tRp664
sg26
V5
sS'trials.thisRepN'
p665
I0
sg66
Vmotorbike
p666
sg63
V../experiment_stimuli/bw_bc_bl/Nonliving_Things/Vehicles/motorbike_3.jpg
p667
sg21
F0.50131594424601644
sS'trials.thisTrialN'
p668
I52
sa(dp669
g31
g32
sg17
F229.37423323432449
sg24
I1
sg35
g39
sg14
F229.36925653158687
sg16
g36
(g70
S'\x02\x00\x00\x00'
tRp670
sg42
g43
sg46
g47
sg15
g100
sg22
F230.8129980280064
sg64
g206
sg62
g114
sg49
g50
sS'trials.thisN'
p671
I53
sg19
I0
sg27
g36
(g38
S'\x00\x00\x00\x00\x00\x00\x18@'
tRp672
sg52
g53
sg23
S'1'
sg18
F230.63188374962192
sg33
g34
sg51
g11
sg20
S'1'
sg65
g36
(g77
S'\x00\x00\x00\x00\x00\x00\x00\x00'
tRp673
sg44
g45
sg40
g41
sg25
F0.23071257548872381
sS'trials.thisIndex'
p674
g36
(g80
S'F\x00\x00\x00'
tRp675
sg26
V5
sS'trials.thisRepN'
p676
I0
sg66
Vrooster
p677
sg63
V../experiment_stimuli/bw_bc_bl/Living_Things/Birds/rooster_26.jpg
p678
sg21
F0.16056956141255796
sS'trials.thisTrialN'
p679
I53
sa(dp680
g31
g32
sg17
F232.78149931319058
sg24
I0
sg35
g39
sg14
F232.77664844691753
sg16
g36
(g70
S'\x01\x00\x00\x00'
tRp681
sg42
g43
sg46
g47
sg15
g100
sg22
F234.67138463468291
sg64
g73
sg62
g74
sg49
g50
sS'trials.thisN'
p682
I54
sg19
I1
sg27
g36
(g38
S'\x00\x00\x00\x00\x00\x00\x18@'
tRp683
sg52
g53
sg23
S'3'
sg18
F234.06936334283091
sg33
g34
sg51
g11
sg20
S'1'
sg65
g36
(g77
S'\x00\x00\x00\x00\x00\x00\x00\x00'
tRp684
sg44
g45
sg40
g41
sg25
F0.30087154428474605
sS'trials.thisIndex'
p685
g36
(g80
S'[\x00\x00\x00'
tRp686
sg26
V5
sS'trials.thisRepN'
p687
I0
sg66
Vvan
p688
sg63
V../experiment_stimuli/bw_bc_bl/Nonliving_Things/Vehicles/van_25.jpg
p689
sg21
F0.58149209327530116
sS'trials.thisTrialN'
p690
I54
sa(dp691
g31
g32
sg17
F236.71005873451941
sg24
I0
sg35
g39
sg14
F236.70518851862289
sg16
g36
(g70
S'\x02\x00\x00\x00'
tRp692
sg42
g43
sg46
g47
sg15
g72
sg22
F238.48970503325108
sg64
g101
sg62
g74
sg49
g50
sS'trials.thisN'
p693
I55
sg19
I1
sg27
g36
(g38
S'\x00\x00\x00\x00\x00\x00\x18@'
tRp694
sg52
g53
sg23
S'3'
sg18
F237.96783215389587
sg33
g34
sg51
g11
sg20
S'2'
sg65
g36
(g77
S'\x00\x00\x00\x00\x00\x00\x00\x00'
tRp695
sg44
g45
sg40
g41
sg25
F0.21067530219443142
sS'trials.thisIndex'
p696
g36
(g80
S'\x1c\x00\x00\x00'
tRp697
sg26
V5
sS'trials.thisRepN'
p698
I0
sg66
Vfactory
p699
sg63
V../experiment_stimuli/bw_bc_bl/Nonliving_Things/Buildings/factory_4.jpg
p700
sg21
F0.5013137977803126
sS'trials.thisTrialN'
p701
I55
sa(dp702
g31
g32
sg17
F240.43940087710507
sg24
I1
sg35
g39
sg14
F240.43329653248657
sg16
g36
(g70
S'\x02\x00\x00\x00'
tRp703
sg42
g43
sg46
g47
sg15
g100
sg22
F242.20780041604303
sg64
g113
sg62
g114
sg49
g50
sS'trials.thisN'
p704
I56
sg19
I1
sg27
g36
(g38
S'\x00\x00\x00\x00\x00\x00 @'
tRp705
sg52
g53
sg23
S'1'
sg18
F241.67589060880709
sg33
g34
sg51
g11
sg20
S'2'
sg65
g36
(g77
S'\x00\x00\x00\x00\x00\x00\x00\x00'
tRp706
sg44
g45
sg40
g41
sg25
F0.26078189688269049
sS'trials.thisIndex'
p707
g36
(g80
S'K\x00\x00\x00'
tRp708
sg26
V5
sS'trials.thisRepN'
p709
I0
sg66
Vshark
p710
sg63
V../experiment_stimuli/bw_bc_bl/Living_Things/Marine_creatures/shark_1.jpg
p711
sg21
F0.51134132733568549
sS'trials.thisTrialN'
p712
I56
sa(dp713
g31
g32
sg17
F244.20885514840484
sg24
I1
sg35
g39
sg14
F244.20147635589819
sg16
g36
(g70
S'\x02\x00\x00\x00'
tRp714
sg42
g43
sg46
g47
sg15
g100
sg22
F245.72542339924257
sg64
g206
sg62
g114
sg49
g50
sS'trials.thisN'
p715
I57
sg19
I1
sg27
g36
(g38
S'\x00\x00\x00\x00\x00\x00\x1c@'
tRp716
sg52
g53
sg23
S'1'
sg18
F245.46413112990558
sg33
g34
sg51
g11
sg20
S'2'
sg65
g36
(g77
S'\x00\x00\x00\x00\x00\x00\x00\x00'
tRp717
sg44
g45
sg40
g41
sg25
F0.20050179772078991
sS'trials.thisIndex'
p718
g36
(g80
S'C\x00\x00\x00'
tRp719
sg26
V5
sS'trials.thisRepN'
p720
I0
sg66
Vraven
p721
sg63
V../experiment_stimuli/bw_bc_bl/Living_Things/Birds/raven_2.jpg
p722
sg21
F0.24074811208993196
sS'trials.thisTrialN'
p723
I57
sa(dp724
g31
g32
sg17
F247.66386251710355
sg24
I1
sg35
g39
sg14
F247.6589957337128
sg16
g36
(g70
S'\x02\x00\x00\x00'
tRp725
sg42
g43
sg46
g47
sg15
g100
sg22
F249.16292034951039
sg64
g206
sg62
g114
sg49
g50
sS'trials.thisN'
p726
I58
sg19
I0
sg27
g36
(g38
S'\x00\x00\x00\x00\x00\x00\x18@'
tRp727
sg52
g53
sg23
S'1'
sg18
F248.93166457128245
sg33
g34
sg51
g11
sg20
S'1'
sg65
g36
(g77
S'\x00\x00\x00\x00\x00\x00\x00\x00'
tRp728
sg44
g45
sg40
g41
sg25
F4.0991354556754231
sS'trials.thisIndex'
p729
g36
(g80
S'9\x00\x00\x00'
tRp730
sg26
V5
sS'trials.thisRepN'
p731
I0
sg66
Vowl
p732
sg63
V../experiment_stimuli/bw_bc_bl/Living_Things/Birds/owl_18.jpg
p733
sg21
F0.21068110666237772
sS'trials.thisTrialN'
p734
I58
sa(dp735
g31
g32
sg17
F255.00095510797109
sg24
I0
sg35
g39
sg14
F254.99494467570912
sg16
g36
(g70
S'\x02\x00\x00\x00'
tRp736
sg42
g43
sg46
g47
sg15
g72
sg22
F257.60127848444972
sg64
g138
sg62
g74
sg49
g50
sS'trials.thisN'
p737
I59
sg19
I1
sg27
g36
(g38
S'\x00\x00\x00\x00\x00\x00\x1c@'
tRp738
sg52
g53
sg23
S'2'
sg18
F256.29767606733367
sg33
g34
sg51
g11
sg20
S'2'
sg65
g36
(g77
S'\x00\x00\x00\x00\x00\x00\x00\x00'
tRp739
sg44
g45
sg40
g41
sg25
F3.1771304350113496
sS'trials.thisIndex'
p740
g36
(g80
S'.\x00\x00\x00'
tRp741
sg26
V5
sS'trials.thisRepN'
p742
I0
sg66
Vlamp
p743
sg63
V../experiment_stimuli/bw_bc_bl/Nonliving_Things/Furniture/lamp_5.jpg
p744
sg21
F1.2830442413687706
sS'trials.thisTrialN'
p745
I59
sa(dp746
g31
g32
sg17
F262.51629088295158
sg24
I0
sg35
g39
sg14
F262.5113003985025
sg16
g36
(g70
S'\x01\x00\x00\x00'
tRp747
sg42
g43
sg46
g47
sg15
g72
sg22
F264.42607977299485
sg64
g126
sg62
g114
sg49
g50
sS'trials.thisN'
p748
I60
sg19
I1
sg27
g36
(g38
S'\x00\x00\x00\x00\x00\x00\x1c@'
tRp749
sg52
g53
sg23
S'3'
sg18
F263.7939756376436
sg33
g34
sg51
g11
sg20
S'1'
sg65
g36
(g77
S'\x00\x00\x00\x00\x00\x00\x00\x00'
tRp750
sg44
g45
sg40
g41
sg25
F0.24074383394327015
sS'trials.thisIndex'
p751
g36
(g80
S' \x00\x00\x00'
tRp752
sg26
V5
sS'trials.thisRepN'
p753
I0
sg66
Vgiraffe
p754
sg63
V../experiment_stimuli/bw_bc_bl/Living_Things/Animals/giraffe_12.jpg
p755
sg21
F0.61155834293458611
sS'trials.thisTrialN'
p756
I60
sa(dp757
g31
g32
sg17
F266.40465579368174
sg24
I1
sg35
g39
sg14
F266.39974221389275
sg16
g36
(g70
S'\x01\x00\x00\x00'
tRp758
sg42
g43
sg46
g47
sg15
g72
sg22
F269.01606338692363
sg64
g126
sg62
g114
sg49
g50
sS'trials.thisN'
p759
I61
sg19
I1
sg27
g36
(g38
S'\x00\x00\x00\x00\x00\x00\x18@'
tRp760
sg52
g53
sg23
S'1'
sg18
F267.65237996599171
sg33
g34
sg51
g11
sg20
S'1'
sg65
g36
(g77
S'\x00\x00\x00\x00\x00\x00\x00\x00'
tRp761
sg44
g45
sg40
g41
sg25
F0.33093752362765372
sS'trials.thisIndex'
p762
g36
(g80
S'\x01\x00\x00\x00'
tRp763
sg26
V5
sS'trials.thisRepN'
p764
I0
sg66
Varmadillo
p765
sg63
V../experiment_stimuli/bw_bc_bl/Living_Things/Animals/armadillo_18.jpg
p766
sg21
F1.3431475348770618
sS'trials.thisTrialN'
p767
I61
sa(dp768
g31
g32
sg17
F271.08479561656713
sg24
I0
sg35
g39
sg14
F271.07990443496965
sg16
g36
(g70
S'\x01\x00\x00\x00'
tRp769
sg42
g43
sg46
g47
sg15
g72
sg22
F272.97465999843553
sg64
g113
sg62
g114
sg49
g50
sS'trials.thisN'
p770
I62
sg19
I1
sg27
g36
(g38
S'\x00\x00\x00\x00\x00\x00\x18@'
tRp771
sg52
g53
sg23
S'3'
sg18
F272.35258674202487
sg33
g34
sg51
g11
sg20
S'1'
sg65
g36
(g77
S'\x00\x00\x00\x00\x00\x00\x00\x00'
tRp772
sg44
g45
sg40
g41
sg25
F0.27081235859077424
sS'trials.thisIndex'
p773
g36
(g80
S'1\x00\x00\x00'
tRp774
sg26
V5
sS'trials.thisRepN'
p775
I0
sg66
Vlobster
p776
sg63
V../experiment_stimuli/bw_bc_bl/Living_Things/Marine_creatures/lobster_5.jpg
p777
sg21
F0.59150730317924172
sS'trials.thisTrialN'
p778
I62
sa(dp779
g31
g32
sg17
F274.9832633936312
sg24
I0
sg35
g39
sg14
F274.97840392589569
sg16
g36
(g70
S'\x02\x00\x00\x00'
tRp780
sg42
g43
sg46
g47
sg15
g72
sg22
F276.87313756847288
sg64
g138
sg62
g74
sg49
g50
sS'trials.thisN'
p781
I63
sg19
I0
sg27
g36
(g38
S'\x00\x00\x00\x00\x00\x00\x18@'
tRp782
sg52
g53
sg23
S'3'
sg18
F276.2209860625444
sg33
g34
sg51
g11
sg20
S'1'
sg65
g36
(g77
S'\x00\x00\x00\x00\x00\x00\x00\x00'
tRp783
sg44
g45
sg40
g41
sg25
F0.37102547578979284
sS'trials.thisIndex'
p784
g36
(g80
S'\x1d\x00\x00\x00'
tRp785
sg26
V5
sS'trials.thisRepN'
p786
I0
sg66
Vfilling-cabinet
p787
sg63
V../experiment_stimuli/bw_bc_bl/Nonliving_Things/Furniture/filling-cabinet_10.jpg
p788
sg21
F0.63159626279957592
sS'trials.thisTrialN'
p789
I63
sa(dp790
g31
g32
sg17
F278.98328846809454
sg24
I1
sg35
g39
sg14
F278.9771078764461
sg16
g36
(g70
S'\x01\x00\x00\x00'
tRp791
sg42
g43
sg46
g47
sg15
g100
sg22
F281.23263187461998
sg64
g88
sg62
g74
sg49
g50
sS'trials.thisN'
p792
I64
sg19
I0
sg27
g36
(g38
S'\x00\x00\x00\x00\x00\x00\x1a@'
tRp793
sg52
g53
sg23
S'1'
sg18
F280.21967835153919
sg33
g34
sg51
g11
sg20
S'2'
sg65
g36
(g77
S'\x00\x00\x00\x00\x00\x00\x00\x00'
tRp794
sg44
g45
sg40
g41
sg25
F0.25076404388528317
sS'trials.thisIndex'
p795
g36
(g80
S'S\x00\x00\x00'
tRp796
sg26
V5
sS'trials.thisRepN'
p797
I0
sg66
Vteapot
p798
sg63
V../experiment_stimuli/bw_bc_bl/Nonliving_Things/Kitchen_Uten/teapot_18.jpg
p799
sg21
F0.98236579576041549
sS'trials.thisTrialN'
p800
I64
sa(dp801
g31
g32
sg17
F283.22244314791169
sg24
I1
sg35
g39
sg14
F283.21629282250069
sg16
g36
(g70
S'\x02\x00\x00\x00'
tRp802
sg42
g43
sg46
g47
sg15
g100
sg22
F285.22130255133379
sg64
g126
sg62
g114
sg49
g50
sS'trials.thisN'
p803
I65
sg19
I1
sg27
g36
(g38
S'\x00\x00\x00\x00\x00\x00\x1a@'
tRp804
sg52
g53
sg23
S'1'
sg18
F284.46891837567091
sg33
g34
sg51
g11
sg20
S'2'
sg65
g36
(g77
S'\x00\x00\x00\x00\x00\x00\x00\x00'
tRp805
sg44
g45
sg40
g41
sg25
F0.25061429804190993
sS'trials.thisIndex'
p806
g36
(g80
S'\x14\x00\x00\x00'
tRp807
sg26
V5
sS'trials.thisRepN'
p808
I0
sg66
Vcow
p809
sg63
V../experiment_stimuli/bw_bc_bl/Living_Things/Animals/cow_21.jpg
p810
sg21
F0.72179262130521238
sS'trials.thisTrialN'
p811
I65
sa(dp812
g31
g32
sg17
F287.20988310186658
sg24
I1
sg35
g39
sg14
F287.20495966868475
sg16
g36
(g70
S'\x02\x00\x00\x00'
tRp813
sg42
g43
sg46
g47
sg15
g72
sg22
F288.56856590672396
sg64
g138
sg62
g74
sg49
g50
sS'trials.thisN'
p814
I66
sg19
I1
sg27
g36
(g38
S'\x00\x00\x00\x00\x00\x00\x1e@'
tRp815
sg52
g53
sg23
S'1'
sg18
F288.46761121717282
sg33
g34
sg51
g11
sg20
S'2'
sg65
g36
(g77
S'\x00\x00\x00\x00\x00\x00\x00\x00'
tRp816
sg44
g45
sg40
g41
sg25
F0.16057188436388969
sS'trials.thisIndex'
p817
g36
(g80
S'\x06\x00\x00\x00'
tRp818
sg26
V5
sS'trials.thisRepN'
p819
I0
sg66
Vbedside-table
p820
sg63
V../experiment_stimuli/bw_bc_bl/Nonliving_Things/Furniture/bedside-table_18.jpg
p821
sg21
F0.080407731700688601
sS'trials.thisTrialN'
p822
I66
sa(dp823
g31
g32
sg17
F290.46688161068596
sg24
I0
sg35
g39
sg14
F290.46205183817074
sg16
g36
(g70
S'\x02\x00\x00\x00'
tRp824
sg42
g43
sg46
g47
sg15
g100
sg22
F292.32673796371091
sg64
g161
sg62
g114
sg49
g50
sS'trials.thisN'
p825
I67
sg19
I1
sg27
g36
(g38
S'\x00\x00\x00\x00\x00\x00\x1a@'
tRp826
sg52
g53
sg23
S'3'
sg18
F291.74473757704254
sg33
g34
sg51
g11
sg20
S'2'
sg65
g36
(g77
S'\x00\x00\x00\x00\x00\x00\x00\x00'
tRp827
sg44
g45
sg40
g41
sg25
F0.19063666078727692
sS'trials.thisIndex'
p828
g36
(g80
S'\n\x00\x00\x00'
tRp829
sg26
V5
sS'trials.thisRepN'
p830
I0
sg66
Vbutterfly
p831
sg63
V../experiment_stimuli/bw_bc_bl/Living_Things/Insects/butterfly_11.jpg
p832
sg21
F0.56144560978282243
sS'trials.thisTrialN'
p833
I67
sa(dp834
g31
g32
sg17
F294.25512688746676
sg24
I0
sg35
g39
sg14
F294.25028808473144
sg16
g36
(g70
S'\x02\x00\x00\x00'
tRp835
sg42
g43
sg46
g47
sg15
g100
sg22
F296.31543442595284
sg64
g206
sg62
g114
sg49
g50
sS'trials.thisN'
p836
I68
sg19
I1
sg27
g36
(g38
S'\x00\x00\x00\x00\x00\x00\x18@'
tRp837
sg52
g53
sg23
S'3'
sg18
F295.52295156137552
sg33
g34
sg51
g11
sg20
S'2'
sg65
g36
(g77
S'\x00\x00\x00\x00\x00\x00\x00\x00'
tRp838
sg44
g45
sg40
g41
sg25
F0.32092096423730254
sS'trials.thisIndex'
p839
g36
(g80
S'&\x00\x00\x00'
tRp840
sg26
V5
sS'trials.thisRepN'
p841
I0
sg66
Vhen
p842
sg63
V../experiment_stimuli/bw_bc_bl/Living_Things/Birds/hen_24.jpg
p843
sg21
F0.77192989969626069
sS'trials.thisTrialN'
p844
I68
sa(dp845
g31
g32
sg17
F298.37405653728638
sg24
I1
sg35
g39
sg14
F298.36923062149435
sg16
g36
(g70
S'\x02\x00\x00\x00'
tRp846
sg42
g43
sg46
g47
sg15
g72
sg22
F300.22391195443925
sg64
g101
sg62
g74
sg49
g50
sS'trials.thisN'
p847
I69
sg19
I1
sg27
g36
(g38
S'\x00\x00\x00\x00\x00\x00\x1a@'
tRp848
sg52
g53
sg23
S'1'
sg18
F299.60181769833434
sg33
g34
sg51
g11
sg20
S'2'
sg65
g36
(g77
S'\x00\x00\x00\x00\x00\x00\x00\x00'
tRp849
sg44
g45
sg40
g41
sg25
F0.18065962719265372
sS'trials.thisIndex'
p850
g36
(g80
S'5\x00\x00\x00'
tRp851
sg26
V5
sS'trials.thisRepN'
p852
I0
sg66
Vmill
p853
sg63
V../experiment_stimuli/bw_bc_bl/Nonliving_Things/Buildings/mill_19.jpg
p854
sg21
F0.60153181757777929
sS'trials.thisTrialN'
p855
I69
sa(dp856
g31
g32
sg17
F302.1423442348605
sg24
I1
sg35
g39
sg14
F302.13742134696804
sg16
g36
(g70
S'\x01\x00\x00\x00'
tRp857
sg42
g43
sg46
g47
sg15
g100
sg22
F303.5812153989682
sg64
g229
sg62
g74
sg49
g50
sS'trials.thisN'
p858
I70
sg19
I1
sg27
g36
(g38
S'\x00\x00\x00\x00\x00\x00\x1e@'
tRp859
sg52
g53
sg23
S'1'
sg18
F303.39005127211567
sg33
g34
sg51
g11
sg20
S'1'
sg65
g36
(g77
S'\x00\x00\x00\x00\x00\x00\x00\x00'
tRp860
sg44
g45
sg40
g41
sg25
F0.18061143602244556
sS'trials.thisIndex'
p861
g36
(g80
S'H\x00\x00\x00'
tRp862
sg26
V5
sS'trials.thisRepN'
p863
I0
sg66
Vsaxophone
p864
sg63
V../experiment_stimuli/bw_bc_bl/Nonliving_Things/Musical_Inst/saxophone_16.jpg
p865
sg21
F0.17060390266124159
sS'trials.thisTrialN'
p866
I70
sa(dp867
g31
g32
sg17
F305.49947667086963
sg24
I0
sg35
g39
sg14
F305.49473934422713
sg16
g36
(g70
S'\x02\x00\x00\x00'
tRp868
sg42
g43
sg46
g47
sg15
g72
sg22
F307.29930716170929
sg64
g138
sg62
g74
sg49
g50
sS'trials.thisN'
p869
I71
sg19
I1
sg27
g36
(g38
S'\x00\x00\x00\x00\x00\x00\x18@'
tRp870
sg52
g53
sg23
S'3'
sg18
F306.76739066687878
sg33
g34
sg51
g11
sg20
S'2'
sg65
g36
(g77
S'\x00\x00\x00\x00\x00\x00\x00\x00'
tRp871
sg44
g45
sg40
g41
sg25
F0.23071701906155795
sS'trials.thisIndex'
p872
g36
(g80
S']\x00\x00\x00'
tRp873
sg26
V5
sS'trials.thisRepN'
p874
I0
sg66
Vwardrobe
p875
sg63
V../experiment_stimuli/bw_bc_bl/Nonliving_Things/Furniture/wardrobe_26.jpg
p876
sg21
F0.51134217297658324
sS'trials.thisTrialN'
p877
I71
sa(dp878
g31
g32
sg17
F309.26777884201147
sg24
I1
sg35
g39
sg14
F309.26291220891289
sg16
g36
(g70
S'\x01\x00\x00\x00'
tRp879
sg42
g43
sg46
g47
sg15
g72
sg22
F311.1576633665245
sg64
g126
sg62
g114
sg49
g50
sS'trials.thisN'
p880
I72
sg19
I1
sg27
g36
(g38
S'\x00\x00\x00\x00\x00\x00\x1a@'
tRp881
sg52
g53
sg23
S'1'
sg18
F310.51553837466054
sg33
g34
sg51
g11
sg20
S'1'
sg65
g36
(g77
S'\x00\x00\x00\x00\x00\x00\x00\x00'
tRp882
sg44
g45
sg40
g41
sg25
F0.7017467844998464
sS'trials.thisIndex'
p883
g36
(g80
S"'\x00\x00\x00"
tRp884
sg26
V5
sS'trials.thisRepN'
p885
I0
sg66
Vhippopotamus
p886
sg63
V../experiment_stimuli/bw_bc_bl/Living_Things/Animals/hippopotamus_25.jpg
p887
sg21
F0.62157772958744317
sS'trials.thisTrialN'
p888
I72
sa(dp889
g31
g32
sg17
F313.59717430861201
sg24
I1
sg35
g39
sg14
F313.59233351331204
sg16
g36
(g70
S'\x02\x00\x00\x00'
tRp890
sg42
g43
sg46
g47
sg15
g100
sg22
F315.49709480965976
sg64
g206
sg62
g114
sg49
g50
sS'trials.thisN'
p891
I73
sg19
I1
sg27
g36
(g38
S'\x00\x00\x00\x00\x00\x00\x1c@'
tRp892
sg52
g53
sg23
S'1'
sg18
F314.87501583155245
sg33
g34
sg51
g11
sg20
S'2'
sg65
g36
(g77
S'\x00\x00\x00\x00\x00\x00\x00\x00'
tRp893
sg44
g45
sg40
g41
sg25
F0.30087752954568714
sS'trials.thisIndex'
p894
g36
(g80
S'<\x00\x00\x00'
tRp895
sg26
V5
sS'trials.thisRepN'
p896
I0
sg66
Vpelican
p897
sg63
V../experiment_stimuli/bw_bc_bl/Living_Things/Birds/pelican_22.jpg
p898
sg21
F0.60153430642094463
sS'trials.thisTrialN'
p899
I73
sa(dp900
g31
g32
sg17
F317.53584935946856
sg24
I1
sg35
g39
sg14
F317.53089286305476
sg16
g36
(g70
S'\x01\x00\x00\x00'
tRp901
sg42
g43
sg46
g47
sg15
g72
sg22
F319.51584686397109
sg64
g206
sg62
g114
sg49
g50
sS'trials.thisN'
p902
I74
sg19
I1
sg27
g36
(g38
S'\x00\x00\x00\x00\x00\x00 @'
tRp903
sg52
g53
sg23
S'1'
sg18
F318.82360014645383
sg33
g34
sg51
g11
sg20
S'1'
sg65
g36
(g77
S'\x00\x00\x00\x00\x00\x00\x00\x00'
tRp904
sg44
g45
sg40
g41
sg25
F0.31089526938740164
sS'trials.thisIndex'
p905
g36
(g80
S'?\x00\x00\x00'
tRp906
sg26
V5
sS'trials.thisRepN'
p907
I0
sg66
Vpigeon
p908
sg63
V../experiment_stimuli/bw_bc_bl/Living_Things/Birds/pigeon_9.jpg
p909
sg21
F0.67168797797057778
sS'trials.thisTrialN'
p910
I74
sa(dp911
g31
g32
sg17
F321.56469341577031
sg24
I1
sg35
g39
sg14
F321.55964430409949
sg16
g36
(g70
S'\x02\x00\x00\x00'
tRp912
sg42
g43
sg46
g47
sg15
g100
sg22
F323.28403080371208
sg64
g206
sg62
g114
sg49
g50
sS'trials.thisN'
p913
I75
sg19
I1
sg27
g36
(g38
S'\x00\x00\x00\x00\x00\x00\x1c@'
tRp914
sg52
g53
sg23
S'1'
sg18
F322.87240312749054
sg33
g34
sg51
g11
sg20
S'2'
sg65
g36
(g77
S'\x00\x00\x00\x00\x00\x00\x00\x00'
tRp915
sg44
g45
sg40
g41
sg25
F0.21068082831334323
sS'trials.thisIndex'
p916
g36
(g80
S'U\x00\x00\x00'
tRp917
sg26
V5
sS'trials.thisRepN'
p918
I0
sg66
Vtoucan
p919
sg63
V../experiment_stimuli/bw_bc_bl/Living_Things/Birds/toucan_5.jpg
p920
sg21
F0.39107387291733176
sS'trials.thisTrialN'
p921
I75
sa(dp922
g31
g32
sg17
F325.23255569837056
sg24
I0
sg35
g39
sg14
F325.22762136347592
sg16
g36
(g70
S'\x02\x00\x00\x00'
tRp923
sg42
g43
sg46
g47
sg15
g72
sg22
F327.16230684740003
sg64
g229
sg62
g74
sg49
g50
sS'trials.thisN'
p924
I76
sg19
I0
sg27
g36
(g38
S'\x00\x00\x00\x00\x00\x00 @'
tRp925
sg52
g53
sg23
S'3'
sg18
F326.56042152747978
sg33
g34
sg51
g11
sg20
S'1'
sg65
g36
(g77
S'\x00\x00\x00\x00\x00\x00\x00\x00'
tRp926
sg44
g45
sg40
g41
sg25
F0.30088699155021459
sS'trials.thisIndex'
p927
g36
(g80
S'X\x00\x00\x00'
tRp928
sg26
V5
sS'trials.thisRepN'
p929
I0
sg66
Vtrumpet
p930
sg63
V../experiment_stimuli/bw_bc_bl/Nonliving_Things/Musical_Inst/trumpet_23.jpg
p931
sg21
F0.58133435854688287
sS'trials.thisTrialN'
p932
I76
sa(dp933
g31
g32
sg17
F329.20096739858855
sg24
I0
sg35
g39
sg14
F329.19624324864708
sg16
g36
(g70
S'\x01\x00\x00\x00'
tRp934
sg42
g43
sg46
g47
sg15
g72
sg22
F331.09102299576625
sg64
g113
sg62
g114
sg49
g50
sS'trials.thisN'
p935
I77
sg19
I1
sg27
g36
(g38
S'\x00\x00\x00\x00\x00\x00\x18@'
tRp936
sg52
g53
sg23
S'3'
sg18
F330.49897982808761
sg33
g34
sg51
g11
sg20
S'1'
sg65
g36
(g77
S'\x00\x00\x00\x00\x00\x00\x00\x00'
tRp937
sg44
g45
sg40
g41
sg25
F0.25075836363248527
sS'trials.thisIndex'
p938
g36
(g80
S'4\x00\x00\x00'
tRp939
sg26
V5
sS'trials.thisRepN'
p940
I0
sg66
Vmanatee
p941
sg63
V../experiment_stimuli/bw_bc_bl/Living_Things/Marine_creatures/manatee_23.jpg
p942
sg21
F0.57149287906941026
sS'trials.thisTrialN'
p943
I77
sa(dp944
g31
g32
sg17
F333.07966530474368
sg24
I0
sg35
g39
sg14
F333.07468312804122
sg16
g36
(g70
S'\x01\x00\x00\x00'
tRp945
sg42
g43
sg46
g47
sg15
g100
sg22
F335.01956596609671
sg64
g73
sg62
g74
sg49
g50
sS'trials.thisN'
p946
I78
sg19
I1
sg27
g36
(g38
S'\x00\x00\x00\x00\x00\x00\x18@'
tRp947
sg52
g53
sg23
S'3'
sg18
F334.34734842041507
sg33
g34
sg51
g11
sg20
S'1'
sg65
g36
(g77
S'\x00\x00\x00\x00\x00\x00\x00\x00'
tRp948
sg44
g45
sg40
g41
sg25
F0.29085072933230549
sS'trials.thisIndex'
p949
g36
(g80
S'\t\x00\x00\x00'
tRp950
sg26
V5
sS'trials.thisRepN'
p951
I0
sg66
Vbus
p952
sg63
V../experiment_stimuli/bw_bc_bl/Nonliving_Things/Vehicles/bus_15.jpg
p953
sg21
F0.65164177282713354
sS'trials.thisTrialN'
p954
I78
sa(dp955
g31
g32
sg17
F337.04815153765958
sg24
I1
sg35
g39
sg14
F337.04330326139461
sg16
g36
(g70
S'\x01\x00\x00\x00'
tRp956
sg42
g43
sg46
g47
sg15
g72
sg22
F338.93806126480922
sg64
g206
sg62
g114
sg49
g50
sS'trials.thisN'
p957
I79
sg19
I1
sg27
g36
(g38
S'\x00\x00\x00\x00\x00\x00\x18@'
tRp958
sg52
g53
sg23
S'1'
sg18
F338.29593074286822
sg33
g34
sg51
g11
sg20
S'1'
sg65
g36
(g77
S'\x00\x00\x00\x00\x00\x00\x00\x00'
tRp959
sg44
g45
sg40
g41
sg25
F0.23074420657940209
sS'trials.thisIndex'
p960
g36
(g80
S'\x04\x00\x00\x00'
tRp961
sg26
V5
sS'trials.thisRepN'
p962
I0
sg66
Vbarn-owl
p963
sg63
V../experiment_stimuli/bw_bc_bl/Living_Things/Birds/barn-owl_5.jpg
p964
sg21
F0.62157589115668088
sS'trials.thisTrialN'
p965
I79
sa(dp966
g31
g32
sg17
F340.90647087828256
sg24
I1
sg35
g39
sg14
F340.90169138682541
sg16
g36
(g70
S'\x01\x00\x00\x00'
tRp967
sg42
g43
sg46
g47
sg15
g100
sg22
F343.06704383832403
sg64
g88
sg62
g74
sg49
g50
sS'trials.thisN'
p968
I80
sg19
I1
sg27
g36
(g38
S'\x00\x00\x00\x00\x00\x00\x1a@'
tRp969
sg52
g53
sg23
S'1'
sg18
F342.16434295789804
sg33
g34
sg51
g11
sg20
S'1'
sg65
g36
(g77
S'\x00\x00\x00\x00\x00\x00\x00\x00'
tRp970
sg44
g45
sg40
g41
sg25
F0.43115666729863733
sS'trials.thisIndex'
p971
g36
(g80
S'\x1f\x00\x00\x00'
tRp972
sg26
V5
sS'trials.thisRepN'
p973
I0
sg66
Vfrying-pan
p974
sg63
V../experiment_stimuli/bw_bc_bl/Nonliving_Things/Kitchen_Uten/frying-pan_19.jpg
p975
sg21
F0.88214427256025374
sS'trials.thisTrialN'
p976
I80
sa(dp977
g31
g32
sg17
F345.23599599709269
sg24
I1
sg35
g39
sg14
F345.23110428929795
sg16
g36
(g70
S'\x01\x00\x00\x00'
tRp978
sg42
g43
sg46
g47
sg15
g72
sg22
F347.07575759280007
sg64
g206
sg62
g114
sg49
g50
sS'trials.thisN'
p979
I81
sg19
I1
sg27
g36
(g38
S'\x00\x00\x00\x00\x00\x00\x1e@'
tRp980
sg52
g53
sg23
S'1'
sg18
F346.51379600190558
sg33
g34
sg51
g11
sg20
S'1'
sg65
g36
(g77
S'\x00\x00\x00\x00\x00\x00\x00\x00'
tRp981
sg44
g45
sg40
g41
sg25
F0.28084454929921776
sS'trials.thisIndex'
p982
g36
(g80
S'3\x00\x00\x00'
tRp983
sg26
V5
sS'trials.thisRepN'
p984
I0
sg66
Vmagpie
p985
sg63
V../experiment_stimuli/bw_bc_bl/Living_Things/Birds/magpie_10.jpg
p986
sg21
F0.54140496056061238
sS'trials.thisTrialN'
p987
I81
sa(dp988
g31
g32
sg17
F349.09436914534308
sg24
I1
sg35
g39
sg14
F349.08952256070916
sg16
g36
(g70
S'\x01\x00\x00\x00'
tRp989
sg42
g43
sg46
g47
sg15
g72
sg22
F350.84394045732915
sg64
g126
sg62
g114
sg49
g50
sS'trials.thisN'
p990
I82
sg19
I1
sg27
g36
(g38
S'\x00\x00\x00\x00\x00\x00\x1c@'
tRp991
sg52
g53
sg23
S'1'
sg18
F350.4022466026945
sg33
g34
sg51
g11
sg20
S'1'
sg65
g36
(g77
S'\x00\x00\x00\x00\x00\x00\x00\x00'
tRp992
sg44
g45
sg40
g41
sg25
F0.25077734829392284
sS'trials.thisIndex'
p993
g36
(g80
S'T\x00\x00\x00'
tRp994
sg26
V5
sS'trials.thisRepN'
p995
I0
sg66
Vtiger
p996
sg63
V../experiment_stimuli/bw_bc_bl/Living_Things/Animals/tiger_8.jpg
p997
sg21
F0.42114141979254782
sS'trials.thisTrialN'
p998
I82
sa(dp999
g31
g32
sg17
F352.83270012168214
sg24
I1
sg35
g39
sg14
F352.82761666469742
sg16
g36
(g70
S'\x02\x00\x00\x00'
tRp1000
sg42
g43
sg46
g47
sg15
g100
sg22
F354.7524357639486
sg64
g113
sg62
g114
sg49
g50
sS'trials.thisN'
p1001
I83
sg19
I1
sg27
g36
(g38
S'\x00\x00\x00\x00\x00\x00\x1a@'
tRp1002
sg52
g53
sg23
S'1'
sg18
F354.15040320158005
sg33
g34
sg51
g11
sg20
S'2'
sg65
g36
(g77
S'\x00\x00\x00\x00\x00\x00\x00\x00'
tRp1003
sg44
g45
sg40
g41
sg25
F0.23072412062902004
sS'trials.thisIndex'
p1004
g36
(g80
S'7\x00\x00\x00'
tRp1005
sg26
V5
sS'trials.thisRepN'
p1006
I0
sg66
Vnarwhal
p1007
sg63
V../experiment_stimuli/bw_bc_bl/Living_Things/Marine_creatures/narwhal_23.jpg
p1008
sg21
F0.58148783014621586
sS'trials.thisTrialN'
p1009
I83
sa(dp1010
g31
g32
sg17
F356.72091312834527
sg24
I1
sg35
g39
sg14
F356.71606811147649
sg16
g36
(g70
S'\x01\x00\x00\x00'
tRp1011
sg42
g43
sg46
g47
sg15
g72
sg22
F358.53063472209033
sg64
g206
sg62
g114
sg49
g50
sS'trials.thisN'
p1012
I84
sg19
I1
sg27
g36
(g38
S'\x00\x00\x00\x00\x00\x00\x1a@'
tRp1013
sg52
g53
sg23
S'1'
sg18
F358.0689178268658
sg33
g34
sg51
g11
sg20
S'1'
sg65
g36
(g77
S'\x00\x00\x00\x00\x00\x00\x00\x00'
tRp1014
sg44
g45
sg40
g41
sg25
F0.25075722835026681
sS'trials.thisIndex'
p1015
g36
(g80
S'*\x00\x00\x00'
tRp1016
sg26
V5
sS'trials.thisRepN'
p1017
I0
sg66
Vhummingbird
p1018
sg63
V../experiment_stimuli/bw_bc_bl/Living_Things/Birds/hummingbird_23.jpg
p1019
sg21
F0.44117929064668715
sS'trials.thisTrialN'
p1020
I84
sa(dp1021
g31
g32
sg17
F360.51906979305204
sg24
I0
sg35
g39
sg14
F360.51433184638154
sg16
g36
(g70
S'\x02\x00\x00\x00'
tRp1022
sg42
g43
sg46
g47
sg15
g72
sg22
F362.68973063863814
sg64
g101
sg62
g74
sg49
g50
sS'trials.thisN'
p1023
I85
sg19
I1
sg27
g36
(g38
S'\x00\x00\x00\x00\x00\x00\x1e@'
tRp1024
sg52
g53
sg23
S'3'
sg18
F361.88721486879513
sg33
g34
sg51
g11
sg20
S'2'
sg65
g36
(g77
S'\x00\x00\x00\x00\x00\x00\x00\x00'
tRp1025
sg44
g45
sg40
g41
sg25
F0.43117262201849371
sS'trials.thisIndex'
p1026
g36
(g80
S')\x00\x00\x00'
tRp1027
sg26
V5
sS'trials.thisRepN'
p1028
I0
sg66
Vhouse
p1029
sg63
V../experiment_stimuli/bw_bc_bl/Nonliving_Things/Buildings/house_12.jpg
p1030
sg21
F0.78192816604860127
sS'trials.thisTrialN'
p1031
I85
sa(dp1032
g31
g32
sg17
F364.85855004366022
sg24
I0
sg35
g39
sg14
F364.85376078181434
sg16
g36
(g70
S'\x02\x00\x00\x00'
tRp1033
sg42
g43
sg46
g47
sg15
g72
sg22
F366.76857955032028
sg64
g101
sg62
g74
sg49
g50
sS'trials.thisN'
p1034
I86
sg19
I1
sg27
g36
(g38
S'\x00\x00\x00\x00\x00\x00\x18@'
tRp1035
sg52
g53
sg23
S'3'
sg18
F366.19659469323233
sg33
g34
sg51
g11
sg20
S'2'
sg65
g36
(g77
S'\x00\x00\x00\x00\x00\x00\x00\x00'
tRp1036
sg44
g45
sg40
g41
sg25
F0.5113447931362316
sS'trials.thisIndex'
p1037
g36
(g80
S'\x0e\x00\x00\x00'
tRp1038
sg26
V5
sS'trials.thisRepN'
p1039
I0
sg66
Vcathedral
p1040
sg63
V../experiment_stimuli/bw_bc_bl/Nonliving_Things/Buildings/cathedral_2.jpg
p1041
sg21
F0.55143175681587309
sS'trials.thisTrialN'
p1042
I86
sa(dp1043
g31
g32
sg17
F369.01764355425257
sg24
I0
sg35
g39
sg14
F369.01280705619138
sg16
g36
(g70
S'\x02\x00\x00\x00'
tRp1044
sg42
g43
sg46
g47
sg15
g72
sg22
F372.76161868718918
sg64
g73
sg62
g74
sg49
g50
sS'trials.thisN'
p1045
I87
sg19
I1
sg27
g36
(g38
S'\x00\x00\x00\x00\x00\x00\x18@'
tRp1046
sg52
g53
sg23
S'3'
sg18
F370.32555953017436
sg33
g34
sg51
g11
sg20
S'2'
sg65
g36
(g77
S'\x00\x00\x00\x00\x00\x00\x00\x00'
tRp1047
sg44
g45
sg40
g41
sg25
F0.6215705603826791
sS'trials.thisIndex'
p1048
g36
(g80
S'V\x00\x00\x00'
tRp1049
sg26
V5
sS'trials.thisRepN'
p1050
I0
sg66
Vtractor
p1051
sg63
V../experiment_stimuli/bw_bc_bl/Nonliving_Things/Vehicles/tractor_8.jpg
p1052
sg21
F2.4154924064641818
sS'trials.thisTrialN'
p1053
I87
sa(dp1054
g31
g32
sg17
F375.12091992807109
sg24
I1
sg35
g39
sg14
F375.1160696631996
sg16
g36
(g70
S'\x02\x00\x00\x00'
tRp1055
sg42
g43
sg46
g47
sg15
g100
sg22
F376.98076248820871
sg64
g126
sg62
g114
sg49
g50
sS'trials.thisN'
p1056
I88
sg19
I1
sg27
g36
(g38
S'\x00\x00\x00\x00\x00\x00\x1a@'
tRp1057
sg52
g53
sg23
S'1'
sg18
F376.39876496978104
sg33
g34
sg51
g11
sg20
S'2'
sg65
g36
(g77
S'\x00\x00\x00\x00\x00\x00\x00\x00'
tRp1058
sg44
g45
sg40
g41
sg25
F0.22069985780399293
sS'trials.thisIndex'
p1059
g36
(g80
S'\x10\x00\x00\x00'
tRp1060
sg26
V5
sS'trials.thisRepN'
p1061
I0
sg66
Vcheetah
p1062
sg63
V../experiment_stimuli/bw_bc_bl/Living_Things/Animals/cheetah_25.jpg
p1063
sg21
F0.56144498544745147
sS'trials.thisTrialN'
p1064
I88
sa(dp1065
g31
g32
sg17
F378.93917522625998
sg24
I0
sg35
g39
sg14
F378.93437071260996
sg16
g36
(g70
S'\x01\x00\x00\x00'
tRp1066
sg42
g43
sg46
g47
sg15
g100
sg22
F380.94940342928749
sg64
g229
sg62
g74
sg49
g50
sS'trials.thisN'
p1067
I89
sg19
I1
sg27
g36
(g38
S'\x00\x00\x00\x00\x00\x00\x1a@'
tRp1068
sg52
g53
sg23
S'2'
sg18
F380.24713081773371
sg33
g34
sg51
g11
sg20
S'1'
sg65
g36
(g77
S'\x00\x00\x00\x00\x00\x00\x00\x00'
tRp1069
sg44
g45
sg40
g41
sg25
F0.3309456774732098
sS'trials.thisIndex'
p1070
g36
(g80
S'$\x00\x00\x00'
tRp1071
sg26
V5
sS'trials.thisRepN'
p1072
I0
sg66
Vguitar
p1073
sg63
V../experiment_stimuli/bw_bc_bl/Nonliving_Things/Musical_Inst/guitar_0.jpg
p1074
sg21
F0.68170862388797104
sS'trials.thisTrialN'
p1075
I89
sa(dp1076
g31
g32
sg17
F383.01806890044827
sg24
I1
sg35
g39
sg14
F383.01323396619409
sg16
g36
(g70
S'\x01\x00\x00\x00'
tRp1077
sg42
g43
sg46
g47
sg15
g72
sg22
F385.10844132420607
sg64
g206
sg62
g114
sg49
g50
sS'trials.thisN'
p1078
I90
sg19
I1
sg27
g36
(g38
S'\x00\x00\x00\x00\x00\x00\x1a@'
tRp1079
sg52
g53
sg23
S'1'
sg18
F384.31597550807055
sg33
g34
sg51
g11
sg20
S'1'
sg65
g36
(g77
S'\x00\x00\x00\x00\x00\x00\x00\x00'
tRp1080
sg44
g45
sg40
g41
sg25
F0.25076416414231062
sS'trials.thisIndex'
p1081
g36
(g80
S'\x1a\x00\x00\x00'
tRp1082
sg26
V5
sS'trials.thisRepN'
p1083
I0
sg66
Vduck
p1084
sg63
V../experiment_stimuli/bw_bc_bl/Living_Things/Birds/duck_12.jpg
p1085
sg21
F0.7719018436037004
sS'trials.thisTrialN'
p1086
I90
sa(dp1087
g31
g32
sg17
F387.09692496235948
sg24
I1
sg35
g39
sg14
F387.09212024963927
sg16
g36
(g70
S'\x02\x00\x00\x00'
tRp1088
sg42
g43
sg46
g47
sg15
g72
sg22
F388.96681387093849
sg64
g88
sg62
g74
sg49
g50
sS'trials.thisN'
p1089
I91
sg19
I1
sg27
g36
(g38
S'\x00\x00\x00\x00\x00\x00\x1a@'
tRp1090
sg52
g53
sg23
S'1'
sg18
F388.40486421610694
sg33
g34
sg51
g11
sg20
S'2'
sg65
g36
(g77
S'\x00\x00\x00\x00\x00\x00\x00\x00'
tRp1091
sg44
g45
sg40
g41
sg25
F0.26078304718248546
sS'trials.thisIndex'
p1092
g36
(g80
S'M\x00\x00\x00'
tRp1093
sg26
V5
sS'trials.thisRepN'
p1094
I0
sg66
Vsmall-saucepan
p1095
sg63
V../experiment_stimuli/bw_bc_bl/Nonliving_Things/Kitchen_Uten/small-saucepan_23.jpg
p1096
sg21
F0.54140417859889567
sS'trials.thisTrialN'
p1097
I91
sa(dp1098
g31
g32
sg17
F390.96534460980911
sg24
I1
sg35
g39
sg14
F390.96051966783125
sg16
g36
(g70
S'\x02\x00\x00\x00'
tRp1099
sg42
g43
sg46
g47
sg15
g100
sg22
F392.85528234008234
sg64
g206
sg62
g114
sg49
g50
sS'trials.thisN'
p1100
I92
sg19
I1
sg27
g36
(g38
S'\x00\x00\x00\x00\x00\x00\x18@'
tRp1101
sg52
g53
sg23
S'1'
sg18
F392.28329562593717
sg33
g34
sg51
g11
sg20
S'2'
sg65
g36
(g77
S'\x00\x00\x00\x00\x00\x00\x00\x00'
tRp1102
sg44
g45
sg40
g41
sg25
F0.23073776322416961
sS'trials.thisIndex'
p1103
g36
(g80
S';\x00\x00\x00'
tRp1104
sg26
V5
sS'trials.thisRepN'
p1105
I0
sg66
Vpartridge
p1106
sg63
V../experiment_stimuli/bw_bc_bl/Living_Things/Birds/partridge_16.jpg
p1107
sg21
F0.55142482090741396
sS'trials.thisTrialN'
p1108
I92
sa(dp1109
g31
g32
sg17
F394.82378842972685
sg24
I1
sg35
g39
sg14
F394.81889871438034
sg16
g36
(g70
S'\x02\x00\x00\x00'
tRp1110
sg42
g43
sg46
g47
sg15
g100
sg22
F397.12456194940023
sg64
g113
sg62
g114
sg49
g50
sS'trials.thisN'
p1111
I93
sg19
I1
sg27
g36
(g38
S'\x00\x00\x00\x00\x00\x00\x18@'
tRp1112
sg52
g53
sg23
S'1'
sg18
F396.15170664549805
sg33
g34
sg51
g11
sg20
S'2'
sg65
g36
(g77
S'\x00\x00\x00\x00\x00\x00\x00\x00'
tRp1113
sg44
g45
sg40
g41
sg25
F0.21067646401934326
sS'trials.thisIndex'
p1114
g36
(g80
S'\x15\x00\x00\x00'
tRp1115
sg26
V5
sS'trials.thisRepN'
p1116
I0
sg66
Vcrab
p1117
sg63
V../experiment_stimuli/bw_bc_bl/Living_Things/Marine_creatures/crab_21.jpg
p1118
sg21
F0.95229469262994826
sS'trials.thisTrialN'
p1119
I93
sa(dp1120
g31
g32
sg17
F399.07289417763241
sg24
I0
sg35
g39
sg14
F399.06813979498111
sg16
g36
(g70
S'\x02\x00\x00\x00'
tRp1121
sg42
g43
sg46
g47
sg15
g72
sg22
F401.1232559265336
sg64
g101
sg62
g74
sg49
g50
sS'trials.thisN'
p1122
I94
sg19
I1
sg27
g36
(g38
S'\x00\x00\x00\x00\x00\x00\x1a@'
tRp1123
sg52
g53
sg23
S'3'
sg18
F400.42098960815929
sg33
g34
sg51
g11
sg20
S'2'
sg65
g36
(g77
S'\x00\x00\x00\x00\x00\x00\x00\x00'
tRp1124
sg44
g45
sg40
g41
sg25
F0.23072039883118123
sS'trials.thisIndex'
p1125
g36
(g80
S'\x11\x00\x00\x00'
tRp1126
sg26
V5
sS'trials.thisRepN'
p1127
I0
sg66
Vchurch
p1128
sg63
V../experiment_stimuli/bw_bc_bl/Nonliving_Things/Buildings/church_5.jpg
p1129
sg21
F0.68170998489949852
sS'trials.thisTrialN'
p1130
I94
sa(dp1131
g31
g32
sg17
F403.09172923478764
sg24
I1
sg35
g39
sg14
F403.08688499231357
sg16
g36
(g70
S'\x01\x00\x00\x00'
tRp1132
sg42
g43
sg46
g47
sg15
g72
sg22
F405.20211796974763
sg64
g206
sg62
g114
sg49
g50
sS'trials.thisN'
p1133
I95
sg19
I1
sg27
g36
(g38
S'\x00\x00\x00\x00\x00\x00\x1a@'
tRp1134
sg52
g53
sg23
S'1'
sg18
F404.41967640456278
sg33
g34
sg51
g11
sg20
S'1'
sg65
g36
(g77
S'\x00\x00\x00\x00\x00\x00\x00\x00'
tRp1135
sg44
g45
sg40
g41
sg25
F0.25061984278727323
sS'trials.thisIndex'
p1136
g36
(g80
S'J\x00\x00\x00'
tRp1137
sg26
V5
sS'trials.thisRepN'
p1138
I0
sg66
Vseagull
p1139
sg63
V../experiment_stimuli/bw_bc_bl/Living_Things/Birds/seagull_18.jpg
p1140
sg21
F0.76188422401901335
sS'trials.thisTrialN'
p1141
I95
sasS'loops'
p1142
(lp1143
g1
(cpsychopy.data
TrialHandler
p1144
g3
NtRp1145
(dp1146
S'origin'
p1147
NsS'thisTrial'
p1148
(lp1149
sS'_exp'
p1150
I98345232
sg10
S'trials'
p1151
sg6
I-1
sS'thisRepN'
p1152
I1
sg28
I01
sg29
g30
sS'data'
p1153
g1
(cpsychopy.data
DataHandler
p1154
c__builtin__
dict
p1155
(dp1156
g20
cnumpy.core.multiarray
_reconstruct
p1157
(cnumpy
ndarray
p1158
(I0
tS'b'
tRp1159
(I1
(I96
I1
tg37
(S'O4'
I0
I1
tRp1160
(I3
S'|'
NNNI-1
I-1
I63
tbI00
(lp1161
S'1'
aS'1'
aS'1'
aS'2'
aS'1'
aS'1'
aS'2'
aS'2'
aS'2'
aS'1'
aS'2'
aS'1'
aS'2'
aS'2'
aS'2'
aS'1'
aS'2'
aS'2'
aS'2'
aS'1'
aS'2'
aS'2'
aS'2'
aS'1'
aS'1'
aS'2'
aS'1'
aS'1'
aS'2'
aS'1'
aS'1'
aS'1'
aS'1'
aS'1'
aS'1'
aS'1'
aS'1'
aS'2'
aS'2'
aS'1'
aS'1'
aS'2'
aS'1'
aS'2'
aS'2'
aS'2'
aS'2'
aS'2'
aS'2'
aS'1'
aS'2'
aS'1'
aS'1'
aS'2'
aS'2'
aS'2'
aS'1'
aS'1'
aS'2'
aS'2'
aS'2'
aS'1'
aS'2'
aS'1'
aS'1'
aS'2'
aS'2'
aS'2'
aS'2'
aS'1'
aS'1'
aS'2'
aS'1'
aS'2'
aS'1'
aS'2'
aS'1'
aS'2'
aS'1'
aS'2'
aS'1'
aS'2'
aS'1'
aS'2'
aS'1'
aS'2'
aS'2'
aS'1'
aS'1'
aS'2'
aS'2'
aS'1'
aS'1'
aS'2'
aS'2'
aS'1'
atbsg17
cnumpy.ma.core
_mareconstruct
p1162
(cnumpy.ma.core
MaskedArray
p1163
g1158
(I0
tp1164
S'b'
tRp1165
(I1
(I96
I1
tg37
(S'f4'
I0
I1
tRp1166
(I3
S'<'
NNNI-1
I-1
I0
tbI00
S"\xd2\x9c\x81B\xcc3\x85C\x8c\xf1DC\x90\xd0@C*\x86\xa8C0\x1d\x17C\xdd\x9a\x8fC\xcdyo@\xbd7\xbeA2\x8a\xa6C\xc3;\x91C\x0f\x199C\x82gMC\xf7\xb9\xacB\xe5m\xb6CV\xd9\xdeAz\x8f\xbbCU\x89\xc7C\n\xc0\xf7@J\xdb\xf1By\x9c\x8dCri\xc5C\r\x86\x1bC1%*C\x05DXCl\xe9\x0cCP\x82\xbfC\xea\xd4\xd3B\xc6\xb5lC\xdc}\x89C#\xa7XB\x07t\xaaC\x16B\x83Ctl\xbcBBuFB\xf5s9A7x\xbdC\xe0\xf9\xcbB\xa8 \x93CG\xa2\x9aC\x95\xd5\x04CqB\xb4CG\\\xb2CM\xc31C6\xa2\xf9B\x1b\xd4\x03B?\x00\x7fC\xc5\xfc%C\xf0\x96\x16B\xdb\x8a\x87C\x81j\xc3B5\x9e\xacC\xb9\x99\xa4C\xe1/\x95C\x0b\x96aC\x96j\xb0Ck\x12\x11C\xf3\xa9wC\x90\xb5\xa4B\x90{\xc3Cp\xcc\x9cC\x12\xd6SCA\xa9\xeaB\x97\xc4\x9eC*6\x8aB:\xf2<C\x19b\xb4Bx5tCU\xcdHC\x9d\x06'B\xce_eCy\x89]C8\x12\x97C\xe0q\x00C\xbe\x8b\xc9C}ppCw\xa5\xdaBh\x8c\xc1Cu\x01\x9aB6.5Cx\x99}A\xdfI\xe3B\xabk7B\xdc}\x8bC\x14\x8c\xaeCH\xc8\xa0CB\x82\xb8Cx\xf1\x08C\xc4\x9d\xa2C\xa6\x89!C\xcd\r.C\x10\xc8hC[\x07rB\xef\xbf\x98Cw\x9c\x92B\xf7w\x9cA"
S'\x00\x00\x00\x00\x00\x00\x00\x00\x00\x00\x00\x00\x00\x00\x00\x00\x00\x00\x00\x00\x00\x00\x00\x00\x00\x00\x00\x00\x00\x00\x00\x00\x00\x00\x00\x00\x00\x00\x00\x00\x00\x00\x00\x00\x00\x00\x00\x00\x00\x00\x00\x00\x00\x00\x00\x00\x00\x00\x00\x00\x00\x00\x00\x00\x00\x00\x00\x00\x00\x00\x00\x00\x00\x00\x00\x00\x00\x00\x00\x00\x00\x00\x00\x00\x00\x00\x00\x00\x00\x00\x00\x00\x00\x00\x00\x00'
NtbsS'ran'
p1167
g1162
(g1163
g1158
g1164
S'b'
tRp1168
(I1
(I96
I1
tg1166
I00
S'\x00\x00\x80?\x00\x00\x80?\x00\x00\x80?\x00\x00\x80?\x00\x00\x80?\x00\x00\x80?\x00\x00\x80?\x00\x00\x80?\x00\x00\x80?\x00\x00\x80?\x00\x00\x80?\x00\x00\x80?\x00\x00\x80?\x00\x00\x80?\x00\x00\x80?\x00\x00\x80?\x00\x00\x80?\x00\x00\x80?\x00\x00\x80?\x00\x00\x80?\x00\x00\x80?\x00\x00\x80?\x00\x00\x80?\x00\x00\x80?\x00\x00\x80?\x00\x00\x80?\x00\x00\x80?\x00\x00\x80?\x00\x00\x80?\x00\x00\x80?\x00\x00\x80?\x00\x00\x80?\x00\x00\x80?\x00\x00\x80?\x00\x00\x80?\x00\x00\x80?\x00\x00\x80?\x00\x00\x80?\x00\x00\x80?\x00\x00\x80?\x00\x00\x80?\x00\x00\x80?\x00\x00\x80?\x00\x00\x80?\x00\x00\x80?\x00\x00\x80?\x00\x00\x80?\x00\x00\x80?\x00\x00\x80?\x00\x00\x80?\x00\x00\x80?\x00\x00\x80?\x00\x00\x80?\x00\x00\x80?\x00\x00\x80?\x00\x00\x80?\x00\x00\x80?\x00\x00\x80?\x00\x00\x80?\x00\x00\x80?\x00\x00\x80?\x00\x00\x80?\x00\x00\x80?\x00\x00\x80?\x00\x00\x80?\x00\x00\x80?\x00\x00\x80?\x00\x00\x80?\x00\x00\x80?\x00\x00\x80?\x00\x00\x80?\x00\x00\x80?\x00\x00\x80?\x00\x00\x80?\x00\x00\x80?\x00\x00\x80?\x00\x00\x80?\x00\x00\x80?\x00\x00\x80?\x00\x00\x80?\x00\x00\x80?\x00\x00\x80?\x00\x00\x80?\x00\x00\x80?\x00\x00\x80?\x00\x00\x80?\x00\x00\x80?\x00\x00\x80?\x00\x00\x80?\x00\x00\x80?\x00\x00\x80?\x00\x00\x80?\x00\x00\x80?\x00\x00\x80?\x00\x00\x80?\x00\x00\x80?'
S'\x00\x00\x00\x00\x00\x00\x00\x00\x00\x00\x00\x00\x00\x00\x00\x00\x00\x00\x00\x00\x00\x00\x00\x00\x00\x00\x00\x00\x00\x00\x00\x00\x00\x00\x00\x00\x00\x00\x00\x00\x00\x00\x00\x00\x00\x00\x00\x00\x00\x00\x00\x00\x00\x00\x00\x00\x00\x00\x00\x00\x00\x00\x00\x00\x00\x00\x00\x00\x00\x00\x00\x00\x00\x00\x00\x00\x00\x00\x00\x00\x00\x00\x00\x00\x00\x00\x00\x00\x00\x00\x00\x00\x00\x00\x00\x00'
Ntbsg24
g1162
(g1163
g1158
g1164
S'b'
tRp1169
(I1
(I96
I1
tg1166
I00
S'\x00\x00\x00\x00\x00\x00\x80?\x00\x00\x00\x00\x00\x00\x00\x00\x00\x00\x80?\x00\x00\x00\x00\x00\x00\x80?\x00\x00\x00\x00\x00\x00\x80?\x00\x00\x00\x00\x00\x00\x00\x00\x00\x00\x00\x00\x00\x00\x80?\x00\x00\x00\x00\x00\x00\x00\x00\x00\x00\x80?\x00\x00\x80?\x00\x00\x00\x00\x00\x00\x00\x00\x00\x00\x00\x00\x00\x00\x80?\x00\x00\x80?\x00\x00\x00\x00\x00\x00\x80?\x00\x00\x80?\x00\x00\x80?\x00\x00\x80?\x00\x00\x80?\x00\x00\x00\x00\x00\x00\x00\x00\x00\x00\x80?\x00\x00\x80?\x00\x00\x00\x00\x00\x00\x80?\x00\x00\x80?\x00\x00\x00\x00\x00\x00\x00\x00\x00\x00\x00\x00\x00\x00\x00\x00\x00\x00\x80?\x00\x00\x80?\x00\x00\x00\x00\x00\x00\x80?\x00\x00\x80?\x00\x00\x80?\x00\x00\x00\x00\x00\x00\x00\x00\x00\x00\x00\x00\x00\x00\x00\x00\x00\x00\x00\x00\x00\x00\x00\x00\x00\x00\x80?\x00\x00\x00\x00\x00\x00\x80?\x00\x00\x00\x00\x00\x00\x80?\x00\x00\x00\x00\x00\x00\x80?\x00\x00\x00\x00\x00\x00\x80?\x00\x00\x80?\x00\x00\x80?\x00\x00\x80?\x00\x00\x80?\x00\x00\x00\x00\x00\x00\x00\x00\x00\x00\x00\x00\x00\x00\x80?\x00\x00\x80?\x00\x00\x00\x00\x00\x00\x80?\x00\x00\x00\x00\x00\x00\x80?\x00\x00\x80?\x00\x00\x80?\x00\x00\x80?\x00\x00\x00\x00\x00\x00\x80?\x00\x00\x00\x00\x00\x00\x00\x00\x00\x00\x80?\x00\x00\x80?\x00\x00\x80?\x00\x00\x80?\x00\x00\x80?\x00\x00\x80?\x00\x00\x00\x00\x00\x00\x80?\x00\x00\x00\x00\x00\x00\x00\x00\x00\x00\x80?\x00\x00\x00\x00\x00\x00\x00\x00\x00\x00\x00\x00\x00\x00\x80?\x00\x00\x00\x00'
S'\x00\x00\x00\x00\x00\x00\x00\x00\x00\x00\x00\x00\x00\x00\x00\x00\x00\x00\x00\x00\x00\x00\x00\x00\x00\x00\x00\x00\x00\x00\x00\x00\x00\x00\x00\x00\x00\x00\x00\x00\x00\x00\x00\x00\x00\x00\x00\x00\x00\x00\x00\x00\x00\x00\x00\x00\x00\x00\x00\x00\x00\x00\x00\x00\x00\x00\x00\x00\x00\x00\x00\x00\x00\x00\x00\x00\x00\x00\x00\x00\x00\x00\x00\x00\x00\x00\x00\x00\x00\x00\x00\x00\x00\x00\x00\x00'
Ntbsg14
g1162
(g1163
g1158
g1164
S'b'
tRp1170
(I1
(I96
I1
tg1166
I00
S']\x9a\x81B+3\x85CQ\xf0DCL\xcf@C\x8b\x85\xa8C\xee\x1b\x17C<\x9a\x8fC\x90\xffm@\xaf-\xbeA\x8f\x89\xa6C%;\x91C\xce\x179C\xaaeMCz\xb7\xacBHm\xb6C1\xcf\xdeA\xdb\x8e\xbbC\xb9\x88\xc7C,\x99\xf7@\xd4\xd8\xf1B\xaf\x9b\x8dC\xd2h\xc5C\xc9\x84\x1bC\xf6#*C\xc0BXC-\xe8\x0cC\xb2\x81\xbfC[\xd2\xd3B\x87\xb4lC<}\x89C)\xa2XBks\xaaCrA\x83C,i\xbcB\x11oFB\x81_9A\x99w\xbdC\xf3\xf6\xcbB\t \x93C\xa7\xa1\x9aCQ\xd4\x04C\xd6A\xb4C\xa8[\xb2C\xce\xc11C\xb9\x9f\xf9B\x1d\xcf\x03B\xb5\xfe~C?\xfb%C\xe3\x91\x16B:\x8a\x87C\xf1g\xc3B\x95\x9d\xacC\x1e\x99\xa4CC/\x95C\xbc\x94aC\xefi\xb0C\xe4\x10\x11C\xb4\xa8wC\x03\xb3\xa4B\xf2z\xc3C\xd2\xcb\x9cC\xc4\xd4SC\xbe\xa6\xeaB\xf4\xc3\x9eC\xa13\x8aB\xfc\xf0<C\x94_\xb4B\x943tC\x10\xccHCk\x01\'B\x88^eC?\x88]C\x97\x11\x97C\x98p\x00C\x1f\x8b\xc9C\xednpC\xf3\xa2\xdaB\xcb\x8b\xc1C\xfb\xfe\x99B\xaa,5Cm\x85}AzF\xe3B\xb3f7B\x12}\x8bCu\x8b\xaeC\xa2\xc7\xa0C\xa4\x81\xb8C5\xf0\x08C#\x9d\xa2C"\x88!C\x8a\x0c.C\xd2\xc6hC3\x02rBT\xbf\x98C\x95\x99\x92B\xcfl\x9cA'
S'\x00\x00\x00\x00\x00\x00\x00\x00\x00\x00\x00\x00\x00\x00\x00\x00\x00\x00\x00\x00\x00\x00\x00\x00\x00\x00\x00\x00\x00\x00\x00\x00\x00\x00\x00\x00\x00\x00\x00\x00\x00\x00\x00\x00\x00\x00\x00\x00\x00\x00\x00\x00\x00\x00\x00\x00\x00\x00\x00\x00\x00\x00\x00\x00\x00\x00\x00\x00\x00\x00\x00\x00\x00\x00\x00\x00\x00\x00\x00\x00\x00\x00\x00\x00\x00\x00\x00\x00\x00\x00\x00\x00\x00\x00\x00\x00'
Ntbsg16
g1157
(g1158
(I0
tS'b'
tRp1171
(I1
(I96
I1
tg1160
I00
(lp1172
g240
ag758
ag593
ag582
ag956
ag472
ag813
ag71
ag137
ag945
ag824
ag560
ag615
ag295
ag1033
ag149
ag1055
ag1121
ag87
ag395
ag802
ag1110
ag483
ag516
ag637
ag450
ag1077
ag351
ag692
ag780
ag217
ag967
ag747
ag317
ag205
ag99
ag1066
ag339
ag835
ag879
ag428
ag1022
ag1011
ag538
ag406
ag160
ag736
ag505
ag172
ag769
ag328
ag978
ag934
ag846
ag659
ag1000
ag461
ag725
ag284
ag1099
ag890
ag626
ag384
ag901
ag251
ag571
ag306
ag714
ag604
ag183
ag670
ag648
ag857
ag417
ag1132
ag703
ag362
ag1088
ag273
ag549
ag112
ag373
ag194
ag791
ag989
ag912
ag1044
ag439
ag923
ag494
ag527
ag681
ag228
ag868
ag262
ag125
atbsg15
g1157
(g1158
(I0
tS'b'
tRp1173
(I1
(I96
I1
tg1160
I00
(lp1174
g100
ag72
ag100
ag72
ag72
ag100
ag72
ag72
ag72
ag100
ag100
ag100
ag72
ag72
ag72
ag100
ag100
ag72
ag72
ag100
ag100
ag100
ag72
ag100
ag72
ag72
ag72
ag100
ag72
ag72
ag100
ag100
ag72
ag72
ag72
ag100
ag100
ag72
ag100
ag72
ag72
ag72
ag72
ag100
ag100
ag100
ag72
ag72
ag100
ag72
ag100
ag72
ag72
ag72
ag72
ag100
ag72
ag100
ag72
ag100
ag100
ag100
ag100
ag72
ag100
ag72
ag72
ag100
ag72
ag100
ag100
ag72
ag100
ag72
ag72
ag100
ag100
ag72
ag100
ag100
ag72
ag100
ag72
ag100
ag72
ag100
ag72
ag100
ag72
ag72
ag100
ag100
ag100
ag72
ag72
ag72
atbsg22
g1162
(g1163
g1158
g1164
S'b'
tRp1175
(I1
(I96
I1
tg1166
I00
S'\x8e\x8d\x85B\x0e\x82\x86C=\xd0FC\x7f\xf4BC\x12x\xa9C\x92>\x19C\xc7H\x90C\xf9Q\xb3@\x12-\xcdA\x81\x82\xa7C\xd3)\x92C\xa3\xe0:C\xfcTOC\x04D\xb0Bab\xb7C\xcc\x8b\xf6A\x8a}\xbcC\xc7\x8f\xc8C\xa1c\x17A\xc4t\xf5BT\x9c\x8eC\xf2\x8f\xc6C\x86m\x1fC\xb9\x10,C\xab [C\xce\n\x0fC\xe1\x8d\xc0CD\x82\xd6B]}nC\xc3o\x8aC\xce\x04cB\x95\x88\xabC\x8a6\x84C4\x1e\xbfB(\xfaOB\x0e\xefYA\x86y\xbeC\x88\xac\xcfB`(\x94C.\x94\x9bC\xb1\xec\x06CIX\xb5C\xecC\xb3C=@3C\x8d\xe9\xfcB\xd3\xd4\x0cB\xf7\xcc\x80CZ\t(C\xbe\x8c\x1eB\xc2|\x88C4\xad\xc7B\xb2\x89\xadC\xa7\x8b\xa5C\xa9\x1c\x96CFecCP`\xb1C\xdd\x15\x15C\xb5)yCC\x82\xa8Bzm\xc4C\xa1\xbf\x9dC\xfb\x83UCq\xeb\xedB\x07\xc2\x9fC\xf9T\x8eBY\xce>C\xf63\xb8B\xb5\xb9uC \xb1JC\x91\xb4.B!\xd0fC9\x91_Ce\xca\x97C\xcd\xd0\x02C\xdf\x99\xcaC25rC25\xdfB\xc1{\xc2C\xcc}\xa0B\xba\x117C\xe9n\x8bA\x86q\xe6Bd\xfa=B\xc7\x9d\x8cC\x06l\xafC[\xa4\xa1C}a\xbaC\xca\xe9\nC\xc6\x94\xa3C\x06\xb5#C\xfc\xc5/C\xe0\xabjC\xbb\xc9yBP\xa6\x99C\xa7\x16\x96BC\x1b\xadA'
S'\x00\x00\x00\x00\x00\x00\x00\x00\x00\x00\x00\x00\x00\x00\x00\x00\x00\x00\x00\x00\x00\x00\x00\x00\x00\x00\x00\x00\x00\x00\x00\x00\x00\x00\x00\x00\x00\x00\x00\x00\x00\x00\x00\x00\x00\x00\x00\x00\x00\x00\x00\x00\x00\x00\x00\x00\x00\x00\x00\x00\x00\x00\x00\x00\x00\x00\x00\x00\x00\x00\x00\x00\x00\x00\x00\x00\x00\x00\x00\x00\x00\x00\x00\x00\x00\x00\x00\x00\x00\x00\x00\x00\x00\x00\x00\x00'
Ntbsg26
g1157
(g1158
(I0
tS'b'
tRp1176
(I1
(I96
I1
tg1160
I00
(lp1177
g36
(g80
S'\t\x00\x00\x00'
tRp1178
ag36
(g80
S'\x03\x00\x00\x00'
tRp1179
ag36
(g80
S'\x04\x00\x00\x00'
tRp1180
ag36
(g80
S'\x05\x00\x00\x00'
tRp1181
ag36
(g80
S'\x03\x00\x00\x00'
tRp1182
ag36
(g80
S'\t\x00\x00\x00'
tRp1183
ag36
(g80
S'\x04\x00\x00\x00'
tRp1184
aS'5.0'
p1185
ag36
(g80
S'\x03\x00\x00\x00'
tRp1186
ag36
(g80
S'\x05\x00\x00\x00'
tRp1187
ag36
(g80
S'\x06\x00\x00\x00'
tRp1188
ag36
(g80
S'\x07\x00\x00\x00'
tRp1189
ag36
(g80
S'\x03\x00\x00\x00'
tRp1190
ag36
(g80
S'\x05\x00\x00\x00'
tRp1191
ag36
(g80
S'\x0c\x00\x00\x00'
tRp1192
ag36
(g80
S'\x04\x00\x00\x00'
tRp1193
ag36
(g80
S'\x06\x00\x00\x00'
tRp1194
ag36
(g80
S'\r\x00\x00\x00'
tRp1195
aS'4.0'
p1196
ag36
(g80
S'\x05\x00\x00\x00'
tRp1197
ag36
(g80
S'\x03\x00\x00\x00'
tRp1198
ag36
(g80
S'\x0b\x00\x00\x00'
tRp1199
ag36
(g80
S'\x08\x00\x00\x00'
tRp1200
ag36
(g80
S'\x02\x00\x00\x00'
tRp1201
ag36
(g80
S'\x06\x00\x00\x00'
tRp1202
ag36
(g80
S'\n\x00\x00\x00'
tRp1203
ag36
(g80
S'\x08\x00\x00\x00'
tRp1204
ag36
(g80
S'\x04\x00\x00\x00'
tRp1205
ag36
(g80
S'\x04\x00\x00\x00'
tRp1206
ag36
(g80
S'\x02\x00\x00\x00'
tRp1207
ag36
(g80
S'\n\x00\x00\x00'
tRp1208
ag36
(g80
S'\x04\x00\x00\x00'
tRp1209
ag36
(g80
S'\x06\x00\x00\x00'
tRp1210
ag36
(g80
S'\x03\x00\x00\x00'
tRp1211
ag36
(g80
S'\x07\x00\x00\x00'
tRp1212
aS'3.0'
p1213
ag36
(g80
S'\t\x00\x00\x00'
tRp1214
ag36
(g80
S'\x05\x00\x00\x00'
tRp1215
ag36
(g80
S'\x04\x00\x00\x00'
tRp1216
ag36
(g80
S'\x03\x00\x00\x00'
tRp1217
ag36
(g80
S'\x06\x00\x00\x00'
tRp1218
ag36
(g80
S'\x0f\x00\x00\x00'
tRp1219
ag36
(g80
S'\r\x00\x00\x00'
tRp1220
ag36
(g80
S'\x06\x00\x00\x00'
tRp1221
ag36
(g80
S'\x02\x00\x00\x00'
tRp1222
ag36
(g80
S'\x07\x00\x00\x00'
tRp1223
ag36
(g80
S'\x07\x00\x00\x00'
tRp1224
ag36
(g80
S'\x03\x00\x00\x00'
tRp1225
ag36
(g80
S'\x06\x00\x00\x00'
tRp1226
ag36
(g80
S'\x05\x00\x00\x00'
tRp1227
ag36
(g80
S'\x06\x00\x00\x00'
tRp1228
ag36
(g80
S'\x06\x00\x00\x00'
tRp1229
ag36
(g80
S'\x08\x00\x00\x00'
tRp1230
ag36
(g80
S'\x01\x00\x00\x00'
tRp1231
ag36
(g80
S'\x07\x00\x00\x00'
tRp1232
ag36
(g80
S'\n\x00\x00\x00'
tRp1233
ag36
(g80
S'\x0c\x00\x00\x00'
tRp1234
ag36
(g80
S'\x05\x00\x00\x00'
tRp1235
ag36
(g80
S'\x06\x00\x00\x00'
tRp1236
ag36
(g80
S'\n\x00\x00\x00'
tRp1237
ag36
(g80
S'\x06\x00\x00\x00'
tRp1238
ag36
(g80
S'\x04\x00\x00\x00'
tRp1239
ag36
(g80
S'\x03\x00\x00\x00'
tRp1240
ag36
(g80
S'\x07\x00\x00\x00'
tRp1241
ag36
(g80
S'\x08\x00\x00\x00'
tRp1242
ag36
(g80
S'\x06\x00\x00\x00'
tRp1243
ag36
(g80
S'\x04\x00\x00\x00'
tRp1244
ag36
(g80
S'\x04\x00\x00\x00'
tRp1245
ag36
(g80
S'\x02\x00\x00\x00'
tRp1246
ag36
(g80
S'\x05\x00\x00\x00'
tRp1247
ag36
(g80
S'\x04\x00\x00\x00'
tRp1248
ag36
(g80
S'\t\x00\x00\x00'
tRp1249
ag36
(g80
S'\x03\x00\x00\x00'
tRp1250
ag36
(g80
S'\x03\x00\x00\x00'
tRp1251
ag36
(g80
S'\x0b\x00\x00\x00'
tRp1252
ag36
(g80
S'\x02\x00\x00\x00'
tRp1253
ag36
(g80
S'\x05\x00\x00\x00'
tRp1254
ag36
(g80
S'\t\x00\x00\x00'
tRp1255
ag36
(g80
S'\x07\x00\x00\x00'
tRp1256
ag36
(g80
S'\x08\x00\x00\x00'
tRp1257
aS'2.0'
p1258
ag36
(g80
S'\x02\x00\x00\x00'
tRp1259
ag36
(g80
S'\x04\x00\x00\x00'
tRp1260
aI1
ag36
(g80
S'\t\x00\x00\x00'
tRp1261
ag36
(g80
S'\t\x00\x00\x00'
tRp1262
ag36
(g80
S'\t\x00\x00\x00'
tRp1263
ag36
(g80
S'\t\x00\x00\x00'
tRp1264
ag36
(g80
S'\x0b\x00\x00\x00'
tRp1265
ag36
(g80
S'\x05\x00\x00\x00'
tRp1266
ag36
(g80
S'\x03\x00\x00\x00'
tRp1267
ag36
(g80
S'\x07\x00\x00\x00'
tRp1268
ag36
(g80
S'\x0b\x00\x00\x00'
tRp1269
ag36
(g80
S'\x05\x00\x00\x00'
tRp1270
ag36
(g80
S'\x06\x00\x00\x00'
tRp1271
ag36
(g80
S'\x04\x00\x00\x00'
tRp1272
atbsg21
g1162
(g1163
g1158
g1164
S'b'
tRp1273
(I1
(I96
I1
tg1166
I00
S'\x80A$?B\xec\xab?\x96m\x17?\x8b!Z?\x99\x1f\x1f?ONM?\xcf\xac\xa4=\xe7M\x12?\x8a\xfe\x19?\xff\xd1&?\xe6\xba\x0f?\x84G\xf1>\xd9b)?\x17i\xf6>\xa2*\r?\x8d\x89\xd7?\xdc\xba\x0f?\x8c\x84.?\xdf\xe3\xe1>\xf7\xe6\x02?g\xc78?\x96\xc9s?\x86~%@\xacc)?\xbe$\xc8?\x93\xbcJ?\\\x9bE?\xa3=w=\x1aV\x00?K\xb0!?\xa3`\xa0?5\xd4a?\x16\x8f\x1c?\xe0\xa8\xa4=\x83I\x89?\xbf\nC?u\x84.?#\xbb\x0f?3\x9dE?\xb8\x1f\x1f?\x84\xbdJ?r,H?A\xe2\xe1>\x18;C>\xe9\x1a\xc3>\xe8:q?\xcb:\xa4?\n,H?\x8a\x151?\x06m\x17?\xc2\xffT?\x84\x99\n?[M\x12?\xfd\xfd\x19?>V\x00?c\xdc\x14?\x18\xfc)@\xca\xbcW>\x80\xfe\x19?-*\r?\'\xfe\x19?\xecn\xcd>\xe7\xd5\xb8>\xbe\xf3+?\x97\xe9=?\xbf\xba\x0f?o\xb1!?\xac\x86v>z\xb1!?\x07\xb9!?Yl$>\xf8\xa53?\xca\xb2.>\xa0"\x8d?\xd8\nC?D\xe7\x02?\xba\r~?w\x99\n?\xbb\x9b\xf7?_L\x12?\x0bQ\xa4>\xe1.\x9f>\x1b\xd8\xb8>S|{?\xd9\x9f\xd7>\xd6:\xc8>m\x97\x1a@\xb7@$?T\xd2\x14?,\xd4a?\xd8\x04\xe7>\xaa\xdc\x14?[m\x17?R\xe7\x02?\xbd\xcd\xe1>\xddMM?'
S'\x00\x00\x00\x00\x00\x00\x00\x00\x00\x00\x00\x00\x00\x00\x00\x00\x00\x00\x00\x00\x00\x00\x00\x00\x00\x00\x00\x00\x00\x00\x00\x00\x00\x00\x00\x00\x00\x00\x00\x00\x00\x00\x00\x00\x00\x00\x00\x00\x00\x00\x00\x00\x00\x00\x00\x00\x00\x00\x00\x00\x00\x00\x00\x00\x00\x00\x00\x00\x00\x00\x00\x00\x00\x00\x00\x00\x00\x00\x00\x00\x00\x00\x00\x00\x00\x00\x00\x00\x00\x00\x00\x00\x00\x00\x00\x00'
NtbsS'order'
p1274
g1162
(g1163
g1158
g1164
S'b'
tRp1275
(I1
(I96
I1
tg1166
I00
S'\x00\x00`A\x00\x00tB\x00\x008B\x00\x004B\x00\x00\x9eB\x00\x00\x0cB\x00\x00\x84B\x00\x00\x00\x00\x00\x00\xa0@\x00\x00\x9cB\x00\x00\x86B\x00\x00,B\x00\x00@B\x00\x00\x98A\x00\x00\xacB\x00\x00\xc0@\x00\x00\xb0B\x00\x00\xbcB\x00\x00\x80?\x00\x00\xe0A\x00\x00\x82B\x00\x00\xbaB\x00\x00\x10B\x00\x00\x1cB\x00\x00HB\x00\x00\x04B\x00\x00\xb4B\x00\x00\xc0A\x00\x00\\B\x00\x00|B\x00\x00@A\x00\x00\xa0B\x00\x00pB\x00\x00\xa8A\x00\x000A\x00\x00\x00@\x00\x00\xb2B\x00\x00\xb8A\x00\x00\x88B\x00\x00\x90B\x00\x00\xf8A\x00\x00\xaaB\x00\x00\xa8B\x00\x00$B\x00\x00\xe8A\x00\x00\xe0@\x00\x00lB\x00\x00\x18B\x00\x00\x00A\x00\x00xB\x00\x00\xb0A\x00\x00\xa2B\x00\x00\x9aB\x00\x00\x8aB\x00\x00PB\x00\x00\xa6B\x00\x00\x08B\x00\x00hB\x00\x00\x90A\x00\x00\xb8B\x00\x00\x92B\x00\x00DB\x00\x00\xd8A\x00\x00\x94B\x00\x00pA\x00\x000B\x00\x00\xa0A\x00\x00dB\x00\x00<B\x00\x00\x10A\x00\x00TB\x00\x00LB\x00\x00\x8cB\x00\x00\xf0A\x00\x00\xbeB\x00\x00`B\x00\x00\xc8A\x00\x00\xb6B\x00\x00\x88A\x00\x00(B\x00\x00@@\x00\x00\xd0A\x00\x00 A\x00\x00\x80B\x00\x00\xa4B\x00\x00\x96B\x00\x00\xaeB\x00\x00\x00B\x00\x00\x98B\x00\x00\x14B\x00\x00 B\x00\x00XB\x00\x00PA\x00\x00\x8eB\x00\x00\x80A\x00\x00\x80@'
S'\x00\x00\x00\x00\x00\x00\x00\x00\x00\x00\x00\x00\x00\x00\x00\x00\x00\x00\x00\x00\x00\x00\x00\x00\x00\x00\x00\x00\x00\x00\x00\x00\x00\x00\x00\x00\x00\x00\x00\x00\x00\x00\x00\x00\x00\x00\x00\x00\x00\x00\x00\x00\x00\x00\x00\x00\x00\x00\x00\x00\x00\x00\x00\x00\x00\x00\x00\x00\x00\x00\x00\x00\x00\x00\x00\x00\x00\x00\x00\x00\x00\x00\x00\x00\x00\x00\x00\x00\x00\x00\x00\x00\x00\x00\x00\x00'
Ntbsg19
g1162
(g1163
g1158
g1164
S'b'
tRp1276
(I1
(I96
I1
tg1166
I00
S'\x00\x00\x80?\x00\x00\x80?\x00\x00\x80?\x00\x00\x80?\x00\x00\x80?\x00\x00\x80?\x00\x00\x80?\x00\x00\x80?\x00\x00\x80?\x00\x00\x80?\x00\x00\x80?\x00\x00\x80?\x00\x00\x80?\x00\x00\x00\x00\x00\x00\x80?\x00\x00\x80?\x00\x00\x80?\x00\x00\x80?\x00\x00\x80?\x00\x00\x80?\x00\x00\x80?\x00\x00\x80?\x00\x00\x80?\x00\x00\x00\x00\x00\x00\x80?\x00\x00\x80?\x00\x00\x80?\x00\x00\x00\x00\x00\x00\x80?\x00\x00\x00\x00\x00\x00\x80?\x00\x00\x80?\x00\x00\x80?\x00\x00\x80?\x00\x00\x80?\x00\x00\x80?\x00\x00\x80?\x00\x00\x80?\x00\x00\x80?\x00\x00\x80?\x00\x00\x80?\x00\x00\x80?\x00\x00\x80?\x00\x00\x80?\x00\x00\x80?\x00\x00\x80?\x00\x00\x80?\x00\x00\x80?\x00\x00\x80?\x00\x00\x80?\x00\x00\x80?\x00\x00\x80?\x00\x00\x80?\x00\x00\x80?\x00\x00\x80?\x00\x00\x80?\x00\x00\x80?\x00\x00\x00\x00\x00\x00\x80?\x00\x00\x80?\x00\x00\x80?\x00\x00\x00\x00\x00\x00\x00\x00\x00\x00\x80?\x00\x00\x80?\x00\x00\x00\x00\x00\x00\x80?\x00\x00\x80?\x00\x00\x00\x00\x00\x00\x80?\x00\x00\x00\x00\x00\x00\x80?\x00\x00\x80?\x00\x00\x00\x00\x00\x00\x80?\x00\x00\x80?\x00\x00\x80?\x00\x00\x80?\x00\x00\x80?\x00\x00\x80?\x00\x00\x80?\x00\x00\x00\x00\x00\x00\x80?\x00\x00\x00\x00\x00\x00\x80?\x00\x00\x80?\x00\x00\x80?\x00\x00\x80?\x00\x00\x00\x00\x00\x00\x80?\x00\x00\x80?\x00\x00\x80?\x00\x00\x80?\x00\x00\x80?\x00\x00\x00\x00\x00\x00\x80?'
S'\x00\x00\x00\x00\x00\x00\x00\x00\x00\x00\x00\x00\x00\x00\x00\x00\x00\x00\x00\x00\x00\x00\x00\x00\x00\x00\x00\x00\x00\x00\x00\x00\x00\x00\x00\x00\x00\x00\x00\x00\x00\x00\x00\x00\x00\x00\x00\x00\x00\x00\x00\x00\x00\x00\x00\x00\x00\x00\x00\x00\x00\x00\x00\x00\x00\x00\x00\x00\x00\x00\x00\x00\x00\x00\x00\x00\x00\x00\x00\x00\x00\x00\x00\x00\x00\x00\x00\x00\x00\x00\x00\x00\x00\x00\x00\x00'
Ntbsg27
g1157
(g1158
(I0
tS'b'
tRp1277
(I1
(I96
I1
tg1160
I00
(lp1278
g242
ag760
ag595
ag584
ag958
ag474
ag815
ag76
ag140
ag947
ag826
ag562
ag617
ag297
ag1035
ag151
ag1057
ag1123
ag90
ag397
ag804
ag1112
ag485
ag518
ag639
ag452
ag1079
ag353
ag694
ag782
ag219
ag969
ag749
ag319
ag208
ag103
ag1068
ag342
ag837
ag881
ag430
ag1024
ag1013
ag540
ag408
ag163
ag738
ag507
ag174
ag771
ag330
ag980
ag936
ag848
ag661
ag1002
ag463
ag727
ag286
ag1101
ag892
ag628
ag386
ag903
ag253
ag573
ag308
ag716
ag606
ag185
ag672
ag650
ag859
ag419
ag1134
ag705
ag364
ag1090
ag275
ag551
ag116
ag375
ag196
ag793
ag991
ag914
ag1046
ag441
ag925
ag496
ag529
ag683
ag231
ag870
ag264
ag128
atbsg23
g1157
(g1158
(I0
tS'b'
tRp1279
(I1
(I96
I1
tg1160
I00
(lp1280
S'2'
aS'1'
aS'3'
aS'2'
aS'1'
aS'2'
aS'1'
aS'2'
aS'1'
aS'3'
aS'3'
aS'2'
aS'1'
aS'2'
aS'3'
aS'1'
aS'1'
aS'3'
aS'2'
aS'3'
aS'1'
aS'1'
aS'3'
aS'1'
aS'1'
aS'1'
aS'1'
aS'1'
aS'3'
aS'3'
aS'1'
aS'1'
aS'3'
aS'1'
aS'1'
aS'2'
aS'2'
aS'2'
aS'3'
aS'1'
aS'1'
aS'3'
aS'1'
aS'1'
aS'1'
aS'2'
aS'2'
aS'2'
aS'2'
aS'3'
aS'2'
aS'1'
aS'3'
aS'1'
aS'3'
aS'1'
aS'3'
aS'1'
aS'2'
aS'1'
aS'1'
aS'1'
aS'1'
aS'1'
aS'3'
aS'2'
aS'2'
aS'1'
aS'1'
aS'2'
aS'1'
aS'3'
aS'1'
aS'1'
aS'1'
aS'1'
aS'3'
aS'1'
aS'2'
aS'2'
aS'1'
aS'1'
aS'1'
aS'1'
aS'1'
aS'1'
aS'3'
aS'1'
aS'3'
aS'3'
aS'1'
aS'3'
aS'3'
aS'3'
aS'1'
aS'2'
atbsg18
g1162
(g1163
g1158
g1164
S'b'
tRp1281
(I1
(I96
I1
tg1166
I00
S'~:\x84B\x81\xd3\x85C\x8f3FC\x1a\x15BC\xe1%\xa9C\xffk\x18C\xdb;\x90C\x80\x0b\xa0@\x0c3\xc8Av,\xa7CT\xdf\x91C\xbdb:CV\xa6NC\x15C\xafB*\x19\xb7C\x1a\xe9\xe8A\x0b3\xbcC\xe35\xc8Ch\x00\x10Aod\xf4B\x06<\x8eCk\x13\xc6CI\xd2\x1cC\x12b+C\x1e\x8bYC\xce:\x0eCr(\xc0C\xd6X\xd6B\xc4\xf7mCI\x1c\x8aC\xae\xec]B\t\x15\xabC\xa1\xe5\x83C\x83\xea\xbeB\xce\x9aKBCjMA\xa2\x1f\xbeC\x8d\x82\xceB\xf0\xc2\x93C\xfdA\x9bC\xb0\x1c\x06C\x90\xf1\xb4C\xd2\x08\xb3C,\n3C\xed\x1b\xfcB\xde\xfa\x08B\x1a&\x80C\xec;\'CY\xb3\x1bB"-\x88C\xaf\xf8\xc5B\xc4A\xadC\xdf?\xa5C\x08\xcd\x95C\xab\xdfbC@\x13\xb1C\xa7h\x12C\x82\xeexC\xc0C\xa7BC$\xc4C\x01p\x9dC\x01\x18UC\x17(\xedBli\x9fC\xa0\xce\x8cB[9>C\x0e\xe6\xb6B\xd1vuC+\nJC\xa0\x18,B\xc3\xa1fCO\xd8^C\xed\xb1\x97CE\xb1\x01C\xb85\xcaC\x07\xadqC\x90.\xddB\xd33\xc2C\xd9\x94\x9cB*z6C\x90\xb3\x88A\xb0\xc2\xe5B\xa7s<B\x1e\x1c\x8cC}3\xafC\xabo\xa1C\xac)\xb9CE@\nC\xbcG\xa3C\xef\xcd"C6M/C\xc2\x11jC\xfbVwB:b\x99CR*\x95B\xb7\x86\xa6A'
S'\x00\x00\x00\x00\x00\x00\x00\x00\x00\x00\x00\x00\x00\x00\x00\x00\x00\x00\x00\x00\x00\x00\x00\x00\x00\x00\x00\x00\x00\x00\x00\x00\x00\x00\x00\x00\x00\x00\x00\x00\x00\x00\x00\x00\x00\x00\x00\x00\x00\x00\x00\x00\x00\x00\x00\x00\x00\x00\x00\x00\x00\x00\x00\x00\x00\x00\x00\x00\x00\x00\x00\x00\x00\x00\x00\x00\x00\x00\x00\x00\x00\x00\x00\x00\x00\x00\x00\x00\x00\x00\x00\x00\x00\x00\x00\x00'
Ntbsg25
g1162
(g1163
g1158
g1164
S'b'
tRp1282
(I1
(I96
I1
tg1166
I00
S"@n\x17?\xa5p\xa9>Ff\x80>(d\x80>6Hl>\xdc\x99\n?\xf5l$>\xd2[\xcd>FG\xf1>c\xea\x94>B6C>\xf2p\xa9>\x06\n1@\xc7N\xa4>~\xe7\x02?\xda]\xcd>%\xffa>\xf8Al>\xb1;\xc8>\xfd\xb6\xb3>\x84P\x80>\x92\xbbW>\xe9\xf9\xbd>\x02e\x80>!\xf3+?%\xeb\x94>)d\x80>\x16s\xa9>D\xbbW>\r\xf7\xbd>0\xef\x00@\x91\xc0\xdc>\x8d\x85v>\xa8}\xd2>\x95\xc0\xdc>\xa7\x8c\xfb>\xb6q\xa9>E\x94\xae>\xc1O\xa4>\xad\xa53?\x1e\xc9\x8f>\xa8\xc2\xdc>@c\x80>'CC>\x15d\x80>\x01\xa63?\x1bVK@\xe3\xf6\xbd>z\x1b\xc3>\xeb\xa7\x8a>A}\xd2>\xdb\xca\x8f>fc\x80>\xd6\xfe8>\x1d\x15w>\xf2Bl>\x1d\xea\x94>\x1e,\x83@y\xf7\xbd>\x85Fl>\x9f\x0c\x9a>\x1a\x97\x81?GCl>\xaa-\x9f>P[\xcd>\xf5\xaa\x8a>\xaa\xf6\xbd>XPM>\xfd\xeax?\xd0\xe1\xe1>\xeb?l>+\xc8\x8f>4\xf28>\x9b\xc8\x8f>>Q\x80>4\x85\x85>\xe0\x0b\x9a>[\x85\x85>\xd2\xf9\xbd>|\xea\x94>q:\xc8>\xa7\xf6\xbd>g\x18\xc3>%d\x80>\xe3e\x80>\xb7\xbcW>@\x1f\x1f?#\x86\x85>\xdc\r\x9a>\xc4\x98\n?\x87c\x80>\xd6\x0b\x9a>N\x1f\x1f?\x15Al>P\x0bb>\xa0[\xcd>"
S'\x00\x00\x00\x00\x00\x00\x00\x00\x00\x00\x00\x00\x00\x00\x00\x00\x00\x00\x00\x00\x00\x00\x00\x00\x00\x00\x00\x00\x00\x00\x00\x00\x00\x00\x00\x00\x00\x00\x00\x00\x00\x00\x00\x00\x00\x00\x00\x00\x00\x00\x00\x00\x00\x00\x00\x00\x00\x00\x00\x00\x00\x00\x00\x00\x00\x00\x00\x00\x00\x00\x00\x00\x00\x00\x00\x00\x00\x00\x00\x00\x00\x00\x00\x00\x00\x00\x00\x00\x00\x00\x00\x00\x00\x00\x00\x00'
NtbstRp1283
(dp1284
S'isNumeric'
p1285
(dp1286
g23
I00
sg20
I00
sg17
I01
sg1167
I01
sg22
I01
sg24
I01
sg14
I01
sg18
I01
sg16
I00
sg19
I01
sg26
I00
sg27
I00
sg15
I00
sg21
I01
sg1274
I01
sg25
I01
ssg1151
g1145
sS'dataTypes'
p1287
(lp1288
g1167
ag1274
ag14
ag15
ag16
ag17
ag18
ag19
ag20
ag21
ag22
ag23
ag24
ag25
ag26
ag27
asS'dataShape'
p1289
(lp1290
I96
aI1
asbsS'method'
p1291
S'random'
p1292
sS'sequenceIndices'
p1293
g1157
(g1158
(I0
tS'b'
tRp1294
(I1
(I96
I1
tg80
I01
S'\x07\x00\x00\x00\x12\x00\x00\x00#\x00\x00\x00P\x00\x00\x00_\x00\x00\x00\x08\x00\x00\x00\x0f\x00\x00\x00-\x00\x00\x000\x00\x00\x00E\x00\x00\x00R\x00\x00\x00"\x00\x00\x00\x1e\x00\x00\x00\\\x00\x00\x00\x00\x00\x00\x00@\x00\x00\x00^\x00\x00\x00N\x00\x00\x00:\x00\x00\x00\r\x00\x00\x00B\x00\x00\x00!\x00\x00\x002\x00\x00\x00%\x00\x00\x00\x1b\x00\x00\x00L\x00\x00\x00Q\x00\x00\x00>\x00\x00\x00\x13\x00\x00\x00,\x00\x00\x00I\x00\x00\x00(\x00\x00\x00W\x00\x00\x00\x19\x00\x00\x008\x00\x00\x00\x05\x00\x00\x00\x16\x00\x00\x00Y\x00\x00\x00/\x00\x00\x00\x17\x00\x00\x00Z\x00\x00\x00+\x00\x00\x00O\x00\x00\x00\x0b\x00\x00\x00A\x00\x00\x00\x03\x00\x00\x00\x02\x00\x00\x00D\x00\x00\x00\x0c\x00\x00\x00=\x00\x00\x00\x18\x00\x00\x00G\x00\x00\x006\x00\x00\x00F\x00\x00\x00[\x00\x00\x00\x1c\x00\x00\x00K\x00\x00\x00C\x00\x00\x009\x00\x00\x00.\x00\x00\x00 \x00\x00\x00\x01\x00\x00\x001\x00\x00\x00\x1d\x00\x00\x00S\x00\x00\x00\x14\x00\x00\x00\x06\x00\x00\x00\n\x00\x00\x00&\x00\x00\x005\x00\x00\x00H\x00\x00\x00]\x00\x00\x00\'\x00\x00\x00<\x00\x00\x00?\x00\x00\x00U\x00\x00\x00X\x00\x00\x004\x00\x00\x00\t\x00\x00\x00\x04\x00\x00\x00\x1f\x00\x00\x003\x00\x00\x00T\x00\x00\x007\x00\x00\x00*\x00\x00\x00)\x00\x00\x00\x0e\x00\x00\x00V\x00\x00\x00\x10\x00\x00\x00$\x00\x00\x00\x1a\x00\x00\x00M\x00\x00\x00;\x00\x00\x00\x15\x00\x00\x00\x11\x00\x00\x00J\x00\x00\x00'
tbsS'finished'
p1295
I01
sS'nReps'
p1296
I1
sS'nRemaining'
p1297
I-1
sS'trialList'
p1298
(lp1299
g1
(cpsychopy.data
TrialType
p1300
g1155
(dp1301
g62
g74
sg63
g248
sg64
g138
sg65
g243
sg66
g247
stRp1302
ag1
(g1300
g1155
(dp1303
g62
g114
sg63
g766
sg64
g126
sg65
g761
sg66
g765
stRp1304
ag1
(g1300
g1155
(dp1305
g62
g74
sg63
g601
sg64
g138
sg65
g596
sg66
g600
stRp1306
ag1
(g1300
g1155
(dp1307
g62
g74
sg63
g590
sg64
g340
sg65
g585
sg66
g589
stRp1308
ag1
(g1300
g1155
(dp1309
g62
g114
sg63
g964
sg64
g206
sg65
g959
sg66
g963
stRp1310
ag1
(g1300
g1155
(dp1311
g62
g74
sg63
g480
sg64
g138
sg65
g475
sg66
g479
stRp1312
ag1
(g1300
g1155
(dp1313
g62
g74
sg63
g821
sg64
g138
sg65
g816
sg66
g820
stRp1314
ag1
(g1300
g1155
(dp1315
g62
g74
sg63
g84
sg64
g73
sg65
g78
sg66
g83
stRp1316
ag1
(g1300
g1155
(dp1317
g62
g74
sg63
g146
sg64
g138
sg65
g141
sg66
g145
stRp1318
ag1
(g1300
g1155
(dp1319
g62
g74
sg63
g953
sg64
g73
sg65
g948
sg66
g952
stRp1320
ag1
(g1300
g1155
(dp1321
g62
g114
sg63
g832
sg64
g161
sg65
g827
sg66
g831
stRp1322
ag1
(g1300
g1155
(dp1323
g62
g74
sg63
g568
sg64
g73
sg65
g563
sg66
g567
stRp1324
ag1
(g1300
g1155
(dp1325
g62
g74
sg63
g623
sg64
g101
sg65
g618
sg66
g622
stRp1326
ag1
(g1300
g1155
(dp1327
g62
g114
sg63
g303
sg64
g126
sg65
g298
sg66
g302
stRp1328
ag1
(g1300
g1155
(dp1329
g62
g74
sg63
g1041
sg64
g101
sg65
g1036
sg66
g1040
stRp1330
ag1
(g1300
g1155
(dp1331
g62
g74
sg63
g157
sg64
g138
sg65
g152
sg66
g156
stRp1332
ag1
(g1300
g1155
(dp1333
g62
g114
sg63
g1063
sg64
g126
sg65
g1058
sg66
g1062
stRp1334
ag1
(g1300
g1155
(dp1335
g62
g74
sg63
g1129
sg64
g101
sg65
g1124
sg66
g1128
stRp1336
ag1
(g1300
g1155
(dp1337
g62
g74
sg63
g96
sg64
g88
sg65
g91
sg66
g95
stRp1338
ag1
(g1300
g1155
(dp1339
g62
g74
sg63
g403
sg64
g138
sg65
g398
sg66
g402
stRp1340
ag1
(g1300
g1155
(dp1341
g62
g114
sg63
g810
sg64
g126
sg65
g805
sg66
g809
stRp1342
ag1
(g1300
g1155
(dp1343
g62
g114
sg63
g1118
sg64
g113
sg65
g1113
sg66
g1117
stRp1344
ag1
(g1300
g1155
(dp1345
g62
g74
sg63
g491
sg64
g88
sg65
g486
sg66
g490
stRp1346
ag1
(g1300
g1155
(dp1347
g62
g114
sg63
g524
sg64
g113
sg65
g519
sg66
g523
stRp1348
ag1
(g1300
g1155
(dp1349
g62
g114
sg63
g645
sg64
g161
sg65
g640
sg66
g644
stRp1350
ag1
(g1300
g1155
(dp1351
g62
g74
sg63
g458
sg64
g229
sg65
g453
sg66
g457
stRp1352
ag1
(g1300
g1155
(dp1353
g62
g114
sg63
g1085
sg64
g206
sg65
g1080
sg66
g1084
stRp1354
ag1
(g1300
g1155
(dp1355
g62
g114
sg63
g359
sg64
g126
sg65
g354
sg66
g358
stRp1356
ag1
(g1300
g1155
(dp1357
g62
g74
sg63
g700
sg64
g101
sg65
g695
sg66
g699
stRp1358
ag1
(g1300
g1155
(dp1359
g62
g74
sg63
g788
sg64
g138
sg65
g783
sg66
g787
stRp1360
ag1
(g1300
g1155
(dp1361
g62
g74
sg63
g225
sg64
g88
sg65
g220
sg66
g224
stRp1362
ag1
(g1300
g1155
(dp1363
g62
g74
sg63
g975
sg64
g88
sg65
g970
sg66
g974
stRp1364
ag1
(g1300
g1155
(dp1365
g62
g114
sg63
g755
sg64
g126
sg65
g750
sg66
g754
stRp1366
ag1
(g1300
g1155
(dp1367
g62
g114
sg63
g325
sg64
g206
sg65
g320
sg66
g324
stRp1368
ag1
(g1300
g1155
(dp1369
g62
g114
sg63
g214
sg64
g206
sg65
g209
sg66
g213
stRp1370
ag1
(g1300
g1155
(dp1371
g62
g74
sg63
g109
sg64
g101
sg65
g104
sg66
g108
stRp1372
ag1
(g1300
g1155
(dp1373
g62
g74
sg63
g1074
sg64
g229
sg65
g1069
sg66
g1073
stRp1374
ag1
(g1300
g1155
(dp1375
g62
g74
sg63
g348
sg64
g340
sg65
g343
sg66
g347
stRp1376
ag1
(g1300
g1155
(dp1377
g62
g114
sg63
g843
sg64
g206
sg65
g838
sg66
g842
stRp1378
ag1
(g1300
g1155
(dp1379
g62
g114
sg63
g887
sg64
g126
sg65
g882
sg66
g886
stRp1380
ag1
(g1300
g1155
(dp1381
g62
g114
sg63
g436
sg64
g126
sg65
g431
sg66
g435
stRp1382
ag1
(g1300
g1155
(dp1383
g62
g74
sg63
g1030
sg64
g101
sg65
g1025
sg66
g1029
stRp1384
ag1
(g1300
g1155
(dp1385
g62
g114
sg63
g1019
sg64
g206
sg65
g1014
sg66
g1018
stRp1386
ag1
(g1300
g1155
(dp1387
g62
g114
sg63
g546
sg64
g113
sg65
g541
sg66
g545
stRp1388
ag1
(g1300
g1155
(dp1389
g62
g114
sg63
g414
sg64
g206
sg65
g409
sg66
g413
stRp1390
ag1
(g1300
g1155
(dp1391
g62
g114
sg63
g169
sg64
g161
sg65
g164
sg66
g168
stRp1392
ag1
(g1300
g1155
(dp1393
g62
g74
sg63
g744
sg64
g138
sg65
g739
sg66
g743
stRp1394
ag1
(g1300
g1155
(dp1395
g62
g74
sg63
g513
sg64
g138
sg65
g508
sg66
g512
stRp1396
ag1
(g1300
g1155
(dp1397
g62
g114
sg63
g180
sg64
g126
sg65
g175
sg66
g179
stRp1398
ag1
(g1300
g1155
(dp1399
g62
g114
sg63
g777
sg64
g113
sg65
g772
sg66
g776
stRp1400
ag1
(g1300
g1155
(dp1401
g62
g114
sg63
g336
sg64
g126
sg65
g331
sg66
g335
stRp1402
ag1
(g1300
g1155
(dp1403
g62
g114
sg63
g986
sg64
g206
sg65
g981
sg66
g985
stRp1404
ag1
(g1300
g1155
(dp1405
g62
g114
sg63
g942
sg64
g113
sg65
g937
sg66
g941
stRp1406
ag1
(g1300
g1155
(dp1407
g62
g74
sg63
g854
sg64
g101
sg65
g849
sg66
g853
stRp1408
ag1
(g1300
g1155
(dp1409
g62
g74
sg63
g667
sg64
g73
sg65
g662
sg66
g666
stRp1410
ag1
(g1300
g1155
(dp1411
g62
g114
sg63
g1008
sg64
g113
sg65
g1003
sg66
g1007
stRp1412
ag1
(g1300
g1155
(dp1413
g62
g114
sg63
g469
sg64
g206
sg65
g464
sg66
g468
stRp1414
ag1
(g1300
g1155
(dp1415
g62
g114
sg63
g733
sg64
g206
sg65
g728
sg66
g732
stRp1416
ag1
(g1300
g1155
(dp1417
g62
g74
sg63
g292
sg64
g101
sg65
g287
sg66
g291
stRp1418
ag1
(g1300
g1155
(dp1419
g62
g114
sg63
g1107
sg64
g206
sg65
g1102
sg66
g1106
stRp1420
ag1
(g1300
g1155
(dp1421
g62
g114
sg63
g898
sg64
g206
sg65
g893
sg66
g897
stRp1422
ag1
(g1300
g1155
(dp1423
g62
g114
sg63
g634
sg64
g206
sg65
g629
sg66
g633
stRp1424
ag1
(g1300
g1155
(dp1425
g62
g74
sg63
g392
sg64
g229
sg65
g387
sg66
g391
stRp1426
ag1
(g1300
g1155
(dp1427
g62
g114
sg63
g909
sg64
g206
sg65
g904
sg66
g908
stRp1428
ag1
(g1300
g1155
(dp1429
g62
g74
sg63
g259
sg64
g73
sg65
g254
sg66
g258
stRp1430
ag1
(g1300
g1155
(dp1431
g62
g114
sg63
g579
sg64
g113
sg65
g574
sg66
g578
stRp1432
ag1
(g1300
g1155
(dp1433
g62
g74
sg63
g314
sg64
g88
sg65
g309
sg66
g313
stRp1434
ag1
(g1300
g1155
(dp1435
g62
g114
sg63
g722
sg64
g206
sg65
g717
sg66
g721
stRp1436
ag1
(g1300
g1155
(dp1437
g62
g114
sg63
g612
sg64
g126
sg65
g607
sg66
g611
stRp1438
ag1
(g1300
g1155
(dp1439
g62
g74
sg63
g191
sg64
g138
sg65
g186
sg66
g190
stRp1440
ag1
(g1300
g1155
(dp1441
g62
g114
sg63
g678
sg64
g206
sg65
g673
sg66
g677
stRp1442
ag1
(g1300
g1155
(dp1443
g62
g74
sg63
g656
sg64
g88
sg65
g651
sg66
g655
stRp1444
ag1
(g1300
g1155
(dp1445
g62
g74
sg63
g865
sg64
g229
sg65
g860
sg66
g864
stRp1446
ag1
(g1300
g1155
(dp1447
g62
g114
sg63
g425
sg64
g161
sg65
g420
sg66
g424
stRp1448
ag1
(g1300
g1155
(dp1449
g62
g114
sg63
g1140
sg64
g206
sg65
g1135
sg66
g1139
stRp1450
ag1
(g1300
g1155
(dp1451
g62
g114
sg63
g711
sg64
g113
sg65
g706
sg66
g710
stRp1452
ag1
(g1300
g1155
(dp1453
g62
g74
sg63
g370
sg64
g73
sg65
g365
sg66
g369
stRp1454
ag1
(g1300
g1155
(dp1455
g62
g74
sg63
g1096
sg64
g88
sg65
g1091
sg66
g1095
stRp1456
ag1
(g1300
g1155
(dp1457
g62
g74
sg63
g281
sg64
g138
sg65
g276
sg66
g280
stRp1458
ag1
(g1300
g1155
(dp1459
g62
g114
sg63
g557
sg64
g206
sg65
g552
sg66
g556
stRp1460
ag1
(g1300
g1155
(dp1461
g62
g114
sg63
g122
sg64
g113
sg65
g117
sg66
g121
stRp1462
ag1
(g1300
g1155
(dp1463
g62
g74
sg63
g381
sg64
g138
sg65
g376
sg66
g380
stRp1464
ag1
(g1300
g1155
(dp1465
g62
g114
sg63
g202
sg64
g126
sg65
g197
sg66
g201
stRp1466
ag1
(g1300
g1155
(dp1467
g62
g74
sg63
g799
sg64
g88
sg65
g794
sg66
g798
stRp1468
ag1
(g1300
g1155
(dp1469
g62
g114
sg63
g997
sg64
g126
sg65
g992
sg66
g996
stRp1470
ag1
(g1300
g1155
(dp1471
g62
g114
sg63
g920
sg64
g206
sg65
g915
sg66
g919
stRp1472
ag1
(g1300
g1155
(dp1473
g62
g74
sg63
g1052
sg64
g73
sg65
g1047
sg66
g1051
stRp1474
ag1
(g1300
g1155
(dp1475
g62
g74
sg63
g447
sg64
g73
sg65
g442
sg66
g446
stRp1476
ag1
(g1300
g1155
(dp1477
g62
g74
sg63
g931
sg64
g229
sg65
g926
sg66
g930
stRp1478
ag1
(g1300
g1155
(dp1479
g62
g74
sg63
g502
sg64
g229
sg65
g497
sg66
g501
stRp1480
ag1
(g1300
g1155
(dp1481
g62
g114
sg63
g535
sg64
g126
sg65
g530
sg66
g534
stRp1482
ag1
(g1300
g1155
(dp1483
g62
g74
sg63
g689
sg64
g73
sg65
g684
sg66
g688
stRp1484
ag1
(g1300
g1155
(dp1485
g62
g74
sg63
g237
sg64
g229
sg65
g232
sg66
g236
stRp1486
ag1
(g1300
g1155
(dp1487
g62
g74
sg63
g876
sg64
g138
sg65
g871
sg66
g875
stRp1488
ag1
(g1300
g1155
(dp1489
g62
g114
sg63
g270
sg64
g113
sg65
g265
sg66
g269
stRp1490
ag1
(g1300
g1155
(dp1491
g62
g114
sg63
g134
sg64
g126
sg65
g129
sg66
g133
stRp1492
asS'seed'
p1493
NsS'thisIndex'
p1494
g1137
sS'thisN'
p1495
I96
sS'thisTrialN'
p1496
I0
sS'nTotal'
p1497
I96
sS'_warnUseOfNext'
p1498
I01
sbasS'savePickle'
p1499
I00
sb.