ccopy_reg
_reconstructor
p1
(cpsychopy.data
ExperimentHandler
p2
c__builtin__
object
p3
NtRp4
(dp5
S'originPath'
p6
NsS'dataFileName'
p7
VC:\u005cDocuments and Settings\u005cExperimental user\u005cMy Documents\u005cconsciousness\u005cuncon_feat\u005cexperiment_scripts\u005cdata/jesica_Experiment_EEG_version_2019_jun_14_1307
p8
sS'runtimeInfo'
p9
NsS'name'
p10
VExperiment_EEG_version
p11
sS'dataNames'
p12
(lp13
S'image_onset_time'
p14
aS'response_window'
p15
aS'correctAns'
p16
aS'probe_onset'
p17
aS'discrim_resptime'
p18
aS'response.corr'
p19
aS'response.keys'
p20
aS'response.rt'
p21
aS'visible_resptime'
p22
aS'visible.keys'
p23
aS'visible.corr'
p24
aS'visible.rt'
p25
aS'probeFrames'
p26
aS'jitter2'
p27
asS'autoLog'
p28
I01
sS'extraInfo'
p29
(dp30
Vn_square
p31
V32
p32
sVexperiment_color
p33
Vbw
p34
sS'frameRate'
p35
cnumpy.core.multiarray
scalar
p36
(cnumpy
dtype
p37
(S'f8'
I0
I1
tRp38
(I3
S'<'
NNNI-1
I-1
I0
tbS'4\x86\x80N\x10\xf2X@'
tRp39
sS'date'
p40
V2019_jun_14_1307
p41
sVsession
p42
V015
p43
sVimage_size
p44
V256
p45
sVpremask_dur
p46
V20
p47
sVprobeFrames
p48
V5
sVparticipant
p49
Vjesica
p50
sS'expName'
p51
g11
sVpostmask_dur
p52
V20
p53
ssS'loopsUnfinished'
p54
(lp55
sS'saveWideText'
p56
I00
sS'thisEntry'
p57
(dp58
sS'version'
p59
S''
sS'_paramNamesSoFar'
p60
(lp61
S'category'
p62
aS'probe_path'
p63
aS'subcategory'
p64
aS'fixation_duration'
p65
aS'label'
p66
asS'entries'
p67
(lp68
(dp69
g31
g32
sg17
F3.7417368297465146
sg24
I1
sg35
g39
sg14
F3.7204020940698683
sg16
g36
(g37
(S'i4'
I0
I1
tRp70
(I3
S'<'
NNNI-1
I-1
I0
tbS'\x01\x00\x00\x00'
tRp71
sg42
g43
sg46
g47
sg15
S'nV_V'
p72
sg22
F5.4450444998219609
sg64
VVehicles
p73
sg62
VNonliving_Things
p74
sg49
g50
sS'trials.thisN'
p75
I0
sg19
I1
sg27
g36
(g38
S'\x00\x00\x00\x00\x00\x00\x18@'
tRp76
sg52
g53
sg23
S'1'
sg18
F5.0031055845320225
sg33
g34
sg51
g11
sg20
S'1'
sg65
g36
(g37
(S'i8'
I0
I1
tRp77
(I3
S'<'
NNNI-1
I-1
I0
tbS'\x00\x00\x00\x00\x00\x00\x00\x00'
tRp78
sg44
g45
sg40
g41
sg25
F0.55142005393281579
sS'trials.thisIndex'
p79
g36
(g37
(S'i4'
I0
I1
tRp80
(I3
S'<'
NNNI-1
I-1
I0
tbS'L\x00\x00\x00'
tRp81
sg26
V5
sS'trials.thisRepN'
p82
I0
sg66
Vship
p83
sg63
V../experiment_stimuli/bw_bc_bl/Nonliving_Things/Vehicles/ship_21.jpg
p84
sg21
F0.41111983405426145
sS'trials.thisTrialN'
p85
I0
sa(dp86
g31
g32
sg17
F7.7340393946506083
sg24
I0
sg35
g39
sg14
F7.7291216640733182
sg16
g36
(g70
S'\x01\x00\x00\x00'
tRp87
sg42
g43
sg46
g47
sg15
S'V_nV'
p88
sg22
F9.8042814750224352
sg64
VAnimals
p89
sg62
VLiving_Things
p90
sg49
g50
sS'trials.thisN'
p91
I1
sg19
I1
sg27
g36
(g38
S'\x00\x00\x00\x00\x00\x00\x18@'
tRp92
sg52
g53
sg23
S'2'
sg18
F9.0118064894340932
sg33
g34
sg51
g11
sg20
S'1'
sg65
g36
(g77
S'\x00\x00\x00\x00\x00\x00\x00\x00'
tRp93
sg44
g45
sg40
g41
sg25
F0.85207701893523335
sS'trials.thisIndex'
p94
g36
(g80
S'2\x00\x00\x00'
tRp95
sg26
V5
sS'trials.thisRepN'
p96
I0
sg66
Vlynx
p97
sg63
V../experiment_stimuli/bw_bc_bl/Living_Things/Animals/lynx_16.jpg
p98
sg21
F0.77190200192853808
sS'trials.thisTrialN'
p99
I1
sa(dp100
g31
g32
sg17
F12.394296231679618
sg24
I0
sg35
g39
sg14
F12.389250743668526
sg16
g36
(g70
S'\x02\x00\x00\x00'
tRp101
sg42
g43
sg46
g47
sg15
g72
sg22
F14.344141633715481
sg64
VMarine_creatures
p102
sg62
g90
sg49
g50
sS'trials.thisN'
p103
I2
sg19
I1
sg27
g36
(g38
S'\x00\x00\x00\x00\x00\x00\x1a@'
tRp104
sg52
g53
sg23
S'2'
sg18
F13.661916791461408
sg33
g34
sg51
g11
sg20
S'2'
sg65
g36
(g77
S'\x00\x00\x00\x00\x00\x00\x00\x00'
tRp105
sg44
g45
sg40
g41
sg25
F0.3108899649232626
sS'trials.thisIndex'
p106
g36
(g80
S'1\x00\x00\x00'
tRp107
sg26
V5
sS'trials.thisRepN'
p108
I0
sg66
Vlobster
p109
sg63
V../experiment_stimuli/bw_bc_bl/Living_Things/Marine_creatures/lobster_25.jpg
p110
sg21
F0.66166966268792748
sS'trials.thisTrialN'
p111
I2
sa(dp112
g31
g32
sg17
F16.393204029183835
sg24
I0
sg35
g39
sg14
F16.387938825879246
sg16
g36
(g70
S'\x02\x00\x00\x00'
tRp113
sg42
g43
sg46
g47
sg15
g88
sg22
F18.272666386328638
sg64
VKitchen_Uten
p114
sg62
g74
sg49
g50
sS'trials.thisN'
p115
I3
sg19
I1
sg27
g36
(g38
S'\x00\x00\x00\x00\x00\x00\x1c@'
tRp116
sg52
g53
sg23
S'2'
sg18
F17.65058968635276
sg33
g34
sg51
g11
sg20
S'2'
sg65
g36
(g77
S'\x00\x00\x00\x00\x00\x00\x00\x00'
tRp117
sg44
g45
sg40
g41
sg25
F0.40109454141929746
sS'trials.thisIndex'
p118
g36
(g80
S'\x16\x00\x00\x00'
tRp119
sg26
V5
sS'trials.thisRepN'
p120
I0
sg66
Vcup
p121
sg63
V../experiment_stimuli/bw_bc_bl/Nonliving_Things/Kitchen_Uten/cup_0.jpg
p122
sg21
F0.60153598338365555
sS'trials.thisTrialN'
p123
I3
sa(dp124
g31
g32
sg17
F20.41164632840082
sg24
I1
sg35
g39
sg14
F20.406675091013312
sg16
g36
(g70
S'\x01\x00\x00\x00'
tRp125
sg42
g43
sg46
g47
sg15
g88
sg22
F22.5820427746512
sg64
g89
sg62
g90
sg49
g50
sS'trials.thisN'
p126
I4
sg19
I1
sg27
g36
(g38
S'\x00\x00\x00\x00\x00\x00\x18@'
tRp127
sg52
g53
sg23
S'1'
sg18
F21.659317673649639
sg33
g34
sg51
g11
sg20
S'1'
sg65
g36
(g77
S'\x00\x00\x00\x00\x00\x00\x00\x00'
tRp128
sg44
g45
sg40
g41
sg25
F0.23072430491447449
sS'trials.thisIndex'
p129
g36
(g80
S'\x10\x00\x00\x00'
tRp130
sg26
V5
sS'trials.thisRepN'
p131
I0
sg66
Vcheetah
p132
sg63
V../experiment_stimuli/bw_bc_bl/Living_Things/Animals/cheetah_5.jpg
p133
sg21
F0.9021910154260695
sS'trials.thisTrialN'
p134
I4
sa(dp135
g31
g32
sg17
F24.550617514178157
sg24
I1
sg35
g39
sg14
F24.54567615268752
sg16
g36
(g70
S'\x01\x00\x00\x00'
tRp136
sg42
g43
sg46
g47
sg15
g72
sg22
F26.550671219825745
sg64
VBuildings
p137
sg62
g74
sg49
g50
sS'trials.thisN'
p138
I5
sg19
I1
sg27
g36
(g38
S'\x00\x00\x00\x00\x00\x00\x1c@'
tRp139
sg52
g53
sg23
S'1'
sg18
F25.818342933896929
sg33
g34
sg51
g11
sg20
S'1'
sg65
g36
(g77
S'\x00\x00\x00\x00\x00\x00\x00\x00'
tRp140
sg44
g45
sg40
g41
sg25
F0.32091806922107935
sS'trials.thisIndex'
p141
g36
(g80
S'\x0e\x00\x00\x00'
tRp142
sg26
V5
sS'trials.thisRepN'
p143
I0
sg66
Vcathedral
p144
sg63
V../experiment_stimuli/bw_bc_bl/Nonliving_Things/Buildings/cathedral_20.jpg
p145
sg21
F0.71177571965381503
sS'trials.thisTrialN'
p146
I5
sa(dp147
g31
g32
sg17
F28.609770565759391
sg24
I0
sg35
g39
sg14
F28.604502786882222
sg16
g36
(g70
S'\x01\x00\x00\x00'
tRp148
sg42
g43
sg46
g47
sg15
g72
sg22
F30.920178525149822
sg64
g114
sg62
g74
sg49
g50
sS'trials.thisN'
p149
I6
sg19
I1
sg27
g36
(g38
S'\x00\x00\x00\x00\x00\x00\x18@'
tRp150
sg52
g53
sg23
S'2'
sg18
F29.907231566030532
sg33
g34
sg51
g11
sg20
S'1'
sg65
g36
(g77
S'\x00\x00\x00\x00\x00\x00\x00\x00'
tRp151
sg44
g45
sg40
g41
sg25
F0.28083822596818209
sS'trials.thisIndex'
p152
g36
(g80
S'\x12\x00\x00\x00'
tRp153
sg26
V5
sS'trials.thisRepN'
p154
I0
sg66
Vcoking-pot
p155
sg63
V../experiment_stimuli/bw_bc_bl/Nonliving_Things/Kitchen_Uten/coking-pot_5.jpg
p156
sg21
F0.99238990060985088
sS'trials.thisTrialN'
p157
I6
sa(dp158
g31
g32
sg17
F32.939910423476249
sg24
I0
sg35
g39
sg14
F32.933914734516293
sg16
g36
(g70
S'\x01\x00\x00\x00'
tRp159
sg42
g43
sg46
g47
sg15
g88
sg22
F35.109277545940131
sg64
VBirds
p160
sg62
g90
sg49
g50
sS'trials.thisN'
p161
I7
sg19
I1
sg27
g36
(g38
S'\x00\x00\x00\x00\x00\x00\x18@'
tRp162
sg52
g53
sg23
S'2'
sg18
F34.226619412656873
sg33
g34
sg51
g11
sg20
S'1'
sg65
g36
(g77
S'\x00\x00\x00\x00\x00\x00\x00\x00'
tRp163
sg44
g45
sg40
g41
sg25
F0.23075646953657269
sS'trials.thisIndex'
p164
g36
(g80
S'<\x00\x00\x00'
tRp165
sg26
V5
sS'trials.thisRepN'
p166
I0
sg66
Vpelican
p167
sg63
V../experiment_stimuli/bw_bc_bl/Living_Things/Birds/pelican_5.jpg
p168
sg21
F0.86210871720686555
sS'trials.thisTrialN'
p169
I7
sa(dp170
g31
g32
sg17
F37.077714716549963
sg24
I1
sg35
g39
sg14
F37.072906581684947
sg16
g36
(g70
S'\x01\x00\x00\x00'
tRp171
sg42
g43
sg46
g47
sg15
g88
sg22
F40.881653873249888
sg64
g160
sg62
g90
sg49
g50
sS'trials.thisN'
p172
I8
sg19
I1
sg27
g36
(g38
S'\x00\x00\x00\x00\x00\x00\x1a@'
tRp173
sg52
g53
sg23
S'1'
sg18
F38.355601967778057
sg33
g34
sg51
g11
sg20
S'1'
sg65
g36
(g77
S'\x00\x00\x00\x00\x00\x00\x00\x00'
tRp174
sg44
g45
sg40
g41
sg25
F0.26080016372725368
sS'trials.thisIndex'
p175
g36
(g80
S'!\x00\x00\x00'
tRp176
sg26
V5
sS'trials.thisRepN'
p177
I0
sg66
Vgoldfinch
p178
sg63
V../experiment_stimuli/bw_bc_bl/Living_Things/Birds/goldfinch_24.jpg
p179
sg21
F2.5055154100991786
sS'trials.thisTrialN'
p180
I8
sa(dp181
g31
g32
sg17
F42.880436263047159
sg24
I0
sg35
g39
sg14
F42.875525103416294
sg16
g36
(g70
S'\x01\x00\x00\x00'
tRp182
sg42
g43
sg46
g47
sg15
g88
sg22
F44.880539610981941
sg64
g160
sg62
g90
sg49
g50
sS'trials.thisN'
p183
I9
sg19
I1
sg27
g36
(g38
S'\x00\x00\x00\x00\x00\x00\x1a@'
tRp184
sg52
g53
sg23
S'2'
sg18
F44.168230011127889
sg33
g34
sg51
g11
sg20
S'1'
sg65
g36
(g77
S'\x00\x00\x00\x00\x00\x00\x00\x00'
tRp185
sg44
g45
sg40
g41
sg25
F0.38105504680424929
sS'trials.thisIndex'
p186
g36
(g80
S';\x00\x00\x00'
tRp187
sg26
V5
sS'trials.thisRepN'
p188
I0
sg66
Vpartridge
p189
sg63
V../experiment_stimuli/bw_bc_bl/Living_Things/Birds/partridge_9.jpg
p190
sg21
F0.69174831546843052
sS'trials.thisTrialN'
p191
I9
sa(dp192
g31
g32
sg17
F46.99943769723177
sg24
I0
sg35
g39
sg14
F46.994475132785738
sg16
g36
(g70
S'\x01\x00\x00\x00'
tRp193
sg42
g43
sg46
g47
sg15
g72
sg22
F48.969411032740027
sg64
VMusical_Inst
p194
sg62
g74
sg49
g50
sS'trials.thisN'
p195
I10
sg19
I1
sg27
g36
(g38
S'\x00\x00\x00\x00\x00\x00 @'
tRp196
sg52
g53
sg23
S'3'
sg18
F48.277161732781678
sg33
g34
sg51
g11
sg20
S'1'
sg65
g36
(g77
S'\x00\x00\x00\x00\x00\x00\x00\x00'
tRp197
sg44
g45
sg40
g41
sg25
F0.43115712562575936
sS'trials.thisIndex'
p198
g36
(g80
S'Y\x00\x00\x00'
tRp199
sg26
V5
sS'trials.thisRepN'
p200
I0
sg66
Vtuba
p201
sg63
V../experiment_stimuli/bw_bc_bl/Nonliving_Things/Musical_Inst/tuba_13.jpg
p202
sg21
F0.67168461717665195
sS'trials.thisTrialN'
p203
I10
sa(dp204
g31
g32
sg17
F51.138310648035258
sg24
I1
sg35
g39
sg14
F51.133476731833071
sg16
g36
(g70
S'\x02\x00\x00\x00'
tRp205
sg42
g43
sg46
g47
sg15
g88
sg22
F52.607336924877018
sg64
g114
sg62
g74
sg49
g50
sS'trials.thisN'
p206
I11
sg19
I0
sg27
g36
(g38
S'\x00\x00\x00\x00\x00\x00\x1a@'
tRp207
sg52
g53
sg23
S'1'
sg18
F52.396120299585164
sg33
g34
sg51
g11
sg20
S'1'
sg65
g36
(g77
S'\x00\x00\x00\x00\x00\x00\x00\x00'
tRp208
sg44
g45
sg40
g41
sg25
F0.23074708227068186
sS'trials.thisIndex'
p209
g36
(g80
S'\x1e\x00\x00\x00'
tRp210
sg26
V5
sS'trials.thisRepN'
p211
I0
sg66
Vfondue
p212
sg63
V../experiment_stimuli/bw_bc_bl/Nonliving_Things/Kitchen_Uten/fondue_13.jpg
p213
sg21
F0.19066176936030388
sS'trials.thisTrialN'
p214
I11
sa(dp215
g31
g32
sg17
F54.575726689770818
sg24
I1
sg35
g39
sg14
F54.570945442188531
sg16
g36
(g70
S'\x01\x00\x00\x00'
tRp216
sg42
g43
sg46
g47
sg15
g88
sg22
F56.706210241653025
sg64
g102
sg62
g90
sg49
g50
sS'trials.thisN'
p217
I12
sg19
I1
sg27
g36
(g38
S'\x00\x00\x00\x00\x00\x00\x1c@'
tRp218
sg52
g53
sg23
S'1'
sg18
F55.863659398630261
sg33
g34
sg51
g11
sg20
S'1'
sg65
g36
(g77
S'\x00\x00\x00\x00\x00\x00\x00\x00'
tRp219
sg44
g45
sg40
g41
sg25
F0.29086880432441831
sS'trials.thisIndex'
p220
g36
(g80
S'A\x00\x00\x00'
tRp221
sg26
V5
sS'trials.thisRepN'
p222
I0
sg66
Vpomfret
p223
sg63
V../experiment_stimuli/bw_bc_bl/Living_Things/Marine_creatures/pomfret_18.jpg
p224
sg21
F0.82201521657407284
sS'trials.thisTrialN'
p225
I12
sa(dp226
g31
g32
sg17
F58.735451123677194
sg24
I1
sg35
g39
sg14
F58.729990679305047
sg16
g36
(g70
S'\x02\x00\x00\x00'
tRp227
sg42
g43
sg46
g47
sg15
g88
sg22
F60.334130291827023
sg64
g137
sg62
g74
sg49
g50
sS'trials.thisN'
p228
I13
sg19
I0
sg27
g36
(g38
S'\x00\x00\x00\x00\x00\x00\x18@'
tRp229
sg52
g53
sg23
S'1'
sg18
F60.042740833479911
sg33
g34
sg51
g11
sg20
S'1'
sg65
g36
(g77
S'\x00\x00\x00\x00\x00\x00\x00\x00'
tRp230
sg44
g45
sg40
g41
sg25
F0.23056701011955738
sS'trials.thisIndex'
p231
g36
(g80
S':\x00\x00\x00'
tRp232
sg26
V5
sS'trials.thisRepN'
p233
I0
sg66
Vpalace
p234
sg63
V../experiment_stimuli/bw_bc_bl/Nonliving_Things/Buildings/palace_19.jpg
p235
sg21
F0.27081625675782561
sS'trials.thisTrialN'
p236
I13
sa(dp237
g31
g32
sg17
F62.303264234215021
sg24
I0
sg35
g39
sg14
F62.297743557021022
sg16
g36
(g70
S'\x02\x00\x00\x00'
tRp238
sg42
g43
sg46
g47
sg15
g88
sg22
F64.833895506337285
sg64
g114
sg62
g74
sg49
g50
sS'trials.thisN'
p239
I14
sg19
I1
sg27
g36
(g38
S'\x00\x00\x00\x00\x00\x00\x1a@'
tRp240
sg52
g53
sg23
S'2'
sg18
F63.620520857162774
sg33
g34
sg51
g11
sg20
S'2'
sg65
g36
(g77
S'\x00\x00\x00\x00\x00\x00\x00\x00'
tRp241
sg44
g45
sg40
g41
sg25
F0.19063757080584764
sS'trials.thisIndex'
p242
g36
(g80
S'M\x00\x00\x00'
tRp243
sg26
V5
sS'trials.thisRepN'
p244
I0
sg66
Vsmall-saucepan
p245
sg63
V../experiment_stimuli/bw_bc_bl/Nonliving_Things/Kitchen_Uten/small-saucepan_15.jpg
p246
sg21
F1.1928172777406871
sS'trials.thisTrialN'
p247
I14
sa(dp248
g31
g32
sg17
F66.762282445561141
sg24
I0
sg35
g39
sg14
F66.757447484415025
sg16
g36
(g70
S'\x02\x00\x00\x00'
tRp249
sg42
g43
sg46
g47
sg15
g88
sg22
F68.702303638681769
sg64
VFurniture
p250
sg62
g74
sg49
g50
sS'trials.thisN'
p251
I15
sg19
I1
sg27
g36
(g38
S'\x00\x00\x00\x00\x00\x00\x1a@'
tRp252
sg52
g53
sg23
S'3'
sg18
F68.070193559862673
sg33
g34
sg51
g11
sg20
S'2'
sg65
g36
(g77
S'\x00\x00\x00\x00\x00\x00\x00\x00'
tRp253
sg44
g45
sg40
g41
sg25
F0.22070554969832301
sS'trials.thisIndex'
p254
g36
(g80
S'Q\x00\x00\x00'
tRp255
sg26
V5
sS'trials.thisRepN'
p256
I0
sg66
Vtable
p257
sg63
V../experiment_stimuli/bw_bc_bl/Nonliving_Things/Furniture/table_6.jpg
p258
sg21
F0.60153163364157081
sS'trials.thisTrialN'
p259
I15
sa(dp260
g31
g32
sg17
F70.660763835068792
sg24
I0
sg35
g39
sg14
F70.655914606992155
sg16
g36
(g70
S'\x02\x00\x00\x00'
tRp261
sg42
g43
sg46
g47
sg15
g88
sg22
F72.58074225531891
sg64
g194
sg62
g74
sg49
g50
sS'trials.thisN'
p262
I16
sg19
I1
sg27
g36
(g38
S'\x00\x00\x00\x00\x00\x00\x1e@'
tRp263
sg52
g53
sg23
S'3'
sg18
F71.938600831199437
sg33
g34
sg51
g11
sg20
S'2'
sg65
g36
(g77
S'\x00\x00\x00\x00\x00\x00\x00\x00'
tRp264
sg44
g45
sg40
g41
sg25
F0.18061262741684914
sS'trials.thisIndex'
p265
g36
(g80
S'$\x00\x00\x00'
tRp266
sg26
V5
sS'trials.thisRepN'
p267
I0
sg66
Vguitar
p268
sg63
V../experiment_stimuli/bw_bc_bl/Nonliving_Things/Musical_Inst/guitar_23.jpg
p269
sg21
F0.62158669531345367
sS'trials.thisTrialN'
p270
I16
sa(dp271
g31
g32
sg17
F74.499142296146601
sg24
I1
sg35
g39
sg14
F74.494258140213788
sg16
g36
(g70
S'\x02\x00\x00\x00'
tRp272
sg42
g43
sg46
g47
sg15
g72
sg22
F76.048290244769305
sg64
g160
sg62
g90
sg49
g50
sS'trials.thisN'
p273
I17
sg19
I0
sg27
g36
(g38
S'\x00\x00\x00\x00\x00\x00\x1a@'
tRp274
sg52
g53
sg23
S'1'
sg18
F75.756906726397574
sg33
g34
sg51
g11
sg20
S'1'
sg65
g36
(g77
S'\x00\x00\x00\x00\x00\x00\x00\x00'
tRp275
sg44
g45
sg40
g41
sg25
F0.20066923880949616
sS'trials.thisIndex'
p276
g36
(g80
S'8\x00\x00\x00'
tRp277
sg26
V5
sS'trials.thisRepN'
p278
I0
sg66
Vostrich
p279
sg63
V../experiment_stimuli/bw_bc_bl/Living_Things/Birds/ostrich_17.jpg
p280
sg21
F0.27083235792815685
sS'trials.thisTrialN'
p281
I17
sa(dp282
g31
g32
sg17
F77.986676962114871
sg24
I0
sg35
g39
sg14
F77.981841873377562
sg16
g36
(g70
S'\x02\x00\x00\x00'
tRp283
sg42
g43
sg46
g47
sg15
g88
sg22
F81.70056473184377
sg64
g250
sg62
g74
sg49
g50
sS'trials.thisN'
p284
I18
sg19
I1
sg27
g36
(g38
S'\x00\x00\x00\x00\x00\x00\x1a@'
tRp285
sg52
g53
sg23
S'2'
sg18
F79.26452970225364
sg33
g34
sg51
g11
sg20
S'2'
sg65
g36
(g77
S'\x00\x00\x00\x00\x00\x00\x00\x00'
tRp286
sg44
g45
sg40
g41
sg25
F0.23073902260512114
sS'trials.thisIndex'
p287
g36
(g80
S'\x05\x00\x00\x00'
tRp288
sg26
V5
sS'trials.thisRepN'
p289
I0
sg66
Vbed
p290
sg63
V../experiment_stimuli/bw_bc_bl/Nonliving_Things/Furniture/bed_19.jpg
p291
sg21
F2.4154829252511263
sS'trials.thisTrialN'
p292
I18
sa(dp293
g31
g32
sg17
F83.670410054735839
sg24
I0
sg35
g39
sg14
F83.664201553445309
sg16
g36
(g70
S'\x01\x00\x00\x00'
tRp294
sg42
g43
sg46
g47
sg15
g72
sg22
F85.629102007020265
sg64
g137
sg62
g74
sg49
g50
sS'trials.thisN'
p295
I19
sg19
I1
sg27
g36
(g38
S'\x00\x00\x00\x00\x00\x00\x18@'
tRp296
sg52
g53
sg23
S'2'
sg18
F84.936859116423875
sg33
g34
sg51
g11
sg20
S'1'
sg65
g36
(g77
S'\x00\x00\x00\x00\x00\x00\x00\x00'
tRp297
sg44
g45
sg40
g41
sg25
F0.15054741175845265
sS'trials.thisIndex'
p298
g36
(g80
S')\x00\x00\x00'
tRp299
sg26
V5
sS'trials.thisRepN'
p300
I0
sg66
Vhouse
p301
sg63
V../experiment_stimuli/bw_bc_bl/Nonliving_Things/Buildings/house_8.jpg
p302
sg21
F0.67168716993182898
sS'trials.thisTrialN'
p303
I19
sa(dp304
g31
g32
sg17
F87.517724613659084
sg24
I0
sg35
g39
sg14
F87.512558502610773
sg16
g36
(g70
S'\x01\x00\x00\x00'
tRp305
sg42
g43
sg46
g47
sg15
g72
sg22
F89.35722357686609
sg64
g137
sg62
g74
sg49
g50
sS'trials.thisN'
p306
I20
sg19
I1
sg27
g36
(g38
S'\x00\x00\x00\x00\x00\x00\x18@'
tRp307
sg52
g53
sg23
S'2'
sg18
F88.775203314609826
sg33
g34
sg51
g11
sg20
S'1'
sg65
g36
(g77
S'\x00\x00\x00\x00\x00\x00\x00\x00'
tRp308
sg44
g45
sg40
g41
sg25
F0.21068134717643261
sS'trials.thisIndex'
p309
g36
(g80
S'#\x00\x00\x00'
tRp310
sg26
V5
sS'trials.thisRepN'
p311
I0
sg66
Vgranary
p312
sg63
V../experiment_stimuli/bw_bc_bl/Nonliving_Things/Buildings/granary_11.jpg
p313
sg21
F0.56146369921043515
sS'trials.thisTrialN'
p314
I20
sa(dp315
g31
g32
sg17
F91.305702450219542
sg24
I1
sg35
g39
sg14
F91.300804892554879
sg16
g36
(g70
S'\x01\x00\x00\x00'
tRp316
sg42
g43
sg46
g47
sg15
g72
sg22
F93.265712428372353
sg64
VTools
p317
sg62
g74
sg49
g50
sS'trials.thisN'
p318
I21
sg19
I1
sg27
g36
(g38
S'\x00\x00\x00\x00\x00\x00\x1c@'
tRp319
sg52
g53
sg23
S'1'
sg18
F92.5534254941158
sg33
g34
sg51
g11
sg20
S'1'
sg65
g36
(g77
S'\x00\x00\x00\x00\x00\x00\x00\x00'
tRp320
sg44
g45
sg40
g41
sg25
F0.20067774970084429
sS'trials.thisIndex'
p321
g36
(g80
S'\x03\x00\x00\x00'
tRp322
sg26
V5
sS'trials.thisRepN'
p323
I0
sg66
Vaxe
p324
sg63
V../experiment_stimuli/bw_bc_bl/Nonliving_Things/Tools/axe_5.jpg
p325
sg21
F0.69173773238435388
sS'trials.thisTrialN'
p326
I21
sa(dp327
g31
g32
sg17
F95.20567363826558
sg24
I0
sg35
g39
sg14
F95.199274056591094
sg16
g36
(g70
S'\x02\x00\x00\x00'
tRp328
sg42
g43
sg46
g47
sg15
g88
sg22
F97.114072885829955
sg64
g114
sg62
g74
sg49
g50
sS'trials.thisN'
p329
I22
sg19
I1
sg27
g36
(g38
S'\x00\x00\x00\x00\x00\x00\x1a@'
tRp330
sg52
g53
sg23
S'3'
sg18
F96.461913725361228
sg33
g34
sg51
g11
sg20
S'2'
sg65
g36
(g77
S'\x00\x00\x00\x00\x00\x00\x00\x00'
tRp331
sg44
g45
sg40
g41
sg25
F0.24076139787212014
sS'trials.thisIndex'
p332
g36
(g80
S'G\x00\x00\x00'
tRp333
sg26
V5
sS'trials.thisRepN'
p334
I0
sg66
Vsaucepan
p335
sg63
V../experiment_stimuli/bw_bc_bl/Nonliving_Things/Kitchen_Uten/saucepan_2.jpg
p336
sg21
F0.63159809354692698
sS'trials.thisTrialN'
p337
I22
sa(dp338
g31
g32
sg17
F99.094272579066455
sg24
I1
sg35
g39
sg14
F99.087726202327758
sg16
g36
(g70
S'\x02\x00\x00\x00'
tRp339
sg42
g43
sg46
g47
sg15
g72
sg22
F101.09274839702994
sg64
g102
sg62
g90
sg49
g50
sS'trials.thisN'
p340
I23
sg19
I0
sg27
g36
(g38
S'\x00\x00\x00\x00\x00\x00\x1e@'
tRp341
sg52
g53
sg23
S'1'
sg18
F100.32031247485429
sg33
g34
sg51
g11
sg20
S'1'
sg65
g36
(g77
S'\x00\x00\x00\x00\x00\x00\x00\x00'
tRp342
sg44
g45
sg40
g41
sg25
F0.26079390430822968
sS'trials.thisIndex'
p343
g36
(g80
S'+\x00\x00\x00'
tRp344
sg26
V5
sS'trials.thisRepN'
p345
I0
sg66
Vkiller-whale
p346
sg63
V../experiment_stimuli/bw_bc_bl/Living_Things/Marine_creatures/killer-whale_1.jpg
p347
sg21
F0.75187483336776495
sS'trials.thisTrialN'
p348
I23
sa(dp349
g31
g32
sg17
F103.09137451089919
sg24
I1
sg35
g39
sg14
F103.08641792740673
sg16
g36
(g70
S'\x02\x00\x00\x00'
tRp350
sg42
g43
sg46
g47
sg15
g72
sg22
F104.98121638176963
sg64
VInsects
p351
sg62
g90
sg49
g50
sS'trials.thisN'
p352
I24
sg19
I0
sg27
g36
(g38
S'\x00\x00\x00\x00\x00\x00 @'
tRp353
sg52
g53
sg23
S'1'
sg18
F104.34907147614285
sg33
g34
sg51
g11
sg20
S'1'
sg65
g36
(g77
S'\x00\x00\x00\x00\x00\x00\x00\x00'
tRp354
sg44
g45
sg40
g41
sg25
F0.20065896864980459
sS'trials.thisIndex'
p355
g36
(g80
S'I\x00\x00\x00'
tRp356
sg26
V5
sS'trials.thisRepN'
p357
I0
sg66
Vscorpion
p358
sg63
V../experiment_stimuli/bw_bc_bl/Living_Things/Insects/scorpion_3.jpg
p359
sg21
F0.61157157178968191
sS'trials.thisTrialN'
p360
I24
sa(dp361
g31
g32
sg17
F106.9211671887897
sg24
I0
sg35
g39
sg14
F106.91474081855267
sg16
g36
(g70
S'\x01\x00\x00\x00'
tRp362
sg42
g43
sg46
g47
sg15
g88
sg22
F109.04001224972308
sg64
g160
sg62
g90
sg49
g50
sS'trials.thisN'
p363
I25
sg19
I1
sg27
g36
(g38
S'\x00\x00\x00\x00\x00\x00\x1a@'
tRp364
sg52
g53
sg23
S'2'
sg18
F108.20745245506987
sg33
g34
sg51
g11
sg20
S'1'
sg65
g36
(g77
S'\x00\x00\x00\x00\x00\x00\x00\x00'
tRp365
sg44
g45
sg40
g41
sg25
F0.16056421957910061
sS'trials.thisIndex'
p366
g36
(g80
S'J\x00\x00\x00'
tRp367
sg26
V5
sS'trials.thisRepN'
p368
I0
sg66
Vseagull
p369
sg63
V../experiment_stimuli/bw_bc_bl/Living_Things/Birds/seagull_9.jpg
p370
sg21
F0.80196724412962794
sS'trials.thisTrialN'
p371
I25
sa(dp372
g31
g32
sg17
F110.93912157788873
sg24
I0
sg35
g39
sg14
F110.93347539193928
sg16
g36
(g70
S'\x02\x00\x00\x00'
tRp373
sg42
g43
sg46
g47
sg15
g88
sg22
F113.04872918082401
sg64
g194
sg62
g74
sg49
g50
sS'trials.thisN'
p374
I26
sg19
I1
sg27
g36
(g38
S'\x00\x00\x00\x00\x00\x00\x1a@'
tRp375
sg52
g53
sg23
S'2'
sg18
F112.21616378473118
sg33
g34
sg51
g11
sg20
S'2'
sg65
g36
(g77
S'\x00\x00\x00\x00\x00\x00\x00\x00'
tRp376
sg44
g45
sg40
g41
sg25
F0.23072283435612917
sS'trials.thisIndex'
p377
g36
(g80
S'\x19\x00\x00\x00'
tRp378
sg26
V5
sS'trials.thisRepN'
p379
I0
sg66
Vdrum
p380
sg63
V../experiment_stimuli/bw_bc_bl/Nonliving_Things/Musical_Inst/drum_24.jpg
p381
sg21
F0.80196462757885456
sS'trials.thisTrialN'
p382
I26
sa(dp383
g31
g32
sg17
F115.01725604524836
sg24
I1
sg35
g39
sg14
F115.0123446714133
sg16
g36
(g70
S'\x02\x00\x00\x00'
tRp384
sg42
g43
sg46
g47
sg15
g72
sg22
F116.49620828498155
sg64
g102
sg62
g90
sg49
g50
sS'trials.thisN'
p385
I27
sg19
I0
sg27
g36
(g38
S'\x00\x00\x00\x00\x00\x00\x18@'
tRp386
sg52
g53
sg23
S'1'
sg18
F116.28502174187452
sg33
g34
sg51
g11
sg20
S'1'
sg65
g36
(g77
S'\x00\x00\x00\x00\x00\x00\x00\x00'
tRp387
sg44
g45
sg40
g41
sg25
F0.20065524661913514
sS'trials.thisIndex'
p388
g36
(g80
S'\x17\x00\x00\x00'
tRp389
sg26
V5
sS'trials.thisRepN'
p390
I0
sg66
Vdolphin
p391
sg63
V../experiment_stimuli/bw_bc_bl/Living_Things/Marine_creatures/dolphin_5.jpg
p392
sg21
F0.19064898416399956
sS'trials.thisTrialN'
p393
I27
sa(dp394
g31
g32
sg17
F118.43466993700713
sg24
I1
sg35
g39
sg14
F118.42977830767632
sg16
g36
(g70
S'\x01\x00\x00\x00'
tRp395
sg42
g43
sg46
g47
sg15
g88
sg22
F120.57508704205975
sg64
g160
sg62
g90
sg49
g50
sS'trials.thisN'
p396
I28
sg19
I0
sg27
g36
(g38
S'\x00\x00\x00\x00\x00\x00\x1a@'
tRp397
sg52
g53
sg23
S'1'
sg18
F119.73250542161986
sg33
g34
sg51
g11
sg20
S'2'
sg65
g36
(g77
S'\x00\x00\x00\x00\x00\x00\x00\x00'
tRp398
sg44
g45
sg40
g41
sg25
F0.19064476573839784
sS'trials.thisIndex'
p399
g36
(g80
S',\x00\x00\x00'
tRp400
sg26
V5
sS'trials.thisRepN'
p401
I0
sg66
Vkiwi
p402
sg63
V../experiment_stimuli/bw_bc_bl/Living_Things/Birds/kiwi_0.jpg
p403
sg21
F0.82201831741258502
sS'trials.thisTrialN'
p404
I28
sa(dp405
g31
g32
sg17
F122.50519759580493
sg24
I0
sg35
g39
sg14
F122.49861728772521
sg16
g36
(g70
S'\x02\x00\x00\x00'
tRp406
sg42
g43
sg46
g47
sg15
g72
sg22
F125.51582988491282
sg64
g160
sg62
g90
sg49
g50
sS'trials.thisN'
p407
I29
sg19
I1
sg27
g36
(g38
S'\x00\x00\x00\x00\x00\x00\x1a@'
tRp408
sg52
g53
sg23
S'2'
sg18
F123.81137091200799
sg33
g34
sg51
g11
sg20
S'2'
sg65
g36
(g77
S'\x00\x00\x00\x00\x00\x00\x00\x00'
tRp409
sg44
g45
sg40
g41
sg25
F0.23072496242821217
sS'trials.thisIndex'
p410
g36
(g80
S'&\x00\x00\x00'
tRp411
sg26
V5
sS'trials.thisRepN'
p412
I0
sg66
Vhen
p413
sg63
V../experiment_stimuli/bw_bc_bl/Living_Things/Birds/hen_17.jpg
p414
sg21
F1.683899458963424
sS'trials.thisTrialN'
p415
I29
sa(dp416
g31
g32
sg17
F127.48441699286923
sg24
I0
sg35
g39
sg14
F127.47946324758232
sg16
g36
(g70
S'\x01\x00\x00\x00'
tRp417
sg42
g43
sg46
g47
sg15
g88
sg22
F129.45438873814419
sg64
g160
sg62
g90
sg49
g50
sS'trials.thisN'
p418
I30
sg19
I1
sg27
g36
(g38
S'\x00\x00\x00\x00\x00\x00\x1e@'
tRp419
sg52
g53
sg23
S'2'
sg18
F128.78217837633565
sg33
g34
sg51
g11
sg20
S'1'
sg65
g36
(g77
S'\x00\x00\x00\x00\x00\x00\x00\x00'
tRp420
sg44
g45
sg40
g41
sg25
F0.18062389781698585
sS'trials.thisIndex'
p421
g36
(g80
S'F\x00\x00\x00'
tRp422
sg26
V5
sS'trials.thisRepN'
p423
I0
sg66
Vrooster
p424
sg63
V../experiment_stimuli/bw_bc_bl/Living_Things/Birds/rooster_4.jpg
p425
sg21
F0.6516551710665226
sS'trials.thisTrialN'
p426
I30
sa(dp427
g31
g32
sg17
F131.37283404543996
sg24
I0
sg35
g39
sg14
F131.36789613449946
sg16
g36
(g70
S'\x02\x00\x00\x00'
tRp428
sg42
g43
sg46
g47
sg15
g88
sg22
F134.63564679026604
sg64
g114
sg62
g74
sg49
g50
sS'trials.thisN'
p429
I31
sg19
I1
sg27
g36
(g38
S'\x00\x00\x00\x00\x00\x00\x1c@'
tRp430
sg52
g53
sg23
S'3'
sg18
F132.66061192564666
sg33
g34
sg51
g11
sg20
S'2'
sg65
g36
(g77
S'\x00\x00\x00\x00\x00\x00\x00\x00'
tRp431
sg44
g45
sg40
g41
sg25
F0.22069648606702685
sS'trials.thisIndex'
p432
g36
(g80
S'S\x00\x00\x00'
tRp433
sg26
V5
sS'trials.thisRepN'
p434
I0
sg66
Vteapot
p435
sg63
V../experiment_stimuli/bw_bc_bl/Nonliving_Things/Kitchen_Uten/teapot_5.jpg
p436
sg21
F1.954482136759907
sS'trials.thisTrialN'
p437
I31
sa(dp438
g31
g32
sg17
F136.59409812977538
sg24
I0
sg35
g39
sg14
F136.5892596389167
sg16
g36
(g70
S'\x02\x00\x00\x00'
tRp439
sg42
g43
sg46
g47
sg15
g88
sg22
F141.80107605783269
sg64
g250
sg62
g74
sg49
g50
sS'trials.thisN'
p440
I32
sg19
I1
sg27
g36
(g38
S'\x00\x00\x00\x00\x00\x00\x1e@'
tRp441
sg52
g53
sg23
S'2'
sg18
F137.86191795719787
sg33
g34
sg51
g11
sg20
S'2'
sg65
g36
(g77
S'\x00\x00\x00\x00\x00\x00\x00\x00'
tRp442
sg44
g45
sg40
g41
sg25
F0.33093730174005032
sS'trials.thisIndex'
p443
g36
(g80
S']\x00\x00\x00'
tRp444
sg26
V5
sS'trials.thisRepN'
p445
I0
sg66
Vwardrobe
p446
sg63
V../experiment_stimuli/bw_bc_bl/Nonliving_Things/Furniture/wardrobe_1.jpg
p447
sg21
F3.9185861879959702
sS'trials.thisTrialN'
p448
I32
sa(dp449
g31
g32
sg17
F143.86987967370078
sg24
I1
sg35
g39
sg14
F143.86507149087265
sg16
g36
(g70
S'\x01\x00\x00\x00'
tRp450
sg42
g43
sg46
g47
sg15
g88
sg22
F145.65962974494323
sg64
g89
sg62
g90
sg49
g50
sS'trials.thisN'
p451
I33
sg19
I0
sg27
g36
(g38
S'\x00\x00\x00\x00\x00\x00\x18@'
tRp452
sg52
g53
sg23
S'1'
sg18
F145.12771321600303
sg33
g34
sg51
g11
sg20
S'2'
sg65
g36
(g77
S'\x00\x00\x00\x00\x00\x00\x00\x00'
tRp453
sg44
g45
sg40
g41
sg25
F0.15056008426472545
sS'trials.thisIndex'
p454
g36
(g80
S'\x01\x00\x00\x00'
tRp455
sg26
V5
sS'trials.thisRepN'
p456
I0
sg66
Varmadillo
p457
sg63
V../experiment_stimuli/bw_bc_bl/Living_Things/Animals/armadillo_4.jpg
p458
sg21
F0.51134625589475036
sS'trials.thisTrialN'
p459
I33
sa(dp460
g31
g32
sg17
F147.54822411108762
sg24
I0
sg35
g39
sg14
F147.54306412441656
sg16
g36
(g70
S'\x02\x00\x00\x00'
tRp461
sg42
g43
sg46
g47
sg15
g72
sg22
F149.62823375780135
sg64
g102
sg62
g90
sg49
g50
sS'trials.thisN'
p462
I34
sg19
I1
sg27
g36
(g38
S'\x00\x00\x00\x00\x00\x00\x18@'
tRp463
sg52
g53
sg23
S'2'
sg18
F148.81573382625356
sg33
g34
sg51
g11
sg20
S'2'
sg65
g36
(g77
S'\x00\x00\x00\x00\x00\x00\x00\x00'
tRp464
sg44
g45
sg40
g41
sg25
F0.35098887188360095
sS'trials.thisIndex'
p465
g36
(g80
S'\x15\x00\x00\x00'
tRp466
sg26
V5
sS'trials.thisRepN'
p467
I0
sg66
Vcrab
p468
sg63
V../experiment_stimuli/bw_bc_bl/Living_Things/Marine_creatures/crab_3.jpg
p469
sg21
F0.79194968054071069
sS'trials.thisTrialN'
p470
I34
sa(dp471
g31
g32
sg17
F151.71922308625653
sg24
I0
sg35
g39
sg14
F151.71212627040222
sg16
g36
(g70
S'\x01\x00\x00\x00'
tRp472
sg42
g43
sg46
g47
sg15
g88
sg22
F153.60687649575993
sg64
g89
sg62
g90
sg49
g50
sS'trials.thisN'
p473
I35
sg19
I1
sg27
g36
(g38
S'\x00\x00\x00\x00\x00\x00 @'
tRp474
sg52
g53
sg23
S'2'
sg18
F152.97478861222044
sg33
g34
sg51
g11
sg20
S'1'
sg65
g36
(g77
S'\x00\x00\x00\x00\x00\x00\x00\x00'
tRp475
sg44
g45
sg40
g41
sg25
F0.17058804165571928
sS'trials.thisIndex'
p476
g36
(g80
S'R\x00\x00\x00'
tRp477
sg26
V5
sS'trials.thisRepN'
p478
I0
sg66
Vtapir
p479
sg63
V../experiment_stimuli/bw_bc_bl/Living_Things/Animals/tapir_10.jpg
p480
sg21
F0.61156077915802598
sS'trials.thisTrialN'
p481
I35
sa(dp482
g31
g32
sg17
F155.5153937083669
sg24
I1
sg35
g39
sg14
F155.51038741134107
sg16
g36
(g70
S'\x02\x00\x00\x00'
tRp483
sg42
g43
sg46
g47
sg15
g72
sg22
F157.34502492612228
sg64
g160
sg62
g90
sg49
g50
sS'trials.thisN'
p484
I36
sg19
I0
sg27
g36
(g38
S'\x00\x00\x00\x00\x00\x00\x1c@'
tRp485
sg52
g53
sg23
S'1'
sg18
F156.76300992304459
sg33
g34
sg51
g11
sg20
S'1'
sg65
g36
(g77
S'\x00\x00\x00\x00\x00\x00\x00\x00'
tRp486
sg44
g45
sg40
g41
sg25
F0.24074568413197994
sS'trials.thisIndex'
p487
g36
(g80
S'\x1a\x00\x00\x00'
tRp488
sg26
V5
sS'trials.thisRepN'
p489
I0
sg66
Vduck
p490
sg63
V../experiment_stimuli/bw_bc_bl/Living_Things/Birds/duck_4.jpg
p491
sg21
F0.56144832726567984
sS'trials.thisTrialN'
p492
I36
sa(dp493
g31
g32
sg17
F159.32355876732618
sg24
I1
sg35
g39
sg14
F159.31866655871272
sg16
g36
(g70
S'\x02\x00\x00\x00'
tRp494
sg42
g43
sg46
g47
sg15
g72
sg22
F161.40383797045797
sg64
g89
sg62
g90
sg49
g50
sS'trials.thisN'
p495
I37
sg19
I0
sg27
g36
(g38
S'\x00\x00\x00\x00\x00\x00\x18@'
tRp496
sg52
g53
sg23
S'1'
sg18
F160.60136099718511
sg33
g34
sg51
g11
sg20
S'1'
sg65
g36
(g77
S'\x00\x00\x00\x00\x00\x00\x00\x00'
tRp497
sg44
g45
sg40
g41
sg25
F0.18061233451589942
sS'trials.thisIndex'
p498
g36
(g80
S'\r\x00\x00\x00'
tRp499
sg26
V5
sS'trials.thisRepN'
p500
I0
sg66
Vcat
p501
sg63
V../experiment_stimuli/bw_bc_bl/Living_Things/Animals/cat_3.jpg
p502
sg21
F0.78192995162680745
sS'trials.thisTrialN'
p503
I37
sa(dp504
g31
g32
sg17
F163.32234104769304
sg24
I0
sg35
g39
sg14
F163.31737516354769
sg16
g36
(g70
S'\x01\x00\x00\x00'
tRp505
sg42
g43
sg46
g47
sg15
g72
sg22
F165.32236344134435
sg64
g194
sg62
g74
sg49
g50
sS'trials.thisN'
p506
I38
sg19
I1
sg27
g36
(g38
S'\x00\x00\x00\x00\x00\x00 @'
tRp507
sg52
g53
sg23
S'3'
sg18
F164.62008960079402
sg33
g34
sg51
g11
sg20
S'1'
sg65
g36
(g77
S'\x00\x00\x00\x00\x00\x00\x00\x00'
tRp508
sg44
g45
sg40
g41
sg25
F0.1405420545488596
sS'trials.thisIndex'
p509
g36
(g80
S'\\\x00\x00\x00'
tRp510
sg26
V5
sS'trials.thisRepN'
p511
I0
sg66
Vviolin
p512
sg63
V../experiment_stimuli/bw_bc_bl/Nonliving_Things/Musical_Inst/violin_26.jpg
p513
sg21
F0.68171215057373047
sS'trials.thisTrialN'
p514
I38
sa(dp515
g31
g32
sg17
F167.20276044774801
sg24
I1
sg35
g39
sg14
F167.19579166779295
sg16
g36
(g70
S'\x01\x00\x00\x00'
tRp516
sg42
g43
sg46
g47
sg15
g72
sg22
F168.79992905072868
sg64
g137
sg62
g74
sg49
g50
sS'trials.thisN'
p517
I39
sg19
I1
sg27
g36
(g38
S'\x00\x00\x00\x00\x00\x00\x18@'
tRp518
sg52
g53
sg23
S'1'
sg18
F168.47848135791719
sg33
g34
sg51
g11
sg20
S'1'
sg65
g36
(g77
S'\x00\x00\x00\x00\x00\x00\x00\x00'
tRp519
sg44
g45
sg40
g41
sg25
F0.16059153433889151
sS'trials.thisIndex'
p520
g36
(g80
S'5\x00\x00\x00'
tRp521
sg26
V5
sS'trials.thisRepN'
p522
I0
sg66
Vmill
p523
sg63
V../experiment_stimuli/bw_bc_bl/Nonliving_Things/Buildings/mill_23.jpg
p524
sg21
F0.30088852159678936
sS'trials.thisTrialN'
p525
I39
sa(dp526
g31
g32
sg17
F170.69826306356117
sg24
I0
sg35
g39
sg14
F170.69339973432943
sg16
g36
(g70
S'\x02\x00\x00\x00'
tRp527
sg42
g43
sg46
g47
sg15
g72
sg22
F172.55808184901252
sg64
g160
sg62
g90
sg49
g50
sS'trials.thisN'
p528
I40
sg19
I1
sg27
g36
(g38
S'\x00\x00\x00\x00\x00\x00\x18@'
tRp529
sg52
g53
sg23
S'2'
sg18
F171.98610805533826
sg33
g34
sg51
g11
sg20
S'2'
sg65
g36
(g77
S'\x00\x00\x00\x00\x00\x00\x00\x00'
tRp530
sg44
g45
sg40
g41
sg25
F0.17059347406029701
sS'trials.thisIndex'
p531
g36
(g80
S'3\x00\x00\x00'
tRp532
sg26
V5
sS'trials.thisRepN'
p533
I0
sg66
Vmagpie
p534
sg63
V../experiment_stimuli/bw_bc_bl/Living_Things/Birds/magpie_2.jpg
p535
sg21
F0.55142730940133333
sS'trials.thisTrialN'
p536
I40
sa(dp537
g31
g32
sg17
F174.46643706783652
sg24
I0
sg35
g39
sg14
F174.46159256109968
sg16
g36
(g70
S'\x02\x00\x00\x00'
tRp538
sg42
g43
sg46
g47
sg15
g88
sg22
F176.45639595901594
sg64
g73
sg62
g74
sg49
g50
sS'trials.thisN'
p539
I41
sg19
I1
sg27
g36
(g38
S'\x00\x00\x00\x00\x00\x00\x1a@'
tRp540
sg52
g53
sg23
S'3'
sg18
F175.74427489796653
sg33
g34
sg51
g11
sg20
S'2'
sg65
g36
(g77
S'\x00\x00\x00\x00\x00\x00\x00\x00'
tRp541
sg44
g45
sg40
g41
sg25
F0.15054416703060269
sS'trials.thisIndex'
p542
g36
(g80
S'\x0b\x00\x00\x00'
tRp543
sg26
V5
sS'trials.thisRepN'
p544
I0
sg66
Vcar
p545
sg63
V../experiment_stimuli/bw_bc_bl/Nonliving_Things/Vehicles/car_5.jpg
p546
sg21
F0.69157582893967628
sS'trials.thisTrialN'
p547
I41
sa(dp548
g31
g32
sg17
F178.34495492745191
sg24
I1
sg35
g39
sg14
F178.34002204658464
sg16
g36
(g70
S'\x01\x00\x00\x00'
tRp549
sg42
g43
sg46
g47
sg15
g72
sg22
F179.87399723939598
sg64
g114
sg62
g74
sg49
g50
sS'trials.thisN'
p550
I42
sg19
I1
sg27
g36
(g38
S'\x00\x00\x00\x00\x00\x00\x1a@'
tRp551
sg52
g53
sg23
S'1'
sg18
F179.60266385087743
sg33
g34
sg51
g11
sg20
S'1'
sg65
g36
(g77
S'\x00\x00\x00\x00\x00\x00\x00\x00'
tRp552
sg44
g45
sg40
g41
sg25
F0.18061534967273474
sS'trials.thisIndex'
p553
g36
(g80
S'B\x00\x00\x00'
tRp554
sg26
V5
sS'trials.thisRepN'
p555
I0
sg66
Vpot
p556
sg63
V../experiment_stimuli/bw_bc_bl/Nonliving_Things/Kitchen_Uten/pot_18.jpg
p557
sg21
F0.25077193090692163
sS'trials.thisTrialN'
p558
I42
sa(dp559
g31
g32
sg17
F181.79349088855088
sg24
I0
sg35
g39
sg14
F181.78752976702526
sg16
g36
(g70
S'\x01\x00\x00\x00'
tRp560
sg42
g43
sg46
g47
sg15
g88
sg22
F184.12322015454993
sg64
g89
sg62
g90
sg49
g50
sS'trials.thisN'
p561
I43
sg19
I1
sg27
g36
(g38
S'\x00\x00\x00\x00\x00\x00\x18@'
tRp562
sg52
g53
sg23
S'2'
sg18
F183.08022346021608
sg33
g34
sg51
g11
sg20
S'1'
sg65
g36
(g77
S'\x00\x00\x00\x00\x00\x00\x00\x00'
tRp563
sg44
g45
sg40
g41
sg25
F0.21070547495037317
sS'trials.thisIndex'
p564
g36
(g80
S'Z\x00\x00\x00'
tRp565
sg26
V5
sS'trials.thisRepN'
p566
I0
sg66
Vturtle
p567
sg63
V../experiment_stimuli/bw_bc_bl/Living_Things/Animals/turtle_17.jpg
p568
sg21
F1.0224489658139646
sS'trials.thisTrialN'
p569
I43
sa(dp570
g31
g32
sg17
F186.07167999446392
sg24
I0
sg35
g39
sg14
F186.06684622494504
sg16
g36
(g70
S'\x01\x00\x00\x00'
tRp571
sg42
g43
sg46
g47
sg15
g72
sg22
F188.32233835151419
sg64
g114
sg62
g74
sg49
g50
sS'trials.thisN'
p572
I44
sg19
I1
sg27
g36
(g38
S'\x00\x00\x00\x00\x00\x00\x18@'
tRp573
sg52
g53
sg23
S'3'
sg18
F187.34951588883996
sg33
g34
sg51
g11
sg20
S'1'
sg65
g36
(g77
S'\x00\x00\x00\x00\x00\x00\x00\x00'
tRp574
sg44
g45
sg40
g41
sg25
F0.20065866410732269
sS'trials.thisIndex'
p575
g36
(g80
S'\x1f\x00\x00\x00'
tRp576
sg26
V5
sS'trials.thisRepN'
p577
I0
sg66
Vfrying-pan
p578
sg63
V../experiment_stimuli/bw_bc_bl/Nonliving_Things/Kitchen_Uten/frying-pan_5.jpg
p579
sg21
F0.9522906057536602
sS'trials.thisTrialN'
p580
I44
sa(dp581
g31
g32
sg17
F190.26189119461924
sg24
I0
sg35
g39
sg14
F190.25592331727967
sg16
g36
(g70
S'\x01\x00\x00\x00'
tRp582
sg42
g43
sg46
g47
sg15
g72
sg22
F192.25088741956279
sg64
g73
sg62
g74
sg49
g50
sS'trials.thisN'
p583
I45
sg19
I1
sg27
g36
(g38
S'\x00\x00\x00\x00\x00\x00\x1a@'
tRp584
sg52
g53
sg23
S'3'
sg18
F191.51857067784294
sg33
g34
sg51
g11
sg20
S'1'
sg65
g36
(g77
S'\x00\x00\x00\x00\x00\x00\x00\x00'
tRp585
sg44
g45
sg40
g41
sg25
F0.26081199059262872
sS'trials.thisIndex'
p586
g36
(g80
S'\t\x00\x00\x00'
tRp587
sg26
V5
sS'trials.thisRepN'
p588
I0
sg66
Vbus
p589
sg63
V../experiment_stimuli/bw_bc_bl/Nonliving_Things/Vehicles/bus_26.jpg
p590
sg21
F0.71177600603550673
sS'trials.thisTrialN'
p591
I45
sa(dp592
g31
g32
sg17
F194.2495104810223
sg24
I1
sg35
g39
sg14
F194.24459167895839
sg16
g36
(g70
S'\x01\x00\x00\x00'
tRp593
sg42
g43
sg46
g47
sg15
g72
sg22
F195.82869279989973
sg64
g317
sg62
g74
sg49
g50
sS'trials.thisN'
p594
I46
sg19
I1
sg27
g36
(g38
S'\x00\x00\x00\x00\x00\x00\x1a@'
tRp595
sg52
g53
sg23
S'1'
sg18
F195.47718017268926
sg33
g34
sg51
g11
sg20
S'1'
sg65
g36
(g77
S'\x00\x00\x00\x00\x00\x00\x00\x00'
tRp596
sg44
g45
sg40
g41
sg25
F0.16061523789539933
sS'trials.thisIndex'
p597
g36
(g80
S'%\x00\x00\x00'
tRp598
sg26
V5
sS'trials.thisRepN'
p599
I0
sg66
Vhammer
p600
sg63
V../experiment_stimuli/bw_bc_bl/Nonliving_Things/Tools/hammer_10.jpg
p601
sg21
F0.33094948204234242
sS'trials.thisTrialN'
p602
I46
sa(dp603
g31
g32
sg17
F197.72708713868633
sg24
I1
sg35
g39
sg14
F197.72216220153496
sg16
g36
(g70
S'\x01\x00\x00\x00'
tRp604
sg42
g43
sg46
g47
sg15
g88
sg22
F199.58693272480741
sg64
g89
sg62
g90
sg49
g50
sS'trials.thisN'
p605
I47
sg19
I1
sg27
g36
(g38
S'\x00\x00\x00\x00\x00\x00\x18@'
tRp606
sg52
g53
sg23
S'1'
sg18
F198.98480744194239
sg33
g34
sg51
g11
sg20
S'1'
sg65
g36
(g77
S'\x00\x00\x00\x00\x00\x00\x00\x00'
tRp607
sg44
g45
sg40
g41
sg25
F0.2307204850949347
sS'trials.thisIndex'
p608
g36
(g80
S'(\x00\x00\x00'
tRp609
sg26
V5
sS'trials.thisRepN'
p610
I0
sg66
Vhorse
p611
sg63
V../experiment_stimuli/bw_bc_bl/Living_Things/Animals/horse_19.jpg
p612
sg21
F0.58157085115090013
sS'trials.thisTrialN'
p613
I47
sa(dp614
g31
g32
sg17
F201.55530331702903
sg24
I1
sg35
g39
sg14
F201.550487017259
sg16
g36
(g70
S'\x02\x00\x00\x00'
tRp615
sg42
g43
sg46
g47
sg15
g72
sg22
F203.17451093532145
sg64
g160
sg62
g90
sg49
g50
sS'trials.thisN'
p616
I48
sg19
I0
sg27
g36
(g38
S'\x00\x00\x00\x00\x00\x00 @'
tRp617
sg52
g53
sg23
S'1'
sg18
F202.83317790646106
sg33
g34
sg51
g11
sg20
S'1'
sg65
g36
(g77
S'\x00\x00\x00\x00\x00\x00\x00\x00'
tRp618
sg44
g45
sg40
g41
sg25
F0.18062357464805245
sS'trials.thisIndex'
p619
g36
(g80
S'9\x00\x00\x00'
tRp620
sg26
V5
sS'trials.thisRepN'
p621
I0
sg66
Vowl
p622
sg63
V../experiment_stimuli/bw_bc_bl/Living_Things/Birds/owl_10.jpg
p623
sg21
F0.32076883828267455
sS'trials.thisTrialN'
p624
I48
sa(dp625
g31
g32
sg17
F205.09342603292316
sg24
I0
sg35
g39
sg14
F205.08816956263036
sg16
g36
(g70
S'\x02\x00\x00\x00'
tRp626
sg42
g43
sg46
g47
sg15
g88
sg22
F208.21560845710337
sg64
g194
sg62
g74
sg49
g50
sS'trials.thisN'
p627
I49
sg19
I1
sg27
g36
(g38
S'\x00\x00\x00\x00\x00\x00\x18@'
tRp628
sg52
g53
sg23
S'3'
sg18
F206.39090418722481
sg33
g34
sg51
g11
sg20
S'2'
sg65
g36
(g77
S'\x00\x00\x00\x00\x00\x00\x00\x00'
tRp629
sg44
g45
sg40
g41
sg25
F0.20066380640491843
sS'trials.thisIndex'
p630
g36
(g80
S'H\x00\x00\x00'
tRp631
sg26
V5
sS'trials.thisRepN'
p632
I0
sg66
Vsaxophone
p633
sg63
V../experiment_stimuli/bw_bc_bl/Nonliving_Things/Musical_Inst/saxophone_13.jpg
p634
sg21
F1.8041606917977333
sS'trials.thisTrialN'
p635
I49
sa(dp636
g31
g32
sg17
F210.15571705950424
sg24
I0
sg35
g39
sg14
F210.14917533705011
sg16
g36
(g70
S'\x02\x00\x00\x00'
tRp637
sg42
g43
sg46
g47
sg15
g88
sg22
F212.31454309262335
sg64
g250
sg62
g74
sg49
g50
sS'trials.thisN'
p638
I50
sg19
I1
sg27
g36
(g38
S'\x00\x00\x00\x00\x00\x00\x18@'
tRp639
sg52
g53
sg23
S'2'
sg18
F211.42184092616662
sg33
g34
sg51
g11
sg20
S'2'
sg65
g36
(g77
S'\x00\x00\x00\x00\x00\x00\x00\x00'
tRp640
sg44
g45
sg40
g41
sg25
F0.26078715221956372
sS'trials.thisIndex'
p641
g36
(g80
S'\x1d\x00\x00\x00'
tRp642
sg26
V5
sS'trials.thisRepN'
p643
I0
sg66
Vfilling-cabinet
p644
sg63
V../experiment_stimuli/bw_bc_bl/Nonliving_Things/Furniture/filling-cabinet_25.jpg
p645
sg21
F0.8721194420941174
sS'trials.thisTrialN'
p646
I50
sa(dp647
g31
g32
sg17
F214.31538542639464
sg24
I1
sg35
g39
sg14
F214.30821304023266
sg16
g36
(g70
S'\x01\x00\x00\x00'
tRp648
sg42
g43
sg46
g47
sg15
g88
sg22
F215.81215555779636
sg64
g89
sg62
g90
sg49
g50
sS'trials.thisN'
p649
I51
sg19
I1
sg27
g36
(g38
S'\x00\x00\x00\x00\x00\x00\x18@'
tRp650
sg52
g53
sg23
S'1'
sg18
F215.57085811905563
sg33
g34
sg51
g11
sg20
S'1'
sg65
g36
(g77
S'\x00\x00\x00\x00\x00\x00\x00\x00'
tRp651
sg44
g45
sg40
g41
sg25
F0.20065715629607439
sS'trials.thisIndex'
p652
g36
(g80
S'\x1b\x00\x00\x00'
tRp653
sg26
V5
sS'trials.thisRepN'
p654
I0
sg66
Velephant
p655
sg63
V../experiment_stimuli/bw_bc_bl/Living_Things/Animals/elephant_5.jpg
p656
sg21
F0.22071046661585569
sS'trials.thisTrialN'
p657
I51
sa(dp658
g31
g32
sg17
F217.75054080504924
sg24
I1
sg35
g39
sg14
F217.74568956950679
sg16
g36
(g70
S'\x02\x00\x00\x00'
tRp659
sg42
g43
sg46
g47
sg15
g88
sg22
F219.28968392731622
sg64
g137
sg62
g74
sg49
g50
sS'trials.thisN'
p660
I52
sg19
I0
sg27
g36
(g38
S'\x00\x00\x00\x00\x00\x00\x1e@'
tRp661
sg52
g53
sg23
S'1'
sg18
F219.02837817324325
sg33
g34
sg51
g11
sg20
S'1'
sg65
g36
(g77
S'\x00\x00\x00\x00\x00\x00\x00\x00'
tRp662
sg44
g45
sg40
g41
sg25
F0.19063288625329733
sS'trials.thisIndex'
p663
g36
(g80
S'\x1c\x00\x00\x00'
tRp664
sg26
V5
sS'trials.thisRepN'
p665
I0
sg66
Vfactory
p666
sg63
V../experiment_stimuli/bw_bc_bl/Nonliving_Things/Buildings/factory_14.jpg
p667
sg21
F0.24074974749237299
sS'trials.thisTrialN'
p668
I52
sa(dp669
g31
g32
sg17
F221.21940940013155
sg24
I0
sg35
g39
sg14
F221.21324071334675
sg16
g36
(g70
S'\x01\x00\x00\x00'
tRp670
sg42
g43
sg46
g47
sg15
g88
sg22
F223.25834803329781
sg64
g102
sg62
g90
sg49
g50
sS'trials.thisN'
p671
I53
sg19
I1
sg27
g36
(g38
S'\x00\x00\x00\x00\x00\x00\x1e@'
tRp672
sg52
g53
sg23
S'3'
sg18
F222.52598089817911
sg33
g34
sg51
g11
sg20
S'1'
sg65
g36
(g77
S'\x00\x00\x00\x00\x00\x00\x00\x00'
tRp673
sg44
g45
sg40
g41
sg25
F0.19063117960467935
sS'trials.thisIndex'
p674
g36
(g80
S'^\x00\x00\x00'
tRp675
sg26
V5
sS'trials.thisRepN'
p676
I0
sg66
Vwhale
p677
sg63
V../experiment_stimuli/bw_bc_bl/Living_Things/Marine_creatures/whale_15.jpg
p678
sg21
F0.71182012930512428
sS'trials.thisTrialN'
p679
I53
sa(dp680
g31
g32
sg17
F225.18678017519414
sg24
I1
sg35
g39
sg14
F225.18185729021206
sg16
g36
(g70
S'\x02\x00\x00\x00'
tRp681
sg42
g43
sg46
g47
sg15
g72
sg22
F226.76596017926931
sg64
g160
sg62
g90
sg49
g50
sS'trials.thisN'
p682
I54
sg19
I0
sg27
g36
(g38
S'\x00\x00\x00\x00\x00\x00\x18@'
tRp683
sg52
g53
sg23
S'1'
sg18
F226.46454423246905
sg33
g34
sg51
g11
sg20
S'1'
sg65
g36
(g77
S'\x00\x00\x00\x00\x00\x00\x00\x00'
tRp684
sg44
g45
sg40
g41
sg25
F0.21068636607378721
sS'trials.thisIndex'
p685
g36
(g80
S'O\x00\x00\x00'
tRp686
sg26
V5
sS'trials.thisRepN'
p687
I0
sg66
Vsparrow
p688
sg63
V../experiment_stimuli/bw_bc_bl/Living_Things/Birds/sparrow_22.jpg
p689
sg21
F0.280850850045681
sS'trials.thisTrialN'
p690
I54
sa(dp691
g31
g32
sg17
F228.71427233284339
sg24
I0
sg35
g39
sg14
F228.70952718984336
sg16
g36
(g70
S'\x01\x00\x00\x00'
tRp692
sg42
g43
sg46
g47
sg15
g72
sg22
F230.8448219364509
sg64
g250
sg62
g74
sg49
g50
sS'trials.thisN'
p693
I55
sg19
I1
sg27
g36
(g38
S'\x00\x00\x00\x00\x00\x00\x18@'
tRp694
sg52
g53
sg23
S'3'
sg18
F230.02227829536423
sg33
g34
sg51
g11
sg20
S'1'
sg65
g36
(g77
S'\x00\x00\x00\x00\x00\x00\x00\x00'
tRp695
sg44
g45
sg40
g41
sg25
F0.18061402579769492
sS'trials.thisIndex'
p696
g36
(g80
S'N\x00\x00\x00'
tRp697
sg26
V5
sS'trials.thisRepN'
p698
I0
sg66
Vsofa
p699
sg63
V../experiment_stimuli/bw_bc_bl/Nonliving_Things/Furniture/sofa_2.jpg
p700
sg21
F0.80197182623669505
sS'trials.thisTrialN'
p701
I55
sa(dp702
g31
g32
sg17
F232.76456586411223
sg24
I0
sg35
g39
sg14
F232.75832894584164
sg16
g36
(g70
S'\x02\x00\x00\x00'
tRp703
sg42
g43
sg46
g47
sg15
g88
sg22
F234.98383205058053
sg64
g250
sg62
g74
sg49
g50
sS'trials.thisN'
p704
I56
sg19
I1
sg27
g36
(g38
S'\x00\x00\x00\x00\x00\x00\x18@'
tRp705
sg52
g53
sg23
S'2'
sg18
F234.05103655997664
sg33
g34
sg51
g11
sg20
S'2'
sg65
g36
(g77
S'\x00\x00\x00\x00\x00\x00\x00\x00'
tRp706
sg44
g45
sg40
g41
sg25
F0.21067994507029653
sS'trials.thisIndex'
p707
g36
(g80
S'\x00\x00\x00\x00'
tRp708
sg26
V5
sS'trials.thisRepN'
p709
I0
sg66
VChest-of-drawers
p710
sg63
V../experiment_stimuli/bw_bc_bl/Nonliving_Things/Furniture/Chest-of-drawers_14.jpg
p711
sg21
F0.91222532652318478
sS'trials.thisTrialN'
p712
I56
sa(dp713
g31
g32
sg17
F236.93457589112222
sg24
I0
sg35
g39
sg14
F236.92740252381191
sg16
g36
(g70
S'\x02\x00\x00\x00'
tRp714
sg42
g43
sg46
g47
sg15
g88
sg22
F238.8522125328891
sg64
g73
sg62
g74
sg49
g50
sS'trials.thisN'
p715
I57
sg19
I1
sg27
g36
(g38
S'\x00\x00\x00\x00\x00\x00\x18@'
tRp716
sg52
g53
sg23
S'3'
sg18
F238.21007948508486
sg33
g34
sg51
g11
sg20
S'2'
sg65
g36
(g77
S'\x00\x00\x00\x00\x00\x00\x00\x00'
tRp717
sg44
g45
sg40
g41
sg25
F0.22069844463840127
sS'trials.thisIndex'
p718
g36
(g80
S'\x07\x00\x00\x00'
tRp719
sg26
V5
sS'trials.thisRepN'
p720
I0
sg66
Vboat
p721
sg63
V../experiment_stimuli/bw_bc_bl/Nonliving_Things/Vehicles/boat_12.jpg
p722
sg21
F0.62158336117863655
sS'trials.thisTrialN'
p723
I57
sa(dp724
g31
g32
sg17
F240.81067839451134
sg24
I1
sg35
g39
sg14
F240.80582649027929
sg16
g36
(g70
S'\x01\x00\x00\x00'
tRp725
sg42
g43
sg46
g47
sg15
g88
sg22
F245.66702372394502
sg64
g160
sg62
g90
sg49
g50
sS'trials.thisN'
p726
I58
sg19
I1
sg27
g36
(g38
S'\x00\x00\x00\x00\x00\x00\x1c@'
tRp727
sg52
g53
sg23
S'1'
sg18
F242.05844552442431
sg33
g34
sg51
g11
sg20
S'1'
sg65
g36
(g77
S'\x00\x00\x00\x00\x00\x00\x00\x00'
tRp728
sg44
g45
sg40
g41
sg25
F0.18060428183525801
sS'trials.thisIndex'
p729
g36
(g80
S'=\x00\x00\x00'
tRp730
sg26
V5
sS'trials.thisRepN'
p731
I0
sg66
Vpenguin
p732
sg63
V../experiment_stimuli/bw_bc_bl/Living_Things/Birds/penguin_24.jpg
p733
sg21
F3.5880295499227941
sS'trials.thisTrialN'
p734
I58
sa(dp735
g31
g32
sg17
F247.58532479265705
sg24
I1
sg35
g39
sg14
F247.58054866129532
sg16
g36
(g70
S'\x01\x00\x00\x00'
tRp736
sg42
g43
sg46
g47
sg15
g72
sg22
F249.13455649930984
sg64
g250
sg62
g74
sg49
g50
sS'trials.thisN'
p737
I59
sg19
I1
sg27
g36
(g38
S'\x00\x00\x00\x00\x00\x00\x18@'
tRp738
sg52
g53
sg23
S'1'
sg18
F248.86323775351048
sg33
g34
sg51
g11
sg20
S'1'
sg65
g36
(g77
S'\x00\x00\x00\x00\x00\x00\x00\x00'
tRp739
sg44
g45
sg40
g41
sg25
F0.18046026490628719
sS'trials.thisIndex'
p740
g36
(g80
S'\x13\x00\x00\x00'
tRp741
sg26
V5
sS'trials.thisRepN'
p742
I0
sg66
Vcouch
p743
sg63
V../experiment_stimuli/bw_bc_bl/Nonliving_Things/Furniture/couch_4.jpg
p744
sg21
F0.25077170925214887
sS'trials.thisTrialN'
p745
I59
sa(dp746
g31
g32
sg17
F251.05290514649823
sg24
I0
sg35
g39
sg14
F251.04809321509674
sg16
g36
(g70
S'\x01\x00\x00\x00'
tRp747
sg42
g43
sg46
g47
sg15
g88
sg22
F253.57423147698864
sg64
g160
sg62
g90
sg49
g50
sS'trials.thisN'
p748
I60
sg19
I1
sg27
g36
(g38
S'\x00\x00\x00\x00\x00\x00\x18@'
tRp749
sg52
g53
sg23
S'2'
sg18
F252.34082637028769
sg33
g34
sg51
g11
sg20
S'1'
sg65
g36
(g77
S'\x00\x00\x00\x00\x00\x00\x00\x00'
tRp750
sg44
g45
sg40
g41
sg25
F0.78176832292228937
sS'trials.thisIndex'
p751
g36
(g80
S'C\x00\x00\x00'
tRp752
sg26
V5
sS'trials.thisRepN'
p753
I0
sg66
Vraven
p754
sg63
V../experiment_stimuli/bw_bc_bl/Living_Things/Birds/raven_15.jpg
p755
sg21
F1.2128710658289492
sS'trials.thisTrialN'
p756
I60
sa(dp757
g31
g32
sg17
F256.09392464300618
sg24
I0
sg35
g39
sg14
F256.08905199496076
sg16
g36
(g70
S'\x02\x00\x00\x00'
tRp758
sg42
g43
sg46
g47
sg15
g72
sg22
F258.32456668559462
sg64
g351
sg62
g90
sg49
g50
sS'trials.thisN'
p759
I61
sg19
I1
sg27
g36
(g38
S'\x00\x00\x00\x00\x00\x00\x18@'
tRp760
sg52
g53
sg23
S'3'
sg18
F257.37175226351246
sg33
g34
sg51
g11
sg20
S'2'
sg65
g36
(g77
S'\x00\x00\x00\x00\x00\x00\x00\x00'
tRp761
sg44
g45
sg40
g41
sg25
F0.28083368856459856
sS'trials.thisIndex'
p762
g36
(g80
S'\x18\x00\x00\x00'
tRp763
sg26
V5
sS'trials.thisRepN'
p764
I0
sg66
Vdragonfly
p765
sg63
V../experiment_stimuli/bw_bc_bl/Living_Things/Insects/dragonfly_22.jpg
p766
sg21
F0.93225799081847072
sS'trials.thisTrialN'
p767
I61
sa(dp768
g31
g32
sg17
F260.34331413125619
sg24
I1
sg35
g39
sg14
F260.33829022571445
sg16
g36
(g70
S'\x02\x00\x00\x00'
tRp769
sg42
g43
sg46
g47
sg15
g88
sg22
F262.70390148926526
sg64
g250
sg62
g74
sg49
g50
sS'trials.thisN'
p770
I62
sg19
I1
sg27
g36
(g38
S'\x00\x00\x00\x00\x00\x00\x1a@'
tRp771
sg52
g53
sg23
S'1'
sg18
F261.60093277040869
sg33
g34
sg51
g11
sg20
S'2'
sg65
g36
(g77
S'\x00\x00\x00\x00\x00\x00\x00\x00'
tRp772
sg44
g45
sg40
g41
sg25
F0.30087761580944061
sS'trials.thisIndex'
p773
g36
(g80
S'\x08\x00\x00\x00'
tRp774
sg26
V5
sS'trials.thisRepN'
p775
I0
sg66
Vbookcase
p776
sg63
V../experiment_stimuli/bw_bc_bl/Nonliving_Things/Furniture/bookcase_17.jpg
p777
sg21
F1.0824215770699084
sS'trials.thisTrialN'
p778
I62
sa(dp779
g31
g32
sg17
F264.74269911041483
sg24
I0
sg35
g39
sg14
F264.73786053294316
sg16
g36
(g70
S'\x02\x00\x00\x00'
tRp780
sg42
g43
sg46
g47
sg15
g88
sg22
F266.73281607870013
sg64
g250
sg62
g74
sg49
g50
sS'trials.thisN'
p781
I63
sg19
I1
sg27
g36
(g38
S'\x00\x00\x00\x00\x00\x00\x1a@'
tRp782
sg52
g53
sg23
S'2'
sg18
F266.02055149758235
sg33
g34
sg51
g11
sg20
S'2'
sg65
g36
(g77
S'\x00\x00\x00\x00\x00\x00\x00\x00'
tRp783
sg44
g45
sg40
g41
sg25
F0.40109534980729222
sS'trials.thisIndex'
p784
g36
(g80
S'\x0f\x00\x00\x00'
tRp785
sg26
V5
sS'trials.thisRepN'
p786
I0
sg66
Vchair
p787
sg63
V../experiment_stimuli/bw_bc_bl/Nonliving_Things/Furniture/chair_5.jpg
p788
sg21
F0.6917306762188673
sS'trials.thisTrialN'
p789
I63
sa(dp790
g31
g32
sg17
F268.8729797443375
sg24
I1
sg35
g39
sg14
F268.86682750517502
sg16
g36
(g70
S'\x02\x00\x00\x00'
tRp791
sg42
g43
sg46
g47
sg15
g72
sg22
F272.30493527743965
sg64
g89
sg62
g90
sg49
g50
sS'trials.thisN'
p792
I64
sg19
I0
sg27
g36
(g38
S'\x00\x00\x00\x00\x00\x00\x18@'
tRp793
sg52
g53
sg23
S'1'
sg18
F270.13949730852619
sg33
g34
sg51
g11
sg20
S'1'
sg65
g36
(g77
S'\x00\x00\x00\x00\x00\x00\x00\x00'
tRp794
sg44
g45
sg40
g41
sg25
F0.25076551781967282
sS'trials.thisIndex'
p795
g36
(g80
S'D\x00\x00\x00'
tRp796
sg26
V5
sS'trials.thisRepN'
p797
I0
sg66
Vrhino
p798
sg63
V../experiment_stimuli/bw_bc_bl/Living_Things/Animals/rhino_6.jpg
p799
sg21
F2.1448905300348997
sS'trials.thisTrialN'
p800
I64
sa(dp801
g31
g32
sg17
F274.29339649528265
sg24
I1
sg35
g39
sg14
F274.28861854504794
sg16
g36
(g70
S'\x02\x00\x00\x00'
tRp802
sg42
g43
sg46
g47
sg15
g88
sg22
F276.18342651706189
sg64
g250
sg62
g74
sg49
g50
sS'trials.thisN'
p803
I65
sg19
I0
sg27
g36
(g38
S'\x00\x00\x00\x00\x00\x00\x18@'
tRp804
sg52
g53
sg23
S'1'
sg18
F275.60137054137886
sg33
g34
sg51
g11
sg20
S'1'
sg65
g36
(g77
S'\x00\x00\x00\x00\x00\x00\x00\x00'
tRp805
sg44
g45
sg40
g41
sg25
F0.25061789946630597
sS'trials.thisIndex'
p806
g36
(g80
S'.\x00\x00\x00'
tRp807
sg26
V5
sS'trials.thisRepN'
p808
I0
sg66
Vlamp
p809
sg63
V../experiment_stimuli/bw_bc_bl/Nonliving_Things/Furniture/lamp_3.jpg
p810
sg21
F0.55143184354528785
sS'trials.thisTrialN'
p811
I65
sa(dp812
g31
g32
sg17
F278.17171488050371
sg24
I0
sg35
g39
sg14
F278.16704478533939
sg16
g36
(g70
S'\x01\x00\x00\x00'
tRp813
sg42
g43
sg46
g47
sg15
g72
sg22
F280.62300961604342
sg64
g250
sg62
g74
sg49
g50
sS'trials.thisN'
p814
I66
sg19
I1
sg27
g36
(g38
S'\x00\x00\x00\x00\x00\x00\x1a@'
tRp815
sg52
g53
sg23
S'3'
sg18
F279.47980555985123
sg33
g34
sg51
g11
sg20
S'1'
sg65
g36
(g77
S'\x00\x00\x00\x00\x00\x00\x00\x00'
tRp816
sg44
g45
sg40
g41
sg25
F0.20066012628376484
sS'trials.thisIndex'
p817
g36
(g80
S'\x02\x00\x00\x00'
tRp818
sg26
V5
sS'trials.thisRepN'
p819
I0
sg66
Varmchair
p820
sg63
V../experiment_stimuli/bw_bc_bl/Nonliving_Things/Furniture/armchair_11.jpg
p821
sg21
F1.1226661805994809
sS'trials.thisTrialN'
p822
I66
sa(dp823
g31
g32
sg17
F282.56134492019191
sg24
I0
sg35
g39
sg14
F282.55659319087863
sg16
g36
(g70
S'\x01\x00\x00\x00'
tRp824
sg42
g43
sg46
g47
sg15
g88
sg22
F285.23305935645476
sg64
g160
sg62
g90
sg49
g50
sS'trials.thisN'
p825
I67
sg19
I1
sg27
g36
(g38
S'\x00\x00\x00\x00\x00\x00\x18@'
tRp826
sg52
g53
sg23
S'2'
sg18
F283.83927778014913
sg33
g34
sg51
g11
sg20
S'1'
sg65
g36
(g77
S'\x00\x00\x00\x00\x00\x00\x00\x00'
tRp827
sg44
g45
sg40
g41
sg25
F0.16057179030030966
sS'trials.thisIndex'
p828
g36
(g80
S'?\x00\x00\x00'
tRp829
sg26
V5
sS'trials.thisRepN'
p830
I0
sg66
Vpigeon
p831
sg63
V../experiment_stimuli/bw_bc_bl/Living_Things/Birds/pigeon_7.jpg
p832
sg21
F1.3732246719300747
sS'trials.thisTrialN'
p833
I67
sa(dp834
g31
g32
sg17
F287.13139993650839
sg24
I0
sg35
g39
sg14
F287.12654826138169
sg16
g36
(g70
S'\x02\x00\x00\x00'
tRp835
sg42
g43
sg46
g47
sg15
g88
sg22
F288.96115577267483
sg64
g137
sg62
g74
sg49
g50
sS'trials.thisN'
p836
I68
sg19
I1
sg27
g36
(g38
S'\x00\x00\x00\x00\x00\x00\x1c@'
tRp837
sg52
g53
sg23
S'3'
sg18
F288.40921763982624
sg33
g34
sg51
g11
sg20
S'2'
sg65
g36
(g77
S'\x00\x00\x00\x00\x00\x00\x00\x00'
tRp838
sg44
g45
sg40
g41
sg25
F0.19062706315889955
sS'trials.thisIndex'
p839
g36
(g80
S'\x11\x00\x00\x00'
tRp840
sg26
V5
sS'trials.thisRepN'
p841
I0
sg66
Vchurch
p842
sg63
V../experiment_stimuli/bw_bc_bl/Nonliving_Things/Buildings/church_9.jpg
p843
sg21
F0.53138597635552287
sS'trials.thisTrialN'
p844
I68
sa(dp845
g31
g32
sg17
F290.89094541734084
sg24
I0
sg35
g39
sg14
F290.88469252176583
sg16
g36
(g70
S'\x01\x00\x00\x00'
tRp846
sg42
g43
sg46
g47
sg15
g72
sg22
F292.85948946885765
sg64
g73
sg62
g74
sg49
g50
sS'trials.thisN'
p847
I69
sg19
I1
sg27
g36
(g38
S'\x00\x00\x00\x00\x00\x00\x1a@'
tRp848
sg52
g53
sg23
S'2'
sg18
F292.13731665350497
sg33
g34
sg51
g11
sg20
S'1'
sg65
g36
(g77
S'\x00\x00\x00\x00\x00\x00\x00\x00'
tRp849
sg44
g45
sg40
g41
sg25
F0.16058324556797743
sS'trials.thisIndex'
p850
g36
(g80
S'[\x00\x00\x00'
tRp851
sg26
V5
sS'trials.thisRepN'
p852
I0
sg66
Vvan
p853
sg63
V../experiment_stimuli/bw_bc_bl/Nonliving_Things/Vehicles/van_26.jpg
p854
sg21
F0.70159742562100291
sS'trials.thisTrialN'
p855
I69
sa(dp856
g31
g32
sg17
F294.7578384927474
sg24
I1
sg35
g39
sg14
F294.75310379313305
sg16
g36
(g70
S'\x02\x00\x00\x00'
tRp857
sg42
g43
sg46
g47
sg15
g72
sg22
F296.71800999110565
sg64
g102
sg62
g90
sg49
g50
sS'trials.thisN'
p858
I70
sg19
I0
sg27
g36
(g38
S'\x00\x00\x00\x00\x00\x00\x18@'
tRp859
sg52
g53
sg23
S'1'
sg18
F295.98569547897205
sg33
g34
sg51
g11
sg20
S'1'
sg65
g36
(g77
S'\x00\x00\x00\x00\x00\x00\x00\x00'
tRp860
sg44
g45
sg40
g41
sg25
F0.29085278930142522
sS'trials.thisIndex'
p861
g36
(g80
S'P\x00\x00\x00'
tRp862
sg26
V5
sS'trials.thisRepN'
p863
I0
sg66
Vsperm-whale
p864
sg63
V../experiment_stimuli/bw_bc_bl/Living_Things/Marine_creatures/sperm-whale_8.jpg
p865
sg21
F0.71177168982103467
sS'trials.thisTrialN'
p866
I70
sa(dp867
g31
g32
sg17
F298.74661794956774
sg24
I1
sg35
g39
sg14
F298.74177842121571
sg16
g36
(g70
S'\x02\x00\x00\x00'
tRp868
sg42
g43
sg46
g47
sg15
g72
sg22
F301.41823812760413
sg64
g351
sg62
g90
sg49
g50
sS'trials.thisN'
p869
I71
sg19
I0
sg27
g36
(g38
S'\x00\x00\x00\x00\x00\x00\x18@'
tRp870
sg52
g53
sg23
S'1'
sg18
F300.01445010770112
sg33
g34
sg51
g11
sg20
S'1'
sg65
g36
(g77
S'\x00\x00\x00\x00\x00\x00\x00\x00'
tRp871
sg44
g45
sg40
g41
sg25
F0.35100065730512142
sS'trials.thisIndex'
p872
g36
(g80
S'-\x00\x00\x00'
tRp873
sg26
V5
sS'trials.thisRepN'
p874
I0
sg66
Vladybird
p875
sg63
V../experiment_stimuli/bw_bc_bl/Living_Things/Insects/ladybird_22.jpg
p876
sg21
F1.3832407873123884
sS'trials.thisTrialN'
p877
I71
sa(dp878
g31
g32
sg17
F303.50833821715787
sg24
I1
sg35
g39
sg14
F303.50213767401874
sg16
g36
(g70
S'\x01\x00\x00\x00'
tRp879
sg42
g43
sg46
g47
sg15
g88
sg22
F304.93587560718879
sg64
g89
sg62
g90
sg49
g50
sS'trials.thisN'
p880
I72
sg19
I1
sg27
g36
(g38
S'\x00\x00\x00\x00\x00\x00\x18@'
tRp881
sg52
g53
sg23
S'1'
sg18
F304.77479236526415
sg33
g34
sg51
g11
sg20
S'1'
sg65
g36
(g77
S'\x00\x00\x00\x00\x00\x00\x00\x00'
tRp882
sg44
g45
sg40
g41
sg25
F0.23074355255812407
sS'trials.thisIndex'
p883
g36
(g80
S'0\x00\x00\x00'
tRp884
sg26
V5
sS'trials.thisRepN'
p885
I0
sg66
Vlioness
p886
sg63
V../experiment_stimuli/bw_bc_bl/Living_Things/Animals/lioness_26.jpg
p887
sg21
F0.14053505100309849
sS'trials.thisTrialN'
p888
I72
sa(dp889
g31
g32
sg17
F306.90439718961716
sg24
I0
sg35
g39
sg14
F306.89951181551442
sg16
g36
(g70
S'\x01\x00\x00\x00'
tRp890
sg42
g43
sg46
g47
sg15
g72
sg22
F308.99470368493348
sg64
g73
sg62
g74
sg49
g50
sS'trials.thisN'
p891
I73
sg19
I1
sg27
g36
(g38
S'\x00\x00\x00\x00\x00\x00\x1e@'
tRp892
sg52
g53
sg23
S'3'
sg18
F308.18220017105341
sg33
g34
sg51
g11
sg20
S'1'
sg65
g36
(g77
S'\x00\x00\x00\x00\x00\x00\x00\x00'
tRp893
sg44
g45
sg40
g41
sg25
F0.1806097743101418
sS'trials.thisIndex'
p894
g36
(g80
S'V\x00\x00\x00'
tRp895
sg26
V5
sS'trials.thisRepN'
p896
I0
sg66
Vtractor
p897
sg63
V../experiment_stimuli/bw_bc_bl/Nonliving_Things/Vehicles/tractor_21.jpg
p898
sg21
F0.7919514961540699
sS'trials.thisTrialN'
p899
I73
sa(dp900
g31
g32
sg17
F310.91297537088394
sg24
I1
sg35
g39
sg14
F310.90823746845126
sg16
g36
(g70
S'\x01\x00\x00\x00'
tRp901
sg42
g43
sg46
g47
sg15
g88
sg22
F312.46223755087703
sg64
g89
sg62
g90
sg49
g50
sS'trials.thisN'
p902
I74
sg19
I1
sg27
g36
(g38
S'\x00\x00\x00\x00\x00\x00\x18@'
tRp903
sg52
g53
sg23
S'1'
sg18
F312.16085458919406
sg33
g34
sg51
g11
sg20
S'1'
sg65
g36
(g77
S'\x00\x00\x00\x00\x00\x00\x00\x00'
tRp904
sg44
g45
sg40
g41
sg25
F0.22054344648495317
sS'trials.thisIndex'
p905
g36
(g80
S"'\x00\x00\x00"
tRp906
sg26
V5
sS'trials.thisRepN'
p907
I0
sg66
Vhippopotamus
p908
sg63
V../experiment_stimuli/bw_bc_bl/Living_Things/Animals/hippopotamus_8.jpg
p909
sg21
F0.28083175653591752
sS'trials.thisTrialN'
p910
I74
sa(dp911
g31
g32
sg17
F314.42064866563305
sg24
I1
sg35
g39
sg14
F314.41585070034489
sg16
g36
(g70
S'\x01\x00\x00\x00'
tRp912
sg42
g43
sg46
g47
sg15
g88
sg22
F316.31062432331964
sg64
g89
sg62
g90
sg49
g50
sS'trials.thisN'
p913
I75
sg19
I1
sg27
g36
(g38
S'\x00\x00\x00\x00\x00\x00\x1a@'
tRp914
sg52
g53
sg23
S'1'
sg18
F315.69854376232252
sg33
g34
sg51
g11
sg20
S'1'
sg65
g36
(g77
S'\x00\x00\x00\x00\x00\x00\x00\x00'
tRp915
sg44
g45
sg40
g41
sg25
F0.21068072319030762
sS'trials.thisIndex'
p916
g36
(g80
S'T\x00\x00\x00'
tRp917
sg26
V5
sS'trials.thisRepN'
p918
I0
sg66
Vtiger
p919
sg63
V../experiment_stimuli/bw_bc_bl/Living_Things/Animals/tiger_12.jpg
p920
sg21
F0.59152325056493282
sS'trials.thisTrialN'
p921
I75
sa(dp922
g31
g32
sg17
F318.25897947326303
sg24
I1
sg35
g39
sg14
F318.25419335719198
sg16
g36
(g70
S'\x01\x00\x00\x00'
tRp923
sg42
g43
sg46
g47
sg15
g88
sg22
F319.8984043658711
sg64
g102
sg62
g90
sg49
g50
sS'trials.thisN'
p924
I76
sg19
I1
sg27
g36
(g38
S'\x00\x00\x00\x00\x00\x00\x1a@'
tRp925
sg52
g53
sg23
S'1'
sg18
F319.55692911380902
sg33
g34
sg51
g11
sg20
S'1'
sg65
g36
(g77
S'\x00\x00\x00\x00\x00\x00\x00\x00'
tRp926
sg44
g45
sg40
g41
sg25
F0.20065236371010542
sS'trials.thisIndex'
p927
g36
(g80
S'4\x00\x00\x00'
tRp928
sg26
V5
sS'trials.thisRepN'
p929
I0
sg66
Vmanatee
p930
sg63
V../experiment_stimuli/bw_bc_bl/Living_Things/Marine_creatures/manatee_7.jpg
p931
sg21
F0.32092244876548648
sS'trials.thisTrialN'
p932
I76
sa(dp933
g31
g32
sg17
F321.83687186380848
sg24
I0
sg35
g39
sg14
F321.83198095997795
sg16
g36
(g70
S'\x02\x00\x00\x00'
tRp934
sg42
g43
sg46
g47
sg15
g88
sg22
F327.805599167943
sg64
g73
sg62
g74
sg49
g50
sS'trials.thisN'
p935
I77
sg19
I1
sg27
g36
(g38
S'\x00\x00\x00\x00\x00\x00\x1e@'
tRp936
sg52
g53
sg23
S'3'
sg18
F323.14473049761727
sg33
g34
sg51
g11
sg20
S'2'
sg65
g36
(g77
S'\x00\x00\x00\x00\x00\x00\x00\x00'
tRp937
sg44
g45
sg40
g41
sg25
F1.7640556455589831
sS'trials.thisIndex'
p938
g36
(g80
S'6\x00\x00\x00'
tRp939
sg26
V5
sS'trials.thisRepN'
p940
I0
sg66
Vmotorbike
p941
sg63
V../experiment_stimuli/bw_bc_bl/Nonliving_Things/Vehicles/motorbike_4.jpg
p942
sg21
F4.6403111452236772
sS'trials.thisTrialN'
p943
I77
sa(dp944
g31
g32
sg17
F331.30760934529826
sg24
I1
sg35
g39
sg14
F331.30257161986083
sg16
g36
(g70
S'\x01\x00\x00\x00'
tRp945
sg42
g43
sg46
g47
sg15
g72
sg22
F333.25744322082028
sg64
g194
sg62
g74
sg49
g50
sS'trials.thisN'
p946
I78
sg19
I1
sg27
g36
(g38
S'\x00\x00\x00\x00\x00\x00\x1a@'
tRp947
sg52
g53
sg23
S'1'
sg18
F332.59527767403051
sg33
g34
sg51
g11
sg20
S'1'
sg65
g36
(g77
S'\x00\x00\x00\x00\x00\x00\x00\x00'
tRp948
sg44
g45
sg40
g41
sg25
F0.2207010081037879
sS'trials.thisIndex'
p949
g36
(g80
S'X\x00\x00\x00'
tRp950
sg26
V5
sS'trials.thisRepN'
p951
I0
sg66
Vtrumpet
p952
sg63
V../experiment_stimuli/bw_bc_bl/Nonliving_Things/Musical_Inst/trumpet_1.jpg
p953
sg21
F0.64161967905238271
sS'trials.thisTrialN'
p954
I78
sa(dp955
g31
g32
sg17
F335.21588231995702
sg24
I0
sg35
g39
sg14
F335.21106097893789
sg16
g36
(g70
S'\x02\x00\x00\x00'
tRp956
sg42
g43
sg46
g47
sg15
g72
sg22
F337.61692549334839
sg64
g89
sg62
g90
sg49
g50
sS'trials.thisN'
p957
I79
sg19
I1
sg27
g36
(g38
S'\x00\x00\x00\x00\x00\x00\x18@'
tRp958
sg52
g53
sg23
S'3'
sg18
F336.52381809195504
sg33
g34
sg51
g11
sg20
S'2'
sg65
g36
(g77
S'\x00\x00\x00\x00\x00\x00\x00\x00'
tRp959
sg44
g45
sg40
g41
sg25
F0.18071363773196936
sS'trials.thisIndex'
p960
g36
(g80
S'_\x00\x00\x00'
tRp961
sg26
V5
sS'trials.thisRepN'
p962
I0
sg66
Vzebra
p963
sg63
V../experiment_stimuli/bw_bc_bl/Living_Things/Animals/zebra_22.jpg
p964
sg21
F1.0725629553198814
sS'trials.thisTrialN'
p965
I79
sa(dp966
g31
g32
sg17
F339.53521655825898
sg24
I1
sg35
g39
sg14
F339.53046118607745
sg16
g36
(g70
S'\x02\x00\x00\x00'
tRp967
sg42
g43
sg46
g47
sg15
g88
sg22
F341.8060325179249
sg64
g137
sg62
g74
sg49
g50
sS'trials.thisN'
p968
I80
sg19
I1
sg27
g36
(g38
S'\x00\x00\x00\x00\x00\x00\x18@'
tRp969
sg52
g53
sg23
S'1'
sg18
F340.80312142986804
sg33
g34
sg51
g11
sg20
S'2'
sg65
g36
(g77
S'\x00\x00\x00\x00\x00\x00\x00\x00'
tRp970
sg44
g45
sg40
g41
sg25
F0.2607882609590888
sS'trials.thisIndex'
p971
g36
(g80
S'\x0c\x00\x00\x00'
tRp972
sg26
V5
sS'trials.thisRepN'
p973
I0
sg66
Vcastle
p974
sg63
V../experiment_stimuli/bw_bc_bl/Nonliving_Things/Buildings/castle_21.jpg
p975
sg21
F0.98236510809510946
sS'trials.thisTrialN'
p976
I80
sa(dp977
g31
g32
sg17
F343.80464774044231
sg24
I0
sg35
g39
sg14
F343.79973634844646
sg16
g36
(g70
S'\x01\x00\x00\x00'
tRp978
sg42
g43
sg46
g47
sg15
g72
sg22
F345.71453401586041
sg64
g250
sg62
g74
sg49
g50
sS'trials.thisN'
p979
I81
sg19
I1
sg27
g36
(g38
S'\x00\x00\x00\x00\x00\x00\x18@'
tRp980
sg52
g53
sg23
S'3'
sg18
F345.11249087471515
sg33
g34
sg51
g11
sg20
S'1'
sg65
g36
(g77
S'\x00\x00\x00\x00\x00\x00\x00\x00'
tRp981
sg44
g45
sg40
g41
sg25
F0.18061607144773006
sS'trials.thisIndex'
p982
g36
(g80
S'E\x00\x00\x00'
tRp983
sg26
V5
sS'trials.thisRepN'
p984
I0
sg66
Vrocking-chair
p985
sg63
V../experiment_stimuli/bw_bc_bl/Nonliving_Things/Furniture/rocking-chair_24.jpg
p986
sg21
F0.58149333717301488
sS'trials.thisTrialN'
p987
I81
sa(dp988
g31
g32
sg17
F347.63279302511364
sg24
I1
sg35
g39
sg14
F347.62805584026501
sg16
g36
(g70
S'\x01\x00\x00\x00'
tRp989
sg42
g43
sg46
g47
sg15
g88
sg22
F350.19428282510489
sg64
g102
sg62
g90
sg49
g50
sS'trials.thisN'
p990
I82
sg19
I1
sg27
g36
(g38
S'\x00\x00\x00\x00\x00\x00\x1a@'
tRp991
sg52
g53
sg23
S'1'
sg18
F348.92077718023211
sg33
g34
sg51
g11
sg20
S'1'
sg65
g36
(g77
S'\x00\x00\x00\x00\x00\x00\x00\x00'
tRp992
sg44
g45
sg40
g41
sg25
F0.2006562314927578
sS'trials.thisIndex'
p993
g36
(g80
S'7\x00\x00\x00'
tRp994
sg26
V5
sS'trials.thisRepN'
p995
I0
sg66
Vnarwhal
p996
sg63
V../experiment_stimuli/bw_bc_bl/Living_Things/Marine_creatures/narwhal_16.jpg
p997
sg21
F1.252950890455395
sS'trials.thisTrialN'
p998
I82
sa(dp999
g31
g32
sg17
F352.13413736317307
sg24
I1
sg35
g39
sg14
F352.12784117087722
sg16
g36
(g70
S'\x01\x00\x00\x00'
tRp1000
sg42
g43
sg46
g47
sg15
g88
sg22
F355.63613474648446
sg64
g160
sg62
g90
sg49
g50
sS'trials.thisN'
p1001
I83
sg19
I1
sg27
g36
(g38
S'\x00\x00\x00\x00\x00\x00\x1a@'
tRp1002
sg52
g53
sg23
S'1'
sg18
F353.42055325163528
sg33
g34
sg51
g11
sg20
S'1'
sg65
g36
(g77
S'\x00\x00\x00\x00\x00\x00\x00\x00'
tRp1003
sg44
g45
sg40
g41
sg25
F0.20066671259701252
sS'trials.thisIndex'
p1004
g36
(g80
S'*\x00\x00\x00'
tRp1005
sg26
V5
sS'trials.thisRepN'
p1006
I0
sg66
Vhummingbird
p1007
sg63
V../experiment_stimuli/bw_bc_bl/Living_Things/Birds/hummingbird_4.jpg
p1008
sg21
F2.1950089591555297
sS'trials.thisTrialN'
p1009
I83
sa(dp1010
g31
g32
sg17
F357.57449515210465
sg24
I0
sg35
g39
sg14
F357.56967476941645
sg16
g36
(g70
S'\x01\x00\x00\x00'
tRp1011
sg42
g43
sg46
g47
sg15
g88
sg22
F367.69232001993805
sg64
g160
sg62
g90
sg49
g50
sS'trials.thisN'
p1012
I84
sg19
I0
sg27
g36
(g38
S'\x00\x00\x00\x00\x00\x00\x1c@'
tRp1013
sg52
g53
sg23
S'2'
sg18
F358.90247243782505
sg33
g34
sg51
g11
sg20
S'2'
sg65
g36
(g77
S'\x00\x00\x00\x00\x00\x00\x00\x00'
tRp1014
sg44
g45
sg40
g41
sg25
F0.26091071451082826
sS'trials.thisIndex'
p1015
g36
(g80
S'\x04\x00\x00\x00'
tRp1016
sg26
V5
sS'trials.thisRepN'
p1017
I0
sg66
Vbarn-owl
p1018
sg63
V../experiment_stimuli/bw_bc_bl/Living_Things/Birds/barn-owl_15.jpg
p1019
sg21
F8.7692936547100544
sS'trials.thisTrialN'
p1020
I84
sa(dp1021
g31
g32
sg17
F369.69080366985872
sg24
I0
sg35
g39
sg14
F369.68601727532223
sg16
g36
(g70
S'\x01\x00\x00\x00'
tRp1022
sg42
g43
sg46
g47
sg15
g72
sg22
F371.59078428940848
sg64
g250
sg62
g74
sg49
g50
sS'trials.thisN'
p1023
I85
sg19
I1
sg27
g36
(g38
S'\x00\x00\x00\x00\x00\x00\x18@'
tRp1024
sg52
g53
sg23
S'3'
sg18
F371.0087889553979
sg33
g34
sg51
g11
sg20
S'1'
sg65
g36
(g77
S'\x00\x00\x00\x00\x00\x00\x00\x00'
tRp1025
sg44
g45
sg40
g41
sg25
F0.27081670798361301
sS'trials.thisIndex'
p1026
g36
(g80
S'/\x00\x00\x00'
tRp1027
sg26
V5
sS'trials.thisRepN'
p1028
I0
sg66
Vlectern
p1029
sg63
V../experiment_stimuli/bw_bc_bl/Nonliving_Things/Furniture/lectern_6.jpg
p1030
sg21
F0.56144688045606017
sS'trials.thisTrialN'
p1031
I85
sa(dp1032
g31
g32
sg17
F373.59932105476037
sg24
I1
sg35
g39
sg14
F373.59451214177534
sg16
g36
(g70
S'\x01\x00\x00\x00'
tRp1033
sg42
g43
sg46
g47
sg15
g72
sg22
F375.34899938711897
sg64
g73
sg62
g74
sg49
g50
sS'trials.thisN'
p1034
I86
sg19
I1
sg27
g36
(g38
S'\x00\x00\x00\x00\x00\x00\x18@'
tRp1035
sg52
g53
sg23
S'1'
sg18
F374.88722244417295
sg33
g34
sg51
g11
sg20
S'1'
sg65
g36
(g77
S'\x00\x00\x00\x00\x00\x00\x00\x00'
tRp1036
sg44
g45
sg40
g41
sg25
F0.20065825013443828
sS'trials.thisIndex'
p1037
g36
(g80
S'@\x00\x00\x00'
tRp1038
sg26
V5
sS'trials.thisRepN'
p1039
I0
sg66
Vplane
p1040
sg63
V../experiment_stimuli/bw_bc_bl/Nonliving_Things/Vehicles/plane_13.jpg
p1041
sg21
F0.44120906805619597
sS'trials.thisTrialN'
p1042
I86
sa(dp1043
g31
g32
sg17
F377.28891154471785
sg24
I1
sg35
g39
sg14
F377.28253244049847
sg16
g36
(g70
S'\x01\x00\x00\x00'
tRp1044
sg42
g43
sg46
g47
sg15
g88
sg22
F378.97688000928611
sg64
g102
sg62
g90
sg49
g50
sS'trials.thisN'
p1045
I87
sg19
I1
sg27
g36
(g38
S'\x00\x00\x00\x00\x00\x00\x18@'
tRp1046
sg52
g53
sg23
S'1'
sg18
F378.58526156516746
sg33
g34
sg51
g11
sg20
S'1'
sg65
g36
(g77
S'\x00\x00\x00\x00\x00\x00\x00\x00'
tRp1047
sg44
g45
sg40
g41
sg25
F0.20065120933577418
sS'trials.thisIndex'
p1048
g36
(g80
S'K\x00\x00\x00'
tRp1049
sg26
V5
sS'trials.thisRepN'
p1050
I0
sg66
Vshark
p1051
sg63
V../experiment_stimuli/bw_bc_bl/Living_Things/Marine_creatures/shark_15.jpg
p1052
sg21
F0.37105717463418841
sS'trials.thisTrialN'
p1053
I87
sa(dp1054
g31
g32
sg17
F380.92536757793278
sg24
I1
sg35
g39
sg14
F380.92043978348374
sg16
g36
(g70
S'\x02\x00\x00\x00'
tRp1055
sg42
g43
sg46
g47
sg15
g72
sg22
F382.33413501130417
sg64
g89
sg62
g90
sg49
g50
sS'trials.thisN'
p1056
I88
sg19
I0
sg27
g36
(g38
S'\x00\x00\x00\x00\x00\x00\x1c@'
tRp1057
sg52
g53
sg23
S'1'
sg18
F382.25323612475768
sg33
g34
sg51
g11
sg20
S'1'
sg65
g36
(g77
S'\x00\x00\x00\x00\x00\x00\x00\x00'
tRp1058
sg44
g45
sg40
g41
sg25
F1.5435733599588275
sS'trials.thisIndex'
p1059
g36
(g80
S' \x00\x00\x00'
tRp1060
sg26
V5
sS'trials.thisRepN'
p1061
I0
sg66
Vgiraffe
p1062
sg63
V../experiment_stimuli/bw_bc_bl/Living_Things/Animals/giraffe_9.jpg
p1063
sg21
F0.060355135705322027
sS'trials.thisTrialN'
p1064
I88
sa(dp1065
g31
g32
sg17
F385.62540907831863
sg24
I0
sg35
g39
sg14
F385.62065422115847
sg16
g36
(g70
S'\x02\x00\x00\x00'
tRp1066
sg42
g43
sg46
g47
sg15
g72
sg22
F387.97646409505978
sg64
g160
sg62
g90
sg49
g50
sS'trials.thisN'
p1067
I89
sg19
I1
sg27
g36
(g38
S'\x00\x00\x00\x00\x00\x00\x18@'
tRp1068
sg52
g53
sg23
S'3'
sg18
F386.9835300296545
sg33
g34
sg51
g11
sg20
S'2'
sg65
g36
(g77
S'\x00\x00\x00\x00\x00\x00\x00\x00'
tRp1069
sg44
g45
sg40
g41
sg25
F0.21068063285201788
sS'trials.thisIndex'
p1070
g36
(g80
S'"\x00\x00\x00'
tRp1071
sg26
V5
sS'trials.thisRepN'
p1072
I0
sg66
Vgoose
p1073
sg63
V../experiment_stimuli/bw_bc_bl/Living_Things/Birds/goose_18.jpg
p1074
sg21
F0.97237984091043472
sS'trials.thisTrialN'
p1075
I89
sa(dp1076
g31
g32
sg17
F389.92483065463603
sg24
I0
sg35
g39
sg14
F389.92000921210274
sg16
g36
(g70
S'\x01\x00\x00\x00'
tRp1077
sg42
g43
sg46
g47
sg15
g88
sg22
F391.89493366843089
sg64
g89
sg62
g90
sg49
g50
sS'trials.thisN'
p1078
I90
sg19
I1
sg27
g36
(g38
S'\x00\x00\x00\x00\x00\x00\x18@'
tRp1079
sg52
g53
sg23
S'3'
sg18
F391.25280805677176
sg33
g34
sg51
g11
sg20
S'1'
sg65
g36
(g77
S'\x00\x00\x00\x00\x00\x00\x00\x00'
tRp1080
sg44
g45
sg40
g41
sg25
F0.20064855134114623
sS'trials.thisIndex'
p1081
g36
(g80
S'\x14\x00\x00\x00'
tRp1082
sg26
V5
sS'trials.thisRepN'
p1083
I0
sg66
Vcow
p1084
sg63
V../experiment_stimuli/bw_bc_bl/Living_Things/Animals/cow_4.jpg
p1085
sg21
F0.62157869199290872
sS'trials.thisTrialN'
p1086
I90
sa(dp1087
g31
g32
sg17
F393.83335545659065
sg24
I0
sg35
g39
sg14
F393.82850255956873
sg16
g36
(g70
S'\x01\x00\x00\x00'
tRp1088
sg42
g43
sg46
g47
sg15
g72
sg22
F395.90349715854973
sg64
g250
sg62
g74
sg49
g50
sS'trials.thisN'
p1089
I91
sg19
I1
sg27
g36
(g38
S'\x00\x00\x00\x00\x00\x00\x18@'
tRp1090
sg52
g53
sg23
S'2'
sg18
F395.13123160926625
sg33
g34
sg51
g11
sg20
S'1'
sg65
g36
(g77
S'\x00\x00\x00\x00\x00\x00\x00\x00'
tRp1091
sg44
g45
sg40
g41
sg25
F0.29084876365959644
sS'trials.thisIndex'
p1092
g36
(g80
S'\x06\x00\x00\x00'
tRp1093
sg26
V5
sS'trials.thisRepN'
p1094
I0
sg66
Vbedside-table
p1095
sg63
V../experiment_stimuli/bw_bc_bl/Nonliving_Things/Furniture/bedside-table_9.jpg
p1096
sg21
F0.75170214427635074
sS'trials.thisTrialN'
p1097
I91
sa(dp1098
g31
g32
sg17
F397.93224241584539
sg24
I0
sg35
g39
sg14
F397.92741608247161
sg16
g36
(g70
S'\x01\x00\x00\x00'
tRp1099
sg42
g43
sg46
g47
sg15
g72
sg22
F401.66620188346133
sg64
g194
sg62
g74
sg49
g50
sS'trials.thisN'
p1100
I92
sg19
I1
sg27
g36
(g38
S'\x00\x00\x00\x00\x00\x00\x18@'
tRp1101
sg52
g53
sg23
S'3'
sg18
F399.22012435086071
sg33
g34
sg51
g11
sg20
S'1'
sg65
g36
(g77
S'\x00\x00\x00\x00\x00\x00\x00\x00'
tRp1102
sg44
g45
sg40
g41
sg25
F0.24077510461211205
sS'trials.thisIndex'
p1103
g36
(g80
S'>\x00\x00\x00'
tRp1104
sg26
V5
sS'trials.thisRepN'
p1105
I0
sg66
Vpiano
p1106
sg63
V../experiment_stimuli/bw_bc_bl/Nonliving_Things/Musical_Inst/piano__3.jpg
p1107
sg21
F2.4255149471573532
sS'trials.thisTrialN'
p1108
I92
sa(dp1109
g31
g32
sg17
F403.65477876504883
sg24
I1
sg35
g39
sg14
F403.64986059069633
sg16
g36
(g70
S'\x01\x00\x00\x00'
tRp1110
sg42
g43
sg46
g47
sg15
g72
sg22
F405.36424940312281
sg64
g73
sg62
g74
sg49
g50
sS'trials.thisN'
p1111
I93
sg19
I1
sg27
g36
(g38
S'\x00\x00\x00\x00\x00\x00\x1a@'
tRp1112
sg52
g53
sg23
S'1'
sg18
F404.94256226159632
sg33
g34
sg51
g11
sg20
S'1'
sg65
g36
(g77
S'\x00\x00\x00\x00\x00\x00\x00\x00'
tRp1113
sg44
g45
sg40
g41
sg25
F1.2028396497480571
sS'trials.thisIndex'
p1114
g36
(g80
S'W\x00\x00\x00'
tRp1115
sg26
V5
sS'trials.thisRepN'
p1116
I0
sg66
Vtrain
p1117
sg63
V../experiment_stimuli/bw_bc_bl/Nonliving_Things/Vehicles/train_15.jpg
p1118
sg21
F0.40111791342496872
sS'trials.thisTrialN'
p1119
I93
sa(dp1120
g31
g32
sg17
F408.31644868338481
sg24
I1
sg35
g39
sg14
F408.31000905716792
sg16
g36
(g70
S'\x01\x00\x00\x00'
tRp1121
sg42
g43
sg46
g47
sg15
g88
sg22
F413.23118369141594
sg64
g351
sg62
g90
sg49
g50
sS'trials.thisN'
p1122
I94
sg19
I1
sg27
g36
(g38
S'\x00\x00\x00\x00\x00\x00\x18@'
tRp1123
sg52
g53
sg23
S'1'
sg18
F409.60270287469029
sg33
g34
sg51
g11
sg20
S'1'
sg65
g36
(g77
S'\x00\x00\x00\x00\x00\x00\x00\x00'
tRp1124
sg44
g45
sg40
g41
sg25
F0.18061399972066283
sS'trials.thisIndex'
p1125
g36
(g80
S'\n\x00\x00\x00'
tRp1126
sg26
V5
sS'trials.thisRepN'
p1127
I0
sg66
Vbutterfly
p1128
sg63
V../experiment_stimuli/bw_bc_bl/Living_Things/Insects/butterfly_4.jpg
p1129
sg21
F3.6079114116728306
sS'trials.thisTrialN'
p1130
I94
sa(dp1131
g31
g32
sg17
F415.15000818111002
sg24
I1
sg35
g39
sg14
F415.1448404956609
sg16
g36
(g70
S'\x01\x00\x00\x00'
tRp1132
sg42
g43
sg46
g47
sg15
g88
sg22
F417.73096974752843
sg64
g160
sg62
g90
sg49
g50
sS'trials.thisN'
p1133
I95
sg19
I1
sg27
g36
(g38
S'\x00\x00\x00\x00\x00\x00\x18@'
tRp1134
sg52
g53
sg23
S'1'
sg18
F416.43755533872172
sg33
g34
sg51
g11
sg20
S'1'
sg65
g36
(g77
S'\x00\x00\x00\x00\x00\x00\x00\x00'
tRp1135
sg44
g45
sg40
g41
sg25
F0.16057417402043939
sS'trials.thisIndex'
p1136
g36
(g80
S'U\x00\x00\x00'
tRp1137
sg26
V5
sS'trials.thisRepN'
p1138
I0
sg66
Vtoucan
p1139
sg63
V../experiment_stimuli/bw_bc_bl/Living_Things/Birds/toucan_4.jpg
p1140
sg21
F1.272839842364192
sS'trials.thisTrialN'
p1141
I95
sasS'loops'
p1142
(lp1143
g1
(cpsychopy.data
TrialHandler
p1144
g3
NtRp1145
(dp1146
S'origin'
p1147
NsS'thisTrial'
p1148
(lp1149
sS'_exp'
p1150
I97292560
sg10
S'trials'
p1151
sg6
I-1
sS'thisRepN'
p1152
I1
sg28
I01
sg29
g30
sS'data'
p1153
g1
(cpsychopy.data
DataHandler
p1154
c__builtin__
dict
p1155
(dp1156
g20
cnumpy.core.multiarray
_reconstruct
p1157
(cnumpy
ndarray
p1158
(I0
tS'b'
tRp1159
(I1
(I96
I1
tg37
(S'O4'
I0
I1
tRp1160
(I3
S'|'
NNNI-1
I-1
I63
tbI00
(lp1161
S'2'
aS'2'
aS'1'
aS'1'
aS'2'
aS'2'
aS'1'
aS'2'
aS'2'
aS'1'
aS'1'
aS'2'
aS'2'
aS'1'
aS'1'
aS'2'
aS'1'
aS'2'
aS'1'
aS'1'
aS'1'
aS'2'
aS'2'
aS'1'
aS'2'
aS'2'
aS'1'
aS'1'
aS'1'
aS'2'
aS'1'
aS'1'
aS'1'
aS'1'
aS'2'
aS'1'
aS'2'
aS'1'
aS'2'
aS'1'
aS'1'
aS'1'
aS'1'
aS'1'
aS'2'
aS'1'
aS'1'
aS'1'
aS'1'
aS'2'
aS'1'
aS'2'
aS'1'
aS'1'
aS'2'
aS'1'
aS'1'
aS'1'
aS'1'
aS'1'
aS'1'
aS'1'
aS'1'
aS'1'
aS'1'
aS'1'
aS'1'
aS'1'
aS'1'
aS'1'
aS'1'
aS'2'
aS'2'
aS'1'
aS'1'
aS'1'
aS'1'
aS'2'
aS'1'
aS'1'
aS'1'
aS'2'
aS'1'
aS'2'
aS'1'
aS'1'
aS'1'
aS'1'
aS'1'
aS'1'
aS'1'
aS'1'
aS'1'
aS'2'
aS'1'
aS'2'
atbsg17
cnumpy.ma.core
_mareconstruct
p1162
(cnumpy.ma.core
MaskedArray
p1163
g1158
(I0
tp1164
S'b'
tRp1165
(I1
(I96
I1
tg37
(S'f4'
I0
I1
tRp1166
(I3
S'<'
NNNI-1
I-1
I0
tbI00
S'\xbb\xc3hC\xb0\xde\x0fC\xfb\x15\x8bC\x85\x9c\xb6B\x89\xc9\xb2C.\xf9\x9bB\xab\xea\xc4C@\xeflC\xf2+\x82C\x0bC>C\x81(\xccChw.C\x82\xc4\xa9C\xd5R\x1fC\xaag\xc4A\x11_\x84C\rK\xa3A\xd2\x90\x8fC\xcf\xe0\xe4A\xd8\x95wCa\xf6\xc2CX\x8c\x13CH%\x83A\xd6\x08\xe6B\x06\x0c\x80C\xd5\xe0\xddB\xf1\x83\x1bC\xbdPVC#\xc0YC\xdd\'RC\xa1\x8dLBZ\x12:Crv\xbeC\x94O\x14B\r\xd0\xc0C\x13\t\xafBPR\x8dB\xe0?BC\xa9\x02\xf5B\xdct\x9bC"\xbaEC@W\xa7B+\x11\xb0CD0\xc6B\x8d\xde\xecB\x91_\x95C\x8e%\x89Cl\xd8\xb8C\x11\xc1\x97C\nOFA@}\xf7@\xc1\xb2*C&!\x9fC\xe83\'C\x1f\xeb\xa0C\xff\xd0\xadC\x90\xff\x94B(\x8eIC\x1a\xf1jB\x91\x85+Bx\xc2\x03B\x89\xcfpCT\xf7\xc6C\xdaG\x8dC\xb7\xcc\xbaC\x8bMZBOX2C\x8b\r{C\xbeo\x86C\xff\xe6\xabC\x06\xf8\xfeBNi\xbeB\xeb\x17MC\xc9.\xceB\xa3\xd7\xd5B\xfb\xa4\xbcC\x9exo@\x8b6yB\xdb\xb6dC\xd1/aC\x01a\x93CJ\x86\x85B\x1f\xb8\x17Cr_\x03C\xd85\x9dC3\x93\xcfC\xc3s\x99C\xd0\xd3\xc9C`\xa7\xa5Cm\xff;B"\xcb5C\nr\x91C\x85R#C\x17\x98\x08C+8]C\xa2\x9b\xa7C'
S'\x00\x00\x00\x00\x00\x00\x00\x00\x00\x00\x00\x00\x00\x00\x00\x00\x00\x00\x00\x00\x00\x00\x00\x00\x00\x00\x00\x00\x00\x00\x00\x00\x00\x00\x00\x00\x00\x00\x00\x00\x00\x00\x00\x00\x00\x00\x00\x00\x00\x00\x00\x00\x00\x00\x00\x00\x00\x00\x00\x00\x00\x00\x00\x00\x00\x00\x00\x00\x00\x00\x00\x00\x00\x00\x00\x00\x00\x00\x00\x00\x00\x00\x00\x00\x00\x00\x00\x00\x00\x00\x00\x00\x00\x00\x00\x00'
NtbsS'ran'
p1167
g1162
(g1163
g1158
g1164
S'b'
tRp1168
(I1
(I96
I1
tg1166
I00
S'\x00\x00\x80?\x00\x00\x80?\x00\x00\x80?\x00\x00\x80?\x00\x00\x80?\x00\x00\x80?\x00\x00\x80?\x00\x00\x80?\x00\x00\x80?\x00\x00\x80?\x00\x00\x80?\x00\x00\x80?\x00\x00\x80?\x00\x00\x80?\x00\x00\x80?\x00\x00\x80?\x00\x00\x80?\x00\x00\x80?\x00\x00\x80?\x00\x00\x80?\x00\x00\x80?\x00\x00\x80?\x00\x00\x80?\x00\x00\x80?\x00\x00\x80?\x00\x00\x80?\x00\x00\x80?\x00\x00\x80?\x00\x00\x80?\x00\x00\x80?\x00\x00\x80?\x00\x00\x80?\x00\x00\x80?\x00\x00\x80?\x00\x00\x80?\x00\x00\x80?\x00\x00\x80?\x00\x00\x80?\x00\x00\x80?\x00\x00\x80?\x00\x00\x80?\x00\x00\x80?\x00\x00\x80?\x00\x00\x80?\x00\x00\x80?\x00\x00\x80?\x00\x00\x80?\x00\x00\x80?\x00\x00\x80?\x00\x00\x80?\x00\x00\x80?\x00\x00\x80?\x00\x00\x80?\x00\x00\x80?\x00\x00\x80?\x00\x00\x80?\x00\x00\x80?\x00\x00\x80?\x00\x00\x80?\x00\x00\x80?\x00\x00\x80?\x00\x00\x80?\x00\x00\x80?\x00\x00\x80?\x00\x00\x80?\x00\x00\x80?\x00\x00\x80?\x00\x00\x80?\x00\x00\x80?\x00\x00\x80?\x00\x00\x80?\x00\x00\x80?\x00\x00\x80?\x00\x00\x80?\x00\x00\x80?\x00\x00\x80?\x00\x00\x80?\x00\x00\x80?\x00\x00\x80?\x00\x00\x80?\x00\x00\x80?\x00\x00\x80?\x00\x00\x80?\x00\x00\x80?\x00\x00\x80?\x00\x00\x80?\x00\x00\x80?\x00\x00\x80?\x00\x00\x80?\x00\x00\x80?\x00\x00\x80?\x00\x00\x80?\x00\x00\x80?\x00\x00\x80?\x00\x00\x80?\x00\x00\x80?'
S'\x00\x00\x00\x00\x00\x00\x00\x00\x00\x00\x00\x00\x00\x00\x00\x00\x00\x00\x00\x00\x00\x00\x00\x00\x00\x00\x00\x00\x00\x00\x00\x00\x00\x00\x00\x00\x00\x00\x00\x00\x00\x00\x00\x00\x00\x00\x00\x00\x00\x00\x00\x00\x00\x00\x00\x00\x00\x00\x00\x00\x00\x00\x00\x00\x00\x00\x00\x00\x00\x00\x00\x00\x00\x00\x00\x00\x00\x00\x00\x00\x00\x00\x00\x00\x00\x00\x00\x00\x00\x00\x00\x00\x00\x00\x00\x00'
Ntbsg24
g1162
(g1163
g1158
g1164
S'b'
tRp1169
(I1
(I96
I1
tg1166
I00
S'\x00\x00\x00\x00\x00\x00\x80?\x00\x00\x00\x00\x00\x00\x80?\x00\x00\x00\x00\x00\x00\x00\x00\x00\x00\x00\x00\x00\x00\x00\x00\x00\x00\x80?\x00\x00\x00\x00\x00\x00\x80?\x00\x00\x00\x00\x00\x00\x80?\x00\x00\x80?\x00\x00\x80?\x00\x00\x00\x00\x00\x00\x80?\x00\x00\x00\x00\x00\x00\x00\x00\x00\x00\x80?\x00\x00\x00\x00\x00\x00\x00\x00\x00\x00\x00\x00\x00\x00\x80?\x00\x00\x00\x00\x00\x00\x00\x00\x00\x00\x80?\x00\x00\x80?\x00\x00\x80?\x00\x00\x00\x00\x00\x00\x80?\x00\x00\x00\x00\x00\x00\x80?\x00\x00\x80?\x00\x00\x00\x00\x00\x00\x00\x00\x00\x00\x00\x00\x00\x00\x80?\x00\x00\x00\x00\x00\x00\x80?\x00\x00\x80?\x00\x00\x00\x00\x00\x00\x80?\x00\x00\x80?\x00\x00\x80?\x00\x00\x80?\x00\x00\x80?\x00\x00\x00\x00\x00\x00\x80?\x00\x00\x00\x00\x00\x00\x00\x00\x00\x00\x00\x00\x00\x00\x80?\x00\x00\x80?\x00\x00\x00\x00\x00\x00\x80?\x00\x00\x80?\x00\x00\x80?\x00\x00\x80?\x00\x00\x00\x00\x00\x00\x00\x00\x00\x00\x80?\x00\x00\x00\x00\x00\x00\x00\x00\x00\x00\x80?\x00\x00\x80?\x00\x00\x80?\x00\x00\x00\x00\x00\x00\x80?\x00\x00\x00\x00\x00\x00\x00\x00\x00\x00\x00\x00\x00\x00\x00\x00\x00\x00\x80?\x00\x00\x00\x00\x00\x00\x80?\x00\x00\x80?\x00\x00\x00\x00\x00\x00\x00\x00\x00\x00\x80?\x00\x00\x80?\x00\x00\x00\x00\x00\x00\x00\x00\x00\x00\x00\x00\x00\x00\x80?\x00\x00\x80?\x00\x00\x00\x00\x00\x00\x80?\x00\x00\x80?\x00\x00\x00\x00\x00\x00\x00\x00\x00\x00\x00\x00\x00\x00\x00\x00\x00\x00\x00\x00\x00\x00\x00\x00\x00\x00\x00\x00'
S'\x00\x00\x00\x00\x00\x00\x00\x00\x00\x00\x00\x00\x00\x00\x00\x00\x00\x00\x00\x00\x00\x00\x00\x00\x00\x00\x00\x00\x00\x00\x00\x00\x00\x00\x00\x00\x00\x00\x00\x00\x00\x00\x00\x00\x00\x00\x00\x00\x00\x00\x00\x00\x00\x00\x00\x00\x00\x00\x00\x00\x00\x00\x00\x00\x00\x00\x00\x00\x00\x00\x00\x00\x00\x00\x00\x00\x00\x00\x00\x00\x00\x00\x00\x00\x00\x00\x00\x00\x00\x00\x00\x00\x00\x00\x00\x00'
Ntbsg14
g1162
(g1163
g1158
g1164
S'b'
tRp1170
(I1
(I96
I1
tg1166
I00
S'"\xc2hCu\xdd\x0fCb\x15\x8bC\x03\x9a\xb6B\xeb\xc8\xb2C\xb4\xf6\x9bB\x0c\xea\xc4Cj\xedlCM+\x82C\x84A>C\xae\'\xccC+v.C\xe6\xc3\xa9C\x94Q\x1fC\x8b]\xc4Ar^\x84C\xdf@\xa3A3\x90\x8fC\x06\xd6\xe4A\x9f\x94wC\xc3\xf5\xc2C\x06\x8b\x13C\x80\x1a\x83AR\x06\xe6Bf\x0b\x80C\xf0\xdd\xddB\xa9\x82\x1bC\xe7NVC\xe6\xbeYC0&RC\xae\x88LB\x1d\x11:C\xd1u\xbeC\xa8J\x14Br\xcf\xc0Cn\x06\xafB\xd4O\x8dB\x9e>BCK\xff\xf4BAt\x9bC\xe0\xb8EC\x12T\xa7B]\x10\xb0C\xea,\xc6B\x0c\xdc\xecB\xf3^\x95C\xf1$\x89C\xcf\xd7\xb8CF\xc0\x97C_:FA\xf7T\xf7@\x83\xb1*C\x89 \x9fC\x1f2\'C~\xea\xa0Cd\xd0\xadC\x0f\xfd\x94B\xed\x8cIC\x83\xebjB\x8a\x80+BT\xbc\x03BK\xcepC\xb6\xf6\xc6C>G\x8dC\x19\xcc\xbaC\xa6HZB\x0cW2CP\x0c{C\xf4n\x86C^\xe6\xabC|\xf5\xfeB\x07f\xbeB\x92\x16MC?,\xceBY\xd4\xd5B*\xa4\xbcC\x11\x1bn@\xe40yB\xa4\xb5dC\x8e.aCf`\x93C\xd0\x83\x85BN\xb6\x17C.^\x03C;5\x9dC\x8a\x92\xcfC#s\x99C/\xd3\xc9C\xbb\xa6\xa5CX\xfa;B\x9c\xc95C>q\x91C?Q#C\xda\x96\x08C\x976]C\x04\x9b\xa7C'
S'\x00\x00\x00\x00\x00\x00\x00\x00\x00\x00\x00\x00\x00\x00\x00\x00\x00\x00\x00\x00\x00\x00\x00\x00\x00\x00\x00\x00\x00\x00\x00\x00\x00\x00\x00\x00\x00\x00\x00\x00\x00\x00\x00\x00\x00\x00\x00\x00\x00\x00\x00\x00\x00\x00\x00\x00\x00\x00\x00\x00\x00\x00\x00\x00\x00\x00\x00\x00\x00\x00\x00\x00\x00\x00\x00\x00\x00\x00\x00\x00\x00\x00\x00\x00\x00\x00\x00\x00\x00\x00\x00\x00\x00\x00\x00\x00'
Ntbsg16
g1157
(g1158
(I0
tS'b'
tRp1171
(I1
(I96
I1
tg1160
I00
(lp1172
g703
ag450
ag813
ag316
ag1011
ag283
ag1088
ag714
ag769
ag582
ag1121
ag538
ag967
ag494
ag136
ag780
ag125
ag835
ag148
ag736
ag1077
ag461
ag113
ag384
ag758
ag373
ag483
ag648
ag659
ag637
ag205
ag571
ag1055
ag171
ag1066
ag305
ag261
ag593
ag406
ag901
ag604
ag294
ag1000
ag339
ag395
ag868
ag802
ag1022
ag879
ag101
ag87
ag527
ag923
ag516
ag934
ag989
ag272
ag615
ag227
ag182
ag159
ag725
ag1099
ag824
ag1033
ag216
ag549
ag747
ag791
ag978
ag417
ag328
ag626
ag350
ag362
ag1044
ag71
ag238
ag692
ag681
ag857
ag249
ag472
ag428
ag912
ag1132
ag890
ag1110
ag945
ag193
ag560
ag846
ag505
ag439
ag670
ag956
atbsg15
g1157
(g1158
(I0
tS'b'
tRp1173
(I1
(I96
I1
tg1160
I00
(lp1174
g88
ag88
ag72
ag72
ag88
ag88
ag72
ag88
ag88
ag72
ag88
ag88
ag88
ag72
ag72
ag88
ag88
ag88
ag72
ag72
ag88
ag72
ag88
ag72
ag72
ag88
ag72
ag88
ag88
ag88
ag88
ag72
ag72
ag88
ag72
ag72
ag88
ag72
ag72
ag88
ag88
ag72
ag88
ag72
ag88
ag72
ag88
ag72
ag88
ag72
ag88
ag72
ag88
ag72
ag88
ag88
ag72
ag72
ag88
ag88
ag88
ag88
ag72
ag88
ag72
ag88
ag72
ag88
ag72
ag72
ag88
ag88
ag88
ag72
ag88
ag88
ag72
ag88
ag72
ag72
ag72
ag88
ag88
ag88
ag88
ag88
ag72
ag72
ag72
ag72
ag88
ag72
ag72
ag88
ag88
ag72
atbsg22
g1162
(g1163
g1158
g1164
S'b'
tRp1175
(I1
(I96
I1
tg1166
I00
S'\xdc\xfbjC\xdd\xa8\x11C\xbfO\x8cC\x0b\x88\xbaB\x9e\xd8\xb7C\xb0f\xa3B\xa6\xf3\xc5C+\xdanC\x19Z\x83C:@@C\x97\x9d\xceC\xd6t0C,\xe7\xaaCbg!C\xc6g\xd4A\xcd]\x85C\x06\xa8\xb4A\x07{\x90C\x87\\\xf7Ar"yC\x8d\xf2\xc3C\xd4\xa0\x15Cl.\x92A\x0f\xfe\xe8B\x8b)\x81C\xf3\x18\xe2BTX\x1dC\xe9\xcfWC)J[C\x86PTC\xeamRB\x85R<C\xc5*\xbfC\xd0\x86#B\xfd\xfc\xc1C\xe6\xb6\xb2BW)\x91B%\xd4CC\x1b\x08\xfbB+;\x9cCA\x96GC\x1aB\xabBm\xd1\xb1C}/\xcaBr&\xf1B\x89\xb5\x96C{\x17\x8aC\x9f\xcb\xb9C\xcbw\x98C\x9b\x81eAV\xde\x1cA\xde\x8e,C\xff\xf2\x9fC\xc8\xcc(C\x1e\xe7\xa3C\xde\x18\xafC\xb9\x18\x98B\xad,KC&VqB\xac\x853B\xe6o\x0cB\xc2\xaauCF\xd5\xc8C\xd5\x9d\x8eC\xac\xac\xbbC)\xd3bB\xbe\xdf3C\x01\x93}C\x08\'\x88Cv\xdb\xacCSt\x01Ch:\xc2B27PCb\xf6\xd1B|\x14\xdaB\n}\xbdC\xce=\xae@\xf4\xaa\x81BF\xd8fC\x16\xc4bC\xe8[\x94C\x94g\x89B\\\x9b\x19C\xba\xa2\x06C\xc3\'\x9eC\x90\xdd\xd0CR\x7f\x9aC\xa0\xae\xcaC\xf4\xa0\xa6C\xad\xe0CB\x8b\x1f8C\x04n\x92C\x86R%C\x13\xcd\rC#B_C\xf7\xce\xa8C'
S'\x00\x00\x00\x00\x00\x00\x00\x00\x00\x00\x00\x00\x00\x00\x00\x00\x00\x00\x00\x00\x00\x00\x00\x00\x00\x00\x00\x00\x00\x00\x00\x00\x00\x00\x00\x00\x00\x00\x00\x00\x00\x00\x00\x00\x00\x00\x00\x00\x00\x00\x00\x00\x00\x00\x00\x00\x00\x00\x00\x00\x00\x00\x00\x00\x00\x00\x00\x00\x00\x00\x00\x00\x00\x00\x00\x00\x00\x00\x00\x00\x00\x00\x00\x00\x00\x00\x00\x00\x00\x00\x00\x00\x00\x00\x00\x00'
Ntbsg26
g1157
(g1158
(I0
tS'b'
tRp1176
(I1
(I96
I1
tg1160
I00
(lp1177
g36
(g80
S'\x07\x00\x00\x00'
tRp1178
ag36
(g80
S'\x04\x00\x00\x00'
tRp1179
ag36
(g80
S'\t\x00\x00\x00'
tRp1180
ag36
(g80
S'\x03\x00\x00\x00'
tRp1181
ag36
(g80
S'\n\x00\x00\x00'
tRp1182
ag36
(g80
S'\x06\x00\x00\x00'
tRp1183
ag36
(g80
S'\x08\x00\x00\x00'
tRp1184
ag36
(g80
S'\x06\x00\x00\x00'
tRp1185
ag36
(g80
S'\x04\x00\x00\x00'
tRp1186
ag36
(g80
S'\x04\x00\x00\x00'
tRp1187
ag36
(g80
S'\x06\x00\x00\x00'
tRp1188
ag36
(g80
S'\x06\x00\x00\x00'
tRp1189
ag36
(g80
S'\x05\x00\x00\x00'
tRp1190
ag36
(g80
S'\x06\x00\x00\x00'
tRp1191
ag36
(g80
S'\x05\x00\x00\x00'
tRp1192
ag36
(g80
S'\x06\x00\x00\x00'
tRp1193
ag36
(g80
S'\x03\x00\x00\x00'
tRp1194
ag36
(g80
S'\x05\x00\x00\x00'
tRp1195
ag36
(g80
S'\x08\x00\x00\x00'
tRp1196
ag36
(g80
S'\x06\x00\x00\x00'
tRp1197
ag36
(g80
S'\x0b\x00\x00\x00'
tRp1198
ag36
(g80
S'\x05\x00\x00\x00'
tRp1199
ag36
(g80
S'\x04\x00\x00\x00'
tRp1200
ag36
(g80
S'\x05\x00\x00\x00'
tRp1201
ag36
(g80
S'\x06\x00\x00\x00'
tRp1202
ag36
(g80
S'\x06\x00\x00\x00'
tRp1203
ag36
(g80
S'\x03\x00\x00\x00'
tRp1204
ag36
(g80
S'\x04\x00\x00\x00'
tRp1205
ag36
(g80
S'\x06\x00\x00\x00'
tRp1206
ag36
(g80
S'\x05\x00\x00\x00'
tRp1207
ag36
(g80
S'\x04\x00\x00\x00'
tRp1208
ag36
(g80
S'\x06\x00\x00\x00'
tRp1209
ag36
(g80
S'\n\x00\x00\x00'
tRp1210
ag36
(g80
S'\x06\x00\x00\x00'
tRp1211
ag36
(g80
S'\r\x00\x00\x00'
tRp1212
ag36
(g80
S'\x04\x00\x00\x00'
tRp1213
ag36
(g80
S'\x06\x00\x00\x00'
tRp1214
ag36
(g80
S'\x01\x00\x00\x00'
tRp1215
ag36
(g80
S'\t\x00\x00\x00'
tRp1216
ag36
(g80
S'\x03\x00\x00\x00'
tRp1217
ag36
(g80
S'\x04\x00\x00\x00'
tRp1218
ag36
(g80
S'\x05\x00\x00\x00'
tRp1219
ag36
(g80
S'\x07\x00\x00\x00'
tRp1220
ag36
(g80
S'\x01\x00\x00\x00'
tRp1221
ag36
(g80
S'\x08\x00\x00\x00'
tRp1222
ag36
(g80
S'\x04\x00\x00\x00'
tRp1223
ag36
(g80
S'\x08\x00\x00\x00'
tRp1224
ag36
(g80
S'\t\x00\x00\x00'
tRp1225
ag36
(g80
S'\x05\x00\x00\x00'
tRp1226
ag36
(g80
S'\x05\x00\x00\x00'
tRp1227
ag36
(g80
S'\x06\x00\x00\x00'
tRp1228
ag36
(g80
S'\x07\x00\x00\x00'
tRp1229
ag36
(g80
S'\x08\x00\x00\x00'
tRp1230
ag36
(g80
S'\x06\x00\x00\x00'
tRp1231
ag36
(g80
S'\t\x00\x00\x00'
tRp1232
ag36
(g80
S'\x06\x00\x00\x00'
tRp1233
ag36
(g80
S'\x04\x00\x00\x00'
tRp1234
ag36
(g80
S'\x06\x00\x00\x00'
tRp1235
ag36
(g80
S'\t\x00\x00\x00'
tRp1236
ag36
(g80
S'\x07\x00\x00\x00'
tRp1237
ag36
(g80
S'\x07\x00\x00\x00'
tRp1238
ag36
(g80
S'\x03\x00\x00\x00'
tRp1239
ag36
(g80
S'\x07\x00\x00\x00'
tRp1240
ag36
(g80
S'\x06\x00\x00\x00'
tRp1241
ag36
(g80
S'\x06\x00\x00\x00'
tRp1242
ag36
(g80
S'\x07\x00\x00\x00'
tRp1243
ag36
(g80
S'\x04\x00\x00\x00'
tRp1244
ag36
(g80
S'\x07\x00\x00\x00'
tRp1245
ag36
(g80
S'\x05\x00\x00\x00'
tRp1246
ag36
(g80
S'\x08\x00\x00\x00'
tRp1247
ag36
(g80
S'\x08\x00\x00\x00'
tRp1248
ag36
(g80
S'\x04\x00\x00\x00'
tRp1249
ag36
(g80
S'\x08\x00\x00\x00'
tRp1250
ag36
(g80
S'\x04\x00\x00\x00'
tRp1251
ag36
(g80
S'\x07\x00\x00\x00'
tRp1252
ag36
(g80
S'\x08\x00\x00\x00'
tRp1253
aS'5.0'
p1254
ag36
(g80
S'\n\x00\x00\x00'
tRp1255
ag36
(g80
S'\t\x00\x00\x00'
tRp1256
ag36
(g80
S'\x06\x00\x00\x00'
tRp1257
ag36
(g80
S'\x01\x00\x00\x00'
tRp1258
ag36
(g80
S'\t\x00\x00\x00'
tRp1259
ag36
(g80
S'\x04\x00\x00\x00'
tRp1260
ag36
(g80
S'\x07\x00\x00\x00'
tRp1261
ag36
(g80
S'\x05\x00\x00\x00'
tRp1262
ag36
(g80
S'\x07\x00\x00\x00'
tRp1263
ag36
(g80
S'\x06\x00\x00\x00'
tRp1264
ag36
(g80
S'\x05\x00\x00\x00'
tRp1265
ag36
(g80
S'\x06\x00\x00\x00'
tRp1266
ag36
(g80
S'\x06\x00\x00\x00'
tRp1267
ag36
(g80
S'\x07\x00\x00\x00'
tRp1268
ag36
(g80
S'\x02\x00\x00\x00'
tRp1269
ag36
(g80
S'\x08\x00\x00\x00'
tRp1270
ag36
(g80
S'\x05\x00\x00\x00'
tRp1271
ag36
(g80
S'\t\x00\x00\x00'
tRp1272
ag36
(g80
S'\x08\x00\x00\x00'
tRp1273
atbsg21
g1162
(g1163
g1158
g1164
S'b'
tRp1274
(I1
(I96
I1
tg1166
I00
S'\x99\x87i?\x97\xe7\x02?\x87\xb3\x8f?\xb9\x151?\x07O\x0cAF\x97\x1a@\x8do@?\x16 \x1f?\xca\x8c\x8a?\xf466?\x05\xe8f@\x1d\x0b1?H|{?\x90,H?\xef66?C\x151?\xfe\xf5f?\xe9\x08\x08?D\r~?&e\x80>\xc8\x1f\x1f?7\xbdJ?C\xfe\x19?}9C>v\xa8n?\x8eMM?\x14\xbb\x0f?\xed\x01b>\x1a\x87v>8C_?\xd7<C>Q\xc9s?\xf26w=]Z @\xe3\xedx?\x16\xbc\x0f?N \x1f?6r\xa9>\x04\x8a\xd7?.\xc9\x8f>\xd4\xe1\x14?\xb1\xf3+?\x07{\x0c@\xdez@?\xcboR?\t\x0e\xb1?\xa3*\r?\xfc\xba\x0f?l\xe8\x0f>/c)?_\x9bE?W*\r?\xf2O\xa4>\x0f\x0e\x9a>n}\x94@\xb2`\xa0?\x8a\xaa\x8a>\xd0;\xa4>n\xa8\x8a>k\x161?(\xb3\\?G\xa2e@\xa3;\x1b@\xd3\xc5\xaf?(\xe6\xe1>\x97oR?.e\x80>\\?\x9b?\xe3E\t@\xbf\xdc\x14?\xe0\xd2&?j\xb0!?\xbd\xee\xe6?\xf4\x8f\x1c?\xbaMM?5\xfb\xbd>M~\xd2>=\xae\x98?\x07NM?\xaf\xcb\x8f>\xab66?\xfa\xfd\x19??\x8f\x1c?x,\xfa?\x11n\x17?j\xec\xa2?U\xbdJ?T_\xcd>0A$?\x86\xf3+?\x9c\xdf\x82?\xe4\x9b3?\xb0\x84.?\x1e\xcaz@\xd896?\xbeI\x89?'
S'\x00\x00\x00\x00\x00\x00\x00\x00\x00\x00\x00\x00\x00\x00\x00\x00\x00\x00\x00\x00\x00\x00\x00\x00\x00\x00\x00\x00\x00\x00\x00\x00\x00\x00\x00\x00\x00\x00\x00\x00\x00\x00\x00\x00\x00\x00\x00\x00\x00\x00\x00\x00\x00\x00\x00\x00\x00\x00\x00\x00\x00\x00\x00\x00\x00\x00\x00\x00\x00\x00\x00\x00\x00\x00\x00\x00\x00\x00\x00\x00\x00\x00\x00\x00\x00\x00\x00\x00\x00\x00\x00\x00\x00\x00\x00\x00'
NtbsS'order'
p1275
g1162
(g1163
g1158
g1164
S'b'
tRp1276
(I1
(I96
I1
tg1166
I00
S'\x00\x00`B\x00\x00\x04B\x00\x00\x84B\x00\x00\xa8A\x00\x00\xa8B\x00\x00\x90A\x00\x00\xb6B\x00\x00dB\x00\x00xB\x00\x004B\x00\x00\xbcB\x00\x00$B\x00\x00\xa0B\x00\x00\x14B\x00\x00\xa0@\x00\x00|B\x00\x00\x80@\x00\x00\x88B\x00\x00\xc0@\x00\x00lB\x00\x00\xb4B\x00\x00\x08B\x00\x00@@\x00\x00\xd8A\x00\x00tB\x00\x00\xd0A\x00\x00\x10B\x00\x00LB\x00\x00PB\x00\x00HB\x00\x000A\x00\x000B\x00\x00\xb0B\x00\x00\x00A\x00\x00\xb2B\x00\x00\xa0A\x00\x00\x80A\x00\x008B\x00\x00\xe8A\x00\x00\x94B\x00\x00<B\x00\x00\x98A\x00\x00\xa6B\x00\x00\xb8A\x00\x00\xe0A\x00\x00\x8eB\x00\x00\x82B\x00\x00\xaaB\x00\x00\x90B\x00\x00\x00@\x00\x00\x80?\x00\x00 B\x00\x00\x98B\x00\x00\x1cB\x00\x00\x9aB\x00\x00\xa4B\x00\x00\x88A\x00\x00@B\x00\x00PA\x00\x00\x10A\x00\x00\xe0@\x00\x00hB\x00\x00\xb8B\x00\x00\x86B\x00\x00\xacB\x00\x00@A\x00\x00(B\x00\x00pB\x00\x00\x80B\x00\x00\xa2B\x00\x00\xf0A\x00\x00\xb0A\x00\x00DB\x00\x00\xc0A\x00\x00\xc8A\x00\x00\xaeB\x00\x00\x00\x00\x00\x00`A\x00\x00\\B\x00\x00XB\x00\x00\x8cB\x00\x00pA\x00\x00\x0cB\x00\x00\xf8A\x00\x00\x96B\x00\x00\xbeB\x00\x00\x92B\x00\x00\xbaB\x00\x00\x9cB\x00\x00 A\x00\x00,B\x00\x00\x8aB\x00\x00\x18B\x00\x00\x00B\x00\x00TB\x00\x00\x9eB'
S'\x00\x00\x00\x00\x00\x00\x00\x00\x00\x00\x00\x00\x00\x00\x00\x00\x00\x00\x00\x00\x00\x00\x00\x00\x00\x00\x00\x00\x00\x00\x00\x00\x00\x00\x00\x00\x00\x00\x00\x00\x00\x00\x00\x00\x00\x00\x00\x00\x00\x00\x00\x00\x00\x00\x00\x00\x00\x00\x00\x00\x00\x00\x00\x00\x00\x00\x00\x00\x00\x00\x00\x00\x00\x00\x00\x00\x00\x00\x00\x00\x00\x00\x00\x00\x00\x00\x00\x00\x00\x00\x00\x00\x00\x00\x00\x00'
Ntbsg19
g1162
(g1163
g1158
g1164
S'b'
tRp1277
(I1
(I96
I1
tg1166
I00
S'\x00\x00\x80?\x00\x00\x00\x00\x00\x00\x80?\x00\x00\x80?\x00\x00\x00\x00\x00\x00\x80?\x00\x00\x80?\x00\x00\x80?\x00\x00\x80?\x00\x00\x80?\x00\x00\x80?\x00\x00\x80?\x00\x00\x80?\x00\x00\x00\x00\x00\x00\x80?\x00\x00\x80?\x00\x00\x80?\x00\x00\x80?\x00\x00\x80?\x00\x00\x80?\x00\x00\x80?\x00\x00\x80?\x00\x00\x80?\x00\x00\x00\x00\x00\x00\x80?\x00\x00\x80?\x00\x00\x00\x00\x00\x00\x80?\x00\x00\x00\x00\x00\x00\x80?\x00\x00\x00\x00\x00\x00\x80?\x00\x00\x00\x00\x00\x00\x80?\x00\x00\x80?\x00\x00\x80?\x00\x00\x80?\x00\x00\x80?\x00\x00\x80?\x00\x00\x80?\x00\x00\x80?\x00\x00\x80?\x00\x00\x80?\x00\x00\x00\x00\x00\x00\x00\x00\x00\x00\x00\x00\x00\x00\x00\x00\x00\x00\x80?\x00\x00\x80?\x00\x00\x80?\x00\x00\x80?\x00\x00\x80?\x00\x00\x80?\x00\x00\x80?\x00\x00\x80?\x00\x00\x80?\x00\x00\x00\x00\x00\x00\x00\x00\x00\x00\x00\x00\x00\x00\x80?\x00\x00\x80?\x00\x00\x80?\x00\x00\x80?\x00\x00\x80?\x00\x00\x80?\x00\x00\x80?\x00\x00\x80?\x00\x00\x80?\x00\x00\x00\x00\x00\x00\x80?\x00\x00\x80?\x00\x00\x80?\x00\x00\x80?\x00\x00\x00\x00\x00\x00\x80?\x00\x00\x80?\x00\x00\x80?\x00\x00\x80?\x00\x00\x80?\x00\x00\x00\x00\x00\x00\x00\x00\x00\x00\x80?\x00\x00\x80?\x00\x00\x80?\x00\x00\x80?\x00\x00\x80?\x00\x00\x80?\x00\x00\x80?\x00\x00\x80?\x00\x00\x80?\x00\x00\x80?\x00\x00\x80?\x00\x00\x80?\x00\x00\x80?\x00\x00\x80?\x00\x00\x80?'
S'\x00\x00\x00\x00\x00\x00\x00\x00\x00\x00\x00\x00\x00\x00\x00\x00\x00\x00\x00\x00\x00\x00\x00\x00\x00\x00\x00\x00\x00\x00\x00\x00\x00\x00\x00\x00\x00\x00\x00\x00\x00\x00\x00\x00\x00\x00\x00\x00\x00\x00\x00\x00\x00\x00\x00\x00\x00\x00\x00\x00\x00\x00\x00\x00\x00\x00\x00\x00\x00\x00\x00\x00\x00\x00\x00\x00\x00\x00\x00\x00\x00\x00\x00\x00\x00\x00\x00\x00\x00\x00\x00\x00\x00\x00\x00\x00'
Ntbsg27
g1157
(g1158
(I0
tS'b'
tRp1278
(I1
(I96
I1
tg1160
I00
(lp1279
g705
ag452
ag815
ag319
ag1013
ag285
ag1090
ag716
ag771
ag584
ag1123
ag540
ag969
ag496
ag139
ag782
ag127
ag837
ag150
ag738
ag1079
ag463
ag116
ag386
ag760
ag375
ag485
ag650
ag661
ag639
ag207
ag573
ag1057
ag173
ag1068
ag307
ag263
ag595
ag408
ag903
ag606
ag296
ag1002
ag341
ag397
ag870
ag804
ag1024
ag881
ag104
ag92
ag529
ag925
ag518
ag936
ag991
ag274
ag617
ag229
ag184
ag162
ag727
ag1101
ag826
ag1035
ag218
ag551
ag749
ag793
ag980
ag419
ag330
ag628
ag353
ag364
ag1046
ag76
ag240
ag694
ag683
ag859
ag252
ag474
ag430
ag914
ag1134
ag892
ag1112
ag947
ag196
ag562
ag848
ag507
ag441
ag672
ag958
atbsg23
g1157
(g1158
(I0
tS'b'
tRp1280
(I1
(I96
I1
tg1160
I00
(lp1281
S'2'
aS'1'
aS'3'
aS'1'
aS'2'
aS'2'
aS'2'
aS'3'
aS'1'
aS'3'
aS'1'
aS'3'
aS'1'
aS'1'
aS'1'
aS'2'
aS'1'
aS'3'
aS'2'
aS'1'
aS'3'
aS'2'
aS'2'
aS'1'
aS'3'
aS'2'
aS'1'
aS'1'
aS'1'
aS'2'
aS'1'
aS'3'
aS'1'
aS'1'
aS'3'
aS'2'
aS'3'
aS'1'
aS'2'
aS'1'
aS'1'
aS'2'
aS'1'
aS'1'
aS'1'
aS'1'
aS'1'
aS'3'
aS'1'
aS'2'
aS'2'
aS'2'
aS'1'
aS'1'
aS'3'
aS'1'
aS'1'
aS'1'
aS'1'
aS'2'
aS'2'
aS'1'
aS'3'
aS'2'
aS'1'
aS'1'
aS'1'
aS'2'
aS'1'
aS'3'
aS'2'
aS'3'
aS'3'
aS'1'
aS'2'
aS'1'
aS'1'
aS'2'
aS'3'
aS'1'
aS'1'
aS'3'
aS'2'
aS'3'
aS'1'
aS'1'
aS'3'
aS'1'
aS'1'
aS'3'
aS'2'
aS'2'
aS'3'
aS'2'
aS'3'
aS'3'
atbsg18
g1162
(g1163
g1158
g1164
S'b'
tRp1282
(I1
(I96
I1
tg1166
I00
S'\x11\rjC\xb2 \x11Cj\xbd\x8bC[\x1b\xb9B\x84s\xb3Cp\x87\x9eB\xcc\x90\xc5C\xc85nC\xeb\xcc\x82C\xc1\x84?C%\xcd\xccC\x89\xbe/C\xcdf\xaaC\xf3\x99 C\xf7\x8b\xceA\xa1\x02\x85CHF\xadAa4\x90C\x03B\xefA\xfd\xdcxC\\\xa0\xc3C\xd4\xd0\x14Ch4\x8dA\xee\x91\xe8B\x96\xaf\x80C\xadn\xe0BU\xc3\x1cC$\x92WCD\x07[C\xfekSC\xa1\x95QBzY;Cj \xbfC#l\x19B\xe4}\xc1C\xe7\x8c\xb1B\x90\xe0\x8fB(zCCl\x9f\xf7B\x97\x14\x9cC\x1c\xfcFC\xac\xdf\xa9B\xd5\xb5\xb0C\x00\xa4\xc8B\x0bw\xefB\xda\x01\x96C\xfa\xcc\x89C \x81\xb9C,c\x98C6\x97ZA\\0\x10Ar\xfc+CI\xc7\x9fC~z(C\x87\x92\xa1C\xdcu\xaeC\x89\x83\x97BK\xd5JC\xc4+pBD\xac0B\x0f\xe8\x08B\xf6\x0erC-\x9c\xc7Cm\xeb\x8dC\x91q\xbbCct_BH\x9a3C@W|C\xdb\x11\x87Cf\x8e\xacC=\xc8\x00C\x80\xec\xc0B\x12dNC\xb9\xb2\xd0B7j\xd8B\xeaJ\xbdCq\x19\xa0@j{~B\xb4\x05fC\xecvbC+\xfe\x93C\xf0#\x88B\x8c\xf9\x18C\x1e\xa9\x04Cj\xd9\x9dC\x028\xd0CR\x17\x9aC\xa6x\xcaC2L\xa6C\xd0\x1bAB\x8a\x147C\x94\x11\x92C\xbe\x9e$C\xa7\xdc\tC\xa7\x86^C\x0cC\xa8C'
S'\x00\x00\x00\x00\x00\x00\x00\x00\x00\x00\x00\x00\x00\x00\x00\x00\x00\x00\x00\x00\x00\x00\x00\x00\x00\x00\x00\x00\x00\x00\x00\x00\x00\x00\x00\x00\x00\x00\x00\x00\x00\x00\x00\x00\x00\x00\x00\x00\x00\x00\x00\x00\x00\x00\x00\x00\x00\x00\x00\x00\x00\x00\x00\x00\x00\x00\x00\x00\x00\x00\x00\x00\x00\x00\x00\x00\x00\x00\x00\x00\x00\x00\x00\x00\x00\x00\x00\x00\x00\x00\x00\x00\x00\x00\x00\x00'
Ntbsg25
g1162
(g1163
g1158
g1164
S'b'
tRp1283
(I1
(I96
I1
tg1166
I00
S'|\xbcW>l,\x1a>\xd9yM>x~M>\x17\x96\x85>\xdaFl>!\xea\x94>\xc6\xfea>\xa2\x0c\x9a>&\x89\x85>\xe0\xf28>@(\x1a>\n\x86\x85>q\xf28>`O\xa4>_\\\xcd>\xfeBl>\xbe3C>\x07\xca\x8f>\x93\xca8>\xd0vM>\xd0\xb4\xb3>D\\\xcd>\x92xM>o\xc9\x8f>\x9bBl>\t\x86v>\x12yM>D5C>\xe5\x85\x85>\xf7Hl>wyM>\xd0\x93\xc5?\x99\x87\x85>\xaa\xbcW>\xda\xbcW>\x84\xf28>Rx$>*Cl>$\xd6a>\xfeAl>\x1a)\x1a>\x93{M>\xc7\x86\x85>b8C>\\\xb6\xb3>\xfdP\x80>}\xa8\x8a>\nHl>\xf8,\x9f>\xb8!Z?\x0e\xb0.>\xd0wM>\x1br$>\x93\xcc\xe1?\xd4xM>=|M>c\xf58>\xc2\x19l>\xa6\x19\xc3>mKl>T\xf08>\xc0\x8dv>\xeel$>[yM>\xc2\xec\x94>;\xf38>\xf8!H?Wd\x80>k\xf38>y\xf58>(\x8av>\xd0zM>\x8byM>\xf2j$>\x83wM>\xdd)\r?\x7f6C>\xe2\xf28>+\xbeW>\xa8\xea\x94>\xa3\x00b>\xa2\xae.>B\xfea>\xb0\xbcW>\x8em$>\xc5\xf18>\xa6\xf6\x99?r\xffa>\xa0\xc0\xdc>-\xc3W>\xefo$>B\xea\x0f>\x9dp\xa9>\xd24C>\xff\x0c9>'
S'\x00\x00\x00\x00\x00\x00\x00\x00\x00\x00\x00\x00\x00\x00\x00\x00\x00\x00\x00\x00\x00\x00\x00\x00\x00\x00\x00\x00\x00\x00\x00\x00\x00\x00\x00\x00\x00\x00\x00\x00\x00\x00\x00\x00\x00\x00\x00\x00\x00\x00\x00\x00\x00\x00\x00\x00\x00\x00\x00\x00\x00\x00\x00\x00\x00\x00\x00\x00\x00\x00\x00\x00\x00\x00\x00\x00\x00\x00\x00\x00\x00\x00\x00\x00\x00\x00\x00\x00\x00\x00\x00\x00\x00\x00\x00\x00'
NtbstRp1284
(dp1285
S'isNumeric'
p1286
(dp1287
g23
I00
sg20
I00
sg17
I01
sg1167
I01
sg22
I01
sg24
I01
sg14
I01
sg18
I01
sg16
I00
sg19
I01
sg26
I00
sg27
I00
sg15
I00
sg21
I01
sg1275
I01
sg25
I01
ssg1151
g1145
sS'dataTypes'
p1288
(lp1289
g1167
ag1275
ag14
ag15
ag16
ag17
ag18
ag19
ag20
ag21
ag22
ag23
ag24
ag25
ag26
ag27
asS'dataShape'
p1290
(lp1291
I96
aI1
asbsS'method'
p1292
S'random'
p1293
sS'sequenceIndices'
p1294
g1157
(g1158
(I0
tS'b'
tRp1295
(I1
(I96
I1
tg80
I01
S'L\x00\x00\x002\x00\x00\x001\x00\x00\x00\x16\x00\x00\x00\x10\x00\x00\x00\x0e\x00\x00\x00\x12\x00\x00\x00<\x00\x00\x00!\x00\x00\x00;\x00\x00\x00Y\x00\x00\x00\x1e\x00\x00\x00A\x00\x00\x00:\x00\x00\x00M\x00\x00\x00Q\x00\x00\x00$\x00\x00\x008\x00\x00\x00\x05\x00\x00\x00)\x00\x00\x00#\x00\x00\x00\x03\x00\x00\x00G\x00\x00\x00+\x00\x00\x00I\x00\x00\x00J\x00\x00\x00\x19\x00\x00\x00\x17\x00\x00\x00,\x00\x00\x00&\x00\x00\x00F\x00\x00\x00S\x00\x00\x00]\x00\x00\x00\x01\x00\x00\x00\x15\x00\x00\x00R\x00\x00\x00\x1a\x00\x00\x00\r\x00\x00\x00\\\x00\x00\x005\x00\x00\x003\x00\x00\x00\x0b\x00\x00\x00B\x00\x00\x00Z\x00\x00\x00\x1f\x00\x00\x00\t\x00\x00\x00%\x00\x00\x00(\x00\x00\x009\x00\x00\x00H\x00\x00\x00\x1d\x00\x00\x00\x1b\x00\x00\x00\x1c\x00\x00\x00^\x00\x00\x00O\x00\x00\x00N\x00\x00\x00\x00\x00\x00\x00\x07\x00\x00\x00=\x00\x00\x00\x13\x00\x00\x00C\x00\x00\x00\x18\x00\x00\x00\x08\x00\x00\x00\x0f\x00\x00\x00D\x00\x00\x00.\x00\x00\x00\x02\x00\x00\x00?\x00\x00\x00\x11\x00\x00\x00[\x00\x00\x00P\x00\x00\x00-\x00\x00\x000\x00\x00\x00V\x00\x00\x00\'\x00\x00\x00T\x00\x00\x004\x00\x00\x006\x00\x00\x00X\x00\x00\x00_\x00\x00\x00\x0c\x00\x00\x00E\x00\x00\x007\x00\x00\x00*\x00\x00\x00\x04\x00\x00\x00/\x00\x00\x00@\x00\x00\x00K\x00\x00\x00 \x00\x00\x00"\x00\x00\x00\x14\x00\x00\x00\x06\x00\x00\x00>\x00\x00\x00W\x00\x00\x00\n\x00\x00\x00U\x00\x00\x00'
tbsS'finished'
p1296
I01
sS'nReps'
p1297
I1
sS'nRemaining'
p1298
I-1
sS'trialList'
p1299
(lp1300
g1
(cpsychopy.data
TrialType
p1301
g1155
(dp1302
g62
g74
sg63
g711
sg64
g250
sg65
g706
sg66
g710
stRp1303
ag1
(g1301
g1155
(dp1304
g62
g90
sg63
g458
sg64
g89
sg65
g453
sg66
g457
stRp1305
ag1
(g1301
g1155
(dp1306
g62
g74
sg63
g821
sg64
g250
sg65
g816
sg66
g820
stRp1307
ag1
(g1301
g1155
(dp1308
g62
g74
sg63
g325
sg64
g317
sg65
g320
sg66
g324
stRp1309
ag1
(g1301
g1155
(dp1310
g62
g90
sg63
g1019
sg64
g160
sg65
g1014
sg66
g1018
stRp1311
ag1
(g1301
g1155
(dp1312
g62
g74
sg63
g291
sg64
g250
sg65
g286
sg66
g290
stRp1313
ag1
(g1301
g1155
(dp1314
g62
g74
sg63
g1096
sg64
g250
sg65
g1091
sg66
g1095
stRp1315
ag1
(g1301
g1155
(dp1316
g62
g74
sg63
g722
sg64
g73
sg65
g717
sg66
g721
stRp1317
ag1
(g1301
g1155
(dp1318
g62
g74
sg63
g777
sg64
g250
sg65
g772
sg66
g776
stRp1319
ag1
(g1301
g1155
(dp1320
g62
g74
sg63
g590
sg64
g73
sg65
g585
sg66
g589
stRp1321
ag1
(g1301
g1155
(dp1322
g62
g90
sg63
g1129
sg64
g351
sg65
g1124
sg66
g1128
stRp1323
ag1
(g1301
g1155
(dp1324
g62
g74
sg63
g546
sg64
g73
sg65
g541
sg66
g545
stRp1325
ag1
(g1301
g1155
(dp1326
g62
g74
sg63
g975
sg64
g137
sg65
g970
sg66
g974
stRp1327
ag1
(g1301
g1155
(dp1328
g62
g90
sg63
g502
sg64
g89
sg65
g497
sg66
g501
stRp1329
ag1
(g1301
g1155
(dp1330
g62
g74
sg63
g145
sg64
g137
sg65
g140
sg66
g144
stRp1331
ag1
(g1301
g1155
(dp1332
g62
g74
sg63
g788
sg64
g250
sg65
g783
sg66
g787
stRp1333
ag1
(g1301
g1155
(dp1334
g62
g90
sg63
g133
sg64
g89
sg65
g128
sg66
g132
stRp1335
ag1
(g1301
g1155
(dp1336
g62
g74
sg63
g843
sg64
g137
sg65
g838
sg66
g842
stRp1337
ag1
(g1301
g1155
(dp1338
g62
g74
sg63
g156
sg64
g114
sg65
g151
sg66
g155
stRp1339
ag1
(g1301
g1155
(dp1340
g62
g74
sg63
g744
sg64
g250
sg65
g739
sg66
g743
stRp1341
ag1
(g1301
g1155
(dp1342
g62
g90
sg63
g1085
sg64
g89
sg65
g1080
sg66
g1084
stRp1343
ag1
(g1301
g1155
(dp1344
g62
g90
sg63
g469
sg64
g102
sg65
g464
sg66
g468
stRp1345
ag1
(g1301
g1155
(dp1346
g62
g74
sg63
g122
sg64
g114
sg65
g117
sg66
g121
stRp1347
ag1
(g1301
g1155
(dp1348
g62
g90
sg63
g392
sg64
g102
sg65
g387
sg66
g391
stRp1349
ag1
(g1301
g1155
(dp1350
g62
g90
sg63
g766
sg64
g351
sg65
g761
sg66
g765
stRp1351
ag1
(g1301
g1155
(dp1352
g62
g74
sg63
g381
sg64
g194
sg65
g376
sg66
g380
stRp1353
ag1
(g1301
g1155
(dp1354
g62
g90
sg63
g491
sg64
g160
sg65
g486
sg66
g490
stRp1355
ag1
(g1301
g1155
(dp1356
g62
g90
sg63
g656
sg64
g89
sg65
g651
sg66
g655
stRp1357
ag1
(g1301
g1155
(dp1358
g62
g74
sg63
g667
sg64
g137
sg65
g662
sg66
g666
stRp1359
ag1
(g1301
g1155
(dp1360
g62
g74
sg63
g645
sg64
g250
sg65
g640
sg66
g644
stRp1361
ag1
(g1301
g1155
(dp1362
g62
g74
sg63
g213
sg64
g114
sg65
g208
sg66
g212
stRp1363
ag1
(g1301
g1155
(dp1364
g62
g74
sg63
g579
sg64
g114
sg65
g574
sg66
g578
stRp1365
ag1
(g1301
g1155
(dp1366
g62
g90
sg63
g1063
sg64
g89
sg65
g1058
sg66
g1062
stRp1367
ag1
(g1301
g1155
(dp1368
g62
g90
sg63
g179
sg64
g160
sg65
g174
sg66
g178
stRp1369
ag1
(g1301
g1155
(dp1370
g62
g90
sg63
g1074
sg64
g160
sg65
g1069
sg66
g1073
stRp1371
ag1
(g1301
g1155
(dp1372
g62
g74
sg63
g313
sg64
g137
sg65
g308
sg66
g312
stRp1373
ag1
(g1301
g1155
(dp1374
g62
g74
sg63
g269
sg64
g194
sg65
g264
sg66
g268
stRp1375
ag1
(g1301
g1155
(dp1376
g62
g74
sg63
g601
sg64
g317
sg65
g596
sg66
g600
stRp1377
ag1
(g1301
g1155
(dp1378
g62
g90
sg63
g414
sg64
g160
sg65
g409
sg66
g413
stRp1379
ag1
(g1301
g1155
(dp1380
g62
g90
sg63
g909
sg64
g89
sg65
g904
sg66
g908
stRp1381
ag1
(g1301
g1155
(dp1382
g62
g90
sg63
g612
sg64
g89
sg65
g607
sg66
g611
stRp1383
ag1
(g1301
g1155
(dp1384
g62
g74
sg63
g302
sg64
g137
sg65
g297
sg66
g301
stRp1385
ag1
(g1301
g1155
(dp1386
g62
g90
sg63
g1008
sg64
g160
sg65
g1003
sg66
g1007
stRp1387
ag1
(g1301
g1155
(dp1388
g62
g90
sg63
g347
sg64
g102
sg65
g342
sg66
g346
stRp1389
ag1
(g1301
g1155
(dp1390
g62
g90
sg63
g403
sg64
g160
sg65
g398
sg66
g402
stRp1391
ag1
(g1301
g1155
(dp1392
g62
g90
sg63
g876
sg64
g351
sg65
g871
sg66
g875
stRp1393
ag1
(g1301
g1155
(dp1394
g62
g74
sg63
g810
sg64
g250
sg65
g805
sg66
g809
stRp1395
ag1
(g1301
g1155
(dp1396
g62
g74
sg63
g1030
sg64
g250
sg65
g1025
sg66
g1029
stRp1397
ag1
(g1301
g1155
(dp1398
g62
g90
sg63
g887
sg64
g89
sg65
g882
sg66
g886
stRp1399
ag1
(g1301
g1155
(dp1400
g62
g90
sg63
g110
sg64
g102
sg65
g105
sg66
g109
stRp1401
ag1
(g1301
g1155
(dp1402
g62
g90
sg63
g98
sg64
g89
sg65
g93
sg66
g97
stRp1403
ag1
(g1301
g1155
(dp1404
g62
g90
sg63
g535
sg64
g160
sg65
g530
sg66
g534
stRp1405
ag1
(g1301
g1155
(dp1406
g62
g90
sg63
g931
sg64
g102
sg65
g926
sg66
g930
stRp1407
ag1
(g1301
g1155
(dp1408
g62
g74
sg63
g524
sg64
g137
sg65
g519
sg66
g523
stRp1409
ag1
(g1301
g1155
(dp1410
g62
g74
sg63
g942
sg64
g73
sg65
g937
sg66
g941
stRp1411
ag1
(g1301
g1155
(dp1412
g62
g90
sg63
g997
sg64
g102
sg65
g992
sg66
g996
stRp1413
ag1
(g1301
g1155
(dp1414
g62
g90
sg63
g280
sg64
g160
sg65
g275
sg66
g279
stRp1415
ag1
(g1301
g1155
(dp1416
g62
g90
sg63
g623
sg64
g160
sg65
g618
sg66
g622
stRp1417
ag1
(g1301
g1155
(dp1418
g62
g74
sg63
g235
sg64
g137
sg65
g230
sg66
g234
stRp1419
ag1
(g1301
g1155
(dp1420
g62
g90
sg63
g190
sg64
g160
sg65
g185
sg66
g189
stRp1421
ag1
(g1301
g1155
(dp1422
g62
g90
sg63
g168
sg64
g160
sg65
g163
sg66
g167
stRp1423
ag1
(g1301
g1155
(dp1424
g62
g90
sg63
g733
sg64
g160
sg65
g728
sg66
g732
stRp1425
ag1
(g1301
g1155
(dp1426
g62
g74
sg63
g1107
sg64
g194
sg65
g1102
sg66
g1106
stRp1427
ag1
(g1301
g1155
(dp1428
g62
g90
sg63
g832
sg64
g160
sg65
g827
sg66
g831
stRp1429
ag1
(g1301
g1155
(dp1430
g62
g74
sg63
g1041
sg64
g73
sg65
g1036
sg66
g1040
stRp1431
ag1
(g1301
g1155
(dp1432
g62
g90
sg63
g224
sg64
g102
sg65
g219
sg66
g223
stRp1433
ag1
(g1301
g1155
(dp1434
g62
g74
sg63
g557
sg64
g114
sg65
g552
sg66
g556
stRp1435
ag1
(g1301
g1155
(dp1436
g62
g90
sg63
g755
sg64
g160
sg65
g750
sg66
g754
stRp1437
ag1
(g1301
g1155
(dp1438
g62
g90
sg63
g799
sg64
g89
sg65
g794
sg66
g798
stRp1439
ag1
(g1301
g1155
(dp1440
g62
g74
sg63
g986
sg64
g250
sg65
g981
sg66
g985
stRp1441
ag1
(g1301
g1155
(dp1442
g62
g90
sg63
g425
sg64
g160
sg65
g420
sg66
g424
stRp1443
ag1
(g1301
g1155
(dp1444
g62
g74
sg63
g336
sg64
g114
sg65
g331
sg66
g335
stRp1445
ag1
(g1301
g1155
(dp1446
g62
g74
sg63
g634
sg64
g194
sg65
g629
sg66
g633
stRp1447
ag1
(g1301
g1155
(dp1448
g62
g90
sg63
g359
sg64
g351
sg65
g354
sg66
g358
stRp1449
ag1
(g1301
g1155
(dp1450
g62
g90
sg63
g370
sg64
g160
sg65
g365
sg66
g369
stRp1451
ag1
(g1301
g1155
(dp1452
g62
g90
sg63
g1052
sg64
g102
sg65
g1047
sg66
g1051
stRp1453
ag1
(g1301
g1155
(dp1454
g62
g74
sg63
g84
sg64
g73
sg65
g78
sg66
g83
stRp1455
ag1
(g1301
g1155
(dp1456
g62
g74
sg63
g246
sg64
g114
sg65
g241
sg66
g245
stRp1457
ag1
(g1301
g1155
(dp1458
g62
g74
sg63
g700
sg64
g250
sg65
g695
sg66
g699
stRp1459
ag1
(g1301
g1155
(dp1460
g62
g90
sg63
g689
sg64
g160
sg65
g684
sg66
g688
stRp1461
ag1
(g1301
g1155
(dp1462
g62
g90
sg63
g865
sg64
g102
sg65
g860
sg66
g864
stRp1463
ag1
(g1301
g1155
(dp1464
g62
g74
sg63
g258
sg64
g250
sg65
g253
sg66
g257
stRp1465
ag1
(g1301
g1155
(dp1466
g62
g90
sg63
g480
sg64
g89
sg65
g475
sg66
g479
stRp1467
ag1
(g1301
g1155
(dp1468
g62
g74
sg63
g436
sg64
g114
sg65
g431
sg66
g435
stRp1469
ag1
(g1301
g1155
(dp1470
g62
g90
sg63
g920
sg64
g89
sg65
g915
sg66
g919
stRp1471
ag1
(g1301
g1155
(dp1472
g62
g90
sg63
g1140
sg64
g160
sg65
g1135
sg66
g1139
stRp1473
ag1
(g1301
g1155
(dp1474
g62
g74
sg63
g898
sg64
g73
sg65
g893
sg66
g897
stRp1475
ag1
(g1301
g1155
(dp1476
g62
g74
sg63
g1118
sg64
g73
sg65
g1113
sg66
g1117
stRp1477
ag1
(g1301
g1155
(dp1478
g62
g74
sg63
g953
sg64
g194
sg65
g948
sg66
g952
stRp1479
ag1
(g1301
g1155
(dp1480
g62
g74
sg63
g202
sg64
g194
sg65
g197
sg66
g201
stRp1481
ag1
(g1301
g1155
(dp1482
g62
g90
sg63
g568
sg64
g89
sg65
g563
sg66
g567
stRp1483
ag1
(g1301
g1155
(dp1484
g62
g74
sg63
g854
sg64
g73
sg65
g849
sg66
g853
stRp1485
ag1
(g1301
g1155
(dp1486
g62
g74
sg63
g513
sg64
g194
sg65
g508
sg66
g512
stRp1487
ag1
(g1301
g1155
(dp1488
g62
g74
sg63
g447
sg64
g250
sg65
g442
sg66
g446
stRp1489
ag1
(g1301
g1155
(dp1490
g62
g90
sg63
g678
sg64
g102
sg65
g673
sg66
g677
stRp1491
ag1
(g1301
g1155
(dp1492
g62
g90
sg63
g964
sg64
g89
sg65
g959
sg66
g963
stRp1493
asS'seed'
p1494
NsS'thisIndex'
p1495
g1137
sS'thisN'
p1496
I96
sS'thisTrialN'
p1497
I0
sS'nTotal'
p1498
I96
sS'_warnUseOfNext'
p1499
I01
sbasS'savePickle'
p1500
I00
sb.