ccopy_reg
_reconstructor
p1
(cpsychopy.data
ExperimentHandler
p2
c__builtin__
object
p3
NtRp4
(dp5
S'originPath'
p6
NsS'dataFileName'
p7
VC:\u005cDocuments and Settings\u005cExperimental user\u005cMy Documents\u005cconsciousness\u005cuncon_feat\u005cexperiment_scripts\u005cdata/jesica_Experiment_EEG_version_2019_jun_14_1227
p8
sS'runtimeInfo'
p9
NsS'name'
p10
VExperiment_EEG_version
p11
sS'dataNames'
p12
(lp13
S'image_onset_time'
p14
aS'response_window'
p15
aS'correctAns'
p16
aS'probe_onset'
p17
aS'discrim_resptime'
p18
aS'response.corr'
p19
aS'response.keys'
p20
aS'response.rt'
p21
aS'visible_resptime'
p22
aS'visible.keys'
p23
aS'visible.corr'
p24
aS'visible.rt'
p25
aS'probeFrames'
p26
aS'jitter2'
p27
asS'autoLog'
p28
I01
sS'extraInfo'
p29
(dp30
Vn_square
p31
V32
p32
sVexperiment_color
p33
Vbw
p34
sS'frameRate'
p35
cnumpy.core.multiarray
scalar
p36
(cnumpy
dtype
p37
(S'f8'
I0
I1
tRp38
(I3
S'<'
NNNI-1
I-1
I0
tbS'<\n\x99\xca\xf6\xf1X@'
tRp39
sS'date'
p40
V2019_jun_14_1227
p41
sVsession
p42
V011
p43
sVimage_size
p44
V256
p45
sVpremask_dur
p46
V20
p47
sVprobeFrames
p48
V5
sVparticipant
p49
Vjesica
p50
sS'expName'
p51
g11
sVpostmask_dur
p52
V20
p53
ssS'loopsUnfinished'
p54
(lp55
sS'saveWideText'
p56
I00
sS'thisEntry'
p57
(dp58
sS'version'
p59
S''
sS'_paramNamesSoFar'
p60
(lp61
S'category'
p62
aS'probe_path'
p63
aS'subcategory'
p64
aS'fixation_duration'
p65
aS'label'
p66
asS'entries'
p67
(lp68
(dp69
g31
g32
sg17
F3.7375074699521065
sg24
I0
sg35
g39
sg14
F3.7148600490763783
sg16
g36
(g37
(S'i4'
I0
I1
tRp70
(I3
S'<'
NNNI-1
I-1
I0
tbS'\x02\x00\x00\x00'
tRp71
sg42
g43
sg46
g47
sg15
S'nV_V'
p72
sg22
F5.5096695139072835
sg64
VBirds
p73
sg62
VLiving_Things
p74
sg49
g50
sS'trials.thisN'
p75
I0
sg19
I1
sg27
g36
(g38
S'\x00\x00\x00\x00\x00\x00\x1c@'
tRp76
sg52
g53
sg23
S'3'
sg18
F4.9975162474438548
sg33
g34
sg51
g11
sg20
S'2'
sg65
g36
(g37
(S'i8'
I0
I1
tRp77
(I3
S'<'
NNNI-1
I-1
I0
tbS'\x00\x00\x00\x00\x00\x00\x00\x00'
tRp78
sg44
g45
sg40
g41
sg25
F0.34096717275679111
sS'trials.thisIndex'
p79
g36
(g37
(S'i4'
I0
I1
tRp80
(I3
S'<'
NNNI-1
I-1
I0
tbS'\x1a\x00\x00\x00'
tRp81
sg26
V5
sS'trials.thisRepN'
p82
I0
sg66
Vduck
p83
sg63
V../experiment_stimuli/bw_bc_bl/Living_Things/Birds/duck_8.jpg
p84
sg21
F0.4812740171328187
sS'trials.thisTrialN'
p85
I0
sa(dp86
g31
g32
sg17
F7.5881212963722646
sg24
I1
sg35
g39
sg14
F7.5832351106218994
sg16
g36
(g70
S'\x02\x00\x00\x00'
tRp87
sg42
g43
sg46
g47
sg15
g72
sg22
F9.0972496154718101
sg64
VMarine_creatures
p88
sg62
g74
sg49
g50
sS'trials.thisN'
p89
I1
sg19
I0
sg27
g36
(g38
S'\x00\x00\x00\x00\x00\x00\x18@'
tRp90
sg52
g53
sg23
S'1'
sg18
F8.8258390026167035
sg33
g34
sg51
g11
sg20
S'1'
sg65
g36
(g77
S'\x00\x00\x00\x00\x00\x00\x00\x00'
tRp91
sg44
g45
sg40
g41
sg25
F0.22069578291848302
sS'trials.thisIndex'
p92
g36
(g80
S'P\x00\x00\x00'
tRp93
sg26
V5
sS'trials.thisRepN'
p94
I0
sg66
Vsperm-whale
p95
sg63
V../experiment_stimuli/bw_bc_bl/Living_Things/Marine_creatures/sperm-whale_20.jpg
p96
sg21
F0.25085098249837756
sS'trials.thisTrialN'
p97
I1
sa(dp98
g31
g32
sg17
F11.055628433823586
sg24
I1
sg35
g39
sg14
F11.050782653037459
sg16
g36
(g70
S'\x02\x00\x00\x00'
tRp99
sg42
g43
sg46
g47
sg15
S'V_nV'
p100
sg22
F12.614805080927908
sg64
VKitchen_Uten
p101
sg62
VNonliving_Things
p102
sg49
g50
sS'trials.thisN'
p103
I2
sg19
I0
sg27
g36
(g38
S'\x00\x00\x00\x00\x00\x00\x1e@'
tRp104
sg52
g53
sg23
S'1'
sg18
F12.303396382834762
sg33
g34
sg51
g11
sg20
S'1'
sg65
g36
(g77
S'\x00\x00\x00\x00\x00\x00\x00\x00'
tRp105
sg44
g45
sg40
g41
sg25
F0.2206916930153966
sS'trials.thisIndex'
p106
g36
(g80
S'M\x00\x00\x00'
tRp107
sg26
V5
sS'trials.thisRepN'
p108
I0
sg66
Vsmall-saucepan
p109
sg63
V../experiment_stimuli/bw_bc_bl/Nonliving_Things/Kitchen_Uten/small-saucepan_3.jpg
p110
sg21
F0.28083648905158043
sS'trials.thisTrialN'
p111
I2
sa(dp112
g31
g32
sg17
F14.573494500014931
sg24
I0
sg35
g39
sg14
F14.568421531002969
sg16
g36
(g70
S'\x01\x00\x00\x00'
tRp113
sg42
g43
sg46
g47
sg15
g100
sg22
F16.663600926753134
sg64
VAnimals
p114
sg62
g74
sg49
g50
sS'trials.thisN'
p115
I3
sg19
I1
sg27
g36
(g38
S'\x00\x00\x00\x00\x00\x00\x1a@'
tRp116
sg52
g53
sg23
S'2'
sg18
F15.831067173276097
sg33
g34
sg51
g11
sg20
S'1'
sg65
g36
(g77
S'\x00\x00\x00\x00\x00\x00\x00\x00'
tRp117
sg44
g45
sg40
g41
sg25
F0.18060971796512604
sS'trials.thisIndex'
p118
g36
(g80
S'_\x00\x00\x00'
tRp119
sg26
V5
sS'trials.thisRepN'
p120
I0
sg66
Vzebra
p121
sg63
V../experiment_stimuli/bw_bc_bl/Living_Things/Animals/zebra_15.jpg
p122
sg21
F0.81199762644246221
sS'trials.thisTrialN'
p123
I3
sa(dp124
g31
g32
sg17
F18.582891131751239
sg24
I0
sg35
g39
sg14
F18.577138826716691
sg16
g36
(g70
S'\x01\x00\x00\x00'
tRp125
sg42
g43
sg46
g47
sg15
g72
sg22
F21.915065015200526
sg64
VVehicles
p126
sg62
g102
sg49
g50
sS'trials.thisN'
p127
I4
sg19
I1
sg27
g36
(g38
S'\x00\x00\x00\x00\x00\x00\x1a@'
tRp128
sg52
g53
sg23
S'2'
sg18
F19.82976160524413
sg33
g34
sg51
g11
sg20
S'1'
sg65
g36
(g77
S'\x00\x00\x00\x00\x00\x00\x00\x00'
tRp129
sg44
g45
sg40
g41
sg25
F0.29085833812132478
sS'trials.thisIndex'
p130
g36
(g80
S'\t\x00\x00\x00'
tRp131
sg26
V5
sS'trials.thisRepN'
p132
I0
sg66
Vbus
p133
sg63
V../experiment_stimuli/bw_bc_bl/Nonliving_Things/Vehicles/bus_10.jpg
p134
sg21
F2.064721591770649
sS'trials.thisTrialN'
p135
I4
sa(dp136
g31
g32
sg17
F23.943623816594481
sg24
I1
sg35
g39
sg14
F23.938790407963097
sg16
g36
(g70
S'\x01\x00\x00\x00'
tRp137
sg42
g43
sg46
g47
sg15
g72
sg22
F29.010450935922563
sg64
g126
sg62
g102
sg49
g50
sS'trials.thisN'
p138
I5
sg19
I1
sg27
g36
(g38
S'\x00\x00\x00\x00\x00\x00\x18@'
tRp139
sg52
g53
sg23
S'1'
sg18
F25.181397852487862
sg33
g34
sg51
g11
sg20
S'1'
sg65
g36
(g77
S'\x00\x00\x00\x00\x00\x00\x00\x00'
tRp140
sg44
g45
sg40
g41
sg25
F0.20050247432664037
sS'trials.thisIndex'
p141
g36
(g80
S'\x07\x00\x00\x00'
tRp142
sg26
V5
sS'trials.thisRepN'
p143
I0
sg66
Vboat
p144
sg63
V../experiment_stimuli/bw_bc_bl/Nonliving_Things/Vehicles/boat_1.jpg
p145
sg21
F3.8085092646069825
sS'trials.thisTrialN'
p146
I5
sa(dp147
g31
g32
sg17
F30.949107758235186
sg24
I0
sg35
g39
sg14
F30.944020375609398
sg16
g36
(g70
S'\x01\x00\x00\x00'
tRp148
sg42
g43
sg46
g47
sg15
g72
sg22
F33.179526288527995
sg64
VMusical_Inst
p149
sg62
g102
sg49
g50
sS'trials.thisN'
p150
I6
sg19
I1
sg27
g36
(g38
S'\x00\x00\x00\x00\x00\x00\x18@'
tRp151
sg52
g53
sg23
S'3'
sg18
F32.216687465086579
sg33
g34
sg51
g11
sg20
S'1'
sg65
g36
(g77
S'\x00\x00\x00\x00\x00\x00\x00\x00'
tRp152
sg44
g45
sg40
g41
sg25
F0.23074111994355917
sS'trials.thisIndex'
p153
g36
(g80
S'Y\x00\x00\x00'
tRp154
sg26
V5
sS'trials.thisRepN'
p155
I0
sg66
Vtuba
p156
sg63
V../experiment_stimuli/bw_bc_bl/Nonliving_Things/Musical_Inst/tuba_2.jpg
p157
sg21
F0.9422705015167594
sS'trials.thisTrialN'
p158
I6
sa(dp159
g31
g32
sg17
F35.148077171761543
sg24
I1
sg35
g39
sg14
F35.143147929571569
sg16
g36
(g70
S'\x02\x00\x00\x00'
tRp160
sg42
g43
sg46
g47
sg15
g100
sg22
F37.258373643737286
sg64
g126
sg62
g102
sg49
g50
sS'trials.thisN'
p161
I7
sg19
I1
sg27
g36
(g38
S'\x00\x00\x00\x00\x00\x00\x18@'
tRp162
sg52
g53
sg23
S'1'
sg18
F36.395775204058737
sg33
g34
sg51
g11
sg20
S'2'
sg65
g36
(g77
S'\x00\x00\x00\x00\x00\x00\x00\x00'
tRp163
sg44
g45
sg40
g41
sg25
F0.56144582014530897
sS'trials.thisIndex'
p164
g36
(g80
S'\x0b\x00\x00\x00'
tRp165
sg26
V5
sS'trials.thisRepN'
p166
I0
sg66
Vcar
p167
sg63
V../experiment_stimuli/bw_bc_bl/Nonliving_Things/Vehicles/car_21.jpg
p168
sg21
F0.84205720713362098
sS'trials.thisTrialN'
p169
I7
sa(dp170
g31
g32
sg17
F39.558240981306881
sg24
I1
sg35
g39
sg14
F39.552734300028533
sg16
g36
(g70
S'\x01\x00\x00\x00'
tRp171
sg42
g43
sg46
g47
sg15
g72
sg22
F41.507623795885593
sg64
g126
sg62
g102
sg49
g50
sS'trials.thisN'
p172
I8
sg19
I1
sg27
g36
(g38
S'\x00\x00\x00\x00\x00\x00\x1c@'
tRp173
sg52
g53
sg23
S'1'
sg18
F40.815381780732423
sg33
g34
sg51
g11
sg20
S'1'
sg65
g36
(g77
S'\x00\x00\x00\x00\x00\x00\x00\x00'
tRp174
sg44
g45
sg40
g41
sg25
F0.1806102292612195
sS'trials.thisIndex'
p175
g36
(g80
S'V\x00\x00\x00'
tRp176
sg26
V5
sS'trials.thisRepN'
p177
I0
sg66
Vtractor
p178
sg63
V../experiment_stimuli/bw_bc_bl/Nonliving_Things/Vehicles/tractor_18.jpg
p179
sg21
F0.67168971104547381
sS'trials.thisTrialN'
p180
I8
sa(dp181
g31
g32
sg17
F43.426776825916022
sg24
I1
sg35
g39
sg14
F43.421184920705855
sg16
g36
(g70
S'\x02\x00\x00\x00'
tRp182
sg42
g43
sg46
g47
sg15
g100
sg22
F45.736871229950339
sg64
VBuildings
p183
sg62
g102
sg49
g50
sS'trials.thisN'
p184
I9
sg19
I0
sg27
g36
(g38
S'\x00\x00\x00\x00\x00\x00\x1a@'
tRp185
sg52
g53
sg23
S'1'
sg18
F44.693814660888165
sg33
g34
sg51
g11
sg20
S'1'
sg65
g36
(g77
S'\x00\x00\x00\x00\x00\x00\x00\x00'
tRp186
sg44
g45
sg40
g41
sg25
F0.20065525034442544
sS'trials.thisIndex'
p187
g36
(g80
S'\x1c\x00\x00\x00'
tRp188
sg26
V5
sS'trials.thisRepN'
p189
I0
sg66
Vfactory
p190
sg63
V../experiment_stimuli/bw_bc_bl/Nonliving_Things/Buildings/factory_26.jpg
p191
sg21
F1.0225087543949485
sS'trials.thisTrialN'
p192
I9
sa(dp193
g31
g32
sg17
F47.675199767574668
sg24
I0
sg35
g39
sg14
F47.670387490652502
sg16
g36
(g70
S'\x01\x00\x00\x00'
tRp194
sg42
g43
sg46
g47
sg15
g72
sg22
F49.675364922732115
sg64
g101
sg62
g102
sg49
g50
sS'trials.thisN'
p195
I10
sg19
I1
sg27
g36
(g38
S'\x00\x00\x00\x00\x00\x00\x18@'
tRp196
sg52
g53
sg23
S'3'
sg18
F48.973115209490061
sg33
g34
sg51
g11
sg20
S'1'
sg65
g36
(g77
S'\x00\x00\x00\x00\x00\x00\x00\x00'
tRp197
sg44
g45
sg40
g41
sg25
F0.2106789262033999
sS'trials.thisIndex'
p198
g36
(g80
S'\x16\x00\x00\x00'
tRp199
sg26
V5
sS'trials.thisRepN'
p200
I0
sg66
Vcup
p201
sg63
V../experiment_stimuli/bw_bc_bl/Nonliving_Things/Kitchen_Uten/cup_15.jpg
p202
sg21
F0.68170636845752597
sS'trials.thisTrialN'
p203
I10
sa(dp204
g31
g32
sg17
F51.623999102041125
sg24
I0
sg35
g39
sg14
F51.618988391477615
sg16
g36
(g70
S'\x01\x00\x00\x00'
tRp205
sg42
g43
sg46
g47
sg15
g100
sg22
F53.553834121208638
sg64
g114
sg62
g74
sg49
g50
sS'trials.thisN'
p206
I11
sg19
I0
sg27
g36
(g38
S'\x00\x00\x00\x00\x00\x00\x1a@'
tRp207
sg52
g53
sg23
S'3'
sg18
F52.89163493970409
sg33
g34
sg51
g11
sg20
S'2'
sg65
g36
(g77
S'\x00\x00\x00\x00\x00\x00\x00\x00'
tRp208
sg44
g45
sg40
g41
sg25
F0.26078357687219977
sS'trials.thisIndex'
p209
g36
(g80
S'\x14\x00\x00\x00'
tRp210
sg26
V5
sS'trials.thisRepN'
p211
I0
sg66
Vcow
p212
sg63
V../experiment_stimuli/bw_bc_bl/Living_Things/Animals/cow_22.jpg
p213
sg21
F0.6416427087970078
sS'trials.thisTrialN'
p214
I11
sa(dp215
g31
g32
sg17
F55.552373541053385
sg24
I1
sg35
g39
sg14
F55.547511865850538
sg16
g36
(g70
S'\x01\x00\x00\x00'
tRp216
sg42
g43
sg46
g47
sg15
g72
sg22
F58.083681032992899
sg64
VFurniture
p217
sg62
g102
sg49
g50
sS'trials.thisN'
p218
I12
sg19
I1
sg27
g36
(g38
S'\x00\x00\x00\x00\x00\x00\x18@'
tRp219
sg52
g53
sg23
S'1'
sg18
F56.80013314448297
sg33
g34
sg51
g11
sg20
S'1'
sg65
g36
(g77
S'\x00\x00\x00\x00\x00\x00\x00\x00'
tRp220
sg44
g45
sg40
g41
sg25
F0.23071807529777288
sS'trials.thisIndex'
p221
g36
(g80
S'Q\x00\x00\x00'
tRp222
sg26
V5
sS'trials.thisRepN'
p223
I0
sg66
Vtable
p224
sg63
V../experiment_stimuli/bw_bc_bl/Nonliving_Things/Furniture/table_3.jpg
p225
sg21
F1.2529687439091504
sS'trials.thisTrialN'
p226
I12
sa(dp227
g31
g32
sg17
F60.052360519301146
sg24
I1
sg35
g39
sg14
F60.047300392296165
sg16
g36
(g70
S'\x01\x00\x00\x00'
tRp228
sg42
g43
sg46
g47
sg15
g72
sg22
F61.861859232187271
sg64
g149
sg62
g102
sg49
g50
sS'trials.thisN'
p229
I13
sg19
I1
sg27
g36
(g38
S'\x00\x00\x00\x00\x00\x00\x1e@'
tRp230
sg52
g53
sg23
S'1'
sg18
F61.309936286881566
sg33
g34
sg51
g11
sg20
S'1'
sg65
g36
(g77
S'\x00\x00\x00\x00\x00\x00\x00\x00'
tRp231
sg44
g45
sg40
g41
sg25
F0.20065297232940793
sS'trials.thisIndex'
p232
g36
(g80
S'H\x00\x00\x00'
tRp233
sg26
V5
sS'trials.thisRepN'
p234
I0
sg66
Vsaxophone
p235
sg63
V../experiment_stimuli/bw_bc_bl/Nonliving_Things/Musical_Inst/saxophone_24.jpg
p236
sg21
F0.53137832973152399
sS'trials.thisTrialN'
p237
I13
sa(dp238
g31
g32
sg17
F63.800419611856341
sg24
I0
sg35
g39
sg14
F63.795441010035574
sg16
g36
(g70
S'\x02\x00\x00\x00'
tRp239
sg42
g43
sg46
g47
sg15
g100
sg22
F65.930744109675288
sg64
g217
sg62
g102
sg49
g50
sS'trials.thisN'
p240
I14
sg19
I1
sg27
g36
(g38
S'\x00\x00\x00\x00\x00\x00\x1a@'
tRp241
sg52
g53
sg23
S'2'
sg18
F65.078140609897673
sg33
g34
sg51
g11
sg20
S'2'
sg65
g36
(g77
S'\x00\x00\x00\x00\x00\x00\x00\x00'
tRp242
sg44
g45
sg40
g41
sg25
F0.23073173314332962
sS'trials.thisIndex'
p243
g36
(g80
S'N\x00\x00\x00'
tRp244
sg26
V5
sS'trials.thisRepN'
p245
I0
sg66
Vsofa
p246
sg63
V../experiment_stimuli/bw_bc_bl/Nonliving_Things/Furniture/sofa_11.jpg
p247
sg21
F0.83203934691846371
sS'trials.thisTrialN'
p248
I14
sa(dp249
g31
g32
sg17
F67.899495700374246
sg24
I1
sg35
g39
sg14
F67.89435003651306
sg16
g36
(g70
S'\x02\x00\x00\x00'
tRp250
sg42
g43
sg46
g47
sg15
g100
sg22
F71.492821083869785
sg64
g101
sg62
g102
sg49
g50
sS'trials.thisN'
p251
I15
sg19
I1
sg27
g36
(g38
S'\x00\x00\x00\x00\x00\x00\x18@'
tRp252
sg52
g53
sg23
S'1'
sg18
F69.167021358851343
sg33
g34
sg51
g11
sg20
S'2'
sg65
g36
(g77
S'\x00\x00\x00\x00\x00\x00\x00\x00'
tRp253
sg44
g45
sg40
g41
sg25
F0.18060746975243092
sS'trials.thisIndex'
p254
g36
(g80
S'B\x00\x00\x00'
tRp255
sg26
V5
sS'trials.thisRepN'
p256
I0
sg66
Vpot
p257
sg63
V../experiment_stimuli/bw_bc_bl/Nonliving_Things/Kitchen_Uten/pot_9.jpg
p258
sg21
F2.3052314254455268
sS'trials.thisTrialN'
p259
I15
sa(dp260
g31
g32
sg17
F73.411198324523866
sg24
I1
sg35
g39
sg14
F73.406337179243565
sg16
g36
(g70
S'\x02\x00\x00\x00'
tRp261
sg42
g43
sg46
g47
sg15
g72
sg22
F76.253163209185004
sg64
g73
sg62
g74
sg49
g50
sS'trials.thisN'
p262
I16
sg19
I1
sg27
g36
(g38
S'\x00\x00\x00\x00\x00\x00\x18@'
tRp263
sg52
g53
sg23
S'1'
sg18
F74.70907040592283
sg33
g34
sg51
g11
sg20
S'2'
sg65
g36
(g77
S'\x00\x00\x00\x00\x00\x00\x00\x00'
tRp264
sg44
g45
sg40
g41
sg25
F0.39106816612184048
sS'trials.thisIndex'
p265
g36
(g80
S'U\x00\x00\x00'
tRp266
sg26
V5
sS'trials.thisRepN'
p267
I0
sg66
Vtoucan
p268
sg63
V../experiment_stimuli/bw_bc_bl/Living_Things/Birds/toucan_16.jpg
p269
sg21
F1.5235422630794346
sS'trials.thisTrialN'
p270
I16
sa(dp271
g31
g32
sg17
F78.382061093114316
sg24
I0
sg35
g39
sg14
F78.377148576080799
sg16
g36
(g70
S'\x02\x00\x00\x00'
tRp272
sg42
g43
sg46
g47
sg15
g100
sg22
F80.863181002438068
sg64
g101
sg62
g102
sg49
g50
sS'trials.thisN'
p273
I17
sg19
I0
sg27
g36
(g38
S'\x00\x00\x00\x00\x00\x00\x1e@'
tRp274
sg52
g53
sg23
S'3'
sg18
F79.699917831458151
sg33
g34
sg51
g11
sg20
S'1'
sg65
g36
(g77
S'\x00\x00\x00\x00\x00\x00\x00\x00'
tRp275
sg44
g45
sg40
g41
sg25
F0.43215557001531124
sS'trials.thisIndex'
p276
g36
(g80
S'\x1e\x00\x00\x00'
tRp277
sg26
V5
sS'trials.thisRepN'
p278
I0
sg66
Vfondue
p279
sg63
V../experiment_stimuli/bw_bc_bl/Nonliving_Things/Kitchen_Uten/fondue_14.jpg
p280
sg21
F1.1427077287808061
sS'trials.thisTrialN'
p281
I17
sa(dp282
g31
g32
sg17
F83.032203093636781
sg24
I1
sg35
g39
sg14
F83.027249088976532
sg16
g36
(g70
S'\x02\x00\x00\x00'
tRp283
sg42
g43
sg46
g47
sg15
g100
sg22
F85.974310405086726
sg64
g126
sg62
g102
sg49
g50
sS'trials.thisN'
p284
I18
sg19
I0
sg27
g36
(g38
S'\x00\x00\x00\x00\x00\x00\x18@'
tRp285
sg52
g53
sg23
S'1'
sg18
F84.329987878911197
sg33
g34
sg51
g11
sg20
S'1'
sg65
g36
(g77
S'\x00\x00\x00\x00\x00\x00\x00\x00'
tRp286
sg44
g45
sg40
g41
sg25
F0.26078164111822844
sS'trials.thisIndex'
p287
g36
(g80
S'L\x00\x00\x00'
tRp288
sg26
V5
sS'trials.thisRepN'
p289
I0
sg66
Vship
p290
sg63
V../experiment_stimuli/bw_bc_bl/Nonliving_Things/Vehicles/ship_11.jpg
p291
sg21
F1.6237723766826093
sS'trials.thisTrialN'
p292
I18
sa(dp293
g31
g32
sg17
F87.973677350673825
sg24
I0
sg35
g39
sg14
F87.967990630771965
sg16
g36
(g70
S'\x02\x00\x00\x00'
tRp294
sg42
g43
sg46
g47
sg15
g100
sg22
F92.097610089927912
sg64
g217
sg62
g102
sg49
g50
sS'trials.thisN'
p295
I19
sg19
I1
sg27
g36
(g38
S'\x00\x00\x00\x00\x00\x00\x18@'
tRp296
sg52
g53
sg23
S'3'
sg18
F89.300792783498764
sg33
g34
sg51
g11
sg20
S'2'
sg65
g36
(g77
S'\x00\x00\x00\x00\x00\x00\x00\x00'
tRp297
sg44
g45
sg40
g41
sg25
F0.76187995355576277
sS'trials.thisIndex'
p298
g36
(g80
S'/\x00\x00\x00'
tRp299
sg26
V5
sS'trials.thisRepN'
p300
I0
sg66
Vlectern
p301
sg63
V../experiment_stimuli/bw_bc_bl/Nonliving_Things/Furniture/lectern_7.jpg
p302
sg21
F2.7662534918636084
sS'trials.thisTrialN'
p303
I19
sa(dp304
g31
g32
sg17
F94.598700530361384
sg24
I0
sg35
g39
sg14
F94.592390210367739
sg16
g36
(g70
S'\x02\x00\x00\x00'
tRp305
sg42
g43
sg46
g47
sg15
g100
sg22
F96.988234488293529
sg64
g183
sg62
g102
sg49
g50
sS'trials.thisN'
p306
I20
sg19
I1
sg27
g36
(g38
S'\x00\x00\x00\x00\x00\x00 @'
tRp307
sg52
g53
sg23
S'2'
sg18
F95.895124508067966
sg33
g34
sg51
g11
sg20
S'2'
sg65
g36
(g77
S'\x00\x00\x00\x00\x00\x00\x00\x00'
tRp308
sg44
g45
sg40
g41
sg25
F1.4633993804454803
sS'trials.thisIndex'
p309
g36
(g80
S'\x0e\x00\x00\x00'
tRp310
sg26
V5
sS'trials.thisRepN'
p311
I0
sg66
Vcathedral
p312
sg63
V../experiment_stimuli/bw_bc_bl/Nonliving_Things/Buildings/cathedral_11.jpg
p313
sg21
F1.0725567145273089
sS'trials.thisTrialN'
p314
I20
sa(dp315
g31
g32
sg17
F100.19032472418621
sg24
I0
sg35
g39
sg14
F100.18458010675386
sg16
g36
(g70
S'\x01\x00\x00\x00'
tRp316
sg42
g43
sg46
g47
sg15
g100
sg22
F102.32986653689295
sg64
g73
sg62
g74
sg49
g50
sS'trials.thisN'
p317
I21
sg19
I1
sg27
g36
(g38
S'\x00\x00\x00\x00\x00\x00\x18@'
tRp318
sg52
g53
sg23
S'3'
sg18
F101.47726867627352
sg33
g34
sg51
g11
sg20
S'1'
sg65
g36
(g77
S'\x00\x00\x00\x00\x00\x00\x00\x00'
tRp319
sg44
g45
sg40
g41
sg25
F2.5457718190737069
sS'trials.thisIndex'
p320
g36
(g80
S'"\x00\x00\x00'
tRp321
sg26
V5
sS'trials.thisRepN'
p322
I0
sg66
Vgoose
p323
sg63
V../experiment_stimuli/bw_bc_bl/Living_Things/Birds/goose_17.jpg
p324
sg21
F0.83204247476533055
sS'trials.thisTrialN'
p325
I21
sa(dp326
g31
g32
sg17
F106.61345904320478
sg24
I1
sg35
g39
sg14
F106.60851805377752
sg16
g36
(g70
S'\x01\x00\x00\x00'
tRp327
sg42
g43
sg46
g47
sg15
g72
sg22
F110.86840641405433
sg64
VTools
p328
sg62
g102
sg49
g50
sS'trials.thisN'
p329
I22
sg19
I1
sg27
g36
(g38
S'\x00\x00\x00\x00\x00\x00\x1e@'
tRp330
sg52
g53
sg23
S'1'
sg18
F107.87116837268695
sg33
g34
sg51
g11
sg20
S'1'
sg65
g36
(g77
S'\x00\x00\x00\x00\x00\x00\x00\x00'
tRp331
sg44
g45
sg40
g41
sg25
F0.23072357941418886
sS'trials.thisIndex'
p332
g36
(g80
S'%\x00\x00\x00'
tRp333
sg26
V5
sS'trials.thisRepN'
p334
I0
sg66
Vhammer
p335
sg63
V../experiment_stimuli/bw_bc_bl/Nonliving_Things/Tools/hammer_15.jpg
p336
sg21
F2.9766974896192551
sS'trials.thisTrialN'
p337
I22
sa(dp338
g31
g32
sg17
F112.83855874743313
sg24
I1
sg35
g39
sg14
F112.83204508852214
sg16
g36
(g70
S'\x02\x00\x00\x00'
tRp339
sg42
g43
sg46
g47
sg15
g72
sg22
F114.66652480093762
sg64
g73
sg62
g74
sg49
g50
sS'trials.thisN'
p340
I23
sg19
I1
sg27
g36
(g38
S'\x00\x00\x00\x00\x00\x00\x18@'
tRp341
sg52
g53
sg23
S'1'
sg18
F114.10472309868783
sg33
g34
sg51
g11
sg20
S'2'
sg65
g36
(g77
S'\x00\x00\x00\x00\x00\x00\x00\x00'
tRp342
sg44
g45
sg40
g41
sg25
F0.2407477512024343
sS'trials.thisIndex'
p343
g36
(g80
S'\x04\x00\x00\x00'
tRp344
sg26
V5
sS'trials.thisRepN'
p345
I0
sg66
Vbarn-owl
p346
sg63
V../experiment_stimuli/bw_bc_bl/Living_Things/Birds/barn-owl_16.jpg
p347
sg21
F0.54123269952833652
sS'trials.thisTrialN'
p348
I23
sa(dp349
g31
g32
sg17
F116.64530869899318
sg24
I0
sg35
g39
sg14
F116.64033070625737
sg16
g36
(g70
S'\x02\x00\x00\x00'
tRp350
sg42
g43
sg46
g47
sg15
g100
sg22
F119.00615295162424
sg64
g183
sg62
g102
sg49
g50
sS'trials.thisN'
p351
I24
sg19
I1
sg27
g36
(g38
S'\x00\x00\x00\x00\x00\x00\x18@'
tRp352
sg52
g53
sg23
S'2'
sg18
F117.94306430080906
sg33
g34
sg51
g11
sg20
S'2'
sg65
g36
(g77
S'\x00\x00\x00\x00\x00\x00\x00\x00'
tRp353
sg44
g45
sg40
g41
sg25
F0.56144406832754612
sS'trials.thisIndex'
p354
g36
(g80
S')\x00\x00\x00'
tRp355
sg26
V5
sS'trials.thisRepN'
p356
I0
sg66
Vhouse
p357
sg63
V../experiment_stimuli/bw_bc_bl/Nonliving_Things/Buildings/house_2.jpg
p358
sg21
F1.0425105658359826
sS'trials.thisTrialN'
p359
I24
sa(dp360
g31
g32
sg17
F121.30666195647791
sg24
I1
sg35
g39
sg14
F121.30046283826232
sg16
g36
(g70
S'\x02\x00\x00\x00'
tRp361
sg42
g43
sg46
g47
sg15
g72
sg22
F134.93074789829552
sg64
g114
sg62
g74
sg49
g50
sS'trials.thisN'
p362
I25
sg19
I0
sg27
g36
(g38
S'\x00\x00\x00\x00\x00\x00\x18@'
tRp363
sg52
g53
sg23
S'1'
sg18
F122.59317182423547
sg33
g34
sg51
g11
sg20
S'1'
sg65
g36
(g77
S'\x00\x00\x00\x00\x00\x00\x00\x00'
tRp364
sg44
g45
sg40
g41
sg25
F0.21067153941839933
sS'trials.thisIndex'
p365
g36
(g80
S'\x10\x00\x00\x00'
tRp366
sg26
V5
sS'trials.thisRepN'
p367
I0
sg66
Vcheetah
p368
sg63
V../experiment_stimuli/bw_bc_bl/Living_Things/Animals/cheetah_8.jpg
p369
sg21
F12.316997970454395
sS'trials.thisTrialN'
p370
I25
sa(dp371
g31
g32
sg17
F136.88024934008718
sg24
I0
sg35
g39
sg14
F136.87431650748476
sg16
g36
(g70
S'\x01\x00\x00\x00'
tRp372
sg42
g43
sg46
g47
sg15
g72
sg22
F138.73902114760131
sg64
g183
sg62
g102
sg49
g50
sS'trials.thisN'
p373
I26
sg19
I1
sg27
g36
(g38
S'\x00\x00\x00\x00\x00\x00\x1a@'
tRp374
sg52
g53
sg23
S'3'
sg18
F138.18707309756428
sg33
g34
sg51
g11
sg20
S'1'
sg65
g36
(g77
S'\x00\x00\x00\x00\x00\x00\x00\x00'
tRp375
sg44
g45
sg40
g41
sg25
F0.28085213573649526
sS'trials.thisIndex'
p376
g36
(g80
S'5\x00\x00\x00'
tRp377
sg26
V5
sS'trials.thisRepN'
p378
I0
sg66
Vmill
p379
sg63
V../experiment_stimuli/bw_bc_bl/Nonliving_Things/Buildings/mill_17.jpg
p380
sg21
F0.52135904133319855
sS'trials.thisTrialN'
p381
I26
sa(dp382
g31
g32
sg17
F140.7578403824009
sg24
I0
sg35
g39
sg14
F140.75275190966204
sg16
g36
(g70
S'\x02\x00\x00\x00'
tRp383
sg42
g43
sg46
g47
sg15
g100
sg22
F142.81787673244253
sg64
g101
sg62
g102
sg49
g50
sS'trials.thisN'
p384
I27
sg19
I1
sg27
g36
(g38
S'\x00\x00\x00\x00\x00\x00\x18@'
tRp385
sg52
g53
sg23
S'2'
sg18
F142.04547329805791
sg33
g34
sg51
g11
sg20
S'2'
sg65
g36
(g77
S'\x00\x00\x00\x00\x00\x00\x00\x00'
tRp386
sg44
g45
sg40
g41
sg25
F1.182796417735517
sS'trials.thisIndex'
p387
g36
(g80
S'\x12\x00\x00\x00'
tRp388
sg26
V5
sS'trials.thisRepN'
p389
I0
sg66
Vcoking-pot
p390
sg63
V../experiment_stimuli/bw_bc_bl/Nonliving_Things/Kitchen_Uten/coking-pot_21.jpg
p391
sg21
F0.75185701064765453
sS'trials.thisTrialN'
p392
I27
sa(dp393
g31
g32
sg17
F145.73856440419331
sg24
I0
sg35
g39
sg14
F145.73358709178865
sg16
g36
(g70
S'\x01\x00\x00\x00'
tRp394
sg42
g43
sg46
g47
sg15
g100
sg22
F148.83093927009031
sg64
g114
sg62
g74
sg49
g50
sS'trials.thisN'
p395
I28
sg19
I1
sg27
g36
(g38
S'\x00\x00\x00\x00\x00\x00\x1a@'
tRp396
sg52
g53
sg23
S'2'
sg18
F147.01626836834475
sg33
g34
sg51
g11
sg20
S'1'
sg65
g36
(g77
S'\x00\x00\x00\x00\x00\x00\x00\x00'
tRp397
sg44
g45
sg40
g41
sg25
F1.2930363579653203
sS'trials.thisIndex'
p398
g36
(g80
S'\x01\x00\x00\x00'
tRp399
sg26
V5
sS'trials.thisRepN'
p400
I0
sg66
Varmadillo
p401
sg63
V../experiment_stimuli/bw_bc_bl/Living_Things/Animals/armadillo_5.jpg
p402
sg21
F1.7941308203153312
sS'trials.thisTrialN'
p403
I28
sa(dp404
g31
g32
sg17
F151.86266559641808
sg24
I0
sg35
g39
sg14
F151.85689762188122
sg16
g36
(g70
S'\x02\x00\x00\x00'
tRp405
sg42
g43
sg46
g47
sg15
g100
sg22
F158.58214865950868
sg64
g149
sg62
g102
sg49
g50
sS'trials.thisN'
p406
I29
sg19
I1
sg27
g36
(g38
S'\x00\x00\x00\x00\x00\x00\x18@'
tRp407
sg52
g53
sg23
S'2'
sg18
F153.12956016277894
sg33
g34
sg51
g11
sg20
S'2'
sg65
g36
(g77
S'\x00\x00\x00\x00\x00\x00\x00\x00'
tRp408
sg44
g45
sg40
g41
sg25
F0.37103085173293948
sS'trials.thisIndex'
p409
g36
(g80
S'\x19\x00\x00\x00'
tRp410
sg26
V5
sS'trials.thisRepN'
p411
I0
sg66
Vdrum
p412
sg63
V../experiment_stimuli/bw_bc_bl/Nonliving_Things/Musical_Inst/drum_15.jpg
p413
sg21
F5.4320385437458754
sS'trials.thisTrialN'
p414
I29
sa(dp415
g31
g32
sg17
F160.69279775954783
sg24
I0
sg35
g39
sg14
F160.68608716316521
sg16
g36
(g70
S'\x02\x00\x00\x00'
tRp416
sg42
g43
sg46
g47
sg15
g100
sg22
F162.46058064093813
sg64
g183
sg62
g102
sg49
g50
sS'trials.thisN'
p417
I30
sg19
I1
sg27
g36
(g38
S'\x00\x00\x00\x00\x00\x00\x1e@'
tRp418
sg52
g53
sg23
S'2'
sg18
F161.94873357657343
sg33
g34
sg51
g11
sg20
S'2'
sg65
g36
(g77
S'\x00\x00\x00\x00\x00\x00\x00\x00'
tRp419
sg44
g45
sg40
g41
sg25
F0.24074641289189458
sS'trials.thisIndex'
p420
g36
(g80
S'\x0c\x00\x00\x00'
tRp421
sg26
V5
sS'trials.thisRepN'
p422
I0
sg66
Vcastle
p423
sg63
V../experiment_stimuli/bw_bc_bl/Nonliving_Things/Buildings/castle_2.jpg
p424
sg21
F0.49129775306209922
sS'trials.thisTrialN'
p425
I30
sa(dp426
g31
g32
sg17
F164.43910444527864
sg24
I0
sg35
g39
sg14
F164.4342335332185
sg16
g36
(g70
S'\x02\x00\x00\x00'
tRp427
sg42
g43
sg46
g47
sg15
g72
sg22
F169.05493765464053
sg64
g114
sg62
g74
sg49
g50
sS'trials.thisN'
p428
I31
sg19
I1
sg27
g36
(g38
S'\x00\x00\x00\x00\x00\x00\x1c@'
tRp429
sg52
g53
sg23
S'3'
sg18
F165.6868620258756
sg33
g34
sg51
g11
sg20
S'2'
sg65
g36
(g77
S'\x00\x00\x00\x00\x00\x00\x00\x00'
tRp430
sg44
g45
sg40
g41
sg25
F0.72179323807358742
sS'trials.thisIndex'
p431
g36
(g80
S'\x1b\x00\x00\x00'
tRp432
sg26
V5
sS'trials.thisRepN'
p433
I0
sg66
Velephant
p434
sg63
V../experiment_stimuli/bw_bc_bl/Living_Things/Animals/elephant_25.jpg
p435
sg21
F3.347522655967623
sS'trials.thisTrialN'
p436
I31
sa(dp437
g31
g32
sg17
F171.51470102136955
sg24
I1
sg35
g39
sg14
F171.50962278945372
sg16
g36
(g70
S'\x02\x00\x00\x00'
tRp438
sg42
g43
sg46
g47
sg15
g100
sg22
F173.41441065631807
sg64
g126
sg62
g102
sg49
g50
sS'trials.thisN'
p439
I32
sg19
I0
sg27
g36
(g38
S'\x00\x00\x00\x00\x00\x00 @'
tRp440
sg52
g53
sg23
S'1'
sg18
F172.74220676440746
sg33
g34
sg51
g11
sg20
S'1'
sg65
g36
(g77
S'\x00\x00\x00\x00\x00\x00\x00\x00'
tRp441
sg44
g45
sg40
g41
sg25
F0.30087503651157022
sS'trials.thisIndex'
p442
g36
(g80
S'[\x00\x00\x00'
tRp443
sg26
V5
sS'trials.thisRepN'
p444
I0
sg66
Vvan
p445
sg63
V../experiment_stimuli/bw_bc_bl/Nonliving_Things/Vehicles/van_9.jpg
p446
sg21
F0.65163967898115516
sS'trials.thisTrialN'
p447
I32
sa(dp448
g31
g32
sg17
F175.45484997611493
sg24
I0
sg35
g39
sg14
F175.4481825218536
sg16
g36
(g70
S'\x02\x00\x00\x00'
tRp449
sg42
g43
sg46
g47
sg15
g100
sg22
F177.58349186601117
sg64
g149
sg62
g102
sg49
g50
sS'trials.thisN'
p450
I33
sg19
I0
sg27
g36
(g38
S'\x00\x00\x00\x00\x00\x00\x1a@'
tRp451
sg52
g53
sg23
S'2'
sg18
F176.71083417208865
sg33
g34
sg51
g11
sg20
S'1'
sg65
g36
(g77
S'\x00\x00\x00\x00\x00\x00\x00\x00'
tRp452
sg44
g45
sg40
g41
sg25
F0.63160244002938271
sS'trials.thisIndex'
p453
g36
(g80
S'>\x00\x00\x00'
tRp454
sg26
V5
sS'trials.thisRepN'
p455
I0
sg66
Vpiano
p456
sg63
V../experiment_stimuli/bw_bc_bl/Nonliving_Things/Musical_Inst/piano__4.jpg
p457
sg21
F0.85209745494648814
sS'trials.thisTrialN'
p458
I33
sa(dp459
g31
g32
sg17
F179.95288569619879
sg24
I1
sg35
g39
sg14
F179.94796408247203
sg16
g36
(g70
S'\x02\x00\x00\x00'
tRp460
sg42
g43
sg46
g47
sg15
g72
sg22
F181.5220197988674
sg64
g114
sg62
g74
sg49
g50
sS'trials.thisN'
p461
I34
sg19
I0
sg27
g36
(g38
S'\x00\x00\x00\x00\x00\x00\x1a@'
tRp462
sg52
g53
sg23
S'1'
sg18
F181.20058945473284
sg33
g34
sg51
g11
sg20
S'1'
sg65
g36
(g77
S'\x00\x00\x00\x00\x00\x00\x00\x00'
tRp463
sg44
g45
sg40
g41
sg25
F0.18062012363225222
sS'trials.thisIndex'
p464
g36
(g80
S'(\x00\x00\x00'
tRp465
sg26
V5
sS'trials.thisRepN'
p466
I0
sg66
Vhorse
p467
sg63
V../experiment_stimuli/bw_bc_bl/Living_Things/Animals/horse_10.jpg
p468
sg21
F0.30088001070544124
sS'trials.thisTrialN'
p469
I34
sa(dp470
g31
g32
sg17
F183.44055025558919
sg24
I0
sg35
g39
sg14
F183.43554768711329
sg16
g36
(g70
S'\x02\x00\x00\x00'
tRp471
sg42
g43
sg46
g47
sg15
g100
sg22
F185.42064988147467
sg64
g217
sg62
g102
sg49
g50
sS'trials.thisN'
p472
I35
sg19
I1
sg27
g36
(g38
S'\x00\x00\x00\x00\x00\x00\x1c@'
tRp473
sg52
g53
sg23
S'3'
sg18
F184.71823845244944
sg33
g34
sg51
g11
sg20
S'2'
sg65
g36
(g77
S'\x00\x00\x00\x00\x00\x00\x00\x00'
tRp474
sg44
g45
sg40
g41
sg25
F0.25076089007779956
sS'trials.thisIndex'
p475
g36
(g80
S'.\x00\x00\x00'
tRp476
sg26
V5
sS'trials.thisRepN'
p477
I0
sg66
Vlamp
p478
sg63
V../experiment_stimuli/bw_bc_bl/Nonliving_Things/Furniture/lamp_11.jpg
p479
sg21
F0.68185229506343603
sS'trials.thisTrialN'
p480
I35
sa(dp481
g31
g32
sg17
F187.41040149144828
sg24
I1
sg35
g39
sg14
F187.40417734300718
sg16
g36
(g70
S'\x02\x00\x00\x00'
tRp482
sg42
g43
sg46
g47
sg15
g72
sg22
F191.55386593565345
sg64
g114
sg62
g74
sg49
g50
sS'trials.thisN'
p483
I36
sg19
I0
sg27
g36
(g38
S'\x00\x00\x00\x00\x00\x00\x18@'
tRp484
sg52
g53
sg23
S'1'
sg18
F188.65680350875482
sg33
g34
sg51
g11
sg20
S'1'
sg65
g36
(g77
S'\x00\x00\x00\x00\x00\x00\x00\x00'
tRp485
sg44
g45
sg40
g41
sg25
F0.23071946995332837
sS'trials.thisIndex'
p486
g36
(g80
S'2\x00\x00\x00'
tRp487
sg26
V5
sS'trials.thisRepN'
p488
I0
sg66
Vlynx
p489
sg63
V../experiment_stimuli/bw_bc_bl/Living_Things/Animals/lynx_22.jpg
p490
sg21
F2.8765004621818662
sS'trials.thisTrialN'
p491
I36
sa(dp492
g31
g32
sg17
F193.52247868617997
sg24
I0
sg35
g39
sg14
F193.51746812229976
sg16
g36
(g70
S'\x02\x00\x00\x00'
tRp493
sg42
g43
sg46
g47
sg15
g100
sg22
F198.03795905131847
sg64
g126
sg62
g102
sg49
g50
sS'trials.thisN'
p494
I37
sg19
I1
sg27
g36
(g38
S'\x00\x00\x00\x00\x00\x00\x1a@'
tRp495
sg52
g53
sg23
S'3'
sg18
F194.7901493916288
sg33
g34
sg51
g11
sg20
S'2'
sg65
g36
(g77
S'\x00\x00\x00\x00\x00\x00\x00\x00'
tRp496
sg44
g45
sg40
g41
sg25
F0.30087493173778057
sS'trials.thisIndex'
p497
g36
(g80
S'@\x00\x00\x00'
tRp498
sg26
V5
sS'trials.thisRepN'
p499
I0
sg66
Vplane
p500
sg63
V../experiment_stimuli/bw_bc_bl/Nonliving_Things/Vehicles/plane_7.jpg
p501
sg21
F3.2263179821893573
sS'trials.thisTrialN'
p502
I37
sa(dp503
g31
g32
sg17
F200.07687501655892
sg24
I1
sg35
g39
sg14
F200.07171518402174
sg16
g36
(g70
S'\x02\x00\x00\x00'
tRp504
sg42
g43
sg46
g47
sg15
g72
sg22
F202.46757028531283
sg64
g73
sg62
g74
sg49
g50
sS'trials.thisN'
p505
I38
sg19
I0
sg27
g36
(g38
S'\x00\x00\x00\x00\x00\x00\x1e@'
tRp506
sg52
g53
sg23
S'1'
sg18
F201.32434131624177
sg33
g34
sg51
g11
sg20
S'1'
sg65
g36
(g77
S'\x00\x00\x00\x00\x00\x00\x00\x00'
tRp507
sg44
g45
sg40
g41
sg25
F0.23072300059720874
sS'trials.thisIndex'
p508
g36
(g80
S',\x00\x00\x00'
tRp509
sg26
V5
sS'trials.thisRepN'
p510
I0
sg66
Vkiwi
p511
sg63
V../experiment_stimuli/bw_bc_bl/Living_Things/Birds/kiwi_22.jpg
p512
sg21
F1.1226686886511743
sS'trials.thisTrialN'
p513
I38
sa(dp514
g31
g32
sg17
F204.43619863362983
sg24
I0
sg35
g39
sg14
F204.43120277952403
sg16
g36
(g70
S'\x02\x00\x00\x00'
tRp515
sg42
g43
sg46
g47
sg15
g72
sg22
F206.54644952015951
sg64
g73
sg62
g74
sg49
g50
sS'trials.thisN'
p516
I39
sg19
I1
sg27
g36
(g38
S'\x00\x00\x00\x00\x00\x00\x1a@'
tRp517
sg52
g53
sg23
S'2'
sg18
F205.70386145170778
sg33
g34
sg51
g11
sg20
S'2'
sg65
g36
(g77
S'\x00\x00\x00\x00\x00\x00\x00\x00'
tRp518
sg44
g45
sg40
g41
sg25
F1.1727763772942126
sS'trials.thisIndex'
p519
g36
(g80
S'<\x00\x00\x00'
tRp520
sg26
V5
sS'trials.thisRepN'
p521
I0
sg66
Vpelican
p522
sg63
V../experiment_stimuli/bw_bc_bl/Living_Things/Birds/pelican_2.jpg
p523
sg21
F0.82203764049336314
sS'trials.thisTrialN'
p524
I39
sa(dp525
g31
g32
sg17
F209.45909043494612
sg24
I0
sg35
g39
sg14
F209.45211397437379
sg16
g36
(g70
S'\x01\x00\x00\x00'
tRp526
sg42
g43
sg46
g47
sg15
g100
sg22
F211.25665916781873
sg64
VInsects
p527
sg62
g74
sg49
g50
sS'trials.thisN'
p528
I40
sg19
I1
sg27
g36
(g38
S'\x00\x00\x00\x00\x00\x00\x18@'
tRp529
sg52
g53
sg23
S'3'
sg18
F210.71475944342092
sg33
g34
sg51
g11
sg20
S'1'
sg65
g36
(g77
S'\x00\x00\x00\x00\x00\x00\x00\x00'
tRp530
sg44
g45
sg40
g41
sg25
F0.21068585477769375
sS'trials.thisIndex'
p531
g36
(g80
S'\n\x00\x00\x00'
tRp532
sg26
V5
sS'trials.thisRepN'
p533
I0
sg66
Vbutterfly
p534
sg63
V../experiment_stimuli/bw_bc_bl/Living_Things/Insects/butterfly_15.jpg
p535
sg21
F0.52135255606845021
sS'trials.thisTrialN'
p536
I40
sa(dp537
g31
g32
sg17
F213.20512941014022
sg24
I1
sg35
g39
sg14
F213.20027850521728
sg16
g36
(g70
S'\x02\x00\x00\x00'
tRp538
sg42
g43
sg46
g47
sg15
g100
sg22
F219.00358759611845
sg64
g217
sg62
g102
sg49
g50
sS'trials.thisN'
p539
I41
sg19
I1
sg27
g36
(g38
S'\x00\x00\x00\x00\x00\x00\x18@'
tRp540
sg52
g53
sg23
S'1'
sg18
F214.44286438217387
sg33
g34
sg51
g11
sg20
S'2'
sg65
g36
(g77
S'\x00\x00\x00\x00\x00\x00\x00\x00'
tRp541
sg44
g45
sg40
g41
sg25
F1.1326834922656417
sS'trials.thisIndex'
p542
g36
(g80
S']\x00\x00\x00'
tRp543
sg26
V5
sS'trials.thisRepN'
p544
I0
sg66
Vwardrobe
p545
sg63
V../experiment_stimuli/bw_bc_bl/Nonliving_Things/Furniture/wardrobe_14.jpg
p546
sg21
F4.5401017535477877
sS'trials.thisTrialN'
p547
I41
sa(dp548
g31
g32
sg17
F221.87408481398597
sg24
I0
sg35
g39
sg14
F221.86911266250536
sg16
g36
(g70
S'\x02\x00\x00\x00'
tRp549
sg42
g43
sg46
g47
sg15
g72
sg22
F229.23577996529639
sg64
g88
sg62
g74
sg49
g50
sS'trials.thisN'
p550
I42
sg19
I0
sg27
g36
(g38
S'\x00\x00\x00\x00\x00\x00\x18@'
tRp551
sg52
g53
sg23
S'2'
sg18
F223.13176673371345
sg33
g34
sg51
g11
sg20
S'1'
sg65
g36
(g77
S'\x00\x00\x00\x00\x00\x00\x00\x00'
tRp552
sg44
g45
sg40
g41
sg25
F1.0124218724668026
sS'trials.thisIndex'
p553
g36
(g80
S'A\x00\x00\x00'
tRp554
sg26
V5
sS'trials.thisRepN'
p555
I0
sg66
Vpomfret
p556
sg63
V../experiment_stimuli/bw_bc_bl/Living_Things/Marine_creatures/pomfret_5.jpg
p557
sg21
F6.0834566238336265
sS'trials.thisTrialN'
p558
I42
sa(dp559
g31
g32
sg17
F231.98602935252711
sg24
I1
sg35
g39
sg14
F231.98110047541559
sg16
g36
(g70
S'\x02\x00\x00\x00'
tRp560
sg42
g43
sg46
g47
sg15
g72
sg22
F235.03824757179245
sg64
g114
sg62
g74
sg49
g50
sS'trials.thisN'
p561
I43
sg19
I0
sg27
g36
(g38
S'\x00\x00\x00\x00\x00\x00\x18@'
tRp562
sg52
g53
sg23
S'1'
sg18
F233.233719302807
sg33
g34
sg51
g11
sg20
S'1'
sg65
g36
(g77
S'\x00\x00\x00\x00\x00\x00\x00\x00'
tRp563
sg44
g45
sg40
g41
sg25
F0.19063265295699239
sS'trials.thisIndex'
p564
g36
(g80
S'D\x00\x00\x00'
tRp565
sg26
V5
sS'trials.thisRepN'
p566
I0
sg66
Vrhino
p567
sg63
V../experiment_stimuli/bw_bc_bl/Living_Things/Animals/rhino_18.jpg
p568
sg21
F1.7839428461156785
sS'trials.thisTrialN'
p569
I43
sa(dp570
g31
g32
sg17
F236.96689600031823
sg24
I1
sg35
g39
sg14
F236.96192229632288
sg16
g36
(g70
S'\x02\x00\x00\x00'
tRp571
sg42
g43
sg46
g47
sg15
g100
sg22
F238.84666822105646
sg64
g217
sg62
g102
sg49
g50
sS'trials.thisN'
p572
I44
sg19
I1
sg27
g36
(g38
S'\x00\x00\x00\x00\x00\x00\x1a@'
tRp573
sg52
g53
sg23
S'1'
sg18
F238.22457296494395
sg33
g34
sg51
g11
sg20
S'2'
sg65
g36
(g77
S'\x00\x00\x00\x00\x00\x00\x00\x00'
tRp574
sg44
g45
sg40
g41
sg25
F0.20065934443846345
sS'trials.thisIndex'
p575
g36
(g80
S'\x08\x00\x00\x00'
tRp576
sg26
V5
sS'trials.thisRepN'
p577
I0
sg66
Vbookcase
p578
sg63
V../experiment_stimuli/bw_bc_bl/Nonliving_Things/Furniture/bookcase_3.jpg
p579
sg21
F0.60153712192550302
sS'trials.thisTrialN'
p580
I44
sa(dp581
g31
g32
sg17
F240.78515974152833
sg24
I0
sg35
g39
sg14
F240.78022096585482
sg16
g36
(g70
S'\x02\x00\x00\x00'
tRp582
sg42
g43
sg46
g47
sg15
g100
sg22
F242.87540961010382
sg64
g101
sg62
g102
sg49
g50
sS'trials.thisN'
p583
I45
sg19
I1
sg27
g36
(g38
S'\x00\x00\x00\x00\x00\x00\x18@'
tRp584
sg52
g53
sg23
S'3'
sg18
F242.07293798588216
sg33
g34
sg51
g11
sg20
S'2'
sg65
g36
(g77
S'\x00\x00\x00\x00\x00\x00\x00\x00'
tRp585
sg44
g45
sg40
g41
sg25
F0.3108971226029098
sS'trials.thisIndex'
p586
g36
(g80
S'G\x00\x00\x00'
tRp587
sg26
V5
sS'trials.thisRepN'
p588
I0
sg66
Vsaucepan
p589
sg63
V../experiment_stimuli/bw_bc_bl/Nonliving_Things/Kitchen_Uten/saucepan_13.jpg
p590
sg21
F0.78192927176132798
sS'trials.thisTrialN'
p591
I45
sa(dp592
g31
g32
sg17
F244.92527157301083
sg24
I0
sg35
g39
sg14
F244.91922640334815
sg16
g36
(g70
S'\x01\x00\x00\x00'
tRp593
sg42
g43
sg46
g47
sg15
g72
sg22
F246.73379616439342
sg64
g217
sg62
g102
sg49
g50
sS'trials.thisN'
p594
I46
sg19
I1
sg27
g36
(g38
S'\x00\x00\x00\x00\x00\x00\x1e@'
tRp595
sg52
g53
sg23
S'2'
sg18
F246.18187243677676
sg33
g34
sg51
g11
sg20
S'1'
sg65
g36
(g77
S'\x00\x00\x00\x00\x00\x00\x00\x00'
tRp596
sg44
g45
sg40
g41
sg25
F0.23071411345154047
sS'trials.thisIndex'
p597
g36
(g80
S'\x02\x00\x00\x00'
tRp598
sg26
V5
sS'trials.thisRepN'
p599
I0
sg66
Varmchair
p600
sg63
V../experiment_stimuli/bw_bc_bl/Nonliving_Things/Furniture/armchair_15.jpg
p601
sg21
F0.53138138959184289
sS'trials.thisTrialN'
p602
I46
sa(dp603
g31
g32
sg17
F248.70345698995516
sg24
I0
sg35
g39
sg14
F248.69743738789111
sg16
g36
(g70
S'\x02\x00\x00\x00'
tRp604
sg42
g43
sg46
g47
sg15
g72
sg22
F252.0954752038233
sg64
g88
sg62
g74
sg49
g50
sS'trials.thisN'
p605
I47
sg19
I1
sg27
g36
(g38
S'\x00\x00\x00\x00\x00\x00\x18@'
tRp606
sg52
g53
sg23
S'3'
sg18
F249.95006261719391
sg33
g34
sg51
g11
sg20
S'2'
sg65
g36
(g77
S'\x00\x00\x00\x00\x00\x00\x00\x00'
tRp607
sg44
g45
sg40
g41
sg25
F0.95228788442909718
sS'trials.thisIndex'
p608
g36
(g80
S'^\x00\x00\x00'
tRp609
sg26
V5
sS'trials.thisRepN'
p610
I0
sg66
Vwhale
p611
sg63
V../experiment_stimuli/bw_bc_bl/Living_Things/Marine_creatures/whale_20.jpg
p612
sg21
F2.1248506023548543
sS'trials.thisTrialN'
p613
I47
sa(dp614
g31
g32
sg17
F254.78567863116041
sg24
I1
sg35
g39
sg14
F254.78066661627963
sg16
g36
(g70
S'\x02\x00\x00\x00'
tRp615
sg42
g43
sg46
g47
sg15
g100
sg22
F258.94037096388638
sg64
g217
sg62
g102
sg49
g50
sS'trials.thisN'
p616
I48
sg19
I0
sg27
g36
(g38
S'\x00\x00\x00\x00\x00\x00\x18@'
tRp617
sg52
g53
sg23
S'1'
sg18
F256.01324807293713
sg33
g34
sg51
g11
sg20
S'1'
sg65
g36
(g77
S'\x00\x00\x00\x00\x00\x00\x00\x00'
tRp618
sg44
g45
sg40
g41
sg25
F0.23072324832901359
sS'trials.thisIndex'
p619
g36
(g80
S'\x0f\x00\x00\x00'
tRp620
sg26
V5
sS'trials.thisRepN'
p621
I0
sg66
Vchair
p622
sg63
V../experiment_stimuli/bw_bc_bl/Nonliving_Things/Furniture/chair_15.jpg
p623
sg21
F2.906554663553834
sS'trials.thisTrialN'
p624
I48
sa(dp625
g31
g32
sg17
F260.90912717860192
sg24
I1
sg35
g39
sg14
F260.90397505648434
sg16
g36
(g70
S'\x01\x00\x00\x00'
tRp626
sg42
g43
sg46
g47
sg15
g100
sg22
F266.06583762681112
sg64
g114
sg62
g74
sg49
g50
sS'trials.thisN'
p627
I49
sg19
I1
sg27
g36
(g38
S'\x00\x00\x00\x00\x00\x00\x1c@'
tRp628
sg52
g53
sg23
S'1'
sg18
F262.16663596546277
sg33
g34
sg51
g11
sg20
S'1'
sg65
g36
(g77
S'\x00\x00\x00\x00\x00\x00\x00\x00'
tRp629
sg44
g45
sg40
g41
sg25
F0.24075225461274385
sS'trials.thisIndex'
p630
g36
(g80
S'T\x00\x00\x00'
tRp631
sg26
V5
sS'trials.thisRepN'
p632
I0
sg66
Vtiger
p633
sg63
V../experiment_stimuli/bw_bc_bl/Living_Things/Animals/tiger_4.jpg
p634
sg21
F3.8786583011969924
sS'trials.thisTrialN'
p635
I49
sa(dp636
g31
g32
sg17
F268.04455867270008
sg24
I0
sg35
g39
sg14
F268.03951421426609
sg16
g36
(g70
S'\x02\x00\x00\x00'
tRp637
sg42
g43
sg46
g47
sg15
g72
sg22
F270.22473155055195
sg64
g88
sg62
g74
sg49
g50
sS'trials.thisN'
p638
I50
sg19
I1
sg27
g36
(g38
S'\x00\x00\x00\x00\x00\x00\x1e@'
tRp639
sg52
g53
sg23
S'2'
sg18
F269.33220168948174
sg33
g34
sg51
g11
sg20
S'2'
sg65
g36
(g77
S'\x00\x00\x00\x00\x00\x00\x00\x00'
tRp640
sg44
g45
sg40
g41
sg25
F0.36102229217067361
sS'trials.thisIndex'
p641
g36
(g80
S'+\x00\x00\x00'
tRp642
sg26
V5
sS'trials.thisRepN'
p643
I0
sg66
Vkiller-whale
p644
sg63
V../experiment_stimuli/bw_bc_bl/Living_Things/Marine_creatures/killer-whale_7.jpg
p645
sg21
F0.87196364346891642
sS'trials.thisTrialN'
p646
I50
sa(dp647
g31
g32
sg17
F272.32590443268418
sg24
I0
sg35
g39
sg14
F272.31880150735378
sg16
g36
(g70
S'\x01\x00\x00\x00'
tRp648
sg42
g43
sg46
g47
sg15
g72
sg22
F274.31380336452276
sg64
g217
sg62
g102
sg49
g50
sS'trials.thisN'
p649
I51
sg19
I1
sg27
g36
(g38
S'\x00\x00\x00\x00\x00\x00\x18@'
tRp650
sg52
g53
sg23
S'2'
sg18
F273.60148725006729
sg33
g34
sg51
g11
sg20
S'1'
sg65
g36
(g77
S'\x00\x00\x00\x00\x00\x00\x00\x00'
tRp651
sg44
g45
sg40
g41
sg25
F0.29085587989538908
sS'trials.thisIndex'
p652
g36
(g80
S'\x13\x00\x00\x00'
tRp653
sg26
V5
sS'trials.thisRepN'
p654
I0
sg66
Vcouch
p655
sg63
V../experiment_stimuli/bw_bc_bl/Nonliving_Things/Furniture/couch_13.jpg
p656
sg21
F0.69175072479993105
sS'trials.thisTrialN'
p657
I51
sa(dp658
g31
g32
sg17
F276.3425374571234
sg24
I0
sg35
g39
sg14
F276.33753314847127
sg16
g36
(g70
S'\x01\x00\x00\x00'
tRp659
sg42
g43
sg46
g47
sg15
g100
sg22
F283.95473463367671
sg64
g88
sg62
g74
sg49
g50
sS'trials.thisN'
p660
I52
sg19
I0
sg27
g36
(g38
S'\x00\x00\x00\x00\x00\x00 @'
tRp661
sg52
g53
sg23
S'2'
sg18
F277.61020913999528
sg33
g34
sg51
g11
sg20
S'2'
sg65
g36
(g77
S'\x00\x00\x00\x00\x00\x00\x00\x00'
tRp662
sg44
g45
sg40
g41
sg25
F0.23072196636348963
sS'trials.thisIndex'
p663
g36
(g80
S'K\x00\x00\x00'
tRp664
sg26
V5
sS'trials.thisRepN'
p665
I0
sg66
Vshark
p666
sg63
V../experiment_stimuli/bw_bc_bl/Living_Things/Marine_creatures/shark_24.jpg
p667
sg21
F6.323979411739856
sS'trials.thisTrialN'
p668
I52
sa(dp669
g31
g32
sg17
F285.92337220348418
sg24
I1
sg35
g39
sg14
F285.91836064681411
sg16
g36
(g70
S'\x01\x00\x00\x00'
tRp670
sg42
g43
sg46
g47
sg15
g100
sg22
F299.18786150636151
sg64
g114
sg62
g74
sg49
g50
sS'trials.thisN'
p671
I53
sg19
I1
sg27
g36
(g38
S'\x00\x00\x00\x00\x00\x00\x1e@'
tRp672
sg52
g53
sg23
S'1'
sg18
F287.18100610515103
sg33
g34
sg51
g11
sg20
S'1'
sg65
g36
(g77
S'\x00\x00\x00\x00\x00\x00\x00\x00'
tRp673
sg44
g45
sg40
g41
sg25
F0.18060978595167398
sS'trials.thisIndex'
p674
g36
(g80
S'Z\x00\x00\x00'
tRp675
sg26
V5
sS'trials.thisRepN'
p676
I0
sg66
Vturtle
p677
sg63
V../experiment_stimuli/bw_bc_bl/Living_Things/Animals/turtle_1.jpg
p678
sg21
F11.986289428547025
sS'trials.thisTrialN'
p679
I53
sa(dp680
g31
g32
sg17
F301.1065087467432
sg24
I0
sg35
g39
sg14
F301.10139808245003
sg16
g36
(g70
S'\x02\x00\x00\x00'
tRp681
sg42
g43
sg46
g47
sg15
g72
sg22
F303.77783995121717
sg64
g73
sg62
g74
sg49
g50
sS'trials.thisN'
p682
I54
sg19
I1
sg27
g36
(g38
S'\x00\x00\x00\x00\x00\x00\x18@'
tRp683
sg52
g53
sg23
S'2'
sg18
F302.38406129553914
sg33
g34
sg51
g11
sg20
S'2'
sg65
g36
(g77
S'\x00\x00\x00\x00\x00\x00\x00\x00'
tRp684
sg44
g45
sg40
g41
sg25
F0.25079348729923368
sS'trials.thisIndex'
p685
g36
(g80
S'?\x00\x00\x00'
tRp686
sg26
V5
sS'trials.thisRepN'
p687
I0
sg66
Vpigeon
p688
sg63
V../experiment_stimuli/bw_bc_bl/Living_Things/Birds/pigeon_12.jpg
p689
sg21
F1.3732159500941634
sS'trials.thisTrialN'
p690
I54
sa(dp691
g31
g32
sg17
F305.76653068093583
sg24
I0
sg35
g39
sg14
F305.76149822631851
sg16
g36
(g70
S'\x01\x00\x00\x00'
tRp692
sg42
g43
sg46
g47
sg15
g72
sg22
F307.85669046826661
sg64
g101
sg62
g102
sg49
g50
sS'trials.thisN'
p693
I55
sg19
I1
sg27
g36
(g38
S'\x00\x00\x00\x00\x00\x00\x1c@'
tRp694
sg52
g53
sg23
S'3'
sg18
F307.03418551431969
sg33
g34
sg51
g11
sg20
S'1'
sg65
g36
(g77
S'\x00\x00\x00\x00\x00\x00\x00\x00'
tRp695
sg44
g45
sg40
g41
sg25
F0.31088428804650903
sS'trials.thisIndex'
p696
g36
(g80
S'S\x00\x00\x00'
tRp697
sg26
V5
sS'trials.thisRepN'
p698
I0
sg66
Vteapot
p699
sg63
V../experiment_stimuli/bw_bc_bl/Nonliving_Things/Kitchen_Uten/teapot_9.jpg
p700
sg21
F0.80196705600246787
sS'trials.thisTrialN'
p701
I55
sa(dp702
g31
g32
sg17
F309.90560065908358
sg24
I1
sg35
g39
sg14
F309.90051454352215
sg16
g36
(g70
S'\x01\x00\x00\x00'
tRp703
sg42
g43
sg46
g47
sg15
g100
sg22
F311.57479350129142
sg64
g73
sg62
g74
sg49
g50
sS'trials.thisN'
p704
I56
sg19
I1
sg27
g36
(g38
S'\x00\x00\x00\x00\x00\x00\x1a@'
tRp705
sg52
g53
sg23
S'1'
sg18
F311.15312476968393
sg33
g34
sg51
g11
sg20
S'1'
sg65
g36
(g77
S'\x00\x00\x00\x00\x00\x00\x00\x00'
tRp706
sg44
g45
sg40
g41
sg25
F0.28083277493715286
sS'trials.thisIndex'
p707
g36
(g80
S'!\x00\x00\x00'
tRp708
sg26
V5
sS'trials.thisRepN'
p709
I0
sg66
Vgoldfinch
p710
sg63
V../experiment_stimuli/bw_bc_bl/Living_Things/Birds/goldfinch_20.jpg
p711
sg21
F0.4010988837108016
sS'trials.thisTrialN'
p712
I56
sa(dp713
g31
g32
sg17
F313.59477181686088
sg24
I1
sg35
g39
sg14
F313.58853198867291
sg16
g36
(g70
S'\x01\x00\x00\x00'
tRp714
sg42
g43
sg46
g47
sg15
g72
sg22
F319.0811011120677
sg64
g126
sg62
g102
sg49
g50
sS'trials.thisN'
p715
I57
sg19
I1
sg27
g36
(g38
S'\x00\x00\x00\x00\x00\x00\x18@'
tRp716
sg52
g53
sg23
S'1'
sg18
F314.87121274648234
sg33
g34
sg51
g11
sg20
S'1'
sg65
g36
(g77
S'\x00\x00\x00\x00\x00\x00\x00\x00'
tRp717
sg44
g45
sg40
g41
sg25
F0.20050292927771807
sS'trials.thisIndex'
p718
g36
(g80
S'W\x00\x00\x00'
tRp719
sg26
V5
sS'trials.thisRepN'
p720
I0
sg66
Vtrain
p721
sg63
V../experiment_stimuli/bw_bc_bl/Nonliving_Things/Vehicles/train_18.jpg
p722
sg21
F4.189331806730479
sS'trials.thisTrialN'
p723
I57
sa(dp724
g31
g32
sg17
F321.02222588798031
sg24
I0
sg35
g39
sg14
F321.01466713473201
sg16
g36
(g70
S'\x01\x00\x00\x00'
tRp725
sg42
g43
sg46
g47
sg15
g100
sg22
F322.93949795560911
sg64
g527
sg62
g74
sg49
g50
sS'trials.thisN'
p726
I58
sg19
I1
sg27
g36
(g38
S'\x00\x00\x00\x00\x00\x00\x1c@'
tRp727
sg52
g53
sg23
S'2'
sg18
F322.31740842899308
sg33
g34
sg51
g11
sg20
S'1'
sg65
g36
(g77
S'\x00\x00\x00\x00\x00\x00\x00\x00'
tRp728
sg44
g45
sg40
g41
sg25
F0.21068356558680534
sS'trials.thisIndex'
p729
g36
(g80
S'I\x00\x00\x00'
tRp730
sg26
V5
sS'trials.thisRepN'
p731
I0
sg66
Vscorpion
p732
sg63
V../experiment_stimuli/bw_bc_bl/Living_Things/Insects/scorpion_11.jpg
p733
sg21
F0.60153203923255205
sS'trials.thisTrialN'
p734
I58
sa(dp735
g31
g32
sg17
F324.88934094132856
sg24
I1
sg35
g39
sg14
F324.88307453785092
sg16
g36
(g70
S'\x01\x00\x00\x00'
tRp736
sg42
g43
sg46
g47
sg15
g100
sg22
F336.13818927993998
sg64
g73
sg62
g74
sg49
g50
sS'trials.thisN'
p737
I59
sg19
I1
sg27
g36
(g38
S'\x00\x00\x00\x00\x00\x00\x1a@'
tRp738
sg52
g53
sg23
S'1'
sg18
F326.1757902498357
sg33
g34
sg51
g11
sg20
S'1'
sg65
g36
(g77
S'\x00\x00\x00\x00\x00\x00\x00\x00'
tRp739
sg44
g45
sg40
g41
sg25
F0.23071495164185762
sS'trials.thisIndex'
p740
g36
(g80
S'J\x00\x00\x00'
tRp741
sg26
V5
sS'trials.thisRepN'
p742
I0
sg66
Vseagull
p743
sg63
V../experiment_stimuli/bw_bc_bl/Living_Things/Birds/seagull_23.jpg
p744
sg21
F9.9418409485369921
sS'trials.thisTrialN'
p745
I59
sa(dp746
g31
g32
sg17
F338.10796226607636
sg24
I0
sg35
g39
sg14
F338.10181698482484
sg16
g36
(g70
S'\x01\x00\x00\x00'
tRp747
sg42
g43
sg46
g47
sg15
g100
sg22
F340.8283748649992
sg64
g73
sg62
g74
sg49
g50
sS'trials.thisN'
p748
I60
sg19
I1
sg27
g36
(g38
S'\x00\x00\x00\x00\x00\x00\x1a@'
tRp749
sg52
g53
sg23
S'3'
sg18
F339.43461588211358
sg33
g34
sg51
g11
sg20
S'1'
sg65
g36
(g77
S'\x00\x00\x00\x00\x00\x00\x00\x00'
tRp750
sg44
g45
sg40
g41
sg25
F0.38104819692671299
sS'trials.thisIndex'
p751
g36
(g80
S'9\x00\x00\x00'
tRp752
sg26
V5
sS'trials.thisRepN'
p753
I0
sg66
Vowl
p754
sg63
V../experiment_stimuli/bw_bc_bl/Living_Things/Birds/owl_22.jpg
p755
sg21
F1.3732160362415016
sS'trials.thisTrialN'
p756
I60
sa(dp757
g31
g32
sg17
F342.94749946752563
sg24
I0
sg35
g39
sg14
F342.94239272829145
sg16
g36
(g70
S'\x01\x00\x00\x00'
tRp758
sg42
g43
sg46
g47
sg15
g72
sg22
F345.63883731793612
sg64
g126
sg62
g102
sg49
g50
sS'trials.thisN'
p759
I61
sg19
I1
sg27
g36
(g38
S'\x00\x00\x00\x00\x00\x00\x18@'
tRp760
sg52
g53
sg23
S'3'
sg18
F344.24507995136082
sg33
g34
sg51
g11
sg20
S'1'
sg65
g36
(g77
S'\x00\x00\x00\x00\x00\x00\x00\x00'
tRp761
sg44
g45
sg40
g41
sg25
F0.32091503962874413
sS'trials.thisIndex'
p762
g36
(g80
S'6\x00\x00\x00'
tRp763
sg26
V5
sS'trials.thisRepN'
p764
I0
sg66
Vmotorbike
p765
sg63
V../experiment_stimuli/bw_bc_bl/Nonliving_Things/Vehicles/motorbike_17.jpg
p766
sg21
F1.3732102811336517
sS'trials.thisTrialN'
p767
I61
sa(dp768
g31
g32
sg17
F347.69762968691066
sg24
I1
sg35
g39
sg14
F347.69269052380696
sg16
g36
(g70
S'\x02\x00\x00\x00'
tRp769
sg42
g43
sg46
g47
sg15
g72
sg22
F354.60836333455518
sg64
g88
sg62
g74
sg49
g50
sS'trials.thisN'
p770
I62
sg19
I0
sg27
g36
(g38
S'\x00\x00\x00\x00\x00\x00\x1a@'
tRp771
sg52
g53
sg23
S'1'
sg18
F348.9653372974135
sg33
g34
sg51
g11
sg20
S'1'
sg65
g36
(g77
S'\x00\x00\x00\x00\x00\x00\x00\x00'
tRp772
sg44
g45
sg40
g41
sg25
F0.24087237706407905
sS'trials.thisIndex'
p773
g36
(g80
S'4\x00\x00\x00'
tRp774
sg26
V5
sS'trials.thisRepN'
p775
I0
sg66
Vmanatee
p776
sg63
V../experiment_stimuli/bw_bc_bl/Living_Things/Marine_creatures/manatee_26.jpg
p777
sg21
F5.6224591019563377
sS'trials.thisTrialN'
p778
I62
sa(dp779
g31
g32
sg17
F356.58705250453204
sg24
I0
sg35
g39
sg14
F356.58201025659218
sg16
g36
(g70
S'\x02\x00\x00\x00'
tRp780
sg42
g43
sg46
g47
sg15
g72
sg22
F358.98771350644529
sg64
g114
sg62
g74
sg49
g50
sS'trials.thisN'
p781
I63
sg19
I1
sg27
g36
(g38
S'\x00\x00\x00\x00\x00\x00\x1a@'
tRp782
sg52
g53
sg23
S'2'
sg18
F357.86469694273546
sg33
g34
sg51
g11
sg20
S'2'
sg65
g36
(g77
S'\x00\x00\x00\x00\x00\x00\x00\x00'
tRp783
sg44
g45
sg40
g41
sg25
F0.33093695202842355
sS'trials.thisIndex'
p784
g36
(g80
S"'\x00\x00\x00"
tRp785
sg26
V5
sS'trials.thisRepN'
p786
I0
sg66
Vhippopotamus
p787
sg63
V../experiment_stimuli/bw_bc_bl/Living_Things/Animals/hippopotamus_12.jpg
p788
sg21
F1.1024606847204268
sS'trials.thisTrialN'
p789
I63
sa(dp790
g31
g32
sg17
F361.05655168602243
sg24
I1
sg35
g39
sg14
F361.05171123985201
sg16
g36
(g70
S'\x02\x00\x00\x00'
tRp791
sg42
g43
sg46
g47
sg15
g100
sg22
F362.91641443688422
sg64
g101
sg62
g102
sg49
g50
sS'trials.thisN'
p792
I64
sg19
I1
sg27
g36
(g38
S'\x00\x00\x00\x00\x00\x00\x1e@'
tRp793
sg52
g53
sg23
S'1'
sg18
F362.33440168574452
sg33
g34
sg51
g11
sg20
S'2'
sg65
g36
(g77
S'\x00\x00\x00\x00\x00\x00\x00\x00'
tRp794
sg44
g45
sg40
g41
sg25
F0.25076382607221603
sS'trials.thisIndex'
p795
g36
(g80
S'\x1f\x00\x00\x00'
tRp796
sg26
V5
sS'trials.thisRepN'
p797
I0
sg66
Vfrying-pan
p798
sg63
V../experiment_stimuli/bw_bc_bl/Nonliving_Things/Kitchen_Uten/frying-pan_16.jpg
p799
sg21
F0.56144942110404372
sS'trials.thisTrialN'
p800
I64
sa(dp801
g31
g32
sg17
F364.90528237866238
sg24
I1
sg35
g39
sg14
F364.90007897512987
sg16
g36
(g70
S'\x01\x00\x00\x00'
tRp802
sg42
g43
sg46
g47
sg15
g100
sg22
F373.13861974980682
sg64
g73
sg62
g74
sg49
g50
sS'trials.thisN'
p803
I65
sg19
I1
sg27
g36
(g38
S'\x00\x00\x00\x00\x00\x00\x1c@'
tRp804
sg52
g53
sg23
S'1'
sg18
F366.20281648309901
sg33
g34
sg51
g11
sg20
S'1'
sg65
g36
(g77
S'\x00\x00\x00\x00\x00\x00\x00\x00'
tRp805
sg44
g45
sg40
g41
sg25
F0.20065314881503582
sS'trials.thisIndex'
p806
g36
(g80
S'C\x00\x00\x00'
tRp807
sg26
V5
sS'trials.thisRepN'
p808
I0
sg66
Vraven
p809
sg63
V../experiment_stimuli/bw_bc_bl/Living_Things/Birds/raven_10.jpg
p810
sg21
F6.9052311177365482
sS'trials.thisTrialN'
p811
I65
sa(dp812
g31
g32
sg17
F375.07719328021631
sg24
I1
sg35
g39
sg14
F375.07219087379053
sg16
g36
(g70
S'\x02\x00\x00\x00'
tRp813
sg42
g43
sg46
g47
sg15
g72
sg22
F376.84653180837631
sg64
g73
sg62
g74
sg49
g50
sS'trials.thisN'
p814
I66
sg19
I0
sg27
g36
(g38
S'\x00\x00\x00\x00\x00\x00\x18@'
tRp815
sg52
g53
sg23
S'1'
sg18
F376.40501844743267
sg33
g34
sg51
g11
sg20
S'1'
sg65
g36
(g77
S'\x00\x00\x00\x00\x00\x00\x00\x00'
tRp816
sg44
g45
sg40
g41
sg25
F0.15055782534182072
sS'trials.thisIndex'
p817
g36
(g80
S'&\x00\x00\x00'
tRp818
sg26
V5
sS'trials.thisRepN'
p819
I0
sg66
Vhen
p820
sg63
V../experiment_stimuli/bw_bc_bl/Living_Things/Birds/hen_16.jpg
p821
sg21
F0.42097829794511199
sS'trials.thisTrialN'
p822
I66
sa(dp823
g31
g32
sg17
F378.73511329945177
sg24
I1
sg35
g39
sg14
F378.73015082115307
sg16
g36
(g70
S'\x02\x00\x00\x00'
tRp824
sg42
g43
sg46
g47
sg15
g72
sg22
F380.56478730589151
sg64
g73
sg62
g74
sg49
g50
sS'trials.thisN'
p825
I67
sg19
I0
sg27
g36
(g38
S'\x00\x00\x00\x00\x00\x00\x18@'
tRp826
sg52
g53
sg23
S'1'
sg18
F380.08299295743927
sg33
g34
sg51
g11
sg20
S'1'
sg65
g36
(g77
S'\x00\x00\x00\x00\x00\x00\x00\x00'
tRp827
sg44
g45
sg40
g41
sg25
F0.19063529651612043
sS'trials.thisIndex'
p828
g36
(g80
S'*\x00\x00\x00'
tRp829
sg26
V5
sS'trials.thisRepN'
p830
I0
sg66
Vhummingbird
p831
sg63
V../experiment_stimuli/bw_bc_bl/Living_Things/Birds/hummingbird_25.jpg
p832
sg21
F0.46122336434200406
sS'trials.thisTrialN'
p833
I67
sa(dp834
g31
g32
sg17
F382.49328812304884
sg24
I0
sg35
g39
sg14
F382.48831651732326
sg16
g36
(g70
S'\x01\x00\x00\x00'
tRp835
sg42
g43
sg46
g47
sg15
g72
sg22
F384.60356011847034
sg64
g217
sg62
g102
sg49
g50
sS'trials.thisN'
p836
I68
sg19
I0
sg27
g36
(g38
S'\x00\x00\x00\x00\x00\x00\x18@'
tRp837
sg52
g53
sg23
S'3'
sg18
F383.87122711027041
sg33
g34
sg51
g11
sg20
S'2'
sg65
g36
(g77
S'\x00\x00\x00\x00\x00\x00\x00\x00'
tRp838
sg44
g45
sg40
g41
sg25
F0.28083170391619205
sS'trials.thisIndex'
p839
g36
(g80
S'\x05\x00\x00\x00'
tRp840
sg26
V5
sS'trials.thisRepN'
p841
I0
sg66
Vbed
p842
sg63
V../experiment_stimuli/bw_bc_bl/Nonliving_Things/Furniture/bed_10.jpg
p843
sg21
F0.71177268959581852
sS'trials.thisTrialN'
p844
I68
sa(dp845
g31
g32
sg17
F386.62233811290935
sg24
I1
sg35
g39
sg14
F386.61729305703193
sg16
g36
(g70
S'\x02\x00\x00\x00'
tRp846
sg42
g43
sg46
g47
sg15
g100
sg22
F395.72776687052101
sg64
g328
sg62
g102
sg49
g50
sS'trials.thisN'
p847
I69
sg19
I0
sg27
g36
(g38
S'\x00\x00\x00\x00\x00\x00\x1a@'
tRp848
sg52
g53
sg23
S'1'
sg18
F387.98016237327829
sg33
g34
sg51
g11
sg20
S'1'
sg65
g36
(g77
S'\x00\x00\x00\x00\x00\x00\x00\x00'
tRp849
sg44
g45
sg40
g41
sg25
F0.22070098202675581
sS'trials.thisIndex'
p850
g36
(g80
S'\x03\x00\x00\x00'
tRp851
sg26
V5
sS'trials.thisRepN'
p852
I0
sg66
Vaxe
p853
sg63
V../experiment_stimuli/bw_bc_bl/Nonliving_Things/Tools/axe_13.jpg
p854
sg21
F7.7270393674261868
sS'trials.thisTrialN'
p855
I69
sa(dp856
g31
g32
sg17
F397.68641959456727
sg24
I0
sg35
g39
sg14
F397.68135626427829
sg16
g36
(g70
S'\x01\x00\x00\x00'
tRp857
sg42
g43
sg46
g47
sg15
g72
sg22
F399.66629759641364
sg64
g183
sg62
g102
sg49
g50
sS'trials.thisN'
p858
I70
sg19
I1
sg27
g36
(g38
S'\x00\x00\x00\x00\x00\x00\x18@'
tRp859
sg52
g53
sg23
S'3'
sg18
F399.06426101922989
sg33
g34
sg51
g11
sg20
S'1'
sg65
g36
(g77
S'\x00\x00\x00\x00\x00\x00\x00\x00'
tRp860
sg44
g45
sg40
g41
sg25
F0.28082445962354541
sS'trials.thisIndex'
p861
g36
(g80
S'#\x00\x00\x00'
tRp862
sg26
V5
sS'trials.thisRepN'
p863
I0
sg66
Vgranary
p864
sg63
V../experiment_stimuli/bw_bc_bl/Nonliving_Things/Buildings/granary_3.jpg
p865
sg21
F0.58149122865870595
sS'trials.thisTrialN'
p866
I70
sa(dp867
g31
g32
sg17
F401.68496957002208
sg24
I0
sg35
g39
sg14
F401.6800439786166
sg16
g36
(g70
S'\x01\x00\x00\x00'
tRp868
sg42
g43
sg46
g47
sg15
g100
sg22
F403.91557055618614
sg64
g73
sg62
g74
sg49
g50
sS'trials.thisN'
p869
I71
sg19
I1
sg27
g36
(g38
S'\x00\x00\x00\x00\x00\x00\x18@'
tRp870
sg52
g53
sg23
S'2'
sg18
F403.0529315834865
sg33
g34
sg51
g11
sg20
S'1'
sg65
g36
(g77
S'\x00\x00\x00\x00\x00\x00\x00\x00'
tRp871
sg44
g45
sg40
g41
sg25
F0.19064468657597899
sS'trials.thisIndex'
p872
g36
(g80
S'8\x00\x00\x00'
tRp873
sg26
V5
sS'trials.thisRepN'
p874
I0
sg66
Vostrich
p875
sg63
V../experiment_stimuli/bw_bc_bl/Living_Things/Birds/ostrich_24.jpg
p876
sg21
F0.84207519562914968
sS'trials.thisTrialN'
p877
I71
sa(dp878
g31
g32
sg17
F405.8439869126305
sg24
I1
sg35
g39
sg14
F405.83908515889198
sg16
g36
(g70
S'\x01\x00\x00\x00'
tRp879
sg42
g43
sg46
g47
sg15
g72
sg22
F416.60314061399549
sg64
g217
sg62
g102
sg49
g50
sS'trials.thisN'
p880
I72
sg19
I1
sg27
g36
(g38
S'\x00\x00\x00\x00\x00\x00\x18@'
tRp881
sg52
g53
sg23
S'1'
sg18
F407.20195570075884
sg33
g34
sg51
g11
sg20
S'1'
sg65
g36
(g77
S'\x00\x00\x00\x00\x00\x00\x00\x00'
tRp882
sg44
g45
sg40
g41
sg25
F0.20066647976636887
sS'trials.thisIndex'
p883
g36
(g80
S'\x1d\x00\x00\x00'
tRp884
sg26
V5
sS'trials.thisRepN'
p885
I0
sg66
Vfilling-cabinet
p886
sg63
V../experiment_stimuli/bw_bc_bl/Nonliving_Things/Furniture/filling-cabinet_6.jpg
p887
sg21
F9.3806423540227115
sS'trials.thisTrialN'
p888
I72
sa(dp889
g31
g32
sg17
F418.54310159105808
sg24
I0
sg35
g39
sg14
F418.53670681687072
sg16
g36
(g70
S'\x01\x00\x00\x00'
tRp890
sg42
g43
sg46
g47
sg15
g100
sg22
F420.59181468561292
sg64
g527
sg62
g74
sg49
g50
sS'trials.thisN'
p891
I73
sg19
I1
sg27
g36
(g38
S'\x00\x00\x00\x00\x00\x00\x1e@'
tRp892
sg52
g53
sg23
S'3'
sg18
F419.89955867873505
sg33
g34
sg51
g11
sg20
S'1'
sg65
g36
(g77
S'\x00\x00\x00\x00\x00\x00\x00\x00'
tRp893
sg44
g45
sg40
g41
sg25
F0.23071784246712923
sS'trials.thisIndex'
p894
g36
(g80
S'\x18\x00\x00\x00'
tRp895
sg26
V5
sS'trials.thisRepN'
p896
I0
sg66
Vdragonfly
p897
sg63
V../experiment_stimuli/bw_bc_bl/Living_Things/Insects/dragonfly_1.jpg
p898
sg21
F0.67169668851420283
sS'trials.thisTrialN'
p899
I73
sa(dp900
g31
g32
sg17
F422.56184966769069
sg24
I0
sg35
g39
sg14
F422.55543417995796
sg16
g36
(g70
S'\x02\x00\x00\x00'
tRp901
sg42
g43
sg46
g47
sg15
g72
sg22
F424.43016657559201
sg64
g88
sg62
g74
sg49
g50
sS'trials.thisN'
p902
I74
sg19
I0
sg27
g36
(g38
S'\x00\x00\x00\x00\x00\x00\x18@'
tRp903
sg52
g53
sg23
S'2'
sg18
F423.8982549039647
sg33
g34
sg51
g11
sg20
S'1'
sg65
g36
(g77
S'\x00\x00\x00\x00\x00\x00\x00\x00'
tRp904
sg44
g45
sg40
g41
sg25
F0.22069924511015415
sS'trials.thisIndex'
p905
g36
(g80
S'\x17\x00\x00\x00'
tRp906
sg26
V5
sS'trials.thisRepN'
p907
I0
sg66
Vdolphin
p908
sg63
V../experiment_stimuli/bw_bc_bl/Living_Things/Marine_creatures/dolphin_21.jpg
p909
sg21
F0.5113396430388093
sS'trials.thisTrialN'
p910
I74
sa(dp911
g31
g32
sg17
F426.39884097967297
sg24
I1
sg35
g39
sg14
F426.3937880625017
sg16
g36
(g70
S'\x02\x00\x00\x00'
tRp912
sg42
g43
sg46
g47
sg15
g72
sg22
F436.74693767307326
sg64
g114
sg62
g74
sg49
g50
sS'trials.thisN'
p913
I75
sg19
I0
sg27
g36
(g38
S'\x00\x00\x00\x00\x00\x00\x18@'
tRp914
sg52
g53
sg23
S'1'
sg18
F427.72657618904486
sg33
g34
sg51
g11
sg20
S'1'
sg65
g36
(g77
S'\x00\x00\x00\x00\x00\x00\x00\x00'
tRp915
sg44
g45
sg40
g41
sg25
F0.20065790461376309
sS'trials.thisIndex'
p916
g36
(g80
S' \x00\x00\x00'
tRp917
sg26
V5
sS'trials.thisRepN'
p918
I0
sg66
Vgiraffe
p919
sg63
V../experiment_stimuli/bw_bc_bl/Living_Things/Animals/giraffe_26.jpg
p920
sg21
F8.9997930452227592
sS'trials.thisTrialN'
p921
I75
sa(dp922
g31
g32
sg17
F438.68577782390639
sg24
I0
sg35
g39
sg14
F438.6804925231263
sg16
g36
(g70
S'\x02\x00\x00\x00'
tRp923
sg42
g43
sg46
g47
sg15
g72
sg22
F440.71556310355663
sg64
g73
sg62
g74
sg49
g50
sS'trials.thisN'
p924
I76
sg19
I1
sg27
g36
(g38
S'\x00\x00\x00\x00\x00\x00\x18@'
tRp925
sg52
g53
sg23
S'3'
sg18
F440.03334933985025
sg33
g34
sg51
g11
sg20
S'2'
sg65
g36
(g77
S'\x00\x00\x00\x00\x00\x00\x00\x00'
tRp926
sg44
g45
sg40
g41
sg25
F0.3209147872403264
sS'trials.thisIndex'
p927
g36
(g80
S'O\x00\x00\x00'
tRp928
sg26
V5
sS'trials.thisRepN'
p929
I0
sg66
Vsparrow
p930
sg63
V../experiment_stimuli/bw_bc_bl/Living_Things/Birds/sparrow_1.jpg
p931
sg21
F0.6616633883677423
sS'trials.thisTrialN'
p932
I76
sa(dp933
g31
g32
sg17
F442.77437058463693
sg24
I0
sg35
g39
sg14
F442.76937530981377
sg16
g36
(g70
S'\x01\x00\x00\x00'
tRp934
sg42
g43
sg46
g47
sg15
g100
sg22
F444.63406440149993
sg64
g73
sg62
g74
sg49
g50
sS'trials.thisN'
p935
I77
sg19
I1
sg27
g36
(g38
S'\x00\x00\x00\x00\x00\x00\x1e@'
tRp936
sg52
g53
sg23
S'3'
sg18
F444.08213837770745
sg33
g34
sg51
g11
sg20
S'1'
sg65
g36
(g77
S'\x00\x00\x00\x00\x00\x00\x00\x00'
tRp937
sg44
g45
sg40
g41
sg25
F0.22069438034668565
sS'trials.thisIndex'
p938
g36
(g80
S'=\x00\x00\x00'
tRp939
sg26
V5
sS'trials.thisRepN'
p940
I0
sg66
Vpenguin
p941
sg63
V../experiment_stimuli/bw_bc_bl/Living_Things/Birds/penguin_23.jpg
p942
sg21
F0.53138290531933308
sS'trials.thisTrialN'
p943
I77
sa(dp944
g31
g32
sg17
F446.59288016101345
sg24
I0
sg35
g39
sg14
F446.5876982123591
sg16
g36
(g70
S'\x01\x00\x00\x00'
tRp945
sg42
g43
sg46
g47
sg15
g72
sg22
F448.70290679903701
sg64
g149
sg62
g102
sg49
g50
sS'trials.thisN'
p946
I78
sg19
I1
sg27
g36
(g38
S'\x00\x00\x00\x00\x00\x00 @'
tRp947
sg52
g53
sg23
S'2'
sg18
F447.88040245790035
sg33
g34
sg51
g11
sg20
S'1'
sg65
g36
(g77
S'\x00\x00\x00\x00\x00\x00\x00\x00'
tRp948
sg44
g45
sg40
g41
sg25
F1.2930354294367135
sS'trials.thisIndex'
p949
g36
(g80
S'X\x00\x00\x00'
tRp950
sg26
V5
sS'trials.thisRepN'
p951
I0
sg66
Vtrumpet
p952
sg63
V../experiment_stimuli/bw_bc_bl/Nonliving_Things/Musical_Inst/trumpet_3.jpg
p953
sg21
F0.80197048839181662
sS'trials.thisTrialN'
p954
I78
sa(dp955
g31
g32
sg17
F451.73383835423738
sg24
I1
sg35
g39
sg14
F451.72885713586584
sg16
g36
(g70
S'\x02\x00\x00\x00'
tRp956
sg42
g43
sg46
g47
sg15
g100
sg22
F462.24237017147243
sg64
g149
sg62
g102
sg49
g50
sS'trials.thisN'
p957
I79
sg19
I0
sg27
g36
(g38
S'\x00\x00\x00\x00\x00\x00\x18@'
tRp958
sg52
g53
sg23
S'1'
sg18
F453.02158027980477
sg33
g34
sg51
g11
sg20
S'1'
sg65
g36
(g77
S'\x00\x00\x00\x00\x00\x00\x00\x00'
tRp959
sg44
g45
sg40
g41
sg25
F0.20065244566649199
sS'trials.thisIndex'
p960
g36
(g80
S'$\x00\x00\x00'
tRp961
sg26
V5
sS'trials.thisRepN'
p962
I0
sg66
Vguitar
p963
sg63
V../experiment_stimuli/bw_bc_bl/Nonliving_Things/Musical_Inst/guitar_7.jpg
p964
sg21
F9.2002235394902527
sS'trials.thisTrialN'
p965
I79
sa(dp966
g31
g32
sg17
F464.1810624296777
sg24
I0
sg35
g39
sg14
F464.17595531791449
sg16
g36
(g70
S'\x01\x00\x00\x00'
tRp967
sg42
g43
sg46
g47
sg15
g100
sg22
F466.45149830775335
sg64
g114
sg62
g74
sg49
g50
sS'trials.thisN'
p968
I80
sg19
I1
sg27
g36
(g38
S'\x00\x00\x00\x00\x00\x00\x18@'
tRp969
sg52
g53
sg23
S'3'
sg18
F465.47865608986467
sg33
g34
sg51
g11
sg20
S'1'
sg65
g36
(g77
S'\x00\x00\x00\x00\x00\x00\x00\x00'
tRp970
sg44
g45
sg40
g41
sg25
F0.16057129018008709
sS'trials.thisIndex'
p971
g36
(g80
S'0\x00\x00\x00'
tRp972
sg26
V5
sS'trials.thisRepN'
p973
I0
sg66
Vlioness
p974
sg63
V../experiment_stimuli/bw_bc_bl/Living_Things/Animals/lioness_9.jpg
p975
sg21
F0.95229735039174557
sS'trials.thisTrialN'
p976
I80
sa(dp977
g31
g32
sg17
F468.35293195256963
sg24
I1
sg35
g39
sg14
F468.34499075403437
sg16
g36
(g70
S'\x02\x00\x00\x00'
tRp978
sg42
g43
sg46
g47
sg15
g100
sg22
F470.08944530040026
sg64
g183
sg62
g102
sg49
g50
sS'trials.thisN'
p979
I81
sg19
I1
sg27
g36
(g38
S'\x00\x00\x00\x00\x00\x00\x1e@'
tRp980
sg52
g53
sg23
S'1'
sg18
F469.63771198457107
sg33
g34
sg51
g11
sg20
S'2'
sg65
g36
(g77
S'\x00\x00\x00\x00\x00\x00\x00\x00'
tRp981
sg44
g45
sg40
g41
sg25
F0.25061515532433987
sS'trials.thisIndex'
p982
g36
(g80
S':\x00\x00\x00'
tRp983
sg26
V5
sS'trials.thisRepN'
p984
I0
sg66
Vpalace
p985
sg63
V../experiment_stimuli/bw_bc_bl/Nonliving_Things/Buildings/palace_4.jpg
p986
sg21
F0.43118208833038807
sS'trials.thisTrialN'
p987
I81
sa(dp988
g31
g32
sg17
F472.07807968556881
sg24
I0
sg35
g39
sg14
F472.07308849738911
sg16
g36
(g70
S'\x02\x00\x00\x00'
tRp989
sg42
g43
sg46
g47
sg15
g72
sg22
F473.97787934169173
sg64
g114
sg62
g74
sg49
g50
sS'trials.thisN'
p990
I82
sg19
I1
sg27
g36
(g38
S'\x00\x00\x00\x00\x00\x00\x1a@'
tRp991
sg52
g53
sg23
S'2'
sg18
F473.36580596119165
sg33
g34
sg51
g11
sg20
S'2'
sg65
g36
(g77
S'\x00\x00\x00\x00\x00\x00\x00\x00'
tRp992
sg44
g45
sg40
g41
sg25
F0.20065396465361118
sS'trials.thisIndex'
p993
g36
(g80
S'R\x00\x00\x00'
tRp994
sg26
V5
sS'trials.thisRepN'
p995
I0
sg66
Vtapir
p996
sg63
V../experiment_stimuli/bw_bc_bl/Living_Things/Animals/tapir_23.jpg
p997
sg21
F0.59151677694171667
sS'trials.thisTrialN'
p998
I82
sa(dp999
g31
g32
sg17
F475.9265317087993
sg24
I0
sg35
g39
sg14
F475.92147132987157
sg16
g36
(g70
S'\x01\x00\x00\x00'
tRp1000
sg42
g43
sg46
g47
sg15
g100
sg22
F477.79616328608245
sg64
g73
sg62
g74
sg49
g50
sS'trials.thisN'
p1001
I83
sg19
I1
sg27
g36
(g38
S'\x00\x00\x00\x00\x00\x00\x18@'
tRp1002
sg52
g53
sg23
S'2'
sg18
F477.20415326440707
sg33
g34
sg51
g11
sg20
S'1'
sg65
g36
(g77
S'\x00\x00\x00\x00\x00\x00\x00\x00'
tRp1003
sg44
g45
sg40
g41
sg25
F0.19063206296414137
sS'trials.thisIndex'
p1004
g36
(g80
S';\x00\x00\x00'
tRp1005
sg26
V5
sS'trials.thisRepN'
p1006
I0
sg66
Vpartridge
p1007
sg63
V../experiment_stimuli/bw_bc_bl/Living_Things/Birds/partridge_4.jpg
p1008
sg21
F0.57147051487118006
sS'trials.thisTrialN'
p1009
I83
sa(dp1010
g31
g32
sg17
F479.72628813283518
sg24
I1
sg35
g39
sg14
F479.71973900822923
sg16
g36
(g70
S'\x01\x00\x00\x00'
tRp1011
sg42
g43
sg46
g47
sg15
g100
sg22
F482.80705687589943
sg64
g527
sg62
g74
sg49
g50
sS'trials.thisN'
p1012
I84
sg19
I1
sg27
g36
(g38
S'\x00\x00\x00\x00\x00\x00\x1a@'
tRp1013
sg52
g53
sg23
S'1'
sg18
F481.00241369474679
sg33
g34
sg51
g11
sg20
S'1'
sg65
g36
(g77
S'\x00\x00\x00\x00\x00\x00\x00\x00'
tRp1014
sg44
g45
sg40
g41
sg25
F0.18060883786529303
sS'trials.thisIndex'
p1015
g36
(g80
S'-\x00\x00\x00'
tRp1016
sg26
V5
sS'trials.thisRepN'
p1017
I0
sg66
Vladybird
p1018
sg63
V../experiment_stimuli/bw_bc_bl/Living_Things/Insects/ladybird_8.jpg
p1019
sg21
F1.7840974787250161
sS'trials.thisTrialN'
p1020
I84
sa(dp1021
g31
g32
sg17
F484.72562009515241
sg24
I0
sg35
g39
sg14
F484.7206159629859
sg16
g36
(g70
S'\x02\x00\x00\x00'
tRp1022
sg42
g43
sg46
g47
sg15
g100
sg22
F488.72996411845088
sg64
g217
sg62
g102
sg49
g50
sS'trials.thisN'
p1023
I85
sg19
I0
sg27
g36
(g38
S'\x00\x00\x00\x00\x00\x00\x18@'
tRp1024
sg52
g53
sg23
S'3'
sg18
F486.0133031453006
sg33
g34
sg51
g11
sg20
S'1'
sg65
g36
(g77
S'\x00\x00\x00\x00\x00\x00\x00\x00'
tRp1025
sg44
g45
sg40
g41
sg25
F1.2329084407538176
sS'trials.thisIndex'
p1026
g36
(g80
S'\x00\x00\x00\x00'
tRp1027
sg26
V5
sS'trials.thisRepN'
p1028
I0
sg66
VChest-of-drawers
p1029
sg63
V../experiment_stimuli/bw_bc_bl/Nonliving_Things/Furniture/Chest-of-drawers_5.jpg
p1030
sg21
F2.6961032976396382
sS'trials.thisTrialN'
p1031
I85
sa(dp1032
g31
g32
sg17
F491.7123411661014
sg24
I0
sg35
g39
sg14
F491.70578981610015
sg16
g36
(g70
S'\x01\x00\x00\x00'
tRp1033
sg42
g43
sg46
g47
sg15
g72
sg22
F494.57264004740864
sg64
g149
sg62
g102
sg49
g50
sS'trials.thisN'
p1034
I86
sg19
I1
sg27
g36
(g38
S'\x00\x00\x00\x00\x00\x00\x18@'
tRp1035
sg52
g53
sg23
S'3'
sg18
F492.98847192339599
sg33
g34
sg51
g11
sg20
S'1'
sg65
g36
(g77
S'\x00\x00\x00\x00\x00\x00\x00\x00'
tRp1036
sg44
g45
sg40
g41
sg25
F1.0926062166690826
sS'trials.thisIndex'
p1037
g36
(g80
S'\\\x00\x00\x00'
tRp1038
sg26
V5
sS'trials.thisRepN'
p1039
I0
sg66
Vviolin
p1040
sg63
V../experiment_stimuli/bw_bc_bl/Nonliving_Things/Musical_Inst/violin_15.jpg
p1041
sg21
F1.5636260877363384
sS'trials.thisTrialN'
p1042
I86
sa(dp1043
g31
g32
sg17
F497.4033972742036
sg24
I1
sg35
g39
sg14
F497.39815401053056
sg16
g36
(g70
S'\x01\x00\x00\x00'
tRp1044
sg42
g43
sg46
g47
sg15
g100
sg22
F506.86938392091542
sg64
g114
sg62
g74
sg49
g50
sS'trials.thisN'
p1045
I87
sg19
I1
sg27
g36
(g38
S'\x00\x00\x00\x00\x00\x00\x18@'
tRp1046
sg52
g53
sg23
S'1'
sg18
F498.67082372028381
sg33
g34
sg51
g11
sg20
S'1'
sg65
g36
(g77
S'\x00\x00\x00\x00\x00\x00\x00\x00'
tRp1047
sg44
g45
sg40
g41
sg25
F0.18061012355610728
sS'trials.thisIndex'
p1048
g36
(g80
S'\r\x00\x00\x00'
tRp1049
sg26
V5
sS'trials.thisRepN'
p1050
I0
sg66
Vcat
p1051
sg63
V../experiment_stimuli/bw_bc_bl/Living_Things/Animals/cat_4.jpg
p1052
sg21
F8.178009731695056
sS'trials.thisTrialN'
p1053
I87
sa(dp1054
g31
g32
sg17
F508.78793548233807
sg24
I0
sg35
g39
sg14
F508.78291285829619
sg16
g36
(g70
S'\x02\x00\x00\x00'
tRp1055
sg42
g43
sg46
g47
sg15
g100
sg22
F511.0584989413619
sg64
g183
sg62
g102
sg49
g50
sS'trials.thisN'
p1056
I88
sg19
I1
sg27
g36
(g38
S'\x00\x00\x00\x00\x00\x00\x1a@'
tRp1057
sg52
g53
sg23
S'3'
sg18
F510.04555744444951
sg33
g34
sg51
g11
sg20
S'2'
sg65
g36
(g77
S'\x00\x00\x00\x00\x00\x00\x00\x00'
tRp1058
sg44
g45
sg40
g41
sg25
F0.18061200715601444
sS'trials.thisIndex'
p1059
g36
(g80
S'\x11\x00\x00\x00'
tRp1060
sg26
V5
sS'trials.thisRepN'
p1061
I0
sg66
Vchurch
p1062
sg63
V../experiment_stimuli/bw_bc_bl/Nonliving_Things/Buildings/church_18.jpg
p1063
sg21
F0.99238814832642674
sS'trials.thisTrialN'
p1064
I88
sa(dp1065
g31
g32
sg17
F512.98715376062319
sg24
I1
sg35
g39
sg14
F512.9820361379534
sg16
g36
(g70
S'\x02\x00\x00\x00'
tRp1066
sg42
g43
sg46
g47
sg15
g72
sg22
F514.29553656699136
sg64
g88
sg62
g74
sg49
g50
sS'trials.thisN'
p1067
I89
sg19
I0
sg27
g36
(g38
S'\x00\x00\x00\x00\x00\x00\x18@'
tRp1068
sg52
g53
sg23
S'1'
sg18
F514.22463948465884
sg33
g34
sg51
g11
sg20
S'1'
sg65
g36
(g77
S'\x00\x00\x00\x00\x00\x00\x00\x00'
tRp1069
sg44
g45
sg40
g41
sg25
F0.19063555123284459
sS'trials.thisIndex'
p1070
g36
(g80
S'\x15\x00\x00\x00'
tRp1071
sg26
V5
sS'trials.thisRepN'
p1072
I0
sg66
Vcrab
p1073
sg63
V../experiment_stimuli/bw_bc_bl/Living_Things/Marine_creatures/crab_20.jpg
p1074
sg21
F0.050336264073848724
sS'trials.thisTrialN'
p1075
I89
sa(dp1076
g31
g32
sg17
F516.22404218884185
sg24
I0
sg35
g39
sg14
F516.21908309031278
sg16
g36
(g70
S'\x02\x00\x00\x00'
tRp1077
sg42
g43
sg46
g47
sg15
g72
sg22
F519.63715832261369
sg64
g88
sg62
g74
sg49
g50
sS'trials.thisN'
p1078
I90
sg19
I0
sg27
g36
(g38
S'\x00\x00\x00\x00\x00\x00\x1a@'
tRp1079
sg52
g53
sg23
S'2'
sg18
F517.49173849169165
sg33
g34
sg51
g11
sg20
S'1'
sg65
g36
(g77
S'\x00\x00\x00\x00\x00\x00\x00\x00'
tRp1080
sg44
g45
sg40
g41
sg25
F2.1348646772094071
sS'trials.thisIndex'
p1081
g36
(g80
S'7\x00\x00\x00'
tRp1082
sg26
V5
sS'trials.thisRepN'
p1083
I0
sg66
Vnarwhal
p1084
sg63
V../experiment_stimuli/bw_bc_bl/Living_Things/Marine_creatures/narwhal_4.jpg
p1085
sg21
F2.1248561330139637
sS'trials.thisTrialN'
p1086
I90
sa(dp1087
g31
g32
sg17
F523.5099853919819
sg24
I0
sg35
g39
sg14
F523.50491238152608
sg16
g36
(g70
S'\x02\x00\x00\x00'
tRp1088
sg42
g43
sg46
g47
sg15
g100
sg22
F525.45979286218062
sg64
g217
sg62
g102
sg49
g50
sS'trials.thisN'
p1089
I91
sg19
I1
sg27
g36
(g38
S'\x00\x00\x00\x00\x00\x00\x18@'
tRp1090
sg52
g53
sg23
S'2'
sg18
F524.75753790093586
sg33
g34
sg51
g11
sg20
S'2'
sg65
g36
(g77
S'\x00\x00\x00\x00\x00\x00\x00\x00'
tRp1091
sg44
g45
sg40
g41
sg25
F0.26078160014003515
sS'trials.thisIndex'
p1092
g36
(g80
S'E\x00\x00\x00'
tRp1093
sg26
V5
sS'trials.thisRepN'
p1094
I0
sg66
Vrocking-chair
p1095
sg63
V../experiment_stimuli/bw_bc_bl/Nonliving_Things/Furniture/rocking-chair_16.jpg
p1096
sg21
F0.68170946231111884
sS'trials.thisTrialN'
p1097
I91
sa(dp1098
g31
g32
sg17
F527.45856450032443
sg24
I1
sg35
g39
sg14
F527.45351196685806
sg16
g36
(g70
S'\x01\x00\x00\x00'
tRp1099
sg42
g43
sg46
g47
sg15
g100
sg22
F529.08767483755946
sg64
g88
sg62
g74
sg49
g50
sS'trials.thisN'
p1100
I92
sg19
I1
sg27
g36
(g38
S'\x00\x00\x00\x00\x00\x00\x18@'
tRp1101
sg52
g53
sg23
S'1'
sg18
F528.696099197492
sg33
g34
sg51
g11
sg20
S'1'
sg65
g36
(g77
S'\x00\x00\x00\x00\x00\x00\x00\x00'
tRp1102
sg44
g45
sg40
g41
sg25
F0.29088095016777515
sS'trials.thisIndex'
p1103
g36
(g80
S'1\x00\x00\x00'
tRp1104
sg26
V5
sS'trials.thisRepN'
p1105
I0
sg66
Vlobster
p1106
sg63
V../experiment_stimuli/bw_bc_bl/Living_Things/Marine_creatures/lobster_22.jpg
p1107
sg21
F0.37103233300149441
sS'trials.thisTrialN'
p1108
I92
sa(dp1109
g31
g32
sg17
F531.12651060149074
sg24
I1
sg35
g39
sg14
F531.1214760937728
sg16
g36
(g70
S'\x02\x00\x00\x00'
tRp1110
sg42
g43
sg46
g47
sg15
g72
sg22
F533.14651139685884
sg64
g73
sg62
g74
sg49
g50
sS'trials.thisN'
p1111
I93
sg19
I0
sg27
g36
(g38
S'\x00\x00\x00\x00\x00\x00\x18@'
tRp1112
sg52
g53
sg23
S'1'
sg18
F532.39413754828274
sg33
g34
sg51
g11
sg20
S'1'
sg65
g36
(g77
S'\x00\x00\x00\x00\x00\x00\x00\x00'
tRp1113
sg44
g45
sg40
g41
sg25
F0.22068931674584746
sS'trials.thisIndex'
p1114
g36
(g80
S'3\x00\x00\x00'
tRp1115
sg26
V5
sS'trials.thisRepN'
p1116
I0
sg66
Vmagpie
p1117
sg63
V../experiment_stimuli/bw_bc_bl/Living_Things/Birds/magpie_25.jpg
p1118
sg21
F0.73181405710056424
sS'trials.thisTrialN'
p1119
I93
sa(dp1120
g31
g32
sg17
F535.11516935750842
sg24
I0
sg35
g39
sg14
F535.11014178628102
sg16
g36
(g70
S'\x02\x00\x00\x00'
tRp1121
sg42
g43
sg46
g47
sg15
g72
sg22
F537.29536783974618
sg64
g73
sg62
g74
sg49
g50
sS'trials.thisN'
p1122
I94
sg19
I1
sg27
g36
(g38
S'\x00\x00\x00\x00\x00\x00\x18@'
tRp1123
sg52
g53
sg23
S'3'
sg18
F536.40288061788306
sg33
g34
sg51
g11
sg20
S'2'
sg65
g36
(g77
S'\x00\x00\x00\x00\x00\x00\x00\x00'
tRp1124
sg44
g45
sg40
g41
sg25
F0.77189823426306248
sS'trials.thisIndex'
p1125
g36
(g80
S'F\x00\x00\x00'
tRp1126
sg26
V5
sS'trials.thisRepN'
p1127
I0
sg66
Vrooster
p1128
sg63
V../experiment_stimuli/bw_bc_bl/Living_Things/Birds/rooster_22.jpg
p1129
sg21
F0.87196205789223313
sS'trials.thisTrialN'
p1130
I94
sa(dp1131
g31
g32
sg17
F539.81542921578512
sg24
I0
sg35
g39
sg14
F539.81036078371108
sg16
g36
(g70
S'\x02\x00\x00\x00'
tRp1132
sg42
g43
sg46
g47
sg15
g100
sg22
F541.72518549999222
sg64
g217
sg62
g102
sg49
g50
sS'trials.thisN'
p1133
I95
sg19
I1
sg27
g36
(g38
S'\x00\x00\x00\x00\x00\x00\x1e@'
tRp1134
sg52
g53
sg23
S'3'
sg18
F541.0730097796768
sg33
g34
sg51
g11
sg20
S'2'
sg65
g36
(g77
S'\x00\x00\x00\x00\x00\x00\x00\x00'
tRp1135
sg44
g45
sg40
g41
sg25
F0.48126564873382449
sS'trials.thisIndex'
p1136
g36
(g80
S'\x06\x00\x00\x00'
tRp1137
sg26
V5
sS'trials.thisRepN'
p1138
I0
sg66
Vbedside-table
p1139
sg63
V../experiment_stimuli/bw_bc_bl/Nonliving_Things/Furniture/bedside-table_5.jpg
p1140
sg21
F0.63161367224529386
sS'trials.thisTrialN'
p1141
I95
sasS'loops'
p1142
(lp1143
g1
(cpsychopy.data
TrialHandler
p1144
g3
NtRp1145
(dp1146
S'origin'
p1147
NsS'thisTrial'
p1148
(lp1149
sS'_exp'
p1150
I97317136
sg10
S'trials'
p1151
sg6
I-1
sS'thisRepN'
p1152
I1
sg28
I01
sg29
g30
sS'data'
p1153
g1
(cpsychopy.data
DataHandler
p1154
c__builtin__
dict
p1155
(dp1156
g20
cnumpy.core.multiarray
_reconstruct
p1157
(cnumpy
ndarray
p1158
(I0
tS'b'
tRp1159
(I1
(I96
I1
tg37
(S'O4'
I0
I1
tRp1160
(I3
S'|'
NNNI-1
I-1
I63
tbI00
(lp1161
S'1'
aS'1'
aS'1'
aS'1'
aS'2'
aS'2'
aS'2'
aS'1'
aS'2'
aS'1'
aS'1'
aS'2'
aS'2'
aS'1'
aS'2'
aS'1'
aS'1'
aS'2'
aS'2'
aS'1'
aS'2'
aS'1'
aS'1'
aS'1'
aS'1'
aS'2'
aS'2'
aS'2'
aS'1'
aS'1'
aS'1'
aS'2'
aS'1'
aS'1'
aS'1'
aS'1'
aS'1'
aS'1'
aS'1'
aS'2'
aS'1'
aS'2'
aS'1'
aS'2'
aS'1'
aS'1'
aS'2'
aS'2'
aS'1'
aS'1'
aS'1'
aS'1'
aS'1'
aS'1'
aS'1'
aS'1'
aS'1'
aS'1'
aS'2'
aS'1'
aS'2'
aS'1'
aS'1'
aS'2'
aS'2'
aS'1'
aS'2'
aS'1'
aS'1'
aS'2'
aS'2'
aS'2'
aS'1'
aS'1'
aS'1'
aS'2'
aS'1'
aS'1'
aS'2'
aS'2'
aS'1'
aS'1'
aS'2'
aS'1'
aS'1'
aS'2'
aS'1'
aS'1'
aS'1'
aS'1'
aS'1'
aS'1'
aS'1'
aS'2'
aS'2'
aS'1'
atbsg17
cnumpy.ma.core
_mareconstruct
p1162
(cnumpy.ma.core
MaskedArray
p1163
g1158
(I0
tp1164
S'b'
tRp1165
(I1
(I96
I1
tg37
(S'f4'
I0
I1
tRp1166
(I3
S'<'
NNNI-1
I-1
I0
tbI00
S'\xe1\\\xf2C\x13\xbd\x11C\xdf\xectC\xa9O\xc1CX\xad\xe1B$?\xbfC0\xf4\x06D\x8b\x8c\xbfA\x86\xf7lC\xc3\xa9\x94A\x87uQC\xa2\x97\x0cB[\xb1 C\xa3\xb3\xf8C\x892\xbdB"\xc9~C\x03\x9d\xf2B\xdbd\xfeC\x02\xc2\x0cC\xb7)\x88C\xfa~NB.?\x00Dh\xb3>B\xebG\xd3C\x84E\xd1C\xd8\xdc\x17CS3o@ip$C\x05\xb5-B\x08\xec\xcaC\x9e\xc3\x9cB=\x87\xb4C\r3\xd5C\xeb\xf3\x9aCra\xc8B\xdd\xd7\xc6C\xee\xdd\xe1C\x17:\xd5B\xe1\x89\xbbC%K\xb2C\xf0\xf33CfJ\xe9B\x18^\xbdC\xb4\x05\x86C\xae\x13HC\xf7\xdc\xefC\xc8p7C\x86\xf2\xafB-\x17\xe8CY\xdd\x03D\x10i;C\x19\xc8\x04DL\xd9\xadCX\xe1\x08CHy\xabCW\x0e\x01D\xad\xd7\xc8C\xd2\r\xa9C--\xeaC\x99\xf6\xedC\xaboLC\x1fc\xddCqt/C\xa2\x8d\x96C\xc1\x85AC\xc4\xdf]C\x8b\xcc\x87B\xe0s\xb6Cl\xfcgC\xa4\xe0\x02D_\xc7\x05D\x00\xc9pC\x9e5pB\xd8\x82\xa0C\xd6q\xa2C\xd8+\x8aC}\x10\xa6B\xdb\xe30A\xa13\x7fB\xc8W\xdbC\xe4\xd1\xf2@\xa15^B\xff\t\xecC\x1e\xe2\x98C^t\x82C\x89\xd2\x92B\xa4;\x1eB!\xcc\x9cC\xe3K\xdfC\xc6\x97\xf7A1\xf6\x8eC\xc3\x83+C.\xdb\xf5C\x834UC\x16\xb4xC\t-iA'
S'\x00\x00\x00\x00\x00\x00\x00\x00\x00\x00\x00\x00\x00\x00\x00\x00\x00\x00\x00\x00\x00\x00\x00\x00\x00\x00\x00\x00\x00\x00\x00\x00\x00\x00\x00\x00\x00\x00\x00\x00\x00\x00\x00\x00\x00\x00\x00\x00\x00\x00\x00\x00\x00\x00\x00\x00\x00\x00\x00\x00\x00\x00\x00\x00\x00\x00\x00\x00\x00\x00\x00\x00\x00\x00\x00\x00\x00\x00\x00\x00\x00\x00\x00\x00\x00\x00\x00\x00\x00\x00\x00\x00\x00\x00\x00\x00'
NtbsS'ran'
p1167
g1162
(g1163
g1158
g1164
S'b'
tRp1168
(I1
(I96
I1
tg1166
I00
S'\x00\x00\x80?\x00\x00\x80?\x00\x00\x80?\x00\x00\x80?\x00\x00\x80?\x00\x00\x80?\x00\x00\x80?\x00\x00\x80?\x00\x00\x80?\x00\x00\x80?\x00\x00\x80?\x00\x00\x80?\x00\x00\x80?\x00\x00\x80?\x00\x00\x80?\x00\x00\x80?\x00\x00\x80?\x00\x00\x80?\x00\x00\x80?\x00\x00\x80?\x00\x00\x80?\x00\x00\x80?\x00\x00\x80?\x00\x00\x80?\x00\x00\x80?\x00\x00\x80?\x00\x00\x80?\x00\x00\x80?\x00\x00\x80?\x00\x00\x80?\x00\x00\x80?\x00\x00\x80?\x00\x00\x80?\x00\x00\x80?\x00\x00\x80?\x00\x00\x80?\x00\x00\x80?\x00\x00\x80?\x00\x00\x80?\x00\x00\x80?\x00\x00\x80?\x00\x00\x80?\x00\x00\x80?\x00\x00\x80?\x00\x00\x80?\x00\x00\x80?\x00\x00\x80?\x00\x00\x80?\x00\x00\x80?\x00\x00\x80?\x00\x00\x80?\x00\x00\x80?\x00\x00\x80?\x00\x00\x80?\x00\x00\x80?\x00\x00\x80?\x00\x00\x80?\x00\x00\x80?\x00\x00\x80?\x00\x00\x80?\x00\x00\x80?\x00\x00\x80?\x00\x00\x80?\x00\x00\x80?\x00\x00\x80?\x00\x00\x80?\x00\x00\x80?\x00\x00\x80?\x00\x00\x80?\x00\x00\x80?\x00\x00\x80?\x00\x00\x80?\x00\x00\x80?\x00\x00\x80?\x00\x00\x80?\x00\x00\x80?\x00\x00\x80?\x00\x00\x80?\x00\x00\x80?\x00\x00\x80?\x00\x00\x80?\x00\x00\x80?\x00\x00\x80?\x00\x00\x80?\x00\x00\x80?\x00\x00\x80?\x00\x00\x80?\x00\x00\x80?\x00\x00\x80?\x00\x00\x80?\x00\x00\x80?\x00\x00\x80?\x00\x00\x80?\x00\x00\x80?\x00\x00\x80?\x00\x00\x80?'
S'\x00\x00\x00\x00\x00\x00\x00\x00\x00\x00\x00\x00\x00\x00\x00\x00\x00\x00\x00\x00\x00\x00\x00\x00\x00\x00\x00\x00\x00\x00\x00\x00\x00\x00\x00\x00\x00\x00\x00\x00\x00\x00\x00\x00\x00\x00\x00\x00\x00\x00\x00\x00\x00\x00\x00\x00\x00\x00\x00\x00\x00\x00\x00\x00\x00\x00\x00\x00\x00\x00\x00\x00\x00\x00\x00\x00\x00\x00\x00\x00\x00\x00\x00\x00\x00\x00\x00\x00\x00\x00\x00\x00\x00\x00\x00\x00'
Ntbsg24
g1162
(g1163
g1158
g1164
S'b'
tRp1169
(I1
(I96
I1
tg1166
I00
S'\x00\x00\x00\x00\x00\x00\x00\x00\x00\x00\x00\x00\x00\x00\x80?\x00\x00\x80?\x00\x00\x00\x00\x00\x00\x00\x00\x00\x00\x80?\x00\x00\x80?\x00\x00\x00\x00\x00\x00\x00\x00\x00\x00\x80?\x00\x00\x00\x00\x00\x00\x80?\x00\x00\x00\x00\x00\x00\x80?\x00\x00\x80?\x00\x00\x00\x00\x00\x00\x00\x00\x00\x00\x00\x00\x00\x00\x00\x00\x00\x00\x80?\x00\x00\x00\x00\x00\x00\x00\x00\x00\x00\x00\x00\x00\x00\x00\x00\x00\x00\x00\x00\x00\x00\x00\x00\x00\x00\x80?\x00\x00\x80?\x00\x00\x00\x00\x00\x00\x80?\x00\x00\x80?\x00\x00\x80?\x00\x00\x00\x00\x00\x00\x00\x00\x00\x00\x80?\x00\x00\x80?\x00\x00\x80?\x00\x00\x00\x00\x00\x00\x80?\x00\x00\x00\x00\x00\x00\x80?\x00\x00\x00\x00\x00\x00\x80?\x00\x00\x80?\x00\x00\x00\x00\x00\x00\x00\x00\x00\x00\x00\x00\x00\x00\x80?\x00\x00\x80?\x00\x00\x80?\x00\x00\x80?\x00\x00\x00\x00\x00\x00\x00\x00\x00\x00\x00\x00\x00\x00\x00\x00\x00\x00\x00\x00\x00\x00\x80?\x00\x00\x00\x00\x00\x00\x00\x00\x00\x00\x00\x00\x00\x00\x00\x00\x00\x00\x00\x00\x00\x00\x00\x00\x00\x00\x00\x00\x00\x00\x80?\x00\x00\x80?\x00\x00\x80?\x00\x00\x00\x00\x00\x00\x00\x00\x00\x00\x00\x00\x00\x00\x80?\x00\x00\x00\x00\x00\x00\x80?\x00\x00\x00\x00\x00\x00\x80?\x00\x00\x80?\x00\x00\x00\x00\x00\x00\x00\x00\x00\x00\x80?\x00\x00\x80?\x00\x00\x00\x00\x00\x00\x00\x00\x00\x00\x80?\x00\x00\x80?\x00\x00\x80?\x00\x00\x80?\x00\x00\x00\x00\x00\x00\x00\x00\x00\x00\x80?\x00\x00\x80?\x00\x00\x00\x00\x00\x00\x80?\x00\x00\x00\x00\x00\x00\x00\x00'
S'\x00\x00\x00\x00\x00\x00\x00\x00\x00\x00\x00\x00\x00\x00\x00\x00\x00\x00\x00\x00\x00\x00\x00\x00\x00\x00\x00\x00\x00\x00\x00\x00\x00\x00\x00\x00\x00\x00\x00\x00\x00\x00\x00\x00\x00\x00\x00\x00\x00\x00\x00\x00\x00\x00\x00\x00\x00\x00\x00\x00\x00\x00\x00\x00\x00\x00\x00\x00\x00\x00\x00\x00\x00\x00\x00\x00\x00\x00\x00\x00\x00\x00\x00\x00\x00\x00\x00\x00\x00\x00\x00\x00\x00\x00\x00\x00'
Ntbsg14
g1162
(g1163
g1158
g1164
S'b'
tRp1170
(I1
(I96
I1
tg1166
I00
S'=\\\xf2C\xcc\xbb\x11CR\xebtC\x03O\xc1C\x02\xaa\xe1B\x81>\xbfC\xdd\xf3\x06D\xa5\x82\xbfAA\xf6lC\xfb\x9d\x94A\xbesQC\x95\x92\x0cB\xa3\xaf C\xf7\xb2\xf8CN/\xbdB\xda\xc7~C\xd6\x99\xf2B6d\xfeC\xb4\xc0\x0cC\xce(\x88C\xd8yNB\xda>\x00Dz\xae>B\x18G\xd3C\xb3D\xd1C^\xdb\x17CD\xc0m@*o$CK\xaf-Bg\xeb\xcaC\x1a\xc1\x9cB\x9e\x86\xb4Ch2\xd5CD\xf3\x9aC\x81^\xc8B7\xd7\xc6CK\xdd\xe1C\x907\xd5B>\x89\xbbC\x7fJ\xb2C\xae\xf23C\xd9G\xe9Bv]\xbdC\x0f\x05\x86C\\\x12HC \xdc\xefC\x80o7C\x9c\xef\xafB\x86\x16\xe8C\x06\xdd\x03Dxg;C\xc6\xc7\x04D\xaa\xd8\xadC\xd3\xdf\x08C\xa0x\xabC\x05\x0e\x01D\x0c\xd7\xc8C\x08\r\xa9C),\xeaC\xf3\xf5\xedCcnLC{b\xddC\xbcr/C\xfb\x8c\x96Cy\x84AC~\xde]C\xe8\xc9\x87B6s\xb6C)\xfbgCP\xe0\x02D\r\xc7\x05D\xbd\xc7pCp0pB\xe1\x81\xa0C\tq\xa2C4+\x8aC\xf4\r\xa6B\x01\xd00A\x88.\x7fB\x1aW\xdbC\xdd\xa9\xf2@\xa70^B[\t\xecCy\xe1\x98C\xb5s\x82C\x0b\xd0\x92B\x006\x1eBU\xcb\x9cC:K\xdfC[\x8d\xf7A\x8d\xf5\x8eCw\x82+CW\xda\xf5CE3UC\x8b\xb2xCA\x18iA'
S'\x00\x00\x00\x00\x00\x00\x00\x00\x00\x00\x00\x00\x00\x00\x00\x00\x00\x00\x00\x00\x00\x00\x00\x00\x00\x00\x00\x00\x00\x00\x00\x00\x00\x00\x00\x00\x00\x00\x00\x00\x00\x00\x00\x00\x00\x00\x00\x00\x00\x00\x00\x00\x00\x00\x00\x00\x00\x00\x00\x00\x00\x00\x00\x00\x00\x00\x00\x00\x00\x00\x00\x00\x00\x00\x00\x00\x00\x00\x00\x00\x00\x00\x00\x00\x00\x00\x00\x00\x00\x00\x00\x00\x00\x00\x00\x00'
Ntbsg16
g1157
(g1158
(I0
tS'b'
tRp1171
(I1
(I96
I1
tg1160
I00
(lp1172
g1022
ag394
ag593
ag846
ag339
ag835
ag1132
ag137
ag571
ag125
ag526
ag160
ag416
ag1044
ag305
ag615
ag361
ag1055
ag383
ag648
ag205
ag1066
ag194
ag901
ag890
ag405
ag71
ag427
ag182
ag879
ag272
ag791
ag912
ag703
ag316
ag857
ag956
ag327
ag813
ag780
ag460
ag350
ag824
ag637
ag504
ag1011
ag471
ag294
ag967
ag1099
ag482
ag1110
ag769
ag372
ag758
ag1077
ag868
ag747
ag978
ag1000
ag515
ag934
ag449
ag681
ag493
ag549
ag250
ag802
ag560
ag1088
ag1121
ag582
ag228
ag725
ag736
ag659
ag283
ag99
ag239
ag923
ag87
ag216
ag989
ag692
ag626
ag261
ag171
ag714
ag945
ag148
ag670
ag438
ag1033
ag538
ag604
ag113
atbsg15
g1157
(g1158
(I0
tS'b'
tRp1173
(I1
(I96
I1
tg1160
I00
(lp1174
g100
ag100
ag72
ag100
ag72
ag72
ag100
ag72
ag100
ag72
ag100
ag100
ag100
ag100
ag100
ag100
ag72
ag100
ag100
ag72
ag100
ag72
ag72
ag72
ag100
ag100
ag72
ag72
ag100
ag72
ag100
ag100
ag72
ag100
ag100
ag72
ag100
ag72
ag72
ag72
ag72
ag100
ag72
ag72
ag72
ag100
ag100
ag100
ag100
ag100
ag72
ag72
ag72
ag72
ag72
ag72
ag100
ag100
ag100
ag100
ag72
ag100
ag100
ag72
ag100
ag72
ag100
ag100
ag72
ag100
ag72
ag100
ag72
ag100
ag100
ag100
ag100
ag100
ag100
ag72
ag72
ag72
ag72
ag72
ag100
ag72
ag72
ag72
ag72
ag72
ag100
ag100
ag72
ag100
ag72
ag100
atbsg22
g1162
(g1163
g1158
g1164
S'b'
tRp1175
(I1
(I96
I1
tg1166
I00
S'o]\xf4C\xb8\xd4\x14C\xda\xbbvC\'\xdd\xc5CCU\xe5BAM\xc0Cin\x07Dg\x15\xe8A\xbf\xd8nC\x0eR\xafA\xb4ASC\x93\x08\x15B\xe9u"CHo\xfdC\xfa\xf9\xc1B^x\x81CE\xee\x06C}\x87\xffC`\xd1\x0eC+(\x89C 7VB\xea\x92\x00D\x93\xb3FB\x107\xd4C\xc1K\xd2C\x08\x95\x1eC6O\xb0@\x10\x0e)C\x8e\xf26B4M\xd0C\xf3\xb9\xa1BMu\xb5C\x9c_\xdaC\x93\xc9\x9bC\xe4\xa8\xccBI\xd5\xc7C\x06\x1f\xe7C\xa0\xbc\xddB[l\xbcCm~\xb3C\xa3\x855C&\x03\xeeBKH\xbeC\xc4\x1c\x87C\xb3wJCNg\xf1C\xb0k9C\xfa1\xb8B\xcb9\xe9C\x9cE\x04D\xca\x8d?C`I\x05D\xdfM\xb1C0\xbd\nC\xc5\xd1\xacC\xc7\xe8\x01D1\xf5\xc9C\x08j\xaaCs\x0b\xebC\xe9\xe5\xeeC\xe4\x8bNC)Q\xdeC`\x951C\x90\xe3\x97C\xb8\tFC\\<eCS\xfc\x8eB\xbe\x91\xbaC\xcb\tkCm]\x03D\xe7R\x06D\x1b\xe0rC\x8brwBAx\xa1C\xb0\x11\xa8C5\xfa\x8dC\xd9\xf2\xabB>\xd6IA\x8a\xdc\x83B\x98[\xdcCV\x8e\x11A\xb0UhB+\xfd\xecC\xa8\xed\x99Cm\x08\x85C\x9f\x81\x98B\xcf\x07&Bb\x8a\x9fC\xf9Y\xe0C\xd6\xb7\x04B\x0c\x98\x95C\x17j-CLI\xf7C\xeb\x00[Cq\x18|C\x0eO\x85A'
S'\x00\x00\x00\x00\x00\x00\x00\x00\x00\x00\x00\x00\x00\x00\x00\x00\x00\x00\x00\x00\x00\x00\x00\x00\x00\x00\x00\x00\x00\x00\x00\x00\x00\x00\x00\x00\x00\x00\x00\x00\x00\x00\x00\x00\x00\x00\x00\x00\x00\x00\x00\x00\x00\x00\x00\x00\x00\x00\x00\x00\x00\x00\x00\x00\x00\x00\x00\x00\x00\x00\x00\x00\x00\x00\x00\x00\x00\x00\x00\x00\x00\x00\x00\x00\x00\x00\x00\x00\x00\x00\x00\x00\x00\x00\x00\x00'
Ntbsg26
g1157
(g1158
(I0
tS'b'
tRp1176
(I1
(I96
I1
tg1160
I00
(lp1177
g36
(g80
S'\x07\x00\x00\x00'
tRp1178
ag36
(g80
S'\x06\x00\x00\x00'
tRp1179
ag36
(g80
S'\x04\x00\x00\x00'
tRp1180
ag36
(g80
S'\r\x00\x00\x00'
tRp1181
ag36
(g80
S'\x05\x00\x00\x00'
tRp1182
ag36
(g80
S'\x10\x00\x00\x00'
tRp1183
ag36
(g80
S'\x04\x00\x00\x00'
tRp1184
ag36
(g80
S'\x02\x00\x00\x00'
tRp1185
ag36
(g80
S'\x04\x00\x00\x00'
tRp1186
ag36
(g80
S'\x03\x00\x00\x00'
tRp1187
ag36
(g80
S'\x04\x00\x00\x00'
tRp1188
ag36
(g80
S'\x03\x00\x00\x00'
tRp1189
ag36
(g80
S'\x04\x00\x00\x00'
tRp1190
ag36
(g80
S'\x03\x00\x00\x00'
tRp1191
ag36
(g80
S'\x08\x00\x00\x00'
tRp1192
ag36
(g80
S'\x01\x00\x00\x00'
tRp1193
ag36
(g80
S'\x07\x00\x00\x00'
tRp1194
ag36
(g80
S'\x04\x00\x00\x00'
tRp1195
ag36
(g80
S'\x07\x00\x00\x00'
tRp1196
ag36
(g80
S'\x06\x00\x00\x00'
tRp1197
ag36
(g80
S'\x05\x00\x00\x00'
tRp1198
ag36
(g80
S'\x02\x00\x00\x00'
tRp1199
ag36
(g80
S'\x08\x00\x00\x00'
tRp1200
ag36
(g80
S'\x0c\x00\x00\x00'
tRp1201
ag36
(g80
S'\x0e\x00\x00\x00'
tRp1202
ag36
(g80
S'\x05\x00\x00\x00'
tRp1203
aS'5.0'
p1204
ag36
(g80
S'\x03\x00\x00\x00'
tRp1205
ag36
(g80
S'\x05\x00\x00\x00'
tRp1206
ag36
(g80
S'\r\x00\x00\x00'
tRp1207
ag36
(g80
S'\n\x00\x00\x00'
tRp1208
ag36
(g80
S'\x05\x00\x00\x00'
tRp1209
ag36
(g80
S'\x0b\x00\x00\x00'
tRp1210
ag36
(g80
S'\x03\x00\x00\x00'
tRp1211
ag36
(g80
S'\x07\x00\x00\x00'
tRp1212
ag36
(g80
S'\x10\x00\x00\x00'
tRp1213
ag36
(g80
S'\x06\x00\x00\x00'
tRp1214
ag36
(g80
S'\x04\x00\x00\x00'
tRp1215
ag36
(g80
S'\x0b\x00\x00\x00'
tRp1216
ag36
(g80
S'\x06\x00\x00\x00'
tRp1217
ag36
(g80
S'\x03\x00\x00\x00'
tRp1218
ag36
(g80
S'\x08\x00\x00\x00'
tRp1219
ag36
(g80
S'\r\x00\x00\x00'
tRp1220
ag36
(g80
S'\x07\x00\x00\x00'
tRp1221
ag36
(g80
S'\x03\x00\x00\x00'
tRp1222
ag36
(g80
S'\x05\x00\x00\x00'
tRp1223
ag36
(g80
S'\x06\x00\x00\x00'
tRp1224
ag36
(g80
S'\x0b\x00\x00\x00'
tRp1225
ag36
(g80
S'\x08\x00\x00\x00'
tRp1226
ag36
(g80
S'\x02\x00\x00\x00'
tRp1227
ag36
(g80
S'\x03\x00\x00\x00'
tRp1228
ag36
(g80
S'\x05\x00\x00\x00'
tRp1229
ag36
(g80
S'\x05\x00\x00\x00'
tRp1230
ag36
(g80
S'\t\x00\x00\x00'
tRp1231
ag36
(g80
S'\x07\x00\x00\x00'
tRp1232
ag36
(g80
S'\x04\x00\x00\x00'
tRp1233
ag36
(g80
S'\x0e\x00\x00\x00'
tRp1234
ag36
(g80
S'\n\x00\x00\x00'
tRp1235
ag36
(g80
S'\x06\x00\x00\x00'
tRp1236
ag36
(g80
S'\x06\x00\x00\x00'
tRp1237
ag36
(g80
S'\x05\x00\x00\x00'
tRp1238
ag36
(g80
S'\t\x00\x00\x00'
tRp1239
ag36
(g80
S'\x04\x00\x00\x00'
tRp1240
ag36
(g80
S'\x06\x00\x00\x00'
tRp1241
ag36
(g80
S'\x05\x00\x00\x00'
tRp1242
ag36
(g80
S'\x04\x00\x00\x00'
tRp1243
ag36
(g80
S'\x05\x00\x00\x00'
tRp1244
ag36
(g80
S'\x08\x00\x00\x00'
tRp1245
ag36
(g80
S'\x03\x00\x00\x00'
tRp1246
ag36
(g80
S'\x03\x00\x00\x00'
tRp1247
ag36
(g80
S'\x07\x00\x00\x00'
tRp1248
ag36
(g80
S'\x07\x00\x00\x00'
tRp1249
ag36
(g80
S'\x04\x00\x00\x00'
tRp1250
ag36
(g80
S'\x08\x00\x00\x00'
tRp1251
ag36
(g80
S'\x07\x00\x00\x00'
tRp1252
ag36
(g80
S'\x05\x00\x00\x00'
tRp1253
ag36
(g80
S'\x08\x00\x00\x00'
tRp1254
ag36
(g80
S'\x03\x00\x00\x00'
tRp1255
ag36
(g80
S'\x06\x00\x00\x00'
tRp1256
ag36
(g80
S'\x0c\x00\x00\x00'
tRp1257
ag36
(g80
S'\x02\x00\x00\x00'
tRp1258
ag36
(g80
S'\x03\x00\x00\x00'
tRp1259
ag36
(g80
S'\x07\x00\x00\x00'
tRp1260
ag36
(g80
S'\x05\x00\x00\x00'
tRp1261
ag36
(g80
S'\x04\x00\x00\x00'
tRp1262
ag36
(g80
S'\x08\x00\x00\x00'
tRp1263
ag36
(g80
S'\x04\x00\x00\x00'
tRp1264
ag36
(g80
S'\x06\x00\x00\x00'
tRp1265
ag36
(g80
S'\x07\x00\x00\x00'
tRp1266
ag36
(g80
S'\x05\x00\x00\x00'
tRp1267
ag36
(g80
S'\x04\x00\x00\x00'
tRp1268
aI1
ag36
(g80
S'\x05\x00\x00\x00'
tRp1269
ag36
(g80
S'\x02\x00\x00\x00'
tRp1270
ag36
(g80
S'\x03\x00\x00\x00'
tRp1271
ag36
(g80
S'\x04\x00\x00\x00'
tRp1272
atbsg21
g1162
(g1163
g1158
g1164
S'b'
tRp1273
(I1
(I96
I1
tg1166
I00
S"\xf5\x8c,@\x14\xa6\xe5?\x9c\x08\x08?\xe8C\xf7@:\x8e\n?\xbc66?o\xb1!?\x9e\xbes@V\xfe\x19?f$\x04@\\w\x05?\x10\x91W?a\x8b\xfb>!\xd9\x02A\x8aI\x89?\xfe\x04:@l\x12EA&\r~?\xb3y@?\x93\x161?\xb2B$?f-N=O\x84.?(\xe7\x02?P\xf4+?B\xd3\xad@\x8ci\xf6>\xd0=V@\x91\xe1\x82?\x1c\x17\x16A?D\x92?&\xbb\x0f?'\xff\x0fA\xd5\\\xcd>\xbc\x00U?\x9c\xdc\x14?\x1e4\x13A6\x82>@x\x8a\xd7>o\x1d\x8d?\xf2\x0c\x9a>\xfcp\x85?x%\xec>\x029_?\x9c\xb3\x8f?N]\xe4?\xdf\x8d.?L\n1@\xc2\xc9s?\xf3\xf7\xbd>\x95\x188@+X;?/\xeb\xb3@\xc9w\x05?[\xc5\xaf?\xa5\xfd\x07@=\x92W?\x8b\xc5\xaf?\xe6\xc3\xdc>\xe4K\x12?\x0fqR?\xb6\x08\x08?\x0f#Z?\x8a\xc5\xaf?\xfe{N@\xad\xab\xc2@\xe9\x88\x13@\xa7\xf7\xdc@=X\xe4?\x83\x84.?\xe88_?\x84,H?i\x08\x08?\x01\xfe\x19?\xc8\x11\x1fA\n^\xca@\xc6\xd7\xcf?\xcd\xc9\x8f>\x88\x00U?\xc6b)?\x8ao\x80>Ha\xa0?\xa5m\x17?\xb7MM?\xf0;x@o\x03\xc3?\xdb\xf3+?\x02\x0f\x86@\xf0MM?\xa48q?\xd7\xc7?A\xdc\xd1&?\xe6$\xc8?\x83H\x91@\x8d\xfd\x07@\x14\xdfO?"
S'\x00\x00\x00\x00\x00\x00\x00\x00\x00\x00\x00\x00\x00\x00\x00\x00\x00\x00\x00\x00\x00\x00\x00\x00\x00\x00\x00\x00\x00\x00\x00\x00\x00\x00\x00\x00\x00\x00\x00\x00\x00\x00\x00\x00\x00\x00\x00\x00\x00\x00\x00\x00\x00\x00\x00\x00\x00\x00\x00\x00\x00\x00\x00\x00\x00\x00\x00\x00\x00\x00\x00\x00\x00\x00\x00\x00\x00\x00\x00\x00\x00\x00\x00\x00\x00\x00\x00\x00\x00\x00\x00\x00\x00\x00\x00\x00'
NtbsS'order'
p1274
g1162
(g1163
g1158
g1164
S'b'
tRp1275
(I1
(I96
I1
tg1166
I00
S'\x00\x00\xaaB\x00\x00\xe0A\x00\x008B\x00\x00\x8aB\x00\x00\xb8A\x00\x00\x88B\x00\x00\xbeB\x00\x00\xa0@\x00\x000B\x00\x00\x80@\x00\x00 B\x00\x00\xe0@\x00\x00\xf0A\x00\x00\xaeB\x00\x00\xa0A\x00\x00@B\x00\x00\xc8A\x00\x00\xb0B\x00\x00\xd8A\x00\x00LB\x00\x000A\x00\x00\xb2B\x00\x00 A\x00\x00\x94B\x00\x00\x92B\x00\x00\xe8A\x00\x00\x00\x00\x00\x00\xf8A\x00\x00\x10A\x00\x00\x90B\x00\x00\x88A\x00\x00\x80B\x00\x00\x96B\x00\x00`B\x00\x00\xa8A\x00\x00\x8cB\x00\x00\x9eB\x00\x00\xb0A\x00\x00\x84B\x00\x00|B\x00\x00\x08B\x00\x00\xc0A\x00\x00\x86B\x00\x00HB\x00\x00\x18B\x00\x00\xa8B\x00\x00\x0cB\x00\x00\x98A\x00\x00\xa0B\x00\x00\xb8B\x00\x00\x10B\x00\x00\xbaB\x00\x00xB\x00\x00\xd0A\x00\x00tB\x00\x00\xb4B\x00\x00\x8eB\x00\x00pB\x00\x00\xa2B\x00\x00\xa6B\x00\x00\x1cB\x00\x00\x9aB\x00\x00\x04B\x00\x00XB\x00\x00\x14B\x00\x00(B\x00\x00pA\x00\x00\x82B\x00\x00,B\x00\x00\xb6B\x00\x00\xbcB\x00\x004B\x00\x00PA\x00\x00hB\x00\x00lB\x00\x00PB\x00\x00\x90A\x00\x00\x00@\x00\x00`A\x00\x00\x98B\x00\x00\x80?\x00\x00@A\x00\x00\xa4B\x00\x00\\B\x00\x00DB\x00\x00\x80A\x00\x00\x00A\x00\x00dB\x00\x00\x9cB\x00\x00\xc0@\x00\x00TB\x00\x00\x00B\x00\x00\xacB\x00\x00$B\x00\x00<B\x00\x00@@'
S'\x00\x00\x00\x00\x00\x00\x00\x00\x00\x00\x00\x00\x00\x00\x00\x00\x00\x00\x00\x00\x00\x00\x00\x00\x00\x00\x00\x00\x00\x00\x00\x00\x00\x00\x00\x00\x00\x00\x00\x00\x00\x00\x00\x00\x00\x00\x00\x00\x00\x00\x00\x00\x00\x00\x00\x00\x00\x00\x00\x00\x00\x00\x00\x00\x00\x00\x00\x00\x00\x00\x00\x00\x00\x00\x00\x00\x00\x00\x00\x00\x00\x00\x00\x00\x00\x00\x00\x00\x00\x00\x00\x00\x00\x00\x00\x00'
Ntbsg19
g1162
(g1163
g1158
g1164
S'b'
tRp1276
(I1
(I96
I1
tg1166
I00
S'\x00\x00\x00\x00\x00\x00\x80?\x00\x00\x80?\x00\x00\x00\x00\x00\x00\x80?\x00\x00\x00\x00\x00\x00\x80?\x00\x00\x80?\x00\x00\x80?\x00\x00\x80?\x00\x00\x80?\x00\x00\x80?\x00\x00\x80?\x00\x00\x80?\x00\x00\x80?\x00\x00\x00\x00\x00\x00\x00\x00\x00\x00\x80?\x00\x00\x80?\x00\x00\x80?\x00\x00\x00\x00\x00\x00\x00\x00\x00\x00\x80?\x00\x00\x00\x00\x00\x00\x80?\x00\x00\x80?\x00\x00\x80?\x00\x00\x80?\x00\x00\x00\x00\x00\x00\x80?\x00\x00\x00\x00\x00\x00\x80?\x00\x00\x00\x00\x00\x00\x80?\x00\x00\x80?\x00\x00\x80?\x00\x00\x00\x00\x00\x00\x80?\x00\x00\x00\x00\x00\x00\x80?\x00\x00\x00\x00\x00\x00\x80?\x00\x00\x00\x00\x00\x00\x80?\x00\x00\x00\x00\x00\x00\x80?\x00\x00\x80?\x00\x00\x80?\x00\x00\x80?\x00\x00\x80?\x00\x00\x00\x00\x00\x00\x00\x00\x00\x00\x00\x00\x00\x00\x80?\x00\x00\x80?\x00\x00\x00\x00\x00\x00\x80?\x00\x00\x80?\x00\x00\x80?\x00\x00\x80?\x00\x00\x80?\x00\x00\x80?\x00\x00\x00\x00\x00\x00\x80?\x00\x00\x80?\x00\x00\x00\x00\x00\x00\x80?\x00\x00\x80?\x00\x00\x00\x00\x00\x00\x80?\x00\x00\x80?\x00\x00\x80?\x00\x00\x80?\x00\x00\x80?\x00\x00\x80?\x00\x00\x00\x00\x00\x00\x00\x00\x00\x00\x00\x00\x00\x00\x80?\x00\x00\x80?\x00\x00\x00\x00\x00\x00\x80?\x00\x00\x80?\x00\x00\x80?\x00\x00\x80?\x00\x00\x80?\x00\x00\x80?\x00\x00\x80?\x00\x00\x80?\x00\x00\x80?\x00\x00\x80?\x00\x00\x00\x00\x00\x00\x80?\x00\x00\x80?\x00\x00\x80?\x00\x00\x80?'
S'\x00\x00\x00\x00\x00\x00\x00\x00\x00\x00\x00\x00\x00\x00\x00\x00\x00\x00\x00\x00\x00\x00\x00\x00\x00\x00\x00\x00\x00\x00\x00\x00\x00\x00\x00\x00\x00\x00\x00\x00\x00\x00\x00\x00\x00\x00\x00\x00\x00\x00\x00\x00\x00\x00\x00\x00\x00\x00\x00\x00\x00\x00\x00\x00\x00\x00\x00\x00\x00\x00\x00\x00\x00\x00\x00\x00\x00\x00\x00\x00\x00\x00\x00\x00\x00\x00\x00\x00\x00\x00\x00\x00\x00\x00\x00\x00'
Ntbsg27
g1157
(g1158
(I0
tS'b'
tRp1277
(I1
(I96
I1
tg1160
I00
(lp1278
g1024
ag396
ag595
ag848
ag341
ag837
ag1134
ag139
ag573
ag128
ag529
ag162
ag418
ag1046
ag307
ag617
ag363
ag1057
ag385
ag650
ag207
ag1068
ag196
ag903
ag892
ag407
ag76
ag429
ag185
ag881
ag274
ag793
ag914
ag705
ag318
ag859
ag958
ag330
ag815
ag782
ag462
ag352
ag826
ag639
ag506
ag1013
ag473
ag296
ag969
ag1101
ag484
ag1112
ag771
ag374
ag760
ag1079
ag870
ag749
ag980
ag1002
ag517
ag936
ag451
ag683
ag495
ag551
ag252
ag804
ag562
ag1090
ag1123
ag584
ag230
ag727
ag738
ag661
ag285
ag104
ag241
ag925
ag90
ag219
ag991
ag694
ag628
ag263
ag173
ag716
ag947
ag151
ag672
ag440
ag1035
ag540
ag606
ag116
atbsg23
g1157
(g1158
(I0
tS'b'
tRp1279
(I1
(I96
I1
tg1160
I00
(lp1280
S'3'
aS'2'
aS'2'
aS'1'
aS'1'
aS'3'
aS'3'
aS'1'
aS'1'
aS'2'
aS'3'
aS'1'
aS'2'
aS'1'
aS'2'
aS'1'
aS'1'
aS'3'
aS'2'
aS'2'
aS'3'
aS'1'
aS'3'
aS'2'
aS'3'
aS'2'
aS'3'
aS'3'
aS'1'
aS'1'
aS'3'
aS'1'
aS'1'
aS'1'
aS'3'
aS'3'
aS'1'
aS'1'
aS'1'
aS'2'
aS'1'
aS'2'
aS'1'
aS'2'
aS'1'
aS'1'
aS'3'
aS'3'
aS'3'
aS'1'
aS'1'
aS'1'
aS'1'
aS'3'
aS'3'
aS'2'
aS'2'
aS'3'
aS'1'
aS'2'
aS'2'
aS'3'
aS'2'
aS'2'
aS'3'
aS'2'
aS'1'
aS'1'
aS'1'
aS'2'
aS'3'
aS'3'
aS'1'
aS'2'
aS'1'
aS'2'
aS'1'
aS'1'
aS'2'
aS'3'
aS'1'
aS'1'
aS'2'
aS'3'
aS'1'
aS'1'
aS'1'
aS'1'
aS'2'
aS'3'
aS'1'
aS'1'
aS'3'
aS'1'
aS'3'
aS'2'
atbsg18
g1162
(g1163
g1158
g1164
S'b'
tRp1281
(I1
(I96
I1
tg1166
I00
S'\xb4\x01\xf3C*\x04\x13C\x8f.vCv\xfd\xc1C\x9e5\xe4B\x84\xef\xbfC\xacD\x07D\x81s\xc9A~9nCZ\xa3\x9eA\xfa\xb6RCF\x95\x11B\xe0\xf2!C\xdeU\xf9CN\xca\xbfB\xb2\x01\x80C\xb4/\xf5B\xd5\x05\xffC\xa4\x0b\x0eC\xfe\xcc\x88C\t\x91SB`\x8e\x00Dx\xe4CB\xfa\xf2\xd3C%\xf3\xd1C+!\x19C\xa7\xeb\x9f@\xd6\xaf%Cw\xc62B\xda\x99\xcbC\\f\x9fB\xce*\xb5C\x00\xdd\xd5C\x9a\x93\x9bC]\xf4\xcaB:\x88\xc7C\xc3\x82\xe2C\n\xbe\xd7B\xd83\xbcC\xae\xee\xb2CZ35C\xd9\xe2\xebB\xa0\n\xbeC\x86\xaa\x86C\x08SICO\x80\xf0C\xde\xb78C\x02\x9a\xb2BE\xbd\xe8C\x8d,\x04D$\xa8<C:\x19\x05D\x90{\xaeC\xe4/\nC_\x1f\xacCy_\x01D\xc6\x86\xc9C\xa1\xb7\xa9C\xa1\xd1\xeaC"\x9a\xeeC0\xb4MC\x84\n\xdeC\xf9\xb50C)1\x97CG\xcaBC\xbb!_C\x84U\x8aB\xf6\x19\xb7C\xd5;iC|0\x03D\xc9\x19\x06D\xac\x12rC`=uB\xa1(\xa1C\x80\x16\xa3C\x1b\xce\x8aC\xf4\xa8\xa8B\xb6\xdaDA\x02(\x82BE\x04\xdcC\xa36\rAV3cB\xd3\xae\xecC`\x84\x99CT\x15\x83C\x0bk\x95B\xf3B#B\x84o\x9dC\xb1\xf0\xdfC\xe3\xdd\x00B+\x97\x8fC\x01\xbe,C\x86~\xf6C`qVC7\xf3yC\rL}A'
S'\x00\x00\x00\x00\x00\x00\x00\x00\x00\x00\x00\x00\x00\x00\x00\x00\x00\x00\x00\x00\x00\x00\x00\x00\x00\x00\x00\x00\x00\x00\x00\x00\x00\x00\x00\x00\x00\x00\x00\x00\x00\x00\x00\x00\x00\x00\x00\x00\x00\x00\x00\x00\x00\x00\x00\x00\x00\x00\x00\x00\x00\x00\x00\x00\x00\x00\x00\x00\x00\x00\x00\x00\x00\x00\x00\x00\x00\x00\x00\x00\x00\x00\x00\x00\x00\x00\x00\x00\x00\x00\x00\x00\x00\x00\x00\x00'
Ntbsg25
g1162
(g1163
g1158
g1164
S'b'
tRp1282
(I1
(I96
I1
tg1166
I00
S'\xf2\xcf\x9d?7\x82\xa5?R@l>p\xffa>\x94\x86v>,\xc9\x8f>sh\xf6>\x85PM>\xa5yM>b\xeb\x94>\x08\xbeW>\xea\xba\x0f?:\x86v>\xdc\xf18>\xacP\xbb?\xb7Bl>H\xbaW>[\xf28>\xdfe\x97?\x10\xeb\x94>m\x85\x85>\xf75C>7\xbcW>\xfc\xfea>LAl>\xc1\xf7\xbd>@\x93\xae>q\xc78?\x92xM>\x84{M>\x7fC\xdd>\x1ed\x80>DyM>P\xc9\x8f>\xed\xed"@9\xc8\x8f>\xd6wM>\xcdBl>\xd5+\x1a>\x91p\xa9>{\xf48>\xcc\xba\x0f?\xe65C>\xea\xd7\xb8>\xa6Bl>\x86\xf18>\xbbc\x80>\x91\nC?\xcdl$>Y\xee\x94>\xbaAl>a\xfca>@\xa7v>\xda\xcb\x8f>\xfaN\xa4>\x9f\xa1\x08@\\8C>\xc0\x18\xc3>\xa1P\x80>\r5C>\x89\x1d\x96?\xb5\xfda>\xb3\xb0!?\x01h\x80>G\x0c\x9a>\n\x97\x81?*\xf18>\x05xM>55C>*\x85\x85>\x1f\x9bE?\xe8-\x9f>\xf9wM>o\xbdW>\x8a@l>aBl>,\x85\x85>\x01\xfda>\xf0Dl>\xf1N\xa4>\x13\xfea>\\Al><xM>:,\x9f>\xc2\x87v>\x16:\xc8>\xe3\xf18>\xa4PM>/\x82\xa5?fGl>\xc6\xf18>K\x0c\x9a>\x85\xda\x8b?\xc6\xfb\x90?$\xc9s?\xc1\xf18>'
S'\x00\x00\x00\x00\x00\x00\x00\x00\x00\x00\x00\x00\x00\x00\x00\x00\x00\x00\x00\x00\x00\x00\x00\x00\x00\x00\x00\x00\x00\x00\x00\x00\x00\x00\x00\x00\x00\x00\x00\x00\x00\x00\x00\x00\x00\x00\x00\x00\x00\x00\x00\x00\x00\x00\x00\x00\x00\x00\x00\x00\x00\x00\x00\x00\x00\x00\x00\x00\x00\x00\x00\x00\x00\x00\x00\x00\x00\x00\x00\x00\x00\x00\x00\x00\x00\x00\x00\x00\x00\x00\x00\x00\x00\x00\x00\x00'
NtbstRp1283
(dp1284
S'isNumeric'
p1285
(dp1286
g23
I00
sg20
I00
sg17
I01
sg1167
I01
sg22
I01
sg24
I01
sg14
I01
sg18
I01
sg16
I00
sg19
I01
sg26
I00
sg27
I00
sg15
I00
sg21
I01
sg1274
I01
sg25
I01
ssg1151
g1145
sS'dataTypes'
p1287
(lp1288
g1167
ag1274
ag14
ag15
ag16
ag17
ag18
ag19
ag20
ag21
ag22
ag23
ag24
ag25
ag26
ag27
asS'dataShape'
p1289
(lp1290
I96
aI1
asbsS'method'
p1291
S'random'
p1292
sS'sequenceIndices'
p1293
g1157
(g1158
(I0
tS'b'
tRp1294
(I1
(I96
I1
tg80
I01
S'\x1a\x00\x00\x00P\x00\x00\x00M\x00\x00\x00_\x00\x00\x00\t\x00\x00\x00\x07\x00\x00\x00Y\x00\x00\x00\x0b\x00\x00\x00V\x00\x00\x00\x1c\x00\x00\x00\x16\x00\x00\x00\x14\x00\x00\x00Q\x00\x00\x00H\x00\x00\x00N\x00\x00\x00B\x00\x00\x00U\x00\x00\x00\x1e\x00\x00\x00L\x00\x00\x00/\x00\x00\x00\x0e\x00\x00\x00"\x00\x00\x00%\x00\x00\x00\x04\x00\x00\x00)\x00\x00\x00\x10\x00\x00\x005\x00\x00\x00\x12\x00\x00\x00\x01\x00\x00\x00\x19\x00\x00\x00\x0c\x00\x00\x00\x1b\x00\x00\x00[\x00\x00\x00>\x00\x00\x00(\x00\x00\x00.\x00\x00\x002\x00\x00\x00@\x00\x00\x00,\x00\x00\x00<\x00\x00\x00\n\x00\x00\x00]\x00\x00\x00A\x00\x00\x00D\x00\x00\x00\x08\x00\x00\x00G\x00\x00\x00\x02\x00\x00\x00^\x00\x00\x00\x0f\x00\x00\x00T\x00\x00\x00+\x00\x00\x00\x13\x00\x00\x00K\x00\x00\x00Z\x00\x00\x00?\x00\x00\x00S\x00\x00\x00!\x00\x00\x00W\x00\x00\x00I\x00\x00\x00J\x00\x00\x009\x00\x00\x006\x00\x00\x004\x00\x00\x00\'\x00\x00\x00\x1f\x00\x00\x00C\x00\x00\x00&\x00\x00\x00*\x00\x00\x00\x05\x00\x00\x00\x03\x00\x00\x00#\x00\x00\x008\x00\x00\x00\x1d\x00\x00\x00\x18\x00\x00\x00\x17\x00\x00\x00 \x00\x00\x00O\x00\x00\x00=\x00\x00\x00X\x00\x00\x00$\x00\x00\x000\x00\x00\x00:\x00\x00\x00R\x00\x00\x00;\x00\x00\x00-\x00\x00\x00\x00\x00\x00\x00\\\x00\x00\x00\r\x00\x00\x00\x11\x00\x00\x00\x15\x00\x00\x007\x00\x00\x00E\x00\x00\x001\x00\x00\x003\x00\x00\x00F\x00\x00\x00\x06\x00\x00\x00'
tbsS'finished'
p1295
I01
sS'nReps'
p1296
I1
sS'nRemaining'
p1297
I-1
sS'trialList'
p1298
(lp1299
g1
(cpsychopy.data
TrialType
p1300
g1155
(dp1301
g62
g102
sg63
g1030
sg64
g217
sg65
g1025
sg66
g1029
stRp1302
ag1
(g1300
g1155
(dp1303
g62
g74
sg63
g402
sg64
g114
sg65
g397
sg66
g401
stRp1304
ag1
(g1300
g1155
(dp1305
g62
g102
sg63
g601
sg64
g217
sg65
g596
sg66
g600
stRp1306
ag1
(g1300
g1155
(dp1307
g62
g102
sg63
g854
sg64
g328
sg65
g849
sg66
g853
stRp1308
ag1
(g1300
g1155
(dp1309
g62
g74
sg63
g347
sg64
g73
sg65
g342
sg66
g346
stRp1310
ag1
(g1300
g1155
(dp1311
g62
g102
sg63
g843
sg64
g217
sg65
g838
sg66
g842
stRp1312
ag1
(g1300
g1155
(dp1313
g62
g102
sg63
g1140
sg64
g217
sg65
g1135
sg66
g1139
stRp1314
ag1
(g1300
g1155
(dp1315
g62
g102
sg63
g145
sg64
g126
sg65
g140
sg66
g144
stRp1316
ag1
(g1300
g1155
(dp1317
g62
g102
sg63
g579
sg64
g217
sg65
g574
sg66
g578
stRp1318
ag1
(g1300
g1155
(dp1319
g62
g102
sg63
g134
sg64
g126
sg65
g129
sg66
g133
stRp1320
ag1
(g1300
g1155
(dp1321
g62
g74
sg63
g535
sg64
g527
sg65
g530
sg66
g534
stRp1322
ag1
(g1300
g1155
(dp1323
g62
g102
sg63
g168
sg64
g126
sg65
g163
sg66
g167
stRp1324
ag1
(g1300
g1155
(dp1325
g62
g102
sg63
g424
sg64
g183
sg65
g419
sg66
g423
stRp1326
ag1
(g1300
g1155
(dp1327
g62
g74
sg63
g1052
sg64
g114
sg65
g1047
sg66
g1051
stRp1328
ag1
(g1300
g1155
(dp1329
g62
g102
sg63
g313
sg64
g183
sg65
g308
sg66
g312
stRp1330
ag1
(g1300
g1155
(dp1331
g62
g102
sg63
g623
sg64
g217
sg65
g618
sg66
g622
stRp1332
ag1
(g1300
g1155
(dp1333
g62
g74
sg63
g369
sg64
g114
sg65
g364
sg66
g368
stRp1334
ag1
(g1300
g1155
(dp1335
g62
g102
sg63
g1063
sg64
g183
sg65
g1058
sg66
g1062
stRp1336
ag1
(g1300
g1155
(dp1337
g62
g102
sg63
g391
sg64
g101
sg65
g386
sg66
g390
stRp1338
ag1
(g1300
g1155
(dp1339
g62
g102
sg63
g656
sg64
g217
sg65
g651
sg66
g655
stRp1340
ag1
(g1300
g1155
(dp1341
g62
g74
sg63
g213
sg64
g114
sg65
g208
sg66
g212
stRp1342
ag1
(g1300
g1155
(dp1343
g62
g74
sg63
g1074
sg64
g88
sg65
g1069
sg66
g1073
stRp1344
ag1
(g1300
g1155
(dp1345
g62
g102
sg63
g202
sg64
g101
sg65
g197
sg66
g201
stRp1346
ag1
(g1300
g1155
(dp1347
g62
g74
sg63
g909
sg64
g88
sg65
g904
sg66
g908
stRp1348
ag1
(g1300
g1155
(dp1349
g62
g74
sg63
g898
sg64
g527
sg65
g893
sg66
g897
stRp1350
ag1
(g1300
g1155
(dp1351
g62
g102
sg63
g413
sg64
g149
sg65
g408
sg66
g412
stRp1352
ag1
(g1300
g1155
(dp1353
g62
g74
sg63
g84
sg64
g73
sg65
g78
sg66
g83
stRp1354
ag1
(g1300
g1155
(dp1355
g62
g74
sg63
g435
sg64
g114
sg65
g430
sg66
g434
stRp1356
ag1
(g1300
g1155
(dp1357
g62
g102
sg63
g191
sg64
g183
sg65
g186
sg66
g190
stRp1358
ag1
(g1300
g1155
(dp1359
g62
g102
sg63
g887
sg64
g217
sg65
g882
sg66
g886
stRp1360
ag1
(g1300
g1155
(dp1361
g62
g102
sg63
g280
sg64
g101
sg65
g275
sg66
g279
stRp1362
ag1
(g1300
g1155
(dp1363
g62
g102
sg63
g799
sg64
g101
sg65
g794
sg66
g798
stRp1364
ag1
(g1300
g1155
(dp1365
g62
g74
sg63
g920
sg64
g114
sg65
g915
sg66
g919
stRp1366
ag1
(g1300
g1155
(dp1367
g62
g74
sg63
g711
sg64
g73
sg65
g706
sg66
g710
stRp1368
ag1
(g1300
g1155
(dp1369
g62
g74
sg63
g324
sg64
g73
sg65
g319
sg66
g323
stRp1370
ag1
(g1300
g1155
(dp1371
g62
g102
sg63
g865
sg64
g183
sg65
g860
sg66
g864
stRp1372
ag1
(g1300
g1155
(dp1373
g62
g102
sg63
g964
sg64
g149
sg65
g959
sg66
g963
stRp1374
ag1
(g1300
g1155
(dp1375
g62
g102
sg63
g336
sg64
g328
sg65
g331
sg66
g335
stRp1376
ag1
(g1300
g1155
(dp1377
g62
g74
sg63
g821
sg64
g73
sg65
g816
sg66
g820
stRp1378
ag1
(g1300
g1155
(dp1379
g62
g74
sg63
g788
sg64
g114
sg65
g783
sg66
g787
stRp1380
ag1
(g1300
g1155
(dp1381
g62
g74
sg63
g468
sg64
g114
sg65
g463
sg66
g467
stRp1382
ag1
(g1300
g1155
(dp1383
g62
g102
sg63
g358
sg64
g183
sg65
g353
sg66
g357
stRp1384
ag1
(g1300
g1155
(dp1385
g62
g74
sg63
g832
sg64
g73
sg65
g827
sg66
g831
stRp1386
ag1
(g1300
g1155
(dp1387
g62
g74
sg63
g645
sg64
g88
sg65
g640
sg66
g644
stRp1388
ag1
(g1300
g1155
(dp1389
g62
g74
sg63
g512
sg64
g73
sg65
g507
sg66
g511
stRp1390
ag1
(g1300
g1155
(dp1391
g62
g74
sg63
g1019
sg64
g527
sg65
g1014
sg66
g1018
stRp1392
ag1
(g1300
g1155
(dp1393
g62
g102
sg63
g479
sg64
g217
sg65
g474
sg66
g478
stRp1394
ag1
(g1300
g1155
(dp1395
g62
g102
sg63
g302
sg64
g217
sg65
g297
sg66
g301
stRp1396
ag1
(g1300
g1155
(dp1397
g62
g74
sg63
g975
sg64
g114
sg65
g970
sg66
g974
stRp1398
ag1
(g1300
g1155
(dp1399
g62
g74
sg63
g1107
sg64
g88
sg65
g1102
sg66
g1106
stRp1400
ag1
(g1300
g1155
(dp1401
g62
g74
sg63
g490
sg64
g114
sg65
g485
sg66
g489
stRp1402
ag1
(g1300
g1155
(dp1403
g62
g74
sg63
g1118
sg64
g73
sg65
g1113
sg66
g1117
stRp1404
ag1
(g1300
g1155
(dp1405
g62
g74
sg63
g777
sg64
g88
sg65
g772
sg66
g776
stRp1406
ag1
(g1300
g1155
(dp1407
g62
g102
sg63
g380
sg64
g183
sg65
g375
sg66
g379
stRp1408
ag1
(g1300
g1155
(dp1409
g62
g102
sg63
g766
sg64
g126
sg65
g761
sg66
g765
stRp1410
ag1
(g1300
g1155
(dp1411
g62
g74
sg63
g1085
sg64
g88
sg65
g1080
sg66
g1084
stRp1412
ag1
(g1300
g1155
(dp1413
g62
g74
sg63
g876
sg64
g73
sg65
g871
sg66
g875
stRp1414
ag1
(g1300
g1155
(dp1415
g62
g74
sg63
g755
sg64
g73
sg65
g750
sg66
g754
stRp1416
ag1
(g1300
g1155
(dp1417
g62
g102
sg63
g986
sg64
g183
sg65
g981
sg66
g985
stRp1418
ag1
(g1300
g1155
(dp1419
g62
g74
sg63
g1008
sg64
g73
sg65
g1003
sg66
g1007
stRp1420
ag1
(g1300
g1155
(dp1421
g62
g74
sg63
g523
sg64
g73
sg65
g518
sg66
g522
stRp1422
ag1
(g1300
g1155
(dp1423
g62
g74
sg63
g942
sg64
g73
sg65
g937
sg66
g941
stRp1424
ag1
(g1300
g1155
(dp1425
g62
g102
sg63
g457
sg64
g149
sg65
g452
sg66
g456
stRp1426
ag1
(g1300
g1155
(dp1427
g62
g74
sg63
g689
sg64
g73
sg65
g684
sg66
g688
stRp1428
ag1
(g1300
g1155
(dp1429
g62
g102
sg63
g501
sg64
g126
sg65
g496
sg66
g500
stRp1430
ag1
(g1300
g1155
(dp1431
g62
g74
sg63
g557
sg64
g88
sg65
g552
sg66
g556
stRp1432
ag1
(g1300
g1155
(dp1433
g62
g102
sg63
g258
sg64
g101
sg65
g253
sg66
g257
stRp1434
ag1
(g1300
g1155
(dp1435
g62
g74
sg63
g810
sg64
g73
sg65
g805
sg66
g809
stRp1436
ag1
(g1300
g1155
(dp1437
g62
g74
sg63
g568
sg64
g114
sg65
g563
sg66
g567
stRp1438
ag1
(g1300
g1155
(dp1439
g62
g102
sg63
g1096
sg64
g217
sg65
g1091
sg66
g1095
stRp1440
ag1
(g1300
g1155
(dp1441
g62
g74
sg63
g1129
sg64
g73
sg65
g1124
sg66
g1128
stRp1442
ag1
(g1300
g1155
(dp1443
g62
g102
sg63
g590
sg64
g101
sg65
g585
sg66
g589
stRp1444
ag1
(g1300
g1155
(dp1445
g62
g102
sg63
g236
sg64
g149
sg65
g231
sg66
g235
stRp1446
ag1
(g1300
g1155
(dp1447
g62
g74
sg63
g733
sg64
g527
sg65
g728
sg66
g732
stRp1448
ag1
(g1300
g1155
(dp1449
g62
g74
sg63
g744
sg64
g73
sg65
g739
sg66
g743
stRp1450
ag1
(g1300
g1155
(dp1451
g62
g74
sg63
g667
sg64
g88
sg65
g662
sg66
g666
stRp1452
ag1
(g1300
g1155
(dp1453
g62
g102
sg63
g291
sg64
g126
sg65
g286
sg66
g290
stRp1454
ag1
(g1300
g1155
(dp1455
g62
g102
sg63
g110
sg64
g101
sg65
g105
sg66
g109
stRp1456
ag1
(g1300
g1155
(dp1457
g62
g102
sg63
g247
sg64
g217
sg65
g242
sg66
g246
stRp1458
ag1
(g1300
g1155
(dp1459
g62
g74
sg63
g931
sg64
g73
sg65
g926
sg66
g930
stRp1460
ag1
(g1300
g1155
(dp1461
g62
g74
sg63
g96
sg64
g88
sg65
g91
sg66
g95
stRp1462
ag1
(g1300
g1155
(dp1463
g62
g102
sg63
g225
sg64
g217
sg65
g220
sg66
g224
stRp1464
ag1
(g1300
g1155
(dp1465
g62
g74
sg63
g997
sg64
g114
sg65
g992
sg66
g996
stRp1466
ag1
(g1300
g1155
(dp1467
g62
g102
sg63
g700
sg64
g101
sg65
g695
sg66
g699
stRp1468
ag1
(g1300
g1155
(dp1469
g62
g74
sg63
g634
sg64
g114
sg65
g629
sg66
g633
stRp1470
ag1
(g1300
g1155
(dp1471
g62
g74
sg63
g269
sg64
g73
sg65
g264
sg66
g268
stRp1472
ag1
(g1300
g1155
(dp1473
g62
g102
sg63
g179
sg64
g126
sg65
g174
sg66
g178
stRp1474
ag1
(g1300
g1155
(dp1475
g62
g102
sg63
g722
sg64
g126
sg65
g717
sg66
g721
stRp1476
ag1
(g1300
g1155
(dp1477
g62
g102
sg63
g953
sg64
g149
sg65
g948
sg66
g952
stRp1478
ag1
(g1300
g1155
(dp1479
g62
g102
sg63
g157
sg64
g149
sg65
g152
sg66
g156
stRp1480
ag1
(g1300
g1155
(dp1481
g62
g74
sg63
g678
sg64
g114
sg65
g673
sg66
g677
stRp1482
ag1
(g1300
g1155
(dp1483
g62
g102
sg63
g446
sg64
g126
sg65
g441
sg66
g445
stRp1484
ag1
(g1300
g1155
(dp1485
g62
g102
sg63
g1041
sg64
g149
sg65
g1036
sg66
g1040
stRp1486
ag1
(g1300
g1155
(dp1487
g62
g102
sg63
g546
sg64
g217
sg65
g541
sg66
g545
stRp1488
ag1
(g1300
g1155
(dp1489
g62
g74
sg63
g612
sg64
g88
sg65
g607
sg66
g611
stRp1490
ag1
(g1300
g1155
(dp1491
g62
g74
sg63
g122
sg64
g114
sg65
g117
sg66
g121
stRp1492
asS'seed'
p1493
NsS'thisIndex'
p1494
g1137
sS'thisN'
p1495
I96
sS'thisTrialN'
p1496
I0
sS'nTotal'
p1497
I96
sS'_warnUseOfNext'
p1498
I01
sbasS'savePickle'
p1499
I00
sb.