ccopy_reg
_reconstructor
p1
(cpsychopy.data
ExperimentHandler
p2
c__builtin__
object
p3
NtRp4
(dp5
S'originPath'
p6
NsS'dataFileName'
p7
VC:\u005cDocuments and Settings\u005cExperimental user\u005cMy Documents\u005cconsciousness\u005cuncon_feat\u005cexperiment_scripts\u005cdata/aingere_Experiment_EEG_version_2019_may_16_1703
p8
sS'runtimeInfo'
p9
NsS'name'
p10
VExperiment_EEG_version
p11
sS'dataNames'
p12
(lp13
S'image_onset_time'
p14
aS'response_window'
p15
aS'correctAns'
p16
aS'probe_onset'
p17
aS'discrim_resptime'
p18
aS'response.corr'
p19
aS'response.keys'
p20
aS'response.rt'
p21
aS'visible_resptime'
p22
aS'visible.keys'
p23
aS'visible.corr'
p24
aS'visible.rt'
p25
aS'probeFrames'
p26
aS'jitter2'
p27
asS'autoLog'
p28
I01
sS'extraInfo'
p29
(dp30
Vn_square
p31
V32
p32
sVexperiment_color
p33
Vbw
p34
sS'frameRate'
p35
cnumpy.core.multiarray
scalar
p36
(cnumpy
dtype
p37
(S'f8'
I0
I1
tRp38
(I3
S'<'
NNNI-1
I-1
I0
tbS'R\r\x13$)\xf2X@'
tRp39
sS'date'
p40
V2019_may_16_1703
p41
sVsession
p42
V007
p43
sVimage_size
p44
V256
p45
sVpremask_dur
p46
V20
p47
sVprobeFrames
p48
V5
sVparticipant
p49
Vaingere
p50
sS'expName'
p51
g11
sVpostmask_dur
p52
V20
p53
ssS'loopsUnfinished'
p54
(lp55
sS'saveWideText'
p56
I00
sS'thisEntry'
p57
(dp58
sS'version'
p59
S''
sS'_paramNamesSoFar'
p60
(lp61
S'category'
p62
aS'probe_path'
p63
aS'subcategory'
p64
aS'fixation_duration'
p65
aS'label'
p66
asS'entries'
p67
(lp68
(dp69
g31
g32
sg17
F3.73777313856408
sg24
I1
sg35
g39
sg14
F3.7155527540016919
sg16
g36
(g37
(S'i4'
I0
I1
tRp70
(I3
S'<'
NNNI-1
I-1
I0
tbS'\x01\x00\x00\x00'
tRp71
sg42
g43
sg46
g47
sg15
S'V_nV'
p72
sg22
F5.8410659299697727
sg64
VBirds
p73
sg62
VLiving_Things
p74
sg49
g50
sS'trials.thisN'
p75
I0
sg19
I1
sg27
g36
(g38
S'\x00\x00\x00\x00\x00\x00\x18@'
tRp76
sg52
g53
sg23
S'1'
sg18
F4.9982372598024085
sg33
g34
sg51
g11
sg20
S'1'
sg65
g36
(g37
(S'i8'
I0
I1
tRp77
(I3
S'<'
NNNI-1
I-1
I0
tbS'\x00\x00\x00\x00\x00\x00\x00\x00'
tRp78
sg44
g45
sg40
g41
sg25
F0.36099707055836916
sS'trials.thisIndex'
p79
g36
(g37
(S'i4'
I0
I1
tRp80
(I3
S'<'
NNNI-1
I-1
I0
tbS'9\x00\x00\x00'
tRp81
sg26
V5
sS'trials.thisRepN'
p82
I0
sg66
Vowl
p83
sg63
V../experiment_stimuli/bw_bc_bl/Living_Things/Birds/owl_12.jpg
p84
sg21
F0.81199561909306794
sS'trials.thisTrialN'
p85
I0
sa(dp86
g31
g32
sg17
F7.9395639736903831
sg24
I0
sg35
g39
sg14
F7.934719129698351
sg16
g36
(g70
S'\x01\x00\x00\x00'
tRp87
sg42
g43
sg46
g47
sg15
g72
sg22
F9.919692468829453
sg64
g73
sg62
g74
sg49
g50
sS'trials.thisN'
p88
I1
sg19
I1
sg27
g36
(g38
S'\x00\x00\x00\x00\x00\x00\x18@'
tRp89
sg52
g53
sg23
S'2'
sg18
F9.2274285935563967
sg33
g34
sg51
g11
sg20
S'1'
sg65
g36
(g77
S'\x00\x00\x00\x00\x00\x00\x00\x00'
tRp90
sg44
g45
sg40
g41
sg25
F0.37102729897014797
sS'trials.thisIndex'
p91
g36
(g80
S',\x00\x00\x00'
tRp92
sg26
V5
sS'trials.thisRepN'
p93
I0
sg66
Vkiwi
p94
sg63
V../experiment_stimuli/bw_bc_bl/Living_Things/Birds/kiwi_16.jpg
p95
sg21
F0.67169739166274667
sS'trials.thisTrialN'
p96
I1
sa(dp97
g31
g32
sg17
F12.028359122690745
sg24
I0
sg35
g39
sg14
F12.023603424197063
sg16
g36
(g70
S'\x01\x00\x00\x00'
tRp98
sg42
g43
sg46
g47
sg15
g72
sg22
F13.888315959367901
sg64
VMarine_creatures
p99
sg62
g74
sg49
g50
sS'trials.thisN'
p100
I2
sg19
I1
sg27
g36
(g38
S'\x00\x00\x00\x00\x00\x00\x18@'
tRp101
sg52
g53
sg23
S'2'
sg18
F13.306295080226846
sg33
g34
sg51
g11
sg20
S'1'
sg65
g36
(g77
S'\x00\x00\x00\x00\x00\x00\x00\x00'
tRp102
sg44
g45
sg40
g41
sg25
F0.28084440645761788
sS'trials.thisIndex'
p103
g36
(g80
S'^\x00\x00\x00'
tRp104
sg26
V5
sS'trials.thisRepN'
p105
I0
sg66
Vwhale
p106
sg63
V../experiment_stimuli/bw_bc_bl/Living_Things/Marine_creatures/whale_0.jpg
p107
sg21
F0.56146205682307482
sS'trials.thisTrialN'
p108
I2
sa(dp109
g31
g32
sg17
F15.907023912644945
sg24
I1
sg35
g39
sg14
F15.902039292617701
sg16
g36
(g70
S'\x02\x00\x00\x00'
tRp110
sg42
g43
sg46
g47
sg15
S'nV_V'
p111
sg22
F17.937081854557618
sg64
VAnimals
p112
sg62
g74
sg49
g50
sS'trials.thisN'
p113
I3
sg19
I1
sg27
g36
(g38
S'\x00\x00\x00\x00\x00\x00\x1a@'
tRp114
sg52
g53
sg23
S'1'
sg18
F17.174701889394782
sg33
g34
sg51
g11
sg20
S'2'
sg65
g36
(g77
S'\x00\x00\x00\x00\x00\x00\x00\x00'
tRp115
sg44
g45
sg40
g41
sg25
F0.35098836431279778
sS'trials.thisIndex'
p116
g36
(g80
S'\x01\x00\x00\x00'
tRp117
sg26
V5
sS'trials.thisRepN'
p118
I0
sg66
Varmadillo
p119
sg63
V../experiment_stimuli/bw_bc_bl/Living_Things/Animals/armadillo_22.jpg
p120
sg21
F0.74184165382757783
sS'trials.thisTrialN'
p121
I3
sa(dp122
g31
g32
sg17
F20.025761290919036
sg24
I0
sg35
g39
sg14
F20.020997163723223
sg16
g36
(g70
S'\x01\x00\x00\x00'
tRp123
sg42
g43
sg46
g47
sg15
g111
sg22
F21.935788327362388
sg64
VFurniture
p124
sg62
VNonliving_Things
p125
sg49
g50
sS'trials.thisN'
p126
I4
sg19
I1
sg27
g36
(g38
S'\x00\x00\x00\x00\x00\x00\x18@'
tRp127
sg52
g53
sg23
S'3'
sg18
F21.313703597523272
sg33
g34
sg51
g11
sg20
S'1'
sg65
g36
(g77
S'\x00\x00\x00\x00\x00\x00\x00\x00'
tRp128
sg44
g45
sg40
g41
sg25
F0.37102350941859186
sS'trials.thisIndex'
p129
g36
(g80
S'\x1d\x00\x00\x00'
tRp130
sg26
V5
sS'trials.thisRepN'
p131
I0
sg66
Vfilling-cabinet
p132
sg63
V../experiment_stimuli/bw_bc_bl/Nonliving_Things/Furniture/filling-cabinet_7.jpg
p133
sg21
F0.60153392248321325
sS'trials.thisTrialN'
p134
I4
sa(dp135
g31
g32
sg17
F24.044542480260134
sg24
I0
sg35
g39
sg14
F24.03972888388671
sg16
g36
(g70
S'\x02\x00\x00\x00'
tRp136
sg42
g43
sg46
g47
sg15
g72
sg22
F26.205067444476299
sg64
VVehicles
p137
sg62
g125
sg49
g50
sS'trials.thisN'
p138
I5
sg19
I1
sg27
g36
(g38
S'\x00\x00\x00\x00\x00\x00\x1c@'
tRp139
sg52
g53
sg23
S'2'
sg18
F25.302376176812686
sg33
g34
sg51
g11
sg20
S'2'
sg65
g36
(g77
S'\x00\x00\x00\x00\x00\x00\x00\x00'
tRp140
sg44
g45
sg40
g41
sg25
F0.37102363014128059
sS'trials.thisIndex'
p141
g36
(g80
S'L\x00\x00\x00'
tRp142
sg26
V5
sS'trials.thisRepN'
p143
I0
sg66
Vship
p144
sg63
V../experiment_stimuli/bw_bc_bl/Nonliving_Things/Vehicles/ship_19.jpg
p145
sg21
F0.88213853188790381
sS'trials.thisTrialN'
p146
I5
sa(dp147
g31
g32
sg17
F28.313873686362058
sg24
I1
sg35
g39
sg14
F28.309013500693254
sg16
g36
(g70
S'\x01\x00\x00\x00'
tRp148
sg42
g43
sg46
g47
sg15
g72
sg22
F30.564547254238278
sg64
g112
sg62
g74
sg49
g50
sS'trials.thisN'
p149
I6
sg19
I1
sg27
g36
(g38
S'\x00\x00\x00\x00\x00\x00\x18@'
tRp150
sg52
g53
sg23
S'1'
sg18
F29.561628219089471
sg33
g34
sg51
g11
sg20
S'1'
sg65
g36
(g77
S'\x00\x00\x00\x00\x00\x00\x00\x00'
tRp151
sg44
g45
sg40
g41
sg25
F0.34081048751249909
sS'trials.thisIndex'
p152
g36
(g80
S'0\x00\x00\x00'
tRp153
sg26
V5
sS'trials.thisRepN'
p154
I0
sg66
Vlioness
p155
sg63
V../experiment_stimuli/bw_bc_bl/Living_Things/Animals/lioness_20.jpg
p156
sg21
F0.98236457374878228
sS'trials.thisTrialN'
p157
I6
sa(dp158
g31
g32
sg17
F32.643421556800604
sg24
I0
sg35
g39
sg14
F32.638410888146609
sg16
g36
(g70
S'\x01\x00\x00\x00'
tRp159
sg42
g43
sg46
g47
sg15
g111
sg22
F34.653425819589756
sg64
g124
sg62
g125
sg49
g50
sS'trials.thisN'
p160
I7
sg19
I1
sg27
g36
(g38
S'\x00\x00\x00\x00\x00\x00\x18@'
tRp161
sg52
g53
sg23
S'2'
sg18
F33.921097127138637
sg33
g34
sg51
g11
sg20
S'1'
sg65
g36
(g77
S'\x00\x00\x00\x00\x00\x00\x00\x00'
tRp162
sg44
g45
sg40
g41
sg25
F0.371044238563627
sS'trials.thisIndex'
p163
g36
(g80
S'\x05\x00\x00\x00'
tRp164
sg26
V5
sS'trials.thisRepN'
p165
I0
sg66
Vbed
p166
sg63
V../experiment_stimuli/bw_bc_bl/Nonliving_Things/Furniture/bed_17.jpg
p167
sg21
F0.7117780769476667
sS'trials.thisTrialN'
p168
I7
sa(dp169
g31
g32
sg17
F36.762767749489285
sg24
I1
sg35
g39
sg14
F36.757361199241132
sg16
g36
(g70
S'\x02\x00\x00\x00'
tRp170
sg42
g43
sg46
g47
sg15
g111
sg22
F39.093085533706471
sg64
g112
sg62
g74
sg49
g50
sS'trials.thisN'
p171
I8
sg19
I1
sg27
g36
(g38
S'\x00\x00\x00\x00\x00\x00\x18@'
tRp172
sg52
g53
sg23
S'1'
sg18
F38.030037901015021
sg33
g34
sg51
g11
sg20
S'2'
sg65
g36
(g77
S'\x00\x00\x00\x00\x00\x00\x00\x00'
tRp173
sg44
g45
sg40
g41
sg25
F0.49128924962133169
sS'trials.thisIndex'
p174
g36
(g80
S'D\x00\x00\x00'
tRp175
sg26
V5
sS'trials.thisRepN'
p176
I0
sg66
Vrhino
p177
sg63
V../experiment_stimuli/bw_bc_bl/Living_Things/Animals/rhino_22.jpg
p178
sg21
F1.0424999304814264
sS'trials.thisTrialN'
p179
I8
sa(dp180
g31
g32
sg17
F41.3221302756574
sg24
I1
sg35
g39
sg14
F41.317280232673511
sg16
g36
(g70
S'\x02\x00\x00\x00'
tRp181
sg42
g43
sg46
g47
sg15
g111
sg22
F43.31225242849905
sg64
g112
sg62
g74
sg49
g50
sS'trials.thisN'
p182
I9
sg19
I1
sg27
g36
(g38
S'\x00\x00\x00\x00\x00\x00\x18@'
tRp183
sg52
g53
sg23
S'1'
sg18
F42.609995233826339
sg33
g34
sg51
g11
sg20
S'2'
sg65
g36
(g77
S'\x00\x00\x00\x00\x00\x00\x00\x00'
tRp184
sg44
g45
sg40
g41
sg25
F0.34096886112820357
sS'trials.thisIndex'
p185
g36
(g80
S'T\x00\x00\x00'
tRp186
sg26
V5
sS'trials.thisRepN'
p187
I0
sg66
Vtiger
p188
sg63
V../experiment_stimuli/bw_bc_bl/Living_Things/Animals/tiger_1.jpg
p189
sg21
F0.68170595483388752
sS'trials.thisTrialN'
p190
I9
sa(dp191
g31
g32
sg17
F45.391041307360865
sg24
I0
sg35
g39
sg14
F45.386116968235001
sg16
g36
(g70
S'\x02\x00\x00\x00'
tRp192
sg42
g43
sg46
g47
sg15
g72
sg22
F47.43122037104331
sg64
g137
sg62
g125
sg49
g50
sS'trials.thisN'
p193
I10
sg19
I1
sg27
g36
(g38
S'\x00\x00\x00\x00\x00\x00\x1e@'
tRp194
sg52
g53
sg23
S'3'
sg18
F46.708905764389783
sg33
g34
sg51
g11
sg20
S'2'
sg65
g36
(g77
S'\x00\x00\x00\x00\x00\x00\x00\x00'
tRp195
sg44
g45
sg40
g41
sg25
F0.38104374578688294
sS'trials.thisIndex'
p196
g36
(g80
S'6\x00\x00\x00'
tRp197
sg26
V5
sS'trials.thisRepN'
p198
I0
sg66
Vmotorbike
p199
sg63
V../experiment_stimuli/bw_bc_bl/Nonliving_Things/Vehicles/motorbike_0.jpg
p200
sg21
F0.70176545332651585
sS'trials.thisTrialN'
p201
I10
sa(dp202
g31
g32
sg17
F49.5509234869387
sg24
I0
sg35
g39
sg14
F49.545974268577993
sg16
g36
(g70
S'\x01\x00\x00\x00'
tRp203
sg42
g43
sg46
g47
sg15
g72
sg22
F51.480022115283646
sg64
g112
sg62
g74
sg49
g50
sS'trials.thisN'
p204
I11
sg19
I1
sg27
g36
(g38
S'\x00\x00\x00\x00\x00\x00\x18@'
tRp205
sg52
g53
sg23
S'2'
sg18
F50.837868059868924
sg33
g34
sg51
g11
sg20
S'1'
sg65
g36
(g77
S'\x00\x00\x00\x00\x00\x00\x00\x00'
tRp206
sg44
g45
sg40
g41
sg25
F0.3710203745868057
sS'trials.thisIndex'
p207
g36
(g80
S' \x00\x00\x00'
tRp208
sg26
V5
sS'trials.thisRepN'
p209
I0
sg66
Vgiraffe
p210
sg63
V../experiment_stimuli/bw_bc_bl/Living_Things/Animals/giraffe_8.jpg
p211
sg21
F0.621589086484164
sS'trials.thisTrialN'
p212
I11
sa(dp213
g31
g32
sg17
F53.588784670107998
sg24
I0
sg35
g39
sg14
F53.583938344963826
sg16
g36
(g70
S'\x01\x00\x00\x00'
tRp214
sg42
g43
sg46
g47
sg15
g111
sg22
F55.899607038241811
sg64
g137
sg62
g125
sg49
g50
sS'trials.thisN'
p215
I12
sg19
I1
sg27
g36
(g38
S'\x00\x00\x00\x00\x00\x00\x18@'
tRp216
sg52
g53
sg23
S'3'
sg18
F54.86663397483062
sg33
g34
sg51
g11
sg20
S'1'
sg65
g36
(g77
S'\x00\x00\x00\x00\x00\x00\x00\x00'
tRp217
sg44
g45
sg40
g41
sg25
F0.44117826060391963
sS'trials.thisIndex'
p218
g36
(g80
S'V\x00\x00\x00'
tRp219
sg26
V5
sS'trials.thisRepN'
p220
I0
sg66
Vtractor
p221
sg63
V../experiment_stimuli/bw_bc_bl/Nonliving_Things/Vehicles/tractor_3.jpg
p222
sg21
F1.0124257110292092
sS'trials.thisTrialN'
p223
I12
sa(dp224
g31
g32
sg17
F58.078544896212406
sg24
I1
sg35
g39
sg14
F58.073692428297363
sg16
g36
(g70
S'\x01\x00\x00\x00'
tRp225
sg42
g43
sg46
g47
sg15
g72
sg22
F60.118794515263289
sg64
g73
sg62
g74
sg49
g50
sS'trials.thisN'
p226
I13
sg19
I0
sg27
g36
(g38
S'\x00\x00\x00\x00\x00\x00\x18@'
tRp227
sg52
g53
sg23
S'1'
sg18
F59.326318112900481
sg33
g34
sg51
g11
sg20
S'2'
sg65
g36
(g77
S'\x00\x00\x00\x00\x00\x00\x00\x00'
tRp228
sg44
g45
sg40
g41
sg25
F0.40125222341157496
sS'trials.thisIndex'
p229
g36
(g80
S'U\x00\x00\x00'
tRp230
sg26
V5
sS'trials.thisRepN'
p231
I0
sg66
Vtoucan
p232
sg63
V../experiment_stimuli/bw_bc_bl/Living_Things/Birds/toucan_23.jpg
p233
sg21
F0.77191588876303285
sS'trials.thisTrialN'
p234
I13
sa(dp235
g31
g32
sg17
F62.258299923036247
sg24
I1
sg35
g39
sg14
F62.252777983434498
sg16
g36
(g70
S'\x01\x00\x00\x00'
tRp236
sg42
g43
sg46
g47
sg15
g111
sg22
F64.839045556844212
sg64
VMusical_Inst
p237
sg62
g125
sg49
g50
sS'trials.thisN'
p238
I14
sg19
I1
sg27
g36
(g38
S'\x00\x00\x00\x00\x00\x00\x18@'
tRp239
sg52
g53
sg23
S'1'
sg18
F63.525444696773775
sg33
g34
sg51
g11
sg20
S'1'
sg65
g36
(g77
S'\x00\x00\x00\x00\x00\x00\x00\x00'
tRp240
sg44
g45
sg40
g41
sg25
F0.45120173750910908
sS'trials.thisIndex'
p241
g36
(g80
S'>\x00\x00\x00'
tRp242
sg26
V5
sS'trials.thisRepN'
p243
I0
sg66
Vpiano
p244
sg63
V../experiment_stimuli/bw_bc_bl/Nonliving_Things/Musical_Inst/piano__5.jpg
p245
sg21
F1.2930459026247263
sS'trials.thisTrialN'
p246
I14
sa(dp247
g31
g32
sg17
F67.028748456155881
sg24
I0
sg35
g39
sg14
F67.023149134241976
sg16
g36
(g70
S'\x02\x00\x00\x00'
tRp248
sg42
g43
sg46
g47
sg15
g72
sg22
F69.088307351456024
sg64
VBuildings
p249
sg62
g125
sg49
g50
sS'trials.thisN'
p250
I15
sg19
I1
sg27
g36
(g38
S'\x00\x00\x00\x00\x00\x00\x18@'
tRp251
sg52
g53
sg23
S'3'
sg18
F68.305833632941358
sg33
g34
sg51
g11
sg20
S'2'
sg65
g36
(g77
S'\x00\x00\x00\x00\x00\x00\x00\x00'
tRp252
sg44
g45
sg40
g41
sg25
F0.50131823390256613
sS'trials.thisIndex'
p253
g36
(g80
S'#\x00\x00\x00'
tRp254
sg26
V5
sS'trials.thisRepN'
p255
I0
sg66
Vgranary
p256
sg63
V../experiment_stimuli/bw_bc_bl/Nonliving_Things/Buildings/granary_9.jpg
p257
sg21
F0.76189897570293397
sS'trials.thisTrialN'
p258
I15
sa(dp259
g31
g32
sg17
F71.327948114601895
sg24
I1
sg35
g39
sg14
F71.322494031279348
sg16
g36
(g70
S'\x02\x00\x00\x00'
tRp260
sg42
g43
sg46
g47
sg15
g111
sg22
F73.407681491458789
sg64
g73
sg62
g74
sg49
g50
sS'trials.thisN'
p261
I16
sg19
I0
sg27
g36
(g38
S'\x00\x00\x00\x00\x00\x00\x18@'
tRp262
sg52
g53
sg23
S'1'
sg18
F72.585145177319646
sg33
g34
sg51
g11
sg20
S'1'
sg65
g36
(g77
S'\x00\x00\x00\x00\x00\x00\x00\x00'
tRp263
sg44
g45
sg40
g41
sg25
F0.38104605406988412
sS'trials.thisIndex'
p264
g36
(g80
S'&\x00\x00\x00'
tRp265
sg26
V5
sS'trials.thisRepN'
p266
I0
sg66
Vhen
p267
sg63
V../experiment_stimuli/bw_bc_bl/Living_Things/Birds/hen_2.jpg
p268
sg21
F0.80196813866496086
sS'trials.thisTrialN'
p269
I16
sa(dp270
g31
g32
sg17
F75.526483876048587
sg24
I1
sg35
g39
sg14
F75.52161734807305
sg16
g36
(g70
S'\x02\x00\x00\x00'
tRp271
sg42
g43
sg46
g47
sg15
g111
sg22
F77.777164139435627
sg64
g112
sg62
g74
sg49
g50
sS'trials.thisN'
p272
I17
sg19
I0
sg27
g36
(g38
S'\x00\x00\x00\x00\x00\x00\x1a@'
tRp273
sg52
g53
sg23
S'1'
sg18
F76.814334090100601
sg33
g34
sg51
g11
sg20
S'1'
sg65
g36
(g77
S'\x00\x00\x00\x00\x00\x00\x00\x00'
tRp274
sg44
g45
sg40
g41
sg25
F0.37104185158386827
sS'trials.thisIndex'
p275
g36
(g80
S'\r\x00\x00\x00'
tRp276
sg26
V5
sS'trials.thisRepN'
p277
I0
sg66
Vcat
p278
sg63
V../experiment_stimuli/bw_bc_bl/Living_Things/Animals/cat_17.jpg
p279
sg21
F0.94227287359535694
sS'trials.thisTrialN'
p280
I17
sa(dp281
g31
g32
sg17
F79.886676927679218
sg24
I0
sg35
g39
sg14
F79.881097609410062
sg16
g36
(g70
S'\x02\x00\x00\x00'
tRp282
sg42
g43
sg46
g47
sg15
g111
sg22
F81.805923576815985
sg64
g73
sg62
g74
sg49
g50
sS'trials.thisN'
p283
I18
sg19
I1
sg27
g36
(g38
S'\x00\x00\x00\x00\x00\x00\x18@'
tRp284
sg52
g53
sg23
S'3'
sg18
F81.19385478971526
sg33
g34
sg51
g11
sg20
S'2'
sg65
g36
(g77
S'\x00\x00\x00\x00\x00\x00\x00\x00'
tRp285
sg44
g45
sg40
g41
sg25
F1.4634563905419782
sS'trials.thisIndex'
p286
g36
(g80
S'\x1a\x00\x00\x00'
tRp287
sg26
V5
sS'trials.thisRepN'
p288
I0
sg66
Vduck
p289
sg63
V../experiment_stimuli/bw_bc_bl/Living_Things/Birds/duck_24.jpg
p290
sg21
F0.59150708862580359
sS'trials.thisTrialN'
p291
I18
sa(dp292
g31
g32
sg17
F85.007058772956952
sg24
I1
sg35
g39
sg14
F85.002229785779491
sg16
g36
(g70
S'\x02\x00\x00\x00'
tRp293
sg42
g43
sg46
g47
sg15
g111
sg22
F87.257849872927181
sg64
g112
sg62
g74
sg49
g50
sS'trials.thisN'
p294
I19
sg19
I1
sg27
g36
(g38
S'\x00\x00\x00\x00\x00\x00\x1e@'
tRp295
sg52
g53
sg23
S'1'
sg18
F86.284917160170153
sg33
g34
sg51
g11
sg20
S'2'
sg65
g36
(g77
S'\x00\x00\x00\x00\x00\x00\x00\x00'
tRp296
sg44
g45
sg40
g41
sg25
F0.44119014008902013
sS'trials.thisIndex'
p297
g36
(g80
S'Z\x00\x00\x00'
tRp298
sg26
V5
sS'trials.thisRepN'
p299
I0
sg66
Vturtle
p300
sg63
V../experiment_stimuli/bw_bc_bl/Living_Things/Animals/turtle_2.jpg
p301
sg21
F0.95236690563615412
sS'trials.thisTrialN'
p302
I19
sa(dp303
g31
g32
sg17
F89.43670138635207
sg24
I1
sg35
g39
sg14
F89.431858166353777
sg16
g36
(g70
S'\x01\x00\x00\x00'
tRp304
sg42
g43
sg46
g47
sg15
g72
sg22
F91.937947094906121
sg64
g99
sg62
g74
sg49
g50
sS'trials.thisN'
p305
I20
sg19
I1
sg27
g36
(g38
S'\x00\x00\x00\x00\x00\x00\x18@'
tRp306
sg52
g53
sg23
S'1'
sg18
F90.744613516144454
sg33
g34
sg51
g11
sg20
S'1'
sg65
g36
(g77
S'\x00\x00\x00\x00\x00\x00\x00\x00'
tRp307
sg44
g45
sg40
g41
sg25
F0.3509849397232756
sS'trials.thisIndex'
p308
g36
(g80
S'\x17\x00\x00\x00'
tRp309
sg26
V5
sS'trials.thisRepN'
p310
I0
sg66
Vdolphin
p311
sg63
V../experiment_stimuli/bw_bc_bl/Living_Things/Marine_creatures/dolphin_7.jpg
p312
sg21
F1.1727776927873492
sS'trials.thisTrialN'
p313
I20
sa(dp314
g31
g32
sg17
F94.026660023140721
sg24
I0
sg35
g39
sg14
F94.021843678900041
sg16
g36
(g70
S'\x01\x00\x00\x00'
tRp315
sg42
g43
sg46
g47
sg15
g111
sg22
F96.117031345376745
sg64
VTools
p316
sg62
g125
sg49
g50
sS'trials.thisN'
p317
I21
sg19
I1
sg27
g36
(g38
S'\x00\x00\x00\x00\x00\x00\x1a@'
tRp318
sg52
g53
sg23
S'2'
sg18
F95.344610125874169
sg33
g34
sg51
g11
sg20
S'1'
sg65
g36
(g77
S'\x00\x00\x00\x00\x00\x00\x00\x00'
tRp319
sg44
g45
sg40
g41
sg25
F1.1527274762047455
sS'trials.thisIndex'
p320
g36
(g80
S'%\x00\x00\x00'
tRp321
sg26
V5
sS'trials.thisRepN'
p322
I0
sg66
Vhammer
p323
sg63
V../experiment_stimuli/bw_bc_bl/Nonliving_Things/Tools/hammer_25.jpg
p324
sg21
F0.75186037144158036
sS'trials.thisTrialN'
p325
I21
sa(dp326
g31
g32
sg17
F99.008393534342758
sg24
I1
sg35
g39
sg14
F99.002666849759407
sg16
g36
(g70
S'\x02\x00\x00\x00'
tRp327
sg42
g43
sg46
g47
sg15
g111
sg22
F101.43843821750488
sg64
g99
sg62
g74
sg49
g50
sS'trials.thisN'
p328
I22
sg19
I1
sg27
g36
(g38
S'\x00\x00\x00\x00\x00\x00\x1a@'
tRp329
sg52
g53
sg23
S'1'
sg18
F100.31541680102237
sg33
g34
sg51
g11
sg20
S'2'
sg65
g36
(g77
S'\x00\x00\x00\x00\x00\x00\x00\x00'
tRp330
sg44
g45
sg40
g41
sg25
F0.38105418928898871
sS'trials.thisIndex'
p331
g36
(g80
S'1\x00\x00\x00'
tRp332
sg26
V5
sS'trials.thisRepN'
p333
I0
sg66
Vlobster
p334
sg63
V../experiment_stimuli/bw_bc_bl/Living_Things/Marine_creatures/lobster_7.jpg
p335
sg21
F1.102462395443581
sS'trials.thisTrialN'
p336
I22
sa(dp337
g31
g32
sg17
F103.55749208352063
sg24
I0
sg35
g39
sg14
F103.55255267699249
sg16
g36
(g70
S'\x02\x00\x00\x00'
tRp338
sg42
g43
sg46
g47
sg15
g72
sg22
F105.6377402615035
sg64
VKitchen_Uten
p339
sg62
g125
sg49
g50
sS'trials.thisN'
p340
I23
sg19
I1
sg27
g36
(g38
S'\x00\x00\x00\x00\x00\x00\x1a@'
tRp341
sg52
g53
sg23
S'3'
sg18
F104.87533072533552
sg33
g34
sg51
g11
sg20
S'2'
sg65
g36
(g77
S'\x00\x00\x00\x00\x00\x00\x00\x00'
tRp342
sg44
g45
sg40
g41
sg25
F0.38108095584902912
sS'trials.thisIndex'
p343
g36
(g80
S'S\x00\x00\x00'
tRp344
sg26
V5
sS'trials.thisRepN'
p345
I0
sg66
Vteapot
p346
sg63
V../experiment_stimuli/bw_bc_bl/Nonliving_Things/Kitchen_Uten/teapot_20.jpg
p347
sg21
F0.74184160493314266
sS'trials.thisTrialN'
p348
I23
sa(dp349
g31
g32
sg17
F107.7565602773102
sg24
I0
sg35
g39
sg14
F107.75168355053756
sg16
g36
(g70
S'\x01\x00\x00\x00'
tRp350
sg42
g43
sg46
g47
sg15
g111
sg22
F109.85691703204066
sg64
g137
sg62
g125
sg49
g50
sS'trials.thisN'
p351
I24
sg19
I1
sg27
g36
(g38
S'\x00\x00\x00\x00\x00\x00\x18@'
tRp352
sg52
g53
sg23
S'3'
sg18
F109.05440998729318
sg33
g34
sg51
g11
sg20
S'1'
sg65
g36
(g77
S'\x00\x00\x00\x00\x00\x00\x00\x00'
tRp353
sg44
g45
sg40
g41
sg25
F0.34097336884588003
sS'trials.thisIndex'
p354
g36
(g80
S'\x07\x00\x00\x00'
tRp355
sg26
V5
sS'trials.thisRepN'
p356
I0
sg66
Vboat
p357
sg63
V../experiment_stimuli/bw_bc_bl/Nonliving_Things/Vehicles/boat_10.jpg
p358
sg21
F0.7819313770160079
sS'trials.thisTrialN'
p359
I24
sa(dp360
g31
g32
sg17
F111.93650845927186
sg24
I0
sg35
g39
sg14
F111.9307683914667
sg16
g36
(g70
S'\x02\x00\x00\x00'
tRp361
sg42
g43
sg46
g47
sg15
g72
sg22
F113.94578980002552
sg64
g137
sg62
g125
sg49
g50
sS'trials.thisN'
p362
I25
sg19
I1
sg27
g36
(g38
S'\x00\x00\x00\x00\x00\x00\x18@'
tRp363
sg52
g53
sg23
S'3'
sg18
F113.21345106267836
sg33
g34
sg51
g11
sg20
S'2'
sg65
g36
(g77
S'\x00\x00\x00\x00\x00\x00\x00\x00'
tRp364
sg44
g45
sg40
g41
sg25
F0.36099962296430022
sS'trials.thisIndex'
p365
g36
(g80
S'\t\x00\x00\x00'
tRp366
sg26
V5
sS'trials.thisRepN'
p367
I0
sg66
Vbus
p368
sg63
V../experiment_stimuli/bw_bc_bl/Nonliving_Things/Vehicles/bus_8.jpg
p369
sg21
F0.71177855448331684
sS'trials.thisTrialN'
p370
I25
sa(dp371
g31
g32
sg17
F116.04556898365263
sg24
I0
sg35
g39
sg14
F116.03969714685809
sg16
g36
(g70
S'\x01\x00\x00\x00'
tRp372
sg42
g43
sg46
g47
sg15
g72
sg22
F118.35536320100073
sg64
g73
sg62
g74
sg49
g50
sS'trials.thisN'
p373
I26
sg19
I1
sg27
g36
(g38
S'\x00\x00\x00\x00\x00\x00\x1a@'
tRp374
sg52
g53
sg23
S'2'
sg18
F117.30234119528905
sg33
g34
sg51
g11
sg20
S'1'
sg65
g36
(g77
S'\x00\x00\x00\x00\x00\x00\x00\x00'
tRp375
sg44
g45
sg40
g41
sg25
F0.45120052306447178
sS'trials.thisIndex'
p376
g36
(g80
S'8\x00\x00\x00'
tRp377
sg26
V5
sS'trials.thisRepN'
p378
I0
sg66
Vostrich
p379
sg63
V../experiment_stimuli/bw_bc_bl/Living_Things/Birds/ostrich_9.jpg
p380
sg21
F1.0224426091881469
sS'trials.thisTrialN'
p381
I26
sa(dp382
g31
g32
sg17
F120.54525160510093
sg24
I1
sg35
g39
sg14
F120.53949240571819
sg16
g36
(g70
S'\x02\x00\x00\x00'
tRp383
sg42
g43
sg46
g47
sg15
g72
sg22
F122.90526804700494
sg64
g339
sg62
g125
sg49
g50
sS'trials.thisN'
p384
I27
sg19
I1
sg27
g36
(g38
S'\x00\x00\x00\x00\x00\x00\x18@'
tRp385
sg52
g53
sg23
S'1'
sg18
F121.79209698934574
sg33
g34
sg51
g11
sg20
S'2'
sg65
g36
(g77
S'\x00\x00\x00\x00\x00\x00\x00\x00'
tRp386
sg44
g45
sg40
g41
sg25
F1.0725983419688419
sS'trials.thisIndex'
p387
g36
(g80
S'\x16\x00\x00\x00'
tRp388
sg26
V5
sS'trials.thisRepN'
p389
I0
sg66
Vcup
p390
sg63
V../experiment_stimuli/bw_bc_bl/Nonliving_Things/Kitchen_Uten/cup_3.jpg
p391
sg21
F1.0926160628441721
sS'trials.thisTrialN'
p392
I27
sa(dp393
g31
g32
sg17
F125.71572378918063
sg24
I0
sg35
g39
sg14
F125.71072736836504
sg16
g36
(g70
S'\x02\x00\x00\x00'
tRp394
sg42
g43
sg46
g47
sg15
g111
sg22
F127.79588049079757
sg64
g73
sg62
g74
sg49
g50
sS'trials.thisN'
p395
I28
sg19
I1
sg27
g36
(g38
S'\x00\x00\x00\x00\x00\x00 @'
tRp396
sg52
g53
sg23
S'2'
sg18
F126.98338326986413
sg33
g34
sg51
g11
sg20
S'2'
sg65
g36
(g77
S'\x00\x00\x00\x00\x00\x00\x00\x00'
tRp397
sg44
g45
sg40
g41
sg25
F0.40108829340897501
sS'trials.thisIndex'
p398
g36
(g80
S'<\x00\x00\x00'
tRp399
sg26
V5
sS'trials.thisRepN'
p400
I0
sg66
Vpelican
p401
sg63
V../experiment_stimuli/bw_bc_bl/Living_Things/Birds/pelican_1.jpg
p402
sg21
F0.79194597387686372
sS'trials.thisTrialN'
p403
I28
sa(dp404
g31
g32
sg17
F129.93578743061516
sg24
I1
sg35
g39
sg14
F129.92988533852622
sg16
g36
(g70
S'\x02\x00\x00\x00'
tRp405
sg42
g43
sg46
g47
sg15
g111
sg22
F133.04715506290086
sg64
g112
sg62
g74
sg49
g50
sS'trials.thisN'
p406
I29
sg19
I1
sg27
g36
(g38
S'\x00\x00\x00\x00\x00\x00\x18@'
tRp407
sg52
g53
sg23
S'1'
sg18
F131.19253349222708
sg33
g34
sg51
g11
sg20
S'2'
sg65
g36
(g77
S'\x00\x00\x00\x00\x00\x00\x00\x00'
tRp408
sg44
g45
sg40
g41
sg25
F0.43115506181493402
sS'trials.thisIndex'
p409
g36
(g80
S'\x10\x00\x00\x00'
tRp410
sg26
V5
sS'trials.thisRepN'
p411
I0
sg66
Vcheetah
p412
sg63
V../experiment_stimuli/bw_bc_bl/Living_Things/Animals/cheetah_1.jpg
p413
sg21
F1.8340517486212775
sS'trials.thisTrialN'
p414
I29
sa(dp415
g31
g32
sg17
F135.21630435436964
sg24
I0
sg35
g39
sg14
F135.21136920701247
sg16
g36
(g70
S'\x01\x00\x00\x00'
tRp416
sg42
g43
sg46
g47
sg15
g111
sg22
F137.18628425803035
sg64
g249
sg62
g125
sg49
g50
sS'trials.thisN'
p417
I30
sg19
I1
sg27
g36
(g38
S'\x00\x00\x00\x00\x00\x00\x1a@'
tRp418
sg52
g53
sg23
S'3'
sg18
F136.50408078369219
sg33
g34
sg51
g11
sg20
S'1'
sg65
g36
(g77
S'\x00\x00\x00\x00\x00\x00\x00\x00'
tRp419
sg44
g45
sg40
g41
sg25
F0.34081637824419886
sS'trials.thisIndex'
p420
g36
(g80
S'\x1c\x00\x00\x00'
tRp421
sg26
V5
sS'trials.thisRepN'
p422
I0
sg66
Vfactory
p423
sg63
V../experiment_stimuli/bw_bc_bl/Nonliving_Things/Buildings/factory_17.jpg
p424
sg21
F0.66166037006769329
sS'trials.thisTrialN'
p425
I30
sa(dp426
g31
g32
sg17
F139.26504429115448
sg24
I0
sg35
g39
sg14
F139.26017415826209
sg16
g36
(g70
S'\x01\x00\x00\x00'
tRp427
sg42
g43
sg46
g47
sg15
g72
sg22
F141.27520690497477
sg64
g73
sg62
g74
sg49
g50
sS'trials.thisN'
p428
I31
sg19
I1
sg27
g36
(g38
S'\x00\x00\x00\x00\x00\x00\x1a@'
tRp429
sg52
g53
sg23
S'2'
sg18
F140.53284330770839
sg33
g34
sg51
g11
sg20
S'1'
sg65
g36
(g77
S'\x00\x00\x00\x00\x00\x00\x00\x00'
tRp430
sg44
g45
sg40
g41
sg25
F0.68169849272817373
sS'trials.thisIndex'
p431
g36
(g80
S'?\x00\x00\x00'
tRp432
sg26
V5
sS'trials.thisRepN'
p433
I0
sg66
Vpigeon
p434
sg63
V../experiment_stimuli/bw_bc_bl/Living_Things/Birds/pigeon_6.jpg
p435
sg21
F0.72123885480687022
sS'trials.thisTrialN'
p436
I31
sa(dp437
g31
g32
sg17
F143.69565639086068
sg24
I0
sg35
g39
sg14
F143.68981269258074
sg16
g36
(g70
S'\x02\x00\x00\x00'
tRp438
sg42
g43
sg46
g47
sg15
g72
sg22
F145.62464949407149
sg64
g137
sg62
g125
sg49
g50
sS'trials.thisN'
p439
I32
sg19
I0
sg27
g36
(g38
S'\x00\x00\x00\x00\x00\x00\x1a@'
tRp440
sg52
g53
sg23
S'2'
sg18
F144.9524509330513
sg33
g34
sg51
g11
sg20
S'1'
sg65
g36
(g77
S'\x00\x00\x00\x00\x00\x00\x00\x00'
tRp441
sg44
g45
sg40
g41
sg25
F0.3209128100425005
sS'trials.thisIndex'
p442
g36
(g80
S'@\x00\x00\x00'
tRp443
sg26
V5
sS'trials.thisRepN'
p444
I0
sg66
Vplane
p445
sg63
V../experiment_stimuli/bw_bc_bl/Nonliving_Things/Vehicles/plane_6.jpg
p446
sg21
F0.6516493777744472
sS'trials.thisTrialN'
p447
I32
sa(dp448
g31
g32
sg17
F147.68352705659345
sg24
I1
sg35
g39
sg14
F147.67847372684628
sg16
g36
(g70
S'\x02\x00\x00\x00'
tRp449
sg42
g43
sg46
g47
sg15
g111
sg22
F149.77367146476172
sg64
g112
sg62
g74
sg49
g50
sS'trials.thisN'
p450
I33
sg19
I0
sg27
g36
(g38
S'\x00\x00\x00\x00\x00\x00\x1e@'
tRp451
sg52
g53
sg23
S'1'
sg18
F148.93109265598468
sg33
g34
sg51
g11
sg20
S'1'
sg65
g36
(g77
S'\x00\x00\x00\x00\x00\x00\x00\x00'
tRp452
sg44
g45
sg40
g41
sg25
F0.34097135742194951
sS'trials.thisIndex'
p453
g36
(g80
S'R\x00\x00\x00'
tRp454
sg26
V5
sS'trials.thisRepN'
p455
I0
sg66
Vtapir
p456
sg63
V../experiment_stimuli/bw_bc_bl/Living_Things/Animals/tapir_9.jpg
p457
sg21
F0.82202063733711839
sS'trials.thisTrialN'
p458
I33
sa(dp459
g31
g32
sg17
F151.85236702917609
sg24
I1
sg35
g39
sg14
F151.84753481298685
sg16
g36
(g70
S'\x01\x00\x00\x00'
tRp460
sg42
g43
sg46
g47
sg15
g72
sg22
F154.01288456481416
sg64
g112
sg62
g74
sg49
g50
sS'trials.thisN'
p461
I34
sg19
I1
sg27
g36
(g38
S'\x00\x00\x00\x00\x00\x00\x18@'
tRp462
sg52
g53
sg23
S'1'
sg18
F153.13022125861607
sg33
g34
sg51
g11
sg20
S'1'
sg65
g36
(g77
S'\x00\x00\x00\x00\x00\x00\x00\x00'
tRp463
sg44
g45
sg40
g41
sg25
F0.34096022229641676
sS'trials.thisIndex'
p464
g36
(g80
S'\x14\x00\x00\x00'
tRp465
sg26
V5
sS'trials.thisRepN'
p466
I0
sg66
Vcow
p467
sg63
V../experiment_stimuli/bw_bc_bl/Living_Things/Animals/cow_14.jpg
p468
sg21
F0.86210311949253082
sS'trials.thisTrialN'
p469
I34
sa(dp470
g31
g32
sg17
F156.09261908428743
sg24
I0
sg35
g39
sg14
F156.08673862356227
sg16
g36
(g70
S'\x02\x00\x00\x00'
tRp471
sg42
g43
sg46
g47
sg15
g72
sg22
F159.10396484832745
sg64
g339
sg62
g125
sg49
g50
sS'trials.thisN'
p472
I35
sg19
I1
sg27
g36
(g38
S'\x00\x00\x00\x00\x00\x00\x18@'
tRp473
sg52
g53
sg23
S'3'
sg18
F157.39950277400203
sg33
g34
sg51
g11
sg20
S'2'
sg65
g36
(g77
S'\x00\x00\x00\x00\x00\x00\x00\x00'
tRp474
sg44
g45
sg40
g41
sg25
F0.48128009983338416
sS'trials.thisIndex'
p475
g36
(g80
S'B\x00\x00\x00'
tRp476
sg26
V5
sS'trials.thisRepN'
p477
I0
sg66
Vpot
p478
sg63
V../experiment_stimuli/bw_bc_bl/Nonliving_Things/Kitchen_Uten/pot_6.jpg
p479
sg21
F1.683903515455313
sS'trials.thisTrialN'
p480
I35
sa(dp481
g31
g32
sg17
F161.3231024654815
sg24
I0
sg35
g39
sg14
F161.3181190706091
sg16
g36
(g70
S'\x01\x00\x00\x00'
tRp482
sg42
g43
sg46
g47
sg15
g111
sg22
F163.30308364296798
sg64
g137
sg62
g125
sg49
g50
sS'trials.thisN'
p483
I36
sg19
I1
sg27
g36
(g38
S'\x00\x00\x00\x00\x00\x00\x1a@'
tRp484
sg52
g53
sg23
S'3'
sg18
F162.61084559839219
sg33
g34
sg51
g11
sg20
S'1'
sg65
g36
(g77
S'\x00\x00\x00\x00\x00\x00\x00\x00'
tRp485
sg44
g45
sg40
g41
sg25
F0.45120087254326791
sS'trials.thisIndex'
p486
g36
(g80
S'\x0b\x00\x00\x00'
tRp487
sg26
V5
sS'trials.thisRepN'
p488
I0
sg66
Vcar
p489
sg63
V../experiment_stimuli/bw_bc_bl/Nonliving_Things/Vehicles/car_13.jpg
p490
sg21
F0.67168969218619168
sS'trials.thisTrialN'
p491
I36
sa(dp492
g31
g32
sg17
F165.49296002846677
sg24
I1
sg35
g39
sg14
F165.48717900249176
sg16
g36
(g70
S'\x02\x00\x00\x00'
tRp493
sg42
g43
sg46
g47
sg15
g111
sg22
F167.88303750613704
sg64
g73
sg62
g74
sg49
g50
sS'trials.thisN'
p494
I37
sg19
I1
sg27
g36
(g38
S'\x00\x00\x00\x00\x00\x00\x1e@'
tRp495
sg52
g53
sg23
S'1'
sg18
F166.74983647209592
sg33
g34
sg51
g11
sg20
S'2'
sg65
g36
(g77
S'\x00\x00\x00\x00\x00\x00\x00\x00'
tRp496
sg44
g45
sg40
g41
sg25
F0.36100295418873429
sS'trials.thisIndex'
p497
g36
(g80
S'C\x00\x00\x00'
tRp498
sg26
V5
sS'trials.thisRepN'
p499
I0
sg66
Vraven
p500
sg63
V../experiment_stimuli/bw_bc_bl/Living_Things/Birds/raven_1.jpg
p501
sg21
F1.112641200539656
sS'trials.thisTrialN'
p502
I37
sa(dp503
g31
g32
sg17
F169.98289009428117
sg24
I1
sg35
g39
sg14
F169.97693963104393
sg16
g36
(g70
S'\x01\x00\x00\x00'
tRp504
sg42
g43
sg46
g47
sg15
g72
sg22
F172.41288033116143
sg64
g112
sg62
g74
sg49
g50
sS'trials.thisN'
p505
I38
sg19
I1
sg27
g36
(g38
S'\x00\x00\x00\x00\x00\x00\x18@'
tRp506
sg52
g53
sg23
S'1'
sg18
F171.25963927945122
sg33
g34
sg51
g11
sg20
S'1'
sg65
g36
(g77
S'\x00\x00\x00\x00\x00\x00\x00\x00'
tRp507
sg44
g45
sg40
g41
sg25
F0.37101292319130152
sS'trials.thisIndex'
p508
g36
(g80
S'2\x00\x00\x00'
tRp509
sg26
V5
sS'trials.thisRepN'
p510
I0
sg66
Vlynx
p511
sg63
V../experiment_stimuli/bw_bc_bl/Living_Things/Animals/lynx_19.jpg
p512
sg21
F1.1326876769308001
sS'trials.thisTrialN'
p513
I38
sa(dp514
g31
g32
sg17
F174.52179025579244
sg24
I0
sg35
g39
sg14
F174.5168337066425
sg16
g36
(g70
S'\x02\x00\x00\x00'
tRp515
sg42
g43
sg46
g47
sg15
g72
sg22
F176.46166505676229
sg64
g124
sg62
g125
sg49
g50
sS'trials.thisN'
p516
I39
sg19
I1
sg27
g36
(g38
S'\x00\x00\x00\x00\x00\x00\x1a@'
tRp517
sg52
g53
sg23
S'3'
sg18
F175.82957300392445
sg33
g34
sg51
g11
sg20
S'2'
sg65
g36
(g77
S'\x00\x00\x00\x00\x00\x00\x00\x00'
tRp518
sg44
g45
sg40
g41
sg25
F0.89219194068573415
sS'trials.thisIndex'
p519
g36
(g80
S'.\x00\x00\x00'
tRp520
sg26
V5
sS'trials.thisRepN'
p521
I0
sg66
Vlamp
p522
sg63
V../experiment_stimuli/bw_bc_bl/Nonliving_Things/Furniture/lamp_17.jpg
p523
sg21
F0.61155341821722686
sS'trials.thisTrialN'
p524
I39
sa(dp525
g31
g32
sg17
F179.09169125906192
sg24
I0
sg35
g39
sg14
F179.08674776984844
sg16
g36
(g70
S'\x01\x00\x00\x00'
tRp526
sg42
g43
sg46
g47
sg15
g111
sg22
F180.98150628816802
sg64
g339
sg62
g125
sg49
g50
sS'trials.thisN'
p527
I40
sg19
I1
sg27
g36
(g38
S'\x00\x00\x00\x00\x00\x00\x1a@'
tRp528
sg52
g53
sg23
S'3'
sg18
F180.37944855715614
sg33
g34
sg51
g11
sg20
S'1'
sg65
g36
(g77
S'\x00\x00\x00\x00\x00\x00\x00\x00'
tRp529
sg44
g45
sg40
g41
sg25
F0.71179002057760954
sS'trials.thisIndex'
p530
g36
(g80
S'M\x00\x00\x00'
tRp531
sg26
V5
sS'trials.thisRepN'
p532
I0
sg66
Vsmall-saucepan
p533
sg63
V../experiment_stimuli/bw_bc_bl/Nonliving_Things/Kitchen_Uten/small-saucepan_1.jpg
p534
sg21
F0.58149803662672639
sS'trials.thisTrialN'
p535
I40
sa(dp536
g31
g32
sg17
F183.43109313864261
sg24
I1
sg35
g39
sg14
F183.42618029168807
sg16
g36
(g70
S'\x02\x00\x00\x00'
tRp537
sg42
g43
sg46
g47
sg15
g111
sg22
F185.7719128516037
sg64
VInsects
p538
sg62
g74
sg49
g50
sS'trials.thisN'
p539
I41
sg19
I0
sg27
g36
(g38
S'\x00\x00\x00\x00\x00\x00\x1c@'
tRp540
sg52
g53
sg23
S'1'
sg18
F184.68883525009733
sg33
g34
sg51
g11
sg20
S'1'
sg65
g36
(g77
S'\x00\x00\x00\x00\x00\x00\x00\x00'
tRp541
sg44
g45
sg40
g41
sg25
F0.7518651382997632
sS'trials.thisIndex'
p542
g36
(g80
S'I\x00\x00\x00'
tRp543
sg26
V5
sS'trials.thisRepN'
p544
I0
sg66
Vscorpion
p545
sg63
V../experiment_stimuli/bw_bc_bl/Living_Things/Insects/scorpion_26.jpg
p546
sg21
F1.0625331589253619
sS'trials.thisTrialN'
p547
I41
sa(dp548
g31
g32
sg17
F188.26161558588501
sg24
I0
sg35
g39
sg14
F188.25668080337346
sg16
g36
(g70
S'\x01\x00\x00\x00'
tRp549
sg42
g43
sg46
g47
sg15
g111
sg22
F190.13139873289037
sg64
g339
sg62
g125
sg49
g50
sS'trials.thisN'
p550
I42
sg19
I1
sg27
g36
(g38
S'\x00\x00\x00\x00\x00\x00 @'
tRp551
sg52
g53
sg23
S'3'
sg18
F189.5293541821884
sg33
g34
sg51
g11
sg20
S'1'
sg65
g36
(g77
S'\x00\x00\x00\x00\x00\x00\x00\x00'
tRp552
sg44
g45
sg40
g41
sg25
F0.33093012880999595
sS'trials.thisIndex'
p553
g36
(g80
S'G\x00\x00\x00'
tRp554
sg26
V5
sS'trials.thisRepN'
p555
I0
sg66
Vsaucepan
p556
sg63
V../experiment_stimuli/bw_bc_bl/Nonliving_Things/Kitchen_Uten/saucepan_11.jpg
p557
sg21
F0.58150355168618262
sS'trials.thisTrialN'
p558
I42
sa(dp559
g31
g32
sg17
F192.20020938222297
sg24
I1
sg35
g39
sg14
F192.19524679565802
sg16
g36
(g70
S'\x02\x00\x00\x00'
tRp560
sg42
g43
sg46
g47
sg15
g111
sg22
F194.31049232557416
sg64
g112
sg62
g74
sg49
g50
sS'trials.thisN'
p561
I43
sg19
I1
sg27
g36
(g38
S'\x00\x00\x00\x00\x00\x00\x18@'
tRp562
sg52
g53
sg23
S'1'
sg18
F193.44787395023741
sg33
g34
sg51
g11
sg20
S'2'
sg65
g36
(g77
S'\x00\x00\x00\x00\x00\x00\x00\x00'
tRp563
sg44
g45
sg40
g41
sg25
F0.40109051892068237
sS'trials.thisIndex'
p564
g36
(g80
S'_\x00\x00\x00'
tRp565
sg26
V5
sS'trials.thisRepN'
p566
I0
sg66
Vzebra
p567
sg63
V../experiment_stimuli/bw_bc_bl/Living_Things/Animals/zebra_5.jpg
p568
sg21
F0.84206206072121859
sS'trials.thisTrialN'
p569
I43
sa(dp570
g31
g32
sg17
F196.44940862501971
sg24
I0
sg35
g39
sg14
F196.44447153061628
sg16
g36
(g70
S'\x02\x00\x00\x00'
tRp571
sg42
g43
sg46
g47
sg15
g72
sg22
F198.55971869186033
sg64
g237
sg62
g125
sg49
g50
sS'trials.thisN'
p572
I44
sg19
I1
sg27
g36
(g38
S'\x00\x00\x00\x00\x00\x00\x1a@'
tRp573
sg52
g53
sg23
S'2'
sg18
F197.707131744246
sg33
g34
sg51
g11
sg20
S'2'
sg65
g36
(g77
S'\x00\x00\x00\x00\x00\x00\x00\x00'
tRp574
sg44
g45
sg40
g41
sg25
F0.30087407841347158
sS'trials.thisIndex'
p575
g36
(g80
S'H\x00\x00\x00'
tRp576
sg26
V5
sS'trials.thisRepN'
p577
I0
sg66
Vsaxophone
p578
sg63
V../experiment_stimuli/bw_bc_bl/Nonliving_Things/Musical_Inst/saxophone_9.jpg
p579
sg21
F0.83203652012161911
sS'trials.thisTrialN'
p580
I44
sa(dp581
g31
g32
sg17
F200.59831548098009
sg24
I1
sg35
g39
sg14
F200.59350720793009
sg16
g36
(g70
S'\x01\x00\x00\x00'
tRp582
sg42
g43
sg46
g47
sg15
g72
sg22
F202.36800418142229
sg64
g99
sg62
g74
sg49
g50
sS'trials.thisN'
p583
I45
sg19
I0
sg27
g36
(g38
S'\x00\x00\x00\x00\x00\x00\x18@'
tRp584
sg52
g53
sg23
S'1'
sg18
F201.84611952782143
sg33
g34
sg51
g11
sg20
S'2'
sg65
g36
(g77
S'\x00\x00\x00\x00\x00\x00\x00\x00'
tRp585
sg44
g45
sg40
g41
sg25
F0.26078635139856488
sS'trials.thisIndex'
p586
g36
(g80
S'K\x00\x00\x00'
tRp587
sg26
V5
sS'trials.thisRepN'
p588
I0
sg66
Vshark
p589
sg63
V../experiment_stimuli/bw_bc_bl/Living_Things/Marine_creatures/shark_17.jpg
p590
sg21
F0.50132646295242012
sS'trials.thisTrialN'
p591
I45
sa(dp592
g31
g32
sg17
F204.36759708169848
sg24
I1
sg35
g39
sg14
F204.36168787337374
sg16
g36
(g70
S'\x01\x00\x00\x00'
tRp593
sg42
g43
sg46
g47
sg15
g72
sg22
F206.21635746210814
sg64
g99
sg62
g74
sg49
g50
sS'trials.thisN'
p594
I46
sg19
I1
sg27
g36
(g38
S'\x00\x00\x00\x00\x00\x00\x18@'
tRp595
sg52
g53
sg23
S'1'
sg18
F205.63439831149299
sg33
g34
sg51
g11
sg20
S'1'
sg65
g36
(g77
S'\x00\x00\x00\x00\x00\x00\x00\x00'
tRp596
sg44
g45
sg40
g41
sg25
F0.31089729571249336
sS'trials.thisIndex'
p597
g36
(g80
S'7\x00\x00\x00'
tRp598
sg26
V5
sS'trials.thisRepN'
p599
I0
sg66
Vnarwhal
p600
sg63
V../experiment_stimuli/bw_bc_bl/Living_Things/Marine_creatures/narwhal_10.jpg
p601
sg21
F0.56144683493766934
sS'trials.thisTrialN'
p602
I46
sa(dp603
g31
g32
sg17
F208.26727474003565
sg24
I0
sg35
g39
sg14
F208.26016100740526
sg16
g36
(g70
S'\x01\x00\x00\x00'
tRp604
sg42
g43
sg46
g47
sg15
g111
sg22
F210.44555246108212
sg64
g237
sg62
g125
sg49
g50
sS'trials.thisN'
p605
I47
sg19
I1
sg27
g36
(g38
S'\x00\x00\x00\x00\x00\x00\x1a@'
tRp606
sg52
g53
sg23
S'2'
sg18
F209.54285207332578
sg33
g34
sg51
g11
sg20
S'1'
sg65
g36
(g77
S'\x00\x00\x00\x00\x00\x00\x00\x00'
tRp607
sg44
g45
sg40
g41
sg25
F0.31089698360301554
sS'trials.thisIndex'
p608
g36
(g80
S'X\x00\x00\x00'
tRp609
sg26
V5
sS'trials.thisRepN'
p610
I0
sg66
Vtrumpet
p611
sg63
V../experiment_stimuli/bw_bc_bl/Nonliving_Things/Musical_Inst/trumpet_12.jpg
p612
sg21
F0.88214338896796107
sS'trials.thisTrialN'
p613
I47
sa(dp614
g31
g32
sg17
F212.49432299181353
sg24
I0
sg35
g39
sg14
F212.48935929243453
sg16
g36
(g70
S'\x02\x00\x00\x00'
tRp615
sg42
g43
sg46
g47
sg15
g111
sg22
F214.9754037335515
sg64
g112
sg62
g74
sg49
g50
sS'trials.thisN'
p616
I48
sg19
I1
sg27
g36
(g38
S'\x00\x00\x00\x00\x00\x00\x18@'
tRp617
sg52
g53
sg23
S'2'
sg18
F213.76203525369056
sg33
g34
sg51
g11
sg20
S'2'
sg65
g36
(g77
S'\x00\x00\x00\x00\x00\x00\x00\x00'
tRp618
sg44
g45
sg40
g41
sg25
F0.651655362569727
sS'trials.thisIndex'
p619
g36
(g80
S"'\x00\x00\x00"
tRp620
sg26
V5
sS'trials.thisRepN'
p621
I0
sg66
Vhippopotamus
p622
sg63
V../experiment_stimuli/bw_bc_bl/Living_Things/Animals/hippopotamus_4.jpg
p623
sg21
F1.1928199770627543
sS'trials.thisTrialN'
p624
I48
sa(dp625
g31
g32
sg17
F217.36478517530486
sg24
I0
sg35
g39
sg14
F217.35997135739308
sg16
g36
(g70
S'\x02\x00\x00\x00'
tRp626
sg42
g43
sg46
g47
sg15
g72
sg22
F219.30481065472122
sg64
g339
sg62
g125
sg49
g50
sS'trials.thisN'
p627
I49
sg19
I1
sg27
g36
(g38
S'\x00\x00\x00\x00\x00\x00\x1a@'
tRp628
sg52
g53
sg23
S'3'
sg18
F218.62259454536252
sg33
g34
sg51
g11
sg20
S'2'
sg65
g36
(g77
S'\x00\x00\x00\x00\x00\x00\x00\x00'
tRp629
sg44
g45
sg40
g41
sg25
F2.3451723158359528
sS'trials.thisIndex'
p630
g36
(g80
S'\x1e\x00\x00\x00'
tRp631
sg26
V5
sS'trials.thisRepN'
p632
I0
sg66
Vfondue
p633
sg63
V../experiment_stimuli/bw_bc_bl/Nonliving_Things/Kitchen_Uten/fondue_19.jpg
p634
sg21
F0.6616657079430297
sS'trials.thisTrialN'
p635
I49
sa(dp636
g31
g32
sg17
F223.38803995831404
sg24
I1
sg35
g39
sg14
F223.38303923327476
sg16
g36
(g70
S'\x02\x00\x00\x00'
tRp637
sg42
g43
sg46
g47
sg15
g72
sg22
F225.22768773231655
sg64
g249
sg62
g125
sg49
g50
sS'trials.thisN'
p638
I50
sg19
I1
sg27
g36
(g38
S'\x00\x00\x00\x00\x00\x00\x1a@'
tRp639
sg52
g53
sg23
S'1'
sg18
F224.6156181107508
sg33
g34
sg51
g11
sg20
S'2'
sg65
g36
(g77
S'\x00\x00\x00\x00\x00\x00\x00\x00'
tRp640
sg44
g45
sg40
g41
sg25
F0.32092006166931242
sS'trials.thisIndex'
p641
g36
(g80
S':\x00\x00\x00'
tRp642
sg26
V5
sS'trials.thisRepN'
p643
I0
sg66
Vpalace
p644
sg63
V../experiment_stimuli/bw_bc_bl/Nonliving_Things/Buildings/palace_2.jpg
p645
sg21
F0.59150781435891986
sS'trials.thisTrialN'
p646
I50
sa(dp647
g31
g32
sg17
F227.28633500100113
sg24
I0
sg35
g39
sg14
F227.28151429945137
sg16
g36
(g70
S'\x02\x00\x00\x00'
tRp648
sg42
g43
sg46
g47
sg15
g72
sg22
F229.17625800240785
sg64
g124
sg62
g125
sg49
g50
sS'trials.thisN'
p649
I51
sg19
I1
sg27
g36
(g38
S'\x00\x00\x00\x00\x00\x00\x1c@'
tRp650
sg52
g53
sg23
S'2'
sg18
F228.52411296614446
sg33
g34
sg51
g11
sg20
S'2'
sg65
g36
(g77
S'\x00\x00\x00\x00\x00\x00\x00\x00'
tRp651
sg44
g45
sg40
g41
sg25
F0.83202693774364889
sS'trials.thisIndex'
p652
g36
(g80
S'\x00\x00\x00\x00'
tRp653
sg26
V5
sS'trials.thisRepN'
p654
I0
sg66
VChest-of-drawers
p655
sg63
V../experiment_stimuli/bw_bc_bl/Nonliving_Things/Furniture/Chest-of-drawers_11.jpg
p656
sg21
F0.63159719516988844
sS'trials.thisTrialN'
p657
I51
sa(dp658
g31
g32
sg17
F231.74597430147696
sg24
I1
sg35
g39
sg14
F231.74121087347157
sg16
g36
(g70
S'\x01\x00\x00\x00'
tRp659
sg42
g43
sg46
g47
sg15
g111
sg22
F233.72615702892654
sg64
g124
sg62
g125
sg49
g50
sS'trials.thisN'
p660
I52
sg19
I0
sg27
g36
(g38
S'\x00\x00\x00\x00\x00\x00\x18@'
tRp661
sg52
g53
sg23
S'1'
sg18
F232.97378389781807
sg33
g34
sg51
g11
sg20
S'2'
sg65
g36
(g77
S'\x00\x00\x00\x00\x00\x00\x00\x00'
tRp662
sg44
g45
sg40
g41
sg25
F0.32092631363775581
sS'trials.thisIndex'
p663
g36
(g80
S'N\x00\x00\x00'
tRp664
sg26
V5
sS'trials.thisRepN'
p665
I0
sg66
Vsofa
p666
sg63
V../experiment_stimuli/bw_bc_bl/Nonliving_Things/Furniture/sofa_19.jpg
p667
sg21
F0.73182018077932298
sS'trials.thisTrialN'
p668
I52
sa(dp669
g31
g32
sg17
F235.78596363065299
sg24
I0
sg35
g39
sg14
F235.77998241560999
sg16
g36
(g70
S'\x01\x00\x00\x00'
tRp670
sg42
g43
sg46
g47
sg15
g111
sg22
F238.0255250830669
sg64
g124
sg62
g125
sg49
g50
sS'trials.thisN'
p671
I53
sg19
I1
sg27
g36
(g38
S'\x00\x00\x00\x00\x00\x00 @'
tRp672
sg52
g53
sg23
S'2'
sg18
F237.03261795709841
sg33
g34
sg51
g11
sg20
S'1'
sg65
g36
(g77
S'\x00\x00\x00\x00\x00\x00\x00\x00'
tRp673
sg44
g45
sg40
g41
sg25
F0.38104698644019663
sS'trials.thisIndex'
p674
g36
(g80
S'Q\x00\x00\x00'
tRp675
sg26
V5
sS'trials.thisRepN'
p676
I0
sg66
Vtable
p677
sg63
V../experiment_stimuli/bw_bc_bl/Nonliving_Things/Furniture/table_12.jpg
p678
sg21
F0.97234010836109519
sS'trials.thisTrialN'
p679
I53
sa(dp680
g31
g32
sg17
F240.14444726321381
sg24
I0
sg35
g39
sg14
F240.13948868762236
sg16
g36
(g70
S'\x01\x00\x00\x00'
tRp681
sg42
g43
sg46
g47
sg15
g111
sg22
F241.97407771821599
sg64
g237
sg62
g125
sg49
g50
sS'trials.thisN'
p682
I54
sg19
I1
sg27
g36
(g38
S'\x00\x00\x00\x00\x00\x00\x1a@'
tRp683
sg52
g53
sg23
S'2'
sg18
F241.38206495973282
sg33
g34
sg51
g11
sg20
S'1'
sg65
g36
(g77
S'\x00\x00\x00\x00\x00\x00\x00\x00'
tRp684
sg44
g45
sg40
g41
sg25
F0.36100434465333819
sS'trials.thisIndex'
p685
g36
(g80
S'\x19\x00\x00\x00'
tRp686
sg26
V5
sS'trials.thisRepN'
p687
I0
sg66
Vdrum
p688
sg63
V../experiment_stimuli/bw_bc_bl/Nonliving_Things/Musical_Inst/drum_25.jpg
p689
sg21
F0.57146940205711871
sS'trials.thisTrialN'
p690
I54
sa(dp691
g31
g32
sg17
F244.07302998495288
sg24
I1
sg35
g39
sg14
F244.06800502678379
sg16
g36
(g70
S'\x02\x00\x00\x00'
tRp692
sg42
g43
sg46
g47
sg15
g72
sg22
F246.133115598117
sg64
g124
sg62
g125
sg49
g50
sS'trials.thisN'
p693
I55
sg19
I1
sg27
g36
(g38
S'\x00\x00\x00\x00\x00\x00\x18@'
tRp694
sg52
g53
sg23
S'1'
sg18
F245.30057960748672
sg33
g34
sg51
g11
sg20
S'2'
sg65
g36
(g77
S'\x00\x00\x00\x00\x00\x00\x00\x00'
tRp695
sg44
g45
sg40
g41
sg25
F0.32091574987862259
sS'trials.thisIndex'
p696
g36
(g80
S'\x08\x00\x00\x00'
tRp697
sg26
V5
sS'trials.thisRepN'
p698
I0
sg66
Vbookcase
p699
sg63
V../experiment_stimuli/bw_bc_bl/Nonliving_Things/Furniture/bookcase_12.jpg
p700
sg21
F0.81198899121955037
sS'trials.thisTrialN'
p701
I55
sa(dp702
g31
g32
sg17
F248.19192005984951
sg24
I1
sg35
g39
sg14
F248.18696801841725
sg16
g36
(g70
S'\x02\x00\x00\x00'
tRp703
sg42
g43
sg46
g47
sg15
g111
sg22
F250.74318995827343
sg64
g73
sg62
g74
sg49
g50
sS'trials.thisN'
p704
I56
sg19
I0
sg27
g36
(g38
S'\x00\x00\x00\x00\x00\x00\x18@'
tRp705
sg52
g53
sg23
S'1'
sg18
F249.44960276258644
sg33
g34
sg51
g11
sg20
S'1'
sg65
g36
(g77
S'\x00\x00\x00\x00\x00\x00\x00\x00'
tRp706
sg44
g45
sg40
g41
sg25
F0.49129033240024
sS'trials.thisIndex'
p707
g36
(g80
S'*\x00\x00\x00'
tRp708
sg26
V5
sS'trials.thisRepN'
p709
I0
sg66
Vhummingbird
p710
sg63
V../experiment_stimuli/bw_bc_bl/Living_Things/Birds/hummingbird_3.jpg
p711
sg21
F1.2729907913599163
sS'trials.thisTrialN'
p712
I56
sa(dp713
g31
g32
sg17
F252.97227751917671
sg24
I1
sg35
g39
sg14
F252.9673566686688
sg16
g36
(g70
S'\x01\x00\x00\x00'
tRp714
sg42
g43
sg46
g47
sg15
g72
sg22
F255.21288975735661
sg64
g73
sg62
g74
sg49
g50
sS'trials.thisN'
p715
I57
sg19
I1
sg27
g36
(g38
S'\x00\x00\x00\x00\x00\x00\x1c@'
tRp716
sg52
g53
sg23
S'1'
sg18
F254.26005825656466
sg33
g34
sg51
g11
sg20
S'1'
sg65
g36
(g77
S'\x00\x00\x00\x00\x00\x00\x00\x00'
tRp717
sg44
g45
sg40
g41
sg25
F0.32091904303524643
sS'trials.thisIndex'
p718
g36
(g80
S'"\x00\x00\x00'
tRp719
sg26
V5
sS'trials.thisRepN'
p720
I0
sg66
Vgoose
p721
sg63
V../experiment_stimuli/bw_bc_bl/Living_Things/Birds/goose_5.jpg
p722
sg21
F0.93225973134394735
sS'trials.thisTrialN'
p723
I57
sa(dp724
g31
g32
sg17
F257.2739115372533
sg24
I0
sg35
g39
sg14
F257.26669389626477
sg16
g36
(g70
S'\x02\x00\x00\x00'
tRp725
sg42
g43
sg46
g47
sg15
g111
sg22
F259.30176254443359
sg64
g538
sg62
g74
sg49
g50
sS'trials.thisN'
p726
I58
sg19
I1
sg27
g36
(g38
S'\x00\x00\x00\x00\x00\x00\x18@'
tRp727
sg52
g53
sg23
S'3'
sg18
F258.57944880635478
sg33
g34
sg51
g11
sg20
S'2'
sg65
g36
(g77
S'\x00\x00\x00\x00\x00\x00\x00\x00'
tRp728
sg44
g45
sg40
g41
sg25
F0.44102184940129519
sS'trials.thisIndex'
p729
g36
(g80
S'\n\x00\x00\x00'
tRp730
sg26
V5
sS'trials.thisRepN'
p731
I0
sg66
Vbutterfly
p732
sg63
V../experiment_stimuli/bw_bc_bl/Living_Things/Insects/butterfly_12.jpg
p733
sg21
F0.70175158139318228
sS'trials.thisTrialN'
p734
I58
sa(dp735
g31
g32
sg17
F261.48073907464277
sg24
I1
sg35
g39
sg14
F261.47584502480458
sg16
g36
(g70
S'\x01\x00\x00\x00'
tRp736
sg42
g43
sg46
g47
sg15
g111
sg22
F264.65326731628738
sg64
g124
sg62
g125
sg49
g50
sS'trials.thisN'
p737
I59
sg19
I0
sg27
g36
(g38
S'\x00\x00\x00\x00\x00\x00\x18@'
tRp738
sg52
g53
sg23
S'1'
sg18
F262.75853380118497
sg33
g34
sg51
g11
sg20
S'2'
sg65
g36
(g77
S'\x00\x00\x00\x00\x00\x00\x00\x00'
tRp739
sg44
g45
sg40
g41
sg25
F0.38104818586725742
sS'trials.thisIndex'
p740
g36
(g80
S'\x13\x00\x00\x00'
tRp741
sg26
V5
sS'trials.thisRepN'
p742
I0
sg66
Vcouch
p743
sg63
V../experiment_stimuli/bw_bc_bl/Nonliving_Things/Furniture/couch_3.jpg
p744
sg21
F1.8741497006267309
sS'trials.thisTrialN'
p745
I59
sa(dp746
g31
g32
sg17
F266.77348015073221
sg24
I1
sg35
g39
sg14
F266.76735163689591
sg16
g36
(g70
S'\x02\x00\x00\x00'
tRp747
sg42
g43
sg46
g47
sg15
g111
sg22
F268.80243906669784
sg64
g73
sg62
g74
sg49
g50
sS'trials.thisN'
p748
I60
sg19
I0
sg27
g36
(g38
S'\x00\x00\x00\x00\x00\x00\x1a@'
tRp749
sg52
g53
sg23
S'1'
sg18
F268.06006296549458
sg33
g34
sg51
g11
sg20
S'1'
sg65
g36
(g77
S'\x00\x00\x00\x00\x00\x00\x00\x00'
tRp750
sg44
g45
sg40
g41
sg25
F0.5915029423777014
sS'trials.thisIndex'
p751
g36
(g80
S'3\x00\x00\x00'
tRp752
sg26
V5
sS'trials.thisRepN'
p753
I0
sg66
Vmagpie
p754
sg63
V../experiment_stimuli/bw_bc_bl/Living_Things/Birds/magpie_3.jpg
p755
sg21
F0.7218133055139333
sS'trials.thisTrialN'
p756
I60
sa(dp757
g31
g32
sg17
F271.13174260593951
sg24
I0
sg35
g39
sg14
F271.12682733440306
sg16
g36
(g70
S'\x02\x00\x00\x00'
tRp758
sg42
g43
sg46
g47
sg15
g111
sg22
F273.65288252581377
sg64
g112
sg62
g74
sg49
g50
sS'trials.thisN'
p759
I61
sg19
I1
sg27
g36
(g38
S'\x00\x00\x00\x00\x00\x00\x1a@'
tRp760
sg52
g53
sg23
S'3'
sg18
F272.44960398424882
sg33
g34
sg51
g11
sg20
S'2'
sg65
g36
(g77
S'\x00\x00\x00\x00\x00\x00\x00\x00'
tRp761
sg44
g45
sg40
g41
sg25
F1.0423408390488476
sS'trials.thisIndex'
p762
g36
(g80
S'(\x00\x00\x00'
tRp763
sg26
V5
sS'trials.thisRepN'
p764
I0
sg66
Vhorse
p765
sg63
V../experiment_stimuli/bw_bc_bl/Living_Things/Animals/horse_18.jpg
p766
sg21
F1.182652254239656
sS'trials.thisTrialN'
p767
I61
sa(dp768
g31
g32
sg17
F276.4332056544954
sg24
I1
sg35
g39
sg14
F276.42835102113895
sg16
g36
(g70
S'\x02\x00\x00\x00'
tRp769
sg42
g43
sg46
g47
sg15
g111
sg22
F279.91657621483319
sg64
g73
sg62
g74
sg49
g50
sS'trials.thisN'
p770
I62
sg19
I1
sg27
g36
(g38
S'\x00\x00\x00\x00\x00\x00\x1c@'
tRp771
sg52
g53
sg23
S'1'
sg18
F277.73108107829466
sg33
g34
sg51
g11
sg20
S'2'
sg65
g36
(g77
S'\x00\x00\x00\x00\x00\x00\x00\x00'
tRp772
sg44
g45
sg40
g41
sg25
F0.34095582377631217
sS'trials.thisIndex'
p773
g36
(g80
S'=\x00\x00\x00'
tRp774
sg26
V5
sS'trials.thisRepN'
p775
I0
sg66
Vpenguin
p776
sg63
V../experiment_stimuli/bw_bc_bl/Living_Things/Birds/penguin_15.jpg
p777
sg21
F2.1649316415423527
sS'trials.thisTrialN'
p778
I62
sa(dp779
g31
g32
sg17
F281.99529698933475
sg24
I0
sg35
g39
sg14
F281.99043827725109
sg16
g36
(g70
S'\x02\x00\x00\x00'
tRp780
sg42
g43
sg46
g47
sg15
g72
sg22
F283.99548087036237
sg64
g249
sg62
g125
sg49
g50
sS'trials.thisN'
p781
I63
sg19
I1
sg27
g36
(g38
S'\x00\x00\x00\x00\x00\x00\x1a@'
tRp782
sg52
g53
sg23
S'3'
sg18
F283.29317148844711
sg33
g34
sg51
g11
sg20
S'2'
sg65
g36
(g77
S'\x00\x00\x00\x00\x00\x00\x00\x00'
tRp783
sg44
g45
sg40
g41
sg25
F0.35098131932318211
sS'trials.thisIndex'
p784
g36
(g80
S'\x11\x00\x00\x00'
tRp785
sg26
V5
sS'trials.thisRepN'
p786
I0
sg66
Vchurch
p787
sg63
V../experiment_stimuli/bw_bc_bl/Nonliving_Things/Buildings/church_26.jpg
p788
sg21
F0.6817404207540676
sS'trials.thisTrialN'
p789
I63
sa(dp790
g31
g32
sg17
F286.08424813614693
sg24
I1
sg35
g39
sg14
F286.07933409756515
sg16
g36
(g70
S'\x02\x00\x00\x00'
tRp791
sg42
g43
sg46
g47
sg15
g72
sg22
F288.25470694690011
sg64
g237
sg62
g125
sg49
g50
sS'trials.thisN'
p792
I64
sg19
I1
sg27
g36
(g38
S'\x00\x00\x00\x00\x00\x00\x1a@'
tRp793
sg52
g53
sg23
S'1'
sg18
F287.36201742687263
sg33
g34
sg51
g11
sg20
S'2'
sg65
g36
(g77
S'\x00\x00\x00\x00\x00\x00\x00\x00'
tRp794
sg44
g45
sg40
g41
sg25
F0.2908456091536209
sS'trials.thisIndex'
p795
g36
(g80
S'\\\x00\x00\x00'
tRp796
sg26
V5
sS'trials.thisRepN'
p797
I0
sg66
Vviolin
p798
sg63
V../experiment_stimuli/bw_bc_bl/Nonliving_Things/Musical_Inst/violin_4.jpg
p799
sg21
F0.86210061970632523
sS'trials.thisTrialN'
p800
I64
sa(dp801
g31
g32
sg17
F290.28581573022529
sg24
I0
sg35
g39
sg14
F290.27845666301437
sg16
g36
(g70
S'\x01\x00\x00\x00'
tRp802
sg42
g43
sg46
g47
sg15
g72
sg22
F292.33356255013496
sg64
g538
sg62
g74
sg49
g50
sS'trials.thisN'
p803
I65
sg19
I1
sg27
g36
(g38
S'\x00\x00\x00\x00\x00\x00\x1a@'
tRp804
sg52
g53
sg23
S'3'
sg18
F291.56114716513548
sg33
g34
sg51
g11
sg20
S'1'
sg65
g36
(g77
S'\x00\x00\x00\x00\x00\x00\x00\x00'
tRp805
sg44
g45
sg40
g41
sg25
F0.39106997067574412
sS'trials.thisIndex'
p806
g36
(g80
S'\x18\x00\x00\x00'
tRp807
sg26
V5
sS'trials.thisRepN'
p808
I0
sg66
Vdragonfly
p809
sg63
V../experiment_stimuli/bw_bc_bl/Living_Things/Insects/dragonfly_24.jpg
p810
sg21
F0.74184036068618298
sS'trials.thisTrialN'
p811
I65
sa(dp812
g31
g32
sg17
F294.46240843774285
sg24
I0
sg35
g39
sg14
F294.45753694756422
sg16
g36
(g70
S'\x01\x00\x00\x00'
tRp813
sg42
g43
sg46
g47
sg15
g111
sg22
F296.55271783971693
sg64
g124
sg62
g125
sg49
g50
sS'trials.thisN'
p814
I66
sg19
I1
sg27
g36
(g38
S'\x00\x00\x00\x00\x00\x00\x18@'
tRp815
sg52
g53
sg23
S'3'
sg18
F295.72018565400504
sg33
g34
sg51
g11
sg20
S'1'
sg65
g36
(g77
S'\x00\x00\x00\x00\x00\x00\x00\x00'
tRp816
sg44
g45
sg40
g41
sg25
F0.32091956189833581
sS'trials.thisIndex'
p817
g36
(g80
S'\x06\x00\x00\x00'
tRp818
sg26
V5
sS'trials.thisRepN'
p819
I0
sg66
Vbedside-table
p820
sg63
V../experiment_stimuli/bw_bc_bl/Nonliving_Things/Furniture/bedside-table_14.jpg
p821
sg21
F0.81198960414621979
sS'trials.thisTrialN'
p822
I66
sa(dp823
g31
g32
sg17
F298.61136906710453
sg24
I1
sg35
g39
sg14
F298.60656516626477
sg16
g36
(g70
S'\x02\x00\x00\x00'
tRp824
sg42
g43
sg46
g47
sg15
g111
sg22
F300.46121353725903
sg64
g73
sg62
g74
sg49
g50
sS'trials.thisN'
p825
I67
sg19
I1
sg27
g36
(g38
S'\x00\x00\x00\x00\x00\x00\x18@'
tRp826
sg52
g53
sg23
S'1'
sg18
F299.84916075749788
sg33
g34
sg51
g11
sg20
S'2'
sg65
g36
(g77
S'\x00\x00\x00\x00\x00\x00\x00\x00'
tRp827
sg44
g45
sg40
g41
sg25
F0.34096284268889576
sS'trials.thisIndex'
p828
g36
(g80
S'F\x00\x00\x00'
tRp829
sg26
V5
sS'trials.thisRepN'
p830
I0
sg66
Vrooster
p831
sg63
V../experiment_stimuli/bw_bc_bl/Living_Things/Birds/rooster_1.jpg
p832
sg21
F0.59150765300728381
sS'trials.thisTrialN'
p833
I67
sa(dp834
g31
g32
sg17
F302.5399999198271
sg24
I0
sg35
g39
sg14
F302.53510101640131
sg16
g36
(g70
S'\x01\x00\x00\x00'
tRp835
sg42
g43
sg46
g47
sg15
g72
sg22
F304.69042323168833
sg64
g99
sg62
g74
sg49
g50
sS'trials.thisN'
p836
I68
sg19
I1
sg27
g36
(g38
S'\x00\x00\x00\x00\x00\x00\x1a@'
tRp837
sg52
g53
sg23
S'2'
sg18
F303.79774998605717
sg33
g34
sg51
g11
sg20
S'1'
sg65
g36
(g77
S'\x00\x00\x00\x00\x00\x00\x00\x00'
tRp838
sg44
g45
sg40
g41
sg25
F0.58148604817688465
sS'trials.thisIndex'
p839
g36
(g80
S'\x15\x00\x00\x00'
tRp840
sg26
V5
sS'trials.thisRepN'
p841
I0
sg66
Vcrab
p842
sg63
V../experiment_stimuli/bw_bc_bl/Living_Things/Marine_creatures/crab_10.jpg
p843
sg21
F0.86210543173365295
sS'trials.thisTrialN'
p844
I68
sa(dp845
g31
g32
sg17
F307.00960400211625
sg24
I0
sg35
g39
sg14
F307.00481683399994
sg16
g36
(g70
S'\x01\x00\x00\x00'
tRp846
sg42
g43
sg46
g47
sg15
g111
sg22
F310.19239033746999
sg64
g137
sg62
g125
sg49
g50
sS'trials.thisN'
p847
I69
sg19
I1
sg27
g36
(g38
S'\x00\x00\x00\x00\x00\x00\x1a@'
tRp848
sg52
g53
sg23
S'2'
sg18
F308.25744198472239
sg33
g34
sg51
g11
sg20
S'1'
sg65
g36
(g77
S'\x00\x00\x00\x00\x00\x00\x00\x00'
tRp849
sg44
g45
sg40
g41
sg25
F0.50133060966618359
sS'trials.thisIndex'
p850
g36
(g80
S'W\x00\x00\x00'
tRp851
sg26
V5
sS'trials.thisRepN'
p852
I0
sg66
Vtrain
p853
sg63
V../experiment_stimuli/bw_bc_bl/Nonliving_Things/Vehicles/train_26.jpg
p854
sg21
F1.9143884215736762
sS'trials.thisTrialN'
p855
I69
sa(dp856
g31
g32
sg17
F312.43137782416306
sg24
I1
sg35
g39
sg14
F312.42660022340715
sg16
g36
(g70
S'\x01\x00\x00\x00'
tRp857
sg42
g43
sg46
g47
sg15
g72
sg22
F316.14531887543853
sg64
g99
sg62
g74
sg49
g50
sS'trials.thisN'
p858
I70
sg19
I1
sg27
g36
(g38
S'\x00\x00\x00\x00\x00\x00\x18@'
tRp859
sg52
g53
sg23
S'1'
sg18
F313.66920173214749
sg33
g34
sg51
g11
sg20
S'1'
sg65
g36
(g77
S'\x00\x00\x00\x00\x00\x00\x00\x00'
tRp860
sg44
g45
sg40
g41
sg25
F1.0324559805449098
sS'trials.thisIndex'
p861
g36
(g80
S'P\x00\x00\x00'
tRp862
sg26
V5
sS'trials.thisRepN'
p863
I0
sg66
Vsperm-whale
p864
sg63
V../experiment_stimuli/bw_bc_bl/Living_Things/Marine_creatures/sperm-whale_12.jpg
p865
sg21
F2.455556633300148
sS'trials.thisTrialN'
p866
I70
sa(dp867
g31
g32
sg17
F318.91562556137796
sg24
I1
sg35
g39
sg14
F318.91069957183208
sg16
g36
(g70
S'\x01\x00\x00\x00'
tRp868
sg42
g43
sg46
g47
sg15
g111
sg22
F321.08609285694547
sg64
g249
sg62
g125
sg49
g50
sS'trials.thisN'
p869
I71
sg19
I1
sg27
g36
(g38
S'\x00\x00\x00\x00\x00\x00\x1c@'
tRp870
sg52
g53
sg23
S'1'
sg18
F320.17334439104889
sg33
g34
sg51
g11
sg20
S'1'
sg65
g36
(g77
S'\x00\x00\x00\x00\x00\x00\x00\x00'
tRp871
sg44
g45
sg40
g41
sg25
F0.34095776348840445
sS'trials.thisIndex'
p872
g36
(g80
S'5\x00\x00\x00'
tRp873
sg26
V5
sS'trials.thisRepN'
p874
I0
sg66
Vmill
p875
sg63
V../experiment_stimuli/bw_bc_bl/Nonliving_Things/Buildings/mill_18.jpg
p876
sg21
F0.89218435436487198
sS'trials.thisTrialN'
p877
I71
sa(dp878
g31
g32
sg17
F323.16466770868283
sg24
I0
sg35
g39
sg14
F323.15993701340631
sg16
g36
(g70
S'\x02\x00\x00\x00'
tRp879
sg42
g43
sg46
g47
sg15
g72
sg22
F325.11482597491704
sg64
g124
sg62
g125
sg49
g50
sS'trials.thisN'
p880
I72
sg19
I1
sg27
g36
(g38
S'\x00\x00\x00\x00\x00\x00\x18@'
tRp881
sg52
g53
sg23
S'3'
sg18
F324.43260316282976
sg33
g34
sg51
g11
sg20
S'2'
sg65
g36
(g77
S'\x00\x00\x00\x00\x00\x00\x00\x00'
tRp882
sg44
g45
sg40
g41
sg25
F0.35110946430359036
sS'trials.thisIndex'
p883
g36
(g80
S'/\x00\x00\x00'
tRp884
sg26
V5
sS'trials.thisRepN'
p885
I0
sg66
Vlectern
p886
sg63
V../experiment_stimuli/bw_bc_bl/Nonliving_Things/Furniture/lectern_12.jpg
p887
sg21
F0.6616616293322295
sS'trials.thisTrialN'
p888
I72
sa(dp889
g31
g32
sg17
F327.20355713635217
sg24
I0
sg35
g39
sg14
F327.19873090111651
sg16
g36
(g70
S'\x01\x00\x00\x00'
tRp890
sg42
g43
sg46
g47
sg15
g111
sg22
F329.11351453466341
sg64
g249
sg62
g125
sg49
g50
sS'trials.thisN'
p891
I73
sg19
I1
sg27
g36
(g38
S'\x00\x00\x00\x00\x00\x00\x18@'
tRp892
sg52
g53
sg23
S'2'
sg18
F328.44131494755857
sg33
g34
sg51
g11
sg20
S'1'
sg65
g36
(g77
S'\x00\x00\x00\x00\x00\x00\x00\x00'
tRp893
sg44
g45
sg40
g41
sg25
F0.57146516919601709
sS'trials.thisIndex'
p894
g36
(g80
S'\x0e\x00\x00\x00'
tRp895
sg26
V5
sS'trials.thisRepN'
p896
I0
sg66
Vcathedral
p897
sg63
V../experiment_stimuli/bw_bc_bl/Nonliving_Things/Buildings/cathedral_22.jpg
p898
sg21
F0.65164982131682336
sS'trials.thisTrialN'
p899
I73
sa(dp900
g31
g32
sg17
F331.42261232202873
sg24
I1
sg35
g39
sg14
F331.4178843110567
sg16
g36
(g70
S'\x01\x00\x00\x00'
tRp901
sg42
g43
sg46
g47
sg15
g111
sg22
F333.21244896354619
sg64
g339
sg62
g125
sg49
g50
sS'trials.thisN'
p902
I74
sg19
I0
sg27
g36
(g38
S'\x00\x00\x00\x00\x00\x00\x1e@'
tRp903
sg52
g53
sg23
S'1'
sg18
F332.65047321480233
sg33
g34
sg51
g11
sg20
S'2'
sg65
g36
(g77
S'\x00\x00\x00\x00\x00\x00\x00\x00'
tRp904
sg44
g45
sg40
g41
sg25
F0.35098481539171189
sS'trials.thisIndex'
p905
g36
(g80
S'\x1f\x00\x00\x00'
tRp906
sg26
V5
sS'trials.thisRepN'
p907
I0
sg66
Vfrying-pan
p908
sg63
V../experiment_stimuli/bw_bc_bl/Nonliving_Things/Kitchen_Uten/frying-pan_7.jpg
p909
sg21
F0.54140261118300259
sS'trials.thisTrialN'
p910
I74
sa(dp911
g31
g32
sg17
F335.30123115389142
sg24
I1
sg35
g39
sg14
F335.29632303654216
sg16
g36
(g70
S'\x01\x00\x00\x00'
tRp912
sg42
g43
sg46
g47
sg15
g72
sg22
F337.61198295548093
sg64
g73
sg62
g74
sg49
g50
sS'trials.thisN'
p913
I75
sg19
I1
sg27
g36
(g38
S'\x00\x00\x00\x00\x00\x00 @'
tRp914
sg52
g53
sg23
S'1'
sg18
F336.54894126253203
sg33
g34
sg51
g11
sg20
S'1'
sg65
g36
(g77
S'\x00\x00\x00\x00\x00\x00\x00\x00'
tRp915
sg44
g45
sg40
g41
sg25
F0.33093415526673198
sS'trials.thisIndex'
p916
g36
(g80
S'J\x00\x00\x00'
tRp917
sg26
V5
sS'trials.thisRepN'
p918
I0
sg66
Vseagull
p919
sg63
V../experiment_stimuli/bw_bc_bl/Living_Things/Birds/seagull_17.jpg
p920
sg21
F1.0425017916131765
sS'trials.thisTrialN'
p921
I75
sa(dp922
g31
g32
sg17
F339.68065148300957
sg24
I1
sg35
g39
sg14
F339.67583998048212
sg16
g36
(g70
S'\x02\x00\x00\x00'
tRp923
sg42
g43
sg46
g47
sg15
g72
sg22
F341.69085660751443
sg64
g316
sg62
g125
sg49
g50
sS'trials.thisN'
p924
I76
sg19
I1
sg27
g36
(g38
S'\x00\x00\x00\x00\x00\x00\x18@'
tRp925
sg52
g53
sg23
S'1'
sg18
F340.94851201702841
sg33
g34
sg51
g11
sg20
S'2'
sg65
g36
(g77
S'\x00\x00\x00\x00\x00\x00\x00\x00'
tRp926
sg44
g45
sg40
g41
sg25
F0.33078914985526353
sS'trials.thisIndex'
p927
g36
(g80
S'\x03\x00\x00\x00'
tRp928
sg26
V5
sS'trials.thisRepN'
p929
I0
sg66
Vaxe
p930
sg63
V../experiment_stimuli/bw_bc_bl/Nonliving_Things/Tools/axe_17.jpg
p931
sg21
F0.72179917013272643
sS'trials.thisTrialN'
p932
I76
sa(dp933
g31
g32
sg17
F343.75951678527053
sg24
I0
sg35
g39
sg14
F343.75470336189028
sg16
g36
(g70
S'\x02\x00\x00\x00'
tRp934
sg42
g43
sg46
g47
sg15
g72
sg22
F346.16057439881843
sg64
g137
sg62
g125
sg49
g50
sS'trials.thisN'
p935
I77
sg19
I1
sg27
g36
(g38
S'\x00\x00\x00\x00\x00\x00\x18@'
tRp936
sg52
g53
sg23
S'3'
sg18
F345.05744154681452
sg33
g34
sg51
g11
sg20
S'2'
sg65
g36
(g77
S'\x00\x00\x00\x00\x00\x00\x00\x00'
tRp937
sg44
g45
sg40
g41
sg25
F0.42114174296148121
sS'trials.thisIndex'
p938
g36
(g80
S'[\x00\x00\x00'
tRp939
sg26
V5
sS'trials.thisRepN'
p940
I0
sg66
Vvan
p941
sg63
V../experiment_stimuli/bw_bc_bl/Nonliving_Things/Vehicles/van_7.jpg
p942
sg21
F1.0825863038189709
sS'trials.thisTrialN'
p943
I77
sa(dp944
g31
g32
sg17
F348.31935178977437
sg24
I0
sg35
g39
sg14
F348.31462722236756
sg16
g36
(g70
S'\x02\x00\x00\x00'
tRp945
sg42
g43
sg46
g47
sg15
g72
sg22
F350.14925663580652
sg64
g124
sg62
g125
sg49
g50
sS'trials.thisN'
p946
I78
sg19
I1
sg27
g36
(g38
S'\x00\x00\x00\x00\x00\x00\x18@'
tRp947
sg52
g53
sg23
S'3'
sg18
F349.59730804432184
sg33
g34
sg51
g11
sg20
S'2'
sg65
g36
(g77
S'\x00\x00\x00\x00\x00\x00\x00\x00'
tRp948
sg44
g45
sg40
g41
sg25
F0.44122357934247702
sS'trials.thisIndex'
p949
g36
(g80
S']\x00\x00\x00'
tRp950
sg26
V5
sS'trials.thisRepN'
p951
I0
sg66
Vwardrobe
p952
sg63
V../experiment_stimuli/bw_bc_bl/Nonliving_Things/Furniture/wardrobe_4.jpg
p953
sg21
F0.53138288250193
sS'trials.thisTrialN'
p954
I78
sa(dp955
g31
g32
sg17
F352.32806772482581
sg24
I1
sg35
g39
sg14
F352.32333407865372
sg16
g36
(g70
S'\x02\x00\x00\x00'
tRp956
sg42
g43
sg46
g47
sg15
g72
sg22
F354.25818206788972
sg64
g249
sg62
g125
sg49
g50
sS'trials.thisN'
p957
I79
sg19
I1
sg27
g36
(g38
S'\x00\x00\x00\x00\x00\x00 @'
tRp958
sg52
g53
sg23
S'1'
sg18
F353.5859831495909
sg33
g34
sg51
g11
sg20
S'2'
sg65
g36
(g77
S'\x00\x00\x00\x00\x00\x00\x00\x00'
tRp959
sg44
g45
sg40
g41
sg25
F0.37103147571906447
sS'trials.thisIndex'
p960
g36
(g80
S')\x00\x00\x00'
tRp961
sg26
V5
sS'trials.thisRepN'
p962
I0
sg66
Vhouse
p963
sg63
V../experiment_stimuli/bw_bc_bl/Nonliving_Things/Buildings/house_14.jpg
p964
sg21
F0.65165441168937832
sS'trials.thisTrialN'
p965
I79
sa(dp966
g31
g32
sg17
F356.36713405966293
sg24
I0
sg35
g39
sg14
F356.36210663930979
sg16
g36
(g70
S'\x01\x00\x00\x00'
tRp967
sg42
g43
sg46
g47
sg15
g111
sg22
F358.39715443423484
sg64
g124
sg62
g125
sg49
g50
sS'trials.thisN'
p968
I80
sg19
I1
sg27
g36
(g38
S'\x00\x00\x00\x00\x00\x00\x18@'
tRp969
sg52
g53
sg23
S'3'
sg18
F357.65482624992728
sg33
g34
sg51
g11
sg20
S'1'
sg65
g36
(g77
S'\x00\x00\x00\x00\x00\x00\x00\x00'
tRp970
sg44
g45
sg40
g41
sg25
F0.34096833842340857
sS'trials.thisIndex'
p971
g36
(g80
S'E\x00\x00\x00'
tRp972
sg26
V5
sS'trials.thisRepN'
p973
I0
sg66
Vrocking-chair
p974
sg63
V../experiment_stimuli/bw_bc_bl/Nonliving_Things/Furniture/rocking-chair_11.jpg
p975
sg21
F0.72179328289348632
sS'trials.thisTrialN'
p976
I80
sa(dp977
g31
g32
sg17
F360.47588336654007
sg24
I0
sg35
g39
sg14
F360.47104363923427
sg16
g36
(g70
S'\x02\x00\x00\x00'
tRp978
sg42
g43
sg46
g47
sg15
g72
sg22
F362.55621856579091
sg64
g124
sg62
g125
sg49
g50
sS'trials.thisN'
p979
I81
sg19
I1
sg27
g36
(g38
S'\x00\x00\x00\x00\x00\x00\x18@'
tRp980
sg52
g53
sg23
S'3'
sg18
F361.74371408182196
sg33
g34
sg51
g11
sg20
S'2'
sg65
g36
(g77
S'\x00\x00\x00\x00\x00\x00\x00\x00'
tRp981
sg44
g45
sg40
g41
sg25
F0.37102652841713279
sS'trials.thisIndex'
p982
g36
(g80
S'\x0f\x00\x00\x00'
tRp983
sg26
V5
sS'trials.thisRepN'
p984
I0
sg66
Vchair
p985
sg63
V../experiment_stimuli/bw_bc_bl/Nonliving_Things/Furniture/chair_19.jpg
p986
sg21
F0.79195660131517798
sS'trials.thisTrialN'
p987
I81
sa(dp988
g31
g32
sg17
F364.6649578838842
sg24
I1
sg35
g39
sg14
F364.66014452464879
sg16
g36
(g70
S'\x01\x00\x00\x00'
tRp989
sg42
g43
sg46
g47
sg15
g72
sg22
F367.06602361763362
sg64
g99
sg62
g74
sg49
g50
sS'trials.thisN'
p990
I82
sg19
I0
sg27
g36
(g38
S'\x00\x00\x00\x00\x00\x00\x1a@'
tRp991
sg52
g53
sg23
S'1'
sg18
F365.90275177371223
sg33
g34
sg51
g11
sg20
S'2'
sg65
g36
(g77
S'\x00\x00\x00\x00\x00\x00\x00\x00'
tRp992
sg44
g45
sg40
g41
sg25
F0.40109126328025013
sS'trials.thisIndex'
p993
g36
(g80
S'+\x00\x00\x00'
tRp994
sg26
V5
sS'trials.thisRepN'
p995
I0
sg66
Vkiller-whale
p996
sg63
V../experiment_stimuli/bw_bc_bl/Living_Things/Marine_creatures/killer-whale_10.jpg
p997
sg21
F1.1427055560052395
sS'trials.thisTrialN'
p998
I82
sa(dp999
g31
g32
sg17
F369.20489756076131
sg24
I1
sg35
g39
sg14
F369.20004842721391
sg16
g36
(g70
S'\x02\x00\x00\x00'
tRp1000
sg42
g43
sg46
g47
sg15
g111
sg22
F371.27503986051306
sg64
g99
sg62
g74
sg49
g50
sS'trials.thisN'
p1001
I83
sg19
I1
sg27
g36
(g38
S'\x00\x00\x00\x00\x00\x00\x1a@'
tRp1002
sg52
g53
sg23
S'1'
sg18
F370.47268534393515
sg33
g34
sg51
g11
sg20
S'2'
sg65
g36
(g77
S'\x00\x00\x00\x00\x00\x00\x00\x00'
tRp1003
sg44
g45
sg40
g41
sg25
F0.35099549195729196
sS'trials.thisIndex'
p1004
g36
(g80
S'4\x00\x00\x00'
tRp1005
sg26
V5
sS'trials.thisRepN'
p1006
I0
sg66
Vmanatee
p1007
sg63
V../experiment_stimuli/bw_bc_bl/Living_Things/Marine_creatures/manatee_22.jpg
p1008
sg21
F0.78176664595957845
sS'trials.thisTrialN'
p1009
I83
sa(dp1010
g31
g32
sg17
F373.3638433177257
sg24
I0
sg35
g39
sg14
F373.35906533384696
sg16
g36
(g70
S'\x01\x00\x00\x00'
tRp1011
sg42
g43
sg46
g47
sg15
g72
sg22
F375.87524468929041
sg64
g112
sg62
g74
sg49
g50
sS'trials.thisN'
p1012
I84
sg19
I1
sg27
g36
(g38
S'\x00\x00\x00\x00\x00\x00\x1c@'
tRp1013
sg52
g53
sg23
S'2'
sg18
F374.66179920302238
sg33
g34
sg51
g11
sg20
S'1'
sg65
g36
(g77
S'\x00\x00\x00\x00\x00\x00\x00\x00'
tRp1014
sg44
g45
sg40
g41
sg25
F1.483447480481118
sS'trials.thisIndex'
p1015
g36
(g80
S'\x1b\x00\x00\x00'
tRp1016
sg26
V5
sS'trials.thisRepN'
p1017
I0
sg66
Velephant
p1018
sg63
V../experiment_stimuli/bw_bc_bl/Living_Things/Animals/elephant_13.jpg
p1019
sg21
F1.1928780626039952
sS'trials.thisTrialN'
p1020
I84
sa(dp1021
g31
g32
sg17
F379.09771721891593
sg24
I0
sg35
g39
sg14
F379.091524146148
sg16
g36
(g70
S'\x01\x00\x00\x00'
tRp1022
sg42
g43
sg46
g47
sg15
g72
sg22
F381.51743628305849
sg64
g73
sg62
g74
sg49
g50
sS'trials.thisN'
p1023
I85
sg19
I1
sg27
g36
(g38
S'\x00\x00\x00\x00\x00\x00\x1e@'
tRp1024
sg52
g53
sg23
S'2'
sg18
F380.38423322257586
sg33
g34
sg51
g11
sg20
S'1'
sg65
g36
(g77
S'\x00\x00\x00\x00\x00\x00\x00\x00'
tRp1025
sg44
g45
sg40
g41
sg25
F0.72178628307301551
sS'trials.thisIndex'
p1026
g36
(g80
S'\x04\x00\x00\x00'
tRp1027
sg26
V5
sS'trials.thisRepN'
p1028
I0
sg66
Vbarn-owl
p1029
sg63
V../experiment_stimuli/bw_bc_bl/Living_Things/Birds/barn-owl_1.jpg
p1030
sg21
F1.1126478095538914
sS'trials.thisTrialN'
p1031
I85
sa(dp1032
g31
g32
sg17
F383.97703075327445
sg24
I1
sg35
g39
sg14
F383.9721356278751
sg16
g36
(g70
S'\x01\x00\x00\x00'
tRp1033
sg42
g43
sg46
g47
sg15
g72
sg22
F386.11745603894815
sg64
g538
sg62
g74
sg49
g50
sS'trials.thisN'
p1034
I86
sg19
I1
sg27
g36
(g38
S'\x00\x00\x00\x00\x00\x00\x1c@'
tRp1035
sg52
g53
sg23
S'1'
sg18
F385.25482626922894
sg33
g34
sg51
g11
sg20
S'1'
sg65
g36
(g77
S'\x00\x00\x00\x00\x00\x00\x00\x00'
tRp1036
sg44
g45
sg40
g41
sg25
F1.0122726304689422
sS'trials.thisIndex'
p1037
g36
(g80
S'-\x00\x00\x00'
tRp1038
sg26
V5
sS'trials.thisRepN'
p1039
I0
sg66
Vladybird
p1040
sg63
V../experiment_stimuli/bw_bc_bl/Living_Things/Insects/ladybird_7.jpg
p1041
sg21
F0.84206388774327934
sS'trials.thisTrialN'
p1042
I86
sa(dp1043
g31
g32
sg17
F388.86749748128932
sg24
I0
sg35
g39
sg14
F388.86276255303528
sg16
g36
(g70
S'\x02\x00\x00\x00'
tRp1044
sg42
g43
sg46
g47
sg15
g72
sg22
F391.01808798976708
sg64
g124
sg62
g125
sg49
g50
sS'trials.thisN'
p1045
I87
sg19
I1
sg27
g36
(g38
S'\x00\x00\x00\x00\x00\x00\x1a@'
tRp1046
sg52
g53
sg23
S'3'
sg18
F390.1755141884787
sg33
g34
sg51
g11
sg20
S'2'
sg65
g36
(g77
S'\x00\x00\x00\x00\x00\x00\x00\x00'
tRp1047
sg44
g45
sg40
g41
sg25
F0.3710414303932339
sS'trials.thisIndex'
p1048
g36
(g80
S'\x02\x00\x00\x00'
tRp1049
sg26
V5
sS'trials.thisRepN'
p1050
I0
sg66
Varmchair
p1051
sg63
V../experiment_stimuli/bw_bc_bl/Nonliving_Things/Furniture/armchair_5.jpg
p1052
sg21
F0.82201603951398283
sS'trials.thisTrialN'
p1053
I87
sa(dp1054
g31
g32
sg17
F393.1268079476431
sg24
I0
sg35
g39
sg14
F393.12202417396475
sg16
g36
(g70
S'\x01\x00\x00\x00'
tRp1055
sg42
g43
sg46
g47
sg15
g111
sg22
F395.33731803414412
sg64
g237
sg62
g125
sg49
g50
sS'trials.thisN'
p1056
I88
sg19
I1
sg27
g36
(g38
S'\x00\x00\x00\x00\x00\x00\x1a@'
tRp1057
sg52
g53
sg23
S'3'
sg18
F394.41473537113052
sg33
g34
sg51
g11
sg20
S'1'
sg65
g36
(g77
S'\x00\x00\x00\x00\x00\x00\x00\x00'
tRp1058
sg44
g45
sg40
g41
sg25
F0.38105010276194662
sS'trials.thisIndex'
p1059
g36
(g80
S'$\x00\x00\x00'
tRp1060
sg26
V5
sS'trials.thisRepN'
p1061
I0
sg66
Vguitar
p1062
sg63
V../experiment_stimuli/bw_bc_bl/Nonliving_Things/Musical_Inst/guitar_18.jpg
p1063
sg21
F0.90202413790393621
sS'trials.thisTrialN'
p1064
I88
sa(dp1065
g31
g32
sg17
F397.4562925969949
sg24
I1
sg35
g39
sg14
F397.4514289337676
sg16
g36
(g70
S'\x01\x00\x00\x00'
tRp1066
sg42
g43
sg46
g47
sg15
g111
sg22
F399.79717785026878
sg64
g249
sg62
g125
sg49
g50
sS'trials.thisN'
p1067
I89
sg19
I1
sg27
g36
(g38
S'\x00\x00\x00\x00\x00\x00\x1c@'
tRp1068
sg52
g53
sg23
S'1'
sg18
F398.72411230090074
sg33
g34
sg51
g11
sg20
S'1'
sg65
g36
(g77
S'\x00\x00\x00\x00\x00\x00\x00\x00'
tRp1069
sg44
g45
sg40
g41
sg25
F1.5335548230214044
sS'trials.thisIndex'
p1070
g36
(g80
S'\x0c\x00\x00\x00'
tRp1071
sg26
V5
sS'trials.thisRepN'
p1072
I0
sg66
Vcastle
p1073
sg63
V../experiment_stimuli/bw_bc_bl/Nonliving_Things/Buildings/castle_20.jpg
p1074
sg21
F1.0525180315598845
sS'trials.thisTrialN'
p1075
I89
sa(dp1076
g31
g32
sg17
F403.068426181213
sg24
I1
sg35
g39
sg14
F403.06363242666703
sg16
g36
(g70
S'\x02\x00\x00\x00'
tRp1077
sg42
g43
sg46
g47
sg15
g111
sg22
F405.3592641511932
sg64
g99
sg62
g74
sg49
g50
sS'trials.thisN'
p1078
I90
sg19
I1
sg27
g36
(g38
S'\x00\x00\x00\x00\x00\x00\x1c@'
tRp1079
sg52
g53
sg23
S'1'
sg18
F404.35634377773385
sg33
g34
sg51
g11
sg20
S'2'
sg65
g36
(g77
S'\x00\x00\x00\x00\x00\x00\x00\x00'
tRp1080
sg44
g45
sg40
g41
sg25
F0.48126276163384318
sS'trials.thisIndex'
p1081
g36
(g80
S'A\x00\x00\x00'
tRp1082
sg26
V5
sS'trials.thisRepN'
p1083
I0
sg66
Vpomfret
p1084
sg63
V../experiment_stimuli/bw_bc_bl/Living_Things/Marine_creatures/pomfret_0.jpg
p1085
sg21
F0.9823618745431304
sS'trials.thisTrialN'
p1086
I90
sa(dp1087
g31
g32
sg17
F407.57829637138639
sg24
I0
sg35
g39
sg14
F407.57343731308356
sg16
g36
(g70
S'\x01\x00\x00\x00'
tRp1088
sg42
g43
sg46
g47
sg15
g111
sg22
F409.43813167198095
sg64
g339
sg62
g125
sg49
g50
sS'trials.thisN'
p1089
I91
sg19
I1
sg27
g36
(g38
S'\x00\x00\x00\x00\x00\x00\x1c@'
tRp1090
sg52
g53
sg23
S'3'
sg18
F408.87616856582463
sg33
g34
sg51
g11
sg20
S'1'
sg65
g36
(g77
S'\x00\x00\x00\x00\x00\x00\x00\x00'
tRp1091
sg44
g45
sg40
g41
sg25
F0.36100095021538436
sS'trials.thisIndex'
p1092
g36
(g80
S'\x12\x00\x00\x00'
tRp1093
sg26
V5
sS'trials.thisRepN'
p1094
I0
sg66
Vcoking-pot
p1095
sg63
V../experiment_stimuli/bw_bc_bl/Nonliving_Things/Kitchen_Uten/coking-pot_14.jpg
p1096
sg21
F0.54140627640299499
sS'trials.thisTrialN'
p1097
I91
sa(dp1098
g31
g32
sg17
F411.53705660428386
sg24
I0
sg35
g39
sg14
F411.53204629651736
sg16
g36
(g70
S'\x02\x00\x00\x00'
tRp1099
sg42
g43
sg46
g47
sg15
g111
sg22
F413.68738242529798
sg64
g73
sg62
g74
sg49
g50
sS'trials.thisN'
p1100
I92
sg19
I1
sg27
g36
(g38
S'\x00\x00\x00\x00\x00\x00\x1e@'
tRp1101
sg52
g53
sg23
S'3'
sg18
F412.81473353190813
sg33
g34
sg51
g11
sg20
S'2'
sg65
g36
(g77
S'\x00\x00\x00\x00\x00\x00\x00\x00'
tRp1102
sg44
g45
sg40
g41
sg25
F0.37102279555983841
sS'trials.thisIndex'
p1103
g36
(g80
S';\x00\x00\x00'
tRp1104
sg26
V5
sS'trials.thisRepN'
p1105
I0
sg66
Vpartridge
p1106
sg63
V../experiment_stimuli/bw_bc_bl/Living_Things/Birds/partridge_15.jpg
p1107
sg21
F0.8520831954665482
sS'trials.thisTrialN'
p1108
I92
sa(dp1109
g31
g32
sg17
F415.79624390345998
sg24
I0
sg35
g39
sg14
F415.79132760188077
sg16
g36
(g70
S'\x02\x00\x00\x00'
tRp1110
sg42
g43
sg46
g47
sg15
g72
sg22
F419.04904172837269
sg64
g237
sg62
g125
sg49
g50
sS'trials.thisN'
p1111
I93
sg19
I1
sg27
g36
(g38
S'\x00\x00\x00\x00\x00\x00\x18@'
tRp1112
sg52
g53
sg23
S'3'
sg18
F417.04392509884201
sg33
g34
sg51
g11
sg20
S'2'
sg65
g36
(g77
S'\x00\x00\x00\x00\x00\x00\x00\x00'
tRp1113
sg44
g45
sg40
g41
sg25
F2.3553418880328536
sS'trials.thisIndex'
p1114
g36
(g80
S'Y\x00\x00\x00'
tRp1115
sg26
V5
sS'trials.thisRepN'
p1116
I0
sg66
Vtuba
p1117
sg63
V../experiment_stimuli/bw_bc_bl/Nonliving_Things/Musical_Inst/tuba_5.jpg
p1118
sg21
F1.98454271373339
sS'trials.thisTrialN'
p1119
I93
sa(dp1120
g31
g32
sg17
F423.14226035505999
sg24
I1
sg35
g39
sg14
F423.13726922380738
sg16
g36
(g70
S'\x01\x00\x00\x00'
tRp1121
sg42
g43
sg46
g47
sg15
g72
sg22
F425.4228921594331
sg64
g73
sg62
g74
sg49
g50
sS'trials.thisN'
p1122
I94
sg19
I0
sg27
g36
(g38
S'\x00\x00\x00\x00\x00\x00\x1a@'
tRp1123
sg52
g53
sg23
S'1'
sg18
F424.369858063641
sg33
g34
sg51
g11
sg20
S'2'
sg65
g36
(g77
S'\x00\x00\x00\x00\x00\x00\x00\x00'
tRp1124
sg44
g45
sg40
g41
sg25
F0.40108900773338974
sS'trials.thisIndex'
p1125
g36
(g80
S'O\x00\x00\x00'
tRp1126
sg26
V5
sS'trials.thisRepN'
p1127
I0
sg66
Vsparrow
p1128
sg63
V../experiment_stimuli/bw_bc_bl/Living_Things/Birds/sparrow_15.jpg
p1129
sg21
F1.0324808373115957
sS'trials.thisTrialN'
p1130
I94
sa(dp1131
g31
g32
sg17
F427.561775369104
sg24
I1
sg35
g39
sg14
F427.55688983038999
sg16
g36
(g70
S'\x02\x00\x00\x00'
tRp1132
sg42
g43
sg46
g47
sg15
g111
sg22
F429.64206920063589
sg64
g73
sg62
g74
sg49
g50
sS'trials.thisN'
p1133
I95
sg19
I1
sg27
g36
(g38
S'\x00\x00\x00\x00\x00\x00\x1a@'
tRp1134
sg52
g53
sg23
S'1'
sg18
F428.7994774968829
sg33
g34
sg51
g11
sg20
S'2'
sg65
g36
(g77
S'\x00\x00\x00\x00\x00\x00\x00\x00'
tRp1135
sg44
g45
sg40
g41
sg25
F0.42112910770811141
sS'trials.thisIndex'
p1136
g36
(g80
S'!\x00\x00\x00'
tRp1137
sg26
V5
sS'trials.thisRepN'
p1138
I0
sg66
Vgoldfinch
p1139
sg63
V../experiment_stimuli/bw_bc_bl/Living_Things/Birds/goldfinch_4.jpg
p1140
sg21
F0.82201483298558742
sS'trials.thisTrialN'
p1141
I95
sasS'loops'
p1142
(lp1143
g1
(cpsychopy.data
TrialHandler
p1144
g3
NtRp1145
(dp1146
S'origin'
p1147
NsS'thisTrial'
p1148
(lp1149
sS'_exp'
p1150
I97317136
sg10
S'trials'
p1151
sg6
I-1
sS'thisRepN'
p1152
I1
sg28
I01
sg29
g30
sS'data'
p1153
g1
(cpsychopy.data
DataHandler
p1154
c__builtin__
dict
p1155
(dp1156
g20
cnumpy.core.multiarray
_reconstruct
p1157
(cnumpy
ndarray
p1158
(I0
tS'b'
tRp1159
(I1
(I96
I1
tg37
(S'O4'
I0
I1
tRp1160
(I3
S'|'
NNNI-1
I-1
I63
tbI00
(lp1161
S'2'
aS'2'
aS'2'
aS'2'
aS'1'
aS'1'
aS'1'
aS'1'
aS'2'
aS'2'
aS'2'
aS'1'
aS'1'
aS'1'
aS'1'
aS'2'
aS'2'
aS'2'
aS'1'
aS'2'
aS'1'
aS'1'
aS'2'
aS'1'
aS'1'
aS'1'
aS'2'
aS'1'
aS'1'
aS'1'
aS'2'
aS'2'
aS'1'
aS'2'
aS'1'
aS'2'
aS'1'
aS'1'
aS'1'
aS'2'
aS'2'
aS'2'
aS'1'
aS'2'
aS'1'
aS'1'
aS'2'
aS'2'
aS'1'
aS'2'
aS'1'
aS'1'
aS'2'
aS'1'
aS'2'
aS'1'
aS'1'
aS'1'
aS'2'
aS'2'
aS'2'
aS'2'
aS'1'
aS'1'
aS'1'
aS'2'
aS'2'
aS'2'
aS'2'
aS'1'
aS'2'
aS'1'
aS'2'
aS'1'
aS'1'
aS'2'
aS'2'
aS'1'
aS'2'
aS'2'
aS'1'
aS'1'
aS'1'
aS'2'
aS'2'
aS'2'
aS'1'
aS'1'
aS'1'
aS'2'
aS'2'
aS'2'
aS'2'
aS'2'
aS'1'
aS'2'
atbsg17
cnumpy.ma.core
_mareconstruct
p1162
(cnumpy.ma.core
MaskedArray
p1163
g1158
(I0
tp1164
S'b'
tRp1165
(I1
(I96
I1
tg37
(S'f4'
I0
I1
tRp1166
(I3
S'<'
NNNI-1
I-1
I0
tbI00
S'MIcC,\x83~A\no\xc2C \xd7\xa9C\x82\x8c\xbdC\xdd\x92\x02B0;\x93C\\\x83\xd7B\xb2\x12tC~\xdf\xdfB\x10\xa3\x80C\xb7R!Ch\xba\xc6C\x8f\r\x97B\x0e\x9a\xa3C\xea<\xb4C\x90\xef\x01Cf\xff\x8cC\x06\xca\xcbC\x89\xbd\x82C5\xda\x17C\x1fE\x97C+\x17\xf1B\x97\xdf\xb2B\x96$\x91C\xfa$pC\xfb\xc5\x9fB\x92\xae\xbaC`7\x07C\xc24\xa0Ac]YC\x18\xb6\xa5C%4FB\xe8\xc7\xd5C\xe7\xf8|C\xb8\x0e\x86B;\x90\xc4C\xa6\r\xbcB\xe9\xa7\x8eB\x8c~TC\xdd\x90\x87C\xfe)\xb0C"1xC\x1dU\xb6C\xe8\x10\xfe@\x0f\xfd\xbfC\x94\x85.C\x14\x95\xa1C\xd0\x82\xe2AL\x04\xc6B\x9f\xfb)C\x01c\x85C:\x9a\xb8C3u\x9fCm\x905B\x1b^LCU\x17\xe8B\xad7o@Wc_C\xbe\xc4\xcdCsn\xfbBs7\x8aC\x80\x08yB\xdaC\x0bC\x17\xb2\x0fC\xc2\x88\xc9C\xb6\x17\x1cC3~%C\x13\r\x13B\xfe.\xb2CAN\x95C\xf9B<C\x0csDC\\n7C\x8f\xa6\xa7C+\x99HC9[\xc0Ay\x173C\xf8\xbegC6\x92\xd3C77\x9cC5\xc9kC\xfc\xae\x13Cp\x1d\xcfB\xddI%BnPhB\xeaZVB;\x81\x99ClDPC\xeb\xe5\xcfC\x9d\x03\xaaB8\xe1\xabC\xc9\n\x8fC\xe1(\xaeC)t@AA3@C'
S'\x00\x00\x00\x00\x00\x00\x00\x00\x00\x00\x00\x00\x00\x00\x00\x00\x00\x00\x00\x00\x00\x00\x00\x00\x00\x00\x00\x00\x00\x00\x00\x00\x00\x00\x00\x00\x00\x00\x00\x00\x00\x00\x00\x00\x00\x00\x00\x00\x00\x00\x00\x00\x00\x00\x00\x00\x00\x00\x00\x00\x00\x00\x00\x00\x00\x00\x00\x00\x00\x00\x00\x00\x00\x00\x00\x00\x00\x00\x00\x00\x00\x00\x00\x00\x00\x00\x00\x00\x00\x00\x00\x00\x00\x00\x00\x00'
NtbsS'ran'
p1167
g1162
(g1163
g1158
g1164
S'b'
tRp1168
(I1
(I96
I1
tg1166
I00
S'\x00\x00\x80?\x00\x00\x80?\x00\x00\x80?\x00\x00\x80?\x00\x00\x80?\x00\x00\x80?\x00\x00\x80?\x00\x00\x80?\x00\x00\x80?\x00\x00\x80?\x00\x00\x80?\x00\x00\x80?\x00\x00\x80?\x00\x00\x80?\x00\x00\x80?\x00\x00\x80?\x00\x00\x80?\x00\x00\x80?\x00\x00\x80?\x00\x00\x80?\x00\x00\x80?\x00\x00\x80?\x00\x00\x80?\x00\x00\x80?\x00\x00\x80?\x00\x00\x80?\x00\x00\x80?\x00\x00\x80?\x00\x00\x80?\x00\x00\x80?\x00\x00\x80?\x00\x00\x80?\x00\x00\x80?\x00\x00\x80?\x00\x00\x80?\x00\x00\x80?\x00\x00\x80?\x00\x00\x80?\x00\x00\x80?\x00\x00\x80?\x00\x00\x80?\x00\x00\x80?\x00\x00\x80?\x00\x00\x80?\x00\x00\x80?\x00\x00\x80?\x00\x00\x80?\x00\x00\x80?\x00\x00\x80?\x00\x00\x80?\x00\x00\x80?\x00\x00\x80?\x00\x00\x80?\x00\x00\x80?\x00\x00\x80?\x00\x00\x80?\x00\x00\x80?\x00\x00\x80?\x00\x00\x80?\x00\x00\x80?\x00\x00\x80?\x00\x00\x80?\x00\x00\x80?\x00\x00\x80?\x00\x00\x80?\x00\x00\x80?\x00\x00\x80?\x00\x00\x80?\x00\x00\x80?\x00\x00\x80?\x00\x00\x80?\x00\x00\x80?\x00\x00\x80?\x00\x00\x80?\x00\x00\x80?\x00\x00\x80?\x00\x00\x80?\x00\x00\x80?\x00\x00\x80?\x00\x00\x80?\x00\x00\x80?\x00\x00\x80?\x00\x00\x80?\x00\x00\x80?\x00\x00\x80?\x00\x00\x80?\x00\x00\x80?\x00\x00\x80?\x00\x00\x80?\x00\x00\x80?\x00\x00\x80?\x00\x00\x80?\x00\x00\x80?\x00\x00\x80?\x00\x00\x80?\x00\x00\x80?'
S'\x00\x00\x00\x00\x00\x00\x00\x00\x00\x00\x00\x00\x00\x00\x00\x00\x00\x00\x00\x00\x00\x00\x00\x00\x00\x00\x00\x00\x00\x00\x00\x00\x00\x00\x00\x00\x00\x00\x00\x00\x00\x00\x00\x00\x00\x00\x00\x00\x00\x00\x00\x00\x00\x00\x00\x00\x00\x00\x00\x00\x00\x00\x00\x00\x00\x00\x00\x00\x00\x00\x00\x00\x00\x00\x00\x00\x00\x00\x00\x00\x00\x00\x00\x00\x00\x00\x00\x00\x00\x00\x00\x00\x00\x00\x00\x00'
Ntbsg24
g1162
(g1163
g1158
g1164
S'b'
tRp1169
(I1
(I96
I1
tg1166
I00
S'\x00\x00\x00\x00\x00\x00\x80?\x00\x00\x00\x00\x00\x00\x80?\x00\x00\x00\x00\x00\x00\x00\x00\x00\x00\x00\x00\x00\x00\x00\x00\x00\x00\x80?\x00\x00\x00\x00\x00\x00\x00\x00\x00\x00\x00\x00\x00\x00\x80?\x00\x00\x80?\x00\x00\x00\x00\x00\x00\x00\x00\x00\x00\x80?\x00\x00\x00\x00\x00\x00\x00\x00\x00\x00\x80?\x00\x00\x80?\x00\x00\x00\x00\x00\x00\x80?\x00\x00\x80?\x00\x00\x00\x00\x00\x00\x00\x00\x00\x00\x00\x00\x00\x00\x00\x00\x00\x00\x00\x00\x00\x00\x00\x00\x00\x00\x00\x00\x00\x00\x80?\x00\x00\x00\x00\x00\x00\x80?\x00\x00\x80?\x00\x00\x00\x00\x00\x00\x00\x00\x00\x00\x00\x00\x00\x00\x80?\x00\x00\x00\x00\x00\x00\x00\x00\x00\x00\x80?\x00\x00\x80?\x00\x00\x80?\x00\x00\x00\x00\x00\x00\x80?\x00\x00\x00\x00\x00\x00\x00\x00\x00\x00\x80?\x00\x00\x80?\x00\x00\x80?\x00\x00\x80?\x00\x00\x80?\x00\x00\x80?\x00\x00\x00\x00\x00\x00\x80?\x00\x00\x00\x00\x00\x00\x80?\x00\x00\x80?\x00\x00\x00\x00\x00\x00\x00\x00\x00\x00\x80?\x00\x00\x80?\x00\x00\x00\x00\x00\x00\x00\x00\x00\x00\x80?\x00\x00\x00\x00\x00\x00\x80?\x00\x00\x80?\x00\x00\x00\x00\x00\x00\x80?\x00\x00\x00\x00\x00\x00\x00\x00\x00\x00\x80?\x00\x00\x80?\x00\x00\x80?\x00\x00\x00\x00\x00\x00\x00\x00\x00\x00\x80?\x00\x00\x80?\x00\x00\x80?\x00\x00\x00\x00\x00\x00\x80?\x00\x00\x00\x00\x00\x00\x80?\x00\x00\x80?\x00\x00\x00\x00\x00\x00\x00\x00\x00\x00\x00\x00\x00\x00\x00\x00\x00\x00\x80?\x00\x00\x00\x00\x00\x00\x80?\x00\x00\x00\x00\x00\x00\x00\x00\x00\x00\x80?'
S'\x00\x00\x00\x00\x00\x00\x00\x00\x00\x00\x00\x00\x00\x00\x00\x00\x00\x00\x00\x00\x00\x00\x00\x00\x00\x00\x00\x00\x00\x00\x00\x00\x00\x00\x00\x00\x00\x00\x00\x00\x00\x00\x00\x00\x00\x00\x00\x00\x00\x00\x00\x00\x00\x00\x00\x00\x00\x00\x00\x00\x00\x00\x00\x00\x00\x00\x00\x00\x00\x00\x00\x00\x00\x00\x00\x00\x00\x00\x00\x00\x00\x00\x00\x00\x00\x00\x00\x00\x00\x00\x00\x00\x00\x00\x00\x00'
Ntbsg14
g1162
(g1163
g1158
g1164
S'b'
tRp1170
(I1
(I96
I1
tg1166
I00
S"\x11HcC\xc1n~Aon\xc2C\x82\xd6\xa9C\xb7\x8b\xbdC\xbc\x8d\x02B\x91:\x93C\xdd\x80\xd7Bi\x11tC\x8e\xdc\xdfB#\xa2\x80CpQ!C\xc8\xb9\xc6C\x11\x0b\x97Bp\x99\xa3CK<\xb4C\r\xee\x01C\xc7\xfe\x8cCf\xc9\xcbC\xe8\xbc\x82C\xf8\xd8\x17C~D\x97C8\x14\xf1B\x1d\xdd\xb2B\xa4#\x91C\xb6#pC\x1f\xc3\x9fB\xf6\xad\xbaC\x1c6\x07C\x01+\xa0A'\\YC}\xb5\xa5C\x14/FBH\xc7\xd5C\xa5\xf7|C\xda\x0b\x86B\x9e\x8f\xc4C/\x0b\xbcB\x1e\xa5\x8eBG}TC<\x90\x87Cc)\xb0C\xdd/xC\x80T\xb6C8\xe9\xfd@o\xfc\xbfCO\x84.Cy\x94\xa1C\xdcx\xe2A^\x01\xc6B\x19\xfa)C9b\x85C\x9b\x99\xb8C\x92t\x9fCb\x8b5B\x98\\LCS\x14\xe8B\x9e\xcbm@\x0fb_C\x1a\xc4\xcdC\xe4k\xfbB\xd46\x8aC\xd8\x02yB\x9bB\x0bC\x98\xb0\x0fC%\x88\xc9C5\x16\x1cC\xb8|%C\x8a\x07\x13BZ.\xb2C\xa4M\x95C\xb6A<C\xc9qDC\x1am7C\xee\xa5\xa7C\xf0\x97HC]Q\xc0A5\x163C\xc0\xbdgC\x92\x91\xd3C\x9b6\x9cC\xad\xc7kC\xb0\xad\x13C\xe8\x1a\xcfB\xe5D%BvKhB\xf4UVB\x9e\x80\x99C\x9aBPCJ\xe5\xcfC$\x01\xaaB\x9a\xe0\xabC(\n\x8fCF(\xaeC\xae`@A\xfc1@C"
S'\x00\x00\x00\x00\x00\x00\x00\x00\x00\x00\x00\x00\x00\x00\x00\x00\x00\x00\x00\x00\x00\x00\x00\x00\x00\x00\x00\x00\x00\x00\x00\x00\x00\x00\x00\x00\x00\x00\x00\x00\x00\x00\x00\x00\x00\x00\x00\x00\x00\x00\x00\x00\x00\x00\x00\x00\x00\x00\x00\x00\x00\x00\x00\x00\x00\x00\x00\x00\x00\x00\x00\x00\x00\x00\x00\x00\x00\x00\x00\x00\x00\x00\x00\x00\x00\x00\x00\x00\x00\x00\x00\x00\x00\x00\x00\x00'
Ntbsg16
g1157
(g1158
(I0
tS'b'
tRp1171
(I1
(I96
I1
tg1160
I00
(lp1172
g648
ag110
ag1044
ag923
ag1022
ag159
ag813
ag350
ag692
ag361
ag725
ag482
ag1066
ag271
ag890
ag978
ag405
ag780
ag1088
ag736
ag460
ag835
ag383
ag304
ag802
ag681
ag282
ag1011
ag416
ag123
ag626
ag901
ag203
ag1132
ag714
ag248
ag1055
ag315
ag260
ag615
ag758
ag956
ag703
ag989
ag87
ag1033
ag515
ag879
ag148
ag327
ag504
ag747
ag1000
ag868
ag192
ag593
ag372
ag71
ag637
ag1099
ag394
ag769
ag236
ag427
ag438
ag1077
ag471
ag493
ag170
ag967
ag824
ag549
ag571
ag537
ag912
ag582
ag136
ag526
ag659
ag1121
ag857
ag670
ag449
ag338
ag181
ag225
ag214
ag846
ag604
ag1110
ag293
ag934
ag791
ag945
ag98
ag560
atbsg15
g1157
(g1158
(I0
tS'b'
tRp1173
(I1
(I96
I1
tg1160
I00
(lp1174
g72
ag111
ag72
ag72
ag72
ag111
ag111
ag111
ag72
ag72
ag111
ag111
ag111
ag111
ag111
ag72
ag111
ag72
ag111
ag111
ag72
ag72
ag72
ag72
ag72
ag111
ag111
ag72
ag111
ag111
ag72
ag111
ag72
ag111
ag72
ag72
ag111
ag111
ag111
ag111
ag111
ag72
ag111
ag72
ag72
ag72
ag72
ag72
ag72
ag111
ag72
ag111
ag111
ag111
ag72
ag72
ag72
ag72
ag72
ag111
ag111
ag111
ag111
ag72
ag72
ag111
ag72
ag111
ag111
ag111
ag111
ag111
ag72
ag111
ag72
ag72
ag72
ag111
ag111
ag72
ag72
ag111
ag111
ag72
ag111
ag72
ag111
ag111
ag111
ag72
ag111
ag72
ag72
ag72
ag72
ag111
atbsg22
g1162
(g1163
g1158
g1164
S'b'
tRp1175
(I1
(I96
I1
tg1166
I00
S'\x1f-eC%\x7f\x8fAQ\x82\xc3Cn\xd8\xaaC;\xc2\xbeC\x1c\x9d\nB\xbfF\x94C\xbe\xb6\xdbB\x14"vC?\xe4\xe3B\xa0\xa6\x81C\x97M#C\n\xe6\xc7C\xe8\x8d\x9bB\x88\x8e\xa4C2G\xb5C\x12\x0c\x05Cl\xff\x8dC\x15\xb8\xccC\x9eS\x84CL\x03\x1aC`X\x98C\x7f\xcf\xf5B;\xe0\xb7B\xb2*\x92C]\xf9qC\xa2\x9c\xa3B\x08\xf0\xbbC\xb0/\tC\x7f|\xafA\x08N[C2\x9b\xa6C\x8b\xebMB/\xd2\xd6C\x806\x7fC7-\x8aB-\xab\xc5C\xec;\xc0B\xbc\xd0\x92B\xb4\xf9VC\x92\xd3\x88C\x0c!\xb1CB\xbezCs\x88\xb7C\x0f\xb7\x1eA\t\x0f\xc1C0v0C\xb3\x8e\xa2C1\x84\xf4A{\xe0\xcaB\xb3i,C\xb6f\x86C5\xa3\xb9C\x05\x8b\xa0C\x92\xb9=Bc7NC\xf2\xb5\xecB\x03\xea\xba@J:aC\xfc\xd7\xceC~\x97\xffBR\xf5\x8bC\x97\xad\x81BtF\rC\xe9\x9f\x11C\xfc\xad\xcaC\x9d\x1a\x1fC\x0f\xe2\'CR_\x1cB\xd62\xb3C\t;\x96C\xa3!>CJ\x8fFC\x9c\xc59CU\xce\xa8C6^JC\xfa\xa3\xd1AD\xfb4C\xe5\xb9iC!\xb6\xd4C\x9a\x12\x9eC\x89\x06nC\x0f\xc6\x15C\x86F\xd3B\xbf?-B\xa5ypB3\x99_B\xa0\x18\x9bC\x10rRCG\x86\xd1C\x05\x84\xaeB\x8e\x14\xadC\x9a \x90C\x1b\x13\xafC\x8b6^A|OBC'
S'\x00\x00\x00\x00\x00\x00\x00\x00\x00\x00\x00\x00\x00\x00\x00\x00\x00\x00\x00\x00\x00\x00\x00\x00\x00\x00\x00\x00\x00\x00\x00\x00\x00\x00\x00\x00\x00\x00\x00\x00\x00\x00\x00\x00\x00\x00\x00\x00\x00\x00\x00\x00\x00\x00\x00\x00\x00\x00\x00\x00\x00\x00\x00\x00\x00\x00\x00\x00\x00\x00\x00\x00\x00\x00\x00\x00\x00\x00\x00\x00\x00\x00\x00\x00\x00\x00\x00\x00\x00\x00\x00\x00\x00\x00\x00\x00'
Ntbsg26
g1157
(g1158
(I0
tS'b'
tRp1176
(I1
(I96
I1
tg1160
I00
(lp1177
g36
(g80
S'\x02\x00\x00\x00'
tRp1178
ag36
(g80
S'\x05\x00\x00\x00'
tRp1179
ag36
(g80
S'\t\x00\x00\x00'
tRp1180
ag36
(g80
S'\x05\x00\x00\x00'
tRp1181
ag36
(g80
S'\x07\x00\x00\x00'
tRp1182
ag36
(g80
S'\x06\x00\x00\x00'
tRp1183
ag36
(g80
S'\x04\x00\x00\x00'
tRp1184
ag36
(g80
S'\x08\x00\x00\x00'
tRp1185
ag36
(g80
S'\x01\x00\x00\x00'
tRp1186
ag36
(g80
S'\x06\x00\x00\x00'
tRp1187
ag36
(g80
S'\t\x00\x00\x00'
tRp1188
ag36
(g80
S'\x07\x00\x00\x00'
tRp1189
ag36
(g80
S'\x05\x00\x00\x00'
tRp1190
ag36
(g80
S'\x07\x00\x00\x00'
tRp1191
ag36
(g80
S'\x02\x00\x00\x00'
tRp1192
ag36
(g80
S'\x05\x00\x00\x00'
tRp1193
ag36
(g80
S'\x04\x00\x00\x00'
tRp1194
ag36
(g80
S'\x08\x00\x00\x00'
tRp1195
ag36
(g80
S'\x08\x00\x00\x00'
tRp1196
ag36
(g80
S'\x06\x00\x00\x00'
tRp1197
ag36
(g80
S'\x06\x00\x00\x00'
tRp1198
ag36
(g80
S'\x04\x00\x00\x00'
tRp1199
ag36
(g80
S'\x03\x00\x00\x00'
tRp1200
ag36
(g80
S'\t\x00\x00\x00'
tRp1201
ag36
(g80
S'\x06\x00\x00\x00'
tRp1202
ag36
(g80
S'\x02\x00\x00\x00'
tRp1203
ag36
(g80
S'\t\x00\x00\x00'
tRp1204
ag36
(g80
S'\x08\x00\x00\x00'
tRp1205
ag36
(g80
S'\x07\x00\x00\x00'
tRp1206
ag36
(g80
S'\x07\x00\x00\x00'
tRp1207
ag36
(g80
S'\x04\x00\x00\x00'
tRp1208
ag36
(g80
S'\x01\x00\x00\x00'
tRp1209
ag36
(g80
S'\x07\x00\x00\x00'
tRp1210
ag36
(g80
S'\x02\x00\x00\x00'
tRp1211
ag36
(g80
S'\x07\x00\x00\x00'
tRp1212
ag36
(g80
S'\x06\x00\x00\x00'
tRp1213
ag36
(g80
S'\x07\x00\x00\x00'
tRp1214
ag36
(g80
S'\n\x00\x00\x00'
tRp1215
ag36
(g80
S'\x04\x00\x00\x00'
tRp1216
ag36
(g80
S'\x05\x00\x00\x00'
tRp1217
ag36
(g80
S'\t\x00\x00\x00'
tRp1218
ag36
(g80
S'\x04\x00\x00\x00'
tRp1219
ag36
(g80
S'\x04\x00\x00\x00'
tRp1220
ag36
(g80
S'\x02\x00\x00\x00'
tRp1221
ag36
(g80
S'\x07\x00\x00\x00'
tRp1222
ag36
(g80
S'\x06\x00\x00\x00'
tRp1223
ag36
(g80
S'\t\x00\x00\x00'
tRp1224
ag36
(g80
S'\x05\x00\x00\x00'
tRp1225
ag36
(g80
S'\x03\x00\x00\x00'
tRp1226
ag36
(g80
S'\t\x00\x00\x00'
tRp1227
ag36
(g80
S'\x06\x00\x00\x00'
tRp1228
ag36
(g80
S'\x07\x00\x00\x00'
tRp1229
ag36
(g80
S'\x05\x00\x00\x00'
tRp1230
ag36
(g80
S'\x04\x00\x00\x00'
tRp1231
ag36
(g80
S'\n\x00\x00\x00'
tRp1232
ag36
(g80
S'\x05\x00\x00\x00'
tRp1233
ag36
(g80
S'\x04\x00\x00\x00'
tRp1234
aS'5.0'
p1235
ag36
(g80
S'\x01\x00\x00\x00'
tRp1236
ag36
(g80
S'\x06\x00\x00\x00'
tRp1237
ag36
(g80
S'\x05\x00\x00\x00'
tRp1238
ag36
(g80
S'\x07\x00\x00\x00'
tRp1239
ag36
(g80
S'\x05\x00\x00\x00'
tRp1240
ag36
(g80
S'\x05\x00\x00\x00'
tRp1241
ag36
(g80
S'\x04\x00\x00\x00'
tRp1242
ag36
(g80
S'\x07\x00\x00\x00'
tRp1243
ag36
(g80
S'\t\x00\x00\x00'
tRp1244
ag36
(g80
S'\x04\x00\x00\x00'
tRp1245
ag36
(g80
S'\x05\x00\x00\x00'
tRp1246
ag36
(g80
S'\x07\x00\x00\x00'
tRp1247
ag36
(g80
S'\x02\x00\x00\x00'
tRp1248
ag36
(g80
S'\x05\x00\x00\x00'
tRp1249
ag36
(g80
S'\x04\x00\x00\x00'
tRp1250
ag36
(g80
S'\x04\x00\x00\x00'
tRp1251
ag36
(g80
S'\x03\x00\x00\x00'
tRp1252
ag36
(g80
S'\x03\x00\x00\x00'
tRp1253
ag36
(g80
S'\x04\x00\x00\x00'
tRp1254
ag36
(g80
S'\x07\x00\x00\x00'
tRp1255
ag36
(g80
S'\x01\x00\x00\x00'
tRp1256
ag36
(g80
S'\x01\x00\x00\x00'
tRp1257
ag36
(g80
S'\x02\x00\x00\x00'
tRp1258
ag36
(g80
S'\x03\x00\x00\x00'
tRp1259
ag36
(g80
S'\x03\x00\x00\x00'
tRp1260
ag36
(g80
S'\n\x00\x00\x00'
tRp1261
ag36
(g80
S'\x07\x00\x00\x00'
tRp1262
ag36
(g80
S'\x03\x00\x00\x00'
tRp1263
ag36
(g80
S'\x06\x00\x00\x00'
tRp1264
ag36
(g80
S'\x03\x00\x00\x00'
tRp1265
ag36
(g80
S'\x06\x00\x00\x00'
tRp1266
ag36
(g80
S'\x03\x00\x00\x00'
tRp1267
ag36
(g80
S'\x06\x00\x00\x00'
tRp1268
ag36
(g80
S'\x08\x00\x00\x00'
tRp1269
ag36
(g80
S'\x05\x00\x00\x00'
tRp1270
ag36
(g80
S'\x06\x00\x00\x00'
tRp1271
ag36
(g80
S'\x06\x00\x00\x00'
tRp1272
ag36
(g80
S'\x03\x00\x00\x00'
tRp1273
atbsg21
g1162
(g1163
g1158
g1164
S'b'
tRp1274
(I1
(I96
I1
tg1166
I00
S'[\xb0!?V\xe9=?\xa5oR?\xd5\xc78?>k\x8e?\x1776?\x8d\xdeO?\xa8,H?\x83\xdeO?\x1f76?\xfe\xa53?\xdb\xf3+?\xe9\xb8\x86?\xcc8q?\x86\xd2&?\xab\xbdJ?5\xc2\xea?\x8a\x86.?\x9a\x99\n?#\xe4\xef?\xca\xb2\\?\xf1\xb2\\?\xd8\xda\x8b?\x94\x1d\x96?@\xe9=?\xd2K\x12?\x02m\x17?:\xb0\x98?\x93b)?!\xfe\x19?\xedb)?]\x99\n?v \x1f?\x90oR?\x93\xa8n?\xd0\x0bC?\x0e\xebf?\xecy@?\xc9MM?S\xae\x98?&a\x97?\xd3\xd2&?]\xf1\xa2?-D\x92?\\\xf4+?\x80\x91W?\xc4\x8e\x1c?\xa8b)??|{?}\x1d\x8d?\xe9\xfb\x90?\xc2\xc88?\xdc!H?2fd?\xe7\xa63?\xfb\xba\x0f?f\xdf\x82?\xf2\xdeO?\x0em\x17? "Z?\xf9\xbcJ?=\x8e\n@\x87\x82\xa5?\x1c\xa38?~\xd2&?\x11|{?\'\x8a\xd7?\x07k\x8e?\xa3p\x85?r\xc78?\x0cm\x17?k\xdd\x14?X\x00U?\x16\x01\x88?\xb3p\x85?\xeeV\x00?\xd5\xd3a?\x0e\xdd\x14?\x91X;?U(\x84?\xd7\'\x1d@H\xebx?\xf2oR?U\xe9=?H\x84.?H\x9cE?*\x97\x81?\xae\n\xf5?&\xd4a?\x7f\x05\xfe?Q\xces?0\x92\x8a?\xa0\xb2\\?\xb5\x08\x08?\xfa\xbb\x0f?a\x91W?'
S'\x00\x00\x00\x00\x00\x00\x00\x00\x00\x00\x00\x00\x00\x00\x00\x00\x00\x00\x00\x00\x00\x00\x00\x00\x00\x00\x00\x00\x00\x00\x00\x00\x00\x00\x00\x00\x00\x00\x00\x00\x00\x00\x00\x00\x00\x00\x00\x00\x00\x00\x00\x00\x00\x00\x00\x00\x00\x00\x00\x00\x00\x00\x00\x00\x00\x00\x00\x00\x00\x00\x00\x00\x00\x00\x00\x00\x00\x00\x00\x00\x00\x00\x00\x00\x00\x00\x00\x00\x00\x00\x00\x00\x00\x00\x00\x00'
NtbsS'order'
p1275
g1162
(g1163
g1158
g1164
S'b'
tRp1276
(I1
(I96
I1
tg1166
I00
S'\x00\x00LB\x00\x00@@\x00\x00\xaeB\x00\x00\x98B\x00\x00\xaaB\x00\x00\xe0@\x00\x00\x84B\x00\x00\xc0A\x00\x00\\B\x00\x00\xc8A\x00\x00hB\x00\x00\x10B\x00\x00\xb2B\x00\x00\x88A\x00\x00\x92B\x00\x00\xa2B\x00\x00\xe8A\x00\x00|B\x00\x00\xb6B\x00\x00lB\x00\x00\x08B\x00\x00\x88B\x00\x00\xd8A\x00\x00\xa0A\x00\x00\x82B\x00\x00XB\x00\x00\x90A\x00\x00\xa8B\x00\x00\xf0A\x00\x00\x80@\x00\x00DB\x00\x00\x94B\x00\x000A\x00\x00\xbeB\x00\x00dB\x00\x00pA\x00\x00\xb0B\x00\x00\xa8A\x00\x00\x80A\x00\x00@B\x00\x00tB\x00\x00\x9eB\x00\x00`B\x00\x00\xa4B\x00\x00\x80?\x00\x00\xacB\x00\x00\x1cB\x00\x00\x90B\x00\x00\xc0@\x00\x00\xb0A\x00\x00\x18B\x00\x00pB\x00\x00\xa6B\x00\x00\x8eB\x00\x00 A\x00\x008B\x00\x00\xd0A\x00\x00\x00\x00\x00\x00HB\x00\x00\xb8B\x00\x00\xe0A\x00\x00xB\x00\x00`A\x00\x00\xf8A\x00\x00\x00B\x00\x00\xb4B\x00\x00\x0cB\x00\x00\x14B\x00\x00\x00A\x00\x00\xa0B\x00\x00\x86B\x00\x00(B\x00\x000B\x00\x00$B\x00\x00\x96B\x00\x004B\x00\x00\xa0@\x00\x00 B\x00\x00PB\x00\x00\xbcB\x00\x00\x8cB\x00\x00TB\x00\x00\x04B\x00\x00\xb8A\x00\x00\x10A\x00\x00PA\x00\x00@A\x00\x00\x8aB\x00\x00<B\x00\x00\xbaB\x00\x00\x98A\x00\x00\x9aB\x00\x00\x80B\x00\x00\x9cB\x00\x00\x00@\x00\x00,B'
S'\x00\x00\x00\x00\x00\x00\x00\x00\x00\x00\x00\x00\x00\x00\x00\x00\x00\x00\x00\x00\x00\x00\x00\x00\x00\x00\x00\x00\x00\x00\x00\x00\x00\x00\x00\x00\x00\x00\x00\x00\x00\x00\x00\x00\x00\x00\x00\x00\x00\x00\x00\x00\x00\x00\x00\x00\x00\x00\x00\x00\x00\x00\x00\x00\x00\x00\x00\x00\x00\x00\x00\x00\x00\x00\x00\x00\x00\x00\x00\x00\x00\x00\x00\x00\x00\x00\x00\x00\x00\x00\x00\x00\x00\x00\x00\x00'
Ntbsg19
g1162
(g1163
g1158
g1164
S'b'
tRp1277
(I1
(I96
I1
tg1166
I00
S'\x00\x00\x80?\x00\x00\x80?\x00\x00\x80?\x00\x00\x80?\x00\x00\x80?\x00\x00\x80?\x00\x00\x80?\x00\x00\x80?\x00\x00\x80?\x00\x00\x80?\x00\x00\x80?\x00\x00\x80?\x00\x00\x80?\x00\x00\x00\x00\x00\x00\x80?\x00\x00\x80?\x00\x00\x80?\x00\x00\x80?\x00\x00\x80?\x00\x00\x00\x00\x00\x00\x80?\x00\x00\x80?\x00\x00\x80?\x00\x00\x80?\x00\x00\x80?\x00\x00\x80?\x00\x00\x80?\x00\x00\x80?\x00\x00\x80?\x00\x00\x80?\x00\x00\x80?\x00\x00\x00\x00\x00\x00\x80?\x00\x00\x80?\x00\x00\x80?\x00\x00\x80?\x00\x00\x80?\x00\x00\x80?\x00\x00\x00\x00\x00\x00\x80?\x00\x00\x80?\x00\x00\x80?\x00\x00\x00\x00\x00\x00\x00\x00\x00\x00\x80?\x00\x00\x80?\x00\x00\x80?\x00\x00\x80?\x00\x00\x80?\x00\x00\x80?\x00\x00\x80?\x00\x00\x00\x00\x00\x00\x80?\x00\x00\x80?\x00\x00\x80?\x00\x00\x80?\x00\x00\x80?\x00\x00\x80?\x00\x00\x80?\x00\x00\x80?\x00\x00\x80?\x00\x00\x80?\x00\x00\x80?\x00\x00\x80?\x00\x00\x00\x00\x00\x00\x80?\x00\x00\x80?\x00\x00\x80?\x00\x00\x80?\x00\x00\x80?\x00\x00\x80?\x00\x00\x80?\x00\x00\x80?\x00\x00\x00\x00\x00\x00\x80?\x00\x00\x00\x00\x00\x00\x80?\x00\x00\x80?\x00\x00\x00\x00\x00\x00\x00\x00\x00\x00\x80?\x00\x00\x80?\x00\x00\x00\x00\x00\x00\x80?\x00\x00\x80?\x00\x00\x00\x00\x00\x00\x80?\x00\x00\x80?\x00\x00\x80?\x00\x00\x80?\x00\x00\x80?\x00\x00\x80?\x00\x00\x80?\x00\x00\x80?\x00\x00\x80?\x00\x00\x80?'
S'\x00\x00\x00\x00\x00\x00\x00\x00\x00\x00\x00\x00\x00\x00\x00\x00\x00\x00\x00\x00\x00\x00\x00\x00\x00\x00\x00\x00\x00\x00\x00\x00\x00\x00\x00\x00\x00\x00\x00\x00\x00\x00\x00\x00\x00\x00\x00\x00\x00\x00\x00\x00\x00\x00\x00\x00\x00\x00\x00\x00\x00\x00\x00\x00\x00\x00\x00\x00\x00\x00\x00\x00\x00\x00\x00\x00\x00\x00\x00\x00\x00\x00\x00\x00\x00\x00\x00\x00\x00\x00\x00\x00\x00\x00\x00\x00'
Ntbsg27
g1157
(g1158
(I0
tS'b'
tRp1278
(I1
(I96
I1
tg1160
I00
(lp1279
g650
ag114
ag1046
ag925
ag1024
ag161
ag815
ag352
ag694
ag363
ag727
ag484
ag1068
ag273
ag892
ag980
ag407
ag782
ag1090
ag738
ag462
ag837
ag385
ag306
ag804
ag683
ag284
ag1013
ag418
ag127
ag628
ag903
ag205
ag1134
ag716
ag251
ag1057
ag318
ag262
ag617
ag760
ag958
ag705
ag991
ag89
ag1035
ag517
ag881
ag150
ag329
ag506
ag749
ag1002
ag870
ag194
ag595
ag374
ag76
ag639
ag1101
ag396
ag771
ag239
ag429
ag440
ag1079
ag473
ag495
ag172
ag969
ag826
ag551
ag573
ag540
ag914
ag584
ag139
ag528
ag661
ag1123
ag859
ag672
ag451
ag341
ag183
ag227
ag216
ag848
ag606
ag1112
ag295
ag936
ag793
ag947
ag101
ag562
atbsg23
g1157
(g1158
(I0
tS'b'
tRp1280
(I1
(I96
I1
tg1160
I00
(lp1281
S'2'
aS'1'
aS'3'
aS'1'
aS'2'
aS'2'
aS'3'
aS'3'
aS'1'
aS'3'
aS'3'
aS'3'
aS'1'
aS'1'
aS'2'
aS'3'
aS'1'
aS'3'
aS'3'
aS'1'
aS'1'
aS'2'
aS'1'
aS'1'
aS'3'
aS'2'
aS'3'
aS'2'
aS'3'
aS'3'
aS'3'
aS'1'
aS'2'
aS'1'
aS'1'
aS'3'
aS'3'
aS'2'
aS'1'
aS'2'
aS'3'
aS'1'
aS'1'
aS'1'
aS'2'
aS'1'
aS'3'
aS'3'
aS'1'
aS'1'
aS'1'
aS'1'
aS'1'
aS'1'
aS'3'
aS'1'
aS'2'
aS'1'
aS'1'
aS'3'
aS'2'
aS'1'
aS'1'
aS'2'
aS'2'
aS'1'
aS'3'
aS'1'
aS'1'
aS'3'
aS'1'
aS'3'
aS'2'
aS'1'
aS'1'
aS'1'
aS'2'
aS'3'
aS'1'
aS'1'
aS'1'
aS'2'
aS'1'
aS'3'
aS'1'
aS'1'
aS'3'
aS'2'
aS'2'
aS'3'
aS'1'
aS'3'
aS'1'
aS'3'
aS'2'
aS'1'
atbsg18
g1162
(g1163
g1158
g1164
S'b'
tRp1282
(I1
(I96
I1
tg1166
I00
S',\x86dC\xcae\x89Aw\x16\xc3Ciy\xaaC/1\xbeC4\xaf\x07B/\xdc\x93C\xdc\x1b\xdaB\xf3LuCIm\xe2B+J\x81C`\x9c"C\xb0\\\xc7C\xf0\xa0\x99B}8\xa4C2\xdf\xb4CJ1\x03C\x87\xa5\x8dC&p\xccC\x18a\x83CV!\x19C\x1d\xe6\x97C\x8e\x95\xf3B>}\xb5B\xd4\xc7\x91C\xcfaqCAc\xa2B\xb6T\xbbC\x0b\x81\x08Cw\x82\xaaAb\x9fZCCS\xa6C\xfaYKBUf\xd6C\x93B~C\x96\x9c\x88B\x165\xc5Cq\xb0\xbeB\x98+\x91B\x15\xc3UC\x8d9\x88C\x01\xcb\xb0C\x19syC\x8d\xf3\xb6C\x8c\xa3\x13A\x9e\xa0\xc0C_\xd4/C`7\xa2C7~\xecA~\xa1\xc8BxB+C\xb0\x07\x86C\x81<\xb9C0\x16\xa0C\xeb\xd5:Bh\xa2MC\xcc\x9a\xeaB\x8f\xf1\x9f@\x99\x9d`CIh\xceC~\xf7\xfdB\x94\xdd\x8aC\x0e\x1a~Bh\x88\x0cC\xd4\xf3\x10C\x9d-\xcaCFf\x1dC\xf5\xbf&C\xc2\x1e\x18B\xd1\xd3\xb2C\xb1\xec\x95C\x84\x87=C\x07\xb5ECX\xb08CDF\xa8C\x9b\xd8ICDk\xcaA$a4CJ\xf9hCX/\xd4C\xa8\xd5\x9cCZ\x08mC\\\xee\x14C+\xc0\xd1B\xa3p*B&NmBow[B\xf4 \x9aC\xf8\x8aQC\x9f\x85\xd0C\xe1\x91\xacBZ\x87\xacCW\xae\x8fCu\xcc\xaeC\x96\xe6TA\xa8rAC'
S'\x00\x00\x00\x00\x00\x00\x00\x00\x00\x00\x00\x00\x00\x00\x00\x00\x00\x00\x00\x00\x00\x00\x00\x00\x00\x00\x00\x00\x00\x00\x00\x00\x00\x00\x00\x00\x00\x00\x00\x00\x00\x00\x00\x00\x00\x00\x00\x00\x00\x00\x00\x00\x00\x00\x00\x00\x00\x00\x00\x00\x00\x00\x00\x00\x00\x00\x00\x00\x00\x00\x00\x00\x00\x00\x00\x00\x00\x00\x00\x00\x00\x00\x00\x00\x00\x00\x00\x00\x00\x00\x00\x00\x00\x00\x00\x00'
Ntbsg25
g1162
(g1163
g1158
g1164
S'b'
tRp1283
(I1
(I96
I1
tg1166
I00
S"\xb8\xffT?\xbf\xb4\xb3>$\xf9\xbd>2]\xa9>\xfc\xc68?\x83\xf9\xbd>\x92O\xa4>\x10\x94\xae>\x12O\xa4>\xf1\xd4\xb8>\x9e\xcd\xe1>\xcd\x03\xe7>\x86K\xc4?3\xf9\xbd>\x8bK\x12?0\xf7\xbd>[\xc0\xdc>\xd3\xb3\xb3>\x1e\xd5\xb8>\xbf\x18\xc3>W\x92\xae>E\xdc\x14?\xe7J\x89?L\xb4\xb3>S:\xc8>\x90\xd5\xb8>\x8aR\xbb?\x9b\xe1\xbd?|\x7f\xae>\xcb\xf6\xbd>N\x17\x16@H\xb4\xb3>b\xf6\xbd><\x9e\xd7>\x80O\xa4>dV\x00?\x00\x19\xc3>\x93\x8c\x93?x\x18\xc3>\xe3\xd2&?mk\x85?\xd6\xf7\xbd>h\x8a\xfb>\xd6[\xcd>J\xf7\xbd>&\x92\x81?\xb1fd?\x9f\xc4\xb3>\xb6~\xae>\x89\x19\xc3>h\xf5\xbd>\xbdl\x17?\xae\xb5\xb3>\x04\x92\xae>*\x18\xc3>\xee-\x9f>\xc1\x03\xe7>\x9c\xd4\xb8>\xa2O\xa4>\xb3\xf6\xbd>r[\xcd>\xc3\x91\xae>\xea\x03\xe7>\xcb\x83.?\xafN\xa4>\x13h\xf6>Xj\xf6>a\xd5\xb8>D\x8a\xfb>g\x93\xae>\xaf\x92\xae>\xado\xa9>+\x0c\x9a><z@?4p\xa9>\xca\x85\x85>\xcf\xf6\xbd>\xdf76?tP\xa4>\x8a[\xcd>\x84'\x84?\x97\x18\xc3>\xcc\x93\xae>\x0b\x1d\xc3>x\x93\xae>\xeep\xcd>\x1e\xe2\xe1>4W\x00?\xe4-\x9f>\xec\xbd\x16@\xad\xe3\xe1>\xe4\x9f\xd7>\xb7\xe9\x94>\x0f\xe8\xe1>\xd7\xca\x8f>\xbd[\xcd>"
S'\x00\x00\x00\x00\x00\x00\x00\x00\x00\x00\x00\x00\x00\x00\x00\x00\x00\x00\x00\x00\x00\x00\x00\x00\x00\x00\x00\x00\x00\x00\x00\x00\x00\x00\x00\x00\x00\x00\x00\x00\x00\x00\x00\x00\x00\x00\x00\x00\x00\x00\x00\x00\x00\x00\x00\x00\x00\x00\x00\x00\x00\x00\x00\x00\x00\x00\x00\x00\x00\x00\x00\x00\x00\x00\x00\x00\x00\x00\x00\x00\x00\x00\x00\x00\x00\x00\x00\x00\x00\x00\x00\x00\x00\x00\x00\x00'
NtbstRp1284
(dp1285
S'isNumeric'
p1286
(dp1287
g23
I00
sg20
I00
sg17
I01
sg1167
I01
sg22
I01
sg24
I01
sg14
I01
sg18
I01
sg16
I00
sg19
I01
sg26
I00
sg27
I00
sg15
I00
sg21
I01
sg1275
I01
sg25
I01
ssg1151
g1145
sS'dataTypes'
p1288
(lp1289
g1167
ag1275
ag14
ag15
ag16
ag17
ag18
ag19
ag20
ag21
ag22
ag23
ag24
ag25
ag26
ag27
asS'dataShape'
p1290
(lp1291
I96
aI1
asbsS'method'
p1292
S'random'
p1293
sS'sequenceIndices'
p1294
g1157
(g1158
(I0
tS'b'
tRp1295
(I1
(I96
I1
tg80
I01
S'9\x00\x00\x00,\x00\x00\x00^\x00\x00\x00\x01\x00\x00\x00\x1d\x00\x00\x00L\x00\x00\x000\x00\x00\x00\x05\x00\x00\x00D\x00\x00\x00T\x00\x00\x006\x00\x00\x00 \x00\x00\x00V\x00\x00\x00U\x00\x00\x00>\x00\x00\x00#\x00\x00\x00&\x00\x00\x00\r\x00\x00\x00\x1a\x00\x00\x00Z\x00\x00\x00\x17\x00\x00\x00%\x00\x00\x001\x00\x00\x00S\x00\x00\x00\x07\x00\x00\x00\t\x00\x00\x008\x00\x00\x00\x16\x00\x00\x00<\x00\x00\x00\x10\x00\x00\x00\x1c\x00\x00\x00?\x00\x00\x00@\x00\x00\x00R\x00\x00\x00\x14\x00\x00\x00B\x00\x00\x00\x0b\x00\x00\x00C\x00\x00\x002\x00\x00\x00.\x00\x00\x00M\x00\x00\x00I\x00\x00\x00G\x00\x00\x00_\x00\x00\x00H\x00\x00\x00K\x00\x00\x007\x00\x00\x00X\x00\x00\x00\'\x00\x00\x00\x1e\x00\x00\x00:\x00\x00\x00\x00\x00\x00\x00N\x00\x00\x00Q\x00\x00\x00\x19\x00\x00\x00\x08\x00\x00\x00*\x00\x00\x00"\x00\x00\x00\n\x00\x00\x00\x13\x00\x00\x003\x00\x00\x00(\x00\x00\x00=\x00\x00\x00\x11\x00\x00\x00\\\x00\x00\x00\x18\x00\x00\x00\x06\x00\x00\x00F\x00\x00\x00\x15\x00\x00\x00W\x00\x00\x00P\x00\x00\x005\x00\x00\x00/\x00\x00\x00\x0e\x00\x00\x00\x1f\x00\x00\x00J\x00\x00\x00\x03\x00\x00\x00[\x00\x00\x00]\x00\x00\x00)\x00\x00\x00E\x00\x00\x00\x0f\x00\x00\x00+\x00\x00\x004\x00\x00\x00\x1b\x00\x00\x00\x04\x00\x00\x00-\x00\x00\x00\x02\x00\x00\x00$\x00\x00\x00\x0c\x00\x00\x00A\x00\x00\x00\x12\x00\x00\x00;\x00\x00\x00Y\x00\x00\x00O\x00\x00\x00!\x00\x00\x00'
tbsS'finished'
p1296
I01
sS'nReps'
p1297
I1
sS'nRemaining'
p1298
I-1
sS'trialList'
p1299
(lp1300
g1
(cpsychopy.data
TrialType
p1301
g1155
(dp1302
g62
g125
sg63
g656
sg64
g124
sg65
g651
sg66
g655
stRp1303
ag1
(g1301
g1155
(dp1304
g62
g74
sg63
g120
sg64
g112
sg65
g115
sg66
g119
stRp1305
ag1
(g1301
g1155
(dp1306
g62
g125
sg63
g1052
sg64
g124
sg65
g1047
sg66
g1051
stRp1307
ag1
(g1301
g1155
(dp1308
g62
g125
sg63
g931
sg64
g316
sg65
g926
sg66
g930
stRp1309
ag1
(g1301
g1155
(dp1310
g62
g74
sg63
g1030
sg64
g73
sg65
g1025
sg66
g1029
stRp1311
ag1
(g1301
g1155
(dp1312
g62
g125
sg63
g167
sg64
g124
sg65
g162
sg66
g166
stRp1313
ag1
(g1301
g1155
(dp1314
g62
g125
sg63
g821
sg64
g124
sg65
g816
sg66
g820
stRp1315
ag1
(g1301
g1155
(dp1316
g62
g125
sg63
g358
sg64
g137
sg65
g353
sg66
g357
stRp1317
ag1
(g1301
g1155
(dp1318
g62
g125
sg63
g700
sg64
g124
sg65
g695
sg66
g699
stRp1319
ag1
(g1301
g1155
(dp1320
g62
g125
sg63
g369
sg64
g137
sg65
g364
sg66
g368
stRp1321
ag1
(g1301
g1155
(dp1322
g62
g74
sg63
g733
sg64
g538
sg65
g728
sg66
g732
stRp1323
ag1
(g1301
g1155
(dp1324
g62
g125
sg63
g490
sg64
g137
sg65
g485
sg66
g489
stRp1325
ag1
(g1301
g1155
(dp1326
g62
g125
sg63
g1074
sg64
g249
sg65
g1069
sg66
g1073
stRp1327
ag1
(g1301
g1155
(dp1328
g62
g74
sg63
g279
sg64
g112
sg65
g274
sg66
g278
stRp1329
ag1
(g1301
g1155
(dp1330
g62
g125
sg63
g898
sg64
g249
sg65
g893
sg66
g897
stRp1331
ag1
(g1301
g1155
(dp1332
g62
g125
sg63
g986
sg64
g124
sg65
g981
sg66
g985
stRp1333
ag1
(g1301
g1155
(dp1334
g62
g74
sg63
g413
sg64
g112
sg65
g408
sg66
g412
stRp1335
ag1
(g1301
g1155
(dp1336
g62
g125
sg63
g788
sg64
g249
sg65
g783
sg66
g787
stRp1337
ag1
(g1301
g1155
(dp1338
g62
g125
sg63
g1096
sg64
g339
sg65
g1091
sg66
g1095
stRp1339
ag1
(g1301
g1155
(dp1340
g62
g125
sg63
g744
sg64
g124
sg65
g739
sg66
g743
stRp1341
ag1
(g1301
g1155
(dp1342
g62
g74
sg63
g468
sg64
g112
sg65
g463
sg66
g467
stRp1343
ag1
(g1301
g1155
(dp1344
g62
g74
sg63
g843
sg64
g99
sg65
g838
sg66
g842
stRp1345
ag1
(g1301
g1155
(dp1346
g62
g125
sg63
g391
sg64
g339
sg65
g386
sg66
g390
stRp1347
ag1
(g1301
g1155
(dp1348
g62
g74
sg63
g312
sg64
g99
sg65
g307
sg66
g311
stRp1349
ag1
(g1301
g1155
(dp1350
g62
g74
sg63
g810
sg64
g538
sg65
g805
sg66
g809
stRp1351
ag1
(g1301
g1155
(dp1352
g62
g125
sg63
g689
sg64
g237
sg65
g684
sg66
g688
stRp1353
ag1
(g1301
g1155
(dp1354
g62
g74
sg63
g290
sg64
g73
sg65
g285
sg66
g289
stRp1355
ag1
(g1301
g1155
(dp1356
g62
g74
sg63
g1019
sg64
g112
sg65
g1014
sg66
g1018
stRp1357
ag1
(g1301
g1155
(dp1358
g62
g125
sg63
g424
sg64
g249
sg65
g419
sg66
g423
stRp1359
ag1
(g1301
g1155
(dp1360
g62
g125
sg63
g133
sg64
g124
sg65
g128
sg66
g132
stRp1361
ag1
(g1301
g1155
(dp1362
g62
g125
sg63
g634
sg64
g339
sg65
g629
sg66
g633
stRp1363
ag1
(g1301
g1155
(dp1364
g62
g125
sg63
g909
sg64
g339
sg65
g904
sg66
g908
stRp1365
ag1
(g1301
g1155
(dp1366
g62
g74
sg63
g211
sg64
g112
sg65
g206
sg66
g210
stRp1367
ag1
(g1301
g1155
(dp1368
g62
g74
sg63
g1140
sg64
g73
sg65
g1135
sg66
g1139
stRp1369
ag1
(g1301
g1155
(dp1370
g62
g74
sg63
g722
sg64
g73
sg65
g717
sg66
g721
stRp1371
ag1
(g1301
g1155
(dp1372
g62
g125
sg63
g257
sg64
g249
sg65
g252
sg66
g256
stRp1373
ag1
(g1301
g1155
(dp1374
g62
g125
sg63
g1063
sg64
g237
sg65
g1058
sg66
g1062
stRp1375
ag1
(g1301
g1155
(dp1376
g62
g125
sg63
g324
sg64
g316
sg65
g319
sg66
g323
stRp1377
ag1
(g1301
g1155
(dp1378
g62
g74
sg63
g268
sg64
g73
sg65
g263
sg66
g267
stRp1379
ag1
(g1301
g1155
(dp1380
g62
g74
sg63
g623
sg64
g112
sg65
g618
sg66
g622
stRp1381
ag1
(g1301
g1155
(dp1382
g62
g74
sg63
g766
sg64
g112
sg65
g761
sg66
g765
stRp1383
ag1
(g1301
g1155
(dp1384
g62
g125
sg63
g964
sg64
g249
sg65
g959
sg66
g963
stRp1385
ag1
(g1301
g1155
(dp1386
g62
g74
sg63
g711
sg64
g73
sg65
g706
sg66
g710
stRp1387
ag1
(g1301
g1155
(dp1388
g62
g74
sg63
g997
sg64
g99
sg65
g992
sg66
g996
stRp1389
ag1
(g1301
g1155
(dp1390
g62
g74
sg63
g95
sg64
g73
sg65
g90
sg66
g94
stRp1391
ag1
(g1301
g1155
(dp1392
g62
g74
sg63
g1041
sg64
g538
sg65
g1036
sg66
g1040
stRp1393
ag1
(g1301
g1155
(dp1394
g62
g125
sg63
g523
sg64
g124
sg65
g518
sg66
g522
stRp1395
ag1
(g1301
g1155
(dp1396
g62
g125
sg63
g887
sg64
g124
sg65
g882
sg66
g886
stRp1397
ag1
(g1301
g1155
(dp1398
g62
g74
sg63
g156
sg64
g112
sg65
g151
sg66
g155
stRp1399
ag1
(g1301
g1155
(dp1400
g62
g74
sg63
g335
sg64
g99
sg65
g330
sg66
g334
stRp1401
ag1
(g1301
g1155
(dp1402
g62
g74
sg63
g512
sg64
g112
sg65
g507
sg66
g511
stRp1403
ag1
(g1301
g1155
(dp1404
g62
g74
sg63
g755
sg64
g73
sg65
g750
sg66
g754
stRp1405
ag1
(g1301
g1155
(dp1406
g62
g74
sg63
g1008
sg64
g99
sg65
g1003
sg66
g1007
stRp1407
ag1
(g1301
g1155
(dp1408
g62
g125
sg63
g876
sg64
g249
sg65
g871
sg66
g875
stRp1409
ag1
(g1301
g1155
(dp1410
g62
g125
sg63
g200
sg64
g137
sg65
g195
sg66
g199
stRp1411
ag1
(g1301
g1155
(dp1412
g62
g74
sg63
g601
sg64
g99
sg65
g596
sg66
g600
stRp1413
ag1
(g1301
g1155
(dp1414
g62
g74
sg63
g380
sg64
g73
sg65
g375
sg66
g379
stRp1415
ag1
(g1301
g1155
(dp1416
g62
g74
sg63
g84
sg64
g73
sg65
g78
sg66
g83
stRp1417
ag1
(g1301
g1155
(dp1418
g62
g125
sg63
g645
sg64
g249
sg65
g640
sg66
g644
stRp1419
ag1
(g1301
g1155
(dp1420
g62
g74
sg63
g1107
sg64
g73
sg65
g1102
sg66
g1106
stRp1421
ag1
(g1301
g1155
(dp1422
g62
g74
sg63
g402
sg64
g73
sg65
g397
sg66
g401
stRp1423
ag1
(g1301
g1155
(dp1424
g62
g74
sg63
g777
sg64
g73
sg65
g772
sg66
g776
stRp1425
ag1
(g1301
g1155
(dp1426
g62
g125
sg63
g245
sg64
g237
sg65
g240
sg66
g244
stRp1427
ag1
(g1301
g1155
(dp1428
g62
g74
sg63
g435
sg64
g73
sg65
g430
sg66
g434
stRp1429
ag1
(g1301
g1155
(dp1430
g62
g125
sg63
g446
sg64
g137
sg65
g441
sg66
g445
stRp1431
ag1
(g1301
g1155
(dp1432
g62
g74
sg63
g1085
sg64
g99
sg65
g1080
sg66
g1084
stRp1433
ag1
(g1301
g1155
(dp1434
g62
g125
sg63
g479
sg64
g339
sg65
g474
sg66
g478
stRp1435
ag1
(g1301
g1155
(dp1436
g62
g74
sg63
g501
sg64
g73
sg65
g496
sg66
g500
stRp1437
ag1
(g1301
g1155
(dp1438
g62
g74
sg63
g178
sg64
g112
sg65
g173
sg66
g177
stRp1439
ag1
(g1301
g1155
(dp1440
g62
g125
sg63
g975
sg64
g124
sg65
g970
sg66
g974
stRp1441
ag1
(g1301
g1155
(dp1442
g62
g74
sg63
g832
sg64
g73
sg65
g827
sg66
g831
stRp1443
ag1
(g1301
g1155
(dp1444
g62
g125
sg63
g557
sg64
g339
sg65
g552
sg66
g556
stRp1445
ag1
(g1301
g1155
(dp1446
g62
g125
sg63
g579
sg64
g237
sg65
g574
sg66
g578
stRp1447
ag1
(g1301
g1155
(dp1448
g62
g74
sg63
g546
sg64
g538
sg65
g541
sg66
g545
stRp1449
ag1
(g1301
g1155
(dp1450
g62
g74
sg63
g920
sg64
g73
sg65
g915
sg66
g919
stRp1451
ag1
(g1301
g1155
(dp1452
g62
g74
sg63
g590
sg64
g99
sg65
g585
sg66
g589
stRp1453
ag1
(g1301
g1155
(dp1454
g62
g125
sg63
g145
sg64
g137
sg65
g140
sg66
g144
stRp1455
ag1
(g1301
g1155
(dp1456
g62
g125
sg63
g534
sg64
g339
sg65
g529
sg66
g533
stRp1457
ag1
(g1301
g1155
(dp1458
g62
g125
sg63
g667
sg64
g124
sg65
g662
sg66
g666
stRp1459
ag1
(g1301
g1155
(dp1460
g62
g74
sg63
g1129
sg64
g73
sg65
g1124
sg66
g1128
stRp1461
ag1
(g1301
g1155
(dp1462
g62
g74
sg63
g865
sg64
g99
sg65
g860
sg66
g864
stRp1463
ag1
(g1301
g1155
(dp1464
g62
g125
sg63
g678
sg64
g124
sg65
g673
sg66
g677
stRp1465
ag1
(g1301
g1155
(dp1466
g62
g74
sg63
g457
sg64
g112
sg65
g452
sg66
g456
stRp1467
ag1
(g1301
g1155
(dp1468
g62
g125
sg63
g347
sg64
g339
sg65
g342
sg66
g346
stRp1469
ag1
(g1301
g1155
(dp1470
g62
g74
sg63
g189
sg64
g112
sg65
g184
sg66
g188
stRp1471
ag1
(g1301
g1155
(dp1472
g62
g74
sg63
g233
sg64
g73
sg65
g228
sg66
g232
stRp1473
ag1
(g1301
g1155
(dp1474
g62
g125
sg63
g222
sg64
g137
sg65
g217
sg66
g221
stRp1475
ag1
(g1301
g1155
(dp1476
g62
g125
sg63
g854
sg64
g137
sg65
g849
sg66
g853
stRp1477
ag1
(g1301
g1155
(dp1478
g62
g125
sg63
g612
sg64
g237
sg65
g607
sg66
g611
stRp1479
ag1
(g1301
g1155
(dp1480
g62
g125
sg63
g1118
sg64
g237
sg65
g1113
sg66
g1117
stRp1481
ag1
(g1301
g1155
(dp1482
g62
g74
sg63
g301
sg64
g112
sg65
g296
sg66
g300
stRp1483
ag1
(g1301
g1155
(dp1484
g62
g125
sg63
g942
sg64
g137
sg65
g937
sg66
g941
stRp1485
ag1
(g1301
g1155
(dp1486
g62
g125
sg63
g799
sg64
g237
sg65
g794
sg66
g798
stRp1487
ag1
(g1301
g1155
(dp1488
g62
g125
sg63
g953
sg64
g124
sg65
g948
sg66
g952
stRp1489
ag1
(g1301
g1155
(dp1490
g62
g74
sg63
g107
sg64
g99
sg65
g102
sg66
g106
stRp1491
ag1
(g1301
g1155
(dp1492
g62
g74
sg63
g568
sg64
g112
sg65
g563
sg66
g567
stRp1493
asS'seed'
p1494
NsS'thisIndex'
p1495
g1137
sS'thisN'
p1496
I96
sS'thisTrialN'
p1497
I0
sS'nTotal'
p1498
I96
sS'_warnUseOfNext'
p1499
I01
sbasS'savePickle'
p1500
I00
sb.