ccopy_reg
_reconstructor
p1
(cpsychopy.data
ExperimentHandler
p2
c__builtin__
object
p3
NtRp4
(dp5
S'originPath'
p6
NsS'dataFileName'
p7
VC:\u005cDocuments and Settings\u005cExperimental user\u005cMy Documents\u005cconsciousness\u005cuncon_feat\u005cexperiment_scripts\u005cdata/aingere_Experiment_EEG_version_2019_may_16_1645
p8
sS'runtimeInfo'
p9
NsS'name'
p10
VExperiment_EEG_version
p11
sS'dataNames'
p12
(lp13
S'image_onset_time'
p14
aS'response_window'
p15
aS'correctAns'
p16
aS'probe_onset'
p17
aS'discrim_resptime'
p18
aS'response.corr'
p19
aS'response.keys'
p20
aS'response.rt'
p21
aS'visible_resptime'
p22
aS'visible.keys'
p23
aS'visible.corr'
p24
aS'visible.rt'
p25
aS'probeFrames'
p26
aS'jitter2'
p27
asS'autoLog'
p28
I01
sS'extraInfo'
p29
(dp30
Vn_square
p31
V32
p32
sVexperiment_color
p33
Vbw
p34
sS'frameRate'
p35
cnumpy.core.multiarray
scalar
p36
(cnumpy
dtype
p37
(S'f8'
I0
I1
tRp38
(I3
S'<'
NNNI-1
I-1
I0
tbS'5s\x18E\x08\xf2X@'
tRp39
sS'date'
p40
V2019_may_16_1645
p41
sVsession
p42
V005
p43
sVimage_size
p44
V256
p45
sVpremask_dur
p46
V20
p47
sVprobeFrames
p48
V5
sVparticipant
p49
Vaingere
p50
sS'expName'
p51
g11
sVpostmask_dur
p52
V20
p53
ssS'loopsUnfinished'
p54
(lp55
sS'saveWideText'
p56
I00
sS'thisEntry'
p57
(dp58
sS'version'
p59
S''
sS'_paramNamesSoFar'
p60
(lp61
S'category'
p62
aS'probe_path'
p63
aS'subcategory'
p64
aS'fixation_duration'
p65
aS'label'
p66
asS'entries'
p67
(lp68
(dp69
g31
g32
sg17
F3.7399121379712597
sg24
I0
sg35
g39
sg14
F3.7181317092617974
sg16
g36
(g37
(S'i4'
I0
I1
tRp70
(I3
S'<'
NNNI-1
I-1
I0
tbS'\x02\x00\x00\x00'
tRp71
sg42
g43
sg46
g47
sg15
S'V_nV'
p72
sg22
F5.8436420320067555
sg64
VFurniture
p73
sg62
VNonliving_Things
p74
sg49
g50
sS'trials.thisN'
p75
I0
sg19
I1
sg27
g36
(g38
S'\x00\x00\x00\x00\x00\x00\x18@'
tRp76
sg52
g53
sg23
S'3'
sg18
F5.0008232227992266
sg33
g34
sg51
g11
sg20
S'2'
sg65
g36
(g37
(S'i8'
I0
I1
tRp77
(I3
S'<'
NNNI-1
I-1
I0
tbS'\x00\x00\x00\x00\x00\x00\x00\x00'
tRp78
sg44
g45
sg40
g41
sg25
F0.38104640005622059
sS'trials.thisIndex'
p79
g36
(g37
(S'i4'
I0
I1
tRp80
(I3
S'<'
NNNI-1
I-1
I0
tbS']\x00\x00\x00'
tRp81
sg26
V5
sS'trials.thisRepN'
p82
I0
sg66
Vwardrobe
p83
sg63
V../experiment_stimuli/bw_bc_bl/Nonliving_Things/Furniture/wardrobe_2.jpg
p84
sg21
F0.81199712678790092
sS'trials.thisTrialN'
p85
I0
sa(dp86
g31
g32
sg17
F7.9621441955678165
sg24
I1
sg35
g39
sg14
F7.9573424824047834
sg16
g36
(g70
S'\x01\x00\x00\x00'
tRp87
sg42
g43
sg46
g47
sg15
S'nV_V'
p88
sg22
F9.9021949184825644
sg64
VKitchen_Uten
p89
sg62
g74
sg49
g50
sS'trials.thisN'
p90
I1
sg19
I1
sg27
g36
(g38
S'\x00\x00\x00\x00\x00\x00\x1c@'
tRp91
sg52
g53
sg23
S'1'
sg18
F9.1999479646328837
sg33
g34
sg51
g11
sg20
S'1'
sg65
g36
(g77
S'\x00\x00\x00\x00\x00\x00\x00\x00'
tRp92
sg44
g45
sg40
g41
sg25
F0.43118859524838626
sS'trials.thisIndex'
p93
g36
(g80
S'M\x00\x00\x00'
tRp94
sg26
V5
sS'trials.thisRepN'
p95
I0
sg66
Vsmall-saucepan
p96
sg63
V../experiment_stimuli/bw_bc_bl/Nonliving_Things/Kitchen_Uten/small-saucepan_5.jpg
p97
sg21
F0.68170624447520822
sS'trials.thisTrialN'
p98
I1
sa(dp99
g31
g32
sg17
F12.072130356915295
sg24
I0
sg35
g39
sg14
F12.066279613645747
sg16
g36
(g70
S'\x01\x00\x00\x00'
tRp100
sg42
g43
sg46
g47
sg15
g72
sg22
F14.59239945828449
sg64
VInsects
p101
sg62
VLiving_Things
p102
sg49
g50
sS'trials.thisN'
p103
I2
sg19
I1
sg27
g36
(g38
S'\x00\x00\x00\x00\x00\x00\x18@'
tRp104
sg52
g53
sg23
S'3'
sg18
F13.328925169771537
sg33
g34
sg51
g11
sg20
S'1'
sg65
g36
(g77
S'\x00\x00\x00\x00\x00\x00\x00\x00'
tRp105
sg44
g45
sg40
g41
sg25
F0.46122596599161625
sS'trials.thisIndex'
p106
g36
(g80
S'\x18\x00\x00\x00'
tRp107
sg26
V5
sS'trials.thisRepN'
p108
I0
sg66
Vdragonfly
p109
sg63
V../experiment_stimuli/bw_bc_bl/Living_Things/Insects/dragonfly_9.jpg
p110
sg21
F1.2429251318098977
sS'trials.thisTrialN'
p111
I2
sa(dp112
g31
g32
sg17
F16.791389939258806
sg24
I1
sg35
g39
sg14
F16.786534587386996
sg16
g36
(g70
S'\x02\x00\x00\x00'
tRp113
sg42
g43
sg46
g47
sg15
g88
sg22
F19.152324566850439
sg64
VBirds
p114
sg62
g102
sg49
g50
sS'trials.thisN'
p115
I3
sg19
I0
sg27
g36
(g38
S'\x00\x00\x00\x00\x00\x00\x1a@'
tRp116
sg52
g53
sg23
S'1'
sg18
F18.019114709459245
sg33
g34
sg51
g11
sg20
S'1'
sg65
g36
(g77
S'\x00\x00\x00\x00\x00\x00\x00\x00'
tRp117
sg44
g45
sg40
g41
sg25
F0.36100331472698599
sS'trials.thisIndex'
p118
g36
(g80
S'"\x00\x00\x00'
tRp119
sg26
V5
sS'trials.thisRepN'
p120
I0
sg66
Vgoose
p121
sg63
V../experiment_stimuli/bw_bc_bl/Living_Things/Birds/goose_9.jpg
p122
sg21
F1.1126500464743003
sS'trials.thisTrialN'
p123
I3
sa(dp124
g31
g32
sg17
F21.251144733978435
sg24
I0
sg35
g39
sg14
F21.246229390962981
sg16
g36
(g70
S'\x02\x00\x00\x00'
tRp125
sg42
g43
sg46
g47
sg15
g72
sg22
F23.782390610664152
sg64
g89
sg62
g74
sg49
g50
sS'trials.thisN'
p126
I4
sg19
I1
sg27
g36
(g38
S'\x00\x00\x00\x00\x00\x00\x18@'
tRp127
sg52
g53
sg23
S'2'
sg18
F22.48883979790844
sg33
g34
sg51
g11
sg20
S'2'
sg65
g36
(g77
S'\x00\x00\x00\x00\x00\x00\x00\x00'
tRp128
sg44
g45
sg40
g41
sg25
F0.38104626827407628
sS'trials.thisIndex'
p129
g36
(g80
S'G\x00\x00\x00'
tRp130
sg26
V5
sS'trials.thisRepN'
p131
I0
sg66
Vsaucepan
p132
sg63
V../experiment_stimuli/bw_bc_bl/Nonliving_Things/Kitchen_Uten/saucepan_12.jpg
p133
sg21
F1.2729922088328749
sS'trials.thisTrialN'
p134
I4
sa(dp135
g31
g32
sg17
F25.901719018002041
sg24
I1
sg35
g39
sg14
F25.896336734178476
sg16
g36
(g70
S'\x02\x00\x00\x00'
tRp136
sg42
g43
sg46
g47
sg15
g88
sg22
F28.32223920209799
sg64
VAnimals
p137
sg62
g102
sg49
g50
sS'trials.thisN'
p138
I5
sg19
I1
sg27
g36
(g38
S'\x00\x00\x00\x00\x00\x00\x18@'
tRp139
sg52
g53
sg23
S'1'
sg18
F27.128923374926671
sg33
g34
sg51
g11
sg20
S'2'
sg65
g36
(g77
S'\x00\x00\x00\x00\x00\x00\x00\x00'
tRp140
sg44
g45
sg40
g41
sg25
F0.40110922150779516
sS'trials.thisIndex'
p141
g36
(g80
S'(\x00\x00\x00'
tRp142
sg26
V5
sS'trials.thisRepN'
p143
I0
sg66
Vhorse
p144
sg63
V../experiment_stimuli/bw_bc_bl/Living_Things/Animals/horse_15.jpg
p145
sg21
F1.1720965710701421
sS'trials.thisTrialN'
p146
I5
sa(dp147
g31
g32
sg17
F30.461071691010147
sg24
I1
sg35
g39
sg14
F30.45625016617123
sg16
g36
(g70
S'\x02\x00\x00\x00'
tRp148
sg42
g43
sg46
g47
sg15
g88
sg22
F32.791958978399634
sg64
VMarine_creatures
p149
sg62
g102
sg49
g50
sS'trials.thisN'
p150
I6
sg19
I1
sg27
g36
(g38
S'\x00\x00\x00\x00\x00\x00\x1a@'
tRp151
sg52
g53
sg23
S'1'
sg18
F31.718896319856867
sg33
g34
sg51
g11
sg20
S'2'
sg65
g36
(g77
S'\x00\x00\x00\x00\x00\x00\x00\x00'
tRp152
sg44
g45
sg40
g41
sg25
F0.29085946606937796
sS'trials.thisIndex'
p153
g36
(g80
S'K\x00\x00\x00'
tRp154
sg26
V5
sS'trials.thisRepN'
p155
I0
sg66
Vshark
p156
sg63
V../experiment_stimuli/bw_bc_bl/Living_Things/Marine_creatures/shark_3.jpg
p157
sg21
F1.0525177047820762
sS'trials.thisTrialN'
p158
I6
sa(dp159
g31
g32
sg17
F34.820544662768953
sg24
I1
sg35
g39
sg14
F34.815729957306758
sg16
g36
(g70
S'\x02\x00\x00\x00'
tRp160
sg42
g43
sg46
g47
sg15
g88
sg22
F37.141451938776299
sg64
g149
sg62
g102
sg49
g50
sS'trials.thisN'
p161
I7
sg19
I1
sg27
g36
(g38
S'\x00\x00\x00\x00\x00\x00\x18@'
tRp162
sg52
g53
sg23
S'1'
sg18
F36.098415327724069
sg33
g34
sg51
g11
sg20
S'2'
sg65
g36
(g77
S'\x00\x00\x00\x00\x00\x00\x00\x00'
tRp163
sg44
g45
sg40
g41
sg25
F0.30087254068348557
sS'trials.thisIndex'
p164
g36
(g80
S'A\x00\x00\x00'
tRp165
sg26
V5
sS'trials.thisRepN'
p166
I0
sg66
Vpomfret
p167
sg63
V../experiment_stimuli/bw_bc_bl/Living_Things/Marine_creatures/pomfret_9.jpg
p168
sg21
F1.0224633868783712
sS'trials.thisTrialN'
p169
I7
sa(dp170
g31
g32
sg17
F39.180088242515922
sg24
I0
sg35
g39
sg14
F39.175194519222714
sg16
g36
(g70
S'\x01\x00\x00\x00'
tRp171
sg42
g43
sg46
g47
sg15
g72
sg22
F41.340543756261468
sg64
g114
sg62
g102
sg49
g50
sS'trials.thisN'
p172
I8
sg19
I1
sg27
g36
(g38
S'\x00\x00\x00\x00\x00\x00\x1a@'
tRp173
sg52
g53
sg23
S'2'
sg18
F40.477931493660435
sg33
g34
sg51
g11
sg20
S'1'
sg65
g36
(g77
S'\x00\x00\x00\x00\x00\x00\x00\x00'
tRp174
sg44
g45
sg40
g41
sg25
F0.3910942745860666
sS'trials.thisIndex'
p175
g36
(g80
S'<\x00\x00\x00'
tRp176
sg26
V5
sS'trials.thisRepN'
p177
I0
sg66
Vpelican
p178
sg63
V../experiment_stimuli/bw_bc_bl/Living_Things/Birds/pelican_8.jpg
p179
sg21
F0.84205357951577753
sS'trials.thisTrialN'
p180
I8
sa(dp181
g31
g32
sg17
F43.469306288054213
sg24
I0
sg35
g39
sg14
F43.464520262554288
sg16
g36
(g70
S'\x01\x00\x00\x00'
tRp182
sg42
g43
sg46
g47
sg15
g88
sg22
F45.509596233488992
sg64
g73
sg62
g74
sg49
g50
sS'trials.thisN'
p183
I9
sg19
I1
sg27
g36
(g38
S'\x00\x00\x00\x00\x00\x00\x1a@'
tRp184
sg52
g53
sg23
S'3'
sg18
F44.757235921802931
sg33
g34
sg51
g11
sg20
S'1'
sg65
g36
(g77
S'\x00\x00\x00\x00\x00\x00\x00\x00'
tRp185
sg44
g45
sg40
g41
sg25
F0.33093779068440199
sS'trials.thisIndex'
p186
g36
(g80
S'\x02\x00\x00\x00'
tRp187
sg26
V5
sS'trials.thisRepN'
p188
I0
sg66
Varmchair
p189
sg63
V../experiment_stimuli/bw_bc_bl/Nonliving_Things/Furniture/armchair_17.jpg
p190
sg21
F0.7318088652100414
sS'trials.thisTrialN'
p191
I9
sa(dp192
g31
g32
sg17
F47.579526525223628
sg24
I0
sg35
g39
sg14
F47.573448473005556
sg16
g36
(g70
S'\x02\x00\x00\x00'
tRp193
sg42
g43
sg46
g47
sg15
g72
sg22
F49.698705908260308
sg64
g73
sg62
g74
sg49
g50
sS'trials.thisN'
p194
I10
sg19
I1
sg27
g36
(g38
S'\x00\x00\x00\x00\x00\x00\x1e@'
tRp195
sg52
g53
sg23
S'3'
sg18
F48.846132456790656
sg33
g34
sg51
g11
sg20
S'2'
sg65
g36
(g77
S'\x00\x00\x00\x00\x00\x00\x00\x00'
tRp196
sg44
g45
sg40
g41
sg25
F0.36100134870503098
sS'trials.thisIndex'
p197
g36
(g80
S'\x0f\x00\x00\x00'
tRp198
sg26
V5
sS'trials.thisRepN'
p199
I0
sg66
Vchair
p200
sg63
V../experiment_stimuli/bw_bc_bl/Nonliving_Things/Furniture/chair_20.jpg
p201
sg21
F0.83203296724241227
sS'trials.thisTrialN'
p202
I10
sa(dp203
g31
g32
sg17
F51.797443798510358
sg24
I1
sg35
g39
sg14
F51.792629551724531
sg16
g36
(g70
S'\x02\x00\x00\x00'
tRp204
sg42
g43
sg46
g47
sg15
g72
sg22
F53.807649610796943
sg64
VBuildings
p205
sg62
g74
sg49
g50
sS'trials.thisN'
p206
I11
sg19
I1
sg27
g36
(g38
S'\x00\x00\x00\x00\x00\x00\x18@'
tRp207
sg52
g53
sg23
S'1'
sg18
F53.045250262483023
sg33
g34
sg51
g11
sg20
S'2'
sg65
g36
(g77
S'\x00\x00\x00\x00\x00\x00\x00\x00'
tRp208
sg44
g45
sg40
g41
sg25
F0.33078900305554271
sS'trials.thisIndex'
p209
g36
(g80
S'\x1c\x00\x00\x00'
tRp210
sg26
V5
sS'trials.thisRepN'
p211
I0
sg66
Vfactory
p212
sg63
V../experiment_stimuli/bw_bc_bl/Nonliving_Things/Buildings/factory_25.jpg
p213
sg21
F0.74183728953357786
sS'trials.thisTrialN'
p214
I11
sa(dp215
g31
g32
sg17
F55.877077131299302
sg24
I1
sg35
g39
sg14
F55.871492858044803
sg16
g36
(g70
S'\x01\x00\x00\x00'
tRp216
sg42
g43
sg46
g47
sg15
g88
sg22
F58.157129831030034
sg64
VVehicles
p217
sg62
g74
sg49
g50
sS'trials.thisN'
p218
I12
sg19
I0
sg27
g36
(g38
S'\x00\x00\x00\x00\x00\x00\x1e@'
tRp219
sg52
g53
sg23
S'1'
sg18
F57.144166435929947
sg33
g34
sg51
g11
sg20
S'2'
sg65
g36
(g77
S'\x00\x00\x00\x00\x00\x00\x00\x00'
tRp220
sg44
g45
sg40
g41
sg25
F0.32091461459640414
sS'trials.thisIndex'
p221
g36
(g80
S'@\x00\x00\x00'
tRp222
sg26
V5
sS'trials.thisRepN'
p223
I0
sg66
Vplane
p224
sg63
V../experiment_stimuli/bw_bc_bl/Nonliving_Things/Vehicles/plane_14.jpg
p225
sg21
F0.99239675735589117
sS'trials.thisTrialN'
p226
I12
sa(dp227
g31
g32
sg17
F60.21608964423649
sg24
I0
sg35
g39
sg14
F60.210926590370946
sg16
g36
(g70
S'\x02\x00\x00\x00'
tRp228
sg42
g43
sg46
g47
sg15
g72
sg22
F62.62666300451383
sg64
g73
sg62
g74
sg49
g50
sS'trials.thisN'
p229
I13
sg19
I1
sg27
g36
(g38
S'\x00\x00\x00\x00\x00\x00\x1e@'
tRp230
sg52
g53
sg23
S'3'
sg18
F61.503637493937276
sg33
g34
sg51
g11
sg20
S'2'
sg65
g36
(g77
S'\x00\x00\x00\x00\x00\x00\x00\x00'
tRp231
sg44
g45
sg40
g41
sg25
F0.33094215509481728
sS'trials.thisIndex'
p232
g36
(g80
S'E\x00\x00\x00'
tRp233
sg26
V5
sS'trials.thisRepN'
p234
I0
sg66
Vrocking-chair
p235
sg63
V../experiment_stimuli/bw_bc_bl/Nonliving_Things/Furniture/rocking-chair_26.jpg
p236
sg21
F1.1024562411475927
sS'trials.thisTrialN'
p237
I13
sa(dp238
g31
g32
sg17
F64.695551506592892
sg24
I1
sg35
g39
sg14
F64.690667817136273
sg16
g36
(g70
S'\x01\x00\x00\x00'
tRp239
sg42
g43
sg46
g47
sg15
g72
sg22
F66.635542087489739
sg64
g137
sg62
g102
sg49
g50
sS'trials.thisN'
p240
I14
sg19
I1
sg27
g36
(g38
S'\x00\x00\x00\x00\x00\x00\x1a@'
tRp241
sg52
g53
sg23
S'1'
sg18
F65.95330755377654
sg33
g34
sg51
g11
sg20
S'1'
sg65
g36
(g77
S'\x00\x00\x00\x00\x00\x00\x00\x00'
tRp242
sg44
g45
sg40
g41
sg25
F0.34095719584729522
sS'trials.thisIndex'
p243
g36
(g80
S'D\x00\x00\x00'
tRp244
sg26
V5
sS'trials.thisRepN'
p245
I0
sg66
Vrhino
p246
sg63
V../experiment_stimuli/bw_bc_bl/Living_Things/Animals/rhino_26.jpg
p247
sg21
F0.66168236942030489
sS'trials.thisTrialN'
p248
I14
sa(dp249
g31
g32
sg17
F68.714309312752448
sg24
I0
sg35
g39
sg14
F68.70939877408091
sg16
g36
(g70
S'\x01\x00\x00\x00'
tRp250
sg42
g43
sg46
g47
sg15
g88
sg22
F71.025061561260372
sg64
g217
sg62
g74
sg49
g50
sS'trials.thisN'
p251
I15
sg19
I1
sg27
g36
(g38
S'\x00\x00\x00\x00\x00\x00\x18@'
tRp252
sg52
g53
sg23
S'2'
sg18
F69.992086994112469
sg33
g34
sg51
g11
sg20
S'1'
sg65
g36
(g77
S'\x00\x00\x00\x00\x00\x00\x00\x00'
tRp253
sg44
g45
sg40
g41
sg25
F0.31090247223619372
sS'trials.thisIndex'
p254
g36
(g80
S'6\x00\x00\x00'
tRp255
sg26
V5
sS'trials.thisRepN'
p256
I0
sg66
Vmotorbike
p257
sg63
V../experiment_stimuli/bw_bc_bl/Nonliving_Things/Vehicles/motorbike_13.jpg
p258
sg21
F1.0124259556178004
sS'trials.thisTrialN'
p259
I15
sa(dp260
g31
g32
sg17
F73.073828129912727
sg24
I1
sg35
g39
sg14
F73.068871854688041
sg16
g36
(g70
S'\x01\x00\x00\x00'
tRp261
sg42
g43
sg46
g47
sg15
g72
sg22
F75.023742857971229
sg64
g114
sg62
g102
sg49
g50
sS'trials.thisN'
p262
I16
sg19
I0
sg27
g36
(g38
S'\x00\x00\x00\x00\x00\x00\x18@'
tRp263
sg52
g53
sg23
S'1'
sg18
F74.341548195923679
sg33
g34
sg51
g11
sg20
S'2'
sg65
g36
(g77
S'\x00\x00\x00\x00\x00\x00\x00\x00'
tRp264
sg44
g45
sg40
g41
sg25
F0.29084657900966704
sS'trials.thisIndex'
p265
g36
(g80
S'C\x00\x00\x00'
tRp266
sg26
V5
sS'trials.thisRepN'
p267
I0
sg66
Vraven
p268
sg63
V../experiment_stimuli/bw_bc_bl/Living_Things/Birds/raven_19.jpg
p269
sg21
F0.66166063293348998
sS'trials.thisTrialN'
p270
I16
sa(dp271
g31
g32
sg17
F77.053115264396183
sg24
I1
sg35
g39
sg14
F77.047531389514916
sg16
g36
(g70
S'\x01\x00\x00\x00'
tRp272
sg42
g43
sg46
g47
sg15
g72
sg22
F79.032329182256944
sg64
g114
sg62
g102
sg49
g50
sS'trials.thisN'
p273
I17
sg19
I1
sg27
g36
(g38
S'\x00\x00\x00\x00\x00\x00\x18@'
tRp274
sg52
g53
sg23
S'1'
sg18
F78.340232909657061
sg33
g34
sg51
g11
sg20
S'1'
sg65
g36
(g77
S'\x00\x00\x00\x00\x00\x00\x00\x00'
tRp275
sg44
g45
sg40
g41
sg25
F0.30087885237298906
sS'trials.thisIndex'
p276
g36
(g80
S'F\x00\x00\x00'
tRp277
sg26
V5
sS'trials.thisRepN'
p278
I0
sg66
Vrooster
p279
sg63
V../experiment_stimuli/bw_bc_bl/Living_Things/Birds/rooster_6.jpg
p280
sg21
F0.6715239241020754
sS'trials.thisTrialN'
p281
I17
sa(dp282
g31
g32
sg17
F81.071105637936853
sg24
I0
sg35
g39
sg14
F81.066252805176191
sg16
g36
(g70
S'\x02\x00\x00\x00'
tRp283
sg42
g43
sg46
g47
sg15
g72
sg22
F83.061227380647324
sg64
g217
sg62
g74
sg49
g50
sS'trials.thisN'
p284
I18
sg19
I1
sg27
g36
(g38
S'\x00\x00\x00\x00\x00\x00\x1a@'
tRp285
sg52
g53
sg23
S'3'
sg18
F82.389033770770766
sg33
g34
sg51
g11
sg20
S'2'
sg65
g36
(g77
S'\x00\x00\x00\x00\x00\x00\x00\x00'
tRp286
sg44
g45
sg40
g41
sg25
F0.34097339131403714
sS'trials.thisIndex'
p287
g36
(g80
S'\t\x00\x00\x00'
tRp288
sg26
V5
sS'trials.thisRepN'
p289
I0
sg66
Vbus
p290
sg63
V../experiment_stimuli/bw_bc_bl/Nonliving_Things/Vehicles/bus_16.jpg
p291
sg21
F0.65163578779902309
sS'trials.thisTrialN'
p292
I18
sa(dp293
g31
g32
sg17
F85.140149051207118
sg24
I0
sg35
g39
sg14
F85.135101487976499
sg16
g36
(g70
S'\x01\x00\x00\x00'
tRp294
sg42
g43
sg46
g47
sg15
g72
sg22
F87.029887280194089
sg64
g137
sg62
g102
sg49
g50
sS'trials.thisN'
p295
I19
sg19
I1
sg27
g36
(g38
S'\x00\x00\x00\x00\x00\x00\x1e@'
tRp296
sg52
g53
sg23
S'2'
sg18
F86.427816271199845
sg33
g34
sg51
g11
sg20
S'1'
sg65
g36
(g77
S'\x00\x00\x00\x00\x00\x00\x00\x00'
tRp297
sg44
g45
sg40
g41
sg25
F0.29084565781522542
sS'trials.thisIndex'
p298
g36
(g80
S'\x10\x00\x00\x00'
tRp299
sg26
V5
sS'trials.thisRepN'
p300
I0
sg66
Vcheetah
p301
sg63
V../experiment_stimuli/bw_bc_bl/Living_Things/Animals/cheetah_22.jpg
p302
sg21
F0.58150402538012713
sS'trials.thisTrialN'
p303
I19
sa(dp304
g31
g32
sg17
F89.059305918985046
sg24
I0
sg35
g39
sg14
F89.053621594444849
sg16
g36
(g70
S'\x02\x00\x00\x00'
tRp305
sg42
g43
sg46
g47
sg15
g88
sg22
F91.449460947653279
sg64
g114
sg62
g102
sg49
g50
sS'trials.thisN'
p306
I20
sg19
I1
sg27
g36
(g38
S'\x00\x00\x00\x00\x00\x00\x18@'
tRp307
sg52
g53
sg23
S'2'
sg18
F90.336312874569558
sg33
g34
sg51
g11
sg20
S'2'
sg65
g36
(g77
S'\x00\x00\x00\x00\x00\x00\x00\x00'
tRp308
sg44
g45
sg40
g41
sg25
F0.35098099603783339
sS'trials.thisIndex'
p309
g36
(g80
S';\x00\x00\x00'
tRp310
sg26
V5
sS'trials.thisRepN'
p311
I0
sg66
Vpartridge
p312
sg63
V../experiment_stimuli/bw_bc_bl/Living_Things/Birds/partridge_22.jpg
p313
sg21
F1.0926009162794799
sS'trials.thisTrialN'
p314
I20
sa(dp315
g31
g32
sg17
F93.538912971154787
sg24
I0
sg35
g39
sg14
F93.533365726936609
sg16
g36
(g70
S'\x02\x00\x00\x00'
tRp316
sg42
g43
sg46
g47
sg15
g72
sg22
F95.91919567855075
sg64
g89
sg62
g74
sg49
g50
sS'trials.thisN'
p317
I21
sg19
I1
sg27
g36
(g38
S'\x00\x00\x00\x00\x00\x00\x18@'
tRp318
sg52
g53
sg23
S'2'
sg18
F94.806032203603536
sg33
g34
sg51
g11
sg20
S'2'
sg65
g36
(g77
S'\x00\x00\x00\x00\x00\x00\x00\x00'
tRp319
sg44
g45
sg40
g41
sg25
F0.32092523097526282
sS'trials.thisIndex'
p320
g36
(g80
S'\x16\x00\x00\x00'
tRp321
sg26
V5
sS'trials.thisRepN'
p322
I0
sg66
Vcup
p323
sg63
V../experiment_stimuli/bw_bc_bl/Nonliving_Things/Kitchen_Uten/cup_1.jpg
p324
sg21
F1.0926043897634372
sS'trials.thisTrialN'
p325
I21
sa(dp326
g31
g32
sg17
F97.978143492364325
sg24
I0
sg35
g39
sg14
F97.973017753451131
sg16
g36
(g70
S'\x02\x00\x00\x00'
tRp327
sg42
g43
sg46
g47
sg15
g72
sg22
F100.00805363117252
sg64
VMusical_Inst
p328
sg62
g74
sg49
g50
sS'trials.thisN'
p329
I22
sg19
I1
sg27
g36
(g38
S'\x00\x00\x00\x00\x00\x00 @'
tRp330
sg52
g53
sg23
S'3'
sg18
F99.235661591752432
sg33
g34
sg51
g11
sg20
S'2'
sg65
g36
(g77
S'\x00\x00\x00\x00\x00\x00\x00\x00'
tRp331
sg44
g45
sg40
g41
sg25
F0.39106647053267807
sS'trials.thisIndex'
p332
g36
(g80
S'Y\x00\x00\x00'
tRp333
sg26
V5
sS'trials.thisRepN'
p334
I0
sg66
Vtuba
p335
sg63
V../experiment_stimuli/bw_bc_bl/Nonliving_Things/Musical_Inst/tuba_11.jpg
p336
sg21
F0.75185915711335838
sS'trials.thisTrialN'
p337
I22
sa(dp338
g31
g32
sg17
F102.13701858115382
sg24
I1
sg35
g39
sg14
F102.13204964087345
sg16
g36
(g70
S'\x01\x00\x00\x00'
tRp339
sg42
g43
sg46
g47
sg15
g72
sg22
F104.21724408993032
sg64
g137
sg62
g102
sg49
g50
sS'trials.thisN'
p340
I23
sg19
I0
sg27
g36
(g38
S'\x00\x00\x00\x00\x00\x00\x18@'
tRp341
sg52
g53
sg23
S'1'
sg18
F103.36463137192186
sg33
g34
sg51
g11
sg20
S'2'
sg65
g36
(g77
S'\x00\x00\x00\x00\x00\x00\x00\x00'
tRp342
sg44
g45
sg40
g41
sg25
F0.3009581072255969
sS'trials.thisIndex'
p343
g36
(g80
S'T\x00\x00\x00'
tRp344
sg26
V5
sS'trials.thisRepN'
p345
I0
sg66
Vtiger
p346
sg63
V../experiment_stimuli/bw_bc_bl/Living_Things/Animals/tiger_5.jpg
p347
sg21
F0.832036760635674
sS'trials.thisTrialN'
p348
I23
sa(dp349
g31
g32
sg17
F106.25673496047966
sg24
I0
sg35
g39
sg14
F106.25100576039404
sg16
g36
(g70
S'\x01\x00\x00\x00'
tRp350
sg42
g43
sg46
g47
sg15
g88
sg22
F108.24603506433778
sg64
g328
sg62
g74
sg49
g50
sS'trials.thisN'
p351
I24
sg19
I1
sg27
g36
(g38
S'\x00\x00\x00\x00\x00\x00\x1a@'
tRp352
sg52
g53
sg23
S'3'
sg18
F107.51365267741494
sg33
g34
sg51
g11
sg20
S'1'
sg65
g36
(g77
S'\x00\x00\x00\x00\x00\x00\x00\x00'
tRp353
sg44
g45
sg40
g41
sg25
F0.34095894393976778
sS'trials.thisIndex'
p354
g36
(g80
S'$\x00\x00\x00'
tRp355
sg26
V5
sS'trials.thisRepN'
p356
I0
sg66
Vguitar
p357
sg63
V../experiment_stimuli/bw_bc_bl/Nonliving_Things/Musical_Inst/guitar_8.jpg
p358
sg21
F0.71179343003313988
sS'trials.thisTrialN'
p359
I24
sa(dp360
g31
g32
sg17
F110.32468694180716
sg24
I1
sg35
g39
sg14
F110.31985284527764
sg16
g36
(g70
S'\x01\x00\x00\x00'
tRp361
sg42
g43
sg46
g47
sg15
g72
sg22
F112.19458611297887
sg64
g137
sg62
g102
sg49
g50
sS'trials.thisN'
p362
I25
sg19
I1
sg27
g36
(g38
S'\x00\x00\x00\x00\x00\x00\x1a@'
tRp363
sg52
g53
sg23
S'1'
sg18
F111.56245468847919
sg33
g34
sg51
g11
sg20
S'1'
sg65
g36
(g77
S'\x00\x00\x00\x00\x00\x00\x00\x00'
tRp364
sg44
g45
sg40
g41
sg25
F0.36099781095981598
sS'trials.thisIndex'
p365
g36
(g80
S'\x1b\x00\x00\x00'
tRp366
sg26
V5
sS'trials.thisRepN'
p367
I0
sg66
Velephant
p368
sg63
V../experiment_stimuli/bw_bc_bl/Living_Things/Animals/elephant_7.jpg
p369
sg21
F0.61157862120307982
sS'trials.thisTrialN'
p370
I25
sa(dp371
g31
g32
sg17
F114.29432585742325
sg24
I1
sg35
g39
sg14
F114.28848044469487
sg16
g36
(g70
S'\x01\x00\x00\x00'
tRp372
sg42
g43
sg46
g47
sg15
g72
sg22
F116.63423156819772
sg64
g137
sg62
g102
sg49
g50
sS'trials.thisN'
p373
I26
sg19
I1
sg27
g36
(g38
S'\x00\x00\x00\x00\x00\x00\x1a@'
tRp374
sg52
g53
sg23
S'1'
sg18
F115.5611523122061
sg33
g34
sg51
g11
sg20
S'1'
sg65
g36
(g77
S'\x00\x00\x00\x00\x00\x00\x00\x00'
tRp375
sg44
g45
sg40
g41
sg25
F0.36099995765835047
sS'trials.thisIndex'
p376
g36
(g80
S'_\x00\x00\x00'
tRp377
sg26
V5
sS'trials.thisRepN'
p378
I0
sg66
Vzebra
p379
sg63
V../experiment_stimuli/bw_bc_bl/Living_Things/Animals/zebra_26.jpg
p380
sg21
F1.0425086825853214
sS'trials.thisTrialN'
p381
I26
sa(dp382
g31
g32
sg17
F118.7330683330074
sg24
I0
sg35
g39
sg14
F118.72813105012756
sg16
g36
(g70
S'\x02\x00\x00\x00'
tRp383
sg42
g43
sg46
g47
sg15
g72
sg22
F120.79325589176733
sg64
g205
sg62
g74
sg49
g50
sS'trials.thisN'
p384
I27
sg19
I1
sg27
g36
(g38
S'\x00\x00\x00\x00\x00\x00\x1a@'
tRp385
sg52
g53
sg23
S'3'
sg18
F120.03086391929537
sg33
g34
sg51
g11
sg20
S'2'
sg65
g36
(g77
S'\x00\x00\x00\x00\x00\x00\x00\x00'
tRp386
sg44
g45
sg40
g41
sg25
F0.32093248644378036
sS'trials.thisIndex'
p387
g36
(g80
S')\x00\x00\x00'
tRp388
sg26
V5
sS'trials.thisRepN'
p389
I0
sg66
Vhouse
p390
sg63
V../experiment_stimuli/bw_bc_bl/Nonliving_Things/Buildings/house_11.jpg
p391
sg21
F0.74183394364081323
sS'trials.thisTrialN'
p392
I27
sa(dp393
g31
g32
sg17
F122.85192905901931
sg24
I0
sg35
g39
sg14
F122.84709024080075
sg16
g36
(g70
S'\x02\x00\x00\x00'
tRp394
sg42
g43
sg46
g47
sg15
g88
sg22
F125.02244879701175
sg64
g137
sg62
g102
sg49
g50
sS'trials.thisN'
p395
I28
sg19
I1
sg27
g36
(g38
S'\x00\x00\x00\x00\x00\x00\x18@'
tRp396
sg52
g53
sg23
S'2'
sg18
F124.1197514393134
sg33
g34
sg51
g11
sg20
S'2'
sg65
g36
(g77
S'\x00\x00\x00\x00\x00\x00\x00\x00'
tRp397
sg44
g45
sg40
g41
sg25
F0.69171598472166806
sS'trials.thisIndex'
p398
g36
(g80
S'0\x00\x00\x00'
tRp399
sg26
V5
sS'trials.thisRepN'
p400
I0
sg66
Vlioness
p401
sg63
V../experiment_stimuli/bw_bc_bl/Living_Things/Animals/lioness_10.jpg
p402
sg21
F0.88213964097667485
sS'trials.thisTrialN'
p403
I28
sa(dp404
g31
g32
sg17
F127.45199470536318
sg24
I1
sg35
g39
sg14
F127.44708069274202
sg16
g36
(g70
S'\x02\x00\x00\x00'
tRp405
sg42
g43
sg46
g47
sg15
g88
sg22
F129.76277031807695
sg64
g149
sg62
g102
sg49
g50
sS'trials.thisN'
p406
I29
sg19
I0
sg27
g36
(g38
S'\x00\x00\x00\x00\x00\x00\x1e@'
tRp407
sg52
g53
sg23
S'1'
sg18
F128.70972765877377
sg33
g34
sg51
g11
sg20
S'1'
sg65
g36
(g77
S'\x00\x00\x00\x00\x00\x00\x00\x00'
tRp408
sg44
g45
sg40
g41
sg25
F0.40108725579921156
sS'trials.thisIndex'
p409
g36
(g80
S'\x17\x00\x00\x00'
tRp410
sg26
V5
sS'trials.thisRepN'
p411
I0
sg66
Vdolphin
p412
sg63
V../experiment_stimuli/bw_bc_bl/Living_Things/Marine_creatures/dolphin_25.jpg
p413
sg21
F1.0324713787995279
sS'trials.thisTrialN'
p414
I29
sa(dp415
g31
g32
sg17
F131.90178412408568
sg24
I1
sg35
g39
sg14
F131.89675073756371
sg16
g36
(g70
S'\x02\x00\x00\x00'
tRp416
sg42
g43
sg46
g47
sg15
g88
sg22
F134.87387495022267
sg64
g114
sg62
g102
sg49
g50
sS'trials.thisN'
p417
I30
sg19
I0
sg27
g36
(g38
S'\x00\x00\x00\x00\x00\x00\x18@'
tRp418
sg52
g53
sg23
S'1'
sg18
F133.17944534099661
sg33
g34
sg51
g11
sg20
S'1'
sg65
g36
(g77
S'\x00\x00\x00\x00\x00\x00\x00\x00'
tRp419
sg44
g45
sg40
g41
sg25
F0.51134123327210546
sS'trials.thisIndex'
p420
g36
(g80
S'!\x00\x00\x00'
tRp421
sg26
V5
sS'trials.thisRepN'
p422
I0
sg66
Vgoldfinch
p423
sg63
V../experiment_stimuli/bw_bc_bl/Living_Things/Birds/goldfinch_3.jpg
p424
sg21
F1.6738687645411119
sS'trials.thisTrialN'
p425
I30
sa(dp426
g31
g32
sg17
F137.12398881535046
sg24
I0
sg35
g39
sg14
F137.11810124164913
sg16
g36
(g70
S'\x02\x00\x00\x00'
tRp427
sg42
g43
sg46
g47
sg15
g72
sg22
F139.52398702630308
sg64
g73
sg62
g74
sg49
g50
sS'trials.thisN'
p428
I31
sg19
I1
sg27
g36
(g38
S'\x00\x00\x00\x00\x00\x00\x1a@'
tRp429
sg52
g53
sg23
S'3'
sg18
F138.410815878422
sg33
g34
sg51
g11
sg20
S'2'
sg65
g36
(g77
S'\x00\x00\x00\x00\x00\x00\x00\x00'
tRp430
sg44
g45
sg40
g41
sg25
F0.53139006637502462
sS'trials.thisIndex'
p431
g36
(g80
S'\x08\x00\x00\x00'
tRp432
sg26
V5
sS'trials.thisRepN'
p433
I0
sg66
Vbookcase
p434
sg63
V../experiment_stimuli/bw_bc_bl/Nonliving_Things/Furniture/bookcase_20.jpg
p435
sg21
F1.0926162995165214
sS'trials.thisTrialN'
p436
I31
sa(dp437
g31
g32
sg17
F141.79408824827988
sg24
I0
sg35
g39
sg14
F141.78825949330349
sg16
g36
(g70
S'\x02\x00\x00\x00'
tRp438
sg42
g43
sg46
g47
sg15
g72
sg22
F143.59281558159273
sg64
g205
sg62
g74
sg49
g50
sS'trials.thisN'
p439
I32
sg19
I1
sg27
g36
(g38
S'\x00\x00\x00\x00\x00\x00\x18@'
tRp440
sg52
g53
sg23
S'3'
sg18
F143.05090015474707
sg33
g34
sg51
g11
sg20
S'2'
sg65
g36
(g77
S'\x00\x00\x00\x00\x00\x00\x00\x00'
tRp441
sg44
g45
sg40
g41
sg25
F0.330937166698277
sS'trials.thisIndex'
p442
g36
(g80
S'\x11\x00\x00\x00'
tRp443
sg26
V5
sS'trials.thisRepN'
p444
I0
sg66
Vchurch
p445
sg63
V../experiment_stimuli/bw_bc_bl/Nonliving_Things/Buildings/church_24.jpg
p446
sg21
F0.52135315001942217
sS'trials.thisTrialN'
p447
I32
sa(dp448
g31
g32
sg17
F145.66156268725172
sg24
I1
sg35
g39
sg14
F145.65667088120244
sg16
g36
(g70
S'\x02\x00\x00\x00'
tRp449
sg42
g43
sg46
g47
sg15
g72
sg22
F147.42097516253125
sg64
g217
sg62
g74
sg49
g50
sS'trials.thisN'
p450
I33
sg19
I1
sg27
g36
(g38
S'\x00\x00\x00\x00\x00\x00\x18@'
tRp451
sg52
g53
sg23
S'1'
sg18
F146.89926481863949
sg33
g34
sg51
g11
sg20
S'2'
sg65
g36
(g77
S'\x00\x00\x00\x00\x00\x00\x00\x00'
tRp452
sg44
g45
sg40
g41
sg25
F0.33094597852323204
sS'trials.thisIndex'
p453
g36
(g80
S'W\x00\x00\x00'
tRp454
sg26
V5
sS'trials.thisRepN'
p455
I0
sg66
Vtrain
p456
sg63
V../experiment_stimuli/bw_bc_bl/Nonliving_Things/Vehicles/train_19.jpg
p457
sg21
F0.5011574428062886
sS'trials.thisTrialN'
p458
I33
sa(dp459
g31
g32
sg17
F149.49089411995374
sg24
I0
sg35
g39
sg14
F149.48498418577947
sg16
g36
(g70
S'\x02\x00\x00\x00'
tRp460
sg42
g43
sg46
g47
sg15
g72
sg22
F151.39976829302032
sg64
g217
sg62
g74
sg49
g50
sS'trials.thisN'
p461
I34
sg19
I1
sg27
g36
(g38
S'\x00\x00\x00\x00\x00\x00\x18@'
tRp462
sg52
g53
sg23
S'3'
sg18
F150.74764215876348
sg33
g34
sg51
g11
sg20
S'2'
sg65
g36
(g77
S'\x00\x00\x00\x00\x00\x00\x00\x00'
tRp463
sg44
g45
sg40
g41
sg25
F0.32092752412427217
sS'trials.thisIndex'
p464
g36
(g80
S'\x0b\x00\x00\x00'
tRp465
sg26
V5
sS'trials.thisRepN'
p466
I0
sg66
Vcar
p467
sg63
V../experiment_stimuli/bw_bc_bl/Nonliving_Things/Vehicles/car_0.jpg
p468
sg21
F0.63159343576990068
sS'trials.thisTrialN'
p469
I34
sa(dp470
g31
g32
sg17
F153.45856595854275
sg24
I1
sg35
g39
sg14
F153.45361271733418
sg16
g36
(g70
S'\x01\x00\x00\x00'
tRp471
sg42
g43
sg46
g47
sg15
g72
sg22
F155.58889461413492
sg64
g114
sg62
g102
sg49
g50
sS'trials.thisN'
p472
I35
sg19
I1
sg27
g36
(g38
S'\x00\x00\x00\x00\x00\x00\x18@'
tRp473
sg52
g53
sg23
S'1'
sg18
F154.69621796649881
sg33
g34
sg51
g11
sg20
S'1'
sg65
g36
(g77
S'\x00\x00\x00\x00\x00\x00\x00\x00'
tRp474
sg44
g45
sg40
g41
sg25
F0.35097670636605471
sS'trials.thisIndex'
p475
g36
(g80
S'=\x00\x00\x00'
tRp476
sg26
V5
sS'trials.thisRepN'
p477
I0
sg66
Vpenguin
p478
sg63
V../experiment_stimuli/bw_bc_bl/Living_Things/Birds/penguin_12.jpg
p479
sg21
F0.87211478815879673
sS'trials.thisTrialN'
p480
I35
sa(dp481
g31
g32
sg17
F157.67770593613386
sg24
I1
sg35
g39
sg14
F157.67281160026323
sg16
g36
(g70
S'\x02\x00\x00\x00'
tRp482
sg42
g43
sg46
g47
sg15
g72
sg22
F160.22901192400604
sg64
g73
sg62
g74
sg49
g50
sS'trials.thisN'
p483
I36
sg19
I0
sg27
g36
(g38
S'\x00\x00\x00\x00\x00\x00\x1c@'
tRp484
sg52
g53
sg23
S'1'
sg18
F158.92540648439899
sg33
g34
sg51
g11
sg20
S'1'
sg65
g36
(g77
S'\x00\x00\x00\x00\x00\x00\x00\x00'
tRp485
sg44
g45
sg40
g41
sg25
F0.39092780742794275
sS'trials.thisIndex'
p486
g36
(g80
S'\x05\x00\x00\x00'
tRp487
sg26
V5
sS'trials.thisRepN'
p488
I0
sg66
Vbed
p489
sg63
V../experiment_stimuli/bw_bc_bl/Nonliving_Things/Furniture/bed_16.jpg
p490
sg21
F1.2830171178793535
sS'trials.thisTrialN'
p491
I36
sa(dp492
g31
g32
sg17
F162.36002661508974
sg24
I1
sg35
g39
sg14
F162.35295997944195
sg16
g36
(g70
S'\x01\x00\x00\x00'
tRp493
sg42
g43
sg46
g47
sg15
g72
sg22
F164.53835630533285
sg64
g137
sg62
g102
sg49
g50
sS'trials.thisN'
p494
I37
sg19
I1
sg27
g36
(g38
S'\x00\x00\x00\x00\x00\x00 @'
tRp495
sg52
g53
sg23
S'1'
sg18
F163.6156073511811
sg33
g34
sg51
g11
sg20
S'1'
sg65
g36
(g77
S'\x00\x00\x00\x00\x00\x00\x00\x00'
tRp496
sg44
g45
sg40
g41
sg25
F0.3409684665966779
sS'trials.thisIndex'
p497
g36
(g80
S' \x00\x00\x00'
tRp498
sg26
V5
sS'trials.thisRepN'
p499
I0
sg66
Vgiraffe
p500
sg63
V../experiment_stimuli/bw_bc_bl/Living_Things/Animals/giraffe_20.jpg
p501
sg21
F0.90218377509154379
sS'trials.thisTrialN'
p502
I37
sa(dp503
g31
g32
sg17
F166.61803775816225
sg24
I0
sg35
g39
sg14
F166.6122218411183
sg16
g36
(g70
S'\x01\x00\x00\x00'
tRp504
sg42
g43
sg46
g47
sg15
g72
sg22
F168.55708656669594
sg64
g149
sg62
g102
sg49
g50
sS'trials.thisN'
p505
I38
sg19
I1
sg27
g36
(g38
S'\x00\x00\x00\x00\x00\x00\x1a@'
tRp506
sg52
g53
sg23
S'3'
sg18
F167.89491029060446
sg33
g34
sg51
g11
sg20
S'1'
sg65
g36
(g77
S'\x00\x00\x00\x00\x00\x00\x00\x00'
tRp507
sg44
g45
sg40
g41
sg25
F0.29084781592246145
sS'trials.thisIndex'
p508
g36
(g80
S'\x15\x00\x00\x00'
tRp509
sg26
V5
sS'trials.thisRepN'
p510
I0
sg66
Vcrab
p511
sg63
V../experiment_stimuli/bw_bc_bl/Living_Things/Marine_creatures/crab_15.jpg
p512
sg21
F0.64161447633523494
sS'trials.thisTrialN'
p513
I38
sa(dp514
g31
g32
sg17
F170.58583217742853
sg24
I0
sg35
g39
sg14
F170.58085603069048
sg16
g36
(g70
S'\x01\x00\x00\x00'
tRp515
sg42
g43
sg46
g47
sg15
g72
sg22
F172.30522273725364
sg64
g114
sg62
g102
sg49
g50
sS'trials.thisN'
p516
I39
sg19
I1
sg27
g36
(g38
S'\x00\x00\x00\x00\x00\x00\x1e@'
tRp517
sg52
g53
sg23
S'2'
sg18
F171.8334704634035
sg33
g34
sg51
g11
sg20
S'1'
sg65
g36
(g77
S'\x00\x00\x00\x00\x00\x00\x00\x00'
tRp518
sg44
g45
sg40
g41
sg25
F0.34097193239722401
sS'trials.thisIndex'
p519
g36
(g80
S'J\x00\x00\x00'
tRp520
sg26
V5
sS'trials.thisRepN'
p521
I0
sg66
Vseagull
p522
sg63
V../experiment_stimuli/bw_bc_bl/Living_Things/Birds/seagull_21.jpg
p523
sg21
F0.4512116847326979
sS'trials.thisTrialN'
p524
I39
sa(dp525
g31
g32
sg17
F174.38393510261085
sg24
I1
sg35
g39
sg14
F174.37909708137158
sg16
g36
(g70
S'\x02\x00\x00\x00'
tRp526
sg42
g43
sg46
g47
sg15
g72
sg22
F176.40414805337787
sg64
g205
sg62
g74
sg49
g50
sS'trials.thisN'
p527
I40
sg19
I1
sg27
g36
(g38
S'\x00\x00\x00\x00\x00\x00\x1a@'
tRp528
sg52
g53
sg23
S'1'
sg18
F175.62171135284007
sg33
g34
sg51
g11
sg20
S'2'
sg65
g36
(g77
S'\x00\x00\x00\x00\x00\x00\x00\x00'
tRp529
sg44
g45
sg40
g41
sg25
F0.35098249220754951
sS'trials.thisIndex'
p530
g36
(g80
S':\x00\x00\x00'
tRp531
sg26
V5
sS'trials.thisRepN'
p532
I0
sg66
Vpalace
p533
sg63
V../experiment_stimuli/bw_bc_bl/Nonliving_Things/Buildings/palace_21.jpg
p534
sg21
F0.76187899091746658
sS'trials.thisTrialN'
p535
I40
sa(dp536
g31
g32
sg17
F178.49379049497657
sg24
I1
sg35
g39
sg14
F178.48803424660582
sg16
g36
(g70
S'\x01\x00\x00\x00'
tRp537
sg42
g43
sg46
g47
sg15
g72
sg22
F181.13547455286607
sg64
g149
sg62
g102
sg49
g50
sS'trials.thisN'
p538
I41
sg19
I0
sg27
g36
(g38
S'\x00\x00\x00\x00\x00\x00 @'
tRp539
sg52
g53
sg23
S'1'
sg18
F179.75068106944673
sg33
g34
sg51
g11
sg20
S'2'
sg65
g36
(g77
S'\x00\x00\x00\x00\x00\x00\x00\x00'
tRp540
sg44
g45
sg40
g41
sg25
F0.35098313132766634
sS'trials.thisIndex'
p541
g36
(g80
S'+\x00\x00\x00'
tRp542
sg26
V5
sS'trials.thisRepN'
p543
I0
sg66
Vkiller-whale
p544
sg63
V../experiment_stimuli/bw_bc_bl/Living_Things/Marine_creatures/killer-whale_23.jpg
p545
sg21
F1.3631982854567468
sS'trials.thisTrialN'
p546
I41
sa(dp547
g31
g32
sg17
F183.22307339997496
sg24
I0
sg35
g39
sg14
F183.2183223963948
sg16
g36
(g70
S'\x02\x00\x00\x00'
tRp548
sg42
g43
sg46
g47
sg15
g72
sg22
F185.51377511967439
sg64
g73
sg62
g74
sg49
g50
sS'trials.thisN'
p549
I42
sg19
I1
sg27
g36
(g38
S'\x00\x00\x00\x00\x00\x00\x18@'
tRp550
sg52
g53
sg23
S'2'
sg18
F184.49098891031463
sg33
g34
sg51
g11
sg20
S'2'
sg65
g36
(g77
S'\x00\x00\x00\x00\x00\x00\x00\x00'
tRp551
sg44
g45
sg40
g41
sg25
F0.33093932445626706
sS'trials.thisIndex'
p552
g36
(g80
S'\x1d\x00\x00\x00'
tRp553
sg26
V5
sS'trials.thisRepN'
p554
I0
sg66
Vfilling-cabinet
p555
sg63
V../experiment_stimuli/bw_bc_bl/Nonliving_Things/Furniture/filling-cabinet_5.jpg
p556
sg21
F1.0022448945092037
sS'trials.thisTrialN'
p557
I42
sa(dp558
g31
g32
sg17
F187.58256992022507
sg24
I1
sg35
g39
sg14
F187.57779322890565
sg16
g36
(g70
S'\x01\x00\x00\x00'
tRp559
sg42
g43
sg46
g47
sg15
g72
sg22
F190.11393065948505
sg64
g137
sg62
g102
sg49
g50
sS'trials.thisN'
p560
I43
sg19
I0
sg27
g36
(g38
S'\x00\x00\x00\x00\x00\x00\x18@'
tRp561
sg52
g53
sg23
S'1'
sg18
F188.84045078488998
sg33
g34
sg51
g11
sg20
S'2'
sg65
g36
(g77
S'\x00\x00\x00\x00\x00\x00\x00\x00'
tRp562
sg44
g45
sg40
g41
sg25
F0.36102005129214376
sS'trials.thisIndex'
p563
g36
(g80
S'\x14\x00\x00\x00'
tRp564
sg26
V5
sS'trials.thisRepN'
p565
I0
sg66
Vcow
p566
sg63
V../experiment_stimuli/bw_bc_bl/Living_Things/Animals/cow_17.jpg
p567
sg21
F1.2529486309504136
sS'trials.thisTrialN'
p568
I43
sa(dp569
g31
g32
sg17
F192.21278728870675
sg24
I0
sg35
g39
sg14
F192.20786065259017
sg16
g36
(g70
S'\x01\x00\x00\x00'
tRp570
sg42
g43
sg46
g47
sg15
g88
sg22
F194.60371729522012
sg64
g205
sg62
g74
sg49
g50
sS'trials.thisN'
p571
I44
sg19
I1
sg27
g36
(g38
S'\x00\x00\x00\x00\x00\x00\x18@'
tRp572
sg52
g53
sg23
S'3'
sg18
F193.50056949595455
sg33
g34
sg51
g11
sg20
S'1'
sg65
g36
(g77
S'\x00\x00\x00\x00\x00\x00\x00\x00'
tRp573
sg44
g45
sg40
g41
sg25
F0.37102525786031038
sS'trials.thisIndex'
p574
g36
(g80
S'#\x00\x00\x00'
tRp575
sg26
V5
sS'trials.thisRepN'
p576
I0
sg66
Vgranary
p577
sg63
V../experiment_stimuli/bw_bc_bl/Nonliving_Things/Buildings/granary_8.jpg
p578
sg21
F1.0825775824487209
sS'trials.thisTrialN'
p579
I44
sa(dp580
g31
g32
sg17
F196.71257229254115
sg24
I1
sg35
g39
sg14
F196.70763949071988
sg16
g36
(g70
S'\x02\x00\x00\x00'
tRp581
sg42
g43
sg46
g47
sg15
g88
sg22
F198.7126301410608
sg64
g114
sg62
g102
sg49
g50
sS'trials.thisN'
p582
I45
sg19
I1
sg27
g36
(g38
S'\x00\x00\x00\x00\x00\x00\x18@'
tRp583
sg52
g53
sg23
S'1'
sg18
F197.98031204601284
sg33
g34
sg51
g11
sg20
S'2'
sg65
g36
(g77
S'\x00\x00\x00\x00\x00\x00\x00\x00'
tRp584
sg44
g45
sg40
g41
sg25
F0.31089540070388466
sS'trials.thisIndex'
p585
g36
(g80
S'\x1a\x00\x00\x00'
tRp586
sg26
V5
sS'trials.thisRepN'
p587
I0
sg66
Vduck
p588
sg63
V../experiment_stimuli/bw_bc_bl/Living_Things/Birds/duck_9.jpg
p589
sg21
F0.71177335910033435
sS'trials.thisTrialN'
p590
I45
sa(dp591
g31
g32
sg17
F200.76123272313271
sg24
I0
sg35
g39
sg14
F200.75644317129627
sg16
g36
(g70
S'\x02\x00\x00\x00'
tRp592
sg42
g43
sg46
g47
sg15
g88
sg22
F202.63119819411077
sg64
g114
sg62
g102
sg49
g50
sS'trials.thisN'
p593
I46
sg19
I1
sg27
g36
(g38
S'\x00\x00\x00\x00\x00\x00\x18@'
tRp594
sg52
g53
sg23
S'2'
sg18
F202.04916633025277
sg33
g34
sg51
g11
sg20
S'2'
sg65
g36
(g77
S'\x00\x00\x00\x00\x00\x00\x00\x00'
tRp595
sg44
g45
sg40
g41
sg25
F0.37102196458727121
sS'trials.thisIndex'
p596
g36
(g80
S'\x04\x00\x00\x00'
tRp597
sg26
V5
sS'trials.thisRepN'
p598
I0
sg66
Vbarn-owl
p599
sg63
V../experiment_stimuli/bw_bc_bl/Living_Things/Birds/barn-owl_13.jpg
p600
sg21
F0.56147536088246852
sS'trials.thisTrialN'
p601
I46
sa(dp602
g31
g32
sg17
F204.73995155387092
sg24
I0
sg35
g39
sg14
F204.73509821703192
sg16
g36
(g70
S'\x02\x00\x00\x00'
tRp603
sg42
g43
sg46
g47
sg15
g88
sg22
F206.50960153667256
sg64
g137
sg62
g102
sg49
g50
sS'trials.thisN'
p604
I47
sg19
I1
sg27
g36
(g38
S'\x00\x00\x00\x00\x00\x00\x1c@'
tRp605
sg52
g53
sg23
S'2'
sg18
F206.01778998982627
sg33
g34
sg51
g11
sg20
S'2'
sg65
g36
(g77
S'\x00\x00\x00\x00\x00\x00\x00\x00'
tRp606
sg44
g45
sg40
g41
sg25
F0.37104018591344357
sS'trials.thisIndex'
p607
g36
(g80
S'R\x00\x00\x00'
tRp608
sg26
V5
sS'trials.thisRepN'
p609
I0
sg66
Vtapir
p610
sg63
V../experiment_stimuli/bw_bc_bl/Living_Things/Animals/tapir_14.jpg
p611
sg21
F0.47125320218037814
sS'trials.thisTrialN'
p612
I47
sa(dp613
g31
g32
sg17
F208.61845527088735
sg24
I0
sg35
g39
sg14
F208.61352195427753
sg16
g36
(g70
S'\x01\x00\x00\x00'
tRp614
sg42
g43
sg46
g47
sg15
g88
sg22
F210.47821770363953
sg64
g217
sg62
g74
sg49
g50
sS'trials.thisN'
p615
I48
sg19
I1
sg27
g36
(g38
S'\x00\x00\x00\x00\x00\x00\x1e@'
tRp616
sg52
g53
sg23
S'3'
sg18
F209.89622267032973
sg33
g34
sg51
g11
sg20
S'1'
sg65
g36
(g77
S'\x00\x00\x00\x00\x00\x00\x00\x00'
tRp617
sg44
g45
sg40
g41
sg25
F0.3409743873635307
sS'trials.thisIndex'
p618
g36
(g80
S'V\x00\x00\x00'
tRp619
sg26
V5
sS'trials.thisRepN'
p620
I0
sg66
Vtractor
p621
sg63
V../experiment_stimuli/bw_bc_bl/Nonliving_Things/Vehicles/tractor_2.jpg
p622
sg21
F0.56144486158154905
sS'trials.thisTrialN'
p623
I48
sa(dp624
g31
g32
sg17
F212.5591625784291
sg24
I1
sg35
g39
sg14
F212.55208344280254
sg16
g36
(g70
S'\x01\x00\x00\x00'
tRp625
sg42
g43
sg46
g47
sg15
g72
sg22
F214.59722947655246
sg64
g114
sg62
g102
sg49
g50
sS'trials.thisN'
p626
I49
sg19
I0
sg27
g36
(g38
S'\x00\x00\x00\x00\x00\x00\x1a@'
tRp627
sg52
g53
sg23
S'1'
sg18
F213.80471069877967
sg33
g34
sg51
g11
sg20
S'2'
sg65
g36
(g77
S'\x00\x00\x00\x00\x00\x00\x00\x00'
tRp628
sg44
g45
sg40
g41
sg25
F0.34095630492083728
sS'trials.thisIndex'
p629
g36
(g80
S'?\x00\x00\x00'
tRp630
sg26
V5
sS'trials.thisRepN'
p631
I0
sg66
Vpigeon
p632
sg63
V../experiment_stimuli/bw_bc_bl/Living_Things/Birds/pigeon_22.jpg
p633
sg21
F0.77190562931355089
sS'trials.thisTrialN'
p634
I49
sa(dp635
g31
g32
sg17
F216.67597934114747
sg24
I0
sg35
g39
sg14
F216.67104262206703
sg16
g36
(g70
S'\x01\x00\x00\x00'
tRp636
sg42
g43
sg46
g47
sg15
g88
sg22
F218.53572190192062
sg64
g328
sg62
g74
sg49
g50
sS'trials.thisN'
p637
I50
sg19
I1
sg27
g36
(g38
S'\x00\x00\x00\x00\x00\x00\x18@'
tRp638
sg52
g53
sg23
S'3'
sg18
F217.95372831216082
sg33
g34
sg51
g11
sg20
S'1'
sg65
g36
(g77
S'\x00\x00\x00\x00\x00\x00\x00\x00'
tRp639
sg44
g45
sg40
g41
sg25
F0.31089271302334964
sS'trials.thisIndex'
p640
g36
(g80
S'X\x00\x00\x00'
tRp641
sg26
V5
sS'trials.thisRepN'
p642
I0
sg66
Vtrumpet
p643
sg63
V../experiment_stimuli/bw_bc_bl/Nonliving_Things/Musical_Inst/trumpet_19.jpg
p644
sg21
F0.56143894826527685
sS'trials.thisTrialN'
p645
I50
sa(dp646
g31
g32
sg17
F220.58436802122742
sg24
I1
sg35
g39
sg14
F220.5795364434598
sg16
g36
(g70
S'\x02\x00\x00\x00'
tRp647
sg42
g43
sg46
g47
sg15
g88
sg22
F222.99542476551142
sg64
g137
sg62
g102
sg49
g50
sS'trials.thisN'
p648
I51
sg19
I1
sg27
g36
(g38
S'\x00\x00\x00\x00\x00\x00\x1e@'
tRp649
sg52
g53
sg23
S'1'
sg18
F221.83216010197066
sg33
g34
sg51
g11
sg20
S'2'
sg65
g36
(g77
S'\x00\x00\x00\x00\x00\x00\x00\x00'
tRp650
sg44
g45
sg40
g41
sg25
F0.30087210808414966
sS'trials.thisIndex'
p651
g36
(g80
S'Z\x00\x00\x00'
tRp652
sg26
V5
sS'trials.thisRepN'
p653
I0
sg66
Vturtle
p654
sg63
V../experiment_stimuli/bw_bc_bl/Living_Things/Animals/turtle_6.jpg
p655
sg21
F1.142704164958559
sS'trials.thisTrialN'
p656
I51
sa(dp657
g31
g32
sg17
F225.03402982163243
sg24
I0
sg35
g39
sg14
F225.02921145420987
sg16
g36
(g70
S'\x01\x00\x00\x00'
tRp658
sg42
g43
sg46
g47
sg15
g88
sg22
F226.88391136575956
sg64
g73
sg62
g74
sg49
g50
sS'trials.thisN'
p659
I52
sg19
I1
sg27
g36
(g38
S'\x00\x00\x00\x00\x00\x00\x1e@'
tRp660
sg52
g53
sg23
S'3'
sg18
F226.31189811066724
sg33
g34
sg51
g11
sg20
S'1'
sg65
g36
(g77
S'\x00\x00\x00\x00\x00\x00\x00\x00'
tRp661
sg44
g45
sg40
g41
sg25
F0.35098092083353549
sS'trials.thisIndex'
p662
g36
(g80
S'Q\x00\x00\x00'
tRp663
sg26
V5
sS'trials.thisRepN'
p664
I0
sg66
Vtable
p665
sg63
V../experiment_stimuli/bw_bc_bl/Nonliving_Things/Furniture/table_16.jpg
p666
sg21
F0.55142783210612833
sS'trials.thisTrialN'
p667
I52
sa(dp668
g31
g32
sg17
F228.97250180772971
sg24
I0
sg35
g39
sg14
F228.96777423599269
sg16
g36
(g70
S'\x02\x00\x00\x00'
tRp669
sg42
g43
sg46
g47
sg15
g72
sg22
F230.9627727472689
sg64
g217
sg62
g74
sg49
g50
sS'trials.thisN'
p670
I53
sg19
I1
sg27
g36
(g38
S'\x00\x00\x00\x00\x00\x00\x18@'
tRp671
sg52
g53
sg23
S'2'
sg18
F230.22039710101672
sg33
g34
sg51
g11
sg20
S'2'
sg65
g36
(g77
S'\x00\x00\x00\x00\x00\x00\x00\x00'
tRp672
sg44
g45
sg40
g41
sg25
F0.29085046972613782
sS'trials.thisIndex'
p673
g36
(g80
S'L\x00\x00\x00'
tRp674
sg26
V5
sS'trials.thisRepN'
p675
I0
sg66
Vship
p676
sg63
V../experiment_stimuli/bw_bc_bl/Nonliving_Things/Vehicles/ship_9.jpg
p677
sg21
F0.72180182416923344
sS'trials.thisTrialN'
p678
I53
sa(dp679
g31
g32
sg17
F232.99129843281116
sg24
I1
sg35
g39
sg14
F232.98650567408185
sg16
g36
(g70
S'\x02\x00\x00\x00'
tRp680
sg42
g43
sg46
g47
sg15
g72
sg22
F235.52266270585824
sg64
g89
sg62
g74
sg49
g50
sS'trials.thisN'
p681
I54
sg19
I0
sg27
g36
(g38
S'\x00\x00\x00\x00\x00\x00\x1a@'
tRp682
sg52
g53
sg23
S'1'
sg18
F234.22912122029811
sg33
g34
sg51
g11
sg20
S'1'
sg65
g36
(g77
S'\x00\x00\x00\x00\x00\x00\x00\x00'
tRp683
sg44
g45
sg40
g41
sg25
F0.3910639783134684
sS'trials.thisIndex'
p684
g36
(g80
S'S\x00\x00\x00'
tRp685
sg26
V5
sS'trials.thisRepN'
p686
I0
sg66
Vteapot
p687
sg63
V../experiment_stimuli/bw_bc_bl/Nonliving_Things/Kitchen_Uten/teapot_3.jpg
p688
sg21
F1.2729921408463269
sS'trials.thisTrialN'
p689
I54
sa(dp690
g31
g32
sg17
F237.65142291446682
sg24
I1
sg35
g39
sg14
F237.64663908432703
sg16
g36
(g70
S'\x01\x00\x00\x00'
tRp691
sg42
g43
sg46
g47
sg15
g72
sg22
F239.38107111328281
sg64
g137
sg62
g102
sg49
g50
sS'trials.thisN'
p692
I55
sg19
I1
sg27
g36
(g38
S'\x00\x00\x00\x00\x00\x00\x1a@'
tRp693
sg52
g53
sg23
S'1'
sg18
F238.90928333613556
sg33
g34
sg51
g11
sg20
S'1'
sg65
g36
(g77
S'\x00\x00\x00\x00\x00\x00\x00\x00'
tRp694
sg44
g45
sg40
g41
sg25
F0.34095628629438579
sS'trials.thisIndex'
p695
g36
(g80
S'\r\x00\x00\x00'
tRp696
sg26
V5
sS'trials.thisRepN'
p697
I0
sg66
Vcat
p698
sg63
V../experiment_stimuli/bw_bc_bl/Living_Things/Animals/cat_21.jpg
p699
sg21
F0.45121745124924928
sS'trials.thisTrialN'
p700
I55
sa(dp701
g31
g32
sg17
F241.45972961431835
sg24
I0
sg35
g39
sg14
F241.45492779195774
sg16
g36
(g70
S'\x01\x00\x00\x00'
tRp702
sg42
g43
sg46
g47
sg15
g88
sg22
F243.51002075488213
sg64
g73
sg62
g74
sg49
g50
sS'trials.thisN'
p703
I56
sg19
I1
sg27
g36
(g38
S'\x00\x00\x00\x00\x00\x00\x1a@'
tRp704
sg52
g53
sg23
S'2'
sg18
F242.7376047304133
sg33
g34
sg51
g11
sg20
S'1'
sg65
g36
(g77
S'\x00\x00\x00\x00\x00\x00\x00\x00'
tRp705
sg44
g45
sg40
g41
sg25
F0.32091468619182706
sS'trials.thisIndex'
p706
g36
(g80
S'\x00\x00\x00\x00'
tRp707
sg26
V5
sS'trials.thisRepN'
p708
I0
sg66
VChest-of-drawers
p709
sg63
V../experiment_stimuli/bw_bc_bl/Nonliving_Things/Furniture/Chest-of-drawers_18.jpg
p710
sg21
F0.75185436371248215
sS'trials.thisTrialN'
p711
I56
sa(dp712
g31
g32
sg17
F245.56862579123117
sg24
I0
sg35
g39
sg14
F245.56384320918005
sg16
g36
(g70
S'\x01\x00\x00\x00'
tRp713
sg42
g43
sg46
g47
sg15
g88
sg22
F247.41835172148421
sg64
g328
sg62
g74
sg49
g50
sS'trials.thisN'
p714
I57
sg19
I1
sg27
g36
(g38
S'\x00\x00\x00\x00\x00\x00\x1a@'
tRp715
sg52
g53
sg23
S'3'
sg18
F246.83652550133411
sg33
g34
sg51
g11
sg20
S'1'
sg65
g36
(g77
S'\x00\x00\x00\x00\x00\x00\x00\x00'
tRp716
sg44
g45
sg40
g41
sg25
F0.29085540235973895
sS'trials.thisIndex'
p717
g36
(g80
S'\x19\x00\x00\x00'
tRp718
sg26
V5
sS'trials.thisRepN'
p719
I0
sg66
Vdrum
p720
sg63
V../experiment_stimuli/bw_bc_bl/Nonliving_Things/Musical_Inst/drum_22.jpg
p721
sg21
F0.56128618342336267
sS'trials.thisTrialN'
p722
I57
sa(dp723
g31
g32
sg17
F249.44839376839809
sg24
I1
sg35
g39
sg14
F249.4422849122202
sg16
g36
(g70
S'\x02\x00\x00\x00'
tRp724
sg42
g43
sg46
g47
sg15
g88
sg22
F251.30700145114679
sg64
g137
sg62
g102
sg49
g50
sS'trials.thisN'
p725
I58
sg19
I1
sg27
g36
(g38
S'\x00\x00\x00\x00\x00\x00\x18@'
tRp726
sg52
g53
sg23
S'1'
sg18
F250.69490385998506
sg33
g34
sg51
g11
sg20
S'2'
sg65
g36
(g77
S'\x00\x00\x00\x00\x00\x00\x00\x00'
tRp727
sg44
g45
sg40
g41
sg25
F0.34095540270209312
sS'trials.thisIndex'
p728
g36
(g80
S'2\x00\x00\x00'
tRp729
sg26
V5
sS'trials.thisRepN'
p730
I0
sg66
Vlynx
p731
sg63
V../experiment_stimuli/bw_bc_bl/Living_Things/Animals/lynx_14.jpg
p732
sg21
F0.59153424261603504
sS'trials.thisTrialN'
p733
I58
sa(dp734
g31
g32
sg17
F253.38564503157977
sg24
I0
sg35
g39
sg14
F253.38084400619846
sg16
g36
(g70
S'\x01\x00\x00\x00'
tRp735
sg42
g43
sg46
g47
sg15
g72
sg22
F255.3056848681299
sg64
g114
sg62
g102
sg49
g50
sS'trials.thisN'
p736
I59
sg19
I1
sg27
g36
(g38
S'\x00\x00\x00\x00\x00\x00\x1a@'
tRp737
sg52
g53
sg23
S'2'
sg18
F254.64348905463703
sg33
g34
sg51
g11
sg20
S'1'
sg65
g36
(g77
S'\x00\x00\x00\x00\x00\x00\x00\x00'
tRp738
sg44
g45
sg40
g41
sg25
F0.34095469955354929
sS'trials.thisIndex'
p739
g36
(g80
S',\x00\x00\x00'
tRp740
sg26
V5
sS'trials.thisRepN'
p741
I0
sg66
Vkiwi
p742
sg63
V../experiment_stimuli/bw_bc_bl/Living_Things/Birds/kiwi_25.jpg
p743
sg21
F0.64162946899887174
sS'trials.thisTrialN'
p744
I59
sa(dp745
g31
g32
sg17
F257.38430478726514
sg24
I1
sg35
g39
sg14
F257.37952691549435
sg16
g36
(g70
S'\x02\x00\x00\x00'
tRp746
sg42
g43
sg46
g47
sg15
g72
sg22
F259.33441009907983
sg64
VTools
p747
sg62
g74
sg49
g50
sS'trials.thisN'
p748
I60
sg19
I1
sg27
g36
(g38
S'\x00\x00\x00\x00\x00\x00\x1e@'
tRp749
sg52
g53
sg23
S'1'
sg18
F258.63216404349077
sg33
g34
sg51
g11
sg20
S'2'
sg65
g36
(g77
S'\x00\x00\x00\x00\x00\x00\x00\x00'
tRp750
sg44
g45
sg40
g41
sg25
F0.30086689407471567
sS'trials.thisIndex'
p751
g36
(g80
S'%\x00\x00\x00'
tRp752
sg26
V5
sS'trials.thisRepN'
p753
I0
sg66
Vhammer
p754
sg63
V../experiment_stimuli/bw_bc_bl/Nonliving_Things/Tools/hammer_20.jpg
p755
sg21
F0.68170675972942263
sS'trials.thisTrialN'
p756
I60
sa(dp757
g31
g32
sg17
F261.37305303069297
sg24
I0
sg35
g39
sg14
F261.36821028415579
sg16
g36
(g70
S'\x01\x00\x00\x00'
tRp758
sg42
g43
sg46
g47
sg15
g72
sg22
F263.2729902715655
sg64
g114
sg62
g102
sg49
g50
sS'trials.thisN'
p759
I61
sg19
I1
sg27
g36
(g38
S'\x00\x00\x00\x00\x00\x00\x18@'
tRp760
sg52
g53
sg23
S'2'
sg18
F262.64088262501173
sg33
g34
sg51
g11
sg20
S'1'
sg65
g36
(g77
S'\x00\x00\x00\x00\x00\x00\x00\x00'
tRp761
sg44
g45
sg40
g41
sg25
F0.32091262203175575
sS'trials.thisIndex'
p762
g36
(g80
S'O\x00\x00\x00'
tRp763
sg26
V5
sS'trials.thisRepN'
p764
I0
sg66
Vsparrow
p765
sg63
V../experiment_stimuli/bw_bc_bl/Living_Things/Birds/sparrow_4.jpg
p766
sg21
F0.61155608366243541
sS'trials.thisTrialN'
p767
I61
sa(dp768
g31
g32
sg17
F265.33281036221888
sg24
I0
sg35
g39
sg14
F265.32681283517741
sg16
g36
(g70
S'\x02\x00\x00\x00'
tRp769
sg42
g43
sg46
g47
sg15
g72
sg22
F267.24163366016001
sg64
g328
sg62
g74
sg49
g50
sS'trials.thisN'
p770
I62
sg19
I0
sg27
g36
(g38
S'\x00\x00\x00\x00\x00\x00\x18@'
tRp771
sg52
g53
sg23
S'2'
sg18
F266.58947227080353
sg33
g34
sg51
g11
sg20
S'1'
sg65
g36
(g77
S'\x00\x00\x00\x00\x00\x00\x00\x00'
tRp772
sg44
g45
sg40
g41
sg25
F0.51133446639869362
sS'trials.thisIndex'
p773
g36
(g80
S'>\x00\x00\x00'
tRp774
sg26
V5
sS'trials.thisRepN'
p775
I0
sg66
Vpiano
p776
sg63
V../experiment_stimuli/bw_bc_bl/Nonliving_Things/Musical_Inst/piano__15.jpg
p777
sg21
F0.6315990372095257
sS'trials.thisTrialN'
p778
I62
sa(dp779
g31
g32
sg17
F269.49061435391195
sg24
I0
sg35
g39
sg14
F269.48584995558485
sg16
g36
(g70
S'\x02\x00\x00\x00'
tRp780
sg42
g43
sg46
g47
sg15
g72
sg22
F271.49085353058763
sg64
g328
sg62
g74
sg49
g50
sS'trials.thisN'
p781
I63
sg19
I1
sg27
g36
(g38
S'\x00\x00\x00\x00\x00\x00\x18@'
tRp782
sg52
g53
sg23
S'2'
sg18
F270.7485036845319
sg33
g34
sg51
g11
sg20
S'2'
sg65
g36
(g77
S'\x00\x00\x00\x00\x00\x00\x00\x00'
tRp783
sg44
g45
sg40
g41
sg25
F0.34095944033470005
sS'trials.thisIndex'
p784
g36
(g80
S'\\\x00\x00\x00'
tRp785
sg26
V5
sS'trials.thisRepN'
p786
I0
sg66
Vviolin
p787
sg63
V../experiment_stimuli/bw_bc_bl/Nonliving_Things/Musical_Inst/violin_13.jpg
p788
sg21
F0.72179319267161191
sS'trials.thisTrialN'
p789
I63
sa(dp790
g31
g32
sg17
F273.5696712473873
sg24
I1
sg35
g39
sg14
F273.56471627694555
sg16
g36
(g70
S'\x01\x00\x00\x00'
tRp791
sg42
g43
sg46
g47
sg15
g72
sg22
F275.36930933862459
sg64
g101
sg62
g102
sg49
g50
sS'trials.thisN'
p792
I64
sg19
I0
sg27
g36
(g38
S'\x00\x00\x00\x00\x00\x00\x18@'
tRp793
sg52
g53
sg23
S'1'
sg18
F274.80733033048455
sg33
g34
sg51
g11
sg20
S'2'
sg65
g36
(g77
S'\x00\x00\x00\x00\x00\x00\x00\x00'
tRp794
sg44
g45
sg40
g41
sg25
F0.26079308066982776
sS'trials.thisIndex'
p795
g36
(g80
S'I\x00\x00\x00'
tRp796
sg26
V5
sS'trials.thisRepN'
p797
I0
sg66
Vscorpion
p798
sg63
V../experiment_stimuli/bw_bc_bl/Living_Things/Insects/scorpion_12.jpg
p799
sg21
F0.54141393036115915
sS'trials.thisTrialN'
p800
I64
sa(dp801
g31
g32
sg17
F277.36780740122776
sg24
I0
sg35
g39
sg14
F277.36297355324496
sg16
g36
(g70
S'\x01\x00\x00\x00'
tRp802
sg42
g43
sg46
g47
sg15
g88
sg22
F279.16737196710892
sg64
g73
sg62
g74
sg49
g50
sS'trials.thisN'
p803
I65
sg19
I1
sg27
g36
(g38
S'\x00\x00\x00\x00\x00\x00 @'
tRp804
sg52
g53
sg23
S'3'
sg18
F278.6356508753961
sg33
g34
sg51
g11
sg20
S'1'
sg65
g36
(g77
S'\x00\x00\x00\x00\x00\x00\x00\x00'
tRp805
sg44
g45
sg40
g41
sg25
F0.21068190387450159
sS'trials.thisIndex'
p806
g36
(g80
S'.\x00\x00\x00'
tRp807
sg26
V5
sS'trials.thisRepN'
p808
I0
sg66
Vlamp
p809
sg63
V../experiment_stimuli/bw_bc_bl/Nonliving_Things/Furniture/lamp_25.jpg
p810
sg21
F0.5011535445228219
sS'trials.thisTrialN'
p811
I65
sa(dp812
g31
g32
sg17
F281.11738787451759
sg24
I0
sg35
g39
sg14
F281.11112057685386
sg16
g36
(g70
S'\x01\x00\x00\x00'
tRp813
sg42
g43
sg46
g47
sg15
g72
sg22
F282.95575797848869
sg64
g101
sg62
g102
sg49
g50
sS'trials.thisN'
p814
I66
sg19
I1
sg27
g36
(g38
S'\x00\x00\x00\x00\x00\x00\x18@'
tRp815
sg52
g53
sg23
S'3'
sg18
F282.37377155397553
sg33
g34
sg51
g11
sg20
S'1'
sg65
g36
(g77
S'\x00\x00\x00\x00\x00\x00\x00\x00'
tRp816
sg44
g45
sg40
g41
sg25
F0.36099567206110805
sS'trials.thisIndex'
p817
g36
(g80
S'\n\x00\x00\x00'
tRp818
sg26
V5
sS'trials.thisRepN'
p819
I0
sg66
Vbutterfly
p820
sg63
V../experiment_stimuli/bw_bc_bl/Living_Things/Insects/butterfly_3.jpg
p821
sg21
F0.56144734658300877
sS'trials.thisTrialN'
p822
I66
sa(dp823
g31
g32
sg17
F285.05443447141442
sg24
I1
sg35
g39
sg14
F285.04968728742097
sg16
g36
(g70
S'\x01\x00\x00\x00'
tRp824
sg42
g43
sg46
g47
sg15
g88
sg22
F287.53571627370548
sg64
g89
sg62
g74
sg49
g50
sS'trials.thisN'
p825
I67
sg19
I1
sg27
g36
(g38
S'\x00\x00\x00\x00\x00\x00\x1e@'
tRp826
sg52
g53
sg23
S'1'
sg18
F286.28226876631379
sg33
g34
sg51
g11
sg20
S'1'
sg65
g36
(g77
S'\x00\x00\x00\x00\x00\x00\x00\x00'
tRp827
sg44
g45
sg40
g41
sg25
F0.34096042881719768
sS'trials.thisIndex'
p828
g36
(g80
S'\x1f\x00\x00\x00'
tRp829
sg26
V5
sS'trials.thisRepN'
p830
I0
sg66
Vfrying-pan
p831
sg63
V../experiment_stimuli/bw_bc_bl/Nonliving_Things/Kitchen_Uten/frying-pan_11.jpg
p832
sg21
F1.2328948805807158
sS'trials.thisTrialN'
p833
I67
sa(dp834
g31
g32
sg17
F289.61436556477565
sg24
I1
sg35
g39
sg14
F289.60959918156732
sg16
g36
(g70
S'\x01\x00\x00\x00'
tRp835
sg42
g43
sg46
g47
sg15
g72
sg22
F291.72482700506225
sg64
g114
sg62
g102
sg49
g50
sS'trials.thisN'
p836
I68
sg19
I1
sg27
g36
(g38
S'\x00\x00\x00\x00\x00\x00 @'
tRp837
sg52
g53
sg23
S'1'
sg18
F290.85220258508343
sg33
g34
sg51
g11
sg20
S'1'
sg65
g36
(g77
S'\x00\x00\x00\x00\x00\x00\x00\x00'
tRp838
sg44
g45
sg40
g41
sg25
F0.62156941404100507
sS'trials.thisIndex'
p839
g36
(g80
S'9\x00\x00\x00'
tRp840
sg26
V5
sS'trials.thisRepN'
p841
I0
sg66
Vowl
p842
sg63
V../experiment_stimuli/bw_bc_bl/Living_Things/Birds/owl_13.jpg
p843
sg21
F0.85207699611783028
sS'trials.thisTrialN'
p844
I68
sa(dp845
g31
g32
sg17
F294.08408708532806
sg24
I1
sg35
g39
sg14
F294.07931570976507
sg16
g36
(g70
S'\x01\x00\x00\x00'
tRp846
sg42
g43
sg46
g47
sg15
g88
sg22
F297.23685542528983
sg64
g73
sg62
g74
sg49
g50
sS'trials.thisN'
p847
I69
sg19
I1
sg27
g36
(g38
S'\x00\x00\x00\x00\x00\x00\x18@'
tRp848
sg52
g53
sg23
S'1'
sg18
F295.35198531777132
sg33
g34
sg51
g11
sg20
S'1'
sg65
g36
(g77
S'\x00\x00\x00\x00\x00\x00\x00\x00'
tRp849
sg44
g45
sg40
g41
sg25
F0.42114977305755019
sS'trials.thisIndex'
p850
g36
(g80
S'\x13\x00\x00\x00'
tRp851
sg26
V5
sS'trials.thisRepN'
p852
I0
sg66
Vcouch
p853
sg63
V../experiment_stimuli/bw_bc_bl/Nonliving_Things/Furniture/couch_21.jpg
p854
sg21
F1.8643230519955978
sS'trials.thisTrialN'
p855
I69
sa(dp856
g31
g32
sg17
F299.39561441075057
sg24
I1
sg35
g39
sg14
F299.39085827197414
sg16
g36
(g70
S'\x01\x00\x00\x00'
tRp857
sg42
g43
sg46
g47
sg15
g72
sg22
F301.77650886529591
sg64
g114
sg62
g102
sg49
g50
sS'trials.thisN'
p858
I70
sg19
I1
sg27
g36
(g38
S'\x00\x00\x00\x00\x00\x00\x18@'
tRp859
sg52
g53
sg23
S'1'
sg18
F300.66353254916612
sg33
g34
sg51
g11
sg20
S'1'
sg65
g36
(g77
S'\x00\x00\x00\x00\x00\x00\x00\x00'
tRp860
sg44
g45
sg40
g41
sg25
F0.52135689067654312
sS'trials.thisIndex'
p861
g36
(g80
S'*\x00\x00\x00'
tRp862
sg26
V5
sS'trials.thisRepN'
p863
I0
sg66
Vhummingbird
p864
sg63
V../experiment_stimuli/bw_bc_bl/Living_Things/Birds/hummingbird_8.jpg
p865
sg21
F1.0924404634861276
sS'trials.thisTrialN'
p866
I70
sa(dp867
g31
g32
sg17
F304.03569481137674
sg24
I1
sg35
g39
sg14
F304.03095048048999
sg16
g36
(g70
S'\x01\x00\x00\x00'
tRp868
sg42
g43
sg46
g47
sg15
g72
sg22
F307.36884432740044
sg64
g101
sg62
g102
sg49
g50
sS'trials.thisN'
p869
I71
sg19
I1
sg27
g36
(g38
S'\x00\x00\x00\x00\x00\x00\x18@'
tRp870
sg52
g53
sg23
S'1'
sg18
F305.33368162042461
sg33
g34
sg51
g11
sg20
S'1'
sg65
g36
(g77
S'\x00\x00\x00\x00\x00\x00\x00\x00'
tRp871
sg44
g45
sg40
g41
sg25
F0.39106624899432063
sS'trials.thisIndex'
p872
g36
(g80
S'-\x00\x00\x00'
tRp873
sg26
V5
sS'trials.thisRepN'
p874
I0
sg66
Vladybird
p875
sg63
V../experiment_stimuli/bw_bc_bl/Living_Things/Insects/ladybird_12.jpg
p876
sg21
F2.0146019187523052
sS'trials.thisTrialN'
p877
I71
sa(dp878
g31
g32
sg17
F309.49765463289805
sg24
I0
sg35
g39
sg14
F309.49282308167312
sg16
g36
(g70
S'\x02\x00\x00\x00'
tRp879
sg42
g43
sg46
g47
sg15
g72
sg22
F311.53790197707713
sg64
g328
sg62
g74
sg49
g50
sS'trials.thisN'
p880
I72
sg19
I1
sg27
g36
(g38
S'\x00\x00\x00\x00\x00\x00\x18@'
tRp881
sg52
g53
sg23
S'3'
sg18
F310.79556318745017
sg33
g34
sg51
g11
sg20
S'2'
sg65
g36
(g77
S'\x00\x00\x00\x00\x00\x00\x00\x00'
tRp882
sg44
g45
sg40
g41
sg25
F0.34096987976226956
sS'trials.thisIndex'
p883
g36
(g80
S'H\x00\x00\x00'
tRp884
sg26
V5
sS'trials.thisRepN'
p885
I0
sg66
Vsaxophone
p886
sg63
V../experiment_stimuli/bw_bc_bl/Nonliving_Things/Musical_Inst/saxophone_4.jpg
p887
sg21
F0.7217939937254414
sS'trials.thisTrialN'
p888
I72
sa(dp889
g31
g32
sg17
F313.61666585295461
sg24
I1
sg35
g39
sg14
F313.61177189263981
sg16
g36
(g70
S'\x01\x00\x00\x00'
tRp890
sg42
g43
sg46
g47
sg15
g72
sg22
F315.96765299886465
sg64
g114
sg62
g102
sg49
g50
sS'trials.thisN'
p891
I73
sg19
I1
sg27
g36
(g38
S'\x00\x00\x00\x00\x00\x00\x1a@'
tRp892
sg52
g53
sg23
S'1'
sg18
F314.8944656503154
sg33
g34
sg51
g11
sg20
S'1'
sg65
g36
(g77
S'\x00\x00\x00\x00\x00\x00\x00\x00'
tRp893
sg44
g45
sg40
g41
sg25
F0.41111007856670767
sS'trials.thisIndex'
p894
g36
(g80
S'&\x00\x00\x00'
tRp895
sg26
V5
sS'trials.thisRepN'
p896
I0
sg66
Vhen
p897
sg63
V../experiment_stimuli/bw_bc_bl/Living_Things/Birds/hen_20.jpg
p898
sg21
F1.0526215714635327
sS'trials.thisTrialN'
p899
I73
sa(dp900
g31
g32
sg17
F318.11659298965242
sg24
I0
sg35
g39
sg14
F318.11155581730418
sg16
g36
(g70
S'\x02\x00\x00\x00'
tRp901
sg42
g43
sg46
g47
sg15
g72
sg22
F320.20676852145698
sg64
g73
sg62
g74
sg49
g50
sS'trials.thisN'
p902
I74
sg19
I1
sg27
g36
(g38
S'\x00\x00\x00\x00\x00\x00\x18@'
tRp903
sg52
g53
sg23
S'3'
sg18
F319.42431211832445
sg33
g34
sg51
g11
sg20
S'2'
sg65
g36
(g77
S'\x00\x00\x00\x00\x00\x00\x00\x00'
tRp904
sg44
g45
sg40
g41
sg25
F0.40110158640891314
sS'trials.thisIndex'
p905
g36
(g80
S'/\x00\x00\x00'
tRp906
sg26
V5
sS'trials.thisRepN'
p907
I0
sg66
Vlectern
p908
sg63
V../experiment_stimuli/bw_bc_bl/Nonliving_Things/Furniture/lectern_10.jpg
p909
sg21
F0.76189815218094736
sS'trials.thisTrialN'
p910
I74
sa(dp911
g31
g32
sg17
F322.34691920946352
sg24
I0
sg35
g39
sg14
F322.34075900458265
sg16
g36
(g70
S'\x02\x00\x00\x00'
tRp912
sg42
g43
sg46
g47
sg15
g72
sg22
F324.58630656276364
sg64
g89
sg62
g74
sg49
g50
sS'trials.thisN'
p913
I75
sg19
I1
sg27
g36
(g38
S'\x00\x00\x00\x00\x00\x00\x18@'
tRp914
sg52
g53
sg23
S'3'
sg18
F323.62344999145716
sg33
g34
sg51
g11
sg20
S'2'
sg65
g36
(g77
S'\x00\x00\x00\x00\x00\x00\x00\x00'
tRp915
sg44
g45
sg40
g41
sg25
F0.45104646508116275
sS'trials.thisIndex'
p916
g36
(g80
S'B\x00\x00\x00'
tRp917
sg26
V5
sS'trials.thisRepN'
p918
I0
sg66
Vpot
p919
sg63
V../experiment_stimuli/bw_bc_bl/Nonliving_Things/Kitchen_Uten/pot_0.jpg
p920
sg21
F0.94228612550068647
sS'trials.thisTrialN'
p921
I75
sa(dp922
g31
g32
sg17
F326.77516864740755
sg24
I1
sg35
g39
sg14
F326.7703806143254
sg16
g36
(g70
S'\x01\x00\x00\x00'
tRp923
sg42
g43
sg46
g47
sg15
g72
sg22
F329.31655575078912
sg64
g137
sg62
g102
sg49
g50
sS'trials.thisN'
p924
I76
sg19
I1
sg27
g36
(g38
S'\x00\x00\x00\x00\x00\x00\x1a@'
tRp925
sg52
g53
sg23
S'1'
sg18
F328.03302827966399
sg33
g34
sg51
g11
sg20
S'1'
sg65
g36
(g77
S'\x00\x00\x00\x00\x00\x00\x00\x00'
tRp926
sg44
g45
sg40
g41
sg25
F0.40109763911459595
sS'trials.thisIndex'
p927
g36
(g80
S'\x01\x00\x00\x00'
tRp928
sg26
V5
sS'trials.thisRepN'
p929
I0
sg66
Varmadillo
p930
sg63
V../experiment_stimuli/bw_bc_bl/Living_Things/Animals/armadillo_25.jpg
p931
sg21
F1.2629707655869424
sS'trials.thisTrialN'
p932
I76
sa(dp933
g31
g32
sg17
F331.45535706356168
sg24
I0
sg35
g39
sg14
F331.45055517007131
sg16
g36
(g70
S'\x02\x00\x00\x00'
tRp934
sg42
g43
sg46
g47
sg15
g88
sg22
F333.84640368097462
sg64
g114
sg62
g102
sg49
g50
sS'trials.thisN'
p935
I77
sg19
I1
sg27
g36
(g38
S'\x00\x00\x00\x00\x00\x00\x18@'
tRp936
sg52
g53
sg23
S'2'
sg18
F332.74326658120845
sg33
g34
sg51
g11
sg20
S'2'
sg65
g36
(g77
S'\x00\x00\x00\x00\x00\x00\x00\x00'
tRp937
sg44
g45
sg40
g41
sg25
F0.42113201029133052
sS'trials.thisIndex'
p938
g36
(g80
S'U\x00\x00\x00'
tRp939
sg26
V5
sS'trials.thisRepN'
p940
I0
sg66
Vtoucan
p941
sg63
V../experiment_stimuli/bw_bc_bl/Living_Things/Birds/toucan_26.jpg
p942
sg21
F1.0825772929238155
sS'trials.thisTrialN'
p943
I77
sa(dp944
g31
g32
sg17
F336.00523129745852
sg24
I0
sg35
g39
sg14
F336.00045102718286
sg16
g36
(g70
S'\x01\x00\x00\x00'
tRp945
sg42
g43
sg46
g47
sg15
g88
sg22
F338.02535547118168
sg64
g217
sg62
g74
sg49
g50
sS'trials.thisN'
p946
I78
sg19
I1
sg27
g36
(g38
S'\x00\x00\x00\x00\x00\x00\x1a@'
tRp947
sg52
g53
sg23
S'3'
sg18
F337.28313593182247
sg33
g34
sg51
g11
sg20
S'1'
sg65
g36
(g77
S'\x00\x00\x00\x00\x00\x00\x00\x00'
tRp948
sg44
g45
sg40
g41
sg25
F0.37087559828069061
sS'trials.thisIndex'
p949
g36
(g80
S'[\x00\x00\x00'
tRp950
sg26
V5
sS'trials.thisRepN'
p951
I0
sg66
Vvan
p952
sg63
V../experiment_stimuli/bw_bc_bl/Nonliving_Things/Vehicles/van_15.jpg
p953
sg21
F0.72163713118061423
sS'trials.thisTrialN'
p954
I78
sa(dp955
g31
g32
sg17
F340.13522914564237
sg24
I1
sg35
g39
sg14
F340.12943058961537
sg16
g36
(g70
S'\x01\x00\x00\x00'
tRp956
sg42
g43
sg46
g47
sg15
g88
sg22
F343.25687132985331
sg64
g89
sg62
g74
sg49
g50
sS'trials.thisN'
p957
I79
sg19
I0
sg27
g36
(g38
S'\x00\x00\x00\x00\x00\x00\x18@'
tRp958
sg52
g53
sg23
S'1'
sg18
F341.3720235718647
sg33
g34
sg51
g11
sg20
S'2'
sg65
g36
(g77
S'\x00\x00\x00\x00\x00\x00\x00\x00'
tRp959
sg44
g45
sg40
g41
sg25
F0.40108934603631496
sS'trials.thisIndex'
p960
g36
(g80
S'\x12\x00\x00\x00'
tRp961
sg26
V5
sS'trials.thisRepN'
p962
I0
sg66
Vcoking-pot
p963
sg63
V../experiment_stimuli/bw_bc_bl/Nonliving_Things/Kitchen_Uten/coking-pot_4.jpg
p964
sg21
F1.8642771579325199
sS'trials.thisTrialN'
p965
I79
sa(dp966
g31
g32
sg17
F345.39556323073339
sg24
I0
sg35
g39
sg14
F345.39086020400282
sg16
g36
(g70
S'\x02\x00\x00\x00'
tRp967
sg42
g43
sg46
g47
sg15
g72
sg22
F347.41574024967849
sg64
g217
sg62
g74
sg49
g50
sS'trials.thisN'
p968
I80
sg19
I1
sg27
g36
(g38
S'\x00\x00\x00\x00\x00\x00\x18@'
tRp969
sg52
g53
sg23
S'3'
sg18
F346.66353559389245
sg33
g34
sg51
g11
sg20
S'2'
sg65
g36
(g77
S'\x00\x00\x00\x00\x00\x00\x00\x00'
tRp970
sg44
g45
sg40
g41
sg25
F0.32092345261480659
sS'trials.thisIndex'
p971
g36
(g80
S'\x07\x00\x00\x00'
tRp972
sg26
V5
sS'trials.thisRepN'
p973
I0
sg66
Vboat
p974
sg63
V../experiment_stimuli/bw_bc_bl/Nonliving_Things/Vehicles/boat_16.jpg
p975
sg21
F0.73165512306150049
sS'trials.thisTrialN'
p976
I80
sa(dp977
g31
g32
sg17
F349.47447210422251
sg24
I0
sg35
g39
sg14
F349.46972608170472
sg16
g36
(g70
S'\x02\x00\x00\x00'
tRp978
sg42
g43
sg46
g47
sg15
g72
sg22
F351.52483928087167
sg64
g205
sg62
g74
sg49
g50
sS'trials.thisN'
p979
I81
sg19
I1
sg27
g36
(g38
S'\x00\x00\x00\x00\x00\x00\x18@'
tRp980
sg52
g53
sg23
S'2'
sg18
F350.72235211206134
sg33
g34
sg51
g11
sg20
S'2'
sg65
g36
(g77
S'\x00\x00\x00\x00\x00\x00\x00\x00'
tRp981
sg44
g45
sg40
g41
sg25
F0.37087811692617834
sS'trials.thisIndex'
p982
g36
(g80
S'\x0c\x00\x00\x00'
tRp983
sg26
V5
sS'trials.thisRepN'
p984
I0
sg66
Vcastle
p985
sg63
V../experiment_stimuli/bw_bc_bl/Nonliving_Things/Buildings/castle_11.jpg
p986
sg21
F0.78192580526228994
sS'trials.thisTrialN'
p987
I81
sa(dp988
g31
g32
sg17
F353.63468906853814
sg24
I1
sg35
g39
sg14
F353.62876545777544
sg16
g36
(g70
S'\x02\x00\x00\x00'
tRp989
sg42
g43
sg46
g47
sg15
g72
sg22
F355.52353858482093
sg64
g747
sg62
g74
sg49
g50
sS'trials.thisN'
p990
I82
sg19
I1
sg27
g36
(g38
S'\x00\x00\x00\x00\x00\x00\x1e@'
tRp991
sg52
g53
sg23
S'1'
sg18
F354.86134922632482
sg33
g34
sg51
g11
sg20
S'2'
sg65
g36
(g77
S'\x00\x00\x00\x00\x00\x00\x00\x00'
tRp992
sg44
g45
sg40
g41
sg25
F0.52135611232370138
sS'trials.thisIndex'
p993
g36
(g80
S'\x03\x00\x00\x00'
tRp994
sg26
V5
sS'trials.thisRepN'
p995
I0
sg66
Vaxe
p996
sg63
V../experiment_stimuli/bw_bc_bl/Nonliving_Things/Tools/axe_24.jpg
p997
sg21
F0.64162142004352063
sS'trials.thisTrialN'
p998
I82
sa(dp999
g31
g32
sg17
F357.78247259475756
sg24
I1
sg35
g39
sg14
F357.7777938307263
sg16
g36
(g70
S'\x01\x00\x00\x00'
tRp1000
sg42
g43
sg46
g47
sg15
g72
sg22
F360.2037340310635
sg64
g149
sg62
g102
sg49
g50
sS'trials.thisN'
p1001
I83
sg19
I0
sg27
g36
(g38
S'\x00\x00\x00\x00\x00\x00\x1a@'
tRp1002
sg52
g53
sg23
S'1'
sg18
F359.02044395147823
sg33
g34
sg51
g11
sg20
S'2'
sg65
g36
(g77
S'\x00\x00\x00\x00\x00\x00\x00\x00'
tRp1003
sg44
g45
sg40
g41
sg25
F0.34097033087164164
sS'trials.thisIndex'
p1004
g36
(g80
S'4\x00\x00\x00'
tRp1005
sg26
V5
sS'trials.thisRepN'
p1006
I0
sg66
Vmanatee
p1007
sg63
V../experiment_stimuli/bw_bc_bl/Living_Things/Marine_creatures/manatee_12.jpg
p1008
sg21
F1.162764354958199
sS'trials.thisTrialN'
p1009
I83
sa(dp1010
g31
g32
sg17
F362.28231098083779
sg24
I0
sg35
g39
sg14
F362.27757604117505
sg16
g36
(g70
S'\x01\x00\x00\x00'
tRp1011
sg42
g43
sg46
g47
sg15
g88
sg22
F364.58321522758342
sg64
g89
sg62
g74
sg49
g50
sS'trials.thisN'
p1012
I84
sg19
I1
sg27
g36
(g38
S'\x00\x00\x00\x00\x00\x00\x1a@'
tRp1013
sg52
g53
sg23
S'2'
sg18
F363.5502356979996
sg33
g34
sg51
g11
sg20
S'1'
sg65
g36
(g77
S'\x00\x00\x00\x00\x00\x00\x00\x00'
tRp1014
sg44
g45
sg40
g41
sg25
F0.38106538471765816
sS'trials.thisIndex'
p1015
g36
(g80
S'\x1e\x00\x00\x00'
tRp1016
sg26
V5
sS'trials.thisRepN'
p1017
I0
sg66
Vfondue
p1018
sg63
V../experiment_stimuli/bw_bc_bl/Nonliving_Things/Kitchen_Uten/fondue_20.jpg
p1019
sg21
F1.0124238162534311
sS'trials.thisTrialN'
p1020
I84
sa(dp1021
g31
g32
sg17
F366.70196766604204
sg24
I1
sg35
g39
sg14
F366.69717319309711
sg16
g36
(g70
S'\x02\x00\x00\x00'
tRp1022
sg42
g43
sg46
g47
sg15
g72
sg22
F368.88258673308883
sg64
g205
sg62
g74
sg49
g50
sS'trials.thisN'
p1023
I85
sg19
I1
sg27
g36
(g38
S'\x00\x00\x00\x00\x00\x00\x18@'
tRp1024
sg52
g53
sg23
S'1'
sg18
F367.95982366276439
sg33
g34
sg51
g11
sg20
S'2'
sg65
g36
(g77
S'\x00\x00\x00\x00\x00\x00\x00\x00'
tRp1025
sg44
g45
sg40
g41
sg25
F0.5113330417079851
sS'trials.thisIndex'
p1026
g36
(g80
S'5\x00\x00\x00'
tRp1027
sg26
V5
sS'trials.thisRepN'
p1028
I0
sg66
Vmill
p1029
sg63
V../experiment_stimuli/bw_bc_bl/Nonliving_Things/Buildings/mill_3.jpg
p1030
sg21
F0.90220213565044105
sS'trials.thisTrialN'
p1031
I85
sa(dp1032
g31
g32
sg17
F371.1326758392388
sg24
I0
sg35
g39
sg14
F371.12680801353417
sg16
g36
(g70
S'\x01\x00\x00\x00'
tRp1033
sg42
g43
sg46
g47
sg15
g72
sg22
F373.2420511636883
sg64
g149
sg62
g102
sg49
g50
sS'trials.thisN'
p1034
I86
sg19
I1
sg27
g36
(g38
S'\x00\x00\x00\x00\x00\x00\x1a@'
tRp1035
sg52
g53
sg23
S'2'
sg18
F372.4094948990969
sg33
g34
sg51
g11
sg20
S'1'
sg65
g36
(g77
S'\x00\x00\x00\x00\x00\x00\x00\x00'
tRp1036
sg44
g45
sg40
g41
sg25
F0.54140933637972921
sS'trials.thisIndex'
p1037
g36
(g80
S'P\x00\x00\x00'
tRp1038
sg26
V5
sS'trials.thisRepN'
p1039
I0
sg66
Vsperm-whale
p1040
sg63
V../experiment_stimuli/bw_bc_bl/Living_Things/Marine_creatures/sperm-whale_19.jpg
p1041
sg21
F0.81198858155403286
sS'trials.thisTrialN'
p1042
I86
sa(dp1043
g31
g32
sg17
F375.52128661924507
sg24
I0
sg35
g39
sg14
F375.51634412968997
sg16
g36
(g70
S'\x01\x00\x00\x00'
tRp1044
sg42
g43
sg46
g47
sg15
g88
sg22
F377.67168279981706
sg64
g205
sg62
g74
sg49
g50
sS'trials.thisN'
p1045
I87
sg19
I1
sg27
g36
(g38
S'\x00\x00\x00\x00\x00\x00\x1e@'
tRp1046
sg52
g53
sg23
S'2'
sg18
F376.78902065893635
sg33
g34
sg51
g11
sg20
S'1'
sg65
g36
(g77
S'\x00\x00\x00\x00\x00\x00\x00\x00'
tRp1047
sg44
g45
sg40
g41
sg25
F0.44119215151295066
sS'trials.thisIndex'
p1048
g36
(g80
S'\x0e\x00\x00\x00'
tRp1049
sg26
V5
sS'trials.thisRepN'
p1050
I0
sg66
Vcathedral
p1051
sg63
V../experiment_stimuli/bw_bc_bl/Nonliving_Things/Buildings/cathedral_19.jpg
p1052
sg21
F0.86210237513296306
sS'trials.thisTrialN'
p1053
I87
sa(dp1054
g31
g32
sg17
F379.8505298960954
sg24
I0
sg35
g39
sg14
F379.84575765626505
sg16
g36
(g70
S'\x01\x00\x00\x00'
tRp1055
sg42
g43
sg46
g47
sg15
g72
sg22
F383.27385884628166
sg64
g149
sg62
g102
sg49
g50
sS'trials.thisN'
p1056
I88
sg19
I1
sg27
g36
(g38
S'\x00\x00\x00\x00\x00\x00\x18@'
tRp1057
sg52
g53
sg23
S'2'
sg18
F381.10840656165965
sg33
g34
sg51
g11
sg20
S'1'
sg65
g36
(g77
S'\x00\x00\x00\x00\x00\x00\x00\x00'
tRp1058
sg44
g45
sg40
g41
sg25
F0.69175820960663259
sS'trials.thisIndex'
p1059
g36
(g80
S'7\x00\x00\x00'
tRp1060
sg26
V5
sS'trials.thisRepN'
p1061
I0
sg66
Vnarwhal
p1062
sg63
V../experiment_stimuli/bw_bc_bl/Living_Things/Marine_creatures/narwhal_7.jpg
p1063
sg21
F2.1448746881214902
sS'trials.thisTrialN'
p1064
I88
sa(dp1065
g31
g32
sg17
F385.70474768278655
sg24
I0
sg35
g39
sg14
F385.69848677970003
sg16
g36
(g70
S'\x02\x00\x00\x00'
tRp1066
sg42
g43
sg46
g47
sg15
g88
sg22
F387.72352369176224
sg64
g137
sg62
g102
sg49
g50
sS'trials.thisN'
p1067
I89
sg19
I1
sg27
g36
(g38
S'\x00\x00\x00\x00\x00\x00\x18@'
tRp1068
sg52
g53
sg23
S'2'
sg18
F386.95111613732297
sg33
g34
sg51
g11
sg20
S'2'
sg65
g36
(g77
S'\x00\x00\x00\x00\x00\x00\x00\x00'
tRp1069
sg44
g45
sg40
g41
sg25
F0.37102908873930573
sS'trials.thisIndex'
p1070
g36
(g80
S"'\x00\x00\x00"
tRp1071
sg26
V5
sS'trials.thisRepN'
p1072
I0
sg66
Vhippopotamus
p1073
sg63
V../experiment_stimuli/bw_bc_bl/Living_Things/Animals/hippopotamus_6.jpg
p1074
sg21
F0.75186055549420416
sS'trials.thisTrialN'
p1075
I89
sa(dp1076
g31
g32
sg17
F389.83223893528339
sg24
I1
sg35
g39
sg14
F389.82745946606155
sg16
g36
(g70
S'\x01\x00\x00\x00'
tRp1077
sg42
g43
sg46
g47
sg15
g88
sg22
F391.77233670663554
sg64
g73
sg62
g74
sg49
g50
sS'trials.thisN'
p1078
I90
sg19
I0
sg27
g36
(g38
S'\x00\x00\x00\x00\x00\x00\x1a@'
tRp1079
sg52
g53
sg23
S'1'
sg18
F391.07006938068662
sg33
g34
sg51
g11
sg20
S'2'
sg65
g36
(g77
S'\x00\x00\x00\x00\x00\x00\x00\x00'
tRp1080
sg44
g45
sg40
g41
sg25
F0.35098888701759279
sS'trials.thisIndex'
p1081
g36
(g80
S'N\x00\x00\x00'
tRp1082
sg26
V5
sS'trials.thisRepN'
p1083
I0
sg66
Vsofa
p1084
sg63
V../experiment_stimuli/bw_bc_bl/Nonliving_Things/Furniture/sofa_25.jpg
p1085
sg21
F0.68170553760137409
sS'trials.thisTrialN'
p1086
I90
sa(dp1087
g31
g32
sg17
F393.86262243962847
sg24
I1
sg35
g39
sg14
F393.85621824185364
sg16
g36
(g70
S'\x01\x00\x00\x00'
tRp1088
sg42
g43
sg46
g47
sg15
g88
sg22
F395.75103009014856
sg64
g73
sg62
g74
sg49
g50
sS'trials.thisN'
p1089
I91
sg19
I1
sg27
g36
(g38
S'\x00\x00\x00\x00\x00\x00\x1e@'
tRp1090
sg52
g53
sg23
S'1'
sg18
F395.12971846596338
sg33
g34
sg51
g11
sg20
S'1'
sg65
g36
(g77
S'\x00\x00\x00\x00\x00\x00\x00\x00'
tRp1091
sg44
g45
sg40
g41
sg25
F0.43123662110883743
sS'trials.thisIndex'
p1092
g36
(g80
S'\x06\x00\x00\x00'
tRp1093
sg26
V5
sS'trials.thisRepN'
p1094
I0
sg66
Vbedside-table
p1095
sg63
V../experiment_stimuli/bw_bc_bl/Nonliving_Things/Furniture/bedside-table_4.jpg
p1096
sg21
F0.60157956136390567
sS'trials.thisTrialN'
p1097
I91
sa(dp1098
g31
g32
sg17
F397.91988229600247
sg24
I1
sg35
g39
sg14
F397.91503717354499
sg16
g36
(g70
S'\x01\x00\x00\x00'
tRp1099
sg42
g43
sg46
g47
sg15
g72
sg22
F401.20283284306061
sg64
g149
sg62
g102
sg49
g50
sS'trials.thisN'
p1100
I92
sg19
I0
sg27
g36
(g38
S'\x00\x00\x00\x00\x00\x00\x18@'
tRp1101
sg52
g53
sg23
S'1'
sg18
F399.19773155171424
sg33
g34
sg51
g11
sg20
S'2'
sg65
g36
(g77
S'\x00\x00\x00\x00\x00\x00\x00\x00'
tRp1102
sg44
g45
sg40
g41
sg25
F0.34095239522866905
sS'trials.thisIndex'
p1103
g36
(g80
S'1\x00\x00\x00'
tRp1104
sg26
V5
sS'trials.thisRepN'
p1105
I0
sg66
Vlobster
p1106
sg63
V../experiment_stimuli/bw_bc_bl/Living_Things/Marine_creatures/lobster_3.jpg
p1107
sg21
F1.9845417739124969
sS'trials.thisTrialN'
p1108
I92
sa(dp1109
g31
g32
sg17
F403.28163234610111
sg24
I1
sg35
g39
sg14
F403.27670832606964
sg16
g36
(g70
S'\x02\x00\x00\x00'
tRp1110
sg42
g43
sg46
g47
sg15
g88
sg22
F405.61241051834077
sg64
g114
sg62
g102
sg49
g50
sS'trials.thisN'
p1111
I93
sg19
I1
sg27
g36
(g38
S'\x00\x00\x00\x00\x00\x00\x18@'
tRp1112
sg52
g53
sg23
S'1'
sg18
F404.59947924665175
sg33
g34
sg51
g11
sg20
S'2'
sg65
g36
(g77
S'\x00\x00\x00\x00\x00\x00\x00\x00'
tRp1113
sg44
g45
sg40
g41
sg25
F0.37101722019724548
sS'trials.thisIndex'
p1114
g36
(g80
S'8\x00\x00\x00'
tRp1115
sg26
V5
sS'trials.thisRepN'
p1116
I0
sg66
Vostrich
p1117
sg63
V../experiment_stimuli/bw_bc_bl/Living_Things/Birds/ostrich_20.jpg
p1118
sg21
F0.99237406230531633
sS'trials.thisTrialN'
p1119
I93
sa(dp1120
g31
g32
sg17
F407.72104118415155
sg24
I0
sg35
g39
sg14
F407.71634646190796
sg16
g36
(g70
S'\x02\x00\x00\x00'
tRp1121
sg42
g43
sg46
g47
sg15
g88
sg22
F409.89173523546197
sg64
g149
sg62
g102
sg49
g50
sS'trials.thisN'
p1122
I94
sg19
I1
sg27
g36
(g38
S'\x00\x00\x00\x00\x00\x00\x18@'
tRp1123
sg52
g53
sg23
S'2'
sg18
F409.04915135155898
sg33
g34
sg51
g11
sg20
S'2'
sg65
g36
(g77
S'\x00\x00\x00\x00\x00\x00\x00\x00'
tRp1124
sg44
g45
sg40
g41
sg25
F0.33078963099978864
sS'trials.thisIndex'
p1125
g36
(g80
S'^\x00\x00\x00'
tRp1126
sg26
V5
sS'trials.thisRepN'
p1127
I0
sg66
Vwhale
p1128
sg63
V../experiment_stimuli/bw_bc_bl/Living_Things/Marine_creatures/whale_24.jpg
p1129
sg21
F0.82202419731765985
sS'trials.thisTrialN'
p1130
I94
sa(dp1131
g31
g32
sg17
F411.97038054908626
sg24
I1
sg35
g39
sg14
F411.96558886556886
sg16
g36
(g70
S'\x02\x00\x00\x00'
tRp1132
sg42
g43
sg46
g47
sg15
g88
sg22
F414.17102394602261
sg64
g114
sg62
g102
sg49
g50
sS'trials.thisN'
p1133
I95
sg19
I1
sg27
g36
(g38
S'\x00\x00\x00\x00\x00\x00\x18@'
tRp1134
sg52
g53
sg23
S'1'
sg18
F413.28836740646511
sg33
g34
sg51
g11
sg20
S'2'
sg65
g36
(g77
S'\x00\x00\x00\x00\x00\x00\x00\x00'
tRp1135
sg44
g45
sg40
g41
sg25
F0.31089574296493083
sS'trials.thisIndex'
p1136
g36
(g80
S'3\x00\x00\x00'
tRp1137
sg26
V5
sS'trials.thisRepN'
p1138
I0
sg66
Vmagpie
p1139
sg63
V../experiment_stimuli/bw_bc_bl/Living_Things/Birds/magpie_18.jpg
p1140
sg21
F0.86209893156774342
sS'trials.thisTrialN'
p1141
I95
sasS'loops'
p1142
(lp1143
g1
(cpsychopy.data
TrialHandler
p1144
g3
NtRp1145
(dp1146
S'origin'
p1147
NsS'thisTrial'
p1148
(lp1149
sS'_exp'
p1150
I97313040
sg10
S'trials'
p1151
sg6
I-1
sS'thisRepN'
p1152
I1
sg28
I01
sg29
g30
sS'data'
p1153
g1
(cpsychopy.data
DataHandler
p1154
c__builtin__
dict
p1155
(dp1156
g20
cnumpy.core.multiarray
_reconstruct
p1157
(cnumpy
ndarray
p1158
(I0
tS'b'
tRp1159
(I1
(I96
I1
tg37
(S'O4'
I0
I1
tRp1160
(I3
S'|'
NNNI-1
I-1
I63
tbI00
(lp1161
S'1'
aS'1'
aS'1'
aS'2'
aS'2'
aS'1'
aS'1'
aS'2'
aS'2'
aS'2'
aS'1'
aS'2'
aS'2'
aS'1'
aS'1'
aS'2'
aS'1'
aS'2'
aS'2'
aS'1'
aS'2'
aS'1'
aS'2'
aS'1'
aS'1'
aS'1'
aS'2'
aS'1'
aS'2'
aS'2'
aS'1'
aS'1'
aS'1'
aS'1'
aS'1'
aS'1'
aS'1'
aS'2'
aS'1'
aS'2'
aS'2'
aS'2'
aS'1'
aS'2'
aS'1'
aS'1'
aS'1'
aS'2'
aS'2'
aS'2'
aS'2'
aS'2'
aS'2'
aS'2'
aS'1'
aS'1'
aS'2'
aS'1'
aS'2'
aS'2'
aS'1'
aS'1'
aS'1'
aS'2'
aS'2'
aS'2'
aS'2'
aS'2'
aS'1'
aS'2'
aS'1'
aS'2'
aS'2'
aS'2'
aS'1'
aS'2'
aS'2'
aS'1'
aS'2'
aS'1'
aS'1'
aS'1'
aS'2'
aS'1'
aS'2'
aS'2'
aS'1'
aS'2'
aS'1'
aS'2'
aS'2'
aS'1'
aS'2'
aS'2'
aS'2'
aS'1'
atbsg17
cnumpy.ma.core
_mareconstruct
p1162
(cnumpy.ma.core
MaskedArray
p1163
g1158
(I0
tp1164
S'b'
tRp1165
(I1
(I96
I1
tg37
(S'f4'
I0
I1
tRp1166
(I3
S'<'
NNNI-1
I-1
I0
tbI00
S'\xb1uqC9c\xa3C\x92\xe0-B=\xd1\xb0C\xe0\xc2HC~\xad\x1dCj\xee\xc4C\xa2\xb2\xacC\xbe\x1f\tCh$\xa2B\x07\x8f\x8cC\xab}\x15C\xbc\xbc\xaeC\xc4\xa6mC\xba\xc2\xbbCoQ>B\xc2G\xaaBI\xcb\rCO\x11\xaaC\xc3\n\x93C#\x95;C8\x9e&C\xec\x13\xbbBl\xe7\xfeBr\'AA\x91\x91uCk\xb6DC=\xa6\xdcB\x950OB\x1b97C#$\xb5C\xf8\x86\x8eC+\\"C\xdb\xe6\x03C\xc4T\x86Ay6@Cs\x83\xd4B1\xb1\x80C\xef\xce\x9cC5\xda\xc0C\xb86\xcfAUw\xedB\xa3\xb2\x95Ci~2C\xbab}C\x92\x04\x98C\x14\xaf\x8aC\xed\x0e\x9fC0\xb4\xf5B\xbf\xf5\xc6C\xcaryC5\xfc\xcdC(\xe4\xb2C\xdaY\xb7C\xbam\x89B\xde\xec\xbdC\r\xa4\xc9C\xa4\xce\x90CJb.C]\x1e\xb2Bi\xb8\x1cBeu\x19C\x9a\xaa\x84C%\x8fTC!\x82_B=H\x0bBh,\xa1C\xcd%\x92B\x1fd\x81BG\xddpB2\x1b\x9aBX\x02\xaaA\xb3\xbf\x9aC\xeb\xc8\x88C\xf9\x95*CF\xb0\xf3A\xf6\xf8dC\xe3\xc9\xfe@\x87\xea\xc2C\xc0\xaf\x82C\xfc\x90\xb9C\xb6\x08aCm\xbdLC\xc6\xfdhC\'F\xccBI\xba\xa5CS\x9ePC\\\xa9\x11C\r\xadXC\xcf\xf4\xc3B\x99\x95\\C\xab\x00\xa8C\xcc\xbe\x86C\xb8Zo@K\xdc\xcbC\xb2\x96\xe4B'
S'\x00\x00\x00\x00\x00\x00\x00\x00\x00\x00\x00\x00\x00\x00\x00\x00\x00\x00\x00\x00\x00\x00\x00\x00\x00\x00\x00\x00\x00\x00\x00\x00\x00\x00\x00\x00\x00\x00\x00\x00\x00\x00\x00\x00\x00\x00\x00\x00\x00\x00\x00\x00\x00\x00\x00\x00\x00\x00\x00\x00\x00\x00\x00\x00\x00\x00\x00\x00\x00\x00\x00\x00\x00\x00\x00\x00\x00\x00\x00\x00\x00\x00\x00\x00\x00\x00\x00\x00\x00\x00\x00\x00\x00\x00\x00\x00'
NtbsS'ran'
p1167
g1162
(g1163
g1158
g1164
S'b'
tRp1168
(I1
(I96
I1
tg1166
I00
S'\x00\x00\x80?\x00\x00\x80?\x00\x00\x80?\x00\x00\x80?\x00\x00\x80?\x00\x00\x80?\x00\x00\x80?\x00\x00\x80?\x00\x00\x80?\x00\x00\x80?\x00\x00\x80?\x00\x00\x80?\x00\x00\x80?\x00\x00\x80?\x00\x00\x80?\x00\x00\x80?\x00\x00\x80?\x00\x00\x80?\x00\x00\x80?\x00\x00\x80?\x00\x00\x80?\x00\x00\x80?\x00\x00\x80?\x00\x00\x80?\x00\x00\x80?\x00\x00\x80?\x00\x00\x80?\x00\x00\x80?\x00\x00\x80?\x00\x00\x80?\x00\x00\x80?\x00\x00\x80?\x00\x00\x80?\x00\x00\x80?\x00\x00\x80?\x00\x00\x80?\x00\x00\x80?\x00\x00\x80?\x00\x00\x80?\x00\x00\x80?\x00\x00\x80?\x00\x00\x80?\x00\x00\x80?\x00\x00\x80?\x00\x00\x80?\x00\x00\x80?\x00\x00\x80?\x00\x00\x80?\x00\x00\x80?\x00\x00\x80?\x00\x00\x80?\x00\x00\x80?\x00\x00\x80?\x00\x00\x80?\x00\x00\x80?\x00\x00\x80?\x00\x00\x80?\x00\x00\x80?\x00\x00\x80?\x00\x00\x80?\x00\x00\x80?\x00\x00\x80?\x00\x00\x80?\x00\x00\x80?\x00\x00\x80?\x00\x00\x80?\x00\x00\x80?\x00\x00\x80?\x00\x00\x80?\x00\x00\x80?\x00\x00\x80?\x00\x00\x80?\x00\x00\x80?\x00\x00\x80?\x00\x00\x80?\x00\x00\x80?\x00\x00\x80?\x00\x00\x80?\x00\x00\x80?\x00\x00\x80?\x00\x00\x80?\x00\x00\x80?\x00\x00\x80?\x00\x00\x80?\x00\x00\x80?\x00\x00\x80?\x00\x00\x80?\x00\x00\x80?\x00\x00\x80?\x00\x00\x80?\x00\x00\x80?\x00\x00\x80?\x00\x00\x80?\x00\x00\x80?\x00\x00\x80?\x00\x00\x80?'
S'\x00\x00\x00\x00\x00\x00\x00\x00\x00\x00\x00\x00\x00\x00\x00\x00\x00\x00\x00\x00\x00\x00\x00\x00\x00\x00\x00\x00\x00\x00\x00\x00\x00\x00\x00\x00\x00\x00\x00\x00\x00\x00\x00\x00\x00\x00\x00\x00\x00\x00\x00\x00\x00\x00\x00\x00\x00\x00\x00\x00\x00\x00\x00\x00\x00\x00\x00\x00\x00\x00\x00\x00\x00\x00\x00\x00\x00\x00\x00\x00\x00\x00\x00\x00\x00\x00\x00\x00\x00\x00\x00\x00\x00\x00\x00\x00'
Ntbsg24
g1162
(g1163
g1158
g1164
S'b'
tRp1169
(I1
(I96
I1
tg1166
I00
S'\x00\x00\x00\x00\x00\x00\x80?\x00\x00\x00\x00\x00\x00\x80?\x00\x00\x00\x00\x00\x00\x80?\x00\x00\x80?\x00\x00\x00\x00\x00\x00\x00\x00\x00\x00\x00\x00\x00\x00\x00\x00\x00\x00\x00\x00\x00\x00\x00\x00\x00\x00\x80?\x00\x00\x00\x00\x00\x00\x00\x00\x00\x00\x00\x00\x00\x00\x00\x00\x00\x00\x80?\x00\x00\x80?\x00\x00\x80?\x00\x00\x00\x00\x00\x00\x00\x00\x00\x00\x80?\x00\x00\x00\x00\x00\x00\x00\x00\x00\x00\x80?\x00\x00\x80?\x00\x00\x80?\x00\x00\x00\x00\x00\x00\x00\x00\x00\x00\x80?\x00\x00\x80?\x00\x00\x80?\x00\x00\x80?\x00\x00\x00\x00\x00\x00\x00\x00\x00\x00\x80?\x00\x00\x80?\x00\x00\x00\x00\x00\x00\x80?\x00\x00\x00\x00\x00\x00\x80?\x00\x00\x80?\x00\x00\x00\x00\x00\x00\x80?\x00\x00\x00\x00\x00\x00\x00\x00\x00\x00\x00\x00\x00\x00\x80?\x00\x00\x80?\x00\x00\x80?\x00\x00\x80?\x00\x00\x80?\x00\x00\x00\x00\x00\x00\x00\x00\x00\x00\x80?\x00\x00\x80?\x00\x00\x80?\x00\x00\x00\x00\x00\x00\x00\x00\x00\x00\x80?\x00\x00\x00\x00\x00\x00\x80?\x00\x00\x80?\x00\x00\x80?\x00\x00\x00\x00\x00\x00\x80?\x00\x00\x80?\x00\x00\x00\x00\x00\x00\x80?\x00\x00\x00\x00\x00\x00\x00\x00\x00\x00\x80?\x00\x00\x00\x00\x00\x00\x80?\x00\x00\x00\x00\x00\x00\x80?\x00\x00\x80?\x00\x00\x00\x00\x00\x00\x00\x00\x00\x00\x00\x00\x00\x00\x00\x00\x00\x00\x80?\x00\x00\x80?\x00\x00\x00\x00\x00\x00\x00\x00\x00\x00\x80?\x00\x00\x00\x00\x00\x00\x00\x00\x00\x00\x80?\x00\x00\x00\x00\x00\x00\x00\x00\x00\x00\x00\x00\x00\x00\x00\x00\x00\x00\x80?'
S'\x00\x00\x00\x00\x00\x00\x00\x00\x00\x00\x00\x00\x00\x00\x00\x00\x00\x00\x00\x00\x00\x00\x00\x00\x00\x00\x00\x00\x00\x00\x00\x00\x00\x00\x00\x00\x00\x00\x00\x00\x00\x00\x00\x00\x00\x00\x00\x00\x00\x00\x00\x00\x00\x00\x00\x00\x00\x00\x00\x00\x00\x00\x00\x00\x00\x00\x00\x00\x00\x00\x00\x00\x00\x00\x00\x00\x00\x00\x00\x00\x00\x00\x00\x00\x00\x00\x00\x00\x00\x00\x00\x00\x00\x00\x00\x00'
Ntbsg14
g1162
(g1163
g1158
g1164
S'b'
tRp1170
(I1
(I96
I1
tg1166
I00
S'vtqC\x9cb\xa3C\xab\xdb-B{\xd0\xb0C\xa6\xc1HC=\xac\x1dC\x99\xed\xc4C\x08\xb2\xacC<\x1e\tC\xec!\xa2B9\x8e\x8cC(|\x15C \xbc\xaeC\x8a\xa5mC\x18\xc2\xbbC6K>B,E\xaaB\xcb\xc9\rC\x91\x10\xaaC\'\n\x93C\xea\x93;C\xbb\x9c&C\x15\x11\xbbB\xe8\xe4\xfeB{\x0fAAX\x90uC(\xb5DC\xc4\xa3\xdcB\xa7+OB\xe477C\x88#\xb5C\\\x86\x8eC\\Z"C\x91\xe5\x03C\xd3J\x86A65@C\x84\x80\xd4B\x94\xb0\x80CO\xce\x9cCh\xd9\xc0C\xb3+\xcfA\xcet\xedB\x08\xb2\x95C\xf0|2C\x7fa}C\xf6\x03\x98Cv\xae\x8aCG\x0e\x9fC\xb6\xb1\xf5B \xf5\xc6C:qyC\x98\xfb\xcdC\x8f\xe3\xb2C=Y\xb7C6k\x89BB\xec\xbdCk\xa3\xc9C\x07\xce\x90C\ra.Ct\x1b\xb2Bf\xb3\x1cB t\x19C\xd5\xa9\x84CU\x8dTCi|_BOC\x0bB\x9e+\xa1CC#\x92B\x9fa\x81B\xfd\xd7pBV\x18\x9aBG\xf8\xa9A\x15\xbf\x9aCI\xc8\x88C\xb3\x94*Cf\xa6\xf3A\xc0\xf7dC\x8d\xa2\xfe@\xea\xe9\xc2C"\xaf\x82C;\x90\xb9Cz\x07aC/\xbcLC\x8c\xfchC\x9cC\xccB\xac\xb9\xa5C\x10\x9dPC\x1c\xa8\x11C\xc9\xabXC/\xf2\xc3B]\x94\\C\x0f\x00\xa8C0\xbe\x86C\xdf\xf5m@\xb1\xdb\xcbC\xb4\x93\xe4B'
S'\x00\x00\x00\x00\x00\x00\x00\x00\x00\x00\x00\x00\x00\x00\x00\x00\x00\x00\x00\x00\x00\x00\x00\x00\x00\x00\x00\x00\x00\x00\x00\x00\x00\x00\x00\x00\x00\x00\x00\x00\x00\x00\x00\x00\x00\x00\x00\x00\x00\x00\x00\x00\x00\x00\x00\x00\x00\x00\x00\x00\x00\x00\x00\x00\x00\x00\x00\x00\x00\x00\x00\x00\x00\x00\x00\x00\x00\x00\x00\x00\x00\x00\x00\x00\x00\x00\x00\x00\x00\x00\x00\x00\x00\x00\x00\x00'
Ntbsg16
g1157
(g1158
(I0
tS'b'
tRp1171
(I1
(I96
I1
tg1160
I00
(lp1172
g702
ag923
ag182
ag989
ag592
ag482
ag1088
ag967
ag427
ag283
ag813
ag460
ag978
ag691
ag1044
ag193
ag294
ag438
ag956
ag846
ag559
ag504
ag316
ag405
ag100
ag713
ag581
ag361
ag204
ag548
ag1011
ag824
ag493
ag416
ag113
ag570
ag350
ag746
ag890
ag1066
ag136
ag383
ag857
ag537
ag735
ag868
ag802
ag901
ag394
ag1099
ag724
ag1132
ag1000
ag1022
ag250
ag1055
ag1110
ag835
ag526
ag305
ag171
ag471
ag769
ag625
ag216
ag160
ag912
ag261
ag239
ag228
ag272
ag125
ag879
ag791
ag515
ag148
ag669
ag87
ag1077
ag758
ag1033
ag658
ag603
ag680
ag339
ag934
ag614
ag449
ag636
ag327
ag647
ag945
ag780
ag71
ag1121
ag372
atbsg15
g1157
(g1158
(I0
tS'b'
tRp1173
(I1
(I96
I1
tg1160
I00
(lp1174
g88
ag72
ag88
ag72
ag88
ag72
ag88
ag72
ag72
ag72
ag72
ag72
ag72
ag72
ag88
ag72
ag72
ag72
ag88
ag88
ag72
ag72
ag72
ag88
ag72
ag88
ag88
ag72
ag72
ag72
ag88
ag88
ag72
ag88
ag88
ag88
ag88
ag72
ag72
ag88
ag88
ag72
ag72
ag72
ag72
ag72
ag88
ag72
ag88
ag72
ag88
ag88
ag72
ag72
ag88
ag72
ag88
ag72
ag72
ag88
ag72
ag72
ag72
ag72
ag88
ag88
ag72
ag72
ag72
ag72
ag72
ag72
ag72
ag72
ag72
ag88
ag72
ag88
ag88
ag72
ag72
ag88
ag88
ag72
ag72
ag88
ag88
ag72
ag88
ag72
ag88
ag88
ag72
ag72
ag88
ag72
atbsg22
g1162
(g1163
g1158
g1164
S'b'
tRp1175
(I1
(I96
I1
tg1166
I00
S'\x91\x82sC\x85\xa8\xa4C\xd4\t6B\x03\xc3\xb1C\x96\xa1JC\xa1: C"\xe0\xc5C7\xb5\xadC$\x86\x0bCY\x1f\xa6BVz\x8dCWf\x17C.\xc3\xafC\x8eaoC\xfa\xd5\xbcCz\xcbFBM\x0f\xaeB\xc3\x97\x0fC\xe1\xa0\xabCQ\x9e\x94C+\x1d>C\x9d\x8e(C\xa1\xd6\xbfBE\xc3\x01CxziA\x19kwCo\xb6FC\xa1c\xe0B\x08;WB\x87\x839C\xa7J\xb6C\x92\xc4\x8fC\xd2\x89$C\xb6\xdf\x06C\xf67\x99A\x8d\x9aBC\xf8}\xd8B\xce\xaa\x81C\xdc\xfb\x9dC\x9c\xdc\xc1C\xf2\x93\xe2A&\x96\xf1Be\xe3\x96C\xae"5CAN\x7fC6\xaf\x99Cl\x95\x8bCw\x1a\xa0C~\x0b\xfaB\xf6\x99\xc8C\x98N{C\xe4\x15\xcfC\x14\x1a\xb4C\xf9p\xb8C\xd5\x0c\x8eB\x0e\xa3\xbfCc\xce\xcaC\xc7\xdc\x91Cvg0C \xe6\xb6B\xb8\\%B\xc2\x96\x1bC\xee\x9e\x85C\xe4\x98VC\xe7\xa0hB\xd9\x90\x14B\x0cK\xa2C(\x0c\x96BfE\x85B\xb4\x81zB\x8d\x10\x9eBVB\xbeA\xda\xc4\x9bCF\xaf\x89C#N,C\xf7*\x03Bx\xf6fCdo\x1eA\xdc\xe2\xc3C\xf1\xa2\x83C\xfc\x9e\xbaCH\xe2bCu\x82NC\xcd\x85kC;o\xd0BW\xec\xa6ClzRC\xc5k\x13C%\x89ZC \x04\xc8B\xd4\xfe^C?\x03\xa9C\xd4\xbe\x87C\x1e\xff\xba@$\xf2\xccC\xbaD\xe9B'
S'\x00\x00\x00\x00\x00\x00\x00\x00\x00\x00\x00\x00\x00\x00\x00\x00\x00\x00\x00\x00\x00\x00\x00\x00\x00\x00\x00\x00\x00\x00\x00\x00\x00\x00\x00\x00\x00\x00\x00\x00\x00\x00\x00\x00\x00\x00\x00\x00\x00\x00\x00\x00\x00\x00\x00\x00\x00\x00\x00\x00\x00\x00\x00\x00\x00\x00\x00\x00\x00\x00\x00\x00\x00\x00\x00\x00\x00\x00\x00\x00\x00\x00\x00\x00\x00\x00\x00\x00\x00\x00\x00\x00\x00\x00\x00\x00'
Ntbsg26
g1157
(g1158
(I0
tS'b'
tRp1176
(I1
(I96
I1
tg1160
I00
(lp1177
g36
(g80
S'\x06\x00\x00\x00'
tRp1178
ag36
(g80
S'\x04\x00\x00\x00'
tRp1179
ag36
(g80
S'\x07\x00\x00\x00'
tRp1180
ag36
(g80
S'\x01\x00\x00\x00'
tRp1181
ag36
(g80
S'\x07\x00\x00\x00'
tRp1182
ag36
(g80
S'\x03\x00\x00\x00'
tRp1183
ag36
(g80
S'\x04\x00\x00\x00'
tRp1184
ag36
(g80
S'\x05\x00\x00\x00'
tRp1185
ag36
(g80
S'\x07\x00\x00\x00'
tRp1186
ag36
(g80
S'\n\x00\x00\x00'
tRp1187
ag36
(g80
S'\x03\x00\x00\x00'
tRp1188
ag36
(g80
S'\x04\x00\x00\x00'
tRp1189
ag36
(g80
S'\x02\x00\x00\x00'
tRp1190
ag36
(g80
S'\x03\x00\x00\x00'
tRp1191
ag36
(g80
S'\x05\x00\x00\x00'
tRp1192
ag36
(g80
S'\x05\x00\x00\x00'
tRp1193
ag36
(g80
S'\x07\x00\x00\x00'
tRp1194
ag36
(g80
S'\x04\x00\x00\x00'
tRp1195
ag36
(g80
S'\x02\x00\x00\x00'
tRp1196
ag36
(g80
S'\x04\x00\x00\x00'
tRp1197
ag36
(g80
S'\x04\x00\x00\x00'
tRp1198
ag36
(g80
S'\x06\x00\x00\x00'
tRp1199
ag36
(g80
S'\x05\x00\x00\x00'
tRp1200
ag36
(g80
S'\x04\x00\x00\x00'
tRp1201
ag36
(g80
S'\x04\x00\x00\x00'
tRp1202
ag36
(g80
S'\x05\x00\x00\x00'
tRp1203
ag36
(g80
S'\x05\x00\x00\x00'
tRp1204
ag36
(g80
S'\x02\x00\x00\x00'
tRp1205
ag36
(g80
S'\x03\x00\x00\x00'
tRp1206
ag36
(g80
S'\x05\x00\x00\x00'
tRp1207
ag36
(g80
S'\x05\x00\x00\x00'
tRp1208
ag36
(g80
S'\x01\x00\x00\x00'
tRp1209
ag36
(g80
S'\x04\x00\x00\x00'
tRp1210
ag36
(g80
S'\x06\x00\x00\x00'
tRp1211
ag36
(g80
S'\x01\x00\x00\x00'
tRp1212
ag36
(g80
S'\x07\x00\x00\x00'
tRp1213
ag36
(g80
S'\x04\x00\x00\x00'
tRp1214
ag36
(g80
S'\x03\x00\x00\x00'
tRp1215
ag36
(g80
S'\x06\x00\x00\x00'
tRp1216
ag36
(g80
S'\x03\x00\x00\x00'
tRp1217
ag36
(g80
S'\x01\x00\x00\x00'
tRp1218
ag36
(g80
S'\x08\x00\x00\x00'
tRp1219
ag36
(g80
S'\x05\x00\x00\x00'
tRp1220
ag36
(g80
S'\x04\x00\x00\x00'
tRp1221
ag36
(g80
S'\x04\x00\x00\x00'
tRp1222
ag36
(g80
S'\x07\x00\x00\x00'
tRp1223
ag36
(g80
S'\x05\x00\x00\x00'
tRp1224
ag36
(g80
S'\t\x00\x00\x00'
tRp1225
ag36
(g80
S'\x05\x00\x00\x00'
tRp1226
ag36
(g80
S'\x06\x00\x00\x00'
tRp1227
ag36
(g80
S'\x02\x00\x00\x00'
tRp1228
ag36
(g80
S'\n\x00\x00\x00'
tRp1229
ag36
(g80
S'\x02\x00\x00\x00'
tRp1230
ag36
(g80
S'\x04\x00\x00\x00'
tRp1231
ag36
(g80
S'\x06\x00\x00\x00'
tRp1232
ag36
(g80
S'\x04\x00\x00\x00'
tRp1233
ag36
(g80
S'\t\x00\x00\x00'
tRp1234
ag36
(g80
S'\x02\x00\x00\x00'
tRp1235
ag36
(g80
S'\x02\x00\x00\x00'
tRp1236
ag36
(g80
S'\x06\x00\x00\x00'
tRp1237
ag36
(g80
S'\x08\x00\x00\x00'
tRp1238
ag36
(g80
S'\x02\x00\x00\x00'
tRp1239
ag36
(g80
S'\x04\x00\x00\x00'
tRp1240
ag36
(g80
S'\x03\x00\x00\x00'
tRp1241
ag36
(g80
S'\x05\x00\x00\x00'
tRp1242
ag36
(g80
S'\x06\x00\x00\x00'
tRp1243
ag36
(g80
S'\x06\x00\x00\x00'
tRp1244
ag36
(g80
S'\x05\x00\x00\x00'
tRp1245
ag36
(g80
S'\x04\x00\x00\x00'
tRp1246
ag36
(g80
S'\x07\x00\x00\x00'
tRp1247
ag36
(g80
S'\x07\x00\x00\x00'
tRp1248
ag36
(g80
S'\x02\x00\x00\x00'
tRp1249
ag36
(g80
S'\x08\x00\x00\x00'
tRp1250
ag36
(g80
S'\x02\x00\x00\x00'
tRp1251
ag36
(g80
S'\x03\x00\x00\x00'
tRp1252
ag36
(g80
S'\x04\x00\x00\x00'
tRp1253
ag36
(g80
S'\x03\x00\x00\x00'
tRp1254
ag36
(g80
S'\x02\x00\x00\x00'
tRp1255
ag36
(g80
S'\x02\x00\x00\x00'
tRp1256
ag36
(g80
S'\x05\x00\x00\x00'
tRp1257
ag36
(g80
S'\x06\x00\x00\x00'
tRp1258
ag36
(g80
S'\x05\x00\x00\x00'
tRp1259
ag36
(g80
S'\x06\x00\x00\x00'
tRp1260
ag36
(g80
S'\x02\x00\x00\x00'
tRp1261
ag36
(g80
S'\x01\x00\x00\x00'
tRp1262
ag36
(g80
S'\x06\x00\x00\x00'
tRp1263
ag36
(g80
S'\x05\x00\x00\x00'
tRp1264
ag36
(g80
S'\x02\x00\x00\x00'
tRp1265
ag36
(g80
S'\x06\x00\x00\x00'
tRp1266
ag36
(g80
S'\x04\x00\x00\x00'
tRp1267
ag36
(g80
S'\x03\x00\x00\x00'
tRp1268
ag36
(g80
S'\x05\x00\x00\x00'
tRp1269
ag36
(g80
S'\x03\x00\x00\x00'
tRp1270
aS'5.0'
p1271
ag36
(g80
S'\x0b\x00\x00\x00'
tRp1272
ag36
(g80
S'\x05\x00\x00\x00'
tRp1273
atbsg21
g1162
(g1163
g1158
g1164
S'b'
tRp1274
(I1
(I96
I1
tg1166
I00
S'\x87y@?\x07\xa9\xa1?\xd3W;?MA$?\xd9\xbc\x0f?\xe89\xa4?\x1e\x01\x1a?\xc0M;?\xda\xda\x8b?\x9a\xd1&?\x03\xbb\x0f?\x1b\xb0!?J,H?\xf9\x05\xe7>\xbe\xb2\\?\x1d\x00U?s\xdd\x14?fw\x05?\xa2\xa0\xee?#\xa2\xee?\x9f`\xa0?\xd9@$?v\xda\x8b?\x06(\x84?,\x18\x9f?t\xb0\x0f?\xc766?k\x90\x1c?\x0c\xe9=?\x90I\x80?\x1b\x97\x81?\x80\xcf\x9d?\x84\xf5f?UA\xd6?Qk\x8e?\xe7\x91\x8a?\x1886?V\x84.?N\xbc\x86?\xefy@?C\x07\x96?\xd4\xe8=?\x17\xd5\x8b?H}\xae?\xd4A$?=\xef\x00@\x99K\x00?\xc2\x0bC?\xe7\xd3a?w\x05\xfe?\xcan\x17?\x84\xb2\\?v\xd5\x94?\xb8\xf6f?,\x97\x81?\xa0E\t@:\x0c~?\xb8!Z?\x80\nC?Y\xda\x8b?\xd3\x90W?\xeaB_?y\xb0!?\x9b\x9bE?\xb7\r~?\x15\xe0\x82?\xaa9q?\x97b)?\x04d)?I\x1d\x8d?\xfe\xe8+?i\xf1\xa2?~\xc78?\x1a\x9a\n?8\x05\xe7>\xe6\xb8\x86?\x01\xc88?M\x84.?A\x84.?\xf1\x8e\x1c?|\xdeO?`*\r?\x1aH\xf1>h\xf1\xa2?\\\x00U?\xe5\x91\x8a?\xda\xba\x0f?\xdbK\x00?w\xba\x0f?\xd7y@?!D\x92?6\xbd8?p\xc78?\x0b\xdfO?.pR?\xedp\x85?'
S'\x00\x00\x00\x00\x00\x00\x00\x00\x00\x00\x00\x00\x00\x00\x00\x00\x00\x00\x00\x00\x00\x00\x00\x00\x00\x00\x00\x00\x00\x00\x00\x00\x00\x00\x00\x00\x00\x00\x00\x00\x00\x00\x00\x00\x00\x00\x00\x00\x00\x00\x00\x00\x00\x00\x00\x00\x00\x00\x00\x00\x00\x00\x00\x00\x00\x00\x00\x00\x00\x00\x00\x00\x00\x00\x00\x00\x00\x00\x00\x00\x00\x00\x00\x00\x00\x00\x00\x00\x00\x00\x00\x00\x00\x00\x00\x00'
NtbsS'order'
p1275
g1162
(g1163
g1158
g1164
S'b'
tRp1276
(I1
(I96
I1
tg1166
I00
S'\x00\x00`B\x00\x00\x98B\x00\x00\x10A\x00\x00\xa4B\x00\x008B\x00\x00\x10B\x00\x00\xb6B\x00\x00\xa0B\x00\x00\xf8A\x00\x00\x90A\x00\x00\x84B\x00\x00\x08B\x00\x00\xa2B\x00\x00\\B\x00\x00\xaeB\x00\x00 A\x00\x00\x98A\x00\x00\x00B\x00\x00\x9eB\x00\x00\x8aB\x00\x00,B\x00\x00\x18B\x00\x00\xa8A\x00\x00\xe8A\x00\x00\x00@\x00\x00dB\x00\x004B\x00\x00\xc8A\x00\x000A\x00\x00(B\x00\x00\xa8B\x00\x00\x86B\x00\x00\x14B\x00\x00\xf0A\x00\x00@@\x00\x000B\x00\x00\xc0A\x00\x00pB\x00\x00\x92B\x00\x00\xb2B\x00\x00\xa0@\x00\x00\xd8A\x00\x00\x8cB\x00\x00$B\x00\x00lB\x00\x00\x8eB\x00\x00\x82B\x00\x00\x94B\x00\x00\xe0A\x00\x00\xb8B\x00\x00hB\x00\x00\xbeB\x00\x00\xa6B\x00\x00\xaaB\x00\x00pA\x00\x00\xb0B\x00\x00\xbaB\x00\x00\x88B\x00\x00 B\x00\x00\xa0A\x00\x00\x00A\x00\x00\x0cB\x00\x00xB\x00\x00DB\x00\x00@A\x00\x00\xe0@\x00\x00\x96B\x00\x00\x80A\x00\x00`A\x00\x00PA\x00\x00\x88A\x00\x00\x80@\x00\x00\x90B\x00\x00\x80B\x00\x00\x1cB\x00\x00\xc0@\x00\x00TB\x00\x00\x80?\x00\x00\xb4B\x00\x00tB\x00\x00\xacB\x00\x00PB\x00\x00<B\x00\x00XB\x00\x00\xb8A\x00\x00\x9aB\x00\x00@B\x00\x00\x04B\x00\x00HB\x00\x00\xb0A\x00\x00LB\x00\x00\x9cB\x00\x00|B\x00\x00\x00\x00\x00\x00\xbcB\x00\x00\xd0A'
S'\x00\x00\x00\x00\x00\x00\x00\x00\x00\x00\x00\x00\x00\x00\x00\x00\x00\x00\x00\x00\x00\x00\x00\x00\x00\x00\x00\x00\x00\x00\x00\x00\x00\x00\x00\x00\x00\x00\x00\x00\x00\x00\x00\x00\x00\x00\x00\x00\x00\x00\x00\x00\x00\x00\x00\x00\x00\x00\x00\x00\x00\x00\x00\x00\x00\x00\x00\x00\x00\x00\x00\x00\x00\x00\x00\x00\x00\x00\x00\x00\x00\x00\x00\x00\x00\x00\x00\x00\x00\x00\x00\x00\x00\x00\x00\x00'
Ntbsg19
g1162
(g1163
g1158
g1164
S'b'
tRp1277
(I1
(I96
I1
tg1166
I00
S'\x00\x00\x80?\x00\x00\x80?\x00\x00\x80?\x00\x00\x80?\x00\x00\x80?\x00\x00\x00\x00\x00\x00\x80?\x00\x00\x80?\x00\x00\x80?\x00\x00\x80?\x00\x00\x80?\x00\x00\x80?\x00\x00\x80?\x00\x00\x80?\x00\x00\x80?\x00\x00\x80?\x00\x00\x80?\x00\x00\x80?\x00\x00\x00\x00\x00\x00\x80?\x00\x00\x00\x00\x00\x00\x80?\x00\x00\x80?\x00\x00\x00\x00\x00\x00\x80?\x00\x00\x80?\x00\x00\x80?\x00\x00\x80?\x00\x00\x80?\x00\x00\x80?\x00\x00\x80?\x00\x00\x80?\x00\x00\x80?\x00\x00\x00\x00\x00\x00\x00\x00\x00\x00\x80?\x00\x00\x80?\x00\x00\x80?\x00\x00\x80?\x00\x00\x80?\x00\x00\x80?\x00\x00\x80?\x00\x00\x80?\x00\x00\x00\x00\x00\x00\x80?\x00\x00\x80?\x00\x00\x80?\x00\x00\x80?\x00\x00\x80?\x00\x00\x00\x00\x00\x00\x80?\x00\x00\x80?\x00\x00\x00\x00\x00\x00\x80?\x00\x00\x80?\x00\x00\x80?\x00\x00\x80?\x00\x00\x80?\x00\x00\x80?\x00\x00\x80?\x00\x00\x80?\x00\x00\x80?\x00\x00\x00\x00\x00\x00\x00\x00\x00\x00\x00\x00\x00\x00\x80?\x00\x00\x80?\x00\x00\x00\x00\x00\x00\x80?\x00\x00\x80?\x00\x00\x80?\x00\x00\x80?\x00\x00\x80?\x00\x00\x00\x00\x00\x00\x80?\x00\x00\x80?\x00\x00\x80?\x00\x00\x80?\x00\x00\x00\x00\x00\x00\x80?\x00\x00\x80?\x00\x00\x80?\x00\x00\x80?\x00\x00\x00\x00\x00\x00\x00\x00\x00\x00\x80?\x00\x00\x80?\x00\x00\x80?\x00\x00\x80?\x00\x00\x80?\x00\x00\x80?\x00\x00\x80?\x00\x00\x80?\x00\x00\x80?\x00\x00\x80?\x00\x00\x80?'
S'\x00\x00\x00\x00\x00\x00\x00\x00\x00\x00\x00\x00\x00\x00\x00\x00\x00\x00\x00\x00\x00\x00\x00\x00\x00\x00\x00\x00\x00\x00\x00\x00\x00\x00\x00\x00\x00\x00\x00\x00\x00\x00\x00\x00\x00\x00\x00\x00\x00\x00\x00\x00\x00\x00\x00\x00\x00\x00\x00\x00\x00\x00\x00\x00\x00\x00\x00\x00\x00\x00\x00\x00\x00\x00\x00\x00\x00\x00\x00\x00\x00\x00\x00\x00\x00\x00\x00\x00\x00\x00\x00\x00\x00\x00\x00\x00'
Ntbsg27
g1157
(g1158
(I0
tS'b'
tRp1278
(I1
(I96
I1
tg1160
I00
(lp1279
g704
ag925
ag184
ag991
ag594
ag484
ag1090
ag969
ag429
ag285
ag815
ag462
ag980
ag693
ag1046
ag195
ag296
ag440
ag958
ag848
ag561
ag506
ag318
ag407
ag104
ag715
ag583
ag363
ag207
ag550
ag1013
ag826
ag495
ag418
ag116
ag572
ag352
ag749
ag892
ag1068
ag139
ag385
ag859
ag539
ag737
ag870
ag804
ag903
ag396
ag1101
ag726
ag1134
ag1002
ag1024
ag252
ag1057
ag1112
ag837
ag528
ag307
ag173
ag473
ag771
ag627
ag219
ag162
ag914
ag263
ag241
ag230
ag274
ag127
ag881
ag793
ag517
ag151
ag671
ag91
ag1079
ag760
ag1035
ag660
ag605
ag682
ag341
ag936
ag616
ag451
ag638
ag330
ag649
ag947
ag782
ag76
ag1123
ag374
atbsg23
g1157
(g1158
(I0
tS'b'
tRp1280
(I1
(I96
I1
tg1160
I00
(lp1281
S'2'
aS'1'
aS'3'
aS'1'
aS'2'
aS'1'
aS'1'
aS'3'
aS'3'
aS'3'
aS'3'
aS'3'
aS'2'
aS'1'
aS'2'
aS'3'
aS'2'
aS'3'
aS'1'
aS'1'
aS'1'
aS'3'
aS'2'
aS'1'
aS'3'
aS'3'
aS'1'
aS'1'
aS'1'
aS'2'
aS'2'
aS'1'
aS'1'
aS'1'
aS'1'
aS'3'
aS'3'
aS'1'
aS'1'
aS'2'
aS'1'
aS'3'
aS'1'
aS'1'
aS'2'
aS'1'
aS'3'
aS'3'
aS'2'
aS'1'
aS'1'
aS'1'
aS'1'
aS'1'
aS'2'
aS'2'
aS'1'
aS'1'
aS'1'
aS'2'
aS'2'
aS'1'
aS'2'
aS'1'
aS'1'
aS'1'
aS'3'
aS'1'
aS'1'
aS'3'
aS'1'
aS'2'
aS'3'
aS'1'
aS'2'
aS'1'
aS'2'
aS'1'
aS'1'
aS'2'
aS'2'
aS'3'
aS'2'
aS'1'
aS'1'
aS'2'
aS'3'
aS'1'
aS'3'
aS'3'
aS'1'
aS'3'
aS'2'
aS'3'
aS'2'
aS'1'
atbsg18
g1162
(g1163
g1158
g1164
S'b'
tRp1282
(I1
(I96
I1
tg1166
I00
S"\xd4\xbcrC:\x04\xa4Ci\x073BAn\xb1C\x96\x0cJC\xe7\xec\x1eC\x9b\x90\xc5C\xefT\xadC+i\nC/\xc7\xa4B\xd8/\x8dCe\xbf\x16Cv\\\xafC\xc7\xe8nC\xffd\xbcCqbCB\x0b\xdb\xacB\x08\r\x0fC\x9e\xaf\xaaC\x0e\xad\x93C(\xd7<C\x19\xe5'C\xb0\x9c\xbdB\xb1\xb5\x00CGCUA'\xd6vC\xf6\xfaEC\xfa\x1f\xdfBV.TB\xb1}8Cn\xc6\xb5C!$\x8fC\x98\x9d#C\xf0-\x05C&'\x90A%\x80AC\xfd\x06\xd7B\xebP\x81C~r\x9dC\xbey\xc1C\t\x08\xd9A\xcd\x0f\xf0B\xefT\x96C-\xc03C\xbc\xa4~C\xb6\xaa\x98C]Q\x8bCP\xb6\x9fCP=\xf8BO\x99\xc7C\xe5\xb1zC\xe9\xa4\xceC\x9e\x82\xb3C\xdc\xfa\xb7C\xf3\xfb\x8bB\xe0\x8d\xbeC\xbcL\xcaC\x15m\x91C(\x9f/C1\xac\xb4Bg\xe9!B;\xb2\x1aCtK\x85C\x02\xceUC\xa0\x93dB\xc7d\x10B\xcd\xcf\xa1C\xdf\xae\x94B\x18\xe8\x83B\xba\x03vB3\xae\x9cB%\xe9\xb3A\xd5e\x9bCWg\x89C^\xd5+CM\xc0\xfdAl8fC\xfd2\x13A\xf8\x88\xc3C\x08R\x83Cj4\xbaC\xd9ObC\x8e\x04NC\xa8:jC\xb1\xba\xceB#_\xa6Co\xe5QC6\xe6\x12C(\xf4YC\xa9x\xc6B\x08\xd5]C>\xa4\xa8C\xcf_\x87C\xbe\x06\xa0@K\x86\xccCO\x1f\xe7B"
S'\x00\x00\x00\x00\x00\x00\x00\x00\x00\x00\x00\x00\x00\x00\x00\x00\x00\x00\x00\x00\x00\x00\x00\x00\x00\x00\x00\x00\x00\x00\x00\x00\x00\x00\x00\x00\x00\x00\x00\x00\x00\x00\x00\x00\x00\x00\x00\x00\x00\x00\x00\x00\x00\x00\x00\x00\x00\x00\x00\x00\x00\x00\x00\x00\x00\x00\x00\x00\x00\x00\x00\x00\x00\x00\x00\x00\x00\x00\x00\x00\x00\x00\x00\x00\x00\x00\x00\x00\x00\x00\x00\x00\x00\x00\x00\x00'
Ntbsg25
g1162
(g1163
g1158
g1164
S'b'
tRp1283
(I1
(I96
I1
tg1166
I00
S"\xeeN\xa4>\xab\\\xcd>\xaep\xa9>\x98w\x05?\x97\xf6\xbd>\xb1'\xc8>\x0c\xcb\xdc>\x14P\xa4>.\t\x08?\x10\x94\xae>m\xd4\xb8>\x9dP\xa4>\xbd\xe3\xbd>\xd3\x91\xae>\xf0\xe3\xe1>+\xd5\xb8>\xb9\xe9\x94>\x99p\xa9>\x95[\xcd>\xf1\xa0\xd7>\x9f\xd7\xb8>\x01\xea\x94>PP\xa4>O[\xcd>\xcf%\xec>\x00\xeb\x94>\xaf-\x9f>\xb4\xd4\xb8>-]\xa9>\xe1p\xa9>\x01\x1b\xc3>^\x92\xae>k\x93\xae>B\xe7\x02?m\xd5\xb8>\x06\xf7\xbd>,\x92\xae>:\x0b\x9a>\x05}\xd2>\x86\xf7\xbd>0^\xcd>CQ\xa4>\xa5w\x05?\x10\xb4\xb3>\x9d\x91\xae>\xd69\xc8>\xff\xbcW>0]\xcd>L\x141?P\x91\xae>\xb5\x91\xae>\xba-\x9f>\xaa\x93\xae>\xb9\xe6\x02?\x9c.\x9f>\x11\x171?\xf8\xf5\xbd>,\x1f\x1f?\xfa\xb3\xb3>\xc8\xb3\xb3>\x82=\xc8>8\xb3\xb3>\xd1\xe6\x02?\xd3\x91\xae>\xecN\xa4>\xf7\x0b\x9a>\x90\xef\xe6>\xd8\xe9\x94>\xf1\x91\xae>@q\xa9>\xcb\x0c\x9a>\x7f\x18\xc3>\x9b\x93\xae>\xac\x86\x85>\xe0\x93\xae>\x88\xeb\x94>Z\xea\x94>\xc0\xc4\xdc>\xd1\xb4\xb3>\xa9N\xa4>\xcd\x99\n?\xc5\xb3\xb3>\xfb\xf8\xbd>\x8a9\xc8>.\x17\x9a>\x9d\x9e\xd7>2\x94\xae>\xc0q\xa9>T-\x9f>\xdd9\xc8>\xe9\x0b\x9a>h\xe3\xbd><\x92\xae>\x84\x18\xc3>B]\xa9>\xfd\xd4\xb8>"
S'\x00\x00\x00\x00\x00\x00\x00\x00\x00\x00\x00\x00\x00\x00\x00\x00\x00\x00\x00\x00\x00\x00\x00\x00\x00\x00\x00\x00\x00\x00\x00\x00\x00\x00\x00\x00\x00\x00\x00\x00\x00\x00\x00\x00\x00\x00\x00\x00\x00\x00\x00\x00\x00\x00\x00\x00\x00\x00\x00\x00\x00\x00\x00\x00\x00\x00\x00\x00\x00\x00\x00\x00\x00\x00\x00\x00\x00\x00\x00\x00\x00\x00\x00\x00\x00\x00\x00\x00\x00\x00\x00\x00\x00\x00\x00\x00'
NtbstRp1284
(dp1285
S'isNumeric'
p1286
(dp1287
g23
I00
sg20
I00
sg17
I01
sg1167
I01
sg22
I01
sg24
I01
sg14
I01
sg18
I01
sg16
I00
sg19
I01
sg26
I00
sg27
I00
sg15
I00
sg21
I01
sg1275
I01
sg25
I01
ssg1151
g1145
sS'dataTypes'
p1288
(lp1289
g1167
ag1275
ag14
ag15
ag16
ag17
ag18
ag19
ag20
ag21
ag22
ag23
ag24
ag25
ag26
ag27
asS'dataShape'
p1290
(lp1291
I96
aI1
asbsS'method'
p1292
S'random'
p1293
sS'sequenceIndices'
p1294
g1157
(g1158
(I0
tS'b'
tRp1295
(I1
(I96
I1
tg80
I01
S']\x00\x00\x00M\x00\x00\x00\x18\x00\x00\x00"\x00\x00\x00G\x00\x00\x00(\x00\x00\x00K\x00\x00\x00A\x00\x00\x00<\x00\x00\x00\x02\x00\x00\x00\x0f\x00\x00\x00\x1c\x00\x00\x00@\x00\x00\x00E\x00\x00\x00D\x00\x00\x006\x00\x00\x00C\x00\x00\x00F\x00\x00\x00\t\x00\x00\x00\x10\x00\x00\x00;\x00\x00\x00\x16\x00\x00\x00Y\x00\x00\x00T\x00\x00\x00$\x00\x00\x00\x1b\x00\x00\x00_\x00\x00\x00)\x00\x00\x000\x00\x00\x00\x17\x00\x00\x00!\x00\x00\x00\x08\x00\x00\x00\x11\x00\x00\x00W\x00\x00\x00\x0b\x00\x00\x00=\x00\x00\x00\x05\x00\x00\x00 \x00\x00\x00\x15\x00\x00\x00J\x00\x00\x00:\x00\x00\x00+\x00\x00\x00\x1d\x00\x00\x00\x14\x00\x00\x00#\x00\x00\x00\x1a\x00\x00\x00\x04\x00\x00\x00R\x00\x00\x00V\x00\x00\x00?\x00\x00\x00X\x00\x00\x00Z\x00\x00\x00Q\x00\x00\x00L\x00\x00\x00S\x00\x00\x00\r\x00\x00\x00\x00\x00\x00\x00\x19\x00\x00\x002\x00\x00\x00,\x00\x00\x00%\x00\x00\x00O\x00\x00\x00>\x00\x00\x00\\\x00\x00\x00I\x00\x00\x00.\x00\x00\x00\n\x00\x00\x00\x1f\x00\x00\x009\x00\x00\x00\x13\x00\x00\x00*\x00\x00\x00-\x00\x00\x00H\x00\x00\x00&\x00\x00\x00/\x00\x00\x00B\x00\x00\x00\x01\x00\x00\x00U\x00\x00\x00[\x00\x00\x00\x12\x00\x00\x00\x07\x00\x00\x00\x0c\x00\x00\x00\x03\x00\x00\x004\x00\x00\x00\x1e\x00\x00\x005\x00\x00\x00P\x00\x00\x00\x0e\x00\x00\x007\x00\x00\x00\'\x00\x00\x00N\x00\x00\x00\x06\x00\x00\x001\x00\x00\x008\x00\x00\x00^\x00\x00\x003\x00\x00\x00'
tbsS'finished'
p1296
I01
sS'nReps'
p1297
I1
sS'nRemaining'
p1298
I-1
sS'trialList'
p1299
(lp1300
g1
(cpsychopy.data
TrialType
p1301
g1155
(dp1302
g62
g74
sg63
g710
sg64
g73
sg65
g705
sg66
g709
stRp1303
ag1
(g1301
g1155
(dp1304
g62
g102
sg63
g931
sg64
g137
sg65
g926
sg66
g930
stRp1305
ag1
(g1301
g1155
(dp1306
g62
g74
sg63
g190
sg64
g73
sg65
g185
sg66
g189
stRp1307
ag1
(g1301
g1155
(dp1308
g62
g74
sg63
g997
sg64
g747
sg65
g992
sg66
g996
stRp1309
ag1
(g1301
g1155
(dp1310
g62
g102
sg63
g600
sg64
g114
sg65
g595
sg66
g599
stRp1311
ag1
(g1301
g1155
(dp1312
g62
g74
sg63
g490
sg64
g73
sg65
g485
sg66
g489
stRp1313
ag1
(g1301
g1155
(dp1314
g62
g74
sg63
g1096
sg64
g73
sg65
g1091
sg66
g1095
stRp1315
ag1
(g1301
g1155
(dp1316
g62
g74
sg63
g975
sg64
g217
sg65
g970
sg66
g974
stRp1317
ag1
(g1301
g1155
(dp1318
g62
g74
sg63
g435
sg64
g73
sg65
g430
sg66
g434
stRp1319
ag1
(g1301
g1155
(dp1320
g62
g74
sg63
g291
sg64
g217
sg65
g286
sg66
g290
stRp1321
ag1
(g1301
g1155
(dp1322
g62
g102
sg63
g821
sg64
g101
sg65
g816
sg66
g820
stRp1323
ag1
(g1301
g1155
(dp1324
g62
g74
sg63
g468
sg64
g217
sg65
g463
sg66
g467
stRp1325
ag1
(g1301
g1155
(dp1326
g62
g74
sg63
g986
sg64
g205
sg65
g981
sg66
g985
stRp1327
ag1
(g1301
g1155
(dp1328
g62
g102
sg63
g699
sg64
g137
sg65
g694
sg66
g698
stRp1329
ag1
(g1301
g1155
(dp1330
g62
g74
sg63
g1052
sg64
g205
sg65
g1047
sg66
g1051
stRp1331
ag1
(g1301
g1155
(dp1332
g62
g74
sg63
g201
sg64
g73
sg65
g196
sg66
g200
stRp1333
ag1
(g1301
g1155
(dp1334
g62
g102
sg63
g302
sg64
g137
sg65
g297
sg66
g301
stRp1335
ag1
(g1301
g1155
(dp1336
g62
g74
sg63
g446
sg64
g205
sg65
g441
sg66
g445
stRp1337
ag1
(g1301
g1155
(dp1338
g62
g74
sg63
g964
sg64
g89
sg65
g959
sg66
g963
stRp1339
ag1
(g1301
g1155
(dp1340
g62
g74
sg63
g854
sg64
g73
sg65
g849
sg66
g853
stRp1341
ag1
(g1301
g1155
(dp1342
g62
g102
sg63
g567
sg64
g137
sg65
g562
sg66
g566
stRp1343
ag1
(g1301
g1155
(dp1344
g62
g102
sg63
g512
sg64
g149
sg65
g507
sg66
g511
stRp1345
ag1
(g1301
g1155
(dp1346
g62
g74
sg63
g324
sg64
g89
sg65
g319
sg66
g323
stRp1347
ag1
(g1301
g1155
(dp1348
g62
g102
sg63
g413
sg64
g149
sg65
g408
sg66
g412
stRp1349
ag1
(g1301
g1155
(dp1350
g62
g102
sg63
g110
sg64
g101
sg65
g105
sg66
g109
stRp1351
ag1
(g1301
g1155
(dp1352
g62
g74
sg63
g721
sg64
g328
sg65
g716
sg66
g720
stRp1353
ag1
(g1301
g1155
(dp1354
g62
g102
sg63
g589
sg64
g114
sg65
g584
sg66
g588
stRp1355
ag1
(g1301
g1155
(dp1356
g62
g102
sg63
g369
sg64
g137
sg65
g364
sg66
g368
stRp1357
ag1
(g1301
g1155
(dp1358
g62
g74
sg63
g213
sg64
g205
sg65
g208
sg66
g212
stRp1359
ag1
(g1301
g1155
(dp1360
g62
g74
sg63
g556
sg64
g73
sg65
g551
sg66
g555
stRp1361
ag1
(g1301
g1155
(dp1362
g62
g74
sg63
g1019
sg64
g89
sg65
g1014
sg66
g1018
stRp1363
ag1
(g1301
g1155
(dp1364
g62
g74
sg63
g832
sg64
g89
sg65
g827
sg66
g831
stRp1365
ag1
(g1301
g1155
(dp1366
g62
g102
sg63
g501
sg64
g137
sg65
g496
sg66
g500
stRp1367
ag1
(g1301
g1155
(dp1368
g62
g102
sg63
g424
sg64
g114
sg65
g419
sg66
g423
stRp1369
ag1
(g1301
g1155
(dp1370
g62
g102
sg63
g122
sg64
g114
sg65
g117
sg66
g121
stRp1371
ag1
(g1301
g1155
(dp1372
g62
g74
sg63
g578
sg64
g205
sg65
g573
sg66
g577
stRp1373
ag1
(g1301
g1155
(dp1374
g62
g74
sg63
g358
sg64
g328
sg65
g353
sg66
g357
stRp1375
ag1
(g1301
g1155
(dp1376
g62
g74
sg63
g755
sg64
g747
sg65
g750
sg66
g754
stRp1377
ag1
(g1301
g1155
(dp1378
g62
g102
sg63
g898
sg64
g114
sg65
g893
sg66
g897
stRp1379
ag1
(g1301
g1155
(dp1380
g62
g102
sg63
g1074
sg64
g137
sg65
g1069
sg66
g1073
stRp1381
ag1
(g1301
g1155
(dp1382
g62
g102
sg63
g145
sg64
g137
sg65
g140
sg66
g144
stRp1383
ag1
(g1301
g1155
(dp1384
g62
g74
sg63
g391
sg64
g205
sg65
g386
sg66
g390
stRp1385
ag1
(g1301
g1155
(dp1386
g62
g102
sg63
g865
sg64
g114
sg65
g860
sg66
g864
stRp1387
ag1
(g1301
g1155
(dp1388
g62
g102
sg63
g545
sg64
g149
sg65
g540
sg66
g544
stRp1389
ag1
(g1301
g1155
(dp1390
g62
g102
sg63
g743
sg64
g114
sg65
g738
sg66
g742
stRp1391
ag1
(g1301
g1155
(dp1392
g62
g102
sg63
g876
sg64
g101
sg65
g871
sg66
g875
stRp1393
ag1
(g1301
g1155
(dp1394
g62
g74
sg63
g810
sg64
g73
sg65
g805
sg66
g809
stRp1395
ag1
(g1301
g1155
(dp1396
g62
g74
sg63
g909
sg64
g73
sg65
g904
sg66
g908
stRp1397
ag1
(g1301
g1155
(dp1398
g62
g102
sg63
g402
sg64
g137
sg65
g397
sg66
g401
stRp1399
ag1
(g1301
g1155
(dp1400
g62
g102
sg63
g1107
sg64
g149
sg65
g1102
sg66
g1106
stRp1401
ag1
(g1301
g1155
(dp1402
g62
g102
sg63
g732
sg64
g137
sg65
g727
sg66
g731
stRp1403
ag1
(g1301
g1155
(dp1404
g62
g102
sg63
g1140
sg64
g114
sg65
g1135
sg66
g1139
stRp1405
ag1
(g1301
g1155
(dp1406
g62
g102
sg63
g1008
sg64
g149
sg65
g1003
sg66
g1007
stRp1407
ag1
(g1301
g1155
(dp1408
g62
g74
sg63
g1030
sg64
g205
sg65
g1025
sg66
g1029
stRp1409
ag1
(g1301
g1155
(dp1410
g62
g74
sg63
g258
sg64
g217
sg65
g253
sg66
g257
stRp1411
ag1
(g1301
g1155
(dp1412
g62
g102
sg63
g1063
sg64
g149
sg65
g1058
sg66
g1062
stRp1413
ag1
(g1301
g1155
(dp1414
g62
g102
sg63
g1118
sg64
g114
sg65
g1113
sg66
g1117
stRp1415
ag1
(g1301
g1155
(dp1416
g62
g102
sg63
g843
sg64
g114
sg65
g838
sg66
g842
stRp1417
ag1
(g1301
g1155
(dp1418
g62
g74
sg63
g534
sg64
g205
sg65
g529
sg66
g533
stRp1419
ag1
(g1301
g1155
(dp1420
g62
g102
sg63
g313
sg64
g114
sg65
g308
sg66
g312
stRp1421
ag1
(g1301
g1155
(dp1422
g62
g102
sg63
g179
sg64
g114
sg65
g174
sg66
g178
stRp1423
ag1
(g1301
g1155
(dp1424
g62
g102
sg63
g479
sg64
g114
sg65
g474
sg66
g478
stRp1425
ag1
(g1301
g1155
(dp1426
g62
g74
sg63
g777
sg64
g328
sg65
g772
sg66
g776
stRp1427
ag1
(g1301
g1155
(dp1428
g62
g102
sg63
g633
sg64
g114
sg65
g628
sg66
g632
stRp1429
ag1
(g1301
g1155
(dp1430
g62
g74
sg63
g225
sg64
g217
sg65
g220
sg66
g224
stRp1431
ag1
(g1301
g1155
(dp1432
g62
g102
sg63
g168
sg64
g149
sg65
g163
sg66
g167
stRp1433
ag1
(g1301
g1155
(dp1434
g62
g74
sg63
g920
sg64
g89
sg65
g915
sg66
g919
stRp1435
ag1
(g1301
g1155
(dp1436
g62
g102
sg63
g269
sg64
g114
sg65
g264
sg66
g268
stRp1437
ag1
(g1301
g1155
(dp1438
g62
g102
sg63
g247
sg64
g137
sg65
g242
sg66
g246
stRp1439
ag1
(g1301
g1155
(dp1440
g62
g74
sg63
g236
sg64
g73
sg65
g231
sg66
g235
stRp1441
ag1
(g1301
g1155
(dp1442
g62
g102
sg63
g280
sg64
g114
sg65
g275
sg66
g279
stRp1443
ag1
(g1301
g1155
(dp1444
g62
g74
sg63
g133
sg64
g89
sg65
g128
sg66
g132
stRp1445
ag1
(g1301
g1155
(dp1446
g62
g74
sg63
g887
sg64
g328
sg65
g882
sg66
g886
stRp1447
ag1
(g1301
g1155
(dp1448
g62
g102
sg63
g799
sg64
g101
sg65
g794
sg66
g798
stRp1449
ag1
(g1301
g1155
(dp1450
g62
g102
sg63
g523
sg64
g114
sg65
g518
sg66
g522
stRp1451
ag1
(g1301
g1155
(dp1452
g62
g102
sg63
g157
sg64
g149
sg65
g152
sg66
g156
stRp1453
ag1
(g1301
g1155
(dp1454
g62
g74
sg63
g677
sg64
g217
sg65
g672
sg66
g676
stRp1455
ag1
(g1301
g1155
(dp1456
g62
g74
sg63
g97
sg64
g89
sg65
g92
sg66
g96
stRp1457
ag1
(g1301
g1155
(dp1458
g62
g74
sg63
g1085
sg64
g73
sg65
g1080
sg66
g1084
stRp1459
ag1
(g1301
g1155
(dp1460
g62
g102
sg63
g766
sg64
g114
sg65
g761
sg66
g765
stRp1461
ag1
(g1301
g1155
(dp1462
g62
g102
sg63
g1041
sg64
g149
sg65
g1036
sg66
g1040
stRp1463
ag1
(g1301
g1155
(dp1464
g62
g74
sg63
g666
sg64
g73
sg65
g661
sg66
g665
stRp1465
ag1
(g1301
g1155
(dp1466
g62
g102
sg63
g611
sg64
g137
sg65
g606
sg66
g610
stRp1467
ag1
(g1301
g1155
(dp1468
g62
g74
sg63
g688
sg64
g89
sg65
g683
sg66
g687
stRp1469
ag1
(g1301
g1155
(dp1470
g62
g102
sg63
g347
sg64
g137
sg65
g342
sg66
g346
stRp1471
ag1
(g1301
g1155
(dp1472
g62
g102
sg63
g942
sg64
g114
sg65
g937
sg66
g941
stRp1473
ag1
(g1301
g1155
(dp1474
g62
g74
sg63
g622
sg64
g217
sg65
g617
sg66
g621
stRp1475
ag1
(g1301
g1155
(dp1476
g62
g74
sg63
g457
sg64
g217
sg65
g452
sg66
g456
stRp1477
ag1
(g1301
g1155
(dp1478
g62
g74
sg63
g644
sg64
g328
sg65
g639
sg66
g643
stRp1479
ag1
(g1301
g1155
(dp1480
g62
g74
sg63
g336
sg64
g328
sg65
g331
sg66
g335
stRp1481
ag1
(g1301
g1155
(dp1482
g62
g102
sg63
g655
sg64
g137
sg65
g650
sg66
g654
stRp1483
ag1
(g1301
g1155
(dp1484
g62
g74
sg63
g953
sg64
g217
sg65
g948
sg66
g952
stRp1485
ag1
(g1301
g1155
(dp1486
g62
g74
sg63
g788
sg64
g328
sg65
g783
sg66
g787
stRp1487
ag1
(g1301
g1155
(dp1488
g62
g74
sg63
g84
sg64
g73
sg65
g78
sg66
g83
stRp1489
ag1
(g1301
g1155
(dp1490
g62
g102
sg63
g1129
sg64
g149
sg65
g1124
sg66
g1128
stRp1491
ag1
(g1301
g1155
(dp1492
g62
g102
sg63
g380
sg64
g137
sg65
g375
sg66
g379
stRp1493
asS'seed'
p1494
NsS'thisIndex'
p1495
g1137
sS'thisN'
p1496
I96
sS'thisTrialN'
p1497
I0
sS'nTotal'
p1498
I96
sS'_warnUseOfNext'
p1499
I01
sbasS'savePickle'
p1500
I00
sb.