ccopy_reg
_reconstructor
p1
(cpsychopy.data
ExperimentHandler
p2
c__builtin__
object
p3
NtRp4
(dp5
S'originPath'
p6
NsS'dataFileName'
p7
VC:\u005cDocuments and Settings\u005cExperimental user\u005cMy Documents\u005cconsciousness\u005cuncon_feat\u005cexperiment_scripts\u005cdata/aingere_Experiment_EEG_version_2019_may_16_1637
p8
sS'runtimeInfo'
p9
NsS'name'
p10
VExperiment_EEG_version
p11
sS'dataNames'
p12
(lp13
S'image_onset_time'
p14
aS'response_window'
p15
aS'correctAns'
p16
aS'probe_onset'
p17
aS'discrim_resptime'
p18
aS'response.corr'
p19
aS'response.keys'
p20
aS'response.rt'
p21
aS'visible_resptime'
p22
aS'visible.keys'
p23
aS'visible.corr'
p24
aS'visible.rt'
p25
aS'probeFrames'
p26
aS'jitter2'
p27
asS'autoLog'
p28
I01
sS'extraInfo'
p29
(dp30
Vn_square
p31
V32
p32
sVexperiment_color
p33
Vbw
p34
sS'frameRate'
p35
cnumpy.core.multiarray
scalar
p36
(cnumpy
dtype
p37
(S'f8'
I0
I1
tRp38
(I3
S'<'
NNNI-1
I-1
I0
tbS'\x1dzn\xfd\x19\xf2X@'
tRp39
sS'date'
p40
V2019_may_16_1637
p41
sVsession
p42
V004
p43
sVimage_size
p44
V256
p45
sVpremask_dur
p46
V20
p47
sVprobeFrames
p48
V5
sVparticipant
p49
Vaingere
p50
sS'expName'
p51
g11
sVpostmask_dur
p52
V20
p53
ssS'loopsUnfinished'
p54
(lp55
sS'saveWideText'
p56
I00
sS'thisEntry'
p57
(dp58
sS'version'
p59
S''
sS'_paramNamesSoFar'
p60
(lp61
S'category'
p62
aS'probe_path'
p63
aS'subcategory'
p64
aS'fixation_duration'
p65
aS'label'
p66
asS'entries'
p67
(lp68
(dp69
g31
g32
sg17
F3.7390543571673334
sg24
I1
sg35
g39
sg14
F3.719327399157919
sg16
g36
(g37
(S'i4'
I0
I1
tRp70
(I3
S'<'
NNNI-1
I-1
I0
tbS'\x02\x00\x00\x00'
tRp71
sg42
g43
sg46
g47
sg15
S'V_nV'
p72
sg22
F5.8949660337530077
sg64
VBuildings
p73
sg62
VNonliving_Things
p74
sg49
g50
sS'trials.thisN'
p75
I0
sg19
I0
sg27
g36
(g38
S'\x00\x00\x00\x00\x00\x00\x18@'
tRp76
sg52
g53
sg23
S'1'
sg18
F5.0020196831319481
sg33
g34
sg51
g11
sg20
S'1'
sg65
g36
(g37
(S'i8'
I0
I1
tRp77
(I3
S'<'
NNNI-1
I-1
I0
tbS'\x00\x00\x00\x00\x00\x00\x00\x00'
tRp78
sg44
g45
sg40
g41
sg25
F0.52135075512342155
sS'trials.thisIndex'
p79
g36
(g37
(S'i4'
I0
I1
tRp80
(I3
S'<'
NNNI-1
I-1
I0
tbS':\x00\x00\x00'
tRp81
sg26
V5
sS'trials.thisRepN'
p82
I0
sg66
Vpalace
p83
sg63
V../experiment_stimuli/bw_bc_bl/Nonliving_Things/Buildings/palace_13.jpg
p84
sg21
F0.8620996909448877
sS'trials.thisTrialN'
p85
I0
sa(dp86
g31
g32
sg17
F8.1538530930411071
sg24
I1
sg35
g39
sg14
F8.1489695464260876
sg16
g36
(g70
S'\x02\x00\x00\x00'
tRp87
sg42
g43
sg46
g47
sg15
g72
sg22
F10.1239003976807
sg64
VMusical_Inst
p88
sg62
g74
sg49
g50
sS'trials.thisN'
p89
I1
sg19
I1
sg27
g36
(g38
S'\x00\x00\x00\x00\x00\x00\x18@'
tRp90
sg52
g53
sg23
S'1'
sg18
F9.4316474245861173
sg33
g34
sg51
g11
sg20
S'2'
sg65
g36
(g77
S'\x00\x00\x00\x00\x00\x00\x00\x00'
tRp91
sg44
g45
sg40
g41
sg25
F0.36100213066674769
sS'trials.thisIndex'
p92
g36
(g80
S'>\x00\x00\x00'
tRp93
sg26
V5
sS'trials.thisRepN'
p94
I0
sg66
Vpiano
p95
sg63
V../experiment_stimuli/bw_bc_bl/Nonliving_Things/Musical_Inst/piano__2.jpg
p96
sg21
F0.6716904069762677
sS'trials.thisTrialN'
p97
I1
sa(dp98
g31
g32
sg17
F12.222771353786811
sg24
I0
sg35
g39
sg14
F12.217796214506961
sg16
g36
(g70
S'\x02\x00\x00\x00'
tRp99
sg42
g43
sg46
g47
sg15
S'nV_V'
p100
sg22
F14.593583054258488
sg64
VAnimals
p101
sg62
VLiving_Things
p102
sg49
g50
sS'trials.thisN'
p103
I2
sg19
I1
sg27
g36
(g38
S'\x00\x00\x00\x00\x00\x00\x1a@'
tRp104
sg52
g53
sg23
S'2'
sg18
F13.530560733051971
sg33
g34
sg51
g11
sg20
S'2'
sg65
g36
(g77
S'\x00\x00\x00\x00\x00\x00\x00\x00'
tRp105
sg44
g45
sg40
g41
sg25
F0.86208948423154652
sS'trials.thisIndex'
p106
g36
(g80
S'\x14\x00\x00\x00'
tRp107
sg26
V5
sS'trials.thisRepN'
p108
I0
sg66
Vcow
p109
sg63
V../experiment_stimuli/bw_bc_bl/Living_Things/Animals/cow_1.jpg
p110
sg21
F1.0424912013113499
sS'trials.thisTrialN'
p111
I2
sa(dp112
g31
g32
sg17
F17.194054931867868
sg24
I0
sg35
g39
sg14
F17.188603506190702
sg16
g36
(g70
S'\x01\x00\x00\x00'
tRp113
sg42
g43
sg46
g47
sg15
g100
sg22
F19.303671940579079
sg64
VFurniture
p114
sg62
g74
sg49
g50
sS'trials.thisN'
p115
I3
sg19
I1
sg27
g36
(g38
S'\x00\x00\x00\x00\x00\x00\x18@'
tRp116
sg52
g53
sg23
S'2'
sg18
F18.491346548194997
sg33
g34
sg51
g11
sg20
S'1'
sg65
g36
(g77
S'\x00\x00\x00\x00\x00\x00\x00\x00'
tRp117
sg44
g45
sg40
g41
sg25
F0.35097700357437134
sS'trials.thisIndex'
p118
g36
(g80
S'E\x00\x00\x00'
tRp119
sg26
V5
sS'trials.thisRepN'
p120
I0
sg66
Vrocking-chair
p121
sg63
V../experiment_stimuli/bw_bc_bl/Nonliving_Things/Furniture/rocking-chair_10.jpg
p122
sg21
F0.79178997257258743
sS'trials.thisTrialN'
p123
I3
sa(dp124
g31
g32
sg17
F21.392592024058104
sg24
I1
sg35
g39
sg14
F21.387735597323626
sg16
g36
(g70
S'\x02\x00\x00\x00'
tRp125
sg42
g43
sg46
g47
sg15
g100
sg22
F23.422800869680941
sg64
VBirds
p126
sg62
g102
sg49
g50
sS'trials.thisN'
p127
I4
sg19
I1
sg27
g36
(g38
S'\x00\x00\x00\x00\x00\x00\x18@'
tRp128
sg52
g53
sg23
S'1'
sg18
F22.680445591453463
sg33
g34
sg51
g11
sg20
S'2'
sg65
g36
(g77
S'\x00\x00\x00\x00\x00\x00\x00\x00'
tRp129
sg44
g45
sg40
g41
sg25
F0.43116469366941601
sS'trials.thisIndex'
p130
g36
(g80
S'!\x00\x00\x00'
tRp131
sg26
V5
sS'trials.thisRepN'
p132
I0
sg66
Vgoldfinch
p133
sg63
V../experiment_stimuli/bw_bc_bl/Living_Things/Birds/goldfinch_6.jpg
p134
sg21
F0.72180810617282987
sS'trials.thisTrialN'
p135
I4
sa(dp136
g31
g32
sg17
F25.591674954514019
sg24
I0
sg35
g39
sg14
F25.58686456468422
sg16
g36
(g70
S'\x02\x00\x00\x00'
tRp137
sg42
g43
sg46
g47
sg15
g100
sg22
F28.032816730439663
sg64
g101
sg62
g102
sg49
g50
sS'trials.thisN'
p138
I5
sg19
I1
sg27
g36
(g38
S'\x00\x00\x00\x00\x00\x00 @'
tRp139
sg52
g53
sg23
S'2'
sg18
F26.909646440064535
sg33
g34
sg51
g11
sg20
S'2'
sg65
g36
(g77
S'\x00\x00\x00\x00\x00\x00\x00\x00'
tRp140
sg44
g45
sg40
g41
sg25
F0.53137795731890947
sS'trials.thisIndex'
p141
g36
(g80
S'\r\x00\x00\x00'
tRp142
sg26
V5
sS'trials.thisRepN'
p143
I0
sg66
Vcat
p144
sg63
V../experiment_stimuli/bw_bc_bl/Living_Things/Animals/cat_8.jpg
p145
sg21
F1.1026231375290081
sS'trials.thisTrialN'
p146
I5
sa(dp147
g31
g32
sg17
F30.302457169513218
sg24
I0
sg35
g39
sg14
F30.297097092028707
sg16
g36
(g70
S'\x02\x00\x00\x00'
tRp148
sg42
g43
sg46
g47
sg15
g72
sg22
F33.003629420651123
sg64
VKitchen_Uten
p149
sg62
g74
sg49
g50
sS'trials.thisN'
p150
I6
sg19
I1
sg27
g36
(g38
S'\x00\x00\x00\x00\x00\x00\x18@'
tRp151
sg52
g53
sg23
S'3'
sg18
F31.60985469375737
sg33
g34
sg51
g11
sg20
S'2'
sg65
g36
(g77
S'\x00\x00\x00\x00\x00\x00\x00\x00'
tRp152
sg44
g45
sg40
g41
sg25
F0.51133080839645118
sS'trials.thisIndex'
p153
g36
(g80
S'\x1f\x00\x00\x00'
tRp154
sg26
V5
sS'trials.thisRepN'
p155
I0
sg66
Vfrying-pan
p156
sg63
V../experiment_stimuli/bw_bc_bl/Nonliving_Things/Kitchen_Uten/frying-pan_23.jpg
p157
sg21
F1.3732249347958714
sS'trials.thisTrialN'
p158
I6
sa(dp159
g31
g32
sg17
F35.253376437816769
sg24
I0
sg35
g39
sg14
F35.247856445261277
sg16
g36
(g70
S'\x02\x00\x00\x00'
tRp160
sg42
g43
sg46
g47
sg15
g72
sg22
F37.192745869746432
sg64
g149
sg62
g74
sg49
g50
sS'trials.thisN'
p161
I7
sg19
I1
sg27
g36
(g38
S'\x00\x00\x00\x00\x00\x00\x1e@'
tRp162
sg52
g53
sg23
S'3'
sg18
F36.530547263217159
sg33
g34
sg51
g11
sg20
S'2'
sg65
g36
(g77
S'\x00\x00\x00\x00\x00\x00\x00\x00'
tRp163
sg44
g45
sg40
g41
sg25
F0.41111681901384145
sS'trials.thisIndex'
p164
g36
(g80
S'M\x00\x00\x00'
tRp165
sg26
V5
sS'trials.thisRepN'
p166
I0
sg66
Vsmall-saucepan
p167
sg63
V../experiment_stimuli/bw_bc_bl/Nonliving_Things/Kitchen_Uten/small-saucepan_19.jpg
p168
sg21
F0.64162030373699963
sS'trials.thisTrialN'
p169
I7
sa(dp170
g31
g32
sg17
F39.341664988663979
sg24
I1
sg35
g39
sg14
F39.336754972697236
sg16
g36
(g70
S'\x02\x00\x00\x00'
tRp171
sg42
g43
sg46
g47
sg15
g100
sg22
F41.411884140921757
sg64
g126
sg62
g102
sg49
g50
sS'trials.thisN'
p172
I8
sg19
I1
sg27
g36
(g38
S'\x00\x00\x00\x00\x00\x00\x18@'
tRp173
sg52
g53
sg23
S'1'
sg18
F40.589378976612352
sg33
g34
sg51
g11
sg20
S'2'
sg65
g36
(g77
S'\x00\x00\x00\x00\x00\x00\x00\x00'
tRp174
sg44
g45
sg40
g41
sg25
F0.33100036485120654
sS'trials.thisIndex'
p175
g36
(g80
S'&\x00\x00\x00'
tRp176
sg26
V5
sS'trials.thisRepN'
p177
I0
sg66
Vhen
p178
sg63
V../experiment_stimuli/bw_bc_bl/Living_Things/Birds/hen_11.jpg
p179
sg21
F0.80196609359700233
sS'trials.thisTrialN'
p180
I8
sa(dp181
g31
g32
sg17
F43.480587829719298
sg24
I1
sg35
g39
sg14
F43.475750064360909
sg16
g36
(g70
S'\x02\x00\x00\x00'
tRp182
sg42
g43
sg46
g47
sg15
g72
sg22
F45.721279423800297
sg64
g114
sg62
g74
sg49
g50
sS'trials.thisN'
p183
I9
sg19
I1
sg27
g36
(g38
S'\x00\x00\x00\x00\x00\x00\x18@'
tRp184
sg52
g53
sg23
S'1'
sg18
F44.74841433018446
sg33
g34
sg51
g11
sg20
S'2'
sg65
g36
(g77
S'\x00\x00\x00\x00\x00\x00\x00\x00'
tRp185
sg44
g45
sg40
g41
sg25
F0.38105627964250743
sS'trials.thisIndex'
p186
g36
(g80
S'\x06\x00\x00\x00'
tRp187
sg26
V5
sS'trials.thisRepN'
p188
I0
sg66
Vbedside-table
p189
sg63
V../experiment_stimuli/bw_bc_bl/Nonliving_Things/Furniture/bedside-table_10.jpg
p190
sg21
F0.95229251566343009
sS'trials.thisTrialN'
p191
I9
sa(dp192
g31
g32
sg17
F47.840254099457525
sg24
I0
sg35
g39
sg14
F47.835225419607013
sg16
g36
(g70
S'\x01\x00\x00\x00'
tRp193
sg42
g43
sg46
g47
sg15
g100
sg22
F49.880308168474585
sg64
VVehicles
p194
sg62
g74
sg49
g50
sS'trials.thisN'
p195
I10
sg19
I1
sg27
g36
(g38
S'\x00\x00\x00\x00\x00\x00\x1a@'
tRp196
sg52
g53
sg23
S'2'
sg18
F49.117925895028748
sg33
g34
sg51
g11
sg20
S'1'
sg65
g36
(g77
S'\x00\x00\x00\x00\x00\x00\x00\x00'
tRp197
sg44
g45
sg40
g41
sg25
F0.49128859548363835
sS'trials.thisIndex'
p198
g36
(g80
S'V\x00\x00\x00'
tRp199
sg26
V5
sS'trials.thisRepN'
p200
I0
sg66
Vtractor
p201
sg63
V../experiment_stimuli/bw_bc_bl/Nonliving_Things/Vehicles/tractor_4.jpg
p202
sg21
F0.74183885694947094
sS'trials.thisTrialN'
p203
I10
sa(dp204
g31
g32
sg17
F52.109338034875691
sg24
I0
sg35
g39
sg14
F52.104501442518085
sg16
g36
(g70
S'\x02\x00\x00\x00'
tRp205
sg42
g43
sg46
g47
sg15
g100
sg22
F54.720829153200611
sg64
g101
sg62
g102
sg49
g50
sS'trials.thisN'
p206
I11
sg19
I1
sg27
g36
(g38
S'\x00\x00\x00\x00\x00\x00\x18@'
tRp207
sg52
g53
sg23
S'2'
sg18
F53.377176757203415
sg33
g34
sg51
g11
sg20
S'2'
sg65
g36
(g77
S'\x00\x00\x00\x00\x00\x00\x00\x00'
tRp208
sg44
g45
sg40
g41
sg25
F0.45119824854191393
sS'trials.thisIndex'
p209
g36
(g80
S'\x01\x00\x00\x00'
tRp210
sg26
V5
sS'trials.thisRepN'
p211
I0
sg66
Varmadillo
p212
sg63
V../experiment_stimuli/bw_bc_bl/Living_Things/Animals/armadillo_19.jpg
p213
sg21
F1.3231009233277291
sS'trials.thisTrialN'
p214
I11
sa(dp215
g31
g32
sg17
F56.909831348224543
sg24
I1
sg35
g39
sg14
F56.904937196755782
sg16
g36
(g70
S'\x01\x00\x00\x00'
tRp216
sg42
g43
sg46
g47
sg15
g72
sg22
F60.012347614741884
sg64
VMarine_creatures
p217
sg62
g102
sg49
g50
sS'trials.thisN'
p218
I12
sg19
I0
sg27
g36
(g38
S'\x00\x00\x00\x00\x00\x00\x1c@'
tRp219
sg52
g53
sg23
S'1'
sg18
F58.167581478250213
sg33
g34
sg51
g11
sg20
S'2'
sg65
g36
(g77
S'\x00\x00\x00\x00\x00\x00\x00\x00'
tRp220
sg44
g45
sg40
g41
sg25
F0.42113935970701277
sS'trials.thisIndex'
p221
g36
(g80
S'\x17\x00\x00\x00'
tRp222
sg26
V5
sS'trials.thisRepN'
p223
I0
sg66
Vdolphin
p224
sg63
V../experiment_stimuli/bw_bc_bl/Living_Things/Marine_creatures/dolphin_19.jpg
p225
sg21
F1.8241932957898825
sS'trials.thisTrialN'
p226
I12
sa(dp227
g31
g32
sg17
F62.17185424012132
sg24
I0
sg35
g39
sg14
F62.166374743217602
sg16
g36
(g70
S'\x01\x00\x00\x00'
tRp228
sg42
g43
sg46
g47
sg15
g100
sg22
F64.97310795658268
sg64
g194
sg62
g74
sg49
g50
sS'trials.thisN'
p229
I13
sg19
I1
sg27
g36
(g38
S'\x00\x00\x00\x00\x00\x00\x18@'
tRp230
sg52
g53
sg23
S'2'
sg18
F63.459082989138551
sg33
g34
sg51
g11
sg20
S'1'
sg65
g36
(g77
S'\x00\x00\x00\x00\x00\x00\x00\x00'
tRp231
sg44
g45
sg40
g41
sg25
F0.59135563613381237
sS'trials.thisIndex'
p232
g36
(g80
S'W\x00\x00\x00'
tRp233
sg26
V5
sS'trials.thisRepN'
p234
I0
sg66
Vtrain
p235
sg63
V../experiment_stimuli/bw_bc_bl/Nonliving_Things/Vehicles/train_13.jpg
p236
sg21
F1.4934760999167338
sS'trials.thisTrialN'
p237
I13
sa(dp238
g31
g32
sg17
F67.30314895126503
sg24
I1
sg35
g39
sg14
F67.297522791312076
sg16
g36
(g70
S'\x02\x00\x00\x00'
tRp239
sg42
g43
sg46
g47
sg15
g100
sg22
F69.723452860256657
sg64
g126
sg62
g102
sg49
g50
sS'trials.thisN'
p240
I14
sg19
I0
sg27
g36
(g38
S'\x00\x00\x00\x00\x00\x00\x1e@'
tRp241
sg52
g53
sg23
S'1'
sg18
F68.580228105187416
sg33
g34
sg51
g11
sg20
S'1'
sg65
g36
(g77
S'\x00\x00\x00\x00\x00\x00\x00\x00'
tRp242
sg44
g45
sg40
g41
sg25
F0.44118126446846873
sS'trials.thisIndex'
p243
g36
(g80
S'3\x00\x00\x00'
tRp244
sg26
V5
sS'trials.thisRepN'
p245
I0
sg66
Vmagpie
p246
sg63
V../experiment_stimuli/bw_bc_bl/Living_Things/Birds/magpie_1.jpg
p247
sg21
F1.1226766398176551
sS'trials.thisTrialN'
p248
I14
sa(dp249
g31
g32
sg17
F71.902329907519743
sg24
I0
sg35
g39
sg14
F71.897526991320774
sg16
g36
(g70
S'\x01\x00\x00\x00'
tRp250
sg42
g43
sg46
g47
sg15
g100
sg22
F74.423668369534425
sg64
g73
sg62
g74
sg49
g50
sS'trials.thisN'
p251
I15
sg19
I0
sg27
g36
(g38
S'\x00\x00\x00\x00\x00\x00\x1a@'
tRp252
sg52
g53
sg23
S'2'
sg18
F73.190236162045039
sg33
g34
sg51
g11
sg20
S'2'
sg65
g36
(g77
S'\x00\x00\x00\x00\x00\x00\x00\x00'
tRp253
sg44
g45
sg40
g41
sg25
F0.79194663919042796
sS'trials.thisIndex'
p254
g36
(g80
S'\x1c\x00\x00\x00'
tRp255
sg26
V5
sS'trials.thisRepN'
p256
I0
sg66
Vfactory
p257
sg63
V../experiment_stimuli/bw_bc_bl/Nonliving_Things/Buildings/factory_5.jpg
p258
sg21
F1.2128605133621022
sS'trials.thisTrialN'
p259
I15
sa(dp260
g31
g32
sg17
F76.953459714073688
sg24
I1
sg35
g39
sg14
F76.948511830065399
sg16
g36
(g70
S'\x01\x00\x00\x00'
tRp261
sg42
g43
sg46
g47
sg15
g100
sg22
F80.045891369576566
sg64
g194
sg62
g74
sg49
g50
sS'trials.thisN'
p262
I16
sg19
I0
sg27
g36
(g38
S'\x00\x00\x00\x00\x00\x00 @'
tRp263
sg52
g53
sg23
S'1'
sg18
F78.231195930158719
sg33
g34
sg51
g11
sg20
S'2'
sg65
g36
(g77
S'\x00\x00\x00\x00\x00\x00\x00\x00'
tRp264
sg44
g45
sg40
g41
sg25
F0.42113846854772419
sS'trials.thisIndex'
p265
g36
(g80
S'@\x00\x00\x00'
tRp266
sg26
V5
sS'trials.thisRepN'
p267
I0
sg66
Vplane
p268
sg63
V../experiment_stimuli/bw_bc_bl/Nonliving_Things/Vehicles/plane_8.jpg
p269
sg21
F1.7941416434478015
sS'trials.thisTrialN'
p270
I16
sa(dp271
g31
g32
sg17
F82.205492248875089
sg24
I0
sg35
g39
sg14
F82.199921027990058
sg16
g36
(g70
S'\x01\x00\x00\x00'
tRp272
sg42
g43
sg46
g47
sg15
g72
sg22
F84.315150866401382
sg64
g126
sg62
g102
sg49
g50
sS'trials.thisN'
p273
I17
sg19
I1
sg27
g36
(g38
S'\x00\x00\x00\x00\x00\x00\x18@'
tRp274
sg52
g53
sg23
S'3'
sg18
F83.512674249941483
sg33
g34
sg51
g11
sg20
S'1'
sg65
g36
(g77
S'\x00\x00\x00\x00\x00\x00\x00\x00'
tRp275
sg44
g45
sg40
g41
sg25
F0.32093497877940536
sS'trials.thisIndex'
p276
g36
(g80
S'C\x00\x00\x00'
tRp277
sg26
V5
sS'trials.thisRepN'
p278
I0
sg66
Vraven
p279
sg63
V../experiment_stimuli/bw_bc_bl/Living_Things/Birds/raven_13.jpg
p280
sg21
F0.78192613634746522
sS'trials.thisTrialN'
p281
I17
sa(dp282
g31
g32
sg17
F86.373922494472936
sg24
I0
sg35
g39
sg14
F86.368982956162654
sg16
g36
(g70
S'\x01\x00\x00\x00'
tRp283
sg42
g43
sg46
g47
sg15
g72
sg22
F88.15347345219925
sg64
g101
sg62
g102
sg49
g50
sS'trials.thisN'
p284
I18
sg19
I1
sg27
g36
(g38
S'\x00\x00\x00\x00\x00\x00\x1a@'
tRp285
sg52
g53
sg23
S'3'
sg18
F87.651672841748223
sg33
g34
sg51
g11
sg20
S'1'
sg65
g36
(g77
S'\x00\x00\x00\x00\x00\x00\x00\x00'
tRp286
sg44
g45
sg40
g41
sg25
F0.36099301057402045
sS'trials.thisIndex'
p287
g36
(g80
S'_\x00\x00\x00'
tRp288
sg26
V5
sS'trials.thisRepN'
p289
I0
sg66
Vzebra
p290
sg63
V../experiment_stimuli/bw_bc_bl/Living_Things/Animals/zebra_23.jpg
p291
sg21
F0.48126410401891917
sS'trials.thisTrialN'
p292
I18
sa(dp293
g31
g32
sg17
F90.252339103608392
sg24
I0
sg35
g39
sg14
F90.247417117818259
sg16
g36
(g70
S'\x02\x00\x00\x00'
tRp294
sg42
g43
sg46
g47
sg15
g100
sg22
F92.202291609835811
sg64
VInsects
p295
sg62
g102
sg49
g50
sS'trials.thisN'
p296
I19
sg19
I0
sg27
g36
(g38
S'\x00\x00\x00\x00\x00\x00\x1a@'
tRp297
sg52
g53
sg23
S'2'
sg18
F91.510058030951768
sg33
g34
sg51
g11
sg20
S'1'
sg65
g36
(g77
S'\x00\x00\x00\x00\x00\x00\x00\x00'
tRp298
sg44
g45
sg40
g41
sg25
F0.34095882007386535
sS'trials.thisIndex'
p299
g36
(g80
S'-\x00\x00\x00'
tRp300
sg26
V5
sS'trials.thisRepN'
p301
I0
sg66
Vladybird
p302
sg63
V../experiment_stimuli/bw_bc_bl/Living_Things/Insects/ladybird_2.jpg
p303
sg21
F0.67167933541350067
sS'trials.thisTrialN'
p304
I19
sa(dp305
g31
g32
sg17
F94.28105438768398
sg24
I0
sg35
g39
sg14
F94.276168983895332
sg16
g36
(g70
S'\x01\x00\x00\x00'
tRp306
sg42
g43
sg46
g47
sg15
g72
sg22
F96.371391958207823
sg64
g217
sg62
g102
sg49
g50
sS'trials.thisN'
p307
I20
sg19
I1
sg27
g36
(g38
S'\x00\x00\x00\x00\x00\x00\x1c@'
tRp308
sg52
g53
sg23
S'2'
sg18
F95.528795330086723
sg33
g34
sg51
g11
sg20
S'1'
sg65
g36
(g77
S'\x00\x00\x00\x00\x00\x00\x00\x00'
tRp309
sg44
g45
sg40
g41
sg25
F0.4511963427066803
sS'trials.thisIndex'
p310
g36
(g80
S'7\x00\x00\x00'
tRp311
sg26
V5
sS'trials.thisRepN'
p312
I0
sg66
Vnarwhal
p313
sg63
V../experiment_stimuli/bw_bc_bl/Living_Things/Marine_creatures/narwhal_20.jpg
p314
sg21
F0.82202734402380884
sS'trials.thisTrialN'
p315
I20
sa(dp316
g31
g32
sg17
F98.561180115910247
sg24
I1
sg35
g39
sg14
F98.555490058497526
sg16
g36
(g70
S'\x01\x00\x00\x00'
tRp317
sg42
g43
sg46
g47
sg15
g100
sg22
F100.83106284076348
sg64
g73
sg62
g74
sg49
g50
sS'trials.thisN'
p318
I21
sg19
I1
sg27
g36
(g38
S'\x00\x00\x00\x00\x00\x00\x1a@'
tRp319
sg52
g53
sg23
S'1'
sg18
F99.798077356535941
sg33
g34
sg51
g11
sg20
S'1'
sg65
g36
(g77
S'\x00\x00\x00\x00\x00\x00\x00\x00'
tRp320
sg44
g45
sg40
g41
sg25
F0.40110616921447217
sS'trials.thisIndex'
p321
g36
(g80
S'\x11\x00\x00\x00'
tRp322
sg26
V5
sS'trials.thisRepN'
p323
I0
sg66
Vchurch
p324
sg63
V../experiment_stimuli/bw_bc_bl/Nonliving_Things/Buildings/church_0.jpg
p325
sg21
F1.0124284292105585
sS'trials.thisTrialN'
p326
I21
sa(dp327
g31
g32
sg17
F102.97001216269564
sg24
I1
sg35
g39
sg14
F102.96506023360416
sg16
g36
(g70
S'\x01\x00\x00\x00'
tRp328
sg42
g43
sg46
g47
sg15
g100
sg22
F105.42102521483321
sg64
g149
sg62
g74
sg49
g50
sS'trials.thisN'
p329
I22
sg19
I1
sg27
g36
(g38
S'\x00\x00\x00\x00\x00\x00\x1e@'
tRp330
sg52
g53
sg23
S'1'
sg18
F104.22770823724568
sg33
g34
sg51
g11
sg20
S'1'
sg65
g36
(g77
S'\x00\x00\x00\x00\x00\x00\x00\x00'
tRp331
sg44
g45
sg40
g41
sg25
F0.39107451587915421
sS'trials.thisIndex'
p332
g36
(g80
S'\x16\x00\x00\x00'
tRp333
sg26
V5
sS'trials.thisRepN'
p334
I0
sg66
Vcup
p335
sg63
V../experiment_stimuli/bw_bc_bl/Nonliving_Things/Kitchen_Uten/cup_21.jpg
p336
sg21
F1.1727524223970249
sS'trials.thisTrialN'
p337
I22
sa(dp338
g31
g32
sg17
F107.54999045014847
sg24
I0
sg35
g39
sg14
F107.54502640094142
sg16
g36
(g70
S'\x02\x00\x00\x00'
tRp339
sg42
g43
sg46
g47
sg15
g100
sg22
F109.55002917896491
sg64
g126
sg62
g102
sg49
g50
sS'trials.thisN'
p340
I23
sg19
I1
sg27
g36
(g38
S'\x00\x00\x00\x00\x00\x00\x18@'
tRp341
sg52
g53
sg23
S'2'
sg18
F108.81768812937662
sg33
g34
sg51
g11
sg20
S'2'
sg65
g36
(g77
S'\x00\x00\x00\x00\x00\x00\x00\x00'
tRp342
sg44
g45
sg40
g41
sg25
F0.35098995070438832
sS'trials.thisIndex'
p343
g36
(g80
S'8\x00\x00\x00'
tRp344
sg26
V5
sS'trials.thisRepN'
p345
I0
sg66
Vostrich
p346
sg63
V../experiment_stimuli/bw_bc_bl/Living_Things/Birds/ostrich_19.jpg
p347
sg21
F0.7117772011552006
sS'trials.thisTrialN'
p348
I23
sa(dp349
g31
g32
sg17
F111.63967189111281
sg24
I0
sg35
g39
sg14
F111.63390526303556
sg16
g36
(g70
S'\x02\x00\x00\x00'
tRp350
sg42
g43
sg46
g47
sg15
g72
sg22
F114.42063151835464
sg64
g114
sg62
g74
sg49
g50
sS'trials.thisN'
p351
I24
sg19
I1
sg27
g36
(g38
S'\x00\x00\x00\x00\x00\x00\x1c@'
tRp352
sg52
g53
sg23
S'3'
sg18
F112.8965472553391
sg33
g34
sg51
g11
sg20
S'2'
sg65
g36
(g77
S'\x00\x00\x00\x00\x00\x00\x00\x00'
tRp353
sg44
g45
sg40
g41
sg25
F0.43116109573747963
sS'trials.thisIndex'
p354
g36
(g80
S'Q\x00\x00\x00'
tRp355
sg26
V5
sS'trials.thisRepN'
p356
I0
sg66
Vtable
p357
sg63
V../experiment_stimuli/bw_bc_bl/Nonliving_Things/Furniture/table_24.jpg
p358
sg21
F1.5035071929451078
sS'trials.thisTrialN'
p359
I24
sa(dp360
g31
g32
sg17
F116.58962806046475
sg24
I1
sg35
g39
sg14
F116.58466655248776
sg16
g36
(g70
S'\x02\x00\x00\x00'
tRp361
sg42
g43
sg46
g47
sg15
g72
sg22
F118.5796607065713
sg64
g194
sg62
g74
sg49
g50
sS'trials.thisN'
p362
I25
sg19
I0
sg27
g36
(g38
S'\x00\x00\x00\x00\x00\x00\x1c@'
tRp363
sg52
g53
sg23
S'1'
sg18
F117.82726567389909
sg33
g34
sg51
g11
sg20
S'1'
sg65
g36
(g77
S'\x00\x00\x00\x00\x00\x00\x00\x00'
tRp364
sg44
g45
sg40
g41
sg25
F0.38105039985384792
sS'trials.thisIndex'
p365
g36
(g80
S'6\x00\x00\x00'
tRp366
sg26
V5
sS'trials.thisRepN'
p367
I0
sg66
Vmotorbike
p368
sg63
V../experiment_stimuli/bw_bc_bl/Nonliving_Things/Vehicles/motorbike_20.jpg
p369
sg21
F0.73183006409090012
sS'trials.thisTrialN'
p370
I25
sa(dp371
g31
g32
sg17
F120.69848922279198
sg24
I1
sg35
g39
sg14
F120.69360035657883
sg16
g36
(g70
S'\x01\x00\x00\x00'
tRp372
sg42
g43
sg46
g47
sg15
g72
sg22
F123.04938509932254
sg64
g126
sg62
g102
sg49
g50
sS'trials.thisN'
p373
I26
sg19
I1
sg27
g36
(g38
S'\x00\x00\x00\x00\x00\x00\x1c@'
tRp374
sg52
g53
sg23
S'1'
sg18
F121.96626907377504
sg33
g34
sg51
g11
sg20
S'1'
sg65
g36
(g77
S'\x00\x00\x00\x00\x00\x00\x00\x00'
tRp375
sg44
g45
sg40
g41
sg25
F0.54141140799038112
sS'trials.thisIndex'
p376
g36
(g80
S';\x00\x00\x00'
tRp377
sg26
V5
sS'trials.thisRepN'
p378
I0
sg66
Vpartridge
p379
sg63
V../experiment_stimuli/bw_bc_bl/Living_Things/Birds/partridge_19.jpg
p380
sg21
F1.0525192460045218
sS'trials.thisTrialN'
p381
I26
sa(dp382
g31
g32
sg17
F125.32946214836556
sg24
I0
sg35
g39
sg14
F125.32366386661306
sg16
g36
(g70
S'\x01\x00\x00\x00'
tRp383
sg42
g43
sg46
g47
sg15
g100
sg22
F127.32868343382142
sg64
g194
sg62
g74
sg49
g50
sS'trials.thisN'
p384
I27
sg19
I1
sg27
g36
(g38
S'\x00\x00\x00\x00\x00\x00\x1c@'
tRp385
sg52
g53
sg23
S'3'
sg18
F126.60635339876171
sg33
g34
sg51
g11
sg20
S'1'
sg65
g36
(g77
S'\x00\x00\x00\x00\x00\x00\x00\x00'
tRp386
sg44
g45
sg40
g41
sg25
F0.35098098090384156
sS'trials.thisIndex'
p387
g36
(g80
S'\x0b\x00\x00\x00'
tRp388
sg26
V5
sS'trials.thisRepN'
p389
I0
sg66
Vcar
p390
sg63
V../experiment_stimuli/bw_bc_bl/Nonliving_Things/Vehicles/car_7.jpg
p391
sg21
F0.7017670813947916
sS'trials.thisTrialN'
p392
I27
sa(dp393
g31
g32
sg17
F129.41843597509433
sg24
I0
sg35
g39
sg14
F129.41256789769977
sg16
g36
(g70
S'\x01\x00\x00\x00'
tRp394
sg42
g43
sg46
g47
sg15
g100
sg22
F131.30729201401118
sg64
g88
sg62
g74
sg49
g50
sS'trials.thisN'
p395
I28
sg19
I1
sg27
g36
(g38
S'\x00\x00\x00\x00\x00\x00\x18@'
tRp396
sg52
g53
sg23
S'2'
sg18
F130.67520035221241
sg33
g34
sg51
g11
sg20
S'1'
sg65
g36
(g77
S'\x00\x00\x00\x00\x00\x00\x00\x00'
tRp397
sg44
g45
sg40
g41
sg25
F1.3932457307819277
sS'trials.thisIndex'
p398
g36
(g80
S'\\\x00\x00\x00'
tRp399
sg26
V5
sS'trials.thisRepN'
p400
I0
sg66
Vviolin
p401
sg63
V../experiment_stimuli/bw_bc_bl/Nonliving_Things/Musical_Inst/violin_21.jpg
p402
sg21
F0.61155833525117487
sS'trials.thisTrialN'
p403
I28
sa(dp404
g31
g32
sg17
F134.43847142637242
sg24
I0
sg35
g39
sg14
F134.43346287414897
sg16
g36
(g70
S'\x01\x00\x00\x00'
tRp405
sg42
g43
sg46
g47
sg15
g100
sg22
F136.48842581233475
sg64
g149
sg62
g74
sg49
g50
sS'trials.thisN'
p406
I29
sg19
I1
sg27
g36
(g38
S'\x00\x00\x00\x00\x00\x00\x18@'
tRp407
sg52
g53
sg23
S'2'
sg18
F135.68609270534944
sg33
g34
sg51
g11
sg20
S'1'
sg65
g36
(g77
S'\x00\x00\x00\x00\x00\x00\x00\x00'
tRp408
sg44
g45
sg40
g41
sg25
F0.3611082419520244
sS'trials.thisIndex'
p409
g36
(g80
S'\x1e\x00\x00\x00'
tRp410
sg26
V5
sS'trials.thisRepN'
p411
I0
sg66
Vfondue
p412
sg63
V../experiment_stimuli/bw_bc_bl/Nonliving_Things/Kitchen_Uten/fondue_4.jpg
p413
sg21
F0.78176481148693711
sS'trials.thisTrialN'
p414
I29
sa(dp415
g31
g32
sg17
F138.58738058665767
sg24
I1
sg35
g39
sg14
F138.58250190108083
sg16
g36
(g70
S'\x01\x00\x00\x00'
tRp416
sg42
g43
sg46
g47
sg15
g100
sg22
F140.60752300859895
sg64
g149
sg62
g74
sg49
g50
sS'trials.thisN'
p417
I30
sg19
I1
sg27
g36
(g38
S'\x00\x00\x00\x00\x00\x00\x1a@'
tRp418
sg52
g53
sg23
S'1'
sg18
F139.82508821063675
sg33
g34
sg51
g11
sg20
S'1'
sg65
g36
(g77
S'\x00\x00\x00\x00\x00\x00\x00\x00'
tRp419
sg44
g45
sg40
g41
sg25
F0.48128166375681758
sS'trials.thisIndex'
p420
g36
(g80
S'\x12\x00\x00\x00'
tRp421
sg26
V5
sS'trials.thisRepN'
p422
I0
sg66
Vcoking-pot
p423
sg63
V../experiment_stimuli/bw_bc_bl/Nonliving_Things/Kitchen_Uten/coking-pot_13.jpg
p424
sg21
F0.76188478036783636
sS'trials.thisTrialN'
p425
I30
sa(dp426
g31
g32
sg17
F142.82751689548604
sg24
I1
sg35
g39
sg14
F142.82169959146995
sg16
g36
(g70
S'\x01\x00\x00\x00'
tRp427
sg42
g43
sg46
g47
sg15
g100
sg22
F144.84672673675232
sg64
g73
sg62
g74
sg49
g50
sS'trials.thisN'
p428
I31
sg19
I1
sg27
g36
(g38
S'\x00\x00\x00\x00\x00\x00\x18@'
tRp429
sg52
g53
sg23
S'1'
sg18
F144.08434960257728
sg33
g34
sg51
g11
sg20
S'1'
sg65
g36
(g77
S'\x00\x00\x00\x00\x00\x00\x00\x00'
tRp430
sg44
g45
sg40
g41
sg25
F0.3509772140532732
sS'trials.thisIndex'
p431
g36
(g80
S')\x00\x00\x00'
tRp432
sg26
V5
sS'trials.thisRepN'
p433
I0
sg66
Vhouse
p434
sg63
V../experiment_stimuli/bw_bc_bl/Nonliving_Things/Buildings/house_19.jpg
p435
sg21
F0.74183531571179628
sS'trials.thisTrialN'
p436
I31
sa(dp437
g31
g32
sg17
F146.93549522839021
sg24
I0
sg35
g39
sg14
F146.93063806497958
sg16
g36
(g70
S'\x02\x00\x00\x00'
tRp438
sg42
g43
sg46
g47
sg15
g100
sg22
F148.95569829212036
sg64
g126
sg62
g102
sg49
g50
sS'trials.thisN'
p439
I32
sg19
I1
sg27
g36
(g38
S'\x00\x00\x00\x00\x00\x00 @'
tRp440
sg52
g53
sg23
S'2'
sg18
F148.22334834840149
sg33
g34
sg51
g11
sg20
S'2'
sg65
g36
(g77
S'\x00\x00\x00\x00\x00\x00\x00\x00'
tRp441
sg44
g45
sg40
g41
sg25
F0.44119435420725495
sS'trials.thisIndex'
p442
g36
(g80
S'F\x00\x00\x00'
tRp443
sg26
V5
sS'trials.thisRepN'
p444
I0
sg66
Vrooster
p445
sg63
V../experiment_stimuli/bw_bc_bl/Living_Things/Birds/rooster_19.jpg
p446
sg21
F0.71179112186655402
sS'trials.thisTrialN'
p447
I32
sa(dp448
g31
g32
sg17
F151.13466546952259
sg24
I0
sg35
g39
sg14
F151.12976219772827
sg16
g36
(g70
S'\x01\x00\x00\x00'
tRp449
sg42
g43
sg46
g47
sg15
g72
sg22
F153.0646062848391
sg64
g217
sg62
g102
sg49
g50
sS'trials.thisN'
p450
I33
sg19
I1
sg27
g36
(g38
S'\x00\x00\x00\x00\x00\x00\x18@'
tRp451
sg52
g53
sg23
S'2'
sg18
F152.41245254559908
sg33
g34
sg51
g11
sg20
S'1'
sg65
g36
(g77
S'\x00\x00\x00\x00\x00\x00\x00\x00'
tRp452
sg44
g45
sg40
g41
sg25
F0.32091485906857997
sS'trials.thisIndex'
p453
g36
(g80
S'K\x00\x00\x00'
tRp454
sg26
V5
sS'trials.thisRepN'
p455
I0
sg66
Vshark
p456
sg63
V../experiment_stimuli/bw_bc_bl/Living_Things/Marine_creatures/shark_13.jpg
p457
sg21
F0.63159638701472431
sS'trials.thisTrialN'
p458
I33
sa(dp459
g31
g32
sg17
F155.12438471801579
sg24
I0
sg35
g39
sg14
F155.11842970922589
sg16
g36
(g70
S'\x02\x00\x00\x00'
tRp460
sg42
g43
sg46
g47
sg15
g72
sg22
F157.17354385217186
sg64
g88
sg62
g74
sg49
g50
sS'trials.thisN'
p461
I34
sg19
I1
sg27
g36
(g38
S'\x00\x00\x00\x00\x00\x00\x1a@'
tRp462
sg52
g53
sg23
S'2'
sg18
F156.3911020354135
sg33
g34
sg51
g11
sg20
S'2'
sg65
g36
(g77
S'\x00\x00\x00\x00\x00\x00\x00\x00'
tRp463
sg44
g45
sg40
g41
sg25
F0.44122259446885437
sS'trials.thisIndex'
p464
g36
(g80
S'X\x00\x00\x00'
tRp465
sg26
V5
sS'trials.thisRepN'
p466
I0
sg66
Vtrumpet
p467
sg63
V../experiment_stimuli/bw_bc_bl/Nonliving_Things/Musical_Inst/trumpet_7.jpg
p468
sg21
F0.76187853631563485
sS'trials.thisTrialN'
p469
I34
sa(dp470
g31
g32
sg17
F159.35261007316876
sg24
I0
sg35
g39
sg14
F159.34763817454223
sg16
g36
(g70
S'\x01\x00\x00\x00'
tRp471
sg42
g43
sg46
g47
sg15
g100
sg22
F161.46372005296871
sg64
g114
sg62
g74
sg49
g50
sS'trials.thisN'
p472
I35
sg19
I1
sg27
g36
(g38
S'\x00\x00\x00\x00\x00\x00\x18@'
tRp473
sg52
g53
sg23
S'2'
sg18
F160.61027413280681
sg33
g34
sg51
g11
sg20
S'1'
sg65
g36
(g77
S'\x00\x00\x00\x00\x00\x00\x00\x00'
tRp474
sg44
g45
sg40
g41
sg25
F0.3910624859854579
sS'trials.thisIndex'
p475
g36
(g80
S'\x13\x00\x00\x00'
tRp476
sg26
V5
sS'trials.thisRepN'
p477
I0
sg66
Vcouch
p478
sg63
V../experiment_stimuli/bw_bc_bl/Nonliving_Things/Furniture/couch_25.jpg
p479
sg21
F0.83289308683015406
sS'trials.thisTrialN'
p480
I35
sa(dp481
g31
g32
sg17
F163.59276064101141
sg24
I1
sg35
g39
sg14
F163.5868421504274
sg16
g36
(g70
S'\x02\x00\x00\x00'
tRp482
sg42
g43
sg46
g47
sg15
g100
sg22
F166.40358839684632
sg64
g101
sg62
g102
sg49
g50
sS'trials.thisN'
p483
I36
sg19
I1
sg27
g36
(g38
S'\x00\x00\x00\x00\x00\x00\x1c@'
tRp484
sg52
g53
sg23
S'1'
sg18
F164.83946695923805
sg33
g34
sg51
g11
sg20
S'2'
sg65
g36
(g77
S'\x00\x00\x00\x00\x00\x00\x00\x00'
tRp485
sg44
g45
sg40
g41
sg25
F0.60165014292579144
sS'trials.thisIndex'
p486
g36
(g80
S"'\x00\x00\x00"
tRp487
sg26
V5
sS'trials.thisRepN'
p488
I0
sg66
Vhippopotamus
p489
sg63
V../experiment_stimuli/bw_bc_bl/Living_Things/Animals/hippopotamus_13.jpg
p490
sg21
F1.5435802057618275
sS'trials.thisTrialN'
p491
I36
sa(dp492
g31
g32
sg17
F168.74397397309076
sg24
I0
sg35
g39
sg14
F168.7380409227917
sg16
g36
(g70
S'\x02\x00\x00\x00'
tRp493
sg42
g43
sg46
g47
sg15
g72
sg22
F171.4646139643155
sg64
g114
sg62
g74
sg49
g50
sS'trials.thisN'
p494
I37
sg19
I1
sg27
g36
(g38
S'\x00\x00\x00\x00\x00\x00 @'
tRp495
sg52
g53
sg23
S'2'
sg18
F170.02073089859914
sg33
g34
sg51
g11
sg20
S'2'
sg65
g36
(g77
S'\x00\x00\x00\x00\x00\x00\x00\x00'
tRp496
sg44
g45
sg40
g41
sg25
F0.39106002345215529
sS'trials.thisIndex'
p497
g36
(g80
S'N\x00\x00\x00'
tRp498
sg26
V5
sS'trials.thisRepN'
p499
I0
sg66
Vsofa
p500
sg63
V../experiment_stimuli/bw_bc_bl/Nonliving_Things/Furniture/sofa_18.jpg
p501
sg21
F1.4233158866409212
sS'trials.thisTrialN'
p502
I37
sa(dp503
g31
g32
sg17
F173.59355525264982
sg24
I0
sg35
g39
sg14
F173.58859025256243
sg16
g36
(g70
S'\x01\x00\x00\x00'
tRp504
sg42
g43
sg46
g47
sg15
g100
sg22
F176.32519924058579
sg64
g114
sg62
g74
sg49
g50
sS'trials.thisN'
p505
I38
sg19
I1
sg27
g36
(g38
S'\x00\x00\x00\x00\x00\x00\x1c@'
tRp506
sg52
g53
sg23
S'2'
sg18
F174.86125136446208
sg33
g34
sg51
g11
sg20
S'1'
sg65
g36
(g77
S'\x00\x00\x00\x00\x00\x00\x00\x00'
tRp507
sg44
g45
sg40
g41
sg25
F0.67168303462676704
sS'trials.thisIndex'
p508
g36
(g80
S'.\x00\x00\x00'
tRp509
sg26
V5
sS'trials.thisRepN'
p510
I0
sg66
Vlamp
p511
sg63
V../experiment_stimuli/bw_bc_bl/Nonliving_Things/Furniture/lamp_4.jpg
p512
sg21
F1.4333574946504086
sS'trials.thisTrialN'
p513
I38
sa(dp514
g31
g32
sg17
F178.73470094334334
sg24
I1
sg35
g39
sg14
F178.7297621795442
sg16
g36
(g70
S'\x02\x00\x00\x00'
tRp515
sg42
g43
sg46
g47
sg15
g72
sg22
F180.73474109673407
sg64
VTools
p516
sg62
g74
sg49
g50
sS'trials.thisN'
p517
I39
sg19
I1
sg27
g36
(g38
S'\x00\x00\x00\x00\x00\x00\x1a@'
tRp518
sg52
g53
sg23
S'1'
sg18
F179.99240810004994
sg33
g34
sg51
g11
sg20
S'2'
sg65
g36
(g77
S'\x00\x00\x00\x00\x00\x00\x00\x00'
tRp519
sg44
g45
sg40
g41
sg25
F0.41111172875389457
sS'trials.thisIndex'
p520
g36
(g80
S'\x03\x00\x00\x00'
tRp521
sg26
V5
sS'trials.thisRepN'
p522
I0
sg66
Vaxe
p523
sg63
V../experiment_stimuli/bw_bc_bl/Nonliving_Things/Tools/axe_14.jpg
p524
sg21
F0.72179331327788532
sS'trials.thisTrialN'
p525
I39
sa(dp526
g31
g32
sg17
F182.88366895238869
sg24
I0
sg35
g39
sg14
F182.87880620604847
sg16
g36
(g70
S'\x01\x00\x00\x00'
tRp527
sg42
g43
sg46
g47
sg15
g72
sg22
F185.07421432086267
sg64
g126
sg62
g102
sg49
g50
sS'trials.thisN'
p528
I40
sg19
I1
sg27
g36
(g38
S'\x00\x00\x00\x00\x00\x00\x1a@'
tRp529
sg52
g53
sg23
S'3'
sg18
F184.17150210624095
sg33
g34
sg51
g11
sg20
S'1'
sg65
g36
(g77
S'\x00\x00\x00\x00\x00\x00\x00\x00'
tRp530
sg44
g45
sg40
g41
sg25
F0.40108934242743999
sS'trials.thisIndex'
p531
g36
(g80
S'J\x00\x00\x00'
tRp532
sg26
V5
sS'trials.thisRepN'
p533
I0
sg66
Vseagull
p534
sg63
V../experiment_stimuli/bw_bc_bl/Living_Things/Birds/seagull_4.jpg
p535
sg21
F0.8821612608153373
sS'trials.thisTrialN'
p536
I40
sa(dp537
g31
g32
sg17
F187.21314216183964
sg24
I1
sg35
g39
sg14
F187.20819687575568
sg16
g36
(g70
S'\x01\x00\x00\x00'
tRp538
sg42
g43
sg46
g47
sg15
g72
sg22
F189.57396853563841
sg64
g126
sg62
g102
sg49
g50
sS'trials.thisN'
p539
I41
sg19
I0
sg27
g36
(g38
S'\x00\x00\x00\x00\x00\x00\x1a@'
tRp540
sg52
g53
sg23
S'1'
sg18
F188.47084322490264
sg33
g34
sg51
g11
sg20
S'2'
sg65
g36
(g77
S'\x00\x00\x00\x00\x00\x00\x00\x00'
tRp541
sg44
g45
sg40
g41
sg25
F0.48126934457104653
sS'trials.thisIndex'
p542
g36
(g80
S'*\x00\x00\x00'
tRp543
sg26
V5
sS'trials.thisRepN'
p544
I0
sg66
Vhummingbird
p545
sg63
V../experiment_stimuli/bw_bc_bl/Living_Things/Birds/hummingbird_14.jpg
p546
sg21
F1.0825810632668436
sS'trials.thisTrialN'
p547
I41
sa(dp548
g31
g32
sg17
F191.79304340179078
sg24
I1
sg35
g39
sg14
F191.78814559977036
sg16
g36
(g70
S'\x02\x00\x00\x00'
tRp549
sg42
g43
sg46
g47
sg15
g72
sg22
F193.64280094054993
sg64
g73
sg62
g74
sg49
g50
sS'trials.thisN'
p550
I42
sg19
I1
sg27
g36
(g38
S'\x00\x00\x00\x00\x00\x00\x1e@'
tRp551
sg52
g53
sg23
S'1'
sg18
F193.06082398560829
sg33
g34
sg51
g11
sg20
S'2'
sg65
g36
(g77
S'\x00\x00\x00\x00\x00\x00\x00\x00'
tRp552
sg44
g45
sg40
g41
sg25
F0.33096580894198269
sS'trials.thisIndex'
p553
g36
(g80
S'\x0c\x00\x00\x00'
tRp554
sg26
V5
sS'trials.thisRepN'
p555
I0
sg66
Vcastle
p556
sg63
V../experiment_stimuli/bw_bc_bl/Nonliving_Things/Buildings/castle_12.jpg
p557
sg21
F0.56143862847238779
sS'trials.thisTrialN'
p558
I42
sa(dp559
g31
g32
sg17
F195.71150597871747
sg24
I0
sg35
g39
sg14
F195.70666605560109
sg16
g36
(g70
S'\x02\x00\x00\x00'
tRp560
sg42
g43
sg46
g47
sg15
g100
sg22
F197.86185282911174
sg64
g126
sg62
g102
sg49
g50
sS'trials.thisN'
p561
I43
sg19
I1
sg27
g36
(g38
S'\x00\x00\x00\x00\x00\x00\x18@'
tRp562
sg52
g53
sg23
S'2'
sg18
F196.98936773440801
sg33
g34
sg51
g11
sg20
S'2'
sg65
g36
(g77
S'\x00\x00\x00\x00\x00\x00\x00\x00'
tRp563
sg44
g45
sg40
g41
sg25
F0.54140917467884719
sS'trials.thisIndex'
p564
g36
(g80
S'\x04\x00\x00\x00'
tRp565
sg26
V5
sS'trials.thisRepN'
p566
I0
sg66
Vbarn-owl
p567
sg63
V../experiment_stimuli/bw_bc_bl/Living_Things/Birds/barn-owl_17.jpg
p568
sg21
F0.8519225922646001
sS'trials.thisTrialN'
p569
I43
sa(dp570
g31
g32
sg17
F200.14122383925132
sg24
I0
sg35
g39
sg14
F200.13629623700399
sg16
g36
(g70
S'\x01\x00\x00\x00'
tRp571
sg42
g43
sg46
g47
sg15
g100
sg22
F202.26154145796318
sg64
g114
sg62
g74
sg49
g50
sS'trials.thisN'
p572
I44
sg19
I1
sg27
g36
(g38
S'\x00\x00\x00\x00\x00\x00\x18@'
tRp573
sg52
g53
sg23
S'2'
sg18
F201.40896750276443
sg33
g34
sg51
g11
sg20
S'1'
sg65
g36
(g77
S'\x00\x00\x00\x00\x00\x00\x00\x00'
tRp574
sg44
g45
sg40
g41
sg25
F0.3108902353560552
sS'trials.thisIndex'
p575
g36
(g80
S'\x00\x00\x00\x00'
tRp576
sg26
V5
sS'trials.thisRepN'
p577
I0
sg66
VChest-of-drawers
p578
sg63
V../experiment_stimuli/bw_bc_bl/Nonliving_Things/Furniture/Chest-of-drawers_19.jpg
p579
sg21
F0.83203225338365883
sS'trials.thisTrialN'
p580
I44
sa(dp581
g31
g32
sg17
F204.31133048934862
sg24
I0
sg35
g39
sg14
F204.30535671778489
sg16
g36
(g70
S'\x01\x00\x00\x00'
tRp582
sg42
g43
sg46
g47
sg15
g100
sg22
F206.86138264893088
sg64
g194
sg62
g74
sg49
g50
sS'trials.thisN'
p583
I45
sg19
I1
sg27
g36
(g38
S'\x00\x00\x00\x00\x00\x00\x18@'
tRp584
sg52
g53
sg23
S'3'
sg18
F205.56800472096074
sg33
g34
sg51
g11
sg20
S'1'
sg65
g36
(g77
S'\x00\x00\x00\x00\x00\x00\x00\x00'
tRp585
sg44
g45
sg40
g41
sg25
F0.46122064266819507
sS'trials.thisIndex'
p586
g36
(g80
S'\x07\x00\x00\x00'
tRp587
sg26
V5
sS'trials.thisRepN'
p588
I0
sg66
Vboat
p589
sg63
V../experiment_stimuli/bw_bc_bl/Nonliving_Things/Vehicles/boat_9.jpg
p590
sg21
F1.2728370416443795
sS'trials.thisTrialN'
p591
I45
sa(dp592
g31
g32
sg17
F209.06169353565201
sg24
I1
sg35
g39
sg14
F209.05568963312544
sg16
g36
(g70
S'\x01\x00\x00\x00'
tRp593
sg42
g43
sg46
g47
sg15
g72
sg22
F211.12082618114073
sg64
g217
sg62
g102
sg49
g50
sS'trials.thisN'
p594
I46
sg19
I1
sg27
g36
(g38
S'\x00\x00\x00\x00\x00\x00\x18@'
tRp595
sg52
g53
sg23
S'1'
sg18
F210.2882668604143
sg33
g34
sg51
g11
sg20
S'1'
sg65
g36
(g77
S'\x00\x00\x00\x00\x00\x00\x00\x00'
tRp596
sg44
g45
sg40
g41
sg25
F0.42114319803658873
sS'trials.thisIndex'
p597
g36
(g80
S'^\x00\x00\x00'
tRp598
sg26
V5
sS'trials.thisRepN'
p599
I0
sg66
Vwhale
p600
sg63
V../experiment_stimuli/bw_bc_bl/Living_Things/Marine_creatures/whale_13.jpg
p601
sg21
F0.81200075033120811
sS'trials.thisTrialN'
p602
I46
sa(dp603
g31
g32
sg17
F213.28083535574842
sg24
I1
sg35
g39
sg14
F213.27485097525641
sg16
g36
(g70
S'\x01\x00\x00\x00'
tRp604
sg42
g43
sg46
g47
sg15
g100
sg22
F217.32429459760897
sg64
g194
sg62
g74
sg49
g50
sS'trials.thisN'
p605
I47
sg19
I1
sg27
g36
(g38
S'\x00\x00\x00\x00\x00\x00\x18@'
tRp606
sg52
g53
sg23
S'1'
sg18
F214.51746180327609
sg33
g34
sg51
g11
sg20
S'1'
sg65
g36
(g77
S'\x00\x00\x00\x00\x00\x00\x00\x00'
tRp607
sg44
g45
sg40
g41
sg25
F0.360849843127653
sS'trials.thisIndex'
p608
g36
(g80
S'\t\x00\x00\x00'
tRp609
sg26
V5
sS'trials.thisRepN'
p610
I0
sg66
Vbus
p611
sg63
V../experiment_stimuli/bw_bc_bl/Nonliving_Things/Vehicles/bus_13.jpg
p612
sg21
F2.7862854910781607
sS'trials.thisTrialN'
p613
I47
sa(dp614
g31
g32
sg17
F219.42306491953786
sg24
I1
sg35
g39
sg14
F219.41821745154448
sg16
g36
(g70
S'\x02\x00\x00\x00'
tRp615
sg42
g43
sg46
g47
sg15
g100
sg22
F221.28274977870751
sg64
g217
sg62
g102
sg49
g50
sS'trials.thisN'
p616
I48
sg19
I1
sg27
g36
(g38
S'\x00\x00\x00\x00\x00\x00\x18@'
tRp617
sg52
g53
sg23
S'1'
sg18
F220.67084360588342
sg33
g34
sg51
g11
sg20
S'2'
sg65
g36
(g77
S'\x00\x00\x00\x00\x00\x00\x00\x00'
tRp618
sg44
g45
sg40
g41
sg25
F0.35097656003199518
sS'trials.thisIndex'
p619
g36
(g80
S'P\x00\x00\x00'
tRp620
sg26
V5
sS'trials.thisRepN'
p621
I0
sg66
Vsperm-whale
p622
sg63
V../experiment_stimuli/bw_bc_bl/Living_Things/Marine_creatures/sperm-whale_15.jpg
p623
sg21
F0.59135353844612837
sS'trials.thisTrialN'
p624
I48
sa(dp625
g31
g32
sg17
F223.37174176343251
sg24
I0
sg35
g39
sg14
F223.36679944675416
sg16
g36
(g70
S'\x02\x00\x00\x00'
tRp626
sg42
g43
sg46
g47
sg15
g100
sg22
F225.62233547493815
sg64
g126
sg62
g102
sg49
g50
sS'trials.thisN'
p627
I49
sg19
I1
sg27
g36
(g38
S'\x00\x00\x00\x00\x00\x00\x18@'
tRp628
sg52
g53
sg23
S'2'
sg18
F224.64948887762148
sg33
g34
sg51
g11
sg20
S'2'
sg65
g36
(g77
S'\x00\x00\x00\x00\x00\x00\x00\x00'
tRp629
sg44
g45
sg40
g41
sg25
F0.48128331790212542
sS'trials.thisIndex'
p630
g36
(g80
S',\x00\x00\x00'
tRp631
sg26
V5
sS'trials.thisRepN'
p632
I0
sg66
Vkiwi
p633
sg63
V../experiment_stimuli/bw_bc_bl/Living_Things/Birds/kiwi_17.jpg
p634
sg21
F0.9522973841521889
sS'trials.thisTrialN'
p635
I49
sa(dp636
g31
g32
sg17
F227.84361562517006
sg24
I0
sg35
g39
sg14
F227.83651563664898
sg16
g36
(g70
S'\x01\x00\x00\x00'
tRp637
sg42
g43
sg46
g47
sg15
g100
sg22
F229.8415148583008
sg64
g194
sg62
g74
sg49
g50
sS'trials.thisN'
p638
I50
sg19
I1
sg27
g36
(g38
S'\x00\x00\x00\x00\x00\x00\x18@'
tRp639
sg52
g53
sg23
S'2'
sg18
F229.10919129371177
sg33
g34
sg51
g11
sg20
S'1'
sg65
g36
(g77
S'\x00\x00\x00\x00\x00\x00\x00\x00'
tRp640
sg44
g45
sg40
g41
sg25
F0.37102558114565909
sS'trials.thisIndex'
p641
g36
(g80
S'L\x00\x00\x00'
tRp642
sg26
V5
sS'trials.thisRepN'
p643
I0
sg66
Vship
p644
sg63
V../experiment_stimuli/bw_bc_bl/Nonliving_Things/Vehicles/ship_12.jpg
p645
sg21
F0.71177004300989211
sS'trials.thisTrialN'
p646
I50
sa(dp647
g31
g32
sg17
F231.95142715598922
sg24
I1
sg35
g39
sg14
F231.94544551626313
sg16
g36
(g70
S'\x02\x00\x00\x00'
tRp648
sg42
g43
sg46
g47
sg15
g72
sg22
F233.93040775030386
sg64
g73
sg62
g74
sg49
g50
sS'trials.thisN'
p649
I51
sg19
I0
sg27
g36
(g38
S'\x00\x00\x00\x00\x00\x00\x18@'
tRp650
sg52
g53
sg23
S'1'
sg18
F233.20809260627721
sg33
g34
sg51
g11
sg20
S'1'
sg65
g36
(g77
S'\x00\x00\x00\x00\x00\x00\x00\x00'
tRp651
sg44
g45
sg40
g41
sg25
F0.33093748206738383
sS'trials.thisIndex'
p652
g36
(g80
S'5\x00\x00\x00'
tRp653
sg26
V5
sS'trials.thisRepN'
p654
I0
sg66
Vmill
p655
sg63
V../experiment_stimuli/bw_bc_bl/Nonliving_Things/Buildings/mill_9.jpg
p656
sg21
F0.70175123948138207
sS'trials.thisTrialN'
p657
I51
sa(dp658
g31
g32
sg17
F236.00037180061918
sg24
I1
sg35
g39
sg14
F235.99424735840876
sg16
g36
(g70
S'\x01\x00\x00\x00'
tRp659
sg42
g43
sg46
g47
sg15
g72
sg22
F237.91907193837687
sg64
g101
sg62
g102
sg49
g50
sS'trials.thisN'
p660
I52
sg19
I1
sg27
g36
(g38
S'\x00\x00\x00\x00\x00\x00\x18@'
tRp661
sg52
g53
sg23
S'1'
sg18
F237.27693717984948
sg33
g34
sg51
g11
sg20
S'1'
sg65
g36
(g77
S'\x00\x00\x00\x00\x00\x00\x00\x00'
tRp662
sg44
g45
sg40
g41
sg25
F0.32091544161085039
sS'trials.thisIndex'
p663
g36
(g80
S'2\x00\x00\x00'
tRp664
sg26
V5
sS'trials.thisRepN'
p665
I0
sg66
Vlynx
p666
sg63
V../experiment_stimuli/bw_bc_bl/Living_Things/Animals/lynx_2.jpg
p667
sg21
F0.62157786497846246
sS'trials.thisTrialN'
p668
I52
sa(dp669
g31
g32
sg17
F239.97906354535371
sg24
I1
sg35
g39
sg14
F239.97291650564875
sg16
g36
(g70
S'\x02\x00\x00\x00'
tRp670
sg42
g43
sg46
g47
sg15
g100
sg22
F242.21842097816989
sg64
g101
sg62
g102
sg49
g50
sS'trials.thisN'
p671
I53
sg19
I1
sg27
g36
(g38
S'\x00\x00\x00\x00\x00\x00\x1a@'
tRp672
sg52
g53
sg23
S'1'
sg18
F241.27562926989049
sg33
g34
sg51
g11
sg20
S'2'
sg65
g36
(g77
S'\x00\x00\x00\x00\x00\x00\x00\x00'
tRp673
sg44
g45
sg40
g41
sg25
F0.34081116411834955
sS'trials.thisIndex'
p674
g36
(g80
S'T\x00\x00\x00'
tRp675
sg26
V5
sS'trials.thisRepN'
p676
I0
sg66
Vtiger
p677
sg63
V../experiment_stimuli/bw_bc_bl/Living_Things/Animals/tiger_20.jpg
p678
sg21
F0.92222875077277422
sS'trials.thisTrialN'
p679
I53
sa(dp680
g31
g32
sg17
F244.2970868361881
sg24
I0
sg35
g39
sg14
F244.29228629590943
sg16
g36
(g70
S'\x02\x00\x00\x00'
tRp681
sg42
g43
sg46
g47
sg15
g72
sg22
F246.60796792525798
sg64
g88
sg62
g74
sg49
g50
sS'trials.thisN'
p682
I54
sg19
I1
sg27
g36
(g38
S'\x00\x00\x00\x00\x00\x00\x1a@'
tRp683
sg52
g53
sg23
S'3'
sg18
F245.60504154430237
sg33
g34
sg51
g11
sg20
S'2'
sg65
g36
(g77
S'\x00\x00\x00\x00\x00\x00\x00\x00'
tRp684
sg44
g45
sg40
g41
sg25
F0.60152772360015661
sS'trials.thisIndex'
p685
g36
(g80
S'\x19\x00\x00\x00'
tRp686
sg26
V5
sS'trials.thisRepN'
p687
I0
sg66
Vdrum
p688
sg63
V../experiment_stimuli/bw_bc_bl/Nonliving_Things/Musical_Inst/drum_4.jpg
p689
sg21
F0.9823614388005808
sS'trials.thisTrialN'
p690
I54
sa(dp691
g31
g32
sg17
F248.94733289175201
sg24
I1
sg35
g39
sg14
F248.94240433466621
sg16
g36
(g70
S'\x02\x00\x00\x00'
tRp692
sg42
g43
sg46
g47
sg15
g100
sg22
F251.07766793097835
sg64
g126
sg62
g102
sg49
g50
sS'trials.thisN'
p693
I55
sg19
I1
sg27
g36
(g38
S'\x00\x00\x00\x00\x00\x00\x1a@'
tRp694
sg52
g53
sg23
S'1'
sg18
F250.22508532565553
sg33
g34
sg51
g11
sg20
S'2'
sg65
g36
(g77
S'\x00\x00\x00\x00\x00\x00\x00\x00'
tRp695
sg44
g45
sg40
g41
sg25
F0.34081020567100495
sS'trials.thisIndex'
p696
g36
(g80
S'=\x00\x00\x00'
tRp697
sg26
V5
sS'trials.thisRepN'
p698
I0
sg66
Vpenguin
p699
sg63
V../experiment_stimuli/bw_bc_bl/Living_Things/Birds/penguin_22.jpg
p700
sg21
F0.83203685842454433
sS'trials.thisTrialN'
p701
I55
sa(dp702
g31
g32
sg17
F253.15649751236197
sg24
I1
sg35
g39
sg14
F253.15154978260398
sg16
g36
(g70
S'\x02\x00\x00\x00'
tRp703
sg42
g43
sg46
g47
sg15
g100
sg22
F255.22668845450971
sg64
g101
sg62
g102
sg49
g50
sS'trials.thisN'
p704
I56
sg19
I1
sg27
g36
(g38
S'\x00\x00\x00\x00\x00\x00\x1a@'
tRp705
sg52
g53
sg23
S'1'
sg18
F254.46429967740551
sg33
g34
sg51
g11
sg20
S'2'
sg65
g36
(g77
S'\x00\x00\x00\x00\x00\x00\x00\x00'
tRp706
sg44
g45
sg40
g41
sg25
F0.36100804037414491
sS'trials.thisIndex'
p707
g36
(g80
S'Z\x00\x00\x00'
tRp708
sg26
V5
sS'trials.thisRepN'
p709
I0
sg66
Vturtle
p710
sg63
V../experiment_stimuli/bw_bc_bl/Living_Things/Animals/turtle_11.jpg
p711
sg21
F0.74184277816675603
sS'trials.thisTrialN'
p712
I56
sa(dp713
g31
g32
sg17
F257.32550145243295
sg24
I0
sg35
g39
sg14
F257.32060895115137
sg16
g36
(g70
S'\x01\x00\x00\x00'
tRp714
sg42
g43
sg46
g47
sg15
g72
sg22
F259.866788177751
sg64
g101
sg62
g102
sg49
g50
sS'trials.thisN'
p715
I57
sg19
I1
sg27
g36
(g38
S'\x00\x00\x00\x00\x00\x00\x1a@'
tRp716
sg52
g53
sg23
S'2'
sg18
F258.66342983266804
sg33
g34
sg51
g11
sg20
S'1'
sg65
g36
(g77
S'\x00\x00\x00\x00\x00\x00\x00\x00'
tRp717
sg44
g45
sg40
g41
sg25
F0.36099652177654207
sS'trials.thisIndex'
p718
g36
(g80
S'\x10\x00\x00\x00'
tRp719
sg26
V5
sS'trials.thisRepN'
p720
I0
sg66
Vcheetah
p721
sg63
V../experiment_stimuli/bw_bc_bl/Living_Things/Animals/cheetah_2.jpg
p722
sg21
F1.1827977711800486
sS'trials.thisTrialN'
p723
I57
sa(dp724
g31
g32
sg17
F261.96564102871343
sg24
I1
sg35
g39
sg14
F261.96069706196431
sg16
g36
(g70
S'\x02\x00\x00\x00'
tRp725
sg42
g43
sg46
g47
sg15
g100
sg22
F263.96570144139696
sg64
g101
sg62
g102
sg49
g50
sS'trials.thisN'
p726
I58
sg19
I1
sg27
g36
(g38
S'\x00\x00\x00\x00\x00\x00\x18@'
tRp727
sg52
g53
sg23
S'1'
sg18
F263.29349642538
sg33
g34
sg51
g11
sg20
S'2'
sg65
g36
(g77
S'\x00\x00\x00\x00\x00\x00\x00\x00'
tRp728
sg44
g45
sg40
g41
sg25
F0.34095968084875494
sS'trials.thisIndex'
p729
g36
(g80
S'0\x00\x00\x00'
tRp730
sg26
V5
sS'trials.thisRepN'
p731
I0
sg66
Vlioness
p732
sg63
V../experiment_stimuli/bw_bc_bl/Living_Things/Animals/lioness_13.jpg
p733
sg21
F0.65164635167457163
sS'trials.thisTrialN'
p734
I58
sa(dp735
g31
g32
sg17
F266.04462656273972
sg24
I1
sg35
g39
sg14
F266.03957378910854
sg16
g36
(g70
S'\x01\x00\x00\x00'
tRp736
sg42
g43
sg46
g47
sg15
g72
sg22
F268.80623039940838
sg64
g217
sg62
g102
sg49
g50
sS'trials.thisN'
p737
I59
sg19
I1
sg27
g36
(g38
S'\x00\x00\x00\x00\x00\x00\x1e@'
tRp738
sg52
g53
sg23
S'1'
sg18
F267.40243060921784
sg33
g34
sg51
g11
sg20
S'1'
sg65
g36
(g77
S'\x00\x00\x00\x00\x00\x00\x00\x00'
tRp739
sg44
g45
sg40
g41
sg25
F0.42113406246062368
sS'trials.thisIndex'
p740
g36
(g80
S'A\x00\x00\x00'
tRp741
sg26
V5
sS'trials.thisRepN'
p742
I0
sg66
Vpomfret
p743
sg63
V../experiment_stimuli/bw_bc_bl/Living_Things/Marine_creatures/pomfret_6.jpg
p744
sg21
F1.3832348216092214
sS'trials.thisTrialN'
p745
I59
sa(dp746
g31
g32
sg17
F270.96536653744988
sg24
I0
sg35
g39
sg14
F270.96025708829984
sg16
g36
(g70
S'\x01\x00\x00\x00'
tRp747
sg42
g43
sg46
g47
sg15
g72
sg22
F273.1356281216722
sg64
g126
sg62
g102
sg49
g50
sS'trials.thisN'
p748
I60
sg19
I1
sg27
g36
(g38
S'\x00\x00\x00\x00\x00\x00\x18@'
tRp749
sg52
g53
sg23
S'3'
sg18
F272.34317578258924
sg33
g34
sg51
g11
sg20
S'1'
sg65
g36
(g77
S'\x00\x00\x00\x00\x00\x00\x00\x00'
tRp750
sg44
g45
sg40
g41
sg25
F0.35098787560127676
sS'trials.thisIndex'
p751
g36
(g80
S'U\x00\x00\x00'
tRp752
sg26
V5
sS'trials.thisRepN'
p753
I0
sg66
Vtoucan
p754
sg63
V../experiment_stimuli/bw_bc_bl/Living_Things/Birds/toucan_2.jpg
p755
sg21
F0.77190763689577579
sS'trials.thisTrialN'
p756
I60
sa(dp757
g31
g32
sg17
F275.22437339555472
sg24
I0
sg35
g39
sg14
F275.2195239989087
sg16
g36
(g70
S'\x01\x00\x00\x00'
tRp758
sg42
g43
sg46
g47
sg15
g72
sg22
F277.15438467217609
sg64
g295
sg62
g102
sg49
g50
sS'trials.thisN'
p759
I61
sg19
I1
sg27
g36
(g38
S'\x00\x00\x00\x00\x00\x00\x18@'
tRp760
sg52
g53
sg23
S'3'
sg18
F276.57236595102586
sg33
g34
sg51
g11
sg20
S'1'
sg65
g36
(g77
S'\x00\x00\x00\x00\x00\x00\x00\x00'
tRp761
sg44
g45
sg40
g41
sg25
F0.3710440433351323
sS'trials.thisIndex'
p762
g36
(g80
S'\x18\x00\x00\x00'
tRp763
sg26
V5
sS'trials.thisRepN'
p764
I0
sg66
Vdragonfly
p765
sg63
V../experiment_stimuli/bw_bc_bl/Living_Things/Insects/dragonfly_25.jpg
p766
sg21
F0.56144768104422837
sS'trials.thisTrialN'
p767
I61
sa(dp768
g31
g32
sg17
F279.26318329805508
sg24
I0
sg35
g39
sg14
F279.25829948438331
sg16
g36
(g70
S'\x01\x00\x00\x00'
tRp769
sg42
g43
sg46
g47
sg15
g72
sg22
F281.10298547917046
sg64
g217
sg62
g102
sg49
g50
sS'trials.thisN'
p770
I62
sg19
I1
sg27
g36
(g38
S'\x00\x00\x00\x00\x00\x00\x1c@'
tRp771
sg52
g53
sg23
S'3'
sg18
F280.59110362222418
sg33
g34
sg51
g11
sg20
S'1'
sg65
g36
(g77
S'\x00\x00\x00\x00\x00\x00\x00\x00'
tRp772
sg44
g45
sg40
g41
sg25
F0.36099717195611447
sS'trials.thisIndex'
p773
g36
(g80
S'\x15\x00\x00\x00'
tRp774
sg26
V5
sS'trials.thisRepN'
p775
I0
sg66
Vcrab
p776
sg63
V../experiment_stimuli/bw_bc_bl/Living_Things/Marine_creatures/crab_11.jpg
p777
sg21
F0.49131303525064141
sS'trials.thisTrialN'
p778
I62
sa(dp779
g31
g32
sg17
F283.20182567264419
sg24
I0
sg35
g39
sg14
F283.19686278887093
sg16
g36
(g70
S'\x02\x00\x00\x00'
tRp780
sg42
g43
sg46
g47
sg15
g100
sg22
F285.5927381379297
sg64
g101
sg62
g102
sg49
g50
sS'trials.thisN'
p781
I63
sg19
I1
sg27
g36
(g38
S'\x00\x00\x00\x00\x00\x00\x1c@'
tRp782
sg52
g53
sg23
S'2'
sg18
F284.4995974135818
sg33
g34
sg51
g11
sg20
S'2'
sg65
g36
(g77
S'\x00\x00\x00\x00\x00\x00\x00\x00'
tRp783
sg44
g45
sg40
g41
sg25
F0.37102876894641668
sS'trials.thisIndex'
p784
g36
(g80
S'D\x00\x00\x00'
tRp785
sg26
V5
sS'trials.thisRepN'
p786
I0
sg66
Vrhino
p787
sg63
V../experiment_stimuli/bw_bc_bl/Living_Things/Animals/rhino_23.jpg
p788
sg21
F1.0725784098030999
sS'trials.thisTrialN'
p789
I63
sa(dp790
g31
g32
sg17
F287.70292503328528
sg24
I1
sg35
g39
sg14
F287.69664242037106
sg16
g36
(g70
S'\x02\x00\x00\x00'
tRp791
sg42
g43
sg46
g47
sg15
g100
sg22
F289.95222534623463
sg64
g217
sg62
g102
sg49
g50
sS'trials.thisN'
p792
I64
sg19
I1
sg27
g36
(g38
S'\x00\x00\x00\x00\x00\x00\x18@'
tRp793
sg52
g53
sg23
S'1'
sg18
F288.98936930112541
sg33
g34
sg51
g11
sg20
S'2'
sg65
g36
(g77
S'\x00\x00\x00\x00\x00\x00\x00\x00'
tRp794
sg44
g45
sg40
g41
sg25
F0.37102077272720635
sS'trials.thisIndex'
p795
g36
(g80
S'+\x00\x00\x00'
tRp796
sg26
V5
sS'trials.thisRepN'
p797
I0
sg66
Vkiller-whale
p798
sg63
V../experiment_stimuli/bw_bc_bl/Living_Things/Marine_creatures/killer-whale_12.jpg
p799
sg21
F0.94228677963837981
sS'trials.thisTrialN'
p800
I64
sa(dp801
g31
g32
sg17
F292.06101993087213
sg24
I0
sg35
g39
sg14
F292.05612838047091
sg16
g36
(g70
S'\x02\x00\x00\x00'
tRp802
sg42
g43
sg46
g47
sg15
g72
sg22
F294.32167156611104
sg64
g73
sg62
g74
sg49
g50
sS'trials.thisN'
p803
I65
sg19
I1
sg27
g36
(g38
S'\x00\x00\x00\x00\x00\x00\x18@'
tRp804
sg52
g53
sg23
S'3'
sg18
F293.37889771466143
sg33
g34
sg51
g11
sg20
S'2'
sg65
g36
(g77
S'\x00\x00\x00\x00\x00\x00\x00\x00'
tRp805
sg44
g45
sg40
g41
sg25
F0.34095488779712468
sS'trials.thisIndex'
p806
g36
(g80
S'\x0e\x00\x00\x00'
tRp807
sg26
V5
sS'trials.thisRepN'
p808
I0
sg66
Vcathedral
p809
sg63
V../experiment_stimuli/bw_bc_bl/Nonliving_Things/Buildings/cathedral_24.jpg
p810
sg21
F0.91220562753733248
sS'trials.thisTrialN'
p811
I65
sa(dp812
g31
g32
sg17
F296.40039062662981
sg24
I0
sg35
g39
sg14
F296.39555485383607
sg16
g36
(g70
S'\x01\x00\x00\x00'
tRp813
sg42
g43
sg46
g47
sg15
g72
sg22
F298.70120782940648
sg64
g126
sg62
g102
sg49
g50
sS'trials.thisN'
p814
I66
sg19
I1
sg27
g36
(g38
S'\x00\x00\x00\x00\x00\x00\x1a@'
tRp815
sg52
g53
sg23
S'2'
sg18
F297.67824426933657
sg33
g34
sg51
g11
sg20
S'1'
sg65
g36
(g77
S'\x00\x00\x00\x00\x00\x00\x00\x00'
tRp816
sg44
g45
sg40
g41
sg25
F0.46124246600084007
sS'trials.thisIndex'
p817
g36
(g80
S'"\x00\x00\x00'
tRp818
sg26
V5
sS'trials.thisRepN'
p819
I0
sg66
Vgoose
p820
sg63
V../experiment_stimuli/bw_bc_bl/Living_Things/Birds/goose_8.jpg
p821
sg21
F1.0024060274008662
sS'trials.thisTrialN'
p822
I66
sa(dp823
g31
g32
sg17
F300.90014806296676
sg24
I0
sg35
g39
sg14
F300.89534817286767
sg16
g36
(g70
S'\x01\x00\x00\x00'
tRp824
sg42
g43
sg46
g47
sg15
g100
sg22
F302.89016005175654
sg64
g114
sg62
g74
sg49
g50
sS'trials.thisN'
p825
I67
sg19
I1
sg27
g36
(g38
S'\x00\x00\x00\x00\x00\x00\x1a@'
tRp826
sg52
g53
sg23
S'2'
sg18
F302.16800604423042
sg33
g34
sg51
g11
sg20
S'1'
sg65
g36
(g77
S'\x00\x00\x00\x00\x00\x00\x00\x00'
tRp827
sg44
g45
sg40
g41
sg25
F0.36110686243046075
sS'trials.thisIndex'
p828
g36
(g80
S']\x00\x00\x00'
tRp829
sg26
V5
sS'trials.thisRepN'
p830
I0
sg66
Vwardrobe
p831
sg63
V../experiment_stimuli/bw_bc_bl/Nonliving_Things/Furniture/wardrobe_19.jpg
p832
sg21
F0.70159060228615999
sS'trials.thisTrialN'
p833
I67
sa(dp834
g31
g32
sg17
F304.99044525821228
sg24
I0
sg35
g39
sg14
F304.98422257287893
sg16
g36
(g70
S'\x01\x00\x00\x00'
tRp835
sg42
g43
sg46
g47
sg15
g100
sg22
F306.9290950386785
sg64
g88
sg62
g74
sg49
g50
sS'trials.thisN'
p836
I68
sg19
I1
sg27
g36
(g38
S'\x00\x00\x00\x00\x00\x00\x1a@'
tRp837
sg52
g53
sg23
S'3'
sg18
F306.24688012478873
sg33
g34
sg51
g11
sg20
S'1'
sg65
g36
(g77
S'\x00\x00\x00\x00\x00\x00\x00\x00'
tRp838
sg44
g45
sg40
g41
sg25
F0.33093377179466188
sS'trials.thisIndex'
p839
g36
(g80
S'$\x00\x00\x00'
tRp840
sg26
V5
sS'trials.thisRepN'
p841
I0
sg66
Vguitar
p842
sg63
V../experiment_stimuli/bw_bc_bl/Nonliving_Things/Musical_Inst/guitar_16.jpg
p843
sg21
F0.66166508395690471
sS'trials.thisTrialN'
p844
I68
sa(dp845
g31
g32
sg17
F309.00041655113455
sg24
I0
sg35
g39
sg14
F308.99294355290476
sg16
g36
(g70
S'\x01\x00\x00\x00'
tRp846
sg42
g43
sg46
g47
sg15
g100
sg22
F310.99793051870074
sg64
g114
sg62
g74
sg49
g50
sS'trials.thisN'
p847
I69
sg19
I1
sg27
g36
(g38
S'\x00\x00\x00\x00\x00\x00\x1e@'
tRp848
sg52
g53
sg23
S'2'
sg18
F310.23554289981257
sg33
g34
sg51
g11
sg20
S'1'
sg65
g36
(g77
S'\x00\x00\x00\x00\x00\x00\x00\x00'
tRp849
sg44
g45
sg40
g41
sg25
F0.69172011967748404
sS'trials.thisIndex'
p850
g36
(g80
S'/\x00\x00\x00'
tRp851
sg26
V5
sS'trials.thisRepN'
p852
I0
sg66
Vlectern
p853
sg63
V../experiment_stimuli/bw_bc_bl/Nonliving_Things/Furniture/lectern_14.jpg
p854
sg21
F0.74183880432974547
sS'trials.thisTrialN'
p855
I69
sa(dp856
g31
g32
sg17
F313.42730735428631
sg24
I1
sg35
g39
sg14
F313.42256711388472
sg16
g36
(g70
S'\x02\x00\x00\x00'
tRp857
sg42
g43
sg46
g47
sg15
g100
sg22
F315.71802068315446
sg64
g295
sg62
g102
sg49
g50
sS'trials.thisN'
p858
I70
sg19
I1
sg27
g36
(g38
S'\x00\x00\x00\x00\x00\x00\x1a@'
tRp859
sg52
g53
sg23
S'1'
sg18
F314.66517150588334
sg33
g34
sg51
g11
sg20
S'2'
sg65
g36
(g77
S'\x00\x00\x00\x00\x00\x00\x00\x00'
tRp860
sg44
g45
sg40
g41
sg25
F0.4411803960101679
sS'trials.thisIndex'
p861
g36
(g80
S'\n\x00\x00\x00'
tRp862
sg26
V5
sS'trials.thisRepN'
p863
I0
sg66
Vbutterfly
p864
sg63
V../experiment_stimuli/bw_bc_bl/Living_Things/Insects/butterfly_2.jpg
p865
sg21
F1.0323080989765003
sS'trials.thisTrialN'
p866
I70
sa(dp867
g31
g32
sg17
F317.89703332202043
sg24
I1
sg35
g39
sg14
F317.89228878496215
sg16
g36
(g70
S'\x01\x00\x00\x00'
tRp868
sg42
g43
sg46
g47
sg15
g100
sg22
F320.03762002289295
sg64
g114
sg62
g74
sg49
g50
sS'trials.thisN'
p869
I71
sg19
I1
sg27
g36
(g38
S'\x00\x00\x00\x00\x00\x00\x18@'
tRp870
sg52
g53
sg23
S'1'
sg18
F319.14491130772512
sg33
g34
sg51
g11
sg20
S'1'
sg65
g36
(g77
S'\x00\x00\x00\x00\x00\x00\x00\x00'
tRp871
sg44
g45
sg40
g41
sg25
F0.37102336308453232
sS'trials.thisIndex'
p872
g36
(g80
S'\x1d\x00\x00\x00'
tRp873
sg26
V5
sS'trials.thisRepN'
p874
I0
sg66
Vfilling-cabinet
p875
sg63
V../experiment_stimuli/bw_bc_bl/Nonliving_Things/Furniture/filling-cabinet_20.jpg
p876
sg21
F0.87213862640783191
sS'trials.thisTrialN'
p877
I71
sa(dp878
g31
g32
sg17
F322.14785222976934
sg24
I1
sg35
g39
sg14
F322.14152217365336
sg16
g36
(g70
S'\x02\x00\x00\x00'
tRp879
sg42
g43
sg46
g47
sg15
g72
sg22
F324.24674055003561
sg64
g88
sg62
g74
sg49
g50
sS'trials.thisN'
p880
I72
sg19
I1
sg27
g36
(g38
S'\x00\x00\x00\x00\x00\x00\x1e@'
tRp881
sg52
g53
sg23
S'1'
sg18
F323.43424050963949
sg33
g34
sg51
g11
sg20
S'2'
sg65
g36
(g77
S'\x00\x00\x00\x00\x00\x00\x00\x00'
tRp882
sg44
g45
sg40
g41
sg25
F0.35097872884944081
sS'trials.thisIndex'
p883
g36
(g80
S'H\x00\x00\x00'
tRp884
sg26
V5
sS'trials.thisRepN'
p885
I0
sg66
Vsaxophone
p886
sg63
V../experiment_stimuli/bw_bc_bl/Nonliving_Things/Musical_Inst/saxophone_3.jpg
p887
sg21
F0.79195234226062894
sS'trials.thisTrialN'
p888
I72
sa(dp889
g31
g32
sg17
F326.33832025353331
sg24
I1
sg35
g39
sg14
F326.33062892756425
sg16
g36
(g70
S'\x02\x00\x00\x00'
tRp890
sg42
g43
sg46
g47
sg15
g100
sg22
F328.78663088171743
sg64
g101
sg62
g102
sg49
g50
sS'trials.thisN'
p891
I73
sg19
I1
sg27
g36
(g38
S'\x00\x00\x00\x00\x00\x00\x18@'
tRp892
sg52
g53
sg23
S'1'
sg18
F327.64338223973755
sg33
g34
sg51
g11
sg20
S'2'
sg65
g36
(g77
S'\x00\x00\x00\x00\x00\x00\x00\x00'
tRp893
sg44
g45
sg40
g41
sg25
F0.37104652053676546
sS'trials.thisIndex'
p894
g36
(g80
S'(\x00\x00\x00'
tRp895
sg26
V5
sS'trials.thisRepN'
p896
I0
sg66
Vhorse
p897
sg63
V../experiment_stimuli/bw_bc_bl/Living_Things/Animals/horse_2.jpg
p898
sg21
F1.1226866017095745
sS'trials.thisTrialN'
p899
I73
sa(dp900
g31
g32
sg17
F330.89673930080608
sg24
I0
sg35
g39
sg14
F330.89054063777439
sg16
g36
(g70
S'\x02\x00\x00\x00'
tRp901
sg42
g43
sg46
g47
sg15
g72
sg22
F332.86545685771853
sg64
g114
sg62
g74
sg49
g50
sS'trials.thisN'
p902
I74
sg19
I1
sg27
g36
(g38
S'\x00\x00\x00\x00\x00\x00\x18@'
tRp903
sg52
g53
sg23
S'3'
sg18
F332.223340260447
sg33
g34
sg51
g11
sg20
S'2'
sg65
g36
(g77
S'\x00\x00\x00\x00\x00\x00\x00\x00'
tRp904
sg44
g45
sg40
g41
sg25
F1.4333347621141002
sS'trials.thisIndex'
p905
g36
(g80
S'\x08\x00\x00\x00'
tRp906
sg26
V5
sS'trials.thisRepN'
p907
I0
sg66
Vbookcase
p908
sg63
V../experiment_stimuli/bw_bc_bl/Nonliving_Things/Furniture/bookcase_4.jpg
p909
sg21
F0.62157455319538713
sS'trials.thisTrialN'
p910
I74
sa(dp911
g31
g32
sg17
F336.03662268235348
sg24
I0
sg35
g39
sg14
F336.03172347799409
sg16
g36
(g70
S'\x01\x00\x00\x00'
tRp912
sg42
g43
sg46
g47
sg15
g100
sg22
F338.14696859440301
sg64
g73
sg62
g74
sg49
g50
sS'trials.thisN'
p913
I75
sg19
I1
sg27
g36
(g38
S'\x00\x00\x00\x00\x00\x00\x18@'
tRp914
sg52
g53
sg23
S'3'
sg18
F337.35449301148765
sg33
g34
sg51
g11
sg20
S'1'
sg65
g36
(g77
S'\x00\x00\x00\x00\x00\x00\x00\x00'
tRp915
sg44
g45
sg40
g41
sg25
F0.40109039866365492
sS'trials.thisIndex'
p916
g36
(g80
S'#\x00\x00\x00'
tRp917
sg26
V5
sS'trials.thisRepN'
p918
I0
sg66
Vgranary
p919
sg63
V../experiment_stimuli/bw_bc_bl/Nonliving_Things/Buildings/granary_4.jpg
p920
sg21
F0.77190961816813797
sS'trials.thisTrialN'
p921
I75
sa(dp922
g31
g32
sg17
F340.28572387748864
sg24
I0
sg35
g39
sg14
F340.28095486317761
sg16
g36
(g70
S'\x01\x00\x00\x00'
tRp923
sg42
g43
sg46
g47
sg15
g72
sg22
F342.38616280362476
sg64
g126
sg62
g102
sg49
g50
sS'trials.thisN'
p924
I76
sg19
I1
sg27
g36
(g38
S'\x00\x00\x00\x00\x00\x00\x18@'
tRp925
sg52
g53
sg23
S'2'
sg18
F341.57367634575348
sg33
g34
sg51
g11
sg20
S'1'
sg65
g36
(g77
S'\x00\x00\x00\x00\x00\x00\x00\x00'
tRp926
sg44
g45
sg40
g41
sg25
F0.34096193290315568
sS'trials.thisIndex'
p927
g36
(g80
S'<\x00\x00\x00'
tRp928
sg26
V5
sS'trials.thisRepN'
p929
I0
sg66
Vpelican
p930
sg63
V../experiment_stimuli/bw_bc_bl/Living_Things/Birds/pelican_21.jpg
p931
sg21
F0.79195546254049987
sS'trials.thisTrialN'
p932
I76
sa(dp933
g31
g32
sg17
F344.464963828912
sg24
I0
sg35
g39
sg14
F344.46004293707665
sg16
g36
(g70
S'\x02\x00\x00\x00'
tRp934
sg42
g43
sg46
g47
sg15
g72
sg22
F346.35480122617446
sg64
g149
sg62
g74
sg49
g50
sS'trials.thisN'
p935
I77
sg19
I1
sg27
g36
(g38
S'\x00\x00\x00\x00\x00\x00\x1c@'
tRp936
sg52
g53
sg23
S'3'
sg18
F345.75275379186496
sg33
g34
sg51
g11
sg20
S'2'
sg65
g36
(g77
S'\x00\x00\x00\x00\x00\x00\x00\x00'
tRp937
sg44
g45
sg40
g41
sg25
F0.65163461142219603
sS'trials.thisIndex'
p938
g36
(g80
S'B\x00\x00\x00'
tRp939
sg26
V5
sS'trials.thisRepN'
p940
I0
sg66
Vpot
p941
sg63
V../experiment_stimuli/bw_bc_bl/Nonliving_Things/Kitchen_Uten/pot_21.jpg
p942
sg21
F0.58149311935994774
sS'trials.thisTrialN'
p943
I77
sa(dp944
g31
g32
sg17
F348.74404665525071
sg24
I0
sg35
g39
sg14
F348.73934741783887
sg16
g36
(g70
S'\x01\x00\x00\x00'
tRp945
sg42
g43
sg46
g47
sg15
g100
sg22
F350.66418556950521
sg64
g149
sg62
g74
sg49
g50
sS'trials.thisN'
p946
I78
sg19
I1
sg27
g36
(g38
S'\x00\x00\x00\x00\x00\x00\x1a@'
tRp947
sg52
g53
sg23
S'3'
sg18
F350.00200834218413
sg33
g34
sg51
g11
sg20
S'1'
sg65
g36
(g77
S'\x00\x00\x00\x00\x00\x00\x00\x00'
tRp948
sg44
g45
sg40
g41
sg25
F0.39106700080446899
sS'trials.thisIndex'
p949
g36
(g80
S'G\x00\x00\x00'
tRp950
sg26
V5
sS'trials.thisRepN'
p951
I0
sg66
Vsaucepan
p952
sg63
V../experiment_stimuli/bw_bc_bl/Nonliving_Things/Kitchen_Uten/saucepan_20.jpg
p953
sg21
F0.6416403972543776
sS'trials.thisTrialN'
p954
I78
sa(dp955
g31
g32
sg17
F352.79289443651214
sg24
I1
sg35
g39
sg14
F352.78814100439195
sg16
g36
(g70
S'\x01\x00\x00\x00'
tRp956
sg42
g43
sg46
g47
sg15
g72
sg22
F354.85326003027149
sg64
g126
sg62
g102
sg49
g50
sS'trials.thisN'
p957
I79
sg19
I0
sg27
g36
(g38
S'\x00\x00\x00\x00\x00\x00\x18@'
tRp958
sg52
g53
sg23
S'1'
sg18
F354.0307539376663
sg33
g34
sg51
g11
sg20
S'2'
sg65
g36
(g77
S'\x00\x00\x00\x00\x00\x00\x00\x00'
tRp959
sg44
g45
sg40
g41
sg25
F0.35098224051762372
sS'trials.thisIndex'
p960
g36
(g80
S'9\x00\x00\x00'
tRp961
sg26
V5
sS'trials.thisRepN'
p962
I0
sg66
Vowl
p963
sg63
V../experiment_stimuli/bw_bc_bl/Living_Things/Birds/owl_0.jpg
p964
sg21
F0.80194943968672305
sS'trials.thisTrialN'
p965
I79
sa(dp966
g31
g32
sg17
F356.94190518534742
sg24
I1
sg35
g39
sg14
F356.9371799036162
sg16
g36
(g70
S'\x02\x00\x00\x00'
tRp967
sg42
g43
sg46
g47
sg15
g100
sg22
F359.19271434890106
sg64
g217
sg62
g102
sg49
g50
sS'trials.thisN'
p968
I80
sg19
I1
sg27
g36
(g38
S'\x00\x00\x00\x00\x00\x00\x18@'
tRp969
sg52
g53
sg23
S'1'
sg18
F358.19981909892522
sg33
g34
sg51
g11
sg20
S'2'
sg65
g36
(g77
S'\x00\x00\x00\x00\x00\x00\x00\x00'
tRp970
sg44
g45
sg40
g41
sg25
F0.37102606985718012
sS'trials.thisIndex'
p971
g36
(g80
S'4\x00\x00\x00'
tRp972
sg26
V5
sS'trials.thisRepN'
p973
I0
sg66
Vmanatee
p974
sg63
V../experiment_stimuli/bw_bc_bl/Living_Things/Marine_creatures/manatee_10.jpg
p975
sg21
F0.97236014949157834
sS'trials.thisTrialN'
p976
I80
sa(dp977
g31
g32
sg17
F361.3015343392035
sg24
I1
sg35
g39
sg14
F361.29665939765982
sg16
g36
(g70
S'\x02\x00\x00\x00'
tRp978
sg42
g43
sg46
g47
sg15
g72
sg22
F363.41187839012127
sg64
g149
sg62
g74
sg49
g50
sS'trials.thisN'
p979
I81
sg19
I0
sg27
g36
(g38
S'\x00\x00\x00\x00\x00\x00\x1a@'
tRp980
sg52
g53
sg23
S'1'
sg18
F362.57933779468294
sg33
g34
sg51
g11
sg20
S'1'
sg65
g36
(g77
S'\x00\x00\x00\x00\x00\x00\x00\x00'
tRp981
sg44
g45
sg40
g41
sg25
F0.3409577599959448
sS'trials.thisIndex'
p982
g36
(g80
S'S\x00\x00\x00'
tRp983
sg26
V5
sS'trials.thisRepN'
p984
I0
sg66
Vteapot
p985
sg63
V../experiment_stimuli/bw_bc_bl/Nonliving_Things/Kitchen_Uten/teapot_13.jpg
p986
sg21
F0.81198779225815088
sS'trials.thisTrialN'
p987
I81
sa(dp988
g31
g32
sg17
F365.49051691056229
sg24
I0
sg35
g39
sg14
F365.48574144113809
sg16
g36
(g70
S'\x02\x00\x00\x00'
tRp989
sg42
g43
sg46
g47
sg15
g100
sg22
F367.54085485485848
sg64
g126
sg62
g102
sg49
g50
sS'trials.thisN'
p990
I82
sg19
I1
sg27
g36
(g38
S'\x00\x00\x00\x00\x00\x00\x1a@'
tRp991
sg52
g53
sg23
S'2'
sg18
F366.80852970737033
sg33
g34
sg51
g11
sg20
S'2'
sg65
g36
(g77
S'\x00\x00\x00\x00\x00\x00\x00\x00'
tRp992
sg44
g45
sg40
g41
sg25
F0.32091556547675282
sS'trials.thisIndex'
p993
g36
(g80
S'\x1a\x00\x00\x00'
tRp994
sg26
V5
sS'trials.thisRepN'
p995
I0
sg66
Vduck
p996
sg63
V../experiment_stimuli/bw_bc_bl/Living_Things/Birds/duck_17.jpg
p997
sg21
F0.71177532500587404
sS'trials.thisTrialN'
p998
I82
sa(dp999
g31
g32
sg17
F369.5993425771594
sg24
I0
sg35
g39
sg14
F369.59468006109819
sg16
g36
(g70
S'\x01\x00\x00\x00'
tRp1000
sg42
g43
sg46
g47
sg15
g100
sg22
F371.45937788602896
sg64
g114
sg62
g74
sg49
g50
sS'trials.thisN'
p1001
I83
sg19
I1
sg27
g36
(g38
S'\x00\x00\x00\x00\x00\x00\x1a@'
tRp1002
sg52
g53
sg23
S'3'
sg18
F370.8974181934027
sg33
g34
sg51
g11
sg20
S'1'
sg65
g36
(g77
S'\x00\x00\x00\x00\x00\x00\x00\x00'
tRp1003
sg44
g45
sg40
g41
sg25
F0.34095693298149854
sS'trials.thisIndex'
p1004
g36
(g80
S'\x02\x00\x00\x00'
tRp1005
sg26
V5
sS'trials.thisRepN'
p1006
I0
sg66
Varmchair
p1007
sg63
V../experiment_stimuli/bw_bc_bl/Nonliving_Things/Furniture/armchair_12.jpg
p1008
sg21
F0.54140876850578934
sS'trials.thisTrialN'
p1009
I83
sa(dp1010
g31
g32
sg17
F373.53815882152412
sg24
I1
sg35
g39
sg14
F373.53324433160014
sg16
g36
(g70
S'\x01\x00\x00\x00'
tRp1011
sg42
g43
sg46
g47
sg15
g72
sg22
F375.7785963966744
sg64
g295
sg62
g102
sg49
g50
sS'trials.thisN'
p1012
I84
sg19
I1
sg27
g36
(g38
S'\x00\x00\x00\x00\x00\x00\x18@'
tRp1013
sg52
g53
sg23
S'1'
sg18
F374.80591501877643
sg33
g34
sg51
g11
sg20
S'1'
sg65
g36
(g77
S'\x00\x00\x00\x00\x00\x00\x00\x00'
tRp1014
sg44
g45
sg40
g41
sg25
F0.40109133848454803
sS'trials.thisIndex'
p1015
g36
(g80
S'I\x00\x00\x00'
tRp1016
sg26
V5
sS'trials.thisRepN'
p1017
I0
sg66
Vscorpion
p1018
sg63
V../experiment_stimuli/bw_bc_bl/Living_Things/Insects/scorpion_24.jpg
p1019
sg21
F0.95214052929077297
sS'trials.thisTrialN'
p1020
I84
sa(dp1021
g31
g32
sg17
F377.91765247646254
sg24
I0
sg35
g39
sg14
F377.91276255401317
sg16
g36
(g70
S'\x01\x00\x00\x00'
tRp1022
sg42
g43
sg46
g47
sg15
g100
sg22
F380.27837723121047
sg64
g114
sg62
g74
sg49
g50
sS'trials.thisN'
p1023
I85
sg19
I1
sg27
g36
(g38
S'\x00\x00\x00\x00\x00\x00\x1e@'
tRp1024
sg52
g53
sg23
S'2'
sg18
F379.21550232893787
sg33
g34
sg51
g11
sg20
S'1'
sg65
g36
(g77
S'\x00\x00\x00\x00\x00\x00\x00\x00'
tRp1025
sg44
g45
sg40
g41
sg25
F1.723974016844295
sS'trials.thisIndex'
p1026
g36
(g80
S'\x0f\x00\x00\x00'
tRp1027
sg26
V5
sS'trials.thisRepN'
p1028
I0
sg66
Vchair
p1029
sg63
V../experiment_stimuli/bw_bc_bl/Nonliving_Things/Furniture/chair_3.jpg
p1030
sg21
F1.0423322261776775
sS'trials.thisTrialN'
p1031
I85
sa(dp1032
g31
g32
sg17
F383.74026229442097
sg24
I1
sg35
g39
sg14
F383.73541761946399
sg16
g36
(g70
S'\x01\x00\x00\x00'
tRp1033
sg42
g43
sg46
g47
sg15
g72
sg22
F386.12127525126562
sg64
g101
sg62
g102
sg49
g50
sS'trials.thisN'
p1034
I86
sg19
I1
sg27
g36
(g38
S'\x00\x00\x00\x00\x00\x00\x18@'
tRp1035
sg52
g53
sg23
S'1'
sg18
F385.03815522545483
sg33
g34
sg51
g11
sg20
S'1'
sg65
g36
(g77
S'\x00\x00\x00\x00\x00\x00\x00\x00'
tRp1036
sg44
g45
sg40
g41
sg25
F0.43115379870869219
sS'trials.thisIndex'
p1037
g36
(g80
S' \x00\x00\x00'
tRp1038
sg26
V5
sS'trials.thisRepN'
p1039
I0
sg66
Vgiraffe
p1040
sg63
V../experiment_stimuli/bw_bc_bl/Living_Things/Animals/giraffe_21.jpg
p1041
sg21
F1.0625483917538077
sS'trials.thisTrialN'
p1042
I86
sa(dp1043
g31
g32
sg17
F388.29016977944411
sg24
I0
sg35
g39
sg14
F388.28531573258806
sg16
g36
(g70
S'\x01\x00\x00\x00'
tRp1044
sg42
g43
sg46
g47
sg15
g72
sg22
F390.1999648869969
sg64
g101
sg62
g102
sg49
g50
sS'trials.thisN'
p1045
I87
sg19
I1
sg27
g36
(g38
S'\x00\x00\x00\x00\x00\x00\x18@'
tRp1046
sg52
g53
sg23
S'3'
sg18
F389.60809105914086
sg33
g34
sg51
g11
sg20
S'1'
sg65
g36
(g77
S'\x00\x00\x00\x00\x00\x00\x00\x00'
tRp1047
sg44
g45
sg40
g41
sg25
F0.37087898526806384
sS'trials.thisIndex'
p1048
g36
(g80
S'\x1b\x00\x00\x00'
tRp1049
sg26
V5
sS'trials.thisRepN'
p1050
I0
sg66
Velephant
p1051
sg63
V../experiment_stimuli/bw_bc_bl/Living_Things/Animals/elephant_17.jpg
p1052
sg21
F0.57130932179279625
sS'trials.thisTrialN'
p1053
I87
sa(dp1054
g31
g32
sg17
F392.31886047346052
sg24
I0
sg35
g39
sg14
F392.3140714969486
sg16
g36
(g70
S'\x02\x00\x00\x00'
tRp1055
sg42
g43
sg46
g47
sg15
g72
sg22
F394.61974104016554
sg64
g114
sg62
g74
sg49
g50
sS'trials.thisN'
p1056
I88
sg19
I1
sg27
g36
(g38
S'\x00\x00\x00\x00\x00\x00\x1a@'
tRp1057
sg52
g53
sg23
S'2'
sg18
F393.60678441193886
sg33
g34
sg51
g11
sg20
S'2'
sg65
g36
(g77
S'\x00\x00\x00\x00\x00\x00\x00\x00'
tRp1058
sg44
g45
sg40
g41
sg25
F0.45104675844777375
sS'trials.thisIndex'
p1059
g36
(g80
S'\x05\x00\x00\x00'
tRp1060
sg26
V5
sS'trials.thisRepN'
p1061
I0
sg66
Vbed
p1062
sg63
V../experiment_stimuli/bw_bc_bl/Nonliving_Things/Furniture/bed_5.jpg
p1063
sg21
F0.99238114093896002
sS'trials.thisTrialN'
p1064
I88
sa(dp1065
g31
g32
sg17
F396.80868779635057
sg24
I1
sg35
g39
sg14
F396.80382759927306
sg16
g36
(g70
S'\x02\x00\x00\x00'
tRp1066
sg42
g43
sg46
g47
sg15
g100
sg22
F399.12951679923572
sg64
g217
sg62
g102
sg49
g50
sS'trials.thisN'
p1067
I89
sg19
I1
sg27
g36
(g38
S'\x00\x00\x00\x00\x00\x00\x18@'
tRp1068
sg52
g53
sg23
S'1'
sg18
F398.1065719681792
sg33
g34
sg51
g11
sg20
S'2'
sg65
g36
(g77
S'\x00\x00\x00\x00\x00\x00\x00\x00'
tRp1069
sg44
g45
sg40
g41
sg25
F0.67168035404756665
sS'trials.thisIndex'
p1070
g36
(g80
S'1\x00\x00\x00'
tRp1071
sg26
V5
sS'trials.thisRepN'
p1072
I0
sg66
Vlobster
p1073
sg63
V../experiment_stimuli/bw_bc_bl/Living_Things/Marine_creatures/lobster_17.jpg
p1074
sg21
F1.0024078959831968
sS'trials.thisTrialN'
p1075
I89
sa(dp1076
g31
g32
sg17
F401.53892812377308
sg24
I0
sg35
g39
sg14
F401.53411510610022
sg16
g36
(g70
S'\x02\x00\x00\x00'
tRp1077
sg42
g43
sg46
g47
sg15
g72
sg22
F403.75958714017179
sg64
g516
sg62
g74
sg49
g50
sS'trials.thisN'
p1078
I90
sg19
I1
sg27
g36
(g38
S'\x00\x00\x00\x00\x00\x00\x18@'
tRp1079
sg52
g53
sg23
S'2'
sg18
F402.82683890056796
sg33
g34
sg51
g11
sg20
S'2'
sg65
g36
(g77
S'\x00\x00\x00\x00\x00\x00\x00\x00'
tRp1080
sg44
g45
sg40
g41
sg25
F0.40110797365196049
sS'trials.thisIndex'
p1081
g36
(g80
S'%\x00\x00\x00'
tRp1082
sg26
V5
sS'trials.thisRepN'
p1083
I0
sg66
Vhammer
p1084
sg63
V../experiment_stimuli/bw_bc_bl/Nonliving_Things/Tools/hammer_4.jpg
p1085
sg21
F0.91220336046535522
sS'trials.thisTrialN'
p1086
I90
sa(dp1087
g31
g32
sg17
F405.89851501479279
sg24
I0
sg35
g39
sg14
F405.89358831837308
sg16
g36
(g70
S'\x02\x00\x00\x00'
tRp1088
sg42
g43
sg46
g47
sg15
g72
sg22
F408.40971913328394
sg64
g88
sg62
g74
sg49
g50
sS'trials.thisN'
p1089
I91
sg19
I1
sg27
g36
(g38
S'\x00\x00\x00\x00\x00\x00\x18@'
tRp1090
sg52
g53
sg23
S'3'
sg18
F407.17628007614985
sg33
g34
sg51
g11
sg20
S'2'
sg65
g36
(g77
S'\x00\x00\x00\x00\x00\x00\x00\x00'
tRp1091
sg44
g45
sg40
g41
sg25
F0.55126464285422117
sS'trials.thisIndex'
p1092
g36
(g80
S'Y\x00\x00\x00'
tRp1093
sg26
V5
sS'trials.thisRepN'
p1094
I0
sg66
Vtuba
p1095
sg63
V../experiment_stimuli/bw_bc_bl/Nonliving_Things/Musical_Inst/tuba_9.jpg
p1096
sg21
F1.2128872877219692
sS'trials.thisTrialN'
p1097
I91
sa(dp1098
g31
g32
sg17
F410.7089256827021
sg24
I1
sg35
g39
sg14
F410.70405261719134
sg16
g36
(g70
S'\x02\x00\x00\x00'
tRp1099
sg42
g43
sg46
g47
sg15
g100
sg22
F412.78924779908266
sg64
g126
sg62
g102
sg49
g50
sS'trials.thisN'
p1100
I92
sg19
I1
sg27
g36
(g38
S'\x00\x00\x00\x00\x00\x00\x18@'
tRp1101
sg52
g53
sg23
S'1'
sg18
F411.9767211159924
sg33
g34
sg51
g11
sg20
S'2'
sg65
g36
(g77
S'\x00\x00\x00\x00\x00\x00\x00\x00'
tRp1102
sg44
g45
sg40
g41
sg25
F0.42115122766699642
sS'trials.thisIndex'
p1103
g36
(g80
S'O\x00\x00\x00'
tRp1104
sg26
V5
sS'trials.thisRepN'
p1105
I0
sg66
Vsparrow
p1106
sg63
V../experiment_stimuli/bw_bc_bl/Living_Things/Birds/sparrow_8.jpg
p1107
sg21
F0.7919621616601944
sS'trials.thisTrialN'
p1108
I92
sa(dp1109
g31
g32
sg17
F414.94915923790541
sg24
I1
sg35
g39
sg14
F414.94326386018656
sg16
g36
(g70
S'\x02\x00\x00\x00'
tRp1110
sg42
g43
sg46
g47
sg15
g100
sg22
F416.78789725422394
sg64
g101
sg62
g102
sg49
g50
sS'trials.thisN'
p1111
I93
sg19
I1
sg27
g36
(g38
S'\x00\x00\x00\x00\x00\x00\x18@'
tRp1112
sg52
g53
sg23
S'1'
sg18
F416.21593434386887
sg33
g34
sg51
g11
sg20
S'2'
sg65
g36
(g77
S'\x00\x00\x00\x00\x00\x00\x00\x00'
tRp1113
sg44
g45
sg40
g41
sg25
F0.42113435221835971
sS'trials.thisIndex'
p1114
g36
(g80
S'R\x00\x00\x00'
tRp1115
sg26
V5
sS'trials.thisRepN'
p1116
I0
sg66
Vtapir
p1117
sg63
V../experiment_stimuli/bw_bc_bl/Living_Things/Animals/tapir_1.jpg
p1118
sg21
F0.55141897860448807
sS'trials.thisTrialN'
p1119
I93
sa(dp1120
g31
g32
sg17
F418.94778899045195
sg24
I1
sg35
g39
sg14
F418.94195316033438
sg16
g36
(g70
S'\x01\x00\x00\x00'
tRp1121
sg42
g43
sg46
g47
sg15
g72
sg22
F421.0070879869163
sg64
g126
sg62
g102
sg49
g50
sS'trials.thisN'
p1122
I94
sg19
I1
sg27
g36
(g38
S'\x00\x00\x00\x00\x00\x00\x18@'
tRp1123
sg52
g53
sg23
S'1'
sg18
F420.23467839090154
sg33
g34
sg51
g11
sg20
S'1'
sg65
g36
(g77
S'\x00\x00\x00\x00\x00\x00\x00\x00'
tRp1124
sg44
g45
sg40
g41
sg25
F0.42115253233350813
sS'trials.thisIndex'
p1125
g36
(g80
S'?\x00\x00\x00'
tRp1126
sg26
V5
sS'trials.thisRepN'
p1127
I0
sg66
Vpigeon
p1128
sg63
V../experiment_stimuli/bw_bc_bl/Living_Things/Birds/pigeon_15.jpg
p1129
sg21
F0.75187367165926844
sS'trials.thisTrialN'
p1130
I94
sa(dp1131
g31
g32
sg17
F423.16594846721273
sg24
I0
sg35
g39
sg14
F423.16112422058359
sg16
g36
(g70
S'\x02\x00\x00\x00'
tRp1132
sg42
g43
sg46
g47
sg15
g72
sg22
F425.09608256909996
sg64
g194
sg62
g74
sg49
g50
sS'trials.thisN'
p1133
I95
sg19
I1
sg27
g36
(g38
S'\x00\x00\x00\x00\x00\x00\x1a@'
tRp1134
sg52
g53
sg23
S'2'
sg18
F424.47388388600666
sg33
g34
sg51
g11
sg20
S'2'
sg65
g36
(g77
S'\x00\x00\x00\x00\x00\x00\x00\x00'
tRp1135
sg44
g45
sg40
g41
sg25
F0.55141748627647758
sS'trials.thisIndex'
p1136
g36
(g80
S'[\x00\x00\x00'
tRp1137
sg26
V5
sS'trials.thisRepN'
p1138
I0
sg66
Vvan
p1139
sg63
V../experiment_stimuli/bw_bc_bl/Nonliving_Things/Vehicles/van_3.jpg
p1140
sg21
F0.60163695900700986
sS'trials.thisTrialN'
p1141
I95
sasS'loops'
p1142
(lp1143
g1
(cpsychopy.data
TrialHandler
p1144
g3
NtRp1145
(dp1146
S'origin'
p1147
NsS'thisTrial'
p1148
(lp1149
sS'_exp'
p1150
I97292560
sg10
S'trials'
p1151
sg6
I-1
sS'thisRepN'
p1152
I1
sg28
I01
sg29
g30
sS'data'
p1153
g1
(cpsychopy.data
DataHandler
p1154
c__builtin__
dict
p1155
(dp1156
g20
cnumpy.core.multiarray
_reconstruct
p1157
(cnumpy
ndarray
p1158
(I0
tS'b'
tRp1159
(I1
(I96
I1
tg37
(S'O4'
I0
I1
tRp1160
(I3
S'|'
NNNI-1
I-1
I63
tbI00
(lp1161
S'1'
aS'2'
aS'1'
aS'2'
aS'2'
aS'2'
aS'2'
aS'1'
aS'2'
aS'1'
aS'2'
aS'1'
aS'2'
aS'2'
aS'2'
aS'1'
aS'1'
aS'1'
aS'1'
aS'1'
aS'2'
aS'1'
aS'1'
aS'2'
aS'1'
aS'2'
aS'2'
aS'1'
aS'2'
aS'1'
aS'1'
aS'2'
aS'1'
aS'2'
aS'1'
aS'1'
aS'1'
aS'2'
aS'2'
aS'2'
aS'2'
aS'1'
aS'2'
aS'2'
aS'2'
aS'1'
aS'1'
aS'1'
aS'2'
aS'2'
aS'1'
aS'1'
aS'2'
aS'1'
aS'1'
aS'1'
aS'2'
aS'2'
aS'1'
aS'1'
aS'1'
aS'2'
aS'2'
aS'1'
aS'2'
aS'1'
aS'2'
aS'1'
aS'2'
aS'1'
aS'2'
aS'1'
aS'2'
aS'1'
aS'1'
aS'1'
aS'1'
aS'2'
aS'2'
aS'2'
aS'2'
aS'2'
aS'2'
aS'1'
aS'2'
aS'1'
aS'1'
aS'1'
aS'2'
aS'2'
aS'2'
aS'2'
aS'1'
aS'1'
aS'1'
aS'1'
atbsg17
cnumpy.ma.core
_mareconstruct
p1162
(cnumpy.ma.core
MaskedArray
p1163
g1158
(I0
tp1164
S'b'
tRp1165
(I1
(I96
I1
tg37
(S'f4'
I0
I1
tRp1166
(I3
S'<'
NNNI-1
I-1
I0
tbI00
S'\'$HC\xf6oPB\xb7\xcc\xb8C\x15\xbc2C%\xb6CC\xd0(\xc4C\x1f\xec-B\xb3OLC\xc8r\xa5C\xe5GUC\xb2\xb6\x9cC\xaf\xa8\xfaB\x05\xcb?C\xc0\xbb\xccA\xd0\x07\x92Cv\xf5\xbcC\xaa\xa9\x80CS\x1f\xc5B_\x96\nCEZ\x1fCy\x90CA\xb0\xa1\x8bC\xa5\xf0\xcdB\xab\xa3cB\xb8\x9c\x89C\x0eLtC\xc9\xbe\xb6C$%\xc2C\xfe\xcd\x8fB\xd2\xf2\x9eC@p\x06Cok\xf2A\xc1\xde\xbfC\x07$\xabA@3\x94C\xb0\x04\xa8C\xc7~\x98C\xfc\xc4\xc8C\xdd]\x1dB\xbf\x97#CN+\xa3C\xd8\xd3\x0eC\x906;C\xf9\xd9\x8fC*__C3\x81\xb4B\xf3\x97-C\x0e\x80\x9aC\x9a\xfb\x82C\x83g\xc6C\x18\x00lC6\x9b\x86B\x90x\xb2C\x91\xf3gC\xe4-\xe9B\xe6\x8f\xbcB\x98\x19\xd7B~e\xb0C\xabLo@\xa0e\xf1B\x93$\xaaC\x84\xf2xC/v\x02AQy\xd1C,\xe8\x99B\xb6\x05\x85C\x84;\xacC6i\xa4B\xd5\x99\x8dCm\x8d\x89A}\xef\x12C=_\xaeC\xed\x12\xa1C\xe2\xc4\xbaC8\xe26Cy"\x17C\xf7\xd7cCu\x03\rBu\xbe(C\xbeZ\xcdCNl[C\x83G\xdfB~y\xcfC\x99\xa6\xb4C\xa4\xfaoC\x91{\x87Cl\\?B\xfb\xafxB\xd8\x1f\x1bC\x03\xf3\xcaC\x10(}C>\x95\xd3C\x1fk\x01C8s\x96C\xcb\x0fQCs\xbf\xacB'
S'\x00\x00\x00\x00\x00\x00\x00\x00\x00\x00\x00\x00\x00\x00\x00\x00\x00\x00\x00\x00\x00\x00\x00\x00\x00\x00\x00\x00\x00\x00\x00\x00\x00\x00\x00\x00\x00\x00\x00\x00\x00\x00\x00\x00\x00\x00\x00\x00\x00\x00\x00\x00\x00\x00\x00\x00\x00\x00\x00\x00\x00\x00\x00\x00\x00\x00\x00\x00\x00\x00\x00\x00\x00\x00\x00\x00\x00\x00\x00\x00\x00\x00\x00\x00\x00\x00\x00\x00\x00\x00\x00\x00\x00\x00\x00\x00'
NtbsS'ran'
p1167
g1162
(g1163
g1158
g1164
S'b'
tRp1168
(I1
(I96
I1
tg1166
I00
S'\x00\x00\x80?\x00\x00\x80?\x00\x00\x80?\x00\x00\x80?\x00\x00\x80?\x00\x00\x80?\x00\x00\x80?\x00\x00\x80?\x00\x00\x80?\x00\x00\x80?\x00\x00\x80?\x00\x00\x80?\x00\x00\x80?\x00\x00\x80?\x00\x00\x80?\x00\x00\x80?\x00\x00\x80?\x00\x00\x80?\x00\x00\x80?\x00\x00\x80?\x00\x00\x80?\x00\x00\x80?\x00\x00\x80?\x00\x00\x80?\x00\x00\x80?\x00\x00\x80?\x00\x00\x80?\x00\x00\x80?\x00\x00\x80?\x00\x00\x80?\x00\x00\x80?\x00\x00\x80?\x00\x00\x80?\x00\x00\x80?\x00\x00\x80?\x00\x00\x80?\x00\x00\x80?\x00\x00\x80?\x00\x00\x80?\x00\x00\x80?\x00\x00\x80?\x00\x00\x80?\x00\x00\x80?\x00\x00\x80?\x00\x00\x80?\x00\x00\x80?\x00\x00\x80?\x00\x00\x80?\x00\x00\x80?\x00\x00\x80?\x00\x00\x80?\x00\x00\x80?\x00\x00\x80?\x00\x00\x80?\x00\x00\x80?\x00\x00\x80?\x00\x00\x80?\x00\x00\x80?\x00\x00\x80?\x00\x00\x80?\x00\x00\x80?\x00\x00\x80?\x00\x00\x80?\x00\x00\x80?\x00\x00\x80?\x00\x00\x80?\x00\x00\x80?\x00\x00\x80?\x00\x00\x80?\x00\x00\x80?\x00\x00\x80?\x00\x00\x80?\x00\x00\x80?\x00\x00\x80?\x00\x00\x80?\x00\x00\x80?\x00\x00\x80?\x00\x00\x80?\x00\x00\x80?\x00\x00\x80?\x00\x00\x80?\x00\x00\x80?\x00\x00\x80?\x00\x00\x80?\x00\x00\x80?\x00\x00\x80?\x00\x00\x80?\x00\x00\x80?\x00\x00\x80?\x00\x00\x80?\x00\x00\x80?\x00\x00\x80?\x00\x00\x80?\x00\x00\x80?\x00\x00\x80?\x00\x00\x80?'
S'\x00\x00\x00\x00\x00\x00\x00\x00\x00\x00\x00\x00\x00\x00\x00\x00\x00\x00\x00\x00\x00\x00\x00\x00\x00\x00\x00\x00\x00\x00\x00\x00\x00\x00\x00\x00\x00\x00\x00\x00\x00\x00\x00\x00\x00\x00\x00\x00\x00\x00\x00\x00\x00\x00\x00\x00\x00\x00\x00\x00\x00\x00\x00\x00\x00\x00\x00\x00\x00\x00\x00\x00\x00\x00\x00\x00\x00\x00\x00\x00\x00\x00\x00\x00\x00\x00\x00\x00\x00\x00\x00\x00\x00\x00\x00\x00'
Ntbsg24
g1162
(g1163
g1158
g1164
S'b'
tRp1169
(I1
(I96
I1
tg1166
I00
S'\x00\x00\x00\x00\x00\x00\x00\x00\x00\x00\x00\x00\x00\x00\x80?\x00\x00\x00\x00\x00\x00\x00\x00\x00\x00\x80?\x00\x00\x00\x00\x00\x00\x00\x00\x00\x00\x80?\x00\x00\x80?\x00\x00\x00\x00\x00\x00\x80?\x00\x00\x00\x00\x00\x00\x00\x00\x00\x00\x00\x00\x00\x00\x00\x00\x00\x00\x80?\x00\x00\x80?\x00\x00\x00\x00\x00\x00\x00\x00\x00\x00\x00\x00\x00\x00\x80?\x00\x00\x80?\x00\x00\x00\x00\x00\x00\x00\x00\x00\x00\x00\x00\x00\x00\x00\x00\x00\x00\x00\x00\x00\x00\x80?\x00\x00\x00\x00\x00\x00\x00\x00\x00\x00\x80?\x00\x00\x80?\x00\x00\x00\x00\x00\x00\x00\x00\x00\x00\x00\x00\x00\x00\x00\x00\x00\x00\x80?\x00\x00\x80?\x00\x00\x80?\x00\x00\x80?\x00\x00\x80?\x00\x00\x80?\x00\x00\x00\x00\x00\x00\x00\x00\x00\x00\x00\x00\x00\x00\x00\x00\x00\x00\x80?\x00\x00\x80?\x00\x00\x80?\x00\x00\x80?\x00\x00\x80?\x00\x00\x80?\x00\x00\x80?\x00\x00\x00\x00\x00\x00\x00\x00\x00\x00\x80?\x00\x00\x80?\x00\x00\x80?\x00\x00\x00\x00\x00\x00\x80?\x00\x00\x80?\x00\x00\x80?\x00\x00\x80?\x00\x00\x80?\x00\x00\x00\x00\x00\x00\x00\x00\x00\x00\x00\x00\x00\x00\x00\x00\x00\x00\x00\x00\x00\x00\x00\x00\x00\x00\x80?\x00\x00\x80?\x00\x00\x00\x00\x00\x00\x00\x00\x00\x00\x00\x00\x00\x00\x00\x00\x00\x00\x00\x00\x00\x00\x80?\x00\x00\x80?\x00\x00\x00\x00\x00\x00\x80?\x00\x00\x80?\x00\x00\x80?\x00\x00\x00\x00\x00\x00\x00\x00\x00\x00\x00\x00\x00\x00\x00\x00\x00\x00\x00\x00\x00\x00\x80?\x00\x00\x00\x00\x00\x00\x00\x00\x00\x00\x00\x00\x00\x00\x80?\x00\x00\x00\x00'
S'\x00\x00\x00\x00\x00\x00\x00\x00\x00\x00\x00\x00\x00\x00\x00\x00\x00\x00\x00\x00\x00\x00\x00\x00\x00\x00\x00\x00\x00\x00\x00\x00\x00\x00\x00\x00\x00\x00\x00\x00\x00\x00\x00\x00\x00\x00\x00\x00\x00\x00\x00\x00\x00\x00\x00\x00\x00\x00\x00\x00\x00\x00\x00\x00\x00\x00\x00\x00\x00\x00\x00\x00\x00\x00\x00\x00\x00\x00\x00\x00\x00\x00\x00\x00\x00\x00\x00\x00\x00\x00\x00\x00\x00\x00\x00\x00'
Ntbsg14
g1162
(g1163
g1158
g1164
S'b'
tRp1170
(I1
(I96
I1
tg1166
I00
S'\xe4"HC\x02kPB\x1e\xcc\xb8C\xd2\xba2C\xe8\xb4CC3(\xc4C+\xe7-B,NLC\xfdq\xa5C]FUC\x17\xb6\x9cC\xb7\xa5\xfaB\xc4\xc9?C\xe6\xb1\xccA/\x07\x92C\xd5\xf4\xbcC\n\xa9\x80Ci\x1c\xc5B\x1f\x95\nC\xffX\x1fC\x18|CA\x10\xa1\x8bC\x1c\xee\xcdB\xa8\x9ecB\x19\x9c\x89C\xd3JtC-\xbe\xb6C\x85$\xc2C\x89\xcb\x8fB7\xf2\x9eC\xf7n\x06Ct`\xf2A"\xde\xbfC\x15\x1a\xabA\xa22\x94C\x10\x04\xa8C\xfb}\x98C^\xc4\xc8C\xd6X\x1dB;\x96#CR*\xa3C[\xd2\x0eCL5;C,\xd9\x8fC\xe7]_C\xad~\xb4B\xae\x96-C\x19\x7f\x9aC\xf8\xfa\x82C\xe4f\xc6C\x87\xfekCU\x98\x86B\xf6w\xb2C\t\xf2gCY+\xe9Bf\x8d\xbcB\x0e\x17\xd7B\xe2d\xb0Cv\tn@ c\xf1B\xf6#\xaaCA\xf1xC.b\x02A\x92x\xd1C\xa3\xe5\x99B\x11\x05\x85C\xe3:\xacC\\f\xa4B3\x99\x8dCC\x82\x89A>\xee\x12C\xa3^\xaeC\x1d\x12\xa1CA\xc4\xbaC\xf9\xe06C8!\x17C&\xd6cC\xce\xfd\x0cB\xf0\xbc(C\x1eZ\xcdC\x10k[C\x8fD\xdfB\xbdx\xcfC\xf9\xa5\xb4C\x11\xf9oC\xeaz\x87CEW?B^\xaaxBQ\x1e\x1bCa\xf2\xcaC\xcc&}C\xa0\x94\xd3C\x9ei\x01C\x9br\x96CB\x0eQC\xeb\xbc\xacB'
S'\x00\x00\x00\x00\x00\x00\x00\x00\x00\x00\x00\x00\x00\x00\x00\x00\x00\x00\x00\x00\x00\x00\x00\x00\x00\x00\x00\x00\x00\x00\x00\x00\x00\x00\x00\x00\x00\x00\x00\x00\x00\x00\x00\x00\x00\x00\x00\x00\x00\x00\x00\x00\x00\x00\x00\x00\x00\x00\x00\x00\x00\x00\x00\x00\x00\x00\x00\x00\x00\x00\x00\x00\x00\x00\x00\x00\x00\x00\x00\x00\x00\x00\x00\x00\x00\x00\x00\x00\x00\x00\x00\x00\x00\x00\x00\x00'
Ntbsg16
g1157
(g1158
(I0
tS'b'
tRp1171
(I1
(I96
I1
tg1160
I00
(lp1172
g571
ag205
ag1000
ag515
ag560
ag1055
ag182
ag582
ag901
ag604
ag857
ag383
ag549
ag137
ag802
ag1022
ag714
ag317
ag416
ag471
ag99
ag769
ag328
ag216
ag758
ag681
ag989
ag1044
ag250
ag868
ag405
ag148
ag1033
ag125
ag813
ag912
ag835
ag1077
ag171
ag482
ag890
ag427
ag538
ag791
ag626
ag294
ag504
ag846
ag725
ag1066
ag659
ag239
ag967
ag648
ag361
ag306
ag339
ag956
ag71
ag372
ag923
ag692
ag87
ag1121
ag261
ag736
ag934
ag272
ag780
ag113
ag438
ag945
ag879
ag1011
ag527
ag449
ag637
ag160
ag493
ag1099
ag615
ag350
ag1110
ag978
ag670
ag747
ag193
ag228
ag460
ag1088
ag703
ag1132
ag394
ag824
ag593
ag283
atbsg15
g1157
(g1158
(I0
tS'b'
tRp1173
(I1
(I96
I1
tg1160
I00
(lp1174
g100
ag100
ag100
ag72
ag100
ag72
ag72
ag100
ag72
ag100
ag100
ag100
ag72
ag100
ag72
ag100
ag72
ag100
ag100
ag100
ag100
ag72
ag100
ag72
ag72
ag72
ag100
ag72
ag100
ag100
ag100
ag72
ag72
ag100
ag72
ag100
ag100
ag72
ag100
ag100
ag100
ag100
ag72
ag100
ag100
ag100
ag100
ag100
ag100
ag100
ag72
ag100
ag100
ag72
ag72
ag72
ag100
ag72
ag72
ag72
ag72
ag100
ag72
ag72
ag100
ag72
ag72
ag72
ag100
ag100
ag100
ag100
ag72
ag72
ag72
ag72
ag100
ag72
ag72
ag100
ag100
ag72
ag100
ag72
ag100
ag72
ag100
ag100
ag72
ag72
ag100
ag72
ag100
ag100
ag72
ag72
atbsg22
g1162
(g1163
g1158
g1164
S'b'
tRp1175
(I1
(I96
I1
tg1166
I00
S"\xf4BJC!\xe2ZB\xcd\xba\xb9C\x18\xbc4C\xa2\xdcECTO\xc5C\x97\xe26B\x84\xdcNC\xc7n\xa6C\x05SYC\xe8\xdb\x9dCI\xa8\xfeB\x8f\xa4AC5C\xe0A-)\x93C\xa2#\xbeC\xf3\xee\x81C\x81\xa9\xc9B\x87\x9b\x0cC\xb6v!CQ\x7fiA/\x8d\x8cC\x91\xd7\xd2B\xa5\x0cpB\xc3\x93\x8aC\xa4\x9bvC;\xc5\xb7C\x98\x19\xc3C\xeb\xd8\x94B\xd1\x04\xa0C\t}\x08C\xb7\x03\x04B\x86\x0f\xc1C\xe5a\xbbA\xc1Y\x95C\xd0\x12\xa9C\xedv\x99C:\xe1\xc9C\xc5\xa5%BRg&C\xb0d\xa4C\xc3\xd8\x10C\xf0\x92=C\xe3\xf9\x90CQ\x9faC\x93g\xb8B@S0C\xbc\x7f\x9bC\x9c\xfb\x83C\x94\x90\xc7CH\xebmChr\x8bB\xab\x98\xb3C/\xeeiC\xc9(\xedB'\xbe\xc0B\x9d\x19\xdbB8m\xb1C\x90\xa3\xbc@I\x19\xf6Bn1\xabC\xe2\x13{C\x7f\xfb!A\xe8\x80\xd2C\x7f\x17\xa0B3g\x86Cj-\xadC[\xa1\xa8B\xdf\xcb\x8eC\xecm\x9aA\xa9\xf4\x14C\x04U\xafC\x95\x1f\xa2C\xa9\xe3\xbbC\x00\x139C\x8a\x10\x19Cn\xd7eC_\xc5\x14B\xf1v+C\x06e\xceCbH]C]\xd7\xe4B\xdad\xd0C\xb8\xb4\xb5C\xea7rC\\\x91\x88Cp\x85GB;\xf2\x81Bm,\x1dCr4\xccC\x08:\x7fCL\x8c\xd4C\xabN\x03C\xf1q\x97C\xee\x1eSC\x94N\xb0B"
S'\x00\x00\x00\x00\x00\x00\x00\x00\x00\x00\x00\x00\x00\x00\x00\x00\x00\x00\x00\x00\x00\x00\x00\x00\x00\x00\x00\x00\x00\x00\x00\x00\x00\x00\x00\x00\x00\x00\x00\x00\x00\x00\x00\x00\x00\x00\x00\x00\x00\x00\x00\x00\x00\x00\x00\x00\x00\x00\x00\x00\x00\x00\x00\x00\x00\x00\x00\x00\x00\x00\x00\x00\x00\x00\x00\x00\x00\x00\x00\x00\x00\x00\x00\x00\x00\x00\x00\x00\x00\x00\x00\x00\x00\x00\x00\x00'
Ntbsg26
g1157
(g1158
(I0
tS'b'
tRp1176
(I1
(I96
I1
tg1160
I00
(lp1177
g36
(g80
S'\x05\x00\x00\x00'
tRp1178
ag36
(g80
S'\x05\x00\x00\x00'
tRp1179
ag36
(g80
S'\x08\x00\x00\x00'
tRp1180
ag36
(g80
S'\x04\x00\x00\x00'
tRp1181
ag36
(g80
S'\x06\x00\x00\x00'
tRp1182
ag36
(g80
S'\x07\x00\x00\x00'
tRp1183
ag36
(g80
S'\x05\x00\x00\x00'
tRp1184
ag36
(g80
S'\x04\x00\x00\x00'
tRp1185
ag36
(g80
S'\x0b\x00\x00\x00'
tRp1186
ag36
(g80
S'\x02\x00\x00\x00'
tRp1187
ag36
(g80
S'\x01\x00\x00\x00'
tRp1188
ag36
(g80
S'\x06\x00\x00\x00'
tRp1189
ag36
(g80
S'\x05\x00\x00\x00'
tRp1190
ag36
(g80
S'\n\x00\x00\x00'
tRp1191
ag36
(g80
S'\t\x00\x00\x00'
tRp1192
ag36
(g80
S'\x08\x00\x00\x00'
tRp1193
ag36
(g80
S'\x0c\x00\x00\x00'
tRp1194
ag36
(g80
S'\x02\x00\x00\x00'
tRp1195
ag36
(g80
S'\x02\x00\x00\x00'
tRp1196
ag36
(g80
S'\x04\x00\x00\x00'
tRp1197
ag36
(g80
S'\t\x00\x00\x00'
tRp1198
ag36
(g80
S'\x0b\x00\x00\x00'
tRp1199
ag36
(g80
S'\x04\x00\x00\x00'
tRp1200
ag36
(g80
S'\x04\x00\x00\x00'
tRp1201
ag36
(g80
S'\r\x00\x00\x00'
tRp1202
ag36
(g80
S'\t\x00\x00\x00'
tRp1203
ag36
(g80
S'\t\x00\x00\x00'
tRp1204
ag36
(g80
S'\t\x00\x00\x00'
tRp1205
ag36
(g80
S'\x07\x00\x00\x00'
tRp1206
ag36
(g80
S'\x03\x00\x00\x00'
tRp1207
ag36
(g80
S'\x03\x00\x00\x00'
tRp1208
ag36
(g80
S'\t\x00\x00\x00'
tRp1209
ag36
(g80
S'\x07\x00\x00\x00'
tRp1210
ag36
(g80
S'\x07\x00\x00\x00'
tRp1211
ag36
(g80
S'\x06\x00\x00\x00'
tRp1212
ag36
(g80
S'\t\x00\x00\x00'
tRp1213
ag36
(g80
S'\x04\x00\x00\x00'
tRp1214
ag36
(g80
S'\x07\x00\x00\x00'
tRp1215
ag36
(g80
S'\x03\x00\x00\x00'
tRp1216
ag36
(g80
S'\x03\x00\x00\x00'
tRp1217
ag36
(g80
S'\t\x00\x00\x00'
tRp1218
ag36
(g80
S'\x04\x00\x00\x00'
tRp1219
ag36
(g80
S'\x04\x00\x00\x00'
tRp1220
ag36
(g80
S'\x07\x00\x00\x00'
tRp1221
ag36
(g80
S'\x06\x00\x00\x00'
tRp1222
ag36
(g80
S'\x04\x00\x00\x00'
tRp1223
ag36
(g80
S'\x05\x00\x00\x00'
tRp1224
ag36
(g80
S'\x02\x00\x00\x00'
tRp1225
ag36
(g80
S'\x0b\x00\x00\x00'
tRp1226
ag36
(g80
S'\x06\x00\x00\x00'
tRp1227
ag36
(g80
S'\x06\x00\x00\x00'
tRp1228
ag36
(g80
S'\x06\x00\x00\x00'
tRp1229
ag36
(g80
S'\x04\x00\x00\x00'
tRp1230
ag36
(g80
S'\x04\x00\x00\x00'
tRp1231
ag36
(g80
S'\x02\x00\x00\x00'
tRp1232
ag36
(g80
S'\x03\x00\x00\x00'
tRp1233
ag36
(g80
S'\x05\x00\x00\x00'
tRp1234
ag36
(g80
S'\x02\x00\x00\x00'
tRp1235
aS'5.0'
p1236
ag36
(g80
S'\x05\x00\x00\x00'
tRp1237
ag36
(g80
S'\x07\x00\x00\x00'
tRp1238
ag36
(g80
S'\x06\x00\x00\x00'
tRp1239
ag36
(g80
S'\x06\x00\x00\x00'
tRp1240
ag36
(g80
S'\x07\x00\x00\x00'
tRp1241
ag36
(g80
S'\x06\x00\x00\x00'
tRp1242
ag36
(g80
S'\x0e\x00\x00\x00'
tRp1243
ag36
(g80
S'\x06\x00\x00\x00'
tRp1244
ag36
(g80
S'\t\x00\x00\x00'
tRp1245
ag36
(g80
S'\x08\x00\x00\x00'
tRp1246
ag36
(g80
S'\x08\x00\x00\x00'
tRp1247
ag36
(g80
S'\x07\x00\x00\x00'
tRp1248
ag36
(g80
S'\x04\x00\x00\x00'
tRp1249
ag36
(g80
S'\x06\x00\x00\x00'
tRp1250
ag36
(g80
S'\x05\x00\x00\x00'
tRp1251
ag36
(g80
S'\x07\x00\x00\x00'
tRp1252
ag36
(g80
S'\x06\x00\x00\x00'
tRp1253
ag36
(g80
S'\x05\x00\x00\x00'
tRp1254
ag36
(g80
S'\x06\x00\x00\x00'
tRp1255
ag36
(g80
S'\x06\x00\x00\x00'
tRp1256
ag36
(g80
S'\x04\x00\x00\x00'
tRp1257
ag36
(g80
S'\x03\x00\x00\x00'
tRp1258
ag36
(g80
S'\x04\x00\x00\x00'
tRp1259
ag36
(g80
S'\x05\x00\x00\x00'
tRp1260
ag36
(g80
S'\x06\x00\x00\x00'
tRp1261
ag36
(g80
S'\x08\x00\x00\x00'
tRp1262
ag36
(g80
S'\x10\x00\x00\x00'
tRp1263
ag36
(g80
S'\x06\x00\x00\x00'
tRp1264
ag36
(g80
S'\x07\x00\x00\x00'
tRp1265
ag36
(g80
S'\x05\x00\x00\x00'
tRp1266
ag36
(g80
S'\x06\x00\x00\x00'
tRp1267
ag36
(g80
S'\t\x00\x00\x00'
tRp1268
ag36
(g80
S'\t\x00\x00\x00'
tRp1269
ag36
(g80
S'\x04\x00\x00\x00'
tRp1270
ag36
(g80
S'\x05\x00\x00\x00'
tRp1271
ag36
(g80
S'\x01\x00\x00\x00'
tRp1272
ag36
(g80
S'\x06\x00\x00\x00'
tRp1273
atbsg21
g1162
(g1163
g1158
g1164
S'b'
tRp1274
(I1
(I96
I1
tg1166
I00
S'\x11\x00U?_[\xa9?\xc4\x99\n?r\xc78?\x99\x17Z?\xb1\x0c~?q\xc9s?S\xec\xa2?\x83\x1f\x1f?\x80R2@\xac"\x84?\x02\xa73?q\xba\x0f?\xc1"\x8d?O\x86i?$k\x85?\xebe\x97?A\x97\x81?\xe2\nC?{8U?Zp\x85?b\x8d\xfb>\xc0\x1c\x96?*\x7f\xe9?\t\xbb\x0f?\n|{?\xe866?TA\x12?\x03?\x9b?zD_?\xbd!H?\xd6\xc5\xaf?\x96\x01\x88?k\xc88?\xd7N\x80?\xde\x9bE?\xe2b)?)\x86i?\xa6MM?\t\x94\xc5?2\xb4\x8f?\xeb\xe8=?\x04\x92\x8a?\xb59q?\xc3\xc9s?-\xf3+?Bx\xb7?&\xe9=?L\xd2&?\xe7N\x80?\xba\x1f\x1f?\xde\xb3\x8f?\x98\xecx?\xf8\xa53?7Y;?bpR?\x0876?\x8fLM?\x91\xb2\\?\xf3\xb8\x86?\x98\xbdJ?^\x00U?\xe7\xf3+?\xcbz@?o\xa6\xe5?\xd7\r\xb1?\xbc\xdc\x14?P,H?@J\x89?\xbf\xb2J?\xf176?\x8cB$?d\xbdJ?{\xbfs?R\xd5a?M\xb0!?\x9066?:A$?7/\xb6?\x08\xbeJ?\xf2b\x17?\xecr\xc0?\xcb)\r?o\xdeO?/\x17l?\xbd\x9bE?\'\xe9=?:*\xbf?y\nC?\xe4?\x9b?i\xe9=?\xe1\x04\x1a?\x16\x8f\x1c?q\x9b3?H\xdfO?@h\xf6>'
S'\x00\x00\x00\x00\x00\x00\x00\x00\x00\x00\x00\x00\x00\x00\x00\x00\x00\x00\x00\x00\x00\x00\x00\x00\x00\x00\x00\x00\x00\x00\x00\x00\x00\x00\x00\x00\x00\x00\x00\x00\x00\x00\x00\x00\x00\x00\x00\x00\x00\x00\x00\x00\x00\x00\x00\x00\x00\x00\x00\x00\x00\x00\x00\x00\x00\x00\x00\x00\x00\x00\x00\x00\x00\x00\x00\x00\x00\x00\x00\x00\x00\x00\x00\x00\x00\x00\x00\x00\x00\x00\x00\x00\x00\x00\x00\x00'
NtbsS'order'
p1275
g1162
(g1163
g1158
g1164
S'b'
tRp1276
(I1
(I96
I1
tg1166
I00
S'\x00\x000B\x00\x000A\x00\x00\xa6B\x00\x00\x1cB\x00\x00,B\x00\x00\xb0B\x00\x00\x10A\x00\x004B\x00\x00\x94B\x00\x00<B\x00\x00\x8cB\x00\x00\xd8A\x00\x00(B\x00\x00\xa0@\x00\x00\x82B\x00\x00\xaaB\x00\x00dB\x00\x00\xa8A\x00\x00\xf0A\x00\x00\x0cB\x00\x00\x00@\x00\x00xB\x00\x00\xb0A\x00\x00@A\x00\x00tB\x00\x00XB\x00\x00\xa4B\x00\x00\xaeB\x00\x00pA\x00\x00\x8eB\x00\x00\xe8A\x00\x00\xc0@\x00\x00\xacB\x00\x00\x80@\x00\x00\x84B\x00\x00\x96B\x00\x00\x88B\x00\x00\xb4B\x00\x00\x00A\x00\x00\x10B\x00\x00\x92B\x00\x00\xf8A\x00\x00$B\x00\x00\x80B\x00\x00DB\x00\x00\x98A\x00\x00\x18B\x00\x00\x8aB\x00\x00hB\x00\x00\xb2B\x00\x00PB\x00\x00`A\x00\x00\xa0B\x00\x00LB\x00\x00\xc8A\x00\x00\xa0A\x00\x00\xb8A\x00\x00\x9eB\x00\x00\x00\x00\x00\x00\xd0A\x00\x00\x98B\x00\x00\\B\x00\x00\x80?\x00\x00\xbcB\x00\x00\x80A\x00\x00lB\x00\x00\x9aB\x00\x00\x88A\x00\x00|B\x00\x00@@\x00\x00\x00B\x00\x00\x9cB\x00\x00\x90B\x00\x00\xa8B\x00\x00 B\x00\x00\x04B\x00\x00HB\x00\x00\xe0@\x00\x00\x14B\x00\x00\xb8B\x00\x00@B\x00\x00\xc0A\x00\x00\xbaB\x00\x00\xa2B\x00\x00TB\x00\x00pB\x00\x00 A\x00\x00PA\x00\x00\x08B\x00\x00\xb6B\x00\x00`B\x00\x00\xbeB\x00\x00\xe0A\x00\x00\x86B\x00\x008B\x00\x00\x90A'
S'\x00\x00\x00\x00\x00\x00\x00\x00\x00\x00\x00\x00\x00\x00\x00\x00\x00\x00\x00\x00\x00\x00\x00\x00\x00\x00\x00\x00\x00\x00\x00\x00\x00\x00\x00\x00\x00\x00\x00\x00\x00\x00\x00\x00\x00\x00\x00\x00\x00\x00\x00\x00\x00\x00\x00\x00\x00\x00\x00\x00\x00\x00\x00\x00\x00\x00\x00\x00\x00\x00\x00\x00\x00\x00\x00\x00\x00\x00\x00\x00\x00\x00\x00\x00\x00\x00\x00\x00\x00\x00\x00\x00\x00\x00\x00\x00'
Ntbsg19
g1162
(g1163
g1158
g1164
S'b'
tRp1277
(I1
(I96
I1
tg1166
I00
S'\x00\x00\x80?\x00\x00\x80?\x00\x00\x80?\x00\x00\x80?\x00\x00\x80?\x00\x00\x80?\x00\x00\x80?\x00\x00\x80?\x00\x00\x80?\x00\x00\x80?\x00\x00\x80?\x00\x00\x80?\x00\x00\x80?\x00\x00\x80?\x00\x00\x80?\x00\x00\x80?\x00\x00\x80?\x00\x00\x80?\x00\x00\x80?\x00\x00\x80?\x00\x00\x80?\x00\x00\x80?\x00\x00\x80?\x00\x00\x00\x00\x00\x00\x80?\x00\x00\x80?\x00\x00\x80?\x00\x00\x80?\x00\x00\x00\x00\x00\x00\x80?\x00\x00\x80?\x00\x00\x80?\x00\x00\x80?\x00\x00\x80?\x00\x00\x80?\x00\x00\x80?\x00\x00\x80?\x00\x00\x80?\x00\x00\x80?\x00\x00\x80?\x00\x00\x80?\x00\x00\x80?\x00\x00\x00\x00\x00\x00\x80?\x00\x00\x80?\x00\x00\x00\x00\x00\x00\x80?\x00\x00\x80?\x00\x00\x80?\x00\x00\x80?\x00\x00\x80?\x00\x00\x00\x00\x00\x00\x80?\x00\x00\x00\x00\x00\x00\x00\x00\x00\x00\x80?\x00\x00\x80?\x00\x00\x00\x00\x00\x00\x00\x00\x00\x00\x80?\x00\x00\x80?\x00\x00\x80?\x00\x00\x80?\x00\x00\x80?\x00\x00\x00\x00\x00\x00\x80?\x00\x00\x80?\x00\x00\x80?\x00\x00\x80?\x00\x00\x80?\x00\x00\x80?\x00\x00\x80?\x00\x00\x80?\x00\x00\x80?\x00\x00\x80?\x00\x00\x80?\x00\x00\x80?\x00\x00\x80?\x00\x00\x80?\x00\x00\x80?\x00\x00\x80?\x00\x00\x80?\x00\x00\x80?\x00\x00\x00\x00\x00\x00\x80?\x00\x00\x80?\x00\x00\x80?\x00\x00\x80?\x00\x00\x80?\x00\x00\x80?\x00\x00\x80?\x00\x00\x80?\x00\x00\x80?\x00\x00\x80?\x00\x00\x80?\x00\x00\x80?'
S'\x00\x00\x00\x00\x00\x00\x00\x00\x00\x00\x00\x00\x00\x00\x00\x00\x00\x00\x00\x00\x00\x00\x00\x00\x00\x00\x00\x00\x00\x00\x00\x00\x00\x00\x00\x00\x00\x00\x00\x00\x00\x00\x00\x00\x00\x00\x00\x00\x00\x00\x00\x00\x00\x00\x00\x00\x00\x00\x00\x00\x00\x00\x00\x00\x00\x00\x00\x00\x00\x00\x00\x00\x00\x00\x00\x00\x00\x00\x00\x00\x00\x00\x00\x00\x00\x00\x00\x00\x00\x00\x00\x00\x00\x00\x00\x00'
Ntbsg27
g1157
(g1158
(I0
tS'b'
tRp1278
(I1
(I96
I1
tg1160
I00
(lp1279
g573
ag207
ag1002
ag518
ag562
ag1057
ag184
ag584
ag903
ag606
ag859
ag385
ag551
ag139
ag804
ag1024
ag716
ag319
ag418
ag473
ag104
ag771
ag330
ag219
ag760
ag683
ag991
ag1046
ag252
ag870
ag407
ag151
ag1035
ag128
ag815
ag914
ag837
ag1079
ag173
ag484
ag892
ag429
ag540
ag793
ag628
ag297
ag506
ag848
ag727
ag1068
ag661
ag241
ag969
ag650
ag363
ag308
ag341
ag958
ag76
ag374
ag925
ag694
ag90
ag1123
ag263
ag738
ag936
ag274
ag782
ag116
ag440
ag947
ag881
ag1013
ag529
ag451
ag639
ag162
ag495
ag1101
ag617
ag352
ag1112
ag980
ag672
ag749
ag196
ag230
ag462
ag1090
ag705
ag1134
ag396
ag826
ag595
ag285
atbsg23
g1157
(g1158
(I0
tS'b'
tRp1280
(I1
(I96
I1
tg1160
I00
(lp1281
S'2'
aS'2'
aS'3'
aS'1'
aS'2'
aS'2'
aS'1'
aS'3'
aS'3'
aS'1'
aS'1'
aS'3'
aS'1'
aS'2'
aS'3'
aS'2'
aS'2'
aS'1'
aS'1'
aS'2'
aS'2'
aS'3'
aS'1'
aS'1'
aS'3'
aS'3'
aS'2'
aS'3'
aS'2'
aS'1'
aS'2'
aS'3'
aS'1'
aS'1'
aS'2'
aS'3'
aS'3'
aS'2'
aS'1'
aS'1'
aS'1'
aS'1'
aS'1'
aS'1'
aS'2'
aS'2'
aS'2'
aS'2'
aS'1'
aS'1'
aS'1'
aS'1'
aS'1'
aS'1'
aS'1'
aS'2'
aS'2'
aS'1'
aS'1'
aS'1'
aS'2'
aS'1'
aS'1'
aS'1'
aS'1'
aS'1'
aS'3'
aS'3'
aS'2'
aS'2'
aS'2'
aS'3'
aS'1'
aS'1'
aS'3'
aS'2'
aS'2'
aS'3'
aS'2'
aS'1'
aS'1'
aS'3'
aS'1'
aS'1'
aS'1'
aS'3'
aS'2'
aS'2'
aS'2'
aS'3'
aS'1'
aS'2'
aS'2'
aS'2'
aS'1'
aS'3'
atbsg18
g1162
(g1163
g1158
g1164
S'b'
tRp1282
(I1
(I96
I1
tg1166
I00
S'\xb2hIC;\x82UB\xdfr\xb9C\x0e\xfe3CG\xfdDC\xab\xcd\xc4C`\xfe2Bi\x91MC\x96\x1c\xa6Cx\x84VC$U\x9dCt6\xfdB\x92\x0fAC\xf5F\xd7A\x80\xb0\x92C\x96\x9b\xbdC\xebT\x81C\x9e\x98\xc7B9\xd3\x0bC;\x9c C-}XA\xa9K\x8cC\x96t\xd0B\x9a\xabhBCI\x8aC\xe4\x9auC~g\xb7C\xd6\xcd\xc2Cga\x92B\x8c\x92\x9fC\xa4\xaf\x07C\xfb\xe0\xfcA\xe2\x84\xc0C\x8dq\xb5A\xd1\xd6\x94C`\xad\xa8C\x9a\x1f\x99C\xd6i\xc9C\x86["B\xe7\xd6$CZ\xd2\xa3C\x98\x15\x10C\x89x<C\xa4~\x90CE\xa6`C&\x05\xb7B{\xdc.C&\x1e\x9bC\x91\xa5\x83C\xa4\r\xc7C\xe5FmC\x14)\x89B\x94\x19\xb3CF5iC\x8f\xa7\xebB\xbe\x0e\xbfB\xa8\xa2\xd9B\xf0\x03\xb1C\x8c\x10\xa0@\xbb\xee\xf3Bn\xc9\xaaC\x9f9zC\x07\xe8\x16A\n\x1e\xd2C_v\x9cB\x83\xb3\x85CZ\xe0\xacC}\x06\xa7B\xf3?\x8eCG\xee\x93A-9\x14CB\x00\xafC\x95\xb7\xa1C(g\xbbC\xe8+8C\x96i\x18C\xf4\x1beCH\x1f\x12BO\x05*C\x05\xfd\xcdC\xbc\xab\\C\x08\xcb\xe1B\xa4\x1b\xd0C(J\xb5C\x90FqC\xed+\x88C\xc2xDB\x1a\xd6}B\x1fd\x1cC\x90\x96\xcbC\xdcv~C\xa8<\xd4C\xda\xac\x02C\x81\x15\x97C\xccIRC\xa8M\xafB'
S'\x00\x00\x00\x00\x00\x00\x00\x00\x00\x00\x00\x00\x00\x00\x00\x00\x00\x00\x00\x00\x00\x00\x00\x00\x00\x00\x00\x00\x00\x00\x00\x00\x00\x00\x00\x00\x00\x00\x00\x00\x00\x00\x00\x00\x00\x00\x00\x00\x00\x00\x00\x00\x00\x00\x00\x00\x00\x00\x00\x00\x00\x00\x00\x00\x00\x00\x00\x00\x00\x00\x00\x00\x00\x00\x00\x00\x00\x00\x00\x00\x00\x00\x00\x00\x00\x00\x00\x00\x00\x00\x00\x00\x00\x00\x00\x00'
Ntbsg25
g1162
(g1163
g1158
g1164
S'b'
tRp1283
(I1
(I96
I1
tg1166
I00
S'\x01-\x9f>u\x03\xe7>\xe8\x91\xae>=}\xd2>\xcb\x99\n?\x9a\xef\xe6>\xcf\x19\xc3>\x1d%\xec>\x83w\xb7?P\xc1\xb8>f\xe2\xe1>\xc7\xb3\xb3>Zt\xa9>c\x08\x08?\xa4\x91\xae>.\xab\xdc?\x89\xd4\xb8>\xca]\xcd>\x8dj\xf6>X9\xc8>\xe5\xb1\\?\x9f\xd4\xb8>\xeb:\xc8>\x94\x9f\xd7>|\xf9\xbd>\xb9\xfd\x19?\x0cO\xa4>\xda\xe3\xbd>\x04\xbdJ?\xc6\xf6\xbd>.\xe3\xb8>\x93\xe6\x02?1\xc0\xdc>\x9e\xc1\xdc>\xf9\'\xec>\xb9[\xcd>\'p\xa9>\x06^\xcd>\xe1x\xa9>\xbe\x05\x1a?\xcf\xf9\xbd>I\xb3\xb3>\xefh\xf6>o\xf6\xbd>\xc4j\xf6>(\x92\xae>k\xf3+?\x92\x141?D\x92\xae>>\xf3+?\x07O\xa4>\x83\xe2\xe1>!\xf7\xbd>\xa3p\xa9>\n\x19\xc3>5\x03\xe7>\xf4\xb4\xb3>\xf2\xb3\xb3>>w\x05?\xf0\x99\n?\x90\x92\xae>\xad~\xae>E\xd5\xb8>N\xa1\xd7>v\x9f\xd7>\xe2\x9e\xd7>\x87\xd1&?\x97Q\xa4>|\xf7\xbd>B\xb3\xb3>:\xe4\xe1>\xef9\xc8>|\xb3\xb3>\xd8[\xcd>\x95[\xcd>\xf4N\xa4>\x11\xf7\xbd>\xe7}\xd2>\x059\xc8>"\xa1\xd7>3\xb3\xb3>&\xc1\xdc>\xec\x9e\xd7>\x04\x92\xae>\xcd~\xae>\xaf\xb4\xb3>.\x8a\xfb>\x15c\x17?\xee\xe7\xe1>\xae\x1f\r?\x0c\xd6\xb8>\xb2)\r?\xe0U\xb2?\x00\xe3\xb8>\x15\xa0\xd7>\x13\xd4\xb8>'
S'\x00\x00\x00\x00\x00\x00\x00\x00\x00\x00\x00\x00\x00\x00\x00\x00\x00\x00\x00\x00\x00\x00\x00\x00\x00\x00\x00\x00\x00\x00\x00\x00\x00\x00\x00\x00\x00\x00\x00\x00\x00\x00\x00\x00\x00\x00\x00\x00\x00\x00\x00\x00\x00\x00\x00\x00\x00\x00\x00\x00\x00\x00\x00\x00\x00\x00\x00\x00\x00\x00\x00\x00\x00\x00\x00\x00\x00\x00\x00\x00\x00\x00\x00\x00\x00\x00\x00\x00\x00\x00\x00\x00\x00\x00\x00\x00'
NtbstRp1284
(dp1285
S'isNumeric'
p1286
(dp1287
g23
I00
sg20
I00
sg17
I01
sg1167
I01
sg22
I01
sg24
I01
sg14
I01
sg18
I01
sg16
I00
sg19
I01
sg26
I00
sg27
I00
sg15
I00
sg21
I01
sg1275
I01
sg25
I01
ssg1151
g1145
sS'dataTypes'
p1288
(lp1289
g1167
ag1275
ag14
ag15
ag16
ag17
ag18
ag19
ag20
ag21
ag22
ag23
ag24
ag25
ag26
ag27
asS'dataShape'
p1290
(lp1291
I96
aI1
asbsS'method'
p1292
S'random'
p1293
sS'sequenceIndices'
p1294
g1157
(g1158
(I0
tS'b'
tRp1295
(I1
(I96
I1
tg80
I01
S':\x00\x00\x00>\x00\x00\x00\x14\x00\x00\x00E\x00\x00\x00!\x00\x00\x00\r\x00\x00\x00\x1f\x00\x00\x00M\x00\x00\x00&\x00\x00\x00\x06\x00\x00\x00V\x00\x00\x00\x01\x00\x00\x00\x17\x00\x00\x00W\x00\x00\x003\x00\x00\x00\x1c\x00\x00\x00@\x00\x00\x00C\x00\x00\x00_\x00\x00\x00-\x00\x00\x007\x00\x00\x00\x11\x00\x00\x00\x16\x00\x00\x008\x00\x00\x00Q\x00\x00\x006\x00\x00\x00;\x00\x00\x00\x0b\x00\x00\x00\\\x00\x00\x00\x1e\x00\x00\x00\x12\x00\x00\x00)\x00\x00\x00F\x00\x00\x00K\x00\x00\x00X\x00\x00\x00\x13\x00\x00\x00\'\x00\x00\x00N\x00\x00\x00.\x00\x00\x00\x03\x00\x00\x00J\x00\x00\x00*\x00\x00\x00\x0c\x00\x00\x00\x04\x00\x00\x00\x00\x00\x00\x00\x07\x00\x00\x00^\x00\x00\x00\t\x00\x00\x00P\x00\x00\x00,\x00\x00\x00L\x00\x00\x005\x00\x00\x002\x00\x00\x00T\x00\x00\x00\x19\x00\x00\x00=\x00\x00\x00Z\x00\x00\x00\x10\x00\x00\x000\x00\x00\x00A\x00\x00\x00U\x00\x00\x00\x18\x00\x00\x00\x15\x00\x00\x00D\x00\x00\x00+\x00\x00\x00\x0e\x00\x00\x00"\x00\x00\x00]\x00\x00\x00$\x00\x00\x00/\x00\x00\x00\n\x00\x00\x00\x1d\x00\x00\x00H\x00\x00\x00(\x00\x00\x00\x08\x00\x00\x00#\x00\x00\x00<\x00\x00\x00B\x00\x00\x00G\x00\x00\x009\x00\x00\x004\x00\x00\x00S\x00\x00\x00\x1a\x00\x00\x00\x02\x00\x00\x00I\x00\x00\x00\x0f\x00\x00\x00 \x00\x00\x00\x1b\x00\x00\x00\x05\x00\x00\x001\x00\x00\x00%\x00\x00\x00Y\x00\x00\x00O\x00\x00\x00R\x00\x00\x00?\x00\x00\x00[\x00\x00\x00'
tbsS'finished'
p1296
I01
sS'nReps'
p1297
I1
sS'nRemaining'
p1298
I-1
sS'trialList'
p1299
(lp1300
g1
(cpsychopy.data
TrialType
p1301
g1155
(dp1302
g62
g74
sg63
g579
sg64
g114
sg65
g574
sg66
g578
stRp1303
ag1
(g1301
g1155
(dp1304
g62
g102
sg63
g213
sg64
g101
sg65
g208
sg66
g212
stRp1305
ag1
(g1301
g1155
(dp1306
g62
g74
sg63
g1008
sg64
g114
sg65
g1003
sg66
g1007
stRp1307
ag1
(g1301
g1155
(dp1308
g62
g74
sg63
g524
sg64
g516
sg65
g519
sg66
g523
stRp1309
ag1
(g1301
g1155
(dp1310
g62
g102
sg63
g568
sg64
g126
sg65
g563
sg66
g567
stRp1311
ag1
(g1301
g1155
(dp1312
g62
g74
sg63
g1063
sg64
g114
sg65
g1058
sg66
g1062
stRp1313
ag1
(g1301
g1155
(dp1314
g62
g74
sg63
g190
sg64
g114
sg65
g185
sg66
g189
stRp1315
ag1
(g1301
g1155
(dp1316
g62
g74
sg63
g590
sg64
g194
sg65
g585
sg66
g589
stRp1317
ag1
(g1301
g1155
(dp1318
g62
g74
sg63
g909
sg64
g114
sg65
g904
sg66
g908
stRp1319
ag1
(g1301
g1155
(dp1320
g62
g74
sg63
g612
sg64
g194
sg65
g607
sg66
g611
stRp1321
ag1
(g1301
g1155
(dp1322
g62
g102
sg63
g865
sg64
g295
sg65
g860
sg66
g864
stRp1323
ag1
(g1301
g1155
(dp1324
g62
g74
sg63
g391
sg64
g194
sg65
g386
sg66
g390
stRp1325
ag1
(g1301
g1155
(dp1326
g62
g74
sg63
g557
sg64
g73
sg65
g552
sg66
g556
stRp1327
ag1
(g1301
g1155
(dp1328
g62
g102
sg63
g145
sg64
g101
sg65
g140
sg66
g144
stRp1329
ag1
(g1301
g1155
(dp1330
g62
g74
sg63
g810
sg64
g73
sg65
g805
sg66
g809
stRp1331
ag1
(g1301
g1155
(dp1332
g62
g74
sg63
g1030
sg64
g114
sg65
g1025
sg66
g1029
stRp1333
ag1
(g1301
g1155
(dp1334
g62
g102
sg63
g722
sg64
g101
sg65
g717
sg66
g721
stRp1335
ag1
(g1301
g1155
(dp1336
g62
g74
sg63
g325
sg64
g73
sg65
g320
sg66
g324
stRp1337
ag1
(g1301
g1155
(dp1338
g62
g74
sg63
g424
sg64
g149
sg65
g419
sg66
g423
stRp1339
ag1
(g1301
g1155
(dp1340
g62
g74
sg63
g479
sg64
g114
sg65
g474
sg66
g478
stRp1341
ag1
(g1301
g1155
(dp1342
g62
g102
sg63
g110
sg64
g101
sg65
g105
sg66
g109
stRp1343
ag1
(g1301
g1155
(dp1344
g62
g102
sg63
g777
sg64
g217
sg65
g772
sg66
g776
stRp1345
ag1
(g1301
g1155
(dp1346
g62
g74
sg63
g336
sg64
g149
sg65
g331
sg66
g335
stRp1347
ag1
(g1301
g1155
(dp1348
g62
g102
sg63
g225
sg64
g217
sg65
g220
sg66
g224
stRp1349
ag1
(g1301
g1155
(dp1350
g62
g102
sg63
g766
sg64
g295
sg65
g761
sg66
g765
stRp1351
ag1
(g1301
g1155
(dp1352
g62
g74
sg63
g689
sg64
g88
sg65
g684
sg66
g688
stRp1353
ag1
(g1301
g1155
(dp1354
g62
g102
sg63
g997
sg64
g126
sg65
g992
sg66
g996
stRp1355
ag1
(g1301
g1155
(dp1356
g62
g102
sg63
g1052
sg64
g101
sg65
g1047
sg66
g1051
stRp1357
ag1
(g1301
g1155
(dp1358
g62
g74
sg63
g258
sg64
g73
sg65
g253
sg66
g257
stRp1359
ag1
(g1301
g1155
(dp1360
g62
g74
sg63
g876
sg64
g114
sg65
g871
sg66
g875
stRp1361
ag1
(g1301
g1155
(dp1362
g62
g74
sg63
g413
sg64
g149
sg65
g408
sg66
g412
stRp1363
ag1
(g1301
g1155
(dp1364
g62
g74
sg63
g157
sg64
g149
sg65
g152
sg66
g156
stRp1365
ag1
(g1301
g1155
(dp1366
g62
g102
sg63
g1041
sg64
g101
sg65
g1036
sg66
g1040
stRp1367
ag1
(g1301
g1155
(dp1368
g62
g102
sg63
g134
sg64
g126
sg65
g129
sg66
g133
stRp1369
ag1
(g1301
g1155
(dp1370
g62
g102
sg63
g821
sg64
g126
sg65
g816
sg66
g820
stRp1371
ag1
(g1301
g1155
(dp1372
g62
g74
sg63
g920
sg64
g73
sg65
g915
sg66
g919
stRp1373
ag1
(g1301
g1155
(dp1374
g62
g74
sg63
g843
sg64
g88
sg65
g838
sg66
g842
stRp1375
ag1
(g1301
g1155
(dp1376
g62
g74
sg63
g1085
sg64
g516
sg65
g1080
sg66
g1084
stRp1377
ag1
(g1301
g1155
(dp1378
g62
g102
sg63
g179
sg64
g126
sg65
g174
sg66
g178
stRp1379
ag1
(g1301
g1155
(dp1380
g62
g102
sg63
g490
sg64
g101
sg65
g485
sg66
g489
stRp1381
ag1
(g1301
g1155
(dp1382
g62
g102
sg63
g898
sg64
g101
sg65
g893
sg66
g897
stRp1383
ag1
(g1301
g1155
(dp1384
g62
g74
sg63
g435
sg64
g73
sg65
g430
sg66
g434
stRp1385
ag1
(g1301
g1155
(dp1386
g62
g102
sg63
g546
sg64
g126
sg65
g541
sg66
g545
stRp1387
ag1
(g1301
g1155
(dp1388
g62
g102
sg63
g799
sg64
g217
sg65
g794
sg66
g798
stRp1389
ag1
(g1301
g1155
(dp1390
g62
g102
sg63
g634
sg64
g126
sg65
g629
sg66
g633
stRp1391
ag1
(g1301
g1155
(dp1392
g62
g102
sg63
g303
sg64
g295
sg65
g298
sg66
g302
stRp1393
ag1
(g1301
g1155
(dp1394
g62
g74
sg63
g512
sg64
g114
sg65
g507
sg66
g511
stRp1395
ag1
(g1301
g1155
(dp1396
g62
g74
sg63
g854
sg64
g114
sg65
g849
sg66
g853
stRp1397
ag1
(g1301
g1155
(dp1398
g62
g102
sg63
g733
sg64
g101
sg65
g728
sg66
g732
stRp1399
ag1
(g1301
g1155
(dp1400
g62
g102
sg63
g1074
sg64
g217
sg65
g1069
sg66
g1073
stRp1401
ag1
(g1301
g1155
(dp1402
g62
g102
sg63
g667
sg64
g101
sg65
g662
sg66
g666
stRp1403
ag1
(g1301
g1155
(dp1404
g62
g102
sg63
g247
sg64
g126
sg65
g242
sg66
g246
stRp1405
ag1
(g1301
g1155
(dp1406
g62
g102
sg63
g975
sg64
g217
sg65
g970
sg66
g974
stRp1407
ag1
(g1301
g1155
(dp1408
g62
g74
sg63
g656
sg64
g73
sg65
g651
sg66
g655
stRp1409
ag1
(g1301
g1155
(dp1410
g62
g74
sg63
g369
sg64
g194
sg65
g364
sg66
g368
stRp1411
ag1
(g1301
g1155
(dp1412
g62
g102
sg63
g314
sg64
g217
sg65
g309
sg66
g313
stRp1413
ag1
(g1301
g1155
(dp1414
g62
g102
sg63
g347
sg64
g126
sg65
g342
sg66
g346
stRp1415
ag1
(g1301
g1155
(dp1416
g62
g102
sg63
g964
sg64
g126
sg65
g959
sg66
g963
stRp1417
ag1
(g1301
g1155
(dp1418
g62
g74
sg63
g84
sg64
g73
sg65
g78
sg66
g83
stRp1419
ag1
(g1301
g1155
(dp1420
g62
g102
sg63
g380
sg64
g126
sg65
g375
sg66
g379
stRp1421
ag1
(g1301
g1155
(dp1422
g62
g102
sg63
g931
sg64
g126
sg65
g926
sg66
g930
stRp1423
ag1
(g1301
g1155
(dp1424
g62
g102
sg63
g700
sg64
g126
sg65
g695
sg66
g699
stRp1425
ag1
(g1301
g1155
(dp1426
g62
g74
sg63
g96
sg64
g88
sg65
g91
sg66
g95
stRp1427
ag1
(g1301
g1155
(dp1428
g62
g102
sg63
g1129
sg64
g126
sg65
g1124
sg66
g1128
stRp1429
ag1
(g1301
g1155
(dp1430
g62
g74
sg63
g269
sg64
g194
sg65
g264
sg66
g268
stRp1431
ag1
(g1301
g1155
(dp1432
g62
g102
sg63
g744
sg64
g217
sg65
g739
sg66
g743
stRp1433
ag1
(g1301
g1155
(dp1434
g62
g74
sg63
g942
sg64
g149
sg65
g937
sg66
g941
stRp1435
ag1
(g1301
g1155
(dp1436
g62
g102
sg63
g280
sg64
g126
sg65
g275
sg66
g279
stRp1437
ag1
(g1301
g1155
(dp1438
g62
g102
sg63
g788
sg64
g101
sg65
g783
sg66
g787
stRp1439
ag1
(g1301
g1155
(dp1440
g62
g74
sg63
g122
sg64
g114
sg65
g117
sg66
g121
stRp1441
ag1
(g1301
g1155
(dp1442
g62
g102
sg63
g446
sg64
g126
sg65
g441
sg66
g445
stRp1443
ag1
(g1301
g1155
(dp1444
g62
g74
sg63
g953
sg64
g149
sg65
g948
sg66
g952
stRp1445
ag1
(g1301
g1155
(dp1446
g62
g74
sg63
g887
sg64
g88
sg65
g882
sg66
g886
stRp1447
ag1
(g1301
g1155
(dp1448
g62
g102
sg63
g1019
sg64
g295
sg65
g1014
sg66
g1018
stRp1449
ag1
(g1301
g1155
(dp1450
g62
g102
sg63
g535
sg64
g126
sg65
g530
sg66
g534
stRp1451
ag1
(g1301
g1155
(dp1452
g62
g102
sg63
g457
sg64
g217
sg65
g452
sg66
g456
stRp1453
ag1
(g1301
g1155
(dp1454
g62
g74
sg63
g645
sg64
g194
sg65
g640
sg66
g644
stRp1455
ag1
(g1301
g1155
(dp1456
g62
g74
sg63
g168
sg64
g149
sg65
g163
sg66
g167
stRp1457
ag1
(g1301
g1155
(dp1458
g62
g74
sg63
g501
sg64
g114
sg65
g496
sg66
g500
stRp1459
ag1
(g1301
g1155
(dp1460
g62
g102
sg63
g1107
sg64
g126
sg65
g1102
sg66
g1106
stRp1461
ag1
(g1301
g1155
(dp1462
g62
g102
sg63
g623
sg64
g217
sg65
g618
sg66
g622
stRp1463
ag1
(g1301
g1155
(dp1464
g62
g74
sg63
g358
sg64
g114
sg65
g353
sg66
g357
stRp1465
ag1
(g1301
g1155
(dp1466
g62
g102
sg63
g1118
sg64
g101
sg65
g1113
sg66
g1117
stRp1467
ag1
(g1301
g1155
(dp1468
g62
g74
sg63
g986
sg64
g149
sg65
g981
sg66
g985
stRp1469
ag1
(g1301
g1155
(dp1470
g62
g102
sg63
g678
sg64
g101
sg65
g673
sg66
g677
stRp1471
ag1
(g1301
g1155
(dp1472
g62
g102
sg63
g755
sg64
g126
sg65
g750
sg66
g754
stRp1473
ag1
(g1301
g1155
(dp1474
g62
g74
sg63
g202
sg64
g194
sg65
g197
sg66
g201
stRp1475
ag1
(g1301
g1155
(dp1476
g62
g74
sg63
g236
sg64
g194
sg65
g231
sg66
g235
stRp1477
ag1
(g1301
g1155
(dp1478
g62
g74
sg63
g468
sg64
g88
sg65
g463
sg66
g467
stRp1479
ag1
(g1301
g1155
(dp1480
g62
g74
sg63
g1096
sg64
g88
sg65
g1091
sg66
g1095
stRp1481
ag1
(g1301
g1155
(dp1482
g62
g102
sg63
g711
sg64
g101
sg65
g706
sg66
g710
stRp1483
ag1
(g1301
g1155
(dp1484
g62
g74
sg63
g1140
sg64
g194
sg65
g1135
sg66
g1139
stRp1485
ag1
(g1301
g1155
(dp1486
g62
g74
sg63
g402
sg64
g88
sg65
g397
sg66
g401
stRp1487
ag1
(g1301
g1155
(dp1488
g62
g74
sg63
g832
sg64
g114
sg65
g827
sg66
g831
stRp1489
ag1
(g1301
g1155
(dp1490
g62
g102
sg63
g601
sg64
g217
sg65
g596
sg66
g600
stRp1491
ag1
(g1301
g1155
(dp1492
g62
g102
sg63
g291
sg64
g101
sg65
g286
sg66
g290
stRp1493
asS'seed'
p1494
NsS'thisIndex'
p1495
g1137
sS'thisN'
p1496
I96
sS'thisTrialN'
p1497
I0
sS'nTotal'
p1498
I96
sS'_warnUseOfNext'
p1499
I01
sbasS'savePickle'
p1500
I00
sb.