ccopy_reg
_reconstructor
p1
(cpsychopy.data
ExperimentHandler
p2
c__builtin__
object
p3
NtRp4
(dp5
S'originPath'
p6
NsS'dataFileName'
p7
VC:\u005cDocuments and Settings\u005cExperimental user\u005cMy Documents\u005cconsciousness\u005cuncon_feat\u005cexperiment_scripts\u005cdata/mattin_Experiment_EEG_version_2019_jun_28_1504
p8
sS'runtimeInfo'
p9
NsS'name'
p10
VExperiment_EEG_version
p11
sS'dataNames'
p12
(lp13
S'image_onset_time'
p14
aS'response_window'
p15
aS'correctAns'
p16
aS'probe_onset'
p17
aS'discrim_resptime'
p18
aS'response.corr'
p19
aS'response.keys'
p20
aS'response.rt'
p21
aS'visible_resptime'
p22
aS'visible.keys'
p23
aS'visible.corr'
p24
aS'visible.rt'
p25
aS'probeFrames'
p26
aS'jitter2'
p27
asS'autoLog'
p28
I01
sS'extraInfo'
p29
(dp30
Vn_square
p31
V32
p32
sVexperiment_color
p33
Vbw
p34
sS'frameRate'
p35
cnumpy.core.multiarray
scalar
p36
(cnumpy
dtype
p37
(S'f8'
I0
I1
tRp38
(I3
S'<'
NNNI-1
I-1
I0
tbS'MM\xd3[\x05\xf2X@'
tRp39
sS'date'
p40
V2019_jun_28_1504
p41
sVsession
p42
V001
p43
sVimage_size
p44
V256
p45
sVpremask_dur
p46
V20
p47
sVprobeFrames
p48
V5
sVparticipant
p49
Vmattin
p50
sS'expName'
p51
g11
sVpostmask_dur
p52
V20
p53
ssS'loopsUnfinished'
p54
(lp55
sS'saveWideText'
p56
I00
sS'thisEntry'
p57
(dp58
sS'version'
p59
S''
sS'_paramNamesSoFar'
p60
(lp61
S'category'
p62
aS'probe_path'
p63
aS'subcategory'
p64
aS'fixation_duration'
p65
aS'label'
p66
asS'entries'
p67
(lp68
(dp69
g31
g32
sg17
F3.8245147588895634
sg24
I0
sg35
g39
sg14
F3.7750192489475012
sg16
g36
(g37
(S'i4'
I0
I1
tRp70
(I3
S'<'
NNNI-1
I-1
I0
tbS'\x02\x00\x00\x00'
tRp71
sg42
g43
sg46
g47
sg15
S'V_nV'
p72
sg22
F7.3637358599808067
sg64
VFurniture
p73
sg62
VNonliving_Things
p74
sg49
g50
sS'trials.thisN'
p75
I0
sg19
I1
sg27
g36
(g38
S'\x00\x00\x00\x00\x00\x00\x1e@'
tRp76
sg52
g53
sg23
S'3'
sg18
F5.0877789980731905
sg33
g34
sg51
g11
sg20
S'2'
sg65
g36
(g37
(S'i8'
I0
I1
tRp77
(I3
S'<'
NNNI-1
I-1
I0
tbS'\x00\x00\x00\x00\x00\x00\x00\x00'
tRp78
sg44
g45
sg40
g41
sg25
F2.5357506654690951
sS'trials.thisIndex'
p79
g36
(g37
(S'i4'
I0
I1
tRp80
(I3
S'<'
NNNI-1
I-1
I0
tbS'/\x00\x00\x00'
tRp81
sg26
V5
sS'trials.thisRepN'
p82
I0
sg66
Vlectern
p83
sg63
V../experiment_stimuli/bw_bc_bl/Nonliving_Things/Furniture/lectern_8.jpg
p84
sg21
F2.2451124789658934
sS'trials.thisTrialN'
p85
I0
sa(dp86
g31
g32
sg17
F11.675088791758753
sg24
I0
sg35
g39
sg14
F11.632125426083803
sg16
g36
(g70
S'\x01\x00\x00\x00'
tRp87
sg42
g43
sg46
g47
sg15
g72
sg22
F13.997970326454379
sg64
VMarine_creatures
p88
sg62
VLiving_Things
p89
sg49
g50
sS'trials.thisN'
p90
I1
sg19
I0
sg27
g36
(g38
S'\x00\x00\x00\x00\x00\x00\x18@'
tRp91
sg52
g53
sg23
S'3'
sg18
F12.914823016850278
sg33
g34
sg51
g11
sg20
S'2'
sg65
g36
(g77
S'\x00\x00\x00\x00\x00\x00\x00\x00'
tRp92
sg44
g45
sg40
g41
sg25
F4.1392259420827031
sS'trials.thisIndex'
p93
g36
(g80
S'P\x00\x00\x00'
tRp94
sg26
V5
sS'trials.thisRepN'
p95
I0
sg66
Vsperm-whale
p96
sg63
V../experiment_stimuli/bw_bc_bl/Living_Things/Marine_creatures/sperm-whale_4.jpg
p97
sg21
F1.0625795451924205
sS'trials.thisTrialN'
p98
I1
sa(dp99
g31
g32
sg17
F19.900572846760042
sg24
I1
sg35
g39
sg14
F19.870052129379474
sg16
g36
(g70
S'\x01\x00\x00\x00'
tRp100
sg42
g43
sg46
g47
sg15
g72
sg22
F23.047624032595195
sg64
g88
sg62
g89
sg49
g50
sS'trials.thisN'
p101
I2
sg19
I0
sg27
g36
(g38
S'\x00\x00\x00\x00\x00\x00\x18@'
tRp102
sg52
g53
sg23
S'1'
sg18
F21.122680017026141
sg33
g34
sg51
g11
sg20
S'2'
sg65
g36
(g77
S'\x00\x00\x00\x00\x00\x00\x00\x00'
tRp103
sg44
g45
sg40
g41
sg25
F1.884322042344138
sS'trials.thisIndex'
p104
g36
(g80
S'\x15\x00\x00\x00'
tRp105
sg26
V5
sS'trials.thisRepN'
p106
I0
sg66
Vcrab
p107
sg63
V../experiment_stimuli/bw_bc_bl/Living_Things/Marine_creatures/crab_8.jpg
p108
sg21
F1.9043690185062587
sS'trials.thisTrialN'
p109
I2
sa(dp110
g31
g32
sg17
F26.695365652441978
sg24
I0
sg35
g39
sg14
F26.664848946384154
sg16
g36
(g70
S'\x01\x00\x00\x00'
tRp111
sg42
g43
sg46
g47
sg15
g72
sg22
F30.012763042235747
sg64
VAnimals
p112
sg62
g89
sg49
g50
sS'trials.thisN'
p113
I3
sg19
I1
sg27
g36
(g38
S'\x00\x00\x00\x00\x00\x00\x1e@'
tRp114
sg52
g53
sg23
S'2'
sg18
F27.937580760684796
sg33
g34
sg51
g11
sg20
S'1'
sg65
g36
(g77
S'\x00\x00\x00\x00\x00\x00\x00\x00'
tRp115
sg44
g45
sg40
g41
sg25
F0.98237032035831362
sS'trials.thisIndex'
p116
g36
(g80
S'\x10\x00\x00\x00'
tRp117
sg26
V5
sS'trials.thisRepN'
p118
I0
sg66
Vcheetah
p119
sg63
V../experiment_stimuli/bw_bc_bl/Living_Things/Animals/cheetah_23.jpg
p120
sg21
F2.0546947045950219
sS'trials.thisTrialN'
p121
I3
sa(dp122
g31
g32
sg17
F32.754589625983499
sg24
I0
sg35
g39
sg14
F32.728041482507251
sg16
g36
(g70
S'\x01\x00\x00\x00'
tRp123
sg42
g43
sg46
g47
sg15
S'nV_V'
p124
sg22
F36.737435980932787
sg64
VVehicles
p125
sg62
g74
sg49
g50
sS'trials.thisN'
p126
I4
sg19
I1
sg27
g36
(g38
S'\x00\x00\x00\x00\x00\x00\x1e@'
tRp127
sg52
g53
sg23
S'2'
sg18
F33.99071273196023
sg33
g34
sg51
g11
sg20
S'1'
sg65
g36
(g77
S'\x00\x00\x00\x00\x00\x00\x00\x00'
tRp128
sg44
g45
sg40
g41
sg25
F0.90218931692652404
sS'trials.thisIndex'
p129
g36
(g80
S'\x07\x00\x00\x00'
tRp130
sg26
V5
sS'trials.thisRepN'
p131
I0
sg66
Vboat
p132
sg63
V../experiment_stimuli/bw_bc_bl/Nonliving_Things/Vehicles/boat_14.jpg
p133
sg21
F2.7261606616666541
sS'trials.thisTrialN'
p134
I4
sa(dp135
g31
g32
sg17
F39.39970554667525
sg24
I1
sg35
g39
sg14
F39.372511617140844
sg16
g36
(g70
S'\x01\x00\x00\x00'
tRp136
sg42
g43
sg46
g47
sg15
g72
sg22
F42.700385262956843
sg64
VBirds
p137
sg62
g89
sg49
g50
sS'trials.thisN'
p138
I5
sg19
I0
sg27
g36
(g38
S'\x00\x00\x00\x00\x00\x00\x1c@'
tRp139
sg52
g53
sg23
S'1'
sg18
F40.625153549364768
sg33
g34
sg51
g11
sg20
S'2'
sg65
g36
(g77
S'\x00\x00\x00\x00\x00\x00\x00\x00'
tRp140
sg44
g45
sg40
g41
sg25
F1.9945589972194284
sS'trials.thisIndex'
p141
g36
(g80
S'O\x00\x00\x00'
tRp142
sg26
V5
sS'trials.thisRepN'
p143
I0
sg66
Vsparrow
p144
sg63
V../experiment_stimuli/bw_bc_bl/Living_Things/Birds/sparrow_26.jpg
p145
sg21
F2.054689742391929
sS'trials.thisTrialN'
p146
I5
sa(dp147
g31
g32
sg17
F46.43866283504758
sg24
I0
sg35
g39
sg14
F46.427896544570103
sg16
g36
(g70
S'\x01\x00\x00\x00'
tRp148
sg42
g43
sg46
g47
sg15
g72
sg22
F49.374963919748552
sg64
g112
sg62
g89
sg49
g50
sS'trials.thisN'
p149
I6
sg19
I1
sg27
g36
(g38
S'\x00\x00\x00\x00\x00\x00\x1a@'
tRp150
sg52
g53
sg23
S'3'
sg18
F47.670484310481697
sg33
g34
sg51
g11
sg20
S'1'
sg65
g36
(g77
S'\x00\x00\x00\x00\x00\x00\x00\x00'
tRp151
sg44
g45
sg40
g41
sg25
F0.77189549477770925
sS'trials.thisIndex'
p152
g36
(g80
S'_\x00\x00\x00'
tRp153
sg26
V5
sS'trials.thisRepN'
p154
I0
sg66
Vzebra
p155
sg63
V../experiment_stimuli/bw_bc_bl/Living_Things/Animals/zebra_8.jpg
p156
sg21
F1.683887104736641
sS'trials.thisTrialN'
p157
I6
sa(dp158
g31
g32
sg17
F51.912256805691868
sg24
I0
sg35
g39
sg14
F51.879772962653078
sg16
g36
(g70
S'\x02\x00\x00\x00'
tRp159
sg42
g43
sg46
g47
sg15
g124
sg22
F55.548383617773652
sg64
g137
sg62
g89
sg49
g50
sS'trials.thisN'
p160
I7
sg19
I0
sg27
g36
(g38
S'\x00\x00\x00\x00\x00\x00\x18@'
tRp161
sg52
g53
sg23
S'2'
sg18
F53.132378899259493
sg33
g34
sg51
g11
sg20
S'1'
sg65
g36
(g77
S'\x00\x00\x00\x00\x00\x00\x00\x00'
tRp162
sg44
g45
sg40
g41
sg25
F0.93226265558041632
sS'trials.thisIndex'
p163
g36
(g80
S'\x1a\x00\x00\x00'
tRp164
sg26
V5
sS'trials.thisRepN'
p165
I0
sg66
Vduck
p166
sg63
V../experiment_stimuli/bw_bc_bl/Living_Things/Birds/duck_5.jpg
p167
sg21
F2.3954293867573142
sS'trials.thisTrialN'
p168
I7
sa(dp169
g31
g32
sg17
F58.235030771582387
sg24
I1
sg35
g39
sg14
F58.213535438524559
sg16
g36
(g70
S'\x02\x00\x00\x00'
tRp170
sg42
g43
sg46
g47
sg15
g124
sg22
F61.982393373851664
sg64
g112
sg62
g89
sg49
g50
sS'trials.thisN'
p171
I8
sg19
I1
sg27
g36
(g38
S'\x00\x00\x00\x00\x00\x00\x18@'
tRp172
sg52
g53
sg23
S'1'
sg18
F59.456158666289411
sg33
g34
sg51
g11
sg20
S'2'
sg65
g36
(g77
S'\x00\x00\x00\x00\x00\x00\x00\x00'
tRp173
sg44
g45
sg40
g41
sg25
F1.6838993304409087
sS'trials.thisIndex'
p174
g36
(g80
S'R\x00\x00\x00'
tRp175
sg26
V5
sS'trials.thisRepN'
p176
I0
sg66
Vtapir
p177
sg63
V../experiment_stimuli/bw_bc_bl/Living_Things/Animals/tapir_3.jpg
p178
sg21
F2.505678195389919
sS'trials.thisTrialN'
p179
I8
sa(dp180
g31
g32
sg17
F65.433506850269623
sg24
I0
sg35
g39
sg14
F65.399190808879212
sg16
g36
(g70
S'\x01\x00\x00\x00'
tRp181
sg42
g43
sg46
g47
sg15
g72
sg22
F67.784865187946707
sg64
VInsects
p182
sg62
g89
sg49
g50
sS'trials.thisN'
p183
I9
sg19
I1
sg27
g36
(g38
S'\x00\x00\x00\x00\x00\x00\x1e@'
tRp184
sg52
g53
sg23
S'3'
sg18
F66.69190061185509
sg33
g34
sg51
g11
sg20
S'1'
sg65
g36
(g77
S'\x00\x00\x00\x00\x00\x00\x00\x00'
tRp185
sg44
g45
sg40
g41
sg25
F0.94229407061357051
sS'trials.thisIndex'
p186
g36
(g80
S'I\x00\x00\x00'
tRp187
sg26
V5
sS'trials.thisRepN'
p188
I0
sg66
Vscorpion
p189
sg63
V../experiment_stimuli/bw_bc_bl/Living_Things/Insects/scorpion_8.jpg
p190
sg21
F1.0723991768900305
sS'trials.thisTrialN'
p191
I9
sa(dp192
g31
g32
sg17
F70.503216204000637
sg24
I0
sg35
g39
sg14
F70.460204684874043
sg16
g36
(g70
S'\x02\x00\x00\x00'
tRp193
sg42
g43
sg46
g47
sg15
g72
sg22
F74.30923302215524
sg64
VMusical_Inst
p194
sg62
g74
sg49
g50
sS'trials.thisN'
p195
I10
sg19
I1
sg27
g36
(g38
S'\x00\x00\x00\x00\x00\x00\x18@'
tRp196
sg52
g53
sg23
S'2'
sg18
F71.732883507153019
sg33
g34
sg51
g11
sg20
S'2'
sg65
g36
(g77
S'\x00\x00\x00\x00\x00\x00\x00\x00'
tRp197
sg44
g45
sg40
g41
sg25
F0.62156841752585024
sS'trials.thisIndex'
p198
g36
(g80
S'X\x00\x00\x00'
tRp199
sg26
V5
sS'trials.thisRepN'
p200
I0
sg66
Vtrumpet
p201
sg63
V../experiment_stimuli/bw_bc_bl/Nonliving_Things/Musical_Inst/trumpet_22.jpg
p202
sg21
F2.5557897022226825
sS'trials.thisTrialN'
p203
I10
sa(dp204
g31
g32
sg17
F76.694769947673194
sg24
I1
sg35
g39
sg14
F76.663710676133633
sg16
g36
(g70
S'\x02\x00\x00\x00'
tRp205
sg42
g43
sg46
g47
sg15
g124
sg22
F80.462689036270604
sg64
g88
sg62
g89
sg49
g50
sS'trials.thisN'
p206
I11
sg19
I0
sg27
g36
(g38
S'\x00\x00\x00\x00\x00\x00\x18@'
tRp207
sg52
g53
sg23
S'1'
sg18
F77.916339352959767
sg33
g34
sg51
g11
sg20
S'1'
sg65
g36
(g77
S'\x00\x00\x00\x00\x00\x00\x00\x00'
tRp208
sg44
g45
sg40
g41
sg25
F1.4734323014272377
sS'trials.thisIndex'
p209
g36
(g80
S'+\x00\x00\x00'
tRp210
sg26
V5
sS'trials.thisRepN'
p211
I0
sg66
Vkiller-whale
p212
sg63
V../experiment_stimuli/bw_bc_bl/Living_Things/Marine_creatures/killer-whale_25.jpg
p213
sg21
F2.5257656222674996
sS'trials.thisTrialN'
p214
I11
sa(dp215
g31
g32
sg17
F83.685597779462114
sg24
I0
sg35
g39
sg14
F83.668960409238935
sg16
g36
(g70
S'\x01\x00\x00\x00'
tRp216
sg42
g43
sg46
g47
sg15
g72
sg22
F87.327593686408363
sg64
g112
sg62
g89
sg49
g50
sS'trials.thisN'
p217
I12
sg19
I1
sg27
g36
(g38
S'\x00\x00\x00\x00\x00\x00\x1a@'
tRp218
sg52
g53
sg23
S'3'
sg18
F84.9416395513108
sg33
g34
sg51
g11
sg20
S'1'
sg65
g36
(g77
S'\x00\x00\x00\x00\x00\x00\x00\x00'
tRp219
sg44
g45
sg40
g41
sg25
F0.79194681334774941
sS'trials.thisIndex'
p220
g36
(g80
S'T\x00\x00\x00'
tRp221
sg26
V5
sS'trials.thisRepN'
p222
I0
sg66
Vtiger
p223
sg63
V../experiment_stimuli/bw_bc_bl/Living_Things/Animals/tiger_6.jpg
p224
sg21
F2.3653622060082853
sS'trials.thisTrialN'
p225
I12
sa(dp226
g31
g32
sg17
F89.865844362648204
sg24
I0
sg35
g39
sg14
F89.852431420353241
sg16
g36
(g70
S'\x02\x00\x00\x00'
tRp227
sg42
g43
sg46
g47
sg15
g72
sg22
F93.049877493176609
sg64
g194
sg62
g74
sg49
g50
sS'trials.thisN'
p228
I13
sg19
I1
sg27
g36
(g38
S'\x00\x00\x00\x00\x00\x00\x18@'
tRp229
sg52
g53
sg23
S'3'
sg18
F91.095034272409976
sg33
g34
sg51
g11
sg20
S'2'
sg65
g36
(g77
S'\x00\x00\x00\x00\x00\x00\x00\x00'
tRp230
sg44
g45
sg40
g41
sg25
F2.1649344153702259
sS'trials.thisIndex'
p231
g36
(g80
S'$\x00\x00\x00'
tRp232
sg26
V5
sS'trials.thisRepN'
p233
I0
sg66
Vguitar
p234
sg63
V../experiment_stimuli/bw_bc_bl/Nonliving_Things/Musical_Inst/guitar_25.jpg
p235
sg21
F1.9342704153386876
sS'trials.thisTrialN'
p236
I13
sa(dp237
g31
g32
sg17
F96.972181085147895
sg24
I0
sg35
g39
sg14
F96.947895932360552
sg16
g36
(g70
S'\x02\x00\x00\x00'
tRp238
sg42
g43
sg46
g47
sg15
g72
sg22
F99.764679518993944
sg64
VBuildings
p239
sg62
g74
sg49
g50
sS'trials.thisN'
p240
I14
sg19
I0
sg27
g36
(g38
S'\x00\x00\x00\x00\x00\x00\x1a@'
tRp241
sg52
g53
sg23
S'2'
sg18
F98.200509733520448
sg33
g34
sg51
g11
sg20
S'1'
sg65
g36
(g77
S'\x00\x00\x00\x00\x00\x00\x00\x00'
tRp242
sg44
g45
sg40
g41
sg25
F1.1226805992191657
sS'trials.thisIndex'
p243
g36
(g80
S':\x00\x00\x00'
tRp244
sg26
V5
sS'trials.thisRepN'
p245
I0
sg66
Vpalace
p246
sg63
V../experiment_stimuli/bw_bc_bl/Nonliving_Things/Buildings/palace_9.jpg
p247
sg21
F1.5435863635502756
sS'trials.thisTrialN'
p248
I14
sa(dp249
g31
g32
sg17
F102.65171454299707
sg24
I0
sg35
g39
sg14
F102.62023294484243
sg16
g36
(g70
S'\x02\x00\x00\x00'
tRp250
sg42
g43
sg46
g47
sg15
g124
sg22
F108.39330861205235
sg64
g88
sg62
g89
sg49
g50
sS'trials.thisN'
p251
I15
sg19
I0
sg27
g36
(g38
S'\x00\x00\x00\x00\x00\x00\x18@'
tRp252
sg52
g53
sg23
S'2'
sg18
F103.87286245252471
sg33
g34
sg51
g11
sg20
S'1'
sg65
g36
(g77
S'\x00\x00\x00\x00\x00\x00\x00\x00'
tRp253
sg44
g45
sg40
g41
sg25
F1.1327038259478286
sS'trials.thisIndex'
p254
g36
(g80
S'A\x00\x00\x00'
tRp255
sg26
V5
sS'trials.thisRepN'
p256
I0
sg66
Vpomfret
p257
sg63
V../experiment_stimuli/bw_bc_bl/Living_Things/Marine_creatures/pomfret_1.jpg
p258
sg21
F4.4998672903748229
sS'trials.thisTrialN'
p259
I15
sa(dp260
g31
g32
sg17
F111.27026625175495
sg24
I0
sg35
g39
sg14
F111.25904357165564
sg16
g36
(g70
S'\x01\x00\x00\x00'
tRp261
sg42
g43
sg46
g47
sg15
g72
sg22
F115.07799420191441
sg64
g88
sg62
g89
sg49
g50
sS'trials.thisN'
p262
I16
sg19
I0
sg27
g36
(g38
S'\x00\x00\x00\x00\x00\x00\x1a@'
tRp263
sg52
g53
sg23
S'2'
sg18
F112.49163752014283
sg33
g34
sg51
g11
sg20
S'2'
sg65
g36
(g77
S'\x00\x00\x00\x00\x00\x00\x00\x00'
tRp264
sg44
g45
sg40
g41
sg25
F0.80196209670975804
sS'trials.thisIndex'
p265
g36
(g80
S'^\x00\x00\x00'
tRp266
sg26
V5
sS'trials.thisRepN'
p267
I0
sg66
Vwhale
p268
sg63
V../experiment_stimuli/bw_bc_bl/Living_Things/Marine_creatures/whale_12.jpg
p269
sg21
F2.5658088574418798
sS'trials.thisTrialN'
p270
I16
sa(dp271
g31
g32
sg17
F117.6343041768996
sg24
I0
sg35
g39
sg14
F117.61288268107455
sg16
g36
(g70
S'\x01\x00\x00\x00'
tRp272
sg42
g43
sg46
g47
sg15
g124
sg22
F123.26582739816513
sg64
VTools
p273
sg62
g74
sg49
g50
sS'trials.thisN'
p274
I17
sg19
I0
sg27
g36
(g38
S'\x00\x00\x00\x00\x00\x00\x1c@'
tRp275
sg52
g53
sg23
S'2'
sg18
F118.85548942431342
sg33
g34
sg51
g11
sg20
S'2'
sg65
g36
(g77
S'\x00\x00\x00\x00\x00\x00\x00\x00'
tRp276
sg44
g45
sg40
g41
sg25
F0.99238029564730823
sS'trials.thisIndex'
p277
g36
(g80
S'%\x00\x00\x00'
tRp278
sg26
V5
sS'trials.thisRepN'
p279
I0
sg66
Vhammer
p280
sg63
V../experiment_stimuli/bw_bc_bl/Nonliving_Things/Tools/hammer_7.jpg
p281
sg21
F4.3897767396410927
sS'trials.thisTrialN'
p282
I17
sa(dp283
g31
g32
sg17
F126.03887290973216
sg24
I1
sg35
g39
sg14
F125.99112485861406
sg16
g36
(g70
S'\x01\x00\x00\x00'
tRp284
sg42
g43
sg46
g47
sg15
g72
sg22
F129.84014341048896
sg64
g137
sg62
g89
sg49
g50
sS'trials.thisN'
p285
I18
sg19
I1
sg27
g36
(g38
S'\x00\x00\x00\x00\x00\x00\x18@'
tRp286
sg52
g53
sg23
S'1'
sg18
F127.26380711700767
sg33
g34
sg51
g11
sg20
S'1'
sg65
g36
(g77
S'\x00\x00\x00\x00\x00\x00\x00\x00'
tRp287
sg44
g45
sg40
g41
sg25
F0.42112957034260035
sS'trials.thisIndex'
p288
g36
(g80
S'&\x00\x00\x00'
tRp289
sg26
V5
sS'trials.thisRepN'
p290
I0
sg66
Vhen
p291
sg63
V../experiment_stimuli/bw_bc_bl/Living_Things/Birds/hen_23.jpg
p292
sg21
F2.5557817699154839
sS'trials.thisTrialN'
p293
I18
sa(dp294
g31
g32
sg17
F132.01816000870895
sg24
I0
sg35
g39
sg14
F131.99419557792135
sg16
g36
(g70
S'\x01\x00\x00\x00'
tRp295
sg42
g43
sg46
g47
sg15
g124
sg22
F135.98351947986521
sg64
g194
sg62
g74
sg49
g50
sS'trials.thisN'
p296
I19
sg19
I0
sg27
g36
(g38
S'\x00\x00\x00\x00\x00\x00\x18@'
tRp297
sg52
g53
sg23
S'2'
sg18
F133.25684770371299
sg33
g34
sg51
g11
sg20
S'2'
sg65
g36
(g77
S'\x00\x00\x00\x00\x00\x00\x00\x00'
tRp298
sg44
g45
sg40
g41
sg25
F0.84204860590398312
sS'trials.thisIndex'
p299
g36
(g80
S'\x19\x00\x00\x00'
tRp300
sg26
V5
sS'trials.thisRepN'
p301
I0
sg66
Vdrum
p302
sg63
V../experiment_stimuli/bw_bc_bl/Nonliving_Things/Musical_Inst/drum_2.jpg
p303
sg21
F2.7060959634836763
sS'trials.thisTrialN'
p304
I19
sa(dp305
g31
g32
sg17
F138.58286557148676
sg24
I0
sg35
g39
sg14
F138.55849295342341
sg16
g36
(g70
S'\x01\x00\x00\x00'
tRp306
sg42
g43
sg46
g47
sg15
g72
sg22
F142.13695915578865
sg64
g137
sg62
g89
sg49
g50
sS'trials.thisN'
p307
I20
sg19
I1
sg27
g36
(g38
S'\x00\x00\x00\x00\x00\x00\x18@'
tRp308
sg52
g53
sg23
S'2'
sg18
F139.81112615647726
sg33
g34
sg51
g11
sg20
S'1'
sg65
g36
(g77
S'\x00\x00\x00\x00\x00\x00\x00\x00'
tRp309
sg44
g45
sg40
g41
sg25
F0.51132642908487469
sS'trials.thisIndex'
p310
g36
(g80
S'8\x00\x00\x00'
tRp311
sg26
V5
sS'trials.thisRepN'
p312
I0
sg66
Vostrich
p313
sg63
V../experiment_stimuli/bw_bc_bl/Living_Things/Birds/ostrich_6.jpg
p314
sg21
F2.3052675281651318
sS'trials.thisTrialN'
p315
I20
sa(dp316
g31
g32
sg17
F144.41857103968505
sg24
I1
sg35
g39
sg14
F144.38117817812599
sg16
g36
(g70
S'\x01\x00\x00\x00'
tRp317
sg42
g43
sg46
g47
sg15
g72
sg22
F150.40493848721962
sg64
g137
sg62
g89
sg49
g50
sS'trials.thisN'
p318
I21
sg19
I0
sg27
g36
(g38
S'\x00\x00\x00\x00\x00\x00\x1a@'
tRp319
sg52
g53
sg23
S'1'
sg18
F145.64383225841448
sg33
g34
sg51
g11
sg20
S'2'
sg65
g36
(g77
S'\x00\x00\x00\x00\x00\x00\x00\x00'
tRp320
sg44
g45
sg40
g41
sg25
F1.042486501741223
sS'trials.thisIndex'
p321
g36
(g80
S'*\x00\x00\x00'
tRp322
sg26
V5
sS'trials.thisRepN'
p323
I0
sg66
Vhummingbird
p324
sg63
V../experiment_stimuli/bw_bc_bl/Living_Things/Birds/hummingbird_9.jpg
p325
sg21
F4.7405412050429732
sS'trials.thisTrialN'
p326
I21
sa(dp327
g31
g32
sg17
F153.20239253714681
sg24
I1
sg35
g39
sg14
F153.18033805966843
sg16
g36
(g70
S'\x01\x00\x00\x00'
tRp328
sg42
g43
sg46
g47
sg15
g72
sg22
F157.22981150005944
sg64
g88
sg62
g89
sg49
g50
sS'trials.thisN'
p329
I22
sg19
I0
sg27
g36
(g38
S'\x00\x00\x00\x00\x00\x00\x18@'
tRp330
sg52
g53
sg23
S'1'
sg18
F154.4329620602075
sg33
g34
sg51
g11
sg20
S'2'
sg65
g36
(g77
S'\x00\x00\x00\x00\x00\x00\x00\x00'
tRp331
sg44
g45
sg40
g41
sg25
F0.79194839578121901
sS'trials.thisIndex'
p332
g36
(g80
S'K\x00\x00\x00'
tRp333
sg26
V5
sS'trials.thisRepN'
p334
I0
sg66
Vshark
p335
sg63
V../experiment_stimuli/bw_bc_bl/Living_Things/Marine_creatures/shark_9.jpg
p336
sg21
F2.7762833560118452
sS'trials.thisTrialN'
p337
I22
sa(dp338
g31
g32
sg17
F159.78242093534209
sg24
I0
sg35
g39
sg14
F159.75465671473648
sg16
g36
(g70
S'\x01\x00\x00\x00'
tRp339
sg42
g43
sg46
g47
sg15
g72
sg22
F163.60366503754631
sg64
g137
sg62
g89
sg49
g50
sS'trials.thisN'
p340
I23
sg19
I1
sg27
g36
(g38
S'\x00\x00\x00\x00\x00\x00 @'
tRp341
sg52
g53
sg23
S'3'
sg18
F161.03734323789831
sg33
g34
sg51
g11
sg20
S'1'
sg65
g36
(g77
S'\x00\x00\x00\x00\x00\x00\x00\x00'
tRp342
sg44
g45
sg40
g41
sg25
F0.67167916882317513
sS'trials.thisIndex'
p343
g36
(g80
S'J\x00\x00\x00'
tRp344
sg26
V5
sS'trials.thisRepN'
p345
I0
sg66
Vseagull
p346
sg63
V../experiment_stimuli/bw_bc_bl/Living_Things/Birds/seagull_0.jpg
p347
sg21
F2.5457609975710511
sS'trials.thisTrialN'
p348
I23
sa(dp349
g31
g32
sg17
F166.06418336078059
sg24
I1
sg35
g39
sg14
F166.00826427713037
sg16
g36
(g70
S'\x02\x00\x00\x00'
tRp350
sg42
g43
sg46
g47
sg15
g124
sg22
F170.04770186997484
sg64
g112
sg62
g89
sg49
g50
sS'trials.thisN'
p351
I24
sg19
I1
sg27
g36
(g38
S'\x00\x00\x00\x00\x00\x00\x1e@'
tRp352
sg52
g53
sg23
S'1'
sg18
F167.29096563835628
sg33
g34
sg51
g11
sg20
S'2'
sg65
g36
(g77
S'\x00\x00\x00\x00\x00\x00\x00\x00'
tRp353
sg44
g45
sg40
g41
sg25
F1.3531660144217312
sS'trials.thisIndex'
p354
g36
(g80
S'(\x00\x00\x00'
tRp355
sg26
V5
sS'trials.thisRepN'
p356
I0
sg66
Vhorse
p357
sg63
V../experiment_stimuli/bw_bc_bl/Living_Things/Animals/horse_14.jpg
p358
sg21
F2.7361779973143712
sS'trials.thisTrialN'
p359
I24
sa(dp360
g31
g32
sg17
F173.16827083274256
sg24
I0
sg35
g39
sg14
F173.13378587225452
sg16
g36
(g70
S'\x02\x00\x00\x00'
tRp361
sg42
g43
sg46
g47
sg15
g124
sg22
F180.90136252634693
sg64
g137
sg62
g89
sg49
g50
sS'trials.thisN'
p362
I25
sg19
I0
sg27
g36
(g38
S'\x00\x00\x00\x00\x00\x00 @'
tRp363
sg52
g53
sg23
S'2'
sg18
F174.4164800234139
sg33
g34
sg51
g11
sg20
S'1'
sg65
g36
(g77
S'\x00\x00\x00\x00\x00\x00\x00\x00'
tRp364
sg44
g45
sg40
g41
sg25
F0.65163518511690199
sS'trials.thisIndex'
p365
g36
(g80
S'<\x00\x00\x00'
tRp366
sg26
V5
sS'trials.thisRepN'
p367
I0
sg66
Vpelican
p368
sg63
V../experiment_stimuli/bw_bc_bl/Living_Things/Birds/pelican_6.jpg
p369
sg21
F6.4643043781397864
sS'trials.thisTrialN'
p370
I25
sa(dp371
g31
g32
sg17
F183.30811800598167
sg24
I0
sg35
g39
sg14
F183.28588718059473
sg16
g36
(g70
S'\x02\x00\x00\x00'
tRp372
sg42
g43
sg46
g47
sg15
g124
sg22
F186.54365650808904
sg64
g88
sg62
g89
sg49
g50
sS'trials.thisN'
p373
I26
sg19
I0
sg27
g36
(g38
S'\x00\x00\x00\x00\x00\x00\x1e@'
tRp374
sg52
g53
sg23
S'2'
sg18
F184.53852035384625
sg33
g34
sg51
g11
sg20
S'1'
sg65
g36
(g77
S'\x00\x00\x00\x00\x00\x00\x00\x00'
tRp375
sg44
g45
sg40
g41
sg25
F0.48126561648678035
sS'trials.thisIndex'
p376
g36
(g80
S'4\x00\x00\x00'
tRp377
sg26
V5
sS'trials.thisRepN'
p378
I0
sg66
Vmanatee
p379
sg63
V../experiment_stimuli/bw_bc_bl/Living_Things/Marine_creatures/manatee_4.jpg
p380
sg21
F1.9745365882990882
sS'trials.thisTrialN'
p381
I26
sa(dp382
g31
g32
sg17
F188.78328361746389
sg24
I1
sg35
g39
sg14
F188.75780998868868
sg16
g36
(g70
S'\x02\x00\x00\x00'
tRp383
sg42
g43
sg46
g47
sg15
g72
sg22
F192.75715630548075
sg64
g194
sg62
g74
sg49
g50
sS'trials.thisN'
p384
I27
sg19
I0
sg27
g36
(g38
S'\x00\x00\x00\x00\x00\x00\x1a@'
tRp385
sg52
g53
sg23
S'1'
sg18
F190.01043839880731
sg33
g34
sg51
g11
sg20
S'1'
sg65
g36
(g77
S'\x00\x00\x00\x00\x00\x00\x00\x00'
tRp386
sg44
g45
sg40
g41
sg25
F0.62156292167492211
sS'trials.thisIndex'
p387
g36
(g80
S'>\x00\x00\x00'
tRp388
sg26
V5
sS'trials.thisRepN'
p389
I0
sg66
Vpiano
p390
sg63
V../experiment_stimuli/bw_bc_bl/Nonliving_Things/Musical_Inst/piano__23.jpg
p391
sg21
F2.7161352051189169
sS'trials.thisTrialN'
p392
I27
sa(dp393
g31
g32
sg17
F195.14800317795016
sg24
I0
sg35
g39
sg14
F195.11165017343592
sg16
g36
(g70
S'\x02\x00\x00\x00'
tRp394
sg42
g43
sg46
g47
sg15
g72
sg22
F201.55631324753631
sg64
g194
sg62
g74
sg49
g50
sS'trials.thisN'
p395
I28
sg19
I1
sg27
g36
(g38
S'\x00\x00\x00\x00\x00\x00\x1c@'
tRp396
sg52
g53
sg23
S'2'
sg18
F196.40436274325475
sg33
g34
sg51
g11
sg20
S'2'
sg65
g36
(g77
S'\x00\x00\x00\x00\x00\x00\x00\x00'
tRp397
sg44
g45
sg40
g41
sg25
F0.64161503314971924
sS'trials.thisIndex'
p398
g36
(g80
S'H\x00\x00\x00'
tRp399
sg26
V5
sS'trials.thisRepN'
p400
I0
sg66
Vsaxophone
p401
sg63
V../experiment_stimuli/bw_bc_bl/Nonliving_Things/Musical_Inst/saxophone_17.jpg
p402
sg21
F5.1313892590114847
sS'trials.thisTrialN'
p403
I28
sa(dp404
g31
g32
sg17
F203.96616633655503
sg24
I0
sg35
g39
sg14
F203.93084746412933
sg16
g36
(g70
S'\x02\x00\x00\x00'
tRp405
sg42
g43
sg46
g47
sg15
g72
sg22
F208.20081540790852
sg64
g125
sg62
g74
sg49
g50
sS'trials.thisN'
p406
I29
sg19
I0
sg27
g36
(g38
S'\x00\x00\x00\x00\x00\x00\x18@'
tRp407
sg52
g53
sg23
S'2'
sg18
F205.21354668261483
sg33
g34
sg51
g11
sg20
S'1'
sg65
g36
(g77
S'\x00\x00\x00\x00\x00\x00\x00\x00'
tRp408
sg44
g45
sg40
g41
sg25
F0.51132130087353289
sS'trials.thisIndex'
p409
g36
(g80
S'6\x00\x00\x00'
tRp410
sg26
V5
sS'trials.thisRepN'
p411
I0
sg66
Vmotorbike
p412
sg63
V../experiment_stimuli/bw_bc_bl/Nonliving_Things/Vehicles/motorbike_24.jpg
p413
sg21
F2.9667009689146653
sS'trials.thisTrialN'
p414
I29
sa(dp415
g31
g32
sg17
F210.48307286028285
sg24
I0
sg35
g39
sg14
F210.44503911444917
sg16
g36
(g70
S'\x01\x00\x00\x00'
tRp416
sg42
g43
sg46
g47
sg15
g72
sg22
F213.87316536414437
sg64
g112
sg62
g89
sg49
g50
sS'trials.thisN'
p417
I30
sg19
I0
sg27
g36
(g38
S'\x00\x00\x00\x00\x00\x00\x18@'
tRp418
sg52
g53
sg23
S'2'
sg18
F211.71771036577411
sg33
g34
sg51
g11
sg20
S'2'
sg65
g36
(g77
S'\x00\x00\x00\x00\x00\x00\x00\x00'
tRp419
sg44
g45
sg40
g41
sg25
F0.63159220840316266
sS'trials.thisIndex'
p420
g36
(g80
S'\x1b\x00\x00\x00'
tRp421
sg26
V5
sS'trials.thisRepN'
p422
I0
sg66
Velephant
p423
sg63
V../experiment_stimuli/bw_bc_bl/Living_Things/Animals/elephant_0.jpg
p424
sg21
F2.1348722229013219
sS'trials.thisTrialN'
p425
I30
sa(dp426
g31
g32
sg17
F216.26386770035606
sg24
I1
sg35
g39
sg14
F216.23765810963232
sg16
g36
(g70
S'\x01\x00\x00\x00'
tRp427
sg42
g43
sg46
g47
sg15
g124
sg22
F218.90412153245416
sg64
g73
sg62
g74
sg49
g50
sS'trials.thisN'
p428
I31
sg19
I1
sg27
g36
(g38
S'\x00\x00\x00\x00\x00\x00\x18@'
tRp429
sg52
g53
sg23
S'1'
sg18
F217.49028251576237
sg33
g34
sg51
g11
sg20
S'1'
sg65
g36
(g77
S'\x00\x00\x00\x00\x00\x00\x00\x00'
tRp430
sg44
g45
sg40
g41
sg25
F1.1627507399534807
sS'trials.thisIndex'
p431
g36
(g80
S'\x1d\x00\x00\x00'
tRp432
sg26
V5
sS'trials.thisRepN'
p433
I0
sg66
Vfilling-cabinet
p434
sg63
V../experiment_stimuli/bw_bc_bl/Nonliving_Things/Furniture/filling-cabinet_12.jpg
p435
sg21
F1.3932564107235521
sS'trials.thisTrialN'
p436
I31
sa(dp437
g31
g32
sg17
F221.82509862049483
sg24
I0
sg35
g39
sg14
F221.79976695263758
sg16
g36
(g70
S'\x02\x00\x00\x00'
tRp438
sg42
g43
sg46
g47
sg15
g124
sg22
F230.17868236708455
sg64
g88
sg62
g89
sg49
g50
sS'trials.thisN'
p439
I32
sg19
I0
sg27
g36
(g38
S'\x00\x00\x00\x00\x00\x00\x1e@'
tRp440
sg52
g53
sg23
S'2'
sg18
F223.06242750305682
sg33
g34
sg51
g11
sg20
S'1'
sg65
g36
(g77
S'\x00\x00\x00\x00\x00\x00\x00\x00'
tRp441
sg44
g45
sg40
g41
sg25
F0.59150011639576405
sS'trials.thisIndex'
p442
g36
(g80
S'1\x00\x00\x00'
tRp443
sg26
V5
sS'trials.thisRepN'
p444
I0
sg66
Vlobster
p445
sg63
V../experiment_stimuli/bw_bc_bl/Living_Things/Marine_creatures/lobster_18.jpg
p446
sg21
F7.0956916187424213
sS'trials.thisTrialN'
p447
I32
sa(dp448
g31
g32
sg17
F232.5099192179041
sg24
I1
sg35
g39
sg14
F232.50307132140733
sg16
g36
(g70
S'\x01\x00\x00\x00'
tRp449
sg42
g43
sg46
g47
sg15
g124
sg22
F236.20179804798681
sg64
g73
sg62
g74
sg49
g50
sS'trials.thisN'
p450
I33
sg19
I1
sg27
g36
(g38
S'\x00\x00\x00\x00\x00\x00\x18@'
tRp451
sg52
g53
sg23
S'1'
sg18
F233.73566211597063
sg33
g34
sg51
g11
sg20
S'1'
sg65
g36
(g77
S'\x00\x00\x00\x00\x00\x00\x00\x00'
tRp452
sg44
g45
sg40
g41
sg25
F0.52137121942359954
sS'trials.thisIndex'
p453
g36
(g80
S'\x00\x00\x00\x00'
tRp454
sg26
V5
sS'trials.thisRepN'
p455
I0
sg66
VChest-of-drawers
p456
sg63
V../experiment_stimuli/bw_bc_bl/Nonliving_Things/Furniture/Chest-of-drawers_1.jpg
p457
sg21
F2.4455617509083822
sS'trials.thisTrialN'
p458
I33
sa(dp459
g31
g32
sg17
F238.48996276734397
sg24
I0
sg35
g39
sg14
F238.45604202279355
sg16
g36
(g70
S'\x02\x00\x00\x00'
tRp460
sg42
g43
sg46
g47
sg15
g124
sg22
F243.39743549539708
sg64
g112
sg62
g89
sg49
g50
sS'trials.thisN'
p461
I34
sg19
I1
sg27
g36
(g38
S'\x00\x00\x00\x00\x00\x00\x18@'
tRp462
sg52
g53
sg23
S'2'
sg18
F239.73872797458898
sg33
g34
sg51
g11
sg20
S'2'
sg65
g36
(g77
S'\x00\x00\x00\x00\x00\x00\x00\x00'
tRp463
sg44
g45
sg40
g41
sg25
F0.59150237194262445
sS'trials.thisIndex'
p464
g36
(g80
S'D\x00\x00\x00'
tRp465
sg26
V5
sS'trials.thisRepN'
p466
I0
sg66
Vrhino
p467
sg63
V../experiment_stimuli/bw_bc_bl/Living_Things/Animals/rhino_14.jpg
p468
sg21
F3.6381403808481991
sS'trials.thisTrialN'
p469
I34
sa(dp470
g31
g32
sg17
F245.75553348264657
sg24
I0
sg35
g39
sg14
F245.7218585134251
sg16
g36
(g70
S'\x02\x00\x00\x00'
tRp471
sg42
g43
sg46
g47
sg15
g72
sg22
F248.97965468245093
sg64
VKitchen_Uten
p472
sg62
g74
sg49
g50
sS'trials.thisN'
p473
I35
sg19
I0
sg27
g36
(g38
S'\x00\x00\x00\x00\x00\x00\x1a@'
tRp474
sg52
g53
sg23
S'3'
sg18
F246.99453236581758
sg33
g34
sg51
g11
sg20
S'1'
sg65
g36
(g77
S'\x00\x00\x00\x00\x00\x00\x00\x00'
tRp475
sg44
g45
sg40
g41
sg25
F0.53121439542155713
sS'trials.thisIndex'
p476
g36
(g80
S'\x12\x00\x00\x00'
tRp477
sg26
V5
sS'trials.thisRepN'
p478
I0
sg66
Vcoking-pot
p479
sg63
V../experiment_stimuli/bw_bc_bl/Nonliving_Things/Kitchen_Uten/coking-pot_18.jpg
p480
sg21
F1.9644998202566057
sS'trials.thisTrialN'
p481
I35
sa(dp482
g31
g32
sg17
F251.27160200069193
sg24
I1
sg35
g39
sg14
F251.24388628324959
sg16
g36
(g70
S'\x01\x00\x00\x00'
tRp483
sg42
g43
sg46
g47
sg15
g124
sg22
F254.51165073271841
sg64
g194
sg62
g74
sg49
g50
sS'trials.thisN'
p484
I36
sg19
I1
sg27
g36
(g38
S'\x00\x00\x00\x00\x00\x00\x18@'
tRp485
sg52
g53
sg23
S'1'
sg18
F252.49651552038267
sg33
g34
sg51
g11
sg20
S'1'
sg65
g36
(g77
S'\x00\x00\x00\x00\x00\x00\x00\x00'
tRp486
sg44
g45
sg40
g41
sg25
F0.31088620563969016
sS'trials.thisIndex'
p487
g36
(g80
S'Y\x00\x00\x00'
tRp488
sg26
V5
sS'trials.thisRepN'
p489
I0
sg66
Vtuba
p490
sg63
V../experiment_stimuli/bw_bc_bl/Nonliving_Things/Musical_Inst/tuba_24.jpg
p491
sg21
F1.9945633014431223
sS'trials.thisTrialN'
p492
I36
sa(dp493
g31
g32
sg17
F256.57482403411996
sg24
I0
sg35
g39
sg14
F256.55544860311784
sg16
g36
(g70
S'\x01\x00\x00\x00'
tRp494
sg42
g43
sg46
g47
sg15
g124
sg22
F261.1461035348475
sg64
g472
sg62
g74
sg49
g50
sS'trials.thisN'
p495
I37
sg19
I0
sg27
g36
(g38
S'\x00\x00\x00\x00\x00\x00\x18@'
tRp496
sg52
g53
sg23
S'3'
sg18
F257.82812936161645
sg33
g34
sg51
g11
sg20
S'2'
sg65
g36
(g77
S'\x00\x00\x00\x00\x00\x00\x00\x00'
tRp497
sg44
g45
sg40
g41
sg25
F0.65174342808313668
sS'trials.thisIndex'
p498
g36
(g80
S'G\x00\x00\x00'
tRp499
sg26
V5
sS'trials.thisRepN'
p500
I0
sg66
Vsaucepan
p501
sg63
V../experiment_stimuli/bw_bc_bl/Nonliving_Things/Kitchen_Uten/saucepan_22.jpg
p502
sg21
F3.2973983942065388
sS'trials.thisTrialN'
p503
I37
sa(dp504
g31
g32
sg17
F263.5704648141982
sg24
I0
sg35
g39
sg14
F263.53066370787565
sg16
g36
(g70
S'\x02\x00\x00\x00'
tRp505
sg42
g43
sg46
g47
sg15
g72
sg22
F267.0589851179393
sg64
g472
sg62
g74
sg49
g50
sS'trials.thisN'
p506
I38
sg19
I1
sg27
g36
(g38
S'\x00\x00\x00\x00\x00\x00\x18@'
tRp507
sg52
g53
sg23
S'2'
sg18
F264.79329792759381
sg33
g34
sg51
g11
sg20
S'2'
sg65
g36
(g77
S'\x00\x00\x00\x00\x00\x00\x00\x00'
tRp508
sg44
g45
sg40
g41
sg25
F0.54139826749451458
sS'trials.thisIndex'
p509
g36
(g80
S'\x16\x00\x00\x00'
tRp510
sg26
V5
sS'trials.thisRepN'
p511
I0
sg66
Vcup
p512
sg63
V../experiment_stimuli/bw_bc_bl/Nonliving_Things/Kitchen_Uten/cup_7.jpg
p513
sg21
F2.2451150693232194
sS'trials.thisTrialN'
p514
I38
sa(dp515
g31
g32
sg17
F269.35339254466817
sg24
I0
sg35
g39
sg14
F269.33327851642389
sg16
g36
(g70
S'\x02\x00\x00\x00'
tRp516
sg42
g43
sg46
g47
sg15
g72
sg22
F273.493009941536
sg64
g125
sg62
g74
sg49
g50
sS'trials.thisN'
p517
I39
sg19
I0
sg27
g36
(g38
S'\x00\x00\x00\x00\x00\x00\x1e@'
tRp518
sg52
g53
sg23
S'2'
sg18
F270.57589542854112
sg33
g34
sg51
g11
sg20
S'1'
sg65
g36
(g77
S'\x00\x00\x00\x00\x00\x00\x00\x00'
tRp519
sg44
g45
sg40
g41
sg25
F0.4311640530359
sS'trials.thisIndex'
p520
g36
(g80
S'@\x00\x00\x00'
tRp521
sg26
V5
sS'trials.thisRepN'
p522
I0
sg66
Vplane
p523
sg63
V../experiment_stimuli/bw_bc_bl/Nonliving_Things/Vehicles/plane_24.jpg
p524
sg21
F2.8965530721470714
sS'trials.thisTrialN'
p525
I39
sa(dp526
g31
g32
sg17
F275.69140881299973
sg24
I1
sg35
g39
sg14
F275.6570490882732
sg16
g36
(g70
S'\x02\x00\x00\x00'
tRp527
sg42
g43
sg46
g47
sg15
g72
sg22
F279.33571298874449
sg64
g125
sg62
g74
sg49
g50
sS'trials.thisN'
p528
I40
sg19
I0
sg27
g36
(g38
S'\x00\x00\x00\x00\x00\x00 @'
tRp529
sg52
g53
sg23
S'1'
sg18
F276.91970171383582
sg33
g34
sg51
g11
sg20
S'1'
sg65
g36
(g77
S'\x00\x00\x00\x00\x00\x00\x00\x00'
tRp530
sg44
g45
sg40
g41
sg25
F0.34096181893255562
sS'trials.thisIndex'
p531
g36
(g80
S'L\x00\x00\x00'
tRp532
sg26
V5
sS'trials.thisRepN'
p533
I0
sg66
Vship
p534
sg63
V../experiment_stimuli/bw_bc_bl/Nonliving_Things/Vehicles/ship_13.jpg
p535
sg21
F2.3854137614835054
sS'trials.thisTrialN'
p536
I40
sa(dp537
g31
g32
sg17
F281.45586061454378
sg24
I0
sg35
g39
sg14
F281.40957132959738
sg16
g36
(g70
S'\x02\x00\x00\x00'
tRp538
sg42
g43
sg46
g47
sg15
g72
sg22
F285.48909993190318
sg64
g73
sg62
g74
sg49
g50
sS'trials.thisN'
p539
I41
sg19
I0
sg27
g36
(g38
S'\x00\x00\x00\x00\x00\x00\x1e@'
tRp540
sg52
g53
sg23
S'2'
sg18
F282.70230335753877
sg33
g34
sg51
g11
sg20
S'1'
sg65
g36
(g77
S'\x00\x00\x00\x00\x00\x00\x00\x00'
tRp541
sg44
g45
sg40
g41
sg25
F0.47123984817881137
sS'trials.thisIndex'
p542
g36
(g80
S'N\x00\x00\x00'
tRp543
sg26
V5
sS'trials.thisRepN'
p544
I0
sg66
Vsofa
p545
sg63
V../experiment_stimuli/bw_bc_bl/Nonliving_Things/Furniture/sofa_6.jpg
p546
sg21
F2.7662430804921314
sS'trials.thisTrialN'
p547
I41
sa(dp548
g31
g32
sg17
F287.72651532420423
sg24
I0
sg35
g39
sg14
F287.6932562001748
sg16
g36
(g70
S'\x02\x00\x00\x00'
tRp549
sg42
g43
sg46
g47
sg15
g124
sg22
F293.67693304154091
sg64
g182
sg62
g89
sg49
g50
sS'trials.thisN'
p550
I42
sg19
I0
sg27
g36
(g38
S'\x00\x00\x00\x00\x00\x00\x18@'
tRp551
sg52
g53
sg23
S'2'
sg18
F288.95591769798193
sg33
g34
sg51
g11
sg20
S'1'
sg65
g36
(g77
S'\x00\x00\x00\x00\x00\x00\x00\x00'
tRp552
sg44
g45
sg40
g41
sg25
F0.44118180614896119
sS'trials.thisIndex'
p553
g36
(g80
S'\n\x00\x00\x00'
tRp554
sg26
V5
sS'trials.thisRepN'
p555
I0
sg66
Vbutterfly
p556
sg63
V../experiment_stimuli/bw_bc_bl/Living_Things/Insects/butterfly_26.jpg
p557
sg21
F4.7004571473225951
sS'trials.thisTrialN'
p558
I42
sa(dp559
g31
g32
sg17
F295.88615108293016
sg24
I0
sg35
g39
sg14
F295.85102569323499
sg16
g36
(g70
S'\x02\x00\x00\x00'
tRp560
sg42
g43
sg46
g47
sg15
g72
sg22
F300.62210137117654
sg64
g73
sg62
g74
sg49
g50
sS'trials.thisN'
p561
I43
sg19
I0
sg27
g36
(g38
S'\x00\x00\x00\x00\x00\x00\x1a@'
tRp562
sg52
g53
sg23
S'3'
sg18
F297.11367766465992
sg33
g34
sg51
g11
sg20
S'1'
sg65
g36
(g77
S'\x00\x00\x00\x00\x00\x00\x00\x00'
tRp563
sg44
g45
sg40
g41
sg25
F1.4031235529109836
sS'trials.thisIndex'
p564
g36
(g80
S'\x0f\x00\x00\x00'
tRp565
sg26
V5
sS'trials.thisRepN'
p566
I0
sg66
Vchair
p567
sg63
V../experiment_stimuli/bw_bc_bl/Nonliving_Things/Furniture/chair_12.jpg
p568
sg21
F3.4878432844998315
sS'trials.thisTrialN'
p569
I43
sa(dp570
g31
g32
sg17
F303.79330535407644
sg24
I0
sg35
g39
sg14
F303.75824367406312
sg16
g36
(g70
S'\x02\x00\x00\x00'
tRp571
sg42
g43
sg46
g47
sg15
g72
sg22
F307.6673875991255
sg64
g125
sg62
g74
sg49
g50
sS'trials.thisN'
p572
I44
sg19
I1
sg27
g36
(g38
S'\x00\x00\x00\x00\x00\x00\x18@'
tRp573
sg52
g53
sg23
S'2'
sg18
F305.02089536737185
sg33
g34
sg51
g11
sg20
S'2'
sg65
g36
(g77
S'\x00\x00\x00\x00\x00\x00\x00\x00'
tRp574
sg44
g45
sg40
g41
sg25
F1.1026174309663475
sS'trials.thisIndex'
p575
g36
(g80
S'V\x00\x00\x00'
tRp576
sg26
V5
sS'trials.thisRepN'
p577
I0
sg66
Vtractor
p578
sg63
V../experiment_stimuli/bw_bc_bl/Nonliving_Things/Vehicles/tractor_0.jpg
p579
sg21
F2.6259374750079587
sS'trials.thisTrialN'
p580
I44
sa(dp581
g31
g32
sg17
F310.55301201785915
sg24
I0
sg35
g39
sg14
F310.50293264945503
sg16
g36
(g70
S'\x01\x00\x00\x00'
tRp582
sg42
g43
sg46
g47
sg15
g72
sg22
F313.70053907041438
sg64
g137
sg62
g89
sg49
g50
sS'trials.thisN'
p583
I45
sg19
I0
sg27
g36
(g38
S'\x00\x00\x00\x00\x00\x00\x1a@'
tRp584
sg52
g53
sg23
S'2'
sg18
F311.77560717135202
sg33
g34
sg51
g11
sg20
S'2'
sg65
g36
(g77
S'\x00\x00\x00\x00\x00\x00\x00\x00'
tRp585
sg44
g45
sg40
g41
sg25
F0.33093865227419883
sS'trials.thisIndex'
p586
g36
(g80
S';\x00\x00\x00'
tRp587
sg26
V5
sS'trials.thisRepN'
p588
I0
sg66
Vpartridge
p589
sg63
V../experiment_stimuli/bw_bc_bl/Living_Things/Birds/partridge_10.jpg
p590
sg21
F1.9043672968400642
sS'trials.thisTrialN'
p591
I45
sa(dp592
g31
g32
sg17
F315.79880877723917
sg24
I1
sg35
g39
sg14
F315.7643971843645
sg16
g36
(g70
S'\x01\x00\x00\x00'
tRp593
sg42
g43
sg46
g47
sg15
g72
sg22
F320.30493917677086
sg64
g88
sg62
g89
sg49
g50
sS'trials.thisN'
p594
I46
sg19
I1
sg27
g36
(g38
S'\x00\x00\x00\x00\x00\x00\x1a@'
tRp595
sg52
g53
sg23
S'1'
sg18
F317.02704681758769
sg33
g34
sg51
g11
sg20
S'1'
sg65
g36
(g77
S'\x00\x00\x00\x00\x00\x00\x00\x00'
tRp596
sg44
g45
sg40
g41
sg25
F0.31091842730529606
sS'trials.thisIndex'
p597
g36
(g80
S'\x17\x00\x00\x00'
tRp598
sg26
V5
sS'trials.thisRepN'
p599
I0
sg66
Vdolphin
p600
sg63
V../experiment_stimuli/bw_bc_bl/Living_Things/Marine_creatures/dolphin_0.jpg
p601
sg21
F3.2573370611062273
sS'trials.thisTrialN'
p602
I46
sa(dp603
g31
g32
sg17
F322.38063729146961
sg24
I0
sg35
g39
sg14
F322.34872592729516
sg16
g36
(g70
S'\x02\x00\x00\x00'
tRp604
sg42
g43
sg46
g47
sg15
g72
sg22
F328.86356203327887
sg64
g73
sg62
g74
sg49
g50
sS'trials.thisN'
p605
I47
sg19
I1
sg27
g36
(g38
S'\x00\x00\x00\x00\x00\x00\x18@'
tRp606
sg52
g53
sg23
S'2'
sg18
F323.61138138757087
sg33
g34
sg51
g11
sg20
S'2'
sg65
g36
(g77
S'\x00\x00\x00\x00\x00\x00\x00\x00'
tRp607
sg44
g45
sg40
g41
sg25
F0.48125493247061968
sS'trials.thisIndex'
p608
g36
(g80
S'.\x00\x00\x00'
tRp609
sg26
V5
sS'trials.thisRepN'
p610
I0
sg66
Vlamp
p611
sg63
V../experiment_stimuli/bw_bc_bl/Nonliving_Things/Furniture/lamp_15.jpg
p612
sg21
F5.2316075133858249
sS'trials.thisTrialN'
p613
I47
sa(dp614
g31
g32
sg17
F331.10954334505368
sg24
I0
sg35
g39
sg14
F331.07775208854582
sg16
g36
(g70
S'\x01\x00\x00\x00'
tRp615
sg42
g43
sg46
g47
sg15
g124
sg22
F335.11718129843939
sg64
g273
sg62
g74
sg49
g50
sS'trials.thisN'
p616
I48
sg19
I1
sg27
g36
(g38
S'\x00\x00\x00\x00\x00\x00\x1a@'
tRp617
sg52
g53
sg23
S'2'
sg18
F332.33037753612734
sg33
g34
sg51
g11
sg20
S'1'
sg65
g36
(g77
S'\x00\x00\x00\x00\x00\x00\x00\x00'
tRp618
sg44
g45
sg40
g41
sg25
F0.87211766617838293
sS'trials.thisIndex'
p619
g36
(g80
S'\x03\x00\x00\x00'
tRp620
sg26
V5
sS'trials.thisRepN'
p621
I0
sg66
Vaxe
p622
sg63
V../experiment_stimuli/bw_bc_bl/Nonliving_Things/Tools/axe_4.jpg
p623
sg21
F2.7662454488454387
sS'trials.thisTrialN'
p624
I48
sa(dp625
g31
g32
sg17
F337.74944919394329
sg24
I1
sg35
g39
sg14
F337.7222077610204
sg16
g36
(g70
S'\x01\x00\x00\x00'
tRp626
sg42
g43
sg46
g47
sg15
g124
sg22
F340.34857258456759
sg64
g125
sg62
g74
sg49
g50
sS'trials.thisN'
p627
I49
sg19
I1
sg27
g36
(g38
S'\x00\x00\x00\x00\x00\x00\x1a@'
tRp628
sg52
g53
sg23
S'1'
sg18
F338.97483858058695
sg33
g34
sg51
g11
sg20
S'1'
sg65
g36
(g77
S'\x00\x00\x00\x00\x00\x00\x00\x00'
tRp629
sg44
g45
sg40
g41
sg25
F0.22069226857274771
sS'trials.thisIndex'
p630
g36
(g80
S'[\x00\x00\x00'
tRp631
sg26
V5
sS'trials.thisRepN'
p632
I0
sg66
Vvan
p633
sg63
V../experiment_stimuli/bw_bc_bl/Nonliving_Things/Vehicles/van_4.jpg
p634
sg21
F1.3531700328458101
sS'trials.thisTrialN'
p635
I49
sa(dp636
g31
g32
sg17
F342.33366454823408
sg24
I0
sg35
g39
sg14
F342.30217971734237
sg16
g36
(g70
S'\x01\x00\x00\x00'
tRp637
sg42
g43
sg46
g47
sg15
g72
sg22
F344.63775744615123
sg64
g137
sg62
g89
sg49
g50
sS'trials.thisN'
p638
I50
sg19
I1
sg27
g36
(g38
S'\x00\x00\x00\x00\x00\x00 @'
tRp639
sg52
g53
sg23
S'3'
sg18
F343.56483200460207
sg33
g34
sg51
g11
sg20
S'1'
sg65
g36
(g77
S'\x00\x00\x00\x00\x00\x00\x00\x00'
tRp640
sg44
g45
sg40
g41
sg25
F0.32091281621251255
sS'trials.thisIndex'
p641
g36
(g80
S'3\x00\x00\x00'
tRp642
sg26
V5
sS'trials.thisRepN'
p643
I0
sg66
Vmagpie
p644
sg63
V../experiment_stimuli/bw_bc_bl/Living_Things/Birds/magpie_4.jpg
p645
sg21
F1.0523545350879431
sS'trials.thisTrialN'
p646
I50
sa(dp647
g31
g32
sg17
F346.72301433782559
sg24
I0
sg35
g39
sg14
F346.69174009829294
sg16
g36
(g70
S'\x02\x00\x00\x00'
tRp648
sg42
g43
sg46
g47
sg15
g72
sg22
F351.43270588922314
sg64
g472
sg62
g74
sg49
g50
sS'trials.thisN'
p649
I51
sg19
I1
sg27
g36
(g38
S'\x00\x00\x00\x00\x00\x00\x18@'
tRp650
sg52
g53
sg23
S'2'
sg18
F347.94437626411673
sg33
g34
sg51
g11
sg20
S'2'
sg65
g36
(g77
S'\x00\x00\x00\x00\x00\x00\x00\x00'
tRp651
sg44
g45
sg40
g41
sg25
F0.35100156464613974
sS'trials.thisIndex'
p652
g36
(g80
S'\x1f\x00\x00\x00'
tRp653
sg26
V5
sS'trials.thisRepN'
p654
I0
sg66
Vfrying-pan
p655
sg63
V../experiment_stimuli/bw_bc_bl/Nonliving_Things/Kitchen_Uten/frying-pan_14.jpg
p656
sg21
F3.4677692335098982
sS'trials.thisTrialN'
p657
I51
sa(dp658
g31
g32
sg17
F353.5514012373751
sg24
I1
sg35
g39
sg14
F353.51662091922481
sg16
g36
(g70
S'\x02\x00\x00\x00'
tRp659
sg42
g43
sg46
g47
sg15
g124
sg22
F356.74428163783159
sg64
g112
sg62
g89
sg49
g50
sS'trials.thisN'
p660
I52
sg19
I1
sg27
g36
(g38
S'\x00\x00\x00\x00\x00\x00\x1c@'
tRp661
sg52
g53
sg23
S'1'
sg18
F354.77926234947518
sg33
g34
sg51
g11
sg20
S'2'
sg65
g36
(g77
S'\x00\x00\x00\x00\x00\x00\x00\x00'
tRp662
sg44
g45
sg40
g41
sg25
F0.88213512639049441
sS'trials.thisIndex'
p663
g36
(g80
S'0\x00\x00\x00'
tRp664
sg26
V5
sS'trials.thisRepN'
p665
I0
sg66
Vlioness
p666
sg63
V../experiment_stimuli/bw_bc_bl/Living_Things/Animals/lioness_23.jpg
p667
sg21
F1.9444541709963232
sS'trials.thisTrialN'
p668
I52
sa(dp669
g31
g32
sg17
F359.38427142787259
sg24
I1
sg35
g39
sg14
F359.35932513570879
sg16
g36
(g70
S'\x01\x00\x00\x00'
tRp670
sg42
g43
sg46
g47
sg15
g124
sg22
F364.0901129267877
sg64
g472
sg62
g74
sg49
g50
sS'trials.thisN'
p671
I53
sg19
I1
sg27
g36
(g38
S'\x00\x00\x00\x00\x00\x00\x1c@'
tRp672
sg52
g53
sg23
S'1'
sg18
F360.6219894529786
sg33
g34
sg51
g11
sg20
S'1'
sg65
g36
(g77
S'\x00\x00\x00\x00\x00\x00\x00\x00'
tRp673
sg44
g45
sg40
g41
sg25
F0.27084142167586833
sS'trials.thisIndex'
p674
g36
(g80
S'S\x00\x00\x00'
tRp675
sg26
V5
sS'trials.thisRepN'
p676
I0
sg66
Vteapot
p677
sg63
V../experiment_stimuli/bw_bc_bl/Nonliving_Things/Kitchen_Uten/teapot_24.jpg
p678
sg21
F3.4475714879808947
sS'trials.thisTrialN'
p679
I53
sa(dp680
g31
g32
sg17
F366.12133999285288
sg24
I0
sg35
g39
sg14
F366.09399424889125
sg16
g36
(g70
S'\x01\x00\x00\x00'
tRp681
sg42
g43
sg46
g47
sg15
g124
sg22
F370.10338689014316
sg64
g239
sg62
g74
sg49
g50
sS'trials.thisN'
p682
I54
sg19
I1
sg27
g36
(g38
S'\x00\x00\x00\x00\x00\x00\x18@'
tRp683
sg52
g53
sg23
S'3'
sg18
F367.37669433187693
sg33
g34
sg51
g11
sg20
S'1'
sg65
g36
(g77
S'\x00\x00\x00\x00\x00\x00\x00\x00'
tRp684
sg44
g45
sg40
g41
sg25
F0.48125981923658401
sS'trials.thisIndex'
p685
g36
(g80
S'\x0c\x00\x00\x00'
tRp686
sg26
V5
sS'trials.thisRepN'
p687
I0
sg66
Vcastle
p688
sg63
V../experiment_stimuli/bw_bc_bl/Nonliving_Things/Buildings/castle_24.jpg
p689
sg21
F2.7061188655206934
sS'trials.thisTrialN'
p690
I54
sa(dp691
g31
g32
sg17
F372.34997795836534
sg24
I0
sg35
g39
sg14
F372.31754376529716
sg16
g36
(g70
S'\x02\x00\x00\x00'
tRp692
sg42
g43
sg46
g47
sg15
g124
sg22
F376.20666391658597
sg64
g137
sg62
g89
sg49
g50
sS'trials.thisN'
p693
I55
sg19
I0
sg27
g36
(g38
S'\x00\x00\x00\x00\x00\x00 @'
tRp694
sg52
g53
sg23
S'2'
sg18
F373.58019799995236
sg33
g34
sg51
g11
sg20
S'1'
sg65
g36
(g77
S'\x00\x00\x00\x00\x00\x00\x00\x00'
tRp695
sg44
g45
sg40
g41
sg25
F0.29084713512565941
sS'trials.thisIndex'
p696
g36
(g80
S',\x00\x00\x00'
tRp697
sg26
V5
sS'trials.thisRepN'
p698
I0
sg66
Vkiwi
p699
sg63
V../experiment_stimuli/bw_bc_bl/Living_Things/Birds/kiwi_12.jpg
p700
sg21
F2.6058973741019145
sS'trials.thisTrialN'
p701
I55
sa(dp702
g31
g32
sg17
F378.25873611564748
sg24
I1
sg35
g39
sg14
F378.23042644222733
sg16
g36
(g70
S'\x02\x00\x00\x00'
tRp703
sg42
g43
sg46
g47
sg15
g124
sg22
F382.1796684328001
sg64
g137
sg62
g89
sg49
g50
sS'trials.thisN'
p704
I56
sg19
I0
sg27
g36
(g38
S'\x00\x00\x00\x00\x00\x00\x18@'
tRp705
sg52
g53
sg23
S'1'
sg18
F379.48305254394654
sg33
g34
sg51
g11
sg20
S'1'
sg65
g36
(g77
S'\x00\x00\x00\x00\x00\x00\x00\x00'
tRp706
sg44
g45
sg40
g41
sg25
F0.32091056811623275
sS'trials.thisIndex'
p707
g36
(g80
S'=\x00\x00\x00'
tRp708
sg26
V5
sS'trials.thisRepN'
p709
I0
sg66
Vpenguin
p710
sg63
V../experiment_stimuli/bw_bc_bl/Living_Things/Birds/penguin_14.jpg
p711
sg21
F2.676046094391495
sS'trials.thisTrialN'
p712
I56
sa(dp713
g31
g32
sg17
F384.26992105995305
sg24
I1
sg35
g39
sg14
F384.23349987610709
sg16
g36
(g70
S'\x02\x00\x00\x00'
tRp714
sg42
g43
sg46
g47
sg15
g124
sg22
F389.08472044114023
sg64
g112
sg62
g89
sg49
g50
sS'trials.thisN'
p715
I57
sg19
I0
sg27
g36
(g38
S'\x00\x00\x00\x00\x00\x00\x1a@'
tRp716
sg52
g53
sg23
S'1'
sg18
F385.50616888643708
sg33
g34
sg51
g11
sg20
S'1'
sg65
g36
(g77
S'\x00\x00\x00\x00\x00\x00\x00\x00'
tRp717
sg44
g45
sg40
g41
sg25
F0.26077975530643016
sS'trials.thisIndex'
p718
g36
(g80
S'\x14\x00\x00\x00'
tRp719
sg26
V5
sS'trials.thisRepN'
p720
I0
sg66
Vcow
p721
sg63
V../experiment_stimuli/bw_bc_bl/Living_Things/Animals/cow_24.jpg
p722
sg21
F3.5479640488047153
sS'trials.thisTrialN'
p723
I57
sa(dp724
g31
g32
sg17
F391.10041521536186
sg24
I0
sg35
g39
sg14
F391.07840845920146
sg16
g36
(g70
S'\x02\x00\x00\x00'
tRp725
sg42
g43
sg46
g47
sg15
g72
sg22
F394.56666713021696
sg64
g472
sg62
g74
sg49
g50
sS'trials.thisN'
p726
I58
sg19
I0
sg27
g36
(g38
S'\x00\x00\x00\x00\x00\x00\x18@'
tRp727
sg52
g53
sg23
S'3'
sg18
F392.34105193812866
sg33
g34
sg51
g11
sg20
S'1'
sg65
g36
(g77
S'\x00\x00\x00\x00\x00\x00\x00\x00'
tRp728
sg44
g45
sg40
g41
sg25
F0.33078332664445043
sS'trials.thisIndex'
p729
g36
(g80
S'M\x00\x00\x00'
tRp730
sg26
V5
sS'trials.thisRepN'
p731
I0
sg66
Vsmall-saucepan
p732
sg63
V../experiment_stimuli/bw_bc_bl/Nonliving_Things/Kitchen_Uten/small-saucepan_22.jpg
p733
sg21
F2.2050430180970579
sS'trials.thisTrialN'
p734
I58
sa(dp735
g31
g32
sg17
F396.6640485082753
sg24
I0
sg35
g39
sg14
F396.63049055286683
sg16
g36
(g70
S'\x01\x00\x00\x00'
tRp736
sg42
g43
sg46
g47
sg15
g72
sg22
F400.50960012350697
sg64
g112
sg62
g89
sg49
g50
sS'trials.thisN'
p737
I59
sg19
I1
sg27
g36
(g38
S'\x00\x00\x00\x00\x00\x00\x1e@'
tRp738
sg52
g53
sg23
S'2'
sg18
F397.88313072966412
sg33
g34
sg51
g11
sg20
S'1'
sg65
g36
(g77
S'\x00\x00\x00\x00\x00\x00\x00\x00'
tRp739
sg44
g45
sg40
g41
sg25
F0.29086508264299482
sS'trials.thisIndex'
p740
g36
(g80
S' \x00\x00\x00'
tRp741
sg26
V5
sS'trials.thisRepN'
p742
I0
sg66
Vgiraffe
p743
sg63
V../experiment_stimuli/bw_bc_bl/Living_Things/Animals/giraffe_23.jpg
p744
sg21
F2.6059042387641966
sS'trials.thisTrialN'
p745
I59
sa(dp746
g31
g32
sg17
F402.56158956408035
sg24
I1
sg35
g39
sg14
F402.53334567183629
sg16
g36
(g70
S'\x01\x00\x00\x00'
tRp747
sg42
g43
sg46
g47
sg15
g124
sg22
F406.63292847224511
sg64
g73
sg62
g74
sg49
g50
sS'trials.thisN'
p748
I60
sg19
I1
sg27
g36
(g38
S'\x00\x00\x00\x00\x00\x00\x1a@'
tRp749
sg52
g53
sg23
S'1'
sg18
F403.78597544669174
sg33
g34
sg51
g11
sg20
S'1'
sg65
g36
(g77
S'\x00\x00\x00\x00\x00\x00\x00\x00'
tRp750
sg44
g45
sg40
g41
sg25
F0.26078431552741677
sS'trials.thisIndex'
p751
g36
(g80
S'\x02\x00\x00\x00'
tRp752
sg26
V5
sS'trials.thisRepN'
p753
I0
sg66
Varmchair
p754
sg63
V../experiment_stimuli/bw_bc_bl/Nonliving_Things/Furniture/armchair_26.jpg
p755
sg21
F2.826380637823604
sS'trials.thisTrialN'
p756
I60
sa(dp757
g31
g32
sg17
F408.64213663549162
sg24
I0
sg35
g39
sg14
F408.62661836994812
sg16
g36
(g70
S'\x01\x00\x00\x00'
tRp758
sg42
g43
sg46
g47
sg15
g124
sg22
F415.8931216878118
sg64
g194
sg62
g74
sg49
g50
sS'trials.thisN'
p759
I61
sg19
I1
sg27
g36
(g38
S'\x00\x00\x00\x00\x00\x00\x1a@'
tRp760
sg52
g53
sg23
S'3'
sg18
F409.87925814825576
sg33
g34
sg51
g11
sg20
S'1'
sg65
g36
(g77
S'\x00\x00\x00\x00\x00\x00\x00\x00'
tRp761
sg44
g45
sg40
g41
sg25
F0.30071678105741739
sS'trials.thisIndex'
p762
g36
(g80
S'\\\x00\x00\x00'
tRp763
sg26
V5
sS'trials.thisRepN'
p764
I0
sg66
Vviolin
p765
sg63
V../experiment_stimuli/bw_bc_bl/Nonliving_Things/Musical_Inst/violin_1.jpg
p766
sg21
F5.9932958016870543
sS'trials.thisTrialN'
p767
I61
sa(dp768
g31
g32
sg17
F417.97663556039333
sg24
I0
sg35
g39
sg14
F417.92686587315984
sg16
g36
(g70
S'\x02\x00\x00\x00'
tRp769
sg42
g43
sg46
g47
sg15
g72
sg22
F422.7580438379664
sg64
g73
sg62
g74
sg49
g50
sS'trials.thisN'
p770
I62
sg19
I1
sg27
g36
(g38
S'\x00\x00\x00\x00\x00\x00\x1e@'
tRp771
sg52
g53
sg23
S'2'
sg18
F419.19955597748049
sg33
g34
sg51
g11
sg20
S'2'
sg65
g36
(g77
S'\x00\x00\x00\x00\x00\x00\x00\x00'
tRp772
sg44
g45
sg40
g41
sg25
F0.3409800857771188
sS'trials.thisIndex'
p773
g36
(g80
S'\x06\x00\x00\x00'
tRp774
sg26
V5
sS'trials.thisRepN'
p775
I0
sg66
Vbedside-table
p776
sg63
V../experiment_stimuli/bw_bc_bl/Nonliving_Things/Furniture/bedside-table_24.jpg
p777
sg21
F3.5379326601978391
sS'trials.thisTrialN'
p778
I62
sa(dp779
g31
g32
sg17
F424.85499023180455
sg24
I1
sg35
g39
sg14
F424.83190592331812
sg16
g36
(g70
S'\x01\x00\x00\x00'
tRp780
sg42
g43
sg46
g47
sg15
g72
sg22
F428.40033283096272
sg64
g137
sg62
g89
sg49
g50
sS'trials.thisN'
p781
I63
sg19
I0
sg27
g36
(g38
S'\x00\x00\x00\x00\x00\x00\x1e@'
tRp782
sg52
g53
sg23
S'1'
sg18
F426.07452327897772
sg33
g34
sg51
g11
sg20
S'2'
sg65
g36
(g77
S'\x00\x00\x00\x00\x00\x00\x00\x00'
tRp783
sg44
g45
sg40
g41
sg25
F0.79194567399099469
sS'trials.thisIndex'
p784
g36
(g80
S'?\x00\x00\x00'
tRp785
sg26
V5
sS'trials.thisRepN'
p786
I0
sg66
Vpigeon
p787
sg63
V../experiment_stimuli/bw_bc_bl/Living_Things/Birds/pigeon_23.jpg
p788
sg21
F2.3052387128118426
sS'trials.thisTrialN'
p789
I63
sa(dp790
g31
g32
sg17
F430.95558152406011
sg24
I0
sg35
g39
sg14
F430.92517412127927
sg16
g36
(g70
S'\x02\x00\x00\x00'
tRp791
sg42
g43
sg46
g47
sg15
g124
sg22
F434.85423432826065
sg64
g137
sg62
g89
sg49
g50
sS'trials.thisN'
p792
I64
sg19
I0
sg27
g36
(g38
S'\x00\x00\x00\x00\x00\x00\x18@'
tRp793
sg52
g53
sg23
S'2'
sg18
F432.18783152126707
sg33
g34
sg51
g11
sg20
S'1'
sg65
g36
(g77
S'\x00\x00\x00\x00\x00\x00\x00\x00'
tRp794
sg44
g45
sg40
g41
sg25
F0.32091366196982563
sS'trials.thisIndex'
p795
g36
(g80
S'!\x00\x00\x00'
tRp796
sg26
V5
sS'trials.thisRepN'
p797
I0
sg66
Vgoldfinch
p798
sg63
V../experiment_stimuli/bw_bc_bl/Living_Things/Birds/goldfinch_19.jpg
p799
sg21
F2.6458232686854899
sS'trials.thisTrialN'
p800
I64
sa(dp801
g31
g32
sg17
F436.91953314468265
sg24
I0
sg35
g39
sg14
F436.90820797299966
sg16
g36
(g70
S'\x02\x00\x00\x00'
tRp802
sg42
g43
sg46
g47
sg15
g124
sg22
F439.67485639895312
sg64
g137
sg62
g89
sg49
g50
sS'trials.thisN'
p803
I65
sg19
I1
sg27
g36
(g38
S'\x00\x00\x00\x00\x00\x00\x1a@'
tRp804
sg52
g53
sg23
S'3'
sg18
F438.15082195319701
sg33
g34
sg51
g11
sg20
S'2'
sg65
g36
(g77
S'\x00\x00\x00\x00\x00\x00\x00\x00'
tRp805
sg44
g45
sg40
g41
sg25
F0.56143836805131286
sS'trials.thisIndex'
p806
g36
(g80
S'C\x00\x00\x00'
tRp807
sg26
V5
sS'trials.thisRepN'
p808
I0
sg66
Vraven
p809
sg63
V../experiment_stimuli/bw_bc_bl/Living_Things/Birds/raven_0.jpg
p810
sg21
F1.4934685825137421
sS'trials.thisTrialN'
p811
I65
sa(dp812
g31
g32
sg17
F442.00769739062525
sg24
I1
sg35
g39
sg14
F441.9692210520152
sg16
g36
(g70
S'\x01\x00\x00\x00'
tRp813
sg42
g43
sg46
g47
sg15
g124
sg22
F445.89843469741754
sg64
g472
sg62
g74
sg49
g50
sS'trials.thisN'
p814
I66
sg19
I0
sg27
g36
(g38
S'\x00\x00\x00\x00\x00\x00\x18@'
tRp815
sg52
g53
sg23
S'1'
sg18
F443.2419051148463
sg33
g34
sg51
g11
sg20
S'2'
sg65
g36
(g77
S'\x00\x00\x00\x00\x00\x00\x00\x00'
tRp816
sg44
g45
sg40
g41
sg25
F3.3976174641866237
sS'trials.thisIndex'
p817
g36
(g80
S'B\x00\x00\x00'
tRp818
sg26
V5
sS'trials.thisRepN'
p819
I0
sg66
Vpot
p820
sg63
V../experiment_stimuli/bw_bc_bl/Nonliving_Things/Kitchen_Uten/pot_17.jpg
p821
sg21
F2.6359647995559499
sS'trials.thisTrialN'
p822
I66
sa(dp823
g31
g32
sg17
F451.07345258560963
sg24
I0
sg35
g39
sg14
F451.02895868744235
sg16
g36
(g70
S'\x01\x00\x00\x00'
tRp824
sg42
g43
sg46
g47
sg15
g72
sg22
F454.39695534599014
sg64
g112
sg62
g89
sg49
g50
sS'trials.thisN'
p825
I67
sg19
I1
sg27
g36
(g38
S'\x00\x00\x00\x00\x00\x00\x1e@'
tRp826
sg52
g53
sg23
S'3'
sg18
F452.32168629439548
sg33
g34
sg51
g11
sg20
S'1'
sg65
g36
(g77
S'\x00\x00\x00\x00\x00\x00\x00\x00'
tRp827
sg44
g45
sg40
g41
sg25
F0.48126747715286911
sS'trials.thisIndex'
p828
g36
(g80
S'Z\x00\x00\x00'
tRp829
sg26
V5
sS'trials.thisRepN'
p830
I0
sg66
Vturtle
p831
sg63
V../experiment_stimuli/bw_bc_bl/Living_Things/Animals/turtle_20.jpg
p832
sg21
F2.0547202116576955
sS'trials.thisTrialN'
p833
I67
sa(dp834
g31
g32
sg17
F456.63658890244551
sg24
I0
sg35
g39
sg14
F456.61111005966086
sg16
g36
(g70
S'\x02\x00\x00\x00'
tRp835
sg42
g43
sg46
g47
sg15
g124
sg22
F460.18958375416696
sg64
g137
sg62
g89
sg49
g50
sS'trials.thisN'
p836
I68
sg19
I0
sg27
g36
(g38
S'\x00\x00\x00\x00\x00\x00\x18@'
tRp837
sg52
g53
sg23
S'2'
sg18
F457.86374022148084
sg33
g34
sg51
g11
sg20
S'1'
sg65
g36
(g77
S'\x00\x00\x00\x00\x00\x00\x00\x00'
tRp838
sg44
g45
sg40
g41
sg25
F0.39106656250078231
sS'trials.thisIndex'
p839
g36
(g80
S'F\x00\x00\x00'
tRp840
sg26
V5
sS'trials.thisRepN'
p841
I0
sg66
Vrooster
p842
sg63
V../experiment_stimuli/bw_bc_bl/Living_Things/Birds/rooster_14.jpg
p843
sg21
F2.3052667310694233
sS'trials.thisTrialN'
p844
I68
sa(dp845
g31
g32
sg17
F462.33546912600286
sg24
I0
sg35
g39
sg14
F462.31352741422597
sg16
g36
(g70
S'\x01\x00\x00\x00'
tRp846
sg42
g43
sg46
g47
sg15
g72
sg22
F466.33292776765302
sg64
g112
sg62
g89
sg49
g50
sS'trials.thisN'
p847
I69
sg19
I1
sg27
g36
(g38
S'\x00\x00\x00\x00\x00\x00\x18@'
tRp848
sg52
g53
sg23
S'2'
sg18
F463.56616262113675
sg33
g34
sg51
g11
sg20
S'1'
sg65
g36
(g77
S'\x00\x00\x00\x00\x00\x00\x00\x00'
tRp849
sg44
g45
sg40
g41
sg25
F0.51134740980342031
sS'trials.thisIndex'
p850
g36
(g80
S'\r\x00\x00\x00'
tRp851
sg26
V5
sS'trials.thisRepN'
p852
I0
sg66
Vcat
p853
sg63
V../experiment_stimuli/bw_bc_bl/Living_Things/Animals/cat_26.jpg
p854
sg21
F2.7461996229831129
sS'trials.thisTrialN'
p855
I69
sa(dp856
g31
g32
sg17
F468.60241579683498
sg24
I0
sg35
g39
sg14
F468.57717689499259
sg16
g36
(g70
S'\x02\x00\x00\x00'
tRp857
sg42
g43
sg46
g47
sg15
g72
sg22
F470.25149980199058
sg64
g472
sg62
g74
sg49
g50
sS'trials.thisN'
p858
I70
sg19
I0
sg27
g36
(g38
S'\x00\x00\x00\x00\x00\x00\x1a@'
tRp859
sg52
g53
sg23
S'2'
sg18
F469.83982049813494
sg33
g34
sg51
g11
sg20
S'1'
sg65
g36
(g77
S'\x00\x00\x00\x00\x00\x00\x00\x00'
tRp860
sg44
g45
sg40
g41
sg25
F0.37101622542832047
sS'trials.thisIndex'
p861
g36
(g80
S'\x1e\x00\x00\x00'
tRp862
sg26
V5
sS'trials.thisRepN'
p863
I0
sg66
Vfondue
p864
sg63
V../experiment_stimuli/bw_bc_bl/Nonliving_Things/Kitchen_Uten/fondue_18.jpg
p865
sg21
F0.3910918744513765
sS'trials.thisTrialN'
p866
I70
sa(dp867
g31
g32
sg17
F472.38713942677714
sg24
I1
sg35
g39
sg14
F472.35539595561568
sg16
g36
(g70
S'\x01\x00\x00\x00'
tRp868
sg42
g43
sg46
g47
sg15
g124
sg22
F476.48506613564678
sg64
g239
sg62
g74
sg49
g50
sS'trials.thisN'
p869
I71
sg19
I1
sg27
g36
(g38
S'\x00\x00\x00\x00\x00\x00\x1e@'
tRp870
sg52
g53
sg23
S'1'
sg18
F473.60802988428622
sg33
g34
sg51
g11
sg20
S'1'
sg65
g36
(g77
S'\x00\x00\x00\x00\x00\x00\x00\x00'
tRp871
sg44
g45
sg40
g41
sg25
F0.22069080243818462
sS'trials.thisIndex'
p872
g36
(g80
S'5\x00\x00\x00'
tRp873
sg26
V5
sS'trials.thisRepN'
p874
I0
sg66
Vmill
p875
sg63
V../experiment_stimuli/bw_bc_bl/Nonliving_Things/Buildings/mill_14.jpg
p876
sg21
F2.856456405017525
sS'trials.thisTrialN'
p877
I71
sa(dp878
g31
g32
sg17
F478.45917392044794
sg24
I0
sg35
g39
sg14
F478.43864435504656
sg16
g36
(g70
S'\x01\x00\x00\x00'
tRp879
sg42
g43
sg46
g47
sg15
g72
sg22
F481.12515139754396
sg64
g137
sg62
g89
sg49
g50
sS'trials.thisN'
p880
I72
sg19
I1
sg27
g36
(g38
S'\x00\x00\x00\x00\x00\x00\x1a@'
tRp881
sg52
g53
sg23
S'3'
sg18
F479.70130769477692
sg33
g34
sg51
g11
sg20
S'1'
sg65
g36
(g77
S'\x00\x00\x00\x00\x00\x00\x00\x00'
tRp882
sg44
g45
sg40
g41
sg25
F0.69171610043849796
sS'trials.thisIndex'
p883
g36
(g80
S'U\x00\x00\x00'
tRp884
sg26
V5
sS'trials.thisRepN'
p885
I0
sg66
Vtoucan
p886
sg63
V../experiment_stimuli/bw_bc_bl/Living_Things/Birds/toucan_15.jpg
p887
sg21
F1.4032809498021379
sS'trials.thisTrialN'
p888
I72
sa(dp889
g31
g32
sg17
F483.59148970688693
sg24
I0
sg35
g39
sg14
F483.54977602348663
sg16
g36
(g70
S'\x02\x00\x00\x00'
tRp890
sg42
g43
sg46
g47
sg15
g124
sg22
F487.36859877186362
sg64
g137
sg62
g89
sg49
g50
sS'trials.thisN'
p891
I73
sg19
I0
sg27
g36
(g38
S'\x00\x00\x00\x00\x00\x00\x18@'
tRp892
sg52
g53
sg23
S'3'
sg18
F484.81243122415617
sg33
g34
sg51
g11
sg20
S'1'
sg65
g36
(g77
S'\x00\x00\x00\x00\x00\x00\x00\x00'
tRp893
sg44
g45
sg40
g41
sg25
F0.5413947373162955
sS'trials.thisIndex'
p894
g36
(g80
S'\x04\x00\x00\x00'
tRp895
sg26
V5
sS'trials.thisRepN'
p896
I0
sg66
Vbarn-owl
p897
sg63
V../experiment_stimuli/bw_bc_bl/Living_Things/Birds/barn-owl_11.jpg
p898
sg21
F2.5355791599722579
sS'trials.thisTrialN'
p899
I73
sa(dp900
g31
g32
sg17
F489.67884428065736
sg24
I1
sg35
g39
sg14
F489.64304577035364
sg16
g36
(g70
S'\x01\x00\x00\x00'
tRp901
sg42
g43
sg46
g47
sg15
g124
sg22
F492.00886255782098
sg64
g73
sg62
g74
sg49
g50
sS'trials.thisN'
p902
I74
sg19
I1
sg27
g36
(g38
S'\x00\x00\x00\x00\x00\x00\x18@'
tRp903
sg52
g53
sg23
S'1'
sg18
F490.90570166660473
sg33
g34
sg51
g11
sg20
S'1'
sg65
g36
(g77
S'\x00\x00\x00\x00\x00\x00\x00\x00'
tRp904
sg44
g45
sg40
g41
sg25
F0.20065209292806685
sS'trials.thisIndex'
p905
g36
(g80
S']\x00\x00\x00'
tRp906
sg26
V5
sS'trials.thisRepN'
p907
I0
sg66
Vwardrobe
p908
sg63
V../experiment_stimuli/bw_bc_bl/Nonliving_Things/Furniture/wardrobe_22.jpg
p909
sg21
F1.0825650978367776
sS'trials.thisTrialN'
p910
I74
sa(dp911
g31
g32
sg17
F493.96871129283682
sg24
I0
sg35
g39
sg14
F493.94241978926584
sg16
g36
(g70
S'\x02\x00\x00\x00'
tRp912
sg42
g43
sg46
g47
sg15
g124
sg22
F497.06987033609767
sg64
g88
sg62
g89
sg49
g50
sS'trials.thisN'
p913
I75
sg19
I1
sg27
g36
(g38
S'\x00\x00\x00\x00\x00\x00\x1a@'
tRp914
sg52
g53
sg23
S'3'
sg18
F495.23512551304884
sg33
g34
sg51
g11
sg20
S'2'
sg65
g36
(g77
S'\x00\x00\x00\x00\x00\x00\x00\x00'
tRp915
sg44
g45
sg40
g41
sg25
F0.68170260253828019
sS'trials.thisIndex'
p916
g36
(g80
S'7\x00\x00\x00'
tRp917
sg26
V5
sS'trials.thisRepN'
p918
I0
sg66
Vnarwhal
p919
sg63
V../experiment_stimuli/bw_bc_bl/Living_Things/Marine_creatures/narwhal_6.jpg
p920
sg21
F1.8141706379828975
sS'trials.thisTrialN'
p921
I75
sa(dp922
g31
g32
sg17
F499.5129816919798
sg24
I1
sg35
g39
sg14
F499.48447630635928
sg16
g36
(g70
S'\x02\x00\x00\x00'
tRp923
sg42
g43
sg46
g47
sg15
g124
sg22
F501.68991598580033
sg64
g137
sg62
g89
sg49
g50
sS'trials.thisN'
p924
I76
sg19
I1
sg27
g36
(g38
S'\x00\x00\x00\x00\x00\x00\x18@'
tRp925
sg52
g53
sg23
S'1'
sg18
F500.74713095847983
sg33
g34
sg51
g11
sg20
S'2'
sg65
g36
(g77
S'\x00\x00\x00\x00\x00\x00\x00\x00'
tRp926
sg44
g45
sg40
g41
sg25
F0.7618814556626603
sS'trials.thisIndex'
p927
g36
(g80
S'9\x00\x00\x00'
tRp928
sg26
V5
sS'trials.thisRepN'
p929
I0
sg66
Vowl
p930
sg63
V../experiment_stimuli/bw_bc_bl/Living_Things/Birds/owl_15.jpg
p931
sg21
F0.92222496645990759
sS'trials.thisTrialN'
p932
I76
sa(dp933
g31
g32
sg17
F504.21623555710539
sg24
I0
sg35
g39
sg14
F504.18471324152779
sg16
g36
(g70
S'\x01\x00\x00\x00'
tRp934
sg42
g43
sg46
g47
sg15
g124
sg22
F507.17186423123349
sg64
g125
sg62
g74
sg49
g50
sS'trials.thisN'
p935
I77
sg19
I1
sg27
g36
(g38
S'\x00\x00\x00\x00\x00\x00\x18@'
tRp936
sg52
g53
sg23
S'3'
sg18
F505.47743055166211
sg33
g34
sg51
g11
sg20
S'1'
sg65
g36
(g77
S'\x00\x00\x00\x00\x00\x00\x00\x00'
tRp937
sg44
g45
sg40
g41
sg25
F0.42113787145353854
sS'trials.thisIndex'
p938
g36
(g80
S'\t\x00\x00\x00'
tRp939
sg26
V5
sS'trials.thisRepN'
p940
I0
sg66
Vbus
p941
sg63
V../experiment_stimuli/bw_bc_bl/Nonliving_Things/Vehicles/bus_9.jpg
p942
sg21
F1.6738648292375728
sS'trials.thisTrialN'
p943
I77
sa(dp944
g31
g32
sg17
F509.34314768773038
sg24
I0
sg35
g39
sg14
F509.32590670336504
sg16
g36
(g70
S'\x02\x00\x00\x00'
tRp945
sg42
g43
sg46
g47
sg15
g124
sg22
F513.81636466272175
sg64
g137
sg62
g89
sg49
g50
sS'trials.thisN'
p946
I78
sg19
I0
sg27
g36
(g38
S'\x00\x00\x00\x00\x00\x00\x1a@'
tRp947
sg52
g53
sg23
S'2'
sg18
F510.57854068872984
sg33
g34
sg51
g11
sg20
S'1'
sg65
g36
(g77
S'\x00\x00\x00\x00\x00\x00\x00\x00'
tRp948
sg44
g45
sg40
g41
sg25
F0.25060485710855573
sS'trials.thisIndex'
p949
g36
(g80
S'"\x00\x00\x00'
tRp950
sg26
V5
sS'trials.thisRepN'
p951
I0
sg66
Vgoose
p952
sg63
V../experiment_stimuli/bw_bc_bl/Living_Things/Birds/goose_25.jpg
p953
sg21
F3.2172403190052137
sS'trials.thisTrialN'
p954
I78
sa(dp955
g31
g32
sg17
F515.83103723695967
sg24
I0
sg35
g39
sg14
F515.8000074949814
sg16
g36
(g70
S'\x02\x00\x00\x00'
tRp956
sg42
g43
sg46
g47
sg15
g124
sg22
F518.85730607365258
sg64
g182
sg62
g89
sg49
g50
sS'trials.thisN'
p957
I79
sg19
I0
sg27
g36
(g38
S'\x00\x00\x00\x00\x00\x00\x1e@'
tRp958
sg52
g53
sg23
S'2'
sg18
F517.06266127107665
sg33
g34
sg51
g11
sg20
S'1'
sg65
g36
(g77
S'\x00\x00\x00\x00\x00\x00\x00\x00'
tRp959
sg44
g45
sg40
g41
sg25
F0.33092657336965203
sS'trials.thisIndex'
p960
g36
(g80
S'\x18\x00\x00\x00'
tRp961
sg26
V5
sS'trials.thisRepN'
p962
I0
sg66
Vdragonfly
p963
sg63
V../experiment_stimuli/bw_bc_bl/Living_Things/Insects/dragonfly_16.jpg
p964
sg21
F1.7740799930179492
sS'trials.thisTrialN'
p965
I79
sa(dp966
g31
g32
sg17
F520.93675158382393
sg24
I0
sg35
g39
sg14
F520.92115892050788
sg16
g36
(g70
S'\x02\x00\x00\x00'
tRp967
sg42
g43
sg46
g47
sg15
g124
sg22
F524.31920031644404
sg64
g182
sg62
g89
sg49
g50
sS'trials.thisN'
p968
I80
sg19
I1
sg27
g36
(g38
S'\x00\x00\x00\x00\x00\x00\x18@'
tRp969
sg52
g53
sg23
S'2'
sg18
F522.17378993949387
sg33
g34
sg51
g11
sg20
S'2'
sg65
g36
(g77
S'\x00\x00\x00\x00\x00\x00\x00\x00'
tRp970
sg44
g45
sg40
g41
sg25
F0.34080141456797719
sS'trials.thisIndex'
p971
g36
(g80
S'-\x00\x00\x00'
tRp972
sg26
V5
sS'trials.thisRepN'
p973
I0
sg66
Vladybird
p974
sg63
V../experiment_stimuli/bw_bc_bl/Living_Things/Insects/ladybird_23.jpg
p975
sg21
F2.1248411878477782
sS'trials.thisTrialN'
p976
I80
sa(dp977
g31
g32
sg17
F526.40941679000389
sg24
I1
sg35
g39
sg14
F526.39307633752469
sg16
g36
(g70
S'\x02\x00\x00\x00'
tRp978
sg42
g43
sg46
g47
sg15
g72
sg22
F528.43820784054697
sg64
g125
sg62
g74
sg49
g50
sS'trials.thisN'
p979
I81
sg19
I0
sg27
g36
(g38
S'\x00\x00\x00\x00\x00\x00\x1c@'
tRp980
sg52
g53
sg23
S'1'
sg18
F527.63569465954788
sg33
g34
sg51
g11
sg20
S'1'
sg65
g36
(g77
S'\x00\x00\x00\x00\x00\x00\x00\x00'
tRp981
sg44
g45
sg40
g41
sg25
F0.19047592394053936
sS'trials.thisIndex'
p982
g36
(g80
S'\x0b\x00\x00\x00'
tRp983
sg26
V5
sS'trials.thisRepN'
p984
I0
sg66
Vcar
p985
sg63
V../experiment_stimuli/bw_bc_bl/Nonliving_Things/Vehicles/car_11.jpg
p986
sg21
F0.78194631531368941
sS'trials.thisTrialN'
p987
I81
sa(dp988
g31
g32
sg17
F530.38706855778582
sg24
I1
sg35
g39
sg14
F530.36171612725593
sg16
g36
(g70
S'\x01\x00\x00\x00'
tRp989
sg42
g43
sg46
g47
sg15
g124
sg22
F533.65953502827324
sg64
g125
sg62
g74
sg49
g50
sS'trials.thisN'
p990
I82
sg19
I0
sg27
g36
(g38
S'\x00\x00\x00\x00\x00\x00\x18@'
tRp991
sg52
g53
sg23
S'1'
sg18
F531.6243739107158
sg33
g34
sg51
g11
sg20
S'2'
sg65
g36
(g77
S'\x00\x00\x00\x00\x00\x00\x00\x00'
tRp992
sg44
g45
sg40
g41
sg25
F1.152723923092708
sS'trials.thisIndex'
p993
g36
(g80
S'W\x00\x00\x00'
tRp994
sg26
V5
sS'trials.thisRepN'
p995
I0
sg66
Vtrain
p996
sg63
V../experiment_stimuli/bw_bc_bl/Nonliving_Things/Vehicles/train_17.jpg
p997
sg21
F2.0146033422788605
sS'trials.thisTrialN'
p998
I82
sa(dp999
g31
g32
sg17
F536.58392769971397
sg24
I0
sg35
g39
sg14
F536.5552061770577
sg16
g36
(g70
S'\x02\x00\x00\x00'
tRp1000
sg42
g43
sg46
g47
sg15
g72
sg22
F540.20379117515404
sg64
g239
sg62
g74
sg49
g50
sS'trials.thisN'
p1001
I83
sg19
I1
sg27
g36
(g38
S'\x00\x00\x00\x00\x00\x00\x18@'
tRp1002
sg52
g53
sg23
S'3'
sg18
F537.84792538953479
sg33
g34
sg51
g11
sg20
S'2'
sg65
g36
(g77
S'\x00\x00\x00\x00\x00\x00\x00\x00'
tRp1003
sg44
g45
sg40
g41
sg25
F0.53136979264672846
sS'trials.thisIndex'
p1004
g36
(g80
S')\x00\x00\x00'
tRp1005
sg26
V5
sS'trials.thisRepN'
p1006
I0
sg66
Vhouse
p1007
sg63
V../experiment_stimuli/bw_bc_bl/Nonliving_Things/Buildings/house_13.jpg
p1008
sg21
F2.3353042430244386
sS'trials.thisTrialN'
p1009
I83
sa(dp1010
g31
g32
sg17
F542.49868402164429
sg24
I1
sg35
g39
sg14
F542.46808410610538
sg16
g36
(g70
S'\x01\x00\x00\x00'
tRp1011
sg42
g43
sg46
g47
sg15
g124
sg22
F544.95419078948908
sg64
g239
sg62
g74
sg49
g50
sS'trials.thisN'
p1012
I84
sg19
I0
sg27
g36
(g38
S'\x00\x00\x00\x00\x00\x00\x18@'
tRp1013
sg52
g53
sg23
S'1'
sg18
F543.73073789326008
sg33
g34
sg51
g11
sg20
S'2'
sg65
g36
(g77
S'\x00\x00\x00\x00\x00\x00\x00\x00'
tRp1014
sg44
g45
sg40
g41
sg25
F0.7518743711989373
sS'trials.thisIndex'
p1015
g36
(g80
S'\x0e\x00\x00\x00'
tRp1016
sg26
V5
sS'trials.thisRepN'
p1017
I0
sg66
Vcathedral
p1018
sg63
V../experiment_stimuli/bw_bc_bl/Nonliving_Things/Buildings/cathedral_8.jpg
p1019
sg21
F1.2028582979692146
sS'trials.thisTrialN'
p1020
I84
sa(dp1021
g31
g32
sg17
F547.47694311733358
sg24
I0
sg35
g39
sg14
F547.43890782655217
sg16
g36
(g70
S'\x01\x00\x00\x00'
tRp1022
sg42
g43
sg46
g47
sg15
g124
sg22
F551.28794563747942
sg64
g73
sg62
g74
sg49
g50
sS'trials.thisN'
p1023
I85
sg19
I1
sg27
g36
(g38
S'\x00\x00\x00\x00\x00\x00\x1a@'
tRp1024
sg52
g53
sg23
S'3'
sg18
F548.74164772441145
sg33
g34
sg51
g11
sg20
S'1'
sg65
g36
(g77
S'\x00\x00\x00\x00\x00\x00\x00\x00'
tRp1025
sg44
g45
sg40
g41
sg25
F0.30087480589281768
sS'trials.thisIndex'
p1026
g36
(g80
S'E\x00\x00\x00'
tRp1027
sg26
V5
sS'trials.thisRepN'
p1028
I0
sg66
Vrocking-chair
p1029
sg63
V../experiment_stimuli/bw_bc_bl/Nonliving_Things/Furniture/rocking-chair_7.jpg
p1030
sg21
F2.5257192393764853
sS'trials.thisTrialN'
p1031
I85
sa(dp1032
g31
g32
sg17
F553.34536710637622
sg24
I0
sg35
g39
sg14
F553.32172930752859
sg16
g36
(g70
S'\x02\x00\x00\x00'
tRp1033
sg42
g43
sg46
g47
sg15
g124
sg22
F556.15853801742196
sg64
g112
sg62
g89
sg49
g50
sS'trials.thisN'
p1034
I86
sg19
I0
sg27
g36
(g38
S'\x00\x00\x00\x00\x00\x00\x18@'
tRp1035
sg52
g53
sg23
S'2'
sg18
F554.594394558575
sg33
g34
sg51
g11
sg20
S'1'
sg65
g36
(g77
S'\x00\x00\x00\x00\x00\x00\x00\x00'
tRp1036
sg44
g45
sg40
g41
sg25
F0.35097785422112793
sS'trials.thisIndex'
p1037
g36
(g80
S"'\x00\x00\x00"
tRp1038
sg26
V5
sS'trials.thisRepN'
p1039
I0
sg66
Vhippopotamus
p1040
sg63
V../experiment_stimuli/bw_bc_bl/Living_Things/Animals/hippopotamus_2.jpg
p1041
sg21
F1.543583303457126
sS'trials.thisTrialN'
p1042
I86
sa(dp1043
g31
g32
sg17
F558.26267572853249
sg24
I1
sg35
g39
sg14
F558.24244209611788
sg16
g36
(g70
S'\x01\x00\x00\x00'
tRp1044
sg42
g43
sg46
g47
sg15
g124
sg22
F562.06139620044269
sg64
g73
sg62
g74
sg49
g50
sS'trials.thisN'
p1045
I87
sg19
I1
sg27
g36
(g38
S'\x00\x00\x00\x00\x00\x00\x1a@'
tRp1046
sg52
g53
sg23
S'1'
sg18
F559.49507984088268
sg33
g34
sg51
g11
sg20
S'1'
sg65
g36
(g77
S'\x00\x00\x00\x00\x00\x00\x00\x00'
tRp1047
sg44
g45
sg40
g41
sg25
F0.23071222112048417
sS'trials.thisIndex'
p1048
g36
(g80
S'Q\x00\x00\x00'
tRp1049
sg26
V5
sS'trials.thisRepN'
p1050
I0
sg66
Vtable
p1051
sg63
V../experiment_stimuli/bw_bc_bl/Nonliving_Things/Furniture/table_13.jpg
p1052
sg21
F2.5457633438054472
sS'trials.thisTrialN'
p1053
I87
sa(dp1054
g31
g32
sg17
F564.06295014882926
sg24
I0
sg35
g39
sg14
F564.02502757112961
sg16
g36
(g70
S'\x01\x00\x00\x00'
tRp1055
sg42
g43
sg46
g47
sg15
g124
sg22
F567.36298502585851
sg64
g239
sg62
g74
sg49
g50
sS'trials.thisN'
p1056
I88
sg19
I1
sg27
g36
(g38
S'\x00\x00\x00\x00\x00\x00\x18@'
tRp1057
sg52
g53
sg23
S'2'
sg18
F565.31775524606928
sg33
g34
sg51
g11
sg20
S'1'
sg65
g36
(g77
S'\x00\x00\x00\x00\x00\x00\x00\x00'
tRp1058
sg44
g45
sg40
g41
sg25
F0.56143885268829763
sS'trials.thisIndex'
p1059
g36
(g80
S'\x11\x00\x00\x00'
tRp1060
sg26
V5
sS'trials.thisRepN'
p1061
I0
sg66
Vchurch
p1062
sg63
V../experiment_stimuli/bw_bc_bl/Nonliving_Things/Buildings/church_10.jpg
p1063
sg21
F2.0246308507630602
sS'trials.thisTrialN'
p1064
I88
sa(dp1065
g31
g32
sg17
F569.6800008227583
sg24
I0
sg35
g39
sg14
F569.65729281853419
sg16
g36
(g70
S'\x01\x00\x00\x00'
tRp1066
sg42
g43
sg46
g47
sg15
g72
sg22
F572.26363092870452
sg64
g112
sg62
g89
sg49
g50
sS'trials.thisN'
p1067
I89
sg19
I0
sg27
g36
(g38
S'\x00\x00\x00\x00\x00\x00\x18@'
tRp1068
sg52
g53
sg23
S'2'
sg18
F570.91994705318939
sg33
g34
sg51
g11
sg20
S'2'
sg65
g36
(g77
S'\x00\x00\x00\x00\x00\x00\x00\x00'
tRp1069
sg44
g45
sg40
g41
sg25
F0.41096178884617984
sS'trials.thisIndex'
p1070
g36
(g80
S'\x01\x00\x00\x00'
tRp1071
sg26
V5
sS'trials.thisRepN'
p1072
I0
sg66
Varmadillo
p1073
sg63
V../experiment_stimuli/bw_bc_bl/Living_Things/Animals/armadillo_16.jpg
p1074
sg21
F1.323119773180224
sS'trials.thisTrialN'
p1075
I89
sa(dp1076
g31
g32
sg17
F574.43692109652329
sg24
I0
sg35
g39
sg14
F574.4076337418519
sg16
g36
(g70
S'\x01\x00\x00\x00'
tRp1077
sg42
g43
sg46
g47
sg15
g124
sg22
F577.34469859290402
sg64
g73
sg62
g74
sg49
g50
sS'trials.thisN'
p1078
I90
sg19
I0
sg27
g36
(g38
S'\x00\x00\x00\x00\x00\x00\x18@'
tRp1079
sg52
g53
sg23
S'2'
sg18
F575.68032915436197
sg33
g34
sg51
g11
sg20
S'2'
sg65
g36
(g77
S'\x00\x00\x00\x00\x00\x00\x00\x00'
tRp1080
sg44
g45
sg40
g41
sg25
F0.37102206354029477
sS'trials.thisIndex'
p1081
g36
(g80
S'\x05\x00\x00\x00'
tRp1082
sg26
V5
sS'trials.thisRepN'
p1083
I0
sg66
Vbed
p1084
sg63
V../experiment_stimuli/bw_bc_bl/Nonliving_Things/Furniture/bed_1.jpg
p1085
sg21
F1.6437989452388138
sS'trials.thisTrialN'
p1086
I90
sa(dp1087
g31
g32
sg17
F579.47428945195861
sg24
I1
sg35
g39
sg14
F579.44863037019968
sg16
g36
(g70
S'\x01\x00\x00\x00'
tRp1088
sg42
g43
sg46
g47
sg15
g72
sg22
F581.95471448602621
sg64
g112
sg62
g89
sg49
g50
sS'trials.thisN'
p1089
I91
sg19
I0
sg27
g36
(g38
S'\x00\x00\x00\x00\x00\x00\x1a@'
tRp1090
sg52
g53
sg23
S'1'
sg18
F580.71128028910607
sg33
g34
sg51
g11
sg20
S'2'
sg65
g36
(g77
S'\x00\x00\x00\x00\x00\x00\x00\x00'
tRp1091
sg44
g45
sg40
g41
sg25
F0.45119659334886819
sS'trials.thisIndex'
p1092
g36
(g80
S'2\x00\x00\x00'
tRp1093
sg26
V5
sS'trials.thisRepN'
p1094
I0
sg66
Vlynx
p1095
sg63
V../experiment_stimuli/bw_bc_bl/Living_Things/Animals/lynx_0.jpg
p1096
sg21
F1.2228839925955981
sS'trials.thisTrialN'
p1097
I91
sa(dp1098
g31
g32
sg17
F584.18458032037597
sg24
I0
sg35
g39
sg14
F584.13883157109376
sg16
g36
(g70
S'\x02\x00\x00\x00'
tRp1099
sg42
g43
sg46
g47
sg15
g72
sg22
F586.62491169478744
sg64
g239
sg62
g74
sg49
g50
sS'trials.thisN'
p1100
I92
sg19
I1
sg27
g36
(g38
S'\x00\x00\x00\x00\x00\x00\x18@'
tRp1101
sg52
g53
sg23
S'2'
sg18
F585.42153069959022
sg33
g34
sg51
g11
sg20
S'2'
sg65
g36
(g77
S'\x00\x00\x00\x00\x00\x00\x00\x00'
tRp1102
sg44
g45
sg40
g41
sg25
F0.33077601459808648
sS'trials.thisIndex'
p1103
g36
(g80
S'#\x00\x00\x00'
tRp1104
sg26
V5
sS'trials.thisRepN'
p1105
I0
sg66
Vgranary
p1106
sg63
V../experiment_stimuli/bw_bc_bl/Nonliving_Things/Buildings/granary_23.jpg
p1107
sg21
F1.1828236936125904
sS'trials.thisTrialN'
p1108
I92
sa(dp1109
g31
g32
sg17
F588.7207836980233
sg24
I1
sg35
g39
sg14
F588.68873394047841
sg16
g36
(g70
S'\x02\x00\x00\x00'
tRp1110
sg42
g43
sg46
g47
sg15
g72
sg22
F590.78396049549337
sg64
g73
sg62
g74
sg49
g50
sS'trials.thisN'
p1111
I93
sg19
I1
sg27
g36
(g38
S'\x00\x00\x00\x00\x00\x00\x1e@'
tRp1112
sg52
g53
sg23
S'1'
sg18
F589.941378801479
sg33
g34
sg51
g11
sg20
S'2'
sg65
g36
(g77
S'\x00\x00\x00\x00\x00\x00\x00\x00'
tRp1113
sg44
g45
sg40
g41
sg25
F0.73180832003708929
sS'trials.thisIndex'
p1114
g36
(g80
S'\x13\x00\x00\x00'
tRp1115
sg26
V5
sS'trials.thisRepN'
p1116
I0
sg66
Vcouch
p1117
sg63
V../experiment_stimuli/bw_bc_bl/Nonliving_Things/Furniture/couch_22.jpg
p1118
sg21
F0.82202974578831345
sS'trials.thisTrialN'
p1119
I93
sa(dp1120
g31
g32
sg17
F593.28206478734501
sg24
I0
sg35
g39
sg14
F593.24866534152534
sg16
g36
(g70
S'\x01\x00\x00\x00'
tRp1121
sg42
g43
sg46
g47
sg15
g124
sg22
F597.04758220596705
sg64
g73
sg62
g74
sg49
g50
sS'trials.thisN'
p1122
I94
sg19
I1
sg27
g36
(g38
S'\x00\x00\x00\x00\x00\x00\x1e@'
tRp1123
sg52
g53
sg23
S'2'
sg18
F594.52135112253018
sg33
g34
sg51
g11
sg20
S'1'
sg65
g36
(g77
S'\x00\x00\x00\x00\x00\x00\x00\x00'
tRp1124
sg44
g45
sg40
g41
sg25
F0.29084369947668165
sS'trials.thisIndex'
p1125
g36
(g80
S'\x08\x00\x00\x00'
tRp1126
sg26
V5
sS'trials.thisRepN'
p1127
I0
sg66
Vbookcase
p1128
sg63
V../experiment_stimuli/bw_bc_bl/Nonliving_Things/Furniture/bookcase_11.jpg
p1129
sg21
F2.5056764810578898
sS'trials.thisTrialN'
p1130
I94
sa(dp1131
g31
g32
sg17
F599.09022071701474
sg24
I0
sg35
g39
sg14
F599.07136334409006
sg16
g36
(g70
S'\x02\x00\x00\x00'
tRp1132
sg42
g43
sg46
g47
sg15
g72
sg22
F602.20883166661952
sg64
g239
sg62
g74
sg49
g50
sS'trials.thisN'
p1133
I95
sg19
I1
sg27
g36
(g38
S'\x00\x00\x00\x00\x00\x00\x1a@'
tRp1134
sg52
g53
sg23
S'2'
sg18
F600.33400392474141
sg33
g34
sg51
g11
sg20
S'2'
sg65
g36
(g77
S'\x00\x00\x00\x00\x00\x00\x00\x00'
tRp1135
sg44
g45
sg40
g41
sg25
F0.33093699777964503
sS'trials.thisIndex'
p1136
g36
(g80
S'\x1c\x00\x00\x00'
tRp1137
sg26
V5
sS'trials.thisRepN'
p1138
I0
sg66
Vfactory
p1139
sg63
V../experiment_stimuli/bw_bc_bl/Nonliving_Things/Buildings/factory_24.jpg
p1140
sg21
F1.8542601994704455
sS'trials.thisTrialN'
p1141
I95
sasS'loops'
p1142
(lp1143
g1
(cpsychopy.data
TrialHandler
p1144
g3
NtRp1145
(dp1146
S'origin'
p1147
NsS'thisTrial'
p1148
(lp1149
sS'_exp'
p1150
I97317136
sg10
S'trials'
p1151
sg6
I-1
sS'thisRepN'
p1152
I1
sg28
I01
sg29
g30
sS'data'
p1153
g1
(cpsychopy.data
DataHandler
p1154
c__builtin__
dict
p1155
(dp1156
g20
cnumpy.core.multiarray
_reconstruct
p1157
(cnumpy
ndarray
p1158
(I0
tS'b'
tRp1159
(I1
(I96
I1
tg37
(S'O4'
I0
I1
tRp1160
(I3
S'|'
NNNI-1
I-1
I63
tbI00
(lp1161
S'1'
aS'2'
aS'1'
aS'1'
aS'1'
aS'2'
aS'2'
aS'1'
aS'1'
aS'1'
aS'1'
aS'1'
aS'1'
aS'1'
aS'2'
aS'1'
aS'1'
aS'1'
aS'1'
aS'2'
aS'1'
aS'2'
aS'2'
aS'1'
aS'1'
aS'2'
aS'1'
aS'2'
aS'2'
aS'1'
aS'1'
aS'2'
aS'1'
aS'1'
aS'1'
aS'2'
aS'2'
aS'2'
aS'1'
aS'1'
aS'2'
aS'2'
aS'2'
aS'1'
aS'1'
aS'2'
aS'2'
aS'2'
aS'2'
aS'1'
aS'2'
aS'1'
aS'1'
aS'1'
aS'1'
aS'2'
aS'1'
aS'2'
aS'1'
aS'2'
aS'1'
aS'1'
aS'1'
aS'2'
aS'1'
aS'1'
aS'2'
aS'2'
aS'2'
aS'1'
aS'1'
aS'2'
aS'2'
aS'1'
aS'1'
aS'2'
aS'1'
aS'1'
aS'1'
aS'2'
aS'2'
aS'1'
aS'2'
aS'1'
aS'1'
aS'1'
aS'2'
aS'2'
aS'2'
aS'1'
aS'1'
aS'1'
aS'1'
aS'1'
aS'2'
aS'1'
atbsg17
cnumpy.ma.core
_mareconstruct
p1162
(cnumpy.ma.core
MaskedArray
p1163
g1158
(I0
tp1164
S'b'
tRp1165
(I1
(I96
I1
tg37
(S'f4'
I0
I1
tRp1166
(I3
S'<'
NNNI-1
I-1
I0
tbI00
S'\x8a\x82hC\x85k\x0eD\xe2G\xc9C\x06\x8e\xa5C\xb6\xcb\xf1C\xf7\x9b\x0fD\x02\xfd\xd0C\xb3\x04\x03B\rR\x14D\xae\x1b\xfcC\xfe\xdc\x8fC4\x9a\x03D\x88\x0f\xb7C\xf1*\xe7C\xea\x9f\x07Dm\xf1\x93C\x1c\x90\xd5A\x07\x04\rDk\xc1uC!.\x13D\x8d"\xc0C`4\x9fA\x05\xc9\x83C?\xe6\x9dC0\xf5\x00D\xa6\x04\x04C\'\xa6OB\xab{RC\xc6\xc5\x15D\x8dCXC\x1cM\xeaC\x8c\\\xadC\x00U\xc6CPz\xd7C\xec\xab\xfeC\xd0\x0b\x12DP\xbb\xb3B\xc4D\xebB\xe7\x13\xfcB\x1aV\nDn\x10&C_%\x06D\'k\x10C\xb9c\x99B\xcc,\xbaC\xf4;\x02D\xb90\xa1C\xda\xc4t@\x94\xc6\xb0C:\xd3]C[\xde\x10D\xb6*\xabC\xe1N7C\x8e1\xecCW\xf7KC\xff\xfb\xf6C7\x95\nC\xa9\xc1\xf9C\xc2\xf1\xc1B\xc9F\x9bC\x14+-C\x1e!\xbdC\x85\xc8<Cpm\xd4C<\xad\x86C\xaeM\xcdB\xfc\x00\xddC\xb3u\xdaCn}nC\x86\xde\x08D|Q\xe4C\x94I\x80C\xe4%CC\xf5\xdd\x82BM\xc8\x1fC\xd03\x19C\x80\xd8\x89C\xda\x8c\xc3CZ\xba\x8cCL\x99\x1dB*\xcd:A\xd0\x90\x0bD\xac\xf0hB0\xb1\xb3C\x07_\xa7B\xc6:\xefC\x8b\xe5\x97C\xc6\x98\x04D\xa6\x01\x8dB\x88E{Cg\x89\xe1C\xee\xdf\xa8C2R\xccC\xe4\xd6\xf4C`\x8a\xdeB1\xc19B'
S'\x00\x00\x00\x00\x00\x00\x00\x00\x00\x00\x00\x00\x00\x00\x00\x00\x00\x00\x00\x00\x00\x00\x00\x00\x00\x00\x00\x00\x00\x00\x00\x00\x00\x00\x00\x00\x00\x00\x00\x00\x00\x00\x00\x00\x00\x00\x00\x00\x00\x00\x00\x00\x00\x00\x00\x00\x00\x00\x00\x00\x00\x00\x00\x00\x00\x00\x00\x00\x00\x00\x00\x00\x00\x00\x00\x00\x00\x00\x00\x00\x00\x00\x00\x00\x00\x00\x00\x00\x00\x00\x00\x00\x00\x00\x00\x00'
NtbsS'ran'
p1167
g1162
(g1163
g1158
g1164
S'b'
tRp1168
(I1
(I96
I1
tg1166
I00
S'\x00\x00\x80?\x00\x00\x80?\x00\x00\x80?\x00\x00\x80?\x00\x00\x80?\x00\x00\x80?\x00\x00\x80?\x00\x00\x80?\x00\x00\x80?\x00\x00\x80?\x00\x00\x80?\x00\x00\x80?\x00\x00\x80?\x00\x00\x80?\x00\x00\x80?\x00\x00\x80?\x00\x00\x80?\x00\x00\x80?\x00\x00\x80?\x00\x00\x80?\x00\x00\x80?\x00\x00\x80?\x00\x00\x80?\x00\x00\x80?\x00\x00\x80?\x00\x00\x80?\x00\x00\x80?\x00\x00\x80?\x00\x00\x80?\x00\x00\x80?\x00\x00\x80?\x00\x00\x80?\x00\x00\x80?\x00\x00\x80?\x00\x00\x80?\x00\x00\x80?\x00\x00\x80?\x00\x00\x80?\x00\x00\x80?\x00\x00\x80?\x00\x00\x80?\x00\x00\x80?\x00\x00\x80?\x00\x00\x80?\x00\x00\x80?\x00\x00\x80?\x00\x00\x80?\x00\x00\x80?\x00\x00\x80?\x00\x00\x80?\x00\x00\x80?\x00\x00\x80?\x00\x00\x80?\x00\x00\x80?\x00\x00\x80?\x00\x00\x80?\x00\x00\x80?\x00\x00\x80?\x00\x00\x80?\x00\x00\x80?\x00\x00\x80?\x00\x00\x80?\x00\x00\x80?\x00\x00\x80?\x00\x00\x80?\x00\x00\x80?\x00\x00\x80?\x00\x00\x80?\x00\x00\x80?\x00\x00\x80?\x00\x00\x80?\x00\x00\x80?\x00\x00\x80?\x00\x00\x80?\x00\x00\x80?\x00\x00\x80?\x00\x00\x80?\x00\x00\x80?\x00\x00\x80?\x00\x00\x80?\x00\x00\x80?\x00\x00\x80?\x00\x00\x80?\x00\x00\x80?\x00\x00\x80?\x00\x00\x80?\x00\x00\x80?\x00\x00\x80?\x00\x00\x80?\x00\x00\x80?\x00\x00\x80?\x00\x00\x80?\x00\x00\x80?\x00\x00\x80?\x00\x00\x80?\x00\x00\x80?'
S'\x00\x00\x00\x00\x00\x00\x00\x00\x00\x00\x00\x00\x00\x00\x00\x00\x00\x00\x00\x00\x00\x00\x00\x00\x00\x00\x00\x00\x00\x00\x00\x00\x00\x00\x00\x00\x00\x00\x00\x00\x00\x00\x00\x00\x00\x00\x00\x00\x00\x00\x00\x00\x00\x00\x00\x00\x00\x00\x00\x00\x00\x00\x00\x00\x00\x00\x00\x00\x00\x00\x00\x00\x00\x00\x00\x00\x00\x00\x00\x00\x00\x00\x00\x00\x00\x00\x00\x00\x00\x00\x00\x00\x00\x00\x00\x00'
Ntbsg24
g1162
(g1163
g1158
g1164
S'b'
tRp1169
(I1
(I96
I1
tg1166
I00
S'\x00\x00\x80?\x00\x00\x00\x00\x00\x00\x80?\x00\x00\x00\x00\x00\x00\x00\x00\x00\x00\x00\x00\x00\x00\x00\x00\x00\x00\x00\x00\x00\x00\x00\x00\x00\x00\x00\x00\x00\x00\x00\x00\x00\x00\x80?\x00\x00\x00\x00\x00\x00\x00\x00\x00\x00\x80?\x00\x00\x00\x00\x00\x00\x00\x00\x00\x00\x00\x00\x00\x00\x00\x00\x00\x00\x80?\x00\x00\x80?\x00\x00\x80?\x00\x00\x00\x00\x00\x00\x80?\x00\x00\x00\x00\x00\x00\x00\x00\x00\x00\x00\x00\x00\x00\x00\x00\x00\x00\x00\x00\x00\x00\x80?\x00\x00\x00\x00\x00\x00\x00\x00\x00\x00\x00\x00\x00\x00\x00\x00\x00\x00\x00\x00\x00\x00\x00\x00\x00\x00\x00\x00\x00\x00\x00\x00\x00\x00\x80?\x00\x00\x00\x00\x00\x00\x80?\x00\x00\x00\x00\x00\x00\x80?\x00\x00\x80?\x00\x00\x00\x00\x00\x00\x00\x00\x00\x00\x00\x00\x00\x00\x00\x00\x00\x00\x80?\x00\x00\x00\x00\x00\x00\x80?\x00\x00\x00\x00\x00\x00\x00\x00\x00\x00\x80?\x00\x00\x00\x00\x00\x00\x00\x00\x00\x00\x00\x00\x00\x00\x80?\x00\x00\x00\x00\x00\x00\x00\x00\x00\x00\x00\x00\x00\x00\x80?\x00\x00\x80?\x00\x00\x80?\x00\x00\x00\x00\x00\x00\x00\x00\x00\x00\x80?\x00\x00\x00\x00\x00\x00\x00\x00\x00\x00\x00\x00\x00\x00\x00\x00\x00\x00\x00\x00\x00\x00\x00\x00\x00\x00\x00\x00\x00\x00\x00\x00\x00\x00\x80?\x00\x00\x80?\x00\x00\x00\x00\x00\x00\x00\x00\x00\x00\x80?\x00\x00\x00\x00\x00\x00\x80?\x00\x00\x80?\x00\x00\x80?\x00\x00\x00\x00\x00\x00\x00\x00\x00\x00\x00\x00\x00\x00\x80?\x00\x00\x00\x00\x00\x00\x80?\x00\x00\x00\x00\x00\x00\x80?\x00\x00\x00\x00\x00\x00\x80?\x00\x00\x00\x00\x00\x00\x00\x00'
S'\x00\x00\x00\x00\x00\x00\x00\x00\x00\x00\x00\x00\x00\x00\x00\x00\x00\x00\x00\x00\x00\x00\x00\x00\x00\x00\x00\x00\x00\x00\x00\x00\x00\x00\x00\x00\x00\x00\x00\x00\x00\x00\x00\x00\x00\x00\x00\x00\x00\x00\x00\x00\x00\x00\x00\x00\x00\x00\x00\x00\x00\x00\x00\x00\x00\x00\x00\x00\x00\x00\x00\x00\x00\x00\x00\x00\x00\x00\x00\x00\x00\x00\x00\x00\x00\x00\x00\x00\x00\x00\x00\x00\x00\x00\x00\x00'
Ntbsg14
g1162
(g1163
g1158
g1164
S'b'
tRp1170
(I1
(I96
I1
tg1166
I00
S'\xc9\x80hC\x11j\x0eDED\xc9C\xf4\x89\xa5C_\xc6\xf1C\x17\x9a\x0fD\xa4\xf6\xd0C\x84\xe9\x02B\xeaO\x14D\xa5\x17\xfcC\xbd\xd8\x8fC(\x99\x03D\x08\x0c\xb7C"(\xe7C\xf5\x9d\x07D\xee\xec\x93C\x9cQ\xd5A\x9a\x01\rD\xcc\xb8uC\x14,\x13D\xe3\x1d\xc0C\xde\xf5\x9eA\xed\xc3\x83C\xd8\xe1\x9dC3\xf3\x00D\x84\xfe\x03C\xe3\x84OB\xeeqRC\x91\xc4\x15D\xd7<XC\xe1I\xeaC\x8bX\xadC\xb4P\xc6Clv\xd7C\xb7\xa9\xfeC\xe3\x08\x12Dr\xb4\xb3B\xcc9\xebBu\xfb\xfbB\x97T\nD\x1e\x02&C\x88#\x06D\x95a\x10C\xd2S\x99B\xa5(\xbaC\xf4:\x02D\xa3,\xa1C\xea\x99q@!\xc2\xb0C\xbe\xcc]C\xb6\xdc\x10D\xae&\xabC0I7C~-\xecCL\xeeKC\xa1\xf8\xf6C\xf9\x8e\nC\x03\xbe\xf9CS\xe5\xc1B`@\x9bC@"-C\x7f\x1d\xbdC\x00\xc2<C|j\xd4C\xa9\xaa\x86C\x8f=\xcdB\x0f\xfc\xdcC@t\xdaC\xbftnC\x17\xdc\x08D9N\xe4C\x19G\x80C\x95\x1cCCc\xcc\x82B1\xc1\x1fC+.\x19C\x1a\xd4\x89C\t\x8a\xc3Cm\xb4\x8cCt}\x1dB0\x1d:A\x84\x8f\x0bD\xa9\xdahB\xfe\xad\xb3C\x82V\xa7B%8\xefC\x0e\xe1\x97C&\x97\x04D\xa0\xeb\x8cBo>{C\xb5\x83\xe1Cq\xdc\xa8C5P\xccCO\xd2\xf4C\xa1\x84\xdeB+\xb69B'
S'\x00\x00\x00\x00\x00\x00\x00\x00\x00\x00\x00\x00\x00\x00\x00\x00\x00\x00\x00\x00\x00\x00\x00\x00\x00\x00\x00\x00\x00\x00\x00\x00\x00\x00\x00\x00\x00\x00\x00\x00\x00\x00\x00\x00\x00\x00\x00\x00\x00\x00\x00\x00\x00\x00\x00\x00\x00\x00\x00\x00\x00\x00\x00\x00\x00\x00\x00\x00\x00\x00\x00\x00\x00\x00\x00\x00\x00\x00\x00\x00\x00\x00\x00\x00\x00\x00\x00\x00\x00\x00\x00\x00\x00\x00\x00\x00'
Ntbsg16
g1157
(g1158
(I0
tS'b'
tRp1171
(I1
(I96
I1
tg1160
I00
(lp1172
g449
ag1066
ag747
ag615
ag890
ag1077
ag769
ag123
ag1121
ag934
ag549
ag978
ag681
ag846
ag1011
ag560
ag111
ag1055
ag471
ag1110
ag714
ag100
ag505
ag593
ag956
ag295
ag159
ag416
ag1132
ag427
ag857
ag648
ag736
ag791
ag945
ag1099
ag227
ag272
ag284
ag1033
ag350
ag1000
ag317
ag205
ag692
ag967
ag604
ag71
ag659
ag438
ag1088
ag637
ag372
ag868
ag405
ag912
ag306
ag923
ag238
ag582
ag361
ag703
ag383
ag780
ag516
ag250
ag813
ag802
ag460
ag1022
ag835
ag494
ag394
ag181
ag339
ag328
ag527
ag725
ag538
ag136
ag87
ag1044
ag170
ag670
ag216
ag879
ag571
ag989
ag193
ag483
ag824
ag626
ag758
ag901
ag261
ag148
atbsg15
g1157
(g1158
(I0
tS'b'
tRp1173
(I1
(I96
I1
tg1160
I00
(lp1174
g124
ag72
ag124
ag124
ag124
ag124
ag72
ag124
ag124
ag124
ag124
ag72
ag124
ag72
ag124
ag72
ag72
ag124
ag72
ag72
ag124
ag72
ag72
ag72
ag124
ag124
ag124
ag72
ag72
ag124
ag72
ag72
ag72
ag124
ag124
ag72
ag72
ag124
ag72
ag124
ag124
ag72
ag72
ag124
ag124
ag124
ag72
ag72
ag124
ag124
ag72
ag72
ag124
ag124
ag72
ag124
ag72
ag124
ag72
ag72
ag124
ag124
ag72
ag72
ag72
ag124
ag124
ag124
ag124
ag124
ag124
ag124
ag72
ag72
ag72
ag72
ag72
ag72
ag72
ag72
ag72
ag124
ag124
ag124
ag72
ag72
ag72
ag124
ag72
ag124
ag72
ag124
ag124
ag124
ag72
ag72
atbsg22
g1162
(g1163
g1158
g1164
S'b'
tRp1175
(I1
(I96
I1
tg1166
I00
S'\xa93lC\xdf\x10\x0fD\x04Q\xcbC\x00\x8f\xa7C.\xaf\xf3C\x10V\x10D\x08a\xd3C"\xf3\x12B\x0cC\x15D\x00\x96\xfdC\xa6\xd6\x92C\x0c\x1c\x04D<\r\xb9C\x9d*\xe9C\x11=\x08D\xa1O\x96C$\x1a\xf0A;\xd7\rD\xcb\xfaxC,\xb2\x13D\xd8\x8a\xc2C\x89a\xb8A\x8d\x87\x85C\x08\'\xa0C\xde\xb6\x01D\xc8\xfb\x07C\x8b1^B\x88\xdfUC]\x8d\x16Du\xe7ZC1 \xebCc\xb7\xafC;A\xc8CXm\xd9C?t\x00D\xff\xa7\x12D\x8a\x19\xbaB\x1b\x88\xf6B\x14\xd7\x01C%\n\x0bD6\x0c*C\x0b\r\x07D\xaag\x16C\xe6\xec\xa0Bt\x1a\xbcCn\x14\x03D\x89n\xa4C\xb9\xa3\xeb@E_\xb2C\xbe-fC\x1a}\x11D\xa2Q\xacC-\x8b:C\x17>\xeeCi3PC\xf2\x88\xf8C\x10#\x0eCO\xd8\xfaC\x84\x87\xc7B\xab\xd9\x9cC\xc0\xe64C\xff\x16\xbfC\xd5\xc1@C>3\xd6C\x1b\xbf\x88C`\xc9\xd8B\x00\xf3\xdeCb\xd6\xdbC\xbeesCn\xd2\tDD\x18\xe6C\xb4\x92\x82Ck\x8eIC\xda\x91\x87B\x8a\x9a#C\xd5:\x1dC\xf9\xaa\x8bC\x89H\xc5C\x9b\xbe\x8eC2\xcd*B\xb0\xf7_A\xee\x83\x0cD\xf9\xedwB\x89\x0b\xb6C\xba\xa7\xaeB\x05\x90\xf0Cm\xd5\x99C6j\x05DT\x9e\x94B\xfc\x82~C\xcf2\xe3C\x9e,\xaaCR\xf2\xcfC"\x01\xf6C\xef\'\xe6B\xf7\x7fEB'
S'\x00\x00\x00\x00\x00\x00\x00\x00\x00\x00\x00\x00\x00\x00\x00\x00\x00\x00\x00\x00\x00\x00\x00\x00\x00\x00\x00\x00\x00\x00\x00\x00\x00\x00\x00\x00\x00\x00\x00\x00\x00\x00\x00\x00\x00\x00\x00\x00\x00\x00\x00\x00\x00\x00\x00\x00\x00\x00\x00\x00\x00\x00\x00\x00\x00\x00\x00\x00\x00\x00\x00\x00\x00\x00\x00\x00\x00\x00\x00\x00\x00\x00\x00\x00\x00\x00\x00\x00\x00\x00\x00\x00\x00\x00\x00\x00'
Ntbsg26
g1157
(g1158
(I0
tS'b'
tRp1176
(I1
(I96
I1
tg1160
I00
(lp1177
g36
(g80
S'\x01\x00\x00\x00'
tRp1178
ag36
(g80
S'\x03\x00\x00\x00'
tRp1179
aI1
ag36
(g80
S'\x01\x00\x00\x00'
tRp1180
aI1
ag36
(g80
S'\x02\x00\x00\x00'
tRp1181
aI1
ag36
(g80
S'\x02\x00\x00\x00'
tRp1182
ag36
(g80
S'\x03\x00\x00\x00'
tRp1183
ag36
(g80
S'\x05\x00\x00\x00'
tRp1184
ag36
(g80
S'\x02\x00\x00\x00'
tRp1185
aI1
ag36
(g80
S'\x04\x00\x00\x00'
tRp1186
aI1
ag36
(g80
S'\x02\x00\x00\x00'
tRp1187
ag36
(g80
S'\x01\x00\x00\x00'
tRp1188
ag36
(g80
S'\x03\x00\x00\x00'
tRp1189
ag36
(g80
S'\x04\x00\x00\x00'
tRp1190
ag36
(g80
S'\x02\x00\x00\x00'
tRp1191
ag36
(g80
S'\x01\x00\x00\x00'
tRp1192
ag36
(g80
S'\x02\x00\x00\x00'
tRp1193
ag36
(g80
S'\x01\x00\x00\x00'
tRp1194
ag36
(g80
S'\x01\x00\x00\x00'
tRp1195
aI1
ag36
(g80
S'\x01\x00\x00\x00'
tRp1196
ag36
(g80
S'\x02\x00\x00\x00'
tRp1197
aI1
ag36
(g80
S'\x02\x00\x00\x00'
tRp1198
ag36
(g80
S'\x02\x00\x00\x00'
tRp1199
ag36
(g80
S'\x01\x00\x00\x00'
tRp1200
aI1
aI1
aI1
ag36
(g80
S'\x02\x00\x00\x00'
tRp1201
ag36
(g80
S'\x02\x00\x00\x00'
tRp1202
ag36
(g80
S'\x02\x00\x00\x00'
tRp1203
ag36
(g80
S'\x02\x00\x00\x00'
tRp1204
aI1
aI1
ag36
(g80
S'\x03\x00\x00\x00'
tRp1205
ag36
(g80
S'\x01\x00\x00\x00'
tRp1206
ag36
(g80
S'\x05\x00\x00\x00'
tRp1207
aI1
ag36
(g80
S'\x01\x00\x00\x00'
tRp1208
ag36
(g80
S'\x02\x00\x00\x00'
tRp1209
aI1
ag36
(g80
S'\x02\x00\x00\x00'
tRp1210
aS'5.0'
p1211
aI1
ag36
(g80
S'\x02\x00\x00\x00'
tRp1212
ag36
(g80
S'\x01\x00\x00\x00'
tRp1213
ag36
(g80
S'\x02\x00\x00\x00'
tRp1214
ag36
(g80
S'\x02\x00\x00\x00'
tRp1215
aI1
ag36
(g80
S'\x03\x00\x00\x00'
tRp1216
ag36
(g80
S'\x04\x00\x00\x00'
tRp1217
ag36
(g80
S'\x01\x00\x00\x00'
tRp1218
ag36
(g80
S'\x02\x00\x00\x00'
tRp1219
aI1
aI1
ag36
(g80
S'\x03\x00\x00\x00'
tRp1220
ag36
(g80
S'\x01\x00\x00\x00'
tRp1221
ag36
(g80
S'\x01\x00\x00\x00'
tRp1222
aI1
aI1
aI1
aI1
ag36
(g80
S'\x01\x00\x00\x00'
tRp1223
ag36
(g80
S'\x03\x00\x00\x00'
tRp1224
ag36
(g80
S'\x05\x00\x00\x00'
tRp1225
aI1
ag36
(g80
S'\x04\x00\x00\x00'
tRp1226
ag36
(g80
S'\x04\x00\x00\x00'
tRp1227
ag36
(g80
S'\x04\x00\x00\x00'
tRp1228
ag36
(g80
S'\x04\x00\x00\x00'
tRp1229
ag36
(g80
S'\x02\x00\x00\x00'
tRp1230
aI1
ag36
(g80
S'\x03\x00\x00\x00'
tRp1231
ag36
(g80
S'\x03\x00\x00\x00'
tRp1232
ag36
(g80
S'\x01\x00\x00\x00'
tRp1233
ag36
(g80
S'\x03\x00\x00\x00'
tRp1234
ag36
(g80
S'\x02\x00\x00\x00'
tRp1235
aI1
ag36
(g80
S'\x02\x00\x00\x00'
tRp1236
ag36
(g80
S'\x04\x00\x00\x00'
tRp1237
ag36
(g80
S'\x03\x00\x00\x00'
tRp1238
aI1
ag36
(g80
S'\x02\x00\x00\x00'
tRp1239
ag36
(g80
S'\x02\x00\x00\x00'
tRp1240
aI1
ag36
(g80
S'\x03\x00\x00\x00'
tRp1241
aI1
ag36
(g80
S'\x02\x00\x00\x00'
tRp1242
aI1
aI1
ag36
(g80
S'\x02\x00\x00\x00'
tRp1243
atbsg21
g1162
(g1163
g1158
g1164
S'b'
tRp1244
(I1
(I96
I1
tg1166
I00
S'\x15\x84\x1c@\xfd[\xa9?l\xe34@*\n1@\xeeF"@\x01h\xd2?}mb@ky.@\x01] @4A\xd6?%j\x96@\xa2-H?\r1-@\xbc\xc1/@C\xf7\x99?\xd38_@\x1e\x80\x03@\x8d\x93\x01@\xbbt\xfb?\x8bpR?\xd8\x11c@]\xc2\xf3?\xf7\xaf\x0f@6xP@\x0e\x15\xe3?\xad0-@\xb7N\x19@\xbf\xa1\x08@fX\xed?:V\xb2?2=\xc8>\xee\xef]@#\xc7&@+U)@D\xe7M@\xc4f\x97?,\x96\xf7?\ry\x8c@\xee\x91#@#\x94\xc5?\x8a\x1d/@\xa0u\x15@\x83\xb2\x97@%\xa6!@\x06\xc7&@f\xfd\x07@Ti\xa7@\xec\xaf\x0f@\xe0\xe3\xf8?\xe8\x0f\xe3@v\x87\x9c?\x8e\xb3\x86?\x9d\xbd\xfc?/\xd06@n\xde=@\xbe6\xe8?\x81\x89\x13@\xef\x16l?=\x94\xc5?O\xc2\xf3?\x95\xdb\xce@WD+@)\xd5-@\x08\x89\x13@ a9@\xea\xfe\x8f@\xa6\xb3(@\xfa)\xbf?K\xd7h@b\xa5!@}\x89\x13@\x93\x08S@W4\xa4@`D\x89?\xc0\xed"@\xa0\xae1@\x9e\xaa\x18@m\x1f\r@ \n1@\t\x80\x03@\x9b\x02\x88?\xc9\xed"@\x08] @\x03\xa5\\@\x18b\x17@\xb6\x9e\xb3?\\\x0f(@C\xef\x00@\x0f\x92#@\xdaM\xff?\x89\x80\x03@\xad4\xad?\x14\xc9\xbf@~\x91\x8a?66$@\x9d\x89\xd7?'
S'\x00\x00\x00\x00\x00\x00\x00\x00\x00\x00\x00\x00\x00\x00\x00\x00\x00\x00\x00\x00\x00\x00\x00\x00\x00\x00\x00\x00\x00\x00\x00\x00\x00\x00\x00\x00\x00\x00\x00\x00\x00\x00\x00\x00\x00\x00\x00\x00\x00\x00\x00\x00\x00\x00\x00\x00\x00\x00\x00\x00\x00\x00\x00\x00\x00\x00\x00\x00\x00\x00\x00\x00\x00\x00\x00\x00\x00\x00\x00\x00\x00\x00\x00\x00\x00\x00\x00\x00\x00\x00\x00\x00\x00\x00\x00\x00'
NtbsS'order'
p1245
g1162
(g1163
g1158
g1164
S'b'
tRp1246
(I1
(I96
I1
tg1166
I00
S'\x00\x00\x04B\x00\x00\xb2B\x00\x00pB\x00\x00@B\x00\x00\x92B\x00\x00\xb4B\x00\x00xB\x00\x00\x80@\x00\x00\xbcB\x00\x00\x9aB\x00\x00(B\x00\x00\xa2B\x00\x00XB\x00\x00\x8aB\x00\x00\xa8B\x00\x00,B\x00\x00@@\x00\x00\xb0B\x00\x00\x0cB\x00\x00\xbaB\x00\x00dB\x00\x00\x00@\x00\x00\x18B\x00\x008B\x00\x00\x9eB\x00\x00\x98A\x00\x00\xe0@\x00\x00\xf0A\x00\x00\xbeB\x00\x00\xf8A\x00\x00\x8cB\x00\x00LB\x00\x00lB\x00\x00\x80B\x00\x00\x9cB\x00\x00\xb8B\x00\x00PA\x00\x00\x88A\x00\x00\x90A\x00\x00\xacB\x00\x00\xc0A\x00\x00\xa6B\x00\x00\xa8A\x00\x000A\x00\x00\\B\x00\x00\xa0B\x00\x00<B\x00\x00\x00\x00\x00\x00PB\x00\x00\x00B\x00\x00\xb6B\x00\x00HB\x00\x00\xd0A\x00\x00\x8eB\x00\x00\xe8A\x00\x00\x96B\x00\x00\xa0A\x00\x00\x98B\x00\x00`A\x00\x004B\x00\x00\xc8A\x00\x00`B\x00\x00\xd8A\x00\x00|B\x00\x00\x1cB\x00\x00pA\x00\x00\x84B\x00\x00\x82B\x00\x00\x08B\x00\x00\xaaB\x00\x00\x88B\x00\x00\x14B\x00\x00\xe0A\x00\x00\x10A\x00\x00\xb8A\x00\x00\xb0A\x00\x00 B\x00\x00hB\x00\x00$B\x00\x00\xa0@\x00\x00\x80?\x00\x00\xaeB\x00\x00\x00A\x00\x00TB\x00\x00@A\x00\x00\x90B\x00\x000B\x00\x00\xa4B\x00\x00 A\x00\x00\x10B\x00\x00\x86B\x00\x00DB\x00\x00tB\x00\x00\x94B\x00\x00\x80A\x00\x00\xc0@'
S'\x00\x00\x00\x00\x00\x00\x00\x00\x00\x00\x00\x00\x00\x00\x00\x00\x00\x00\x00\x00\x00\x00\x00\x00\x00\x00\x00\x00\x00\x00\x00\x00\x00\x00\x00\x00\x00\x00\x00\x00\x00\x00\x00\x00\x00\x00\x00\x00\x00\x00\x00\x00\x00\x00\x00\x00\x00\x00\x00\x00\x00\x00\x00\x00\x00\x00\x00\x00\x00\x00\x00\x00\x00\x00\x00\x00\x00\x00\x00\x00\x00\x00\x00\x00\x00\x00\x00\x00\x00\x00\x00\x00\x00\x00\x00\x00'
Ntbsg19
g1162
(g1163
g1158
g1164
S'b'
tRp1247
(I1
(I96
I1
tg1166
I00
S'\x00\x00\x80?\x00\x00\x00\x00\x00\x00\x80?\x00\x00\x80?\x00\x00\x00\x00\x00\x00\x00\x00\x00\x00\x80?\x00\x00\x80?\x00\x00\x80?\x00\x00\x80?\x00\x00\x00\x00\x00\x00\x00\x00\x00\x00\x80?\x00\x00\x80?\x00\x00\x00\x00\x00\x00\x00\x00\x00\x00\x80?\x00\x00\x80?\x00\x00\x00\x00\x00\x00\x80?\x00\x00\x00\x00\x00\x00\x00\x00\x00\x00\x80?\x00\x00\x80?\x00\x00\x00\x00\x00\x00\x00\x00\x00\x00\x00\x00\x00\x00\x00\x00\x00\x00\x80?\x00\x00\x80?\x00\x00\x00\x00\x00\x00\x80?\x00\x00\x80?\x00\x00\x00\x00\x00\x00\x00\x00\x00\x00\x80?\x00\x00\x80?\x00\x00\x00\x00\x00\x00\x80?\x00\x00\x00\x00\x00\x00\x80?\x00\x00\x80?\x00\x00\x00\x00\x00\x00\x00\x00\x00\x00\x00\x00\x00\x00\x80?\x00\x00\x80?\x00\x00\x80?\x00\x00\x80?\x00\x00\x00\x00\x00\x00\x00\x00\x00\x00\x80?\x00\x00\x00\x00\x00\x00\x80?\x00\x00\x00\x00\x00\x00\x80?\x00\x00\x80?\x00\x00\x80?\x00\x00\x00\x00\x00\x00\x00\x00\x00\x00\x00\x00\x00\x00\x00\x00\x00\x00\x00\x00\x00\x00\x00\x00\x00\x00\x00\x00\x00\x00\x00\x00\x00\x00\x00\x00\x00\x00\x80?\x00\x00\x80?\x00\x00\x80?\x00\x00\x00\x00\x00\x00\x00\x00\x00\x00\x80?\x00\x00\x80?\x00\x00\x80?\x00\x00\x00\x00\x00\x00\x00\x00\x00\x00\x00\x00\x00\x00\x00\x00\x00\x00\x00\x00\x00\x00\x00\x00\x00\x00\x80?\x00\x00\x80?\x00\x00\x80?\x00\x00\x80?\x00\x00\x80?\x00\x00\x80?\x00\x00\x00\x00\x00\x00\x80?\x00\x00\x80?\x00\x00\x80?\x00\x00\x80?\x00\x00\x80?\x00\x00\x80?\x00\x00\x00\x00\x00\x00\x80?'
S'\x00\x00\x00\x00\x00\x00\x00\x00\x00\x00\x00\x00\x00\x00\x00\x00\x00\x00\x00\x00\x00\x00\x00\x00\x00\x00\x00\x00\x00\x00\x00\x00\x00\x00\x00\x00\x00\x00\x00\x00\x00\x00\x00\x00\x00\x00\x00\x00\x00\x00\x00\x00\x00\x00\x00\x00\x00\x00\x00\x00\x00\x00\x00\x00\x00\x00\x00\x00\x00\x00\x00\x00\x00\x00\x00\x00\x00\x00\x00\x00\x00\x00\x00\x00\x00\x00\x00\x00\x00\x00\x00\x00\x00\x00\x00\x00'
Ntbsg27
g1157
(g1158
(I0
tS'b'
tRp1248
(I1
(I96
I1
tg1160
I00
(lp1249
g451
ag1068
ag749
ag617
ag892
ag1079
ag771
ag127
ag1123
ag936
ag551
ag980
ag683
ag848
ag1013
ag562
ag114
ag1057
ag474
ag1112
ag716
ag102
ag507
ag595
ag958
ag297
ag161
ag418
ag1134
ag429
ag859
ag650
ag738
ag793
ag947
ag1101
ag229
ag275
ag286
ag1035
ag352
ag1002
ag319
ag207
ag694
ag969
ag606
ag76
ag661
ag440
ag1090
ag639
ag374
ag870
ag407
ag914
ag308
ag925
ag241
ag584
ag363
ag705
ag385
ag782
ag518
ag252
ag815
ag804
ag462
ag1024
ag837
ag496
ag396
ag184
ag341
ag330
ag529
ag727
ag540
ag139
ag91
ag1046
ag172
ag672
ag218
ag881
ag573
ag991
ag196
ag485
ag826
ag628
ag760
ag903
ag263
ag150
atbsg23
g1157
(g1158
(I0
tS'b'
tRp1250
(I1
(I96
I1
tg1160
I00
(lp1251
S'1'
aS'2'
aS'1'
aS'2'
aS'3'
aS'2'
aS'2'
aS'2'
aS'2'
aS'3'
aS'2'
aS'1'
aS'3'
aS'2'
aS'1'
aS'3'
aS'2'
aS'2'
aS'3'
aS'1'
aS'1'
aS'1'
aS'2'
aS'1'
aS'2'
aS'2'
aS'2'
aS'2'
aS'2'
aS'1'
aS'2'
aS'2'
aS'2'
aS'2'
aS'2'
aS'2'
aS'3'
aS'2'
aS'1'
aS'2'
aS'1'
aS'3'
aS'1'
aS'1'
aS'2'
aS'2'
aS'2'
aS'3'
aS'1'
aS'2'
aS'1'
aS'3'
aS'2'
aS'1'
aS'2'
aS'3'
aS'2'
aS'1'
aS'2'
aS'2'
aS'2'
aS'1'
aS'1'
aS'1'
aS'2'
aS'2'
aS'1'
aS'3'
aS'2'
aS'3'
aS'2'
aS'3'
aS'2'
aS'3'
aS'3'
aS'1'
aS'1'
aS'3'
aS'2'
aS'1'
aS'3'
aS'1'
aS'1'
aS'1'
aS'3'
aS'3'
aS'2'
aS'1'
aS'2'
aS'1'
aS'3'
aS'1'
aS'3'
aS'1'
aS'2'
aS'3'
atbsg18
g1162
(g1163
g1158
g1164
S'b'
tRp1252
(I1
(I96
I1
tg1166
I00
S'T\xbciC\xe0\xba\x0eD\x9b\xe4\xc9CJ*\xa6C\xfeg\xf2C\x8b\xeb\x0fD\x8b\x99\xd1C}\xf6\x07B^\xa1\x14D\x1c\xbd\xfcC\\z\x90C\xaf\xe8\x03D8\xb0\xb7Cx\xc8\xe7C\xc4\xee\x07D\x8d\x8e\x94C*\x80\xdfAVT\rD\x9a\xfevC@|\x13D\xca\xc0\xc0C@\xfb\xa8A\x8be\x84Cv\x83\x9eC\x03D\x01D\xc1A\x05C\x8e\x87TB\xbc\xb7SC`\x15\x16D\x83}YC\x7f\xeb\xeaC\xe1\xf8\xadC\n\xf1\xc6C\x0b\x18\xd8C\x0eJ\xffC\xfaZ\x12D\xa80\xb6B\x03\xb6\xedB\x12\x87\xfeB\x0b\xa6\nD}J\'CDv\x06D\xd2\xa4\x11C*\xd5\x9bBD\xca\xbaC\x1f\x8b\x02DB\xce\xa1C\x16\xcf\xa2@\xbfc\xb1C\xfb\x0f_C\x86-\x11DL\xc8\xabC\xdc\x898C\xd4\xcd\xecC\xab6MC\x19\x9e\xf7C\xa6\xcf\x0bC\xa2_\xfaC\xa9f\xc4BG\xe3\x9bC\x9ej.C\xd5\xbd\xbdC\xac\x02>C\x8a\t\xd5C\xb7I\x87C\xe8\xbe\xcfB\xf7\x9e\xddCN\x13\xdbC\x1d\xbdoCw/\tD\x8f\xee\xe4C\x00\xea\x80C\x84gDCAb\x85B\x8f\t!C\xd7n\x1aC\xb9u\x8aC\xa8+\xc4C\xe5Y\x8dC(\x80"B\x1d\xa3NA\xaf\xdf\x0bD\x1b\xd3mB\x9dO\xb4C\x1f\xe2\xa9B\xc4\xd9\xefC\xad\x82\x98C\xf6\xe7\x04D=w\x8fB\x1c\x7f|C-)\xe2C\xc8|\xa9C\x8c\xf0\xccC\xees\xf5C\xb8\xfb\xe0B\x93\xae>B'
S'\x00\x00\x00\x00\x00\x00\x00\x00\x00\x00\x00\x00\x00\x00\x00\x00\x00\x00\x00\x00\x00\x00\x00\x00\x00\x00\x00\x00\x00\x00\x00\x00\x00\x00\x00\x00\x00\x00\x00\x00\x00\x00\x00\x00\x00\x00\x00\x00\x00\x00\x00\x00\x00\x00\x00\x00\x00\x00\x00\x00\x00\x00\x00\x00\x00\x00\x00\x00\x00\x00\x00\x00\x00\x00\x00\x00\x00\x00\x00\x00\x00\x00\x00\x00\x00\x00\x00\x00\x00\x00\x00\x00\x00\x00\x00\x00'
Ntbsg25
g1162
(g1163
g1158
g1164
S'b'
tRp1253
(I1
(I96
I1
tg1166
I00
S'\x96x\x05?\x95i\xd2>\x86\x85\x85>\x1aC_?\xd8\x98\n?\x9b\xf6\xbd>\xf1\x94\xae>\xe1\xf5f?w\xe9\x94>b\x9f\xd7>\x95\xe2\xe1>\x1f\x0cC>\xb0g\xf6>\xaa\xe7\x02?\xd7z@?\x8d\x99\xb3?\x9f|{?u\xba\x0f?\xab\xfd\x07?\xcaW;?\xed\x84\x85>w1\xf1?\x14\x99\n?\xb30\x9f>5o\xa9>\x7f\x90W?\xc4\xa8n?\x07\xb0!?\x93p\xa9>\x04\xd5\x94?\xd7\xf5\xbd>z\xb6\xb3>E\xec\x94>\xccN\xa4>HO\x80>y[\xa9>I\x8e\n@\xa3\x0c~?L\x9e\xd7>_\xb3\xb3>\x8b4\xad?\xda\x07\x08?3p\x85?n\x99\xbc?\xea\xe9\x94>\x86}\xae>\x0cg\xf6>\xbdI"@\x9c\xd3a?\x8dl\x17?=\x03\xe7>\xafN\xa4>rh\xf6>\xc5\xfca>\xf4\xe5\x02?\x10\x84.?J\xe6\x02?\xaa\nC?\xff\xb3\x8f?\xcbp\xa9>\x90\xd1&?dN\xa4>\xbf\x1e\x1f?\xf4\xbcJ?\x89\xc1\xdc>p\xfc\x90?\x91rY@m\xba\x0f?\xb3l\x17?C\x0c\x9a>\xe09\xc8>\xa8\xd8&?\xe2@$?/:q?*\xf3+?!\xbdJ?\x8c\x92\xae>o\\\xa9>YF\xf1>\xb6M\xff?\x8at\x84@\xd3?l>\x03\x8a\xd7?\xba\xab\x8a>\x07\xbdJ?N\x141?\x91"\x8d?u\x8c\x93?\x1c\x1f\x1f?z,\x9f>\xb1h\xf6>\'\xfda>\x8d\xf7\x99>\xbewM>cMM?\xf1\x9aE?'
S'\x00\x00\x00\x00\x00\x00\x00\x00\x00\x00\x00\x00\x00\x00\x00\x00\x00\x00\x00\x00\x00\x00\x00\x00\x00\x00\x00\x00\x00\x00\x00\x00\x00\x00\x00\x00\x00\x00\x00\x00\x00\x00\x00\x00\x00\x00\x00\x00\x00\x00\x00\x00\x00\x00\x00\x00\x00\x00\x00\x00\x00\x00\x00\x00\x00\x00\x00\x00\x00\x00\x00\x00\x00\x00\x00\x00\x00\x00\x00\x00\x00\x00\x00\x00\x00\x00\x00\x00\x00\x00\x00\x00\x00\x00\x00\x00'
NtbstRp1254
(dp1255
S'isNumeric'
p1256
(dp1257
g23
I00
sg20
I00
sg17
I01
sg1167
I01
sg22
I01
sg24
I01
sg14
I01
sg18
I01
sg16
I00
sg19
I01
sg26
I00
sg27
I00
sg15
I00
sg21
I01
sg1245
I01
sg25
I01
ssg1151
g1145
sS'dataTypes'
p1258
(lp1259
g1167
ag1245
ag14
ag15
ag16
ag17
ag18
ag19
ag20
ag21
ag22
ag23
ag24
ag25
ag26
ag27
asS'dataShape'
p1260
(lp1261
I96
aI1
asbsS'method'
p1262
S'random'
p1263
sS'sequenceIndices'
p1264
g1157
(g1158
(I0
tS'b'
tRp1265
(I1
(I96
I1
tg80
I01
S'/\x00\x00\x00P\x00\x00\x00\x15\x00\x00\x00\x10\x00\x00\x00\x07\x00\x00\x00O\x00\x00\x00_\x00\x00\x00\x1a\x00\x00\x00R\x00\x00\x00I\x00\x00\x00X\x00\x00\x00+\x00\x00\x00T\x00\x00\x00$\x00\x00\x00:\x00\x00\x00A\x00\x00\x00^\x00\x00\x00%\x00\x00\x00&\x00\x00\x00\x19\x00\x00\x008\x00\x00\x00*\x00\x00\x00K\x00\x00\x00J\x00\x00\x00(\x00\x00\x00<\x00\x00\x004\x00\x00\x00>\x00\x00\x00H\x00\x00\x006\x00\x00\x00\x1b\x00\x00\x00\x1d\x00\x00\x001\x00\x00\x00\x00\x00\x00\x00D\x00\x00\x00\x12\x00\x00\x00Y\x00\x00\x00G\x00\x00\x00\x16\x00\x00\x00@\x00\x00\x00L\x00\x00\x00N\x00\x00\x00\n\x00\x00\x00\x0f\x00\x00\x00V\x00\x00\x00;\x00\x00\x00\x17\x00\x00\x00.\x00\x00\x00\x03\x00\x00\x00[\x00\x00\x003\x00\x00\x00\x1f\x00\x00\x000\x00\x00\x00S\x00\x00\x00\x0c\x00\x00\x00,\x00\x00\x00=\x00\x00\x00\x14\x00\x00\x00M\x00\x00\x00 \x00\x00\x00\x02\x00\x00\x00\\\x00\x00\x00\x06\x00\x00\x00?\x00\x00\x00!\x00\x00\x00C\x00\x00\x00B\x00\x00\x00Z\x00\x00\x00F\x00\x00\x00\r\x00\x00\x00\x1e\x00\x00\x005\x00\x00\x00U\x00\x00\x00\x04\x00\x00\x00]\x00\x00\x007\x00\x00\x009\x00\x00\x00\t\x00\x00\x00"\x00\x00\x00\x18\x00\x00\x00-\x00\x00\x00\x0b\x00\x00\x00W\x00\x00\x00)\x00\x00\x00\x0e\x00\x00\x00E\x00\x00\x00\'\x00\x00\x00Q\x00\x00\x00\x11\x00\x00\x00\x01\x00\x00\x00\x05\x00\x00\x002\x00\x00\x00#\x00\x00\x00\x13\x00\x00\x00\x08\x00\x00\x00\x1c\x00\x00\x00'
tbsS'finished'
p1266
I01
sS'nReps'
p1267
I1
sS'nRemaining'
p1268
I-1
sS'trialList'
p1269
(lp1270
g1
(cpsychopy.data
TrialType
p1271
g1155
(dp1272
g62
g74
sg63
g457
sg64
g73
sg65
g452
sg66
g456
stRp1273
ag1
(g1271
g1155
(dp1274
g62
g89
sg63
g1074
sg64
g112
sg65
g1069
sg66
g1073
stRp1275
ag1
(g1271
g1155
(dp1276
g62
g74
sg63
g755
sg64
g73
sg65
g750
sg66
g754
stRp1277
ag1
(g1271
g1155
(dp1278
g62
g74
sg63
g623
sg64
g273
sg65
g618
sg66
g622
stRp1279
ag1
(g1271
g1155
(dp1280
g62
g89
sg63
g898
sg64
g137
sg65
g893
sg66
g897
stRp1281
ag1
(g1271
g1155
(dp1282
g62
g74
sg63
g1085
sg64
g73
sg65
g1080
sg66
g1084
stRp1283
ag1
(g1271
g1155
(dp1284
g62
g74
sg63
g777
sg64
g73
sg65
g772
sg66
g776
stRp1285
ag1
(g1271
g1155
(dp1286
g62
g74
sg63
g133
sg64
g125
sg65
g128
sg66
g132
stRp1287
ag1
(g1271
g1155
(dp1288
g62
g74
sg63
g1129
sg64
g73
sg65
g1124
sg66
g1128
stRp1289
ag1
(g1271
g1155
(dp1290
g62
g74
sg63
g942
sg64
g125
sg65
g937
sg66
g941
stRp1291
ag1
(g1271
g1155
(dp1292
g62
g89
sg63
g557
sg64
g182
sg65
g552
sg66
g556
stRp1293
ag1
(g1271
g1155
(dp1294
g62
g74
sg63
g986
sg64
g125
sg65
g981
sg66
g985
stRp1295
ag1
(g1271
g1155
(dp1296
g62
g74
sg63
g689
sg64
g239
sg65
g684
sg66
g688
stRp1297
ag1
(g1271
g1155
(dp1298
g62
g89
sg63
g854
sg64
g112
sg65
g849
sg66
g853
stRp1299
ag1
(g1271
g1155
(dp1300
g62
g74
sg63
g1019
sg64
g239
sg65
g1014
sg66
g1018
stRp1301
ag1
(g1271
g1155
(dp1302
g62
g74
sg63
g568
sg64
g73
sg65
g563
sg66
g567
stRp1303
ag1
(g1271
g1155
(dp1304
g62
g89
sg63
g120
sg64
g112
sg65
g115
sg66
g119
stRp1305
ag1
(g1271
g1155
(dp1306
g62
g74
sg63
g1063
sg64
g239
sg65
g1058
sg66
g1062
stRp1307
ag1
(g1271
g1155
(dp1308
g62
g74
sg63
g480
sg64
g472
sg65
g475
sg66
g479
stRp1309
ag1
(g1271
g1155
(dp1310
g62
g74
sg63
g1118
sg64
g73
sg65
g1113
sg66
g1117
stRp1311
ag1
(g1271
g1155
(dp1312
g62
g89
sg63
g722
sg64
g112
sg65
g717
sg66
g721
stRp1313
ag1
(g1271
g1155
(dp1314
g62
g89
sg63
g108
sg64
g88
sg65
g103
sg66
g107
stRp1315
ag1
(g1271
g1155
(dp1316
g62
g74
sg63
g513
sg64
g472
sg65
g508
sg66
g512
stRp1317
ag1
(g1271
g1155
(dp1318
g62
g89
sg63
g601
sg64
g88
sg65
g596
sg66
g600
stRp1319
ag1
(g1271
g1155
(dp1320
g62
g89
sg63
g964
sg64
g182
sg65
g959
sg66
g963
stRp1321
ag1
(g1271
g1155
(dp1322
g62
g74
sg63
g303
sg64
g194
sg65
g298
sg66
g302
stRp1323
ag1
(g1271
g1155
(dp1324
g62
g89
sg63
g167
sg64
g137
sg65
g162
sg66
g166
stRp1325
ag1
(g1271
g1155
(dp1326
g62
g89
sg63
g424
sg64
g112
sg65
g419
sg66
g423
stRp1327
ag1
(g1271
g1155
(dp1328
g62
g74
sg63
g1140
sg64
g239
sg65
g1135
sg66
g1139
stRp1329
ag1
(g1271
g1155
(dp1330
g62
g74
sg63
g435
sg64
g73
sg65
g430
sg66
g434
stRp1331
ag1
(g1271
g1155
(dp1332
g62
g74
sg63
g865
sg64
g472
sg65
g860
sg66
g864
stRp1333
ag1
(g1271
g1155
(dp1334
g62
g74
sg63
g656
sg64
g472
sg65
g651
sg66
g655
stRp1335
ag1
(g1271
g1155
(dp1336
g62
g89
sg63
g744
sg64
g112
sg65
g739
sg66
g743
stRp1337
ag1
(g1271
g1155
(dp1338
g62
g89
sg63
g799
sg64
g137
sg65
g794
sg66
g798
stRp1339
ag1
(g1271
g1155
(dp1340
g62
g89
sg63
g953
sg64
g137
sg65
g948
sg66
g952
stRp1341
ag1
(g1271
g1155
(dp1342
g62
g74
sg63
g1107
sg64
g239
sg65
g1102
sg66
g1106
stRp1343
ag1
(g1271
g1155
(dp1344
g62
g74
sg63
g235
sg64
g194
sg65
g230
sg66
g234
stRp1345
ag1
(g1271
g1155
(dp1346
g62
g74
sg63
g281
sg64
g273
sg65
g276
sg66
g280
stRp1347
ag1
(g1271
g1155
(dp1348
g62
g89
sg63
g292
sg64
g137
sg65
g287
sg66
g291
stRp1349
ag1
(g1271
g1155
(dp1350
g62
g89
sg63
g1041
sg64
g112
sg65
g1036
sg66
g1040
stRp1351
ag1
(g1271
g1155
(dp1352
g62
g89
sg63
g358
sg64
g112
sg65
g353
sg66
g357
stRp1353
ag1
(g1271
g1155
(dp1354
g62
g74
sg63
g1008
sg64
g239
sg65
g1003
sg66
g1007
stRp1355
ag1
(g1271
g1155
(dp1356
g62
g89
sg63
g325
sg64
g137
sg65
g320
sg66
g324
stRp1357
ag1
(g1271
g1155
(dp1358
g62
g89
sg63
g213
sg64
g88
sg65
g208
sg66
g212
stRp1359
ag1
(g1271
g1155
(dp1360
g62
g89
sg63
g700
sg64
g137
sg65
g695
sg66
g699
stRp1361
ag1
(g1271
g1155
(dp1362
g62
g89
sg63
g975
sg64
g182
sg65
g970
sg66
g974
stRp1363
ag1
(g1271
g1155
(dp1364
g62
g74
sg63
g612
sg64
g73
sg65
g607
sg66
g611
stRp1365
ag1
(g1271
g1155
(dp1366
g62
g74
sg63
g84
sg64
g73
sg65
g78
sg66
g83
stRp1367
ag1
(g1271
g1155
(dp1368
g62
g89
sg63
g667
sg64
g112
sg65
g662
sg66
g666
stRp1369
ag1
(g1271
g1155
(dp1370
g62
g89
sg63
g446
sg64
g88
sg65
g441
sg66
g445
stRp1371
ag1
(g1271
g1155
(dp1372
g62
g89
sg63
g1096
sg64
g112
sg65
g1091
sg66
g1095
stRp1373
ag1
(g1271
g1155
(dp1374
g62
g89
sg63
g645
sg64
g137
sg65
g640
sg66
g644
stRp1375
ag1
(g1271
g1155
(dp1376
g62
g89
sg63
g380
sg64
g88
sg65
g375
sg66
g379
stRp1377
ag1
(g1271
g1155
(dp1378
g62
g74
sg63
g876
sg64
g239
sg65
g871
sg66
g875
stRp1379
ag1
(g1271
g1155
(dp1380
g62
g74
sg63
g413
sg64
g125
sg65
g408
sg66
g412
stRp1381
ag1
(g1271
g1155
(dp1382
g62
g89
sg63
g920
sg64
g88
sg65
g915
sg66
g919
stRp1383
ag1
(g1271
g1155
(dp1384
g62
g89
sg63
g314
sg64
g137
sg65
g309
sg66
g313
stRp1385
ag1
(g1271
g1155
(dp1386
g62
g89
sg63
g931
sg64
g137
sg65
g926
sg66
g930
stRp1387
ag1
(g1271
g1155
(dp1388
g62
g74
sg63
g247
sg64
g239
sg65
g242
sg66
g246
stRp1389
ag1
(g1271
g1155
(dp1390
g62
g89
sg63
g590
sg64
g137
sg65
g585
sg66
g589
stRp1391
ag1
(g1271
g1155
(dp1392
g62
g89
sg63
g369
sg64
g137
sg65
g364
sg66
g368
stRp1393
ag1
(g1271
g1155
(dp1394
g62
g89
sg63
g711
sg64
g137
sg65
g706
sg66
g710
stRp1395
ag1
(g1271
g1155
(dp1396
g62
g74
sg63
g391
sg64
g194
sg65
g386
sg66
g390
stRp1397
ag1
(g1271
g1155
(dp1398
g62
g89
sg63
g788
sg64
g137
sg65
g783
sg66
g787
stRp1399
ag1
(g1271
g1155
(dp1400
g62
g74
sg63
g524
sg64
g125
sg65
g519
sg66
g523
stRp1401
ag1
(g1271
g1155
(dp1402
g62
g89
sg63
g258
sg64
g88
sg65
g253
sg66
g257
stRp1403
ag1
(g1271
g1155
(dp1404
g62
g74
sg63
g821
sg64
g472
sg65
g816
sg66
g820
stRp1405
ag1
(g1271
g1155
(dp1406
g62
g89
sg63
g810
sg64
g137
sg65
g805
sg66
g809
stRp1407
ag1
(g1271
g1155
(dp1408
g62
g89
sg63
g468
sg64
g112
sg65
g463
sg66
g467
stRp1409
ag1
(g1271
g1155
(dp1410
g62
g74
sg63
g1030
sg64
g73
sg65
g1025
sg66
g1029
stRp1411
ag1
(g1271
g1155
(dp1412
g62
g89
sg63
g843
sg64
g137
sg65
g838
sg66
g842
stRp1413
ag1
(g1271
g1155
(dp1414
g62
g74
sg63
g502
sg64
g472
sg65
g497
sg66
g501
stRp1415
ag1
(g1271
g1155
(dp1416
g62
g74
sg63
g402
sg64
g194
sg65
g397
sg66
g401
stRp1417
ag1
(g1271
g1155
(dp1418
g62
g89
sg63
g190
sg64
g182
sg65
g185
sg66
g189
stRp1419
ag1
(g1271
g1155
(dp1420
g62
g89
sg63
g347
sg64
g137
sg65
g342
sg66
g346
stRp1421
ag1
(g1271
g1155
(dp1422
g62
g89
sg63
g336
sg64
g88
sg65
g331
sg66
g335
stRp1423
ag1
(g1271
g1155
(dp1424
g62
g74
sg63
g535
sg64
g125
sg65
g530
sg66
g534
stRp1425
ag1
(g1271
g1155
(dp1426
g62
g74
sg63
g733
sg64
g472
sg65
g728
sg66
g732
stRp1427
ag1
(g1271
g1155
(dp1428
g62
g74
sg63
g546
sg64
g73
sg65
g541
sg66
g545
stRp1429
ag1
(g1271
g1155
(dp1430
g62
g89
sg63
g145
sg64
g137
sg65
g140
sg66
g144
stRp1431
ag1
(g1271
g1155
(dp1432
g62
g89
sg63
g97
sg64
g88
sg65
g92
sg66
g96
stRp1433
ag1
(g1271
g1155
(dp1434
g62
g74
sg63
g1052
sg64
g73
sg65
g1047
sg66
g1051
stRp1435
ag1
(g1271
g1155
(dp1436
g62
g89
sg63
g178
sg64
g112
sg65
g173
sg66
g177
stRp1437
ag1
(g1271
g1155
(dp1438
g62
g74
sg63
g678
sg64
g472
sg65
g673
sg66
g677
stRp1439
ag1
(g1271
g1155
(dp1440
g62
g89
sg63
g224
sg64
g112
sg65
g219
sg66
g223
stRp1441
ag1
(g1271
g1155
(dp1442
g62
g89
sg63
g887
sg64
g137
sg65
g882
sg66
g886
stRp1443
ag1
(g1271
g1155
(dp1444
g62
g74
sg63
g579
sg64
g125
sg65
g574
sg66
g578
stRp1445
ag1
(g1271
g1155
(dp1446
g62
g74
sg63
g997
sg64
g125
sg65
g992
sg66
g996
stRp1447
ag1
(g1271
g1155
(dp1448
g62
g74
sg63
g202
sg64
g194
sg65
g197
sg66
g201
stRp1449
ag1
(g1271
g1155
(dp1450
g62
g74
sg63
g491
sg64
g194
sg65
g486
sg66
g490
stRp1451
ag1
(g1271
g1155
(dp1452
g62
g89
sg63
g832
sg64
g112
sg65
g827
sg66
g831
stRp1453
ag1
(g1271
g1155
(dp1454
g62
g74
sg63
g634
sg64
g125
sg65
g629
sg66
g633
stRp1455
ag1
(g1271
g1155
(dp1456
g62
g74
sg63
g766
sg64
g194
sg65
g761
sg66
g765
stRp1457
ag1
(g1271
g1155
(dp1458
g62
g74
sg63
g909
sg64
g73
sg65
g904
sg66
g908
stRp1459
ag1
(g1271
g1155
(dp1460
g62
g89
sg63
g269
sg64
g88
sg65
g264
sg66
g268
stRp1461
ag1
(g1271
g1155
(dp1462
g62
g89
sg63
g156
sg64
g112
sg65
g151
sg66
g155
stRp1463
asS'seed'
p1464
NsS'thisIndex'
p1465
g1137
sS'thisN'
p1466
I96
sS'thisTrialN'
p1467
I0
sS'nTotal'
p1468
I96
sS'_warnUseOfNext'
p1469
I01
sbasS'savePickle'
p1470
I00
sb.