ccopy_reg
_reconstructor
p1
(cpsychopy.data
ExperimentHandler
p2
c__builtin__
object
p3
NtRp4
(dp5
S'originPath'
p6
NsS'dataFileName'
p7
VC:\u005cDocuments and Settings\u005cExperimental user\u005cMy Documents\u005cconsciousness\u005cuncon_feat\u005cexperiment_scripts\u005cdata/mattin_Experiment_EEG_version_2019_jun_28_1552
p8
sS'runtimeInfo'
p9
NsS'name'
p10
VExperiment_EEG_version
p11
sS'dataNames'
p12
(lp13
S'image_onset_time'
p14
aS'response_window'
p15
aS'correctAns'
p16
aS'probe_onset'
p17
aS'discrim_resptime'
p18
aS'response.corr'
p19
aS'response.keys'
p20
aS'response.rt'
p21
aS'visible_resptime'
p22
aS'visible.keys'
p23
aS'visible.corr'
p24
aS'visible.rt'
p25
aS'probeFrames'
p26
aS'jitter2'
p27
asS'autoLog'
p28
I01
sS'extraInfo'
p29
(dp30
Vn_square
p31
V32
p32
sVexperiment_color
p33
Vbw
p34
sS'frameRate'
p35
cnumpy.core.multiarray
scalar
p36
(cnumpy
dtype
p37
(S'f8'
I0
I1
tRp38
(I3
S'<'
NNNI-1
I-1
I0
tbS'q\xd7\xaa^\xf1\xf1X@'
tRp39
sS'date'
p40
V2019_jun_28_1552
p41
sVsession
p42
V006
p43
sVimage_size
p44
V256
p45
sVpremask_dur
p46
V20
p47
sVprobeFrames
p48
V5
sVparticipant
p49
Vmattin
p50
sS'expName'
p51
g11
sVpostmask_dur
p52
V20
p53
ssS'loopsUnfinished'
p54
(lp55
sS'saveWideText'
p56
I00
sS'thisEntry'
p57
(dp58
sS'version'
p59
S''
sS'_paramNamesSoFar'
p60
(lp61
S'category'
p62
aS'probe_path'
p63
aS'subcategory'
p64
aS'fixation_duration'
p65
aS'label'
p66
asS'entries'
p67
(lp68
(dp69
g31
g32
sg17
F3.7739317154046148
sg24
I0
sg35
g39
sg14
F3.7373819124186411
sg16
g36
(g37
(S'i4'
I0
I1
tRp70
(I3
S'<'
NNNI-1
I-1
I0
tbS'\x01\x00\x00\x00'
tRp71
sg42
g43
sg46
g47
sg15
S'V_nV'
p72
sg22
F6.0433958499925211
sg64
VAnimals
p73
sg62
VLiving_Things
p74
sg49
g50
sS'trials.thisN'
p75
I0
sg19
I0
sg27
g36
(g38
S'\x00\x00\x00\x00\x00\x00\x1a@'
tRp76
sg52
g53
sg23
S'2'
sg18
F5.0401136188302189
sg33
g34
sg51
g11
sg20
S'2'
sg65
g36
(g37
(S'i8'
I0
I1
tRp77
(I3
S'<'
NNNI-1
I-1
I0
tbS'\x00\x00\x00\x00\x00\x00\x00\x00'
tRp78
sg44
g45
sg40
g41
sg25
F0.30103396205231547
sS'trials.thisIndex'
p79
g36
(g37
(S'i4'
I0
I1
tRp80
(I3
S'<'
NNNI-1
I-1
I0
tbS'\x10\x00\x00\x00'
tRp81
sg26
V5
sS'trials.thisRepN'
p82
I0
sg66
Vcheetah
p83
sg63
V../experiment_stimuli/bw_bc_bl/Living_Things/Animals/cheetah_17.jpg
p84
sg21
F0.97241149144247174
sS'trials.thisTrialN'
p85
I0
sa(dp86
g31
g32
sg17
F8.0957647865870968
sg24
I0
sg35
g39
sg14
F8.0768200050806627
sg16
g36
(g70
S'\x02\x00\x00\x00'
tRp87
sg42
g43
sg46
g47
sg15
g72
sg22
F10.041750331642106
sg64
VKitchen_Uten
p88
sg62
VNonliving_Things
p89
sg49
g50
sS'trials.thisN'
p90
I1
sg19
I1
sg27
g36
(g38
S'\x00\x00\x00\x00\x00\x00\x1a@'
tRp91
sg52
g53
sg23
S'3'
sg18
F9.3494962299009785
sg33
g34
sg51
g11
sg20
S'2'
sg65
g36
(g77
S'\x00\x00\x00\x00\x00\x00\x00\x00'
tRp92
sg44
g45
sg40
g41
sg25
F0.63159334380179644
sS'trials.thisIndex'
p93
g36
(g80
S'\x1e\x00\x00\x00'
tRp94
sg26
V5
sS'trials.thisRepN'
p95
I0
sg66
Vfondue
p96
sg63
V../experiment_stimuli/bw_bc_bl/Nonliving_Things/Kitchen_Uten/fondue_5.jpg
p97
sg21
F0.67168372520245612
sS'trials.thisTrialN'
p98
I1
sa(dp99
g31
g32
sg17
F12.438137396238744
sg24
I0
sg35
g39
sg14
F12.406265325029381
sg16
g36
(g70
S'\x02\x00\x00\x00'
tRp100
sg42
g43
sg46
g47
sg15
g72
sg22
F14.792100299964659
sg64
VVehicles
p101
sg62
g89
sg49
g50
sS'trials.thisN'
p102
I2
sg19
I1
sg27
g36
(g38
S'\x00\x00\x00\x00\x00\x00\x1a@'
tRp103
sg52
g53
sg23
S'2'
sg18
F13.668903345824219
sg33
g34
sg51
g11
sg20
S'2'
sg65
g36
(g77
S'\x00\x00\x00\x00\x00\x00\x00\x00'
tRp104
sg44
g45
sg40
g41
sg25
F0.21067939477507025
sS'trials.thisIndex'
p105
g36
(g80
S'[\x00\x00\x00'
tRp106
sg26
V5
sS'trials.thisRepN'
p107
I0
sg66
Vvan
p108
sg63
V../experiment_stimuli/bw_bc_bl/Nonliving_Things/Vehicles/van_11.jpg
p109
sg21
F1.1026467167539522
sS'trials.thisTrialN'
p110
I2
sa(dp111
g31
g32
sg17
F16.75256493058987
sg24
I0
sg35
g39
sg14
F16.735687664244324
sg16
g36
(g70
S'\x01\x00\x00\x00'
tRp112
sg42
g43
sg46
g47
sg15
S'nV_V'
p113
sg22
F18.570316180237569
sg64
g101
sg62
g89
sg49
g50
sS'trials.thisN'
p114
I3
sg19
I1
sg27
g36
(g38
S'\x00\x00\x00\x00\x00\x00\x18@'
tRp115
sg52
g53
sg23
S'2'
sg18
F17.978289118269458
sg33
g34
sg51
g11
sg20
S'1'
sg65
g36
(g77
S'\x00\x00\x00\x00\x00\x00\x00\x00'
tRp116
sg44
g45
sg40
g41
sg25
F0.25078228733036667
sS'trials.thisIndex'
p117
g36
(g80
S'\x07\x00\x00\x00'
tRp118
sg26
V5
sS'trials.thisRepN'
p119
I0
sg66
Vboat
p120
sg63
V../experiment_stimuli/bw_bc_bl/Nonliving_Things/Vehicles/boat_24.jpg
p121
sg21
F0.57147545565385371
sS'trials.thisTrialN'
p122
I3
sa(dp123
g31
g32
sg17
F20.56591231666971
sg24
I1
sg35
g39
sg14
F20.553997151437216
sg16
g36
(g70
S'\x02\x00\x00\x00'
tRp124
sg42
g43
sg46
g47
sg15
g72
sg22
F22.739392504910938
sg64
VMusical_Inst
p125
sg62
g89
sg49
g50
sS'trials.thisN'
p126
I4
sg19
I0
sg27
g36
(g38
S'\x00\x00\x00\x00\x00\x00 @'
tRp127
sg52
g53
sg23
S'1'
sg18
F21.786580133717507
sg33
g34
sg51
g11
sg20
S'1'
sg65
g36
(g77
S'\x00\x00\x00\x00\x00\x00\x00\x00'
tRp128
sg44
g45
sg40
g41
sg25
F0.28082906233612448
sS'trials.thisIndex'
p129
g36
(g80
S'H\x00\x00\x00'
tRp130
sg26
V5
sS'trials.thisRepN'
p131
I0
sg66
Vsaxophone
p132
sg63
V../experiment_stimuli/bw_bc_bl/Nonliving_Things/Musical_Inst/saxophone_26.jpg
p133
sg21
F0.93225096038077027
sS'trials.thisTrialN'
p134
I4
sa(dp135
g31
g32
sg17
F24.779614661820233
sg24
I1
sg35
g39
sg14
F24.7531335366657
sg16
g36
(g70
S'\x02\x00\x00\x00'
tRp136
sg42
g43
sg46
g47
sg15
g72
sg22
F27.76032983744517
sg64
VBuildings
p137
sg62
g89
sg49
g50
sS'trials.thisN'
p138
I5
sg19
I1
sg27
g36
(g38
S'\x00\x00\x00\x00\x00\x00\x18@'
tRp139
sg52
g53
sg23
S'1'
sg18
F26.035825917031616
sg33
g34
sg51
g11
sg20
S'2'
sg65
g36
(g77
S'\x00\x00\x00\x00\x00\x00\x00\x00'
tRp140
sg44
g45
sg40
g41
sg25
F1.1026174463331699
sS'trials.thisIndex'
p141
g36
(g80
S')\x00\x00\x00'
tRp142
sg26
V5
sS'trials.thisRepN'
p143
I0
sg66
Vhouse
p144
sg63
V../experiment_stimuli/bw_bc_bl/Nonliving_Things/Buildings/house_20.jpg
p145
sg21
F1.6939117077272385
sS'trials.thisTrialN'
p146
I5
sa(dp147
g31
g32
sg17
F30.626322598429397
sg24
I0
sg35
g39
sg14
F30.595857726526447
sg16
g36
(g70
S'\x02\x00\x00\x00'
tRp148
sg42
g43
sg46
g47
sg15
g113
sg22
F32.430488133337349
sg64
VBirds
p149
sg62
g74
sg49
g50
sS'trials.thisN'
p150
I6
sg19
I0
sg27
g36
(g38
S'\x00\x00\x00\x00\x00\x00 @'
tRp151
sg52
g53
sg23
S'2'
sg18
F31.888566499110311
sg33
g34
sg51
g11
sg20
S'1'
sg65
g36
(g77
S'\x00\x00\x00\x00\x00\x00\x00\x00'
tRp152
sg44
g45
sg40
g41
sg25
F0.37102704483550042
sS'trials.thisIndex'
p153
g36
(g80
S'9\x00\x00\x00'
tRp154
sg26
V5
sS'trials.thisRepN'
p155
I0
sg66
Vowl
p156
sg63
V../experiment_stimuli/bw_bc_bl/Living_Things/Birds/owl_23.jpg
p157
sg21
F0.52135944867040962
sS'trials.thisTrialN'
p158
I6
sa(dp159
g31
g32
sg17
F34.558368796249852
sg24
I0
sg35
g39
sg14
F34.534427583217621
sg16
g36
(g70
S'\x02\x00\x00\x00'
tRp160
sg42
g43
sg46
g47
sg15
g113
sg22
F36.699799805879593
sg64
g73
sg62
g74
sg49
g50
sS'trials.thisN'
p161
I7
sg19
I0
sg27
g36
(g38
S'\x00\x00\x00\x00\x00\x00\x18@'
tRp162
sg52
g53
sg23
S'2'
sg18
F35.817122704349458
sg33
g34
sg51
g11
sg20
S'1'
sg65
g36
(g77
S'\x00\x00\x00\x00\x00\x00\x00\x00'
tRp163
sg44
g45
sg40
g41
sg25
F0.5413972563110292
sS'trials.thisIndex'
p164
g36
(g80
S'\x1b\x00\x00\x00'
tRp165
sg26
V5
sS'trials.thisRepN'
p166
I0
sg66
Velephant
p167
sg63
V../experiment_stimuli/bw_bc_bl/Living_Things/Animals/elephant_11.jpg
p168
sg21
F0.8621016648830846
sS'trials.thisTrialN'
p169
I7
sa(dp170
g31
g32
sg17
F39.003515978693031
sg24
I0
sg35
g39
sg14
F38.974095667013898
sg16
g36
(g70
S'\x01\x00\x00\x00'
tRp171
sg42
g43
sg46
g47
sg15
g72
sg22
F40.447949621709995
sg64
g149
sg62
g74
sg49
g50
sS'trials.thisN'
p172
I8
sg19
I1
sg27
g36
(g38
S'\x00\x00\x00\x00\x00\x00\x18@'
tRp173
sg52
g53
sg23
S'2'
sg18
F40.246767606120557
sg33
g34
sg51
g11
sg20
S'1'
sg65
g36
(g77
S'\x00\x00\x00\x00\x00\x00\x00\x00'
tRp174
sg44
g45
sg40
g41
sg25
F0.38106382824480534
sS'trials.thisIndex'
p175
g36
(g80
S'&\x00\x00\x00'
tRp176
sg26
V5
sS'trials.thisRepN'
p177
I0
sg66
Vhen
p178
sg63
V../experiment_stimuli/bw_bc_bl/Living_Things/Birds/hen_0.jpg
p179
sg21
F0.18061371019575745
sS'trials.thisTrialN'
p180
I8
sa(dp181
g31
g32
sg17
F42.582677947939374
sg24
I0
sg35
g39
sg14
F42.561935659497976
sg16
g36
(g70
S'\x02\x00\x00\x00'
tRp182
sg42
g43
sg46
g47
sg15
g72
sg22
F44.727269942639396
sg64
g125
sg62
g89
sg49
g50
sS'trials.thisN'
p183
I9
sg19
I1
sg27
g36
(g38
S'\x00\x00\x00\x00\x00\x00\x18@'
tRp184
sg52
g53
sg23
S'3'
sg18
F43.814536600024439
sg33
g34
sg51
g11
sg20
S'2'
sg65
g36
(g77
S'\x00\x00\x00\x00\x00\x00\x00\x00'
tRp185
sg44
g45
sg40
g41
sg25
F0.24078360560815781
sS'trials.thisIndex'
p186
g36
(g80
S'Y\x00\x00\x00'
tRp187
sg26
V5
sS'trials.thisRepN'
p188
I0
sg66
Vtuba
p189
sg63
V../experiment_stimuli/bw_bc_bl/Nonliving_Things/Musical_Inst/tuba_6.jpg
p190
sg21
F0.89216658263467252
sS'trials.thisTrialN'
p191
I9
sa(dp192
g31
g32
sg17
F46.718319150502793
sg24
I0
sg35
g39
sg14
F46.700925333774649
sg16
g36
(g70
S'\x02\x00\x00\x00'
tRp193
sg42
g43
sg46
g47
sg15
g113
sg22
F48.555604025023058
sg64
VMarine_creatures
p194
sg62
g74
sg49
g50
sS'trials.thisN'
p195
I10
sg19
I0
sg27
g36
(g38
S'\x00\x00\x00\x00\x00\x00 @'
tRp196
sg52
g53
sg23
S'2'
sg18
F47.943526227376424
sg33
g34
sg51
g11
sg20
S'1'
sg65
g36
(g77
S'\x00\x00\x00\x00\x00\x00\x00\x00'
tRp197
sg44
g45
sg40
g41
sg25
F0.20065079967025667
sS'trials.thisIndex'
p198
g36
(g80
S'P\x00\x00\x00'
tRp199
sg26
V5
sS'trials.thisRepN'
p200
I0
sg66
Vsperm-whale
p201
sg63
V../experiment_stimuli/bw_bc_bl/Living_Things/Marine_creatures/sperm-whale_14.jpg
p202
sg21
F0.59150925162248313
sS'trials.thisTrialN'
p203
I10
sa(dp204
g31
g32
sg17
F50.514274746063165
sg24
I0
sg35
g39
sg14
F50.48917002719827
sg16
g36
(g70
S'\x02\x00\x00\x00'
tRp205
sg42
g43
sg46
g47
sg15
g113
sg22
F52.494200295303017
sg64
g73
sg62
g74
sg49
g50
sS'trials.thisN'
p206
I11
sg19
I0
sg27
g36
(g38
S'\x00\x00\x00\x00\x00\x00\x18@'
tRp207
sg52
g53
sg23
S'2'
sg18
F51.741799294250086
sg33
g34
sg51
g11
sg20
S'1'
sg65
g36
(g77
S'\x00\x00\x00\x00\x00\x00\x00\x00'
tRp208
sg44
g45
sg40
g41
sg25
F0.24074193288106471
sS'trials.thisIndex'
p209
g36
(g80
S'0\x00\x00\x00'
tRp210
sg26
V5
sS'trials.thisRepN'
p211
I0
sg66
Vlioness
p212
sg63
V../experiment_stimuli/bw_bc_bl/Living_Things/Animals/lioness_7.jpg
p213
sg21
F0.7318372594891116
sS'trials.thisTrialN'
p214
I11
sa(dp215
g31
g32
sg17
F54.48316134873312
sg24
I0
sg35
g39
sg14
F54.467834938317537
sg16
g36
(g70
S'\x02\x00\x00\x00'
tRp216
sg42
g43
sg46
g47
sg15
g72
sg22
F57.004021027707495
sg64
g88
sg62
g89
sg49
g50
sS'trials.thisN'
p217
I12
sg19
I1
sg27
g36
(g38
S'\x00\x00\x00\x00\x00\x00\x1c@'
tRp218
sg52
g53
sg23
S'2'
sg18
F55.710438948357478
sg33
g34
sg51
g11
sg20
S'2'
sg65
g36
(g77
S'\x00\x00\x00\x00\x00\x00\x00\x00'
tRp219
sg44
g45
sg40
g41
sg25
F0.1705825476674363
sS'trials.thisIndex'
p220
g36
(g80
S'\x16\x00\x00\x00'
tRp221
sg26
V5
sS'trials.thisRepN'
p222
I0
sg66
Vcup
p223
sg63
V../experiment_stimuli/bw_bc_bl/Nonliving_Things/Kitchen_Uten/cup_17.jpg
p224
sg21
F1.2730113263241947
sS'trials.thisTrialN'
p225
I12
sa(dp226
g31
g32
sg17
F58.93084357958287
sg24
I1
sg35
g39
sg14
F58.907510841265321
sg16
g36
(g70
S'\x01\x00\x00\x00'
tRp227
sg42
g43
sg46
g47
sg15
g72
sg22
F60.631919323117472
sg64
g149
sg62
g74
sg49
g50
sS'trials.thisN'
p228
I13
sg19
I0
sg27
g36
(g38
S'\x00\x00\x00\x00\x00\x00\x18@'
tRp229
sg52
g53
sg23
S'1'
sg18
F60.150111388997175
sg33
g34
sg51
g11
sg20
S'2'
sg65
g36
(g77
S'\x00\x00\x00\x00\x00\x00\x00\x00'
tRp230
sg44
g45
sg40
g41
sg25
F0.25076066388282925
sS'trials.thisIndex'
p231
g36
(g80
S',\x00\x00\x00'
tRp232
sg26
V5
sS'trials.thisRepN'
p233
I0
sg66
Vkiwi
p234
sg63
V../experiment_stimuli/bw_bc_bl/Living_Things/Birds/kiwi_14.jpg
p235
sg21
F0.46123607584740967
sS'trials.thisTrialN'
p236
I13
sa(dp237
g31
g32
sg17
F62.64585697685834
sg24
I1
sg35
g39
sg14
F62.615571256959811
sg16
g36
(g70
S'\x02\x00\x00\x00'
tRp238
sg42
g43
sg46
g47
sg15
g72
sg22
F64.179628524929285
sg64
g137
sg62
g89
sg49
g50
sS'trials.thisN'
p239
I14
sg19
I1
sg27
g36
(g38
S'\x00\x00\x00\x00\x00\x00\x18@'
tRp240
sg52
g53
sg23
S'1'
sg18
F63.878225747263059
sg33
g34
sg51
g11
sg20
S'2'
sg65
g36
(g77
S'\x00\x00\x00\x00\x00\x00\x00\x00'
tRp241
sg44
g45
sg40
g41
sg25
F0.21069988724775612
sS'trials.thisIndex'
p242
g36
(g80
S'\x0c\x00\x00\x00'
tRp243
sg26
V5
sS'trials.thisRepN'
p244
I0
sg66
Vcastle
p245
sg63
V../experiment_stimuli/bw_bc_bl/Nonliving_Things/Buildings/castle_9.jpg
p246
sg21
F0.28083255852106959
sS'trials.thisTrialN'
p247
I14
sa(dp248
g31
g32
sg17
F66.141216943971813
sg24
I0
sg35
g39
sg14
F66.12321785511449
sg16
g36
(g70
S'\x01\x00\x00\x00'
tRp249
sg42
g43
sg46
g47
sg15
g113
sg22
F69.441083646030165
sg64
g125
sg62
g89
sg49
g50
sS'trials.thisN'
p250
I15
sg19
I0
sg27
g36
(g38
S'\x00\x00\x00\x00\x00\x00\x1a@'
tRp251
sg52
g53
sg23
S'2'
sg18
F67.395885688951239
sg33
g34
sg51
g11
sg20
S'2'
sg65
g36
(g77
S'\x00\x00\x00\x00\x00\x00\x00\x00'
tRp252
sg44
g45
sg40
g41
sg25
F0.41096087149344385
sS'trials.thisIndex'
p253
g36
(g80
S'\\\x00\x00\x00'
tRp254
sg26
V5
sS'trials.thisRepN'
p255
I0
sg66
Vviolin
p256
sg63
V../experiment_stimuli/bw_bc_bl/Nonliving_Things/Musical_Inst/violin_14.jpg
p257
sg21
F2.0246286967303604
sS'trials.thisTrialN'
p258
I15
sa(dp259
g31
g32
sg17
F71.619457796681672
sg24
I1
sg35
g39
sg14
F71.585102586774155
sg16
g36
(g70
S'\x01\x00\x00\x00'
tRp260
sg42
g43
sg46
g47
sg15
g113
sg22
F73.149167602881789
sg64
VFurniture
p261
sg62
g89
sg49
g50
sS'trials.thisN'
p262
I16
sg19
I0
sg27
g36
(g38
S'\x00\x00\x00\x00\x00\x00 @'
tRp263
sg52
g53
sg23
S'1'
sg18
F72.867802549852058
sg33
g34
sg51
g11
sg20
S'2'
sg65
g36
(g77
S'\x00\x00\x00\x00\x00\x00\x00\x00'
tRp264
sg44
g45
sg40
g41
sg25
F0.2307082888437435
sS'trials.thisIndex'
p265
g36
(g80
S'.\x00\x00\x00'
tRp266
sg26
V5
sS'trials.thisRepN'
p267
I0
sg66
Vlamp
p268
sg63
V../experiment_stimuli/bw_bc_bl/Nonliving_Things/Furniture/lamp_6.jpg
p269
sg21
F0.26078806351870298
sS'trials.thisTrialN'
p270
I16
sa(dp271
g31
g32
sg17
F75.135650803218596
sg24
I1
sg35
g39
sg14
F75.11279035708867
sg16
g36
(g70
S'\x02\x00\x00\x00'
tRp272
sg42
g43
sg46
g47
sg15
g72
sg22
F77.238070465391502
sg64
g137
sg62
g89
sg49
g50
sS'trials.thisN'
p273
I17
sg19
I1
sg27
g36
(g38
S'\x00\x00\x00\x00\x00\x00\x18@'
tRp274
sg52
g53
sg23
S'1'
sg18
F76.385460217366926
sg33
g34
sg51
g11
sg20
S'2'
sg65
g36
(g77
S'\x00\x00\x00\x00\x00\x00\x00\x00'
tRp275
sg44
g45
sg40
g41
sg25
F0.14052527258172631
sS'trials.thisIndex'
p276
g36
(g80
S'\x0e\x00\x00\x00'
tRp277
sg26
V5
sS'trials.thisRepN'
p278
I0
sg66
Vcathedral
p279
sg63
V../experiment_stimuli/bw_bc_bl/Nonliving_Things/Buildings/cathedral_26.jpg
p280
sg21
F0.83205619442742318
sS'trials.thisTrialN'
p281
I17
sa(dp282
g31
g32
sg17
F79.142615162418224
sg24
I0
sg35
g39
sg14
F79.111497489036992
sg16
g36
(g70
S'\x01\x00\x00\x00'
tRp283
sg42
g43
sg46
g47
sg15
g72
sg22
F80.996083137579262
sg64
g73
sg62
g74
sg49
g50
sS'trials.thisN'
p284
I18
sg19
I0
sg27
g36
(g38
S'\x00\x00\x00\x00\x00\x00\x18@'
tRp285
sg52
g53
sg23
S'2'
sg18
F80.414251026231796
sg33
g34
sg51
g11
sg20
S'2'
sg65
g36
(g77
S'\x00\x00\x00\x00\x00\x00\x00\x00'
tRp286
sg44
g45
sg40
g41
sg25
F0.55141304351855069
sS'trials.thisIndex'
p287
g36
(g80
S'R\x00\x00\x00'
tRp288
sg26
V5
sS'trials.thisRepN'
p289
I0
sg66
Vtapir
p290
sg63
V../experiment_stimuli/bw_bc_bl/Living_Things/Animals/tapir_17.jpg
p291
sg21
F0.56128395616542548
sS'trials.thisTrialN'
p292
I18
sa(dp293
g31
g32
sg17
F83.30821800197009
sg24
I1
sg35
g39
sg14
F83.280574670876376
sg16
g36
(g70
S'\x01\x00\x00\x00'
tRp294
sg42
g43
sg46
g47
sg15
g72
sg22
F85.215270548127592
sg64
g194
sg62
g74
sg49
g50
sS'trials.thisN'
p295
I19
sg19
I0
sg27
g36
(g38
S'\x00\x00\x00\x00\x00\x00\x1e@'
tRp296
sg52
g53
sg23
S'1'
sg18
F84.573290199157782
sg33
g34
sg51
g11
sg20
S'2'
sg65
g36
(g77
S'\x00\x00\x00\x00\x00\x00\x00\x00'
tRp297
sg44
g45
sg40
g41
sg25
F0.32093145104590803
sS'trials.thisIndex'
p298
g36
(g80
S'A\x00\x00\x00'
tRp299
sg26
V5
sS'trials.thisRepN'
p300
I0
sg66
Vpomfret
p301
sg63
V../experiment_stimuli/bw_bc_bl/Living_Things/Marine_creatures/pomfret_19.jpg
p302
sg21
F0.62141285522375256
sS'trials.thisTrialN'
p303
I19
sa(dp304
g31
g32
sg17
F87.285058594425209
sg24
I0
sg35
g39
sg14
F87.26925977517385
sg16
g36
(g70
S'\x02\x00\x00\x00'
tRp305
sg42
g43
sg46
g47
sg15
g113
sg22
F89.214140651864
sg64
g73
sg62
g74
sg49
g50
sS'trials.thisN'
p306
I20
sg19
I1
sg27
g36
(g38
S'\x00\x00\x00\x00\x00\x00\x18@'
tRp307
sg52
g53
sg23
S'3'
sg18
F88.571995823876932
sg33
g34
sg51
g11
sg20
S'2'
sg65
g36
(g77
S'\x00\x00\x00\x00\x00\x00\x00\x00'
tRp308
sg44
g45
sg40
g41
sg25
F0.3509817001176998
sS'trials.thisIndex'
p309
g36
(g80
S"'\x00\x00\x00"
tRp310
sg26
V5
sS'trials.thisRepN'
p311
I0
sg66
Vhippopotamus
p312
sg63
V../experiment_stimuli/bw_bc_bl/Living_Things/Animals/hippopotamus_7.jpg
p313
sg21
F0.62157753051724285
sS'trials.thisTrialN'
p314
I20
sa(dp315
g31
g32
sg17
F91.322131825610995
sg24
I0
sg35
g39
sg14
F91.298043858841993
sg16
g36
(g70
S'\x02\x00\x00\x00'
tRp316
sg42
g43
sg46
g47
sg15
g113
sg22
F93.082550243590958
sg64
g149
sg62
g74
sg49
g50
sS'trials.thisN'
p317
I21
sg19
I0
sg27
g36
(g38
S'\x00\x00\x00\x00\x00\x00\x18@'
tRp318
sg52
g53
sg23
S'2'
sg18
F92.580723731545731
sg33
g34
sg51
g11
sg20
S'1'
sg65
g36
(g77
S'\x00\x00\x00\x00\x00\x00\x00\x00'
tRp319
sg44
g45
sg40
g41
sg25
F0.2908408046932891
sS'trials.thisIndex'
p320
g36
(g80
S'!\x00\x00\x00'
tRp321
sg26
V5
sS'trials.thisRepN'
p322
I0
sg66
Vgoldfinch
p323
sg63
V../experiment_stimuli/bw_bc_bl/Living_Things/Birds/goldfinch_12.jpg
p324
sg21
F0.48126772535033524
sS'trials.thisTrialN'
p325
I21
sa(dp326
g31
g32
sg17
F95.120551353204064
sg24
I0
sg35
g39
sg14
F95.106341246515512
sg16
g36
(g70
S'\x01\x00\x00\x00'
tRp327
sg42
g43
sg46
g47
sg15
g72
sg22
F100.50873803067952
sg64
VInsects
p328
sg62
g74
sg49
g50
sS'trials.thisN'
p329
I22
sg19
I0
sg27
g36
(g38
S'\x00\x00\x00\x00\x00\x00\x18@'
tRp330
sg52
g53
sg23
S'2'
sg18
F96.368987718014978
sg33
g34
sg51
g11
sg20
S'2'
sg65
g36
(g77
S'\x00\x00\x00\x00\x00\x00\x00\x00'
tRp331
sg44
g45
sg40
g41
sg25
F0.38107456848956645
sS'trials.thisIndex'
p332
g36
(g80
S'-\x00\x00\x00'
tRp333
sg26
V5
sS'trials.thisRepN'
p334
I0
sg66
Vladybird
p335
sg63
V../experiment_stimuli/bw_bc_bl/Living_Things/Insects/ladybird_18.jpg
p336
sg21
F4.1191941422875971
sS'trials.thisTrialN'
p337
I22
sa(dp338
g31
g32
sg17
F102.65398754831403
sg24
I1
sg35
g39
sg14
F102.62269795592874
sg16
g36
(g70
S'\x01\x00\x00\x00'
tRp339
sg42
g43
sg46
g47
sg15
g113
sg22
F104.16672207810916
sg64
g125
sg62
g89
sg49
g50
sS'trials.thisN'
p340
I23
sg19
I0
sg27
g36
(g38
S'\x00\x00\x00\x00\x00\x00\x1e@'
tRp341
sg52
g53
sg23
S'1'
sg18
F103.88534210401122
sg33
g34
sg51
g11
sg20
S'2'
sg65
g36
(g77
S'\x00\x00\x00\x00\x00\x00\x00\x00'
tRp342
sg44
g45
sg40
g41
sg25
F0.18063302617520094
sS'trials.thisIndex'
p343
g36
(g80
S'>\x00\x00\x00'
tRp344
sg26
V5
sS'trials.thisRepN'
p345
I0
sg66
Vpiano
p346
sg63
V../experiment_stimuli/bw_bc_bl/Nonliving_Things/Musical_Inst/piano__17.jpg
p347
sg21
F0.26079304085578769
sS'trials.thisTrialN'
p348
I23
sa(dp349
g31
g32
sg17
F106.09946242719889
sg24
I0
sg35
g39
sg14
F106.08023270533886
sg16
g36
(g70
S'\x01\x00\x00\x00'
tRp350
sg42
g43
sg46
g47
sg15
g72
sg22
F107.78458778560162
sg64
g194
sg62
g74
sg49
g50
sS'trials.thisN'
p351
I24
sg19
I1
sg27
g36
(g38
S'\x00\x00\x00\x00\x00\x00\x18@'
tRp352
sg52
g53
sg23
S'2'
sg18
F107.34287230460905
sg33
g34
sg51
g11
sg20
S'1'
sg65
g36
(g77
S'\x00\x00\x00\x00\x00\x00\x00\x00'
tRp353
sg44
g45
sg40
g41
sg25
F0.2006488146726042
sS'trials.thisIndex'
p354
g36
(g80
S'^\x00\x00\x00'
tRp355
sg26
V5
sS'trials.thisRepN'
p356
I0
sg66
Vwhale
p357
sg63
V../experiment_stimuli/bw_bc_bl/Living_Things/Marine_creatures/whale_21.jpg
p358
sg21
F0.42113284498918802
sS'trials.thisTrialN'
p359
I24
sa(dp360
g31
g32
sg17
F109.73572664021049
sg24
I1
sg35
g39
sg14
F109.71815354330465
sg16
g36
(g70
S'\x02\x00\x00\x00'
tRp361
sg42
g43
sg46
g47
sg15
g72
sg22
F111.44254354760051
sg64
g261
sg62
g89
sg49
g50
sS'trials.thisN'
p362
I25
sg19
I1
sg27
g36
(g38
S'\x00\x00\x00\x00\x00\x00\x18@'
tRp363
sg52
g53
sg23
S'1'
sg18
F110.97077089326922
sg33
g34
sg51
g11
sg20
S'2'
sg65
g36
(g77
S'\x00\x00\x00\x00\x00\x00\x00\x00'
tRp364
sg44
g45
sg40
g41
sg25
F0.18068623216822743
sS'trials.thisIndex'
p365
g36
(g80
S'\x06\x00\x00\x00'
tRp366
sg26
V5
sS'trials.thisRepN'
p367
I0
sg66
Vbedside-table
p368
sg63
V../experiment_stimuli/bw_bc_bl/Nonliving_Things/Furniture/bedside-table_3.jpg
p369
sg21
F0.45120801066514105
sS'trials.thisTrialN'
p370
I25
sa(dp371
g31
g32
sg17
F113.37664071307518
sg24
I0
sg35
g39
sg14
F113.35608021216467
sg16
g36
(g70
S'\x01\x00\x00\x00'
tRp372
sg42
g43
sg46
g47
sg15
g72
sg22
F115.65155654505361
sg64
g73
sg62
g74
sg49
g50
sS'trials.thisN'
p373
I26
sg19
I0
sg27
g36
(g38
S'\x00\x00\x00\x00\x00\x00\x1a@'
tRp374
sg52
g53
sg23
S'2'
sg18
F114.61871798080392
sg33
g34
sg51
g11
sg20
S'2'
sg65
g36
(g77
S'\x00\x00\x00\x00\x00\x00\x00\x00'
tRp375
sg44
g45
sg40
g41
sg25
F0.66165776527486742
sS'trials.thisIndex'
p376
g36
(g80
S'D\x00\x00\x00'
tRp377
sg26
V5
sS'trials.thisRepN'
p378
I0
sg66
Vrhino
p379
sg63
V../experiment_stimuli/bw_bc_bl/Living_Things/Animals/rhino_11.jpg
p380
sg21
F1.0022400203160942
sS'trials.thisTrialN'
p381
I26
sa(dp382
g31
g32
sg17
F118.07198165962473
sg24
I1
sg35
g39
sg14
F118.04628908960149
sg16
g36
(g70
S'\x02\x00\x00\x00'
tRp383
sg42
g43
sg46
g47
sg15
g113
sg22
F119.9110078047961
sg64
g149
sg62
g74
sg49
g50
sS'trials.thisN'
p384
I27
sg19
I1
sg27
g36
(g38
S'\x00\x00\x00\x00\x00\x00\x18@'
tRp385
sg52
g53
sg23
S'1'
sg18
F119.30892701609991
sg33
g34
sg51
g11
sg20
S'2'
sg65
g36
(g77
S'\x00\x00\x00\x00\x00\x00\x00\x00'
tRp386
sg44
g45
sg40
g41
sg25
F0.20064672059379518
sS'trials.thisIndex'
p387
g36
(g80
S'\x04\x00\x00\x00'
tRp388
sg26
V5
sS'trials.thisRepN'
p389
I0
sg66
Vbarn-owl
p390
sg63
V../experiment_stimuli/bw_bc_bl/Living_Things/Birds/barn-owl_9.jpg
p391
sg21
F0.5814955320674926
sS'trials.thisTrialN'
p392
I27
sa(dp393
g31
g32
sg17
F121.87536267167889
sg24
I0
sg35
g39
sg14
F121.84456407767721
sg16
g36
(g70
S'\x02\x00\x00\x00'
tRp394
sg42
g43
sg46
g47
sg15
g72
sg22
F124.3705436225282
sg64
g88
sg62
g89
sg49
g50
sS'trials.thisN'
p395
I28
sg19
I1
sg27
g36
(g38
S'\x00\x00\x00\x00\x00\x00\x1c@'
tRp396
sg52
g53
sg23
S'2'
sg18
F123.1272443679627
sg33
g34
sg51
g11
sg20
S'2'
sg65
g36
(g77
S'\x00\x00\x00\x00\x00\x00\x00\x00'
tRp397
sg44
g45
sg40
g41
sg25
F0.36106582847423851
sS'trials.thisIndex'
p398
g36
(g80
S'G\x00\x00\x00'
tRp399
sg26
V5
sS'trials.thisRepN'
p400
I0
sg66
Vsaucepan
p401
sg63
V../experiment_stimuli/bw_bc_bl/Nonliving_Things/Kitchen_Uten/saucepan_5.jpg
p402
sg21
F1.2227249192073941
sS'trials.thisTrialN'
p403
I28
sa(dp404
g31
g32
sg17
F126.48073267098516
sg24
I1
sg35
g39
sg14
F126.46460853586905
sg16
g36
(g70
S'\x01\x00\x00\x00'
tRp405
sg42
g43
sg46
g47
sg15
g72
sg22
F128.28923751984257
sg64
g73
sg62
g74
sg49
g50
sS'trials.thisN'
p406
I29
sg19
I0
sg27
g36
(g38
S'\x00\x00\x00\x00\x00\x00\x1e@'
tRp407
sg52
g53
sg23
S'1'
sg18
F127.72726808628067
sg33
g34
sg51
g11
sg20
S'2'
sg65
g36
(g77
S'\x00\x00\x00\x00\x00\x00\x00\x00'
tRp408
sg44
g45
sg40
g41
sg25
F0.20064836752135307
sS'trials.thisIndex'
p409
g36
(g80
S'T\x00\x00\x00'
tRp410
sg26
V5
sS'trials.thisRepN'
p411
I0
sg66
Vtiger
p412
sg63
V../experiment_stimuli/bw_bc_bl/Living_Things/Animals/tiger_16.jpg
p413
sg21
F0.54140026750974357
sS'trials.thisTrialN'
p414
I29
sa(dp415
g31
g32
sg17
F130.24405114690308
sg24
I0
sg35
g39
sg14
F130.22279189806432
sg16
g36
(g70
S'\x01\x00\x00\x00'
tRp416
sg42
g43
sg46
g47
sg15
g113
sg22
F132.28793201292865
sg64
g125
sg62
g89
sg49
g50
sS'trials.thisN'
p417
I30
sg19
I1
sg27
g36
(g38
S'\x00\x00\x00\x00\x00\x00\x18@'
tRp418
sg52
g53
sg23
S'3'
sg18
F131.49546178453602
sg33
g34
sg51
g11
sg20
S'1'
sg65
g36
(g77
S'\x00\x00\x00\x00\x00\x00\x00\x00'
tRp419
sg44
g45
sg40
g41
sg25
F0.23071960802190006
sS'trials.thisIndex'
p420
g36
(g80
S'\x19\x00\x00\x00'
tRp421
sg26
V5
sS'trials.thisRepN'
p422
I0
sg66
Vdrum
p423
sg63
V../experiment_stimuli/bw_bc_bl/Nonliving_Things/Musical_Inst/drum_17.jpg
p424
sg21
F0.77190157352015376
sS'trials.thisTrialN'
p425
I30
sa(dp426
g31
g32
sg17
F134.27318680926692
sg24
I0
sg35
g39
sg14
F134.25156859785784
sg16
g36
(g70
S'\x02\x00\x00\x00'
tRp427
sg42
g43
sg46
g47
sg15
g113
sg22
F135.94588279747404
sg64
g149
sg62
g74
sg49
g50
sS'trials.thisN'
p428
I31
sg19
I1
sg27
g36
(g38
S'\x00\x00\x00\x00\x00\x00\x18@'
tRp429
sg52
g53
sg23
S'2'
sg18
F135.5041946208803
sg33
g34
sg51
g11
sg20
S'2'
sg65
g36
(g77
S'\x00\x00\x00\x00\x00\x00\x00\x00'
tRp430
sg44
g45
sg40
g41
sg25
F0.55143797560594976
sS'trials.thisIndex'
p431
g36
(g80
S';\x00\x00\x00'
tRp432
sg26
V5
sS'trials.thisRepN'
p433
I0
sg66
Vpartridge
p434
sg63
V../experiment_stimuli/bw_bc_bl/Living_Things/Birds/partridge_20.jpg
p435
sg21
F0.42114063794724643
sS'trials.thisTrialN'
p436
I31
sa(dp437
g31
g32
sg17
F138.24950512161013
sg24
I1
sg35
g39
sg14
F138.23024301277474
sg16
g36
(g70
S'\x02\x00\x00\x00'
tRp438
sg42
g43
sg46
g47
sg15
g113
sg22
F139.86443282454275
sg64
g149
sg62
g74
sg49
g50
sS'trials.thisN'
p439
I32
sg19
I1
sg27
g36
(g38
S'\x00\x00\x00\x00\x00\x00\x18@'
tRp440
sg52
g53
sg23
S'1'
sg18
F139.47283898561727
sg33
g34
sg51
g11
sg20
S'2'
sg65
g36
(g77
S'\x00\x00\x00\x00\x00\x00\x00\x00'
tRp441
sg44
g45
sg40
g41
sg25
F0.42113280377816409
sS'trials.thisIndex'
p442
g36
(g80
S'<\x00\x00\x00'
tRp443
sg26
V5
sS'trials.thisRepN'
p444
I0
sg66
Vpelican
p445
sg63
V../experiment_stimuli/bw_bc_bl/Living_Things/Birds/pelican_11.jpg
p446
sg21
F0.37102902226615697
sS'trials.thisTrialN'
p447
I32
sa(dp448
g31
g32
sg17
F142.04524917458184
sg24
I0
sg35
g39
sg14
F142.01847439049743
sg16
g36
(g70
S'\x02\x00\x00\x00'
tRp449
sg42
g43
sg46
g47
sg15
g72
sg22
F143.55245574086439
sg64
g261
sg62
g89
sg49
g50
sS'trials.thisN'
p450
I33
sg19
I1
sg27
g36
(g38
S'\x00\x00\x00\x00\x00\x00\x18@'
tRp451
sg52
g53
sg23
S'2'
sg18
F143.2811377303442
sg33
g34
sg51
g11
sg20
S'2'
sg65
g36
(g77
S'\x00\x00\x00\x00\x00\x00\x00\x00'
tRp452
sg44
g45
sg40
g41
sg25
F0.15053918363992125
sS'trials.thisIndex'
p453
g36
(g80
S'\x02\x00\x00\x00'
tRp454
sg26
V5
sS'trials.thisRepN'
p455
I0
sg66
Varmchair
p456
sg63
V../experiment_stimuli/bw_bc_bl/Nonliving_Things/Furniture/armchair_3.jpg
p457
sg21
F0.25075763347558677
sS'trials.thisTrialN'
p458
I33
sa(dp459
g31
g32
sg17
F145.4550031850813
sg24
I0
sg35
g39
sg14
F145.43593123950996
sg16
g36
(g70
S'\x01\x00\x00\x00'
tRp460
sg42
g43
sg46
g47
sg15
g113
sg22
F147.29059283353854
sg64
g261
sg62
g89
sg49
g50
sS'trials.thisN'
p461
I34
sg19
I1
sg27
g36
(g38
S'\x00\x00\x00\x00\x00\x00\x18@'
tRp462
sg52
g53
sg23
S'2'
sg18
F146.67853502789512
sg33
g34
sg51
g11
sg20
S'1'
sg65
g36
(g77
S'\x00\x00\x00\x00\x00\x00\x00\x00'
tRp463
sg44
g45
sg40
g41
sg25
F0.2106683652382344
sS'trials.thisIndex'
p464
g36
(g80
S'Q\x00\x00\x00'
tRp465
sg26
V5
sS'trials.thisRepN'
p466
I0
sg66
Vtable
p467
sg63
V../experiment_stimuli/bw_bc_bl/Nonliving_Things/Furniture/table_21.jpg
p468
sg21
F0.5915091693168506
sS'trials.thisTrialN'
p469
I34
sa(dp470
g31
g32
sg17
F149.26731764245778
sg24
I1
sg35
g39
sg14
F149.23419935908169
sg16
g36
(g70
S'\x01\x00\x00\x00'
tRp471
sg42
g43
sg46
g47
sg15
g113
sg22
F152.35146537236869
sg64
g261
sg62
g89
sg49
g50
sS'trials.thisN'
p472
I35
sg19
I1
sg27
g36
(g38
S'\x00\x00\x00\x00\x00\x00\x1e@'
tRp473
sg52
g53
sg23
S'1'
sg18
F150.48682293458842
sg33
g34
sg51
g11
sg20
S'1'
sg65
g36
(g77
S'\x00\x00\x00\x00\x00\x00\x00\x00'
tRp474
sg44
g45
sg40
g41
sg25
F0.13050905684940517
sS'trials.thisIndex'
p475
g36
(g80
S'\x1d\x00\x00\x00'
tRp476
sg26
V5
sS'trials.thisRepN'
p477
I0
sg66
Vfilling-cabinet
p478
sg63
V../experiment_stimuli/bw_bc_bl/Nonliving_Things/Furniture/filling-cabinet_11.jpg
p479
sg21
F1.844079805072397
sS'trials.thisTrialN'
p480
I35
sa(dp481
g31
g32
sg17
F154.24369022063911
sg24
I0
sg35
g39
sg14
F154.21503631433006
sg16
g36
(g70
S'\x01\x00\x00\x00'
tRp482
sg42
g43
sg46
g47
sg15
g72
sg22
F160.2889241790399
sg64
g328
sg62
g74
sg49
g50
sS'trials.thisN'
p483
I36
sg19
I0
sg27
g36
(g38
S'\x00\x00\x00\x00\x00\x00\x18@'
tRp484
sg52
g53
sg23
S'2'
sg18
F155.47769698849879
sg33
g34
sg51
g11
sg20
S'2'
sg65
g36
(g77
S'\x00\x00\x00\x00\x00\x00\x00\x00'
tRp485
sg44
g45
sg40
g41
sg25
F0.29084752616472542
sS'trials.thisIndex'
p486
g36
(g80
S'I\x00\x00\x00'
tRp487
sg26
V5
sS'trials.thisRepN'
p488
I0
sg66
Vscorpion
p489
sg63
V../experiment_stimuli/bw_bc_bl/Living_Things/Insects/scorpion_22.jpg
p490
sg21
F4.7906568250618875
sS'trials.thisTrialN'
p491
I36
sa(dp492
g31
g32
sg17
F162.33570119796786
sg24
I0
sg35
g39
sg14
F162.3126703776652
sg16
g36
(g70
S'\x02\x00\x00\x00'
tRp493
sg42
g43
sg46
g47
sg15
g72
sg22
F165.6606334769167
sg64
g261
sg62
g89
sg49
g50
sS'trials.thisN'
p494
I37
sg19
I1
sg27
g36
(g38
S'\x00\x00\x00\x00\x00\x00\x1a@'
tRp495
sg52
g53
sg23
S'2'
sg18
F163.55527965107467
sg33
g34
sg51
g11
sg20
S'2'
sg65
g36
(g77
S'\x00\x00\x00\x00\x00\x00\x00\x00'
tRp496
sg44
g45
sg40
g41
sg25
F0.26081028883345425
sS'trials.thisIndex'
p497
g36
(g80
S'E\x00\x00\x00'
tRp498
sg26
V5
sS'trials.thisRepN'
p499
I0
sg66
Vrocking-chair
p500
sg63
V../experiment_stimuli/bw_bc_bl/Nonliving_Things/Furniture/rocking-chair_13.jpg
p501
sg21
F2.084782546851784
sS'trials.thisTrialN'
p502
I37
sa(dp503
g31
g32
sg17
F167.67283119435888
sg24
I1
sg35
g39
sg14
F167.65430426946841
sg16
g36
(g70
S'\x02\x00\x00\x00'
tRp504
sg42
g43
sg46
g47
sg15
g72
sg22
F169.78960364975501
sg64
g101
sg62
g89
sg49
g50
sS'trials.thisN'
p505
I38
sg19
I1
sg27
g36
(g38
S'\x00\x00\x00\x00\x00\x00\x18@'
tRp506
sg52
g53
sg23
S'1'
sg18
F168.89692909130827
sg33
g34
sg51
g11
sg20
S'2'
sg65
g36
(g77
S'\x00\x00\x00\x00\x00\x00\x00\x00'
tRp507
sg44
g45
sg40
g41
sg25
F2.1449132956331596
sS'trials.thisIndex'
p508
g36
(g80
S'V\x00\x00\x00'
tRp509
sg26
V5
sS'trials.thisRepN'
p510
I0
sg66
Vtractor
p511
sg63
V../experiment_stimuli/bw_bc_bl/Nonliving_Things/Vehicles/tractor_5.jpg
p512
sg21
F0.87212390673812479
sS'trials.thisTrialN'
p513
I38
sa(dp514
g31
g32
sg17
F173.69583043677267
sg24
I0
sg35
g39
sg14
F173.6674098924268
sg16
g36
(g70
S'\x01\x00\x00\x00'
tRp515
sg42
g43
sg46
g47
sg15
g72
sg22
F175.69243612990249
sg64
g73
sg62
g74
sg49
g50
sS'trials.thisN'
p516
I39
sg19
I1
sg27
g36
(g38
S'\x00\x00\x00\x00\x00\x00\x1a@'
tRp517
sg52
g53
sg23
S'2'
sg18
F174.93005165352952
sg33
g34
sg51
g11
sg20
S'1'
sg65
g36
(g77
S'\x00\x00\x00\x00\x00\x00\x00\x00'
tRp518
sg44
g45
sg40
g41
sg25
F0.48126558645162731
sS'trials.thisIndex'
p519
g36
(g80
S'\x01\x00\x00\x00'
tRp520
sg26
V5
sS'trials.thisRepN'
p521
I0
sg66
Varmadillo
p522
sg63
V../experiment_stimuli/bw_bc_bl/Living_Things/Animals/armadillo_13.jpg
p523
sg21
F0.74183724238537252
sS'trials.thisTrialN'
p524
I39
sa(dp525
g31
g32
sg17
F177.92470967909321
sg24
I0
sg35
g39
sg14
F177.90662627178244
sg16
g36
(g70
S'\x02\x00\x00\x00'
tRp526
sg42
g43
sg46
g47
sg15
g113
sg22
F180.77350297849625
sg64
g149
sg62
g74
sg49
g50
sS'trials.thisN'
p527
I40
sg19
I0
sg27
g36
(g38
S'\x00\x00\x00\x00\x00\x00\x1c@'
tRp528
sg52
g53
sg23
S'2'
sg18
F179.14924385701306
sg33
g34
sg51
g11
sg20
S'1'
sg65
g36
(g77
S'\x00\x00\x00\x00\x00\x00\x00\x00'
tRp529
sg44
g45
sg40
g41
sg25
F0.16056367743294686
sS'trials.thisIndex'
p530
g36
(g80
S'C\x00\x00\x00'
tRp531
sg26
V5
sS'trials.thisRepN'
p532
I0
sg66
Vraven
p533
sg63
V../experiment_stimuli/bw_bc_bl/Living_Things/Birds/raven_9.jpg
p534
sg21
F1.6037153045181185
sS'trials.thisTrialN'
p535
I40
sa(dp536
g31
g32
sg17
F182.68632873333991
sg24
I0
sg35
g39
sg14
F182.66702341788914
sg16
g36
(g70
S'\x02\x00\x00\x00'
tRp537
sg42
g43
sg46
g47
sg15
g72
sg22
F184.50164092646446
sg64
g88
sg62
g89
sg49
g50
sS'trials.thisN'
p538
I41
sg19
I0
sg27
g36
(g38
S'\x00\x00\x00\x00\x00\x00\x1e@'
tRp539
sg52
g53
sg23
S'2'
sg18
F183.91962937347125
sg33
g34
sg51
g11
sg20
S'1'
sg65
g36
(g77
S'\x00\x00\x00\x00\x00\x00\x00\x00'
tRp540
sg44
g45
sg40
g41
sg25
F0.59150481945835054
sS'trials.thisIndex'
p541
g36
(g80
S'\x12\x00\x00\x00'
tRp542
sg26
V5
sS'trials.thisRepN'
p543
I0
sg66
Vcoking-pot
p544
sg63
V../experiment_stimuli/bw_bc_bl/Nonliving_Things/Kitchen_Uten/coking-pot_26.jpg
p545
sg21
F0.56144336797297001
sS'trials.thisTrialN'
p546
I41
sa(dp547
g31
g32
sg17
F186.86001370765734
sg24
I0
sg35
g39
sg14
F186.82606011000462
sg16
g36
(g70
S'\x02\x00\x00\x00'
tRp548
sg42
g43
sg46
g47
sg15
g72
sg22
F188.54043396236375
sg64
g137
sg62
g89
sg49
g50
sS'trials.thisN'
p549
I42
sg19
I0
sg27
g36
(g38
S'\x00\x00\x00\x00\x00\x00\x1a@'
tRp550
sg52
g53
sg23
S'2'
sg18
F188.08870880689938
sg33
g34
sg51
g11
sg20
S'1'
sg65
g36
(g77
S'\x00\x00\x00\x00\x00\x00\x00\x00'
tRp551
sg44
g45
sg40
g41
sg25
F0.160564512363635
sS'trials.thisIndex'
p552
g36
(g80
S':\x00\x00\x00'
tRp553
sg26
V5
sS'trials.thisRepN'
p554
I0
sg66
Vpalace
p555
sg63
V../experiment_stimuli/bw_bc_bl/Nonliving_Things/Buildings/palace_24.jpg
p556
sg21
F0.43115824856795371
sS'trials.thisTrialN'
p557
I42
sa(dp558
g31
g32
sg17
F190.45616883272305
sg24
I1
sg35
g39
sg14
F190.4339359512087
sg16
g36
(g70
S'\x01\x00\x00\x00'
tRp559
sg42
g43
sg46
g47
sg15
g72
sg22
F192.42889890260994
sg64
g73
sg62
g74
sg49
g50
sS'trials.thisN'
p560
I43
sg19
I0
sg27
g36
(g38
S'\x00\x00\x00\x00\x00\x00\x1e@'
tRp561
sg52
g53
sg23
S'1'
sg18
F191.68654486874584
sg33
g34
sg51
g11
sg20
S'2'
sg65
g36
(g77
S'\x00\x00\x00\x00\x00\x00\x00\x00'
tRp562
sg44
g45
sg40
g41
sg25
F0.41111002780962735
sS'trials.thisIndex'
p563
g36
(g80
S' \x00\x00\x00'
tRp564
sg26
V5
sS'trials.thisRepN'
p565
I0
sg66
Vgiraffe
p566
sg63
V../experiment_stimuli/bw_bc_bl/Living_Things/Animals/giraffe_4.jpg
p567
sg21
F0.72179473226424307
sS'trials.thisTrialN'
p568
I43
sa(dp569
g31
g32
sg17
F194.5902198794065
sg24
I0
sg35
g39
sg14
F194.57292620406952
sg16
g36
(g70
S'\x02\x00\x00\x00'
tRp570
sg42
g43
sg46
g47
sg15
g72
sg22
F196.6280363292899
sg64
g261
sg62
g89
sg49
g50
sS'trials.thisN'
p571
I44
sg19
I1
sg27
g36
(g38
S'\x00\x00\x00\x00\x00\x00\x1e@'
tRp572
sg52
g53
sg23
S'3'
sg18
F195.8355885965284
sg33
g34
sg51
g11
sg20
S'2'
sg65
g36
(g77
S'\x00\x00\x00\x00\x00\x00\x00\x00'
tRp573
sg44
g45
sg40
g41
sg25
F0.23070545075461268
sS'trials.thisIndex'
p574
g36
(g80
S'\x00\x00\x00\x00'
tRp575
sg26
V5
sS'trials.thisRepN'
p576
I0
sg66
VChest-of-drawers
p577
sg63
V../experiment_stimuli/bw_bc_bl/Nonliving_Things/Furniture/Chest-of-drawers_15.jpg
p578
sg21
F0.77190529135987163
sS'trials.thisTrialN'
p579
I44
sa(dp580
g31
g32
sg17
F198.6151266398374
sg24
I1
sg35
g39
sg14
F198.59168218099512
sg16
g36
(g70
S'\x02\x00\x00\x00'
tRp581
sg42
g43
sg46
g47
sg15
g113
sg22
F200.39629100798629
sg64
g149
sg62
g74
sg49
g50
sS'trials.thisN'
p582
I45
sg19
I0
sg27
g36
(g38
S'\x00\x00\x00\x00\x00\x00\x18@'
tRp583
sg52
g53
sg23
S'1'
sg18
F199.84430513984989
sg33
g34
sg51
g11
sg20
S'1'
sg65
g36
(g77
S'\x00\x00\x00\x00\x00\x00\x00\x00'
tRp584
sg44
g45
sg40
g41
sg25
F0.20067310018930584
sS'trials.thisIndex'
p585
g36
(g80
S'F\x00\x00\x00'
tRp586
sg26
V5
sS'trials.thisRepN'
p587
I0
sg66
Vrooster
p588
sg63
V../experiment_stimuli/bw_bc_bl/Living_Things/Birds/rooster_18.jpg
p589
sg21
F0.53139395778998733
sS'trials.thisTrialN'
p590
I45
sa(dp591
g31
g32
sg17
F202.3532497738488
sg24
I0
sg35
g39
sg14
F202.32980938651599
sg16
g36
(g70
S'\x02\x00\x00\x00'
tRp592
sg42
g43
sg46
g47
sg15
g113
sg22
F204.73570769838989
sg64
g194
sg62
g74
sg49
g50
sS'trials.thisN'
p593
I46
sg19
I1
sg27
g36
(g38
S'\x00\x00\x00\x00\x00\x00\x18@'
tRp594
sg52
g53
sg23
S'2'
sg18
F203.58244078152347
sg33
g34
sg51
g11
sg20
S'2'
sg65
g36
(g77
S'\x00\x00\x00\x00\x00\x00\x00\x00'
tRp595
sg44
g45
sg40
g41
sg25
F0.37102303735446185
sS'trials.thisIndex'
p596
g36
(g80
S'7\x00\x00\x00'
tRp597
sg26
V5
sS'trials.thisRepN'
p598
I0
sg66
Vnarwhal
p599
sg63
V../experiment_stimuli/bw_bc_bl/Living_Things/Marine_creatures/narwhal_14.jpg
p600
sg21
F1.1326881303684786
sS'trials.thisTrialN'
p601
I46
sa(dp602
g31
g32
sg17
F206.86090106691699
sg24
I0
sg35
g39
sg14
F206.83967054309323
sg16
g36
(g70
S'\x01\x00\x00\x00'
tRp603
sg42
g43
sg46
g47
sg15
g113
sg22
F208.8747013687389
sg64
g88
sg62
g89
sg49
g50
sS'trials.thisN'
p604
I47
sg19
I0
sg27
g36
(g38
S'\x00\x00\x00\x00\x00\x00\x18@'
tRp605
sg52
g53
sg23
S'2'
sg18
F208.08224112878088
sg33
g34
sg51
g11
sg20
S'2'
sg65
g36
(g77
S'\x00\x00\x00\x00\x00\x00\x00\x00'
tRp606
sg44
g45
sg40
g41
sg25
F0.22070150158833712
sS'trials.thisIndex'
p607
g36
(g80
S'S\x00\x00\x00'
tRp608
sg26
V5
sS'trials.thisRepN'
p609
I0
sg66
Vteapot
p610
sg63
V../experiment_stimuli/bw_bc_bl/Nonliving_Things/Kitchen_Uten/teapot_1.jpg
p611
sg21
F0.7718972087604925
sS'trials.thisTrialN'
p612
I47
sa(dp613
g31
g32
sg17
F210.84578113339376
sg24
I1
sg35
g39
sg14
F210.82831800123677
sg16
g36
(g70
S'\x02\x00\x00\x00'
tRp614
sg42
g43
sg46
g47
sg15
g72
sg22
F212.50260643847287
sg64
g88
sg62
g89
sg49
g50
sS'trials.thisN'
p615
I48
sg19
I1
sg27
g36
(g38
S'\x00\x00\x00\x00\x00\x00\x1e@'
tRp616
sg52
g53
sg23
S'1'
sg18
F212.07093601895031
sg33
g34
sg51
g11
sg20
S'2'
sg65
g36
(g77
S'\x00\x00\x00\x00\x00\x00\x00\x00'
tRp617
sg44
g45
sg40
g41
sg25
F0.17059399466961622
sS'trials.thisIndex'
p618
g36
(g80
S'B\x00\x00\x00'
tRp619
sg26
V5
sS'trials.thisRepN'
p620
I0
sg66
Vpot
p621
sg63
V../experiment_stimuli/bw_bc_bl/Nonliving_Things/Kitchen_Uten/pot_15.jpg
p622
sg21
F0.41111661773175001
sS'trials.thisTrialN'
p623
I48
sa(dp624
g31
g32
sg17
F214.42480840836652
sg24
I0
sg35
g39
sg14
F214.40610983874649
sg16
g36
(g70
S'\x02\x00\x00\x00'
tRp625
sg42
g43
sg46
g47
sg15
g113
sg22
F216.80198838608339
sg64
g328
sg62
g74
sg49
g50
sS'trials.thisN'
p626
I49
sg19
I1
sg27
g36
(g38
S'\x00\x00\x00\x00\x00\x00\x18@'
tRp627
sg52
g53
sg23
S'3'
sg18
F215.6787851722911
sg33
g34
sg51
g11
sg20
S'2'
sg65
g36
(g77
S'\x00\x00\x00\x00\x00\x00\x00\x00'
tRp628
sg44
g45
sg40
g41
sg25
F0.31091721286065876
sS'trials.thisIndex'
p629
g36
(g80
S'\n\x00\x00\x00'
tRp630
sg26
V5
sS'trials.thisRepN'
p631
I0
sg66
Vbutterfly
p632
sg63
V../experiment_stimuli/bw_bc_bl/Living_Things/Insects/butterfly_8.jpg
p633
sg21
F1.1026475583203137
sS'trials.thisTrialN'
p634
I49
sa(dp635
g31
g32
sg17
F218.87821398372762
sg24
I0
sg35
g39
sg14
F218.84577762894332
sg16
g36
(g70
S'\x02\x00\x00\x00'
tRp636
sg42
g43
sg46
g47
sg15
g113
sg22
F220.82070762291551
sg64
g194
sg62
g74
sg49
g50
sS'trials.thisN'
p637
I50
sg19
I1
sg27
g36
(g38
S'\x00\x00\x00\x00\x00\x00\x1a@'
tRp638
sg52
g53
sg23
S'2'
sg18
F220.10843003657646
sg33
g34
sg51
g11
sg20
S'2'
sg65
g36
(g77
S'\x00\x00\x00\x00\x00\x00\x00\x00'
tRp639
sg44
g45
sg40
g41
sg25
F0.16056763229425997
sS'trials.thisIndex'
p640
g36
(g80
S'\x17\x00\x00\x00'
tRp641
sg26
V5
sS'trials.thisRepN'
p642
I0
sg66
Vdolphin
p643
sg63
V../experiment_stimuli/bw_bc_bl/Living_Things/Marine_creatures/dolphin_10.jpg
p644
sg21
F0.69172682927455753
sS'trials.thisTrialN'
p645
I50
sa(dp646
g31
g32
sg17
F222.72400104010012
sg24
I1
sg35
g39
sg14
F222.71420004009269
sg16
g36
(g70
S'\x01\x00\x00\x00'
tRp647
sg42
g43
sg46
g47
sg15
g72
sg22
F224.85952981270384
sg64
g73
sg62
g74
sg49
g50
sS'trials.thisN'
p648
I51
sg19
I0
sg27
g36
(g38
S'\x00\x00\x00\x00\x00\x00\x1a@'
tRp649
sg52
g53
sg23
S'1'
sg18
F223.94679135701153
sg33
g34
sg51
g11
sg20
S'2'
sg65
g36
(g77
S'\x00\x00\x00\x00\x00\x00\x00\x00'
tRp650
sg44
g45
sg40
g41
sg25
F0.26078456721734256
sS'trials.thisIndex'
p651
g36
(g80
S'\r\x00\x00\x00'
tRp652
sg26
V5
sS'trials.thisRepN'
p653
I0
sg66
Vcat
p654
sg63
V../experiment_stimuli/bw_bc_bl/Living_Things/Animals/cat_20.jpg
p655
sg21
F0.89216982305515558
sS'trials.thisTrialN'
p656
I51
sa(dp657
g31
g32
sg17
F226.8748343992047
sg24
I0
sg35
g39
sg14
F226.85324369126465
sg16
g36
(g70
S'\x01\x00\x00\x00'
tRp658
sg42
g43
sg46
g47
sg15
g72
sg22
F228.50749227963388
sg64
g149
sg62
g74
sg49
g50
sS'trials.thisN'
p659
I52
sg19
I1
sg27
g36
(g38
S'\x00\x00\x00\x00\x00\x00\x18@'
tRp660
sg52
g53
sg23
S'2'
sg18
F228.1158798733959
sg33
g34
sg51
g11
sg20
S'1'
sg65
g36
(g77
S'\x00\x00\x00\x00\x00\x00\x00\x00'
tRp661
sg44
g45
sg40
g41
sg25
F0.18060136830899864
sS'trials.thisIndex'
p662
g36
(g80
S'\x1a\x00\x00\x00'
tRp663
sg26
V5
sS'trials.thisRepN'
p664
I0
sg66
Vduck
p665
sg63
V../experiment_stimuli/bw_bc_bl/Living_Things/Birds/duck_23.jpg
p666
sg21
F0.37105252570472658
sS'trials.thisTrialN'
p667
I52
sa(dp668
g31
g32
sg17
F230.44481884292327
sg24
I1
sg35
g39
sg14
F230.42098540719599
sg16
g36
(g70
S'\x01\x00\x00\x00'
tRp669
sg42
g43
sg46
g47
sg15
g113
sg22
F232.11533772677649
sg64
VTools
p670
sg62
g89
sg49
g50
sS'trials.thisN'
p671
I53
sg19
I0
sg27
g36
(g38
S'\x00\x00\x00\x00\x00\x00\x1e@'
tRp672
sg52
g53
sg23
S'1'
sg18
F231.683635604335
sg33
g34
sg51
g11
sg20
S'2'
sg65
g36
(g77
S'\x00\x00\x00\x00\x00\x00\x00\x00'
tRp673
sg44
g45
sg40
g41
sg25
F0.080389422248117626
sS'trials.thisIndex'
p674
g36
(g80
S'%\x00\x00\x00'
tRp675
sg26
V5
sS'trials.thisRepN'
p676
I0
sg66
Vhammer
p677
sg63
V../experiment_stimuli/bw_bc_bl/Nonliving_Things/Tools/hammer_5.jpg
p678
sg21
F0.4111321703530848
sS'trials.thisTrialN'
p679
I53
sa(dp680
g31
g32
sg17
F233.94810707832221
sg24
I0
sg35
g39
sg14
F233.92862507305108
sg16
g36
(g70
S'\x01\x00\x00\x00'
tRp681
sg42
g43
sg46
g47
sg15
g113
sg22
F236.22428282117471
sg64
g101
sg62
g89
sg49
g50
sS'trials.thisN'
p682
I54
sg19
I0
sg27
g36
(g38
S'\x00\x00\x00\x00\x00\x00\x1c@'
tRp683
sg52
g53
sg23
S'2'
sg18
F235.18125306209549
sg33
g34
sg51
g11
sg20
S'2'
sg65
g36
(g77
S'\x00\x00\x00\x00\x00\x00\x00\x00'
tRp684
sg44
g45
sg40
g41
sg25
F0.24076254572719336
sS'trials.thisIndex'
p685
g36
(g80
S'L\x00\x00\x00'
tRp686
sg26
V5
sS'trials.thisRepN'
p687
I0
sg66
Vship
p688
sg63
V../experiment_stimuli/bw_bc_bl/Nonliving_Things/Vehicles/ship_7.jpg
p689
sg21
F1.0224497319431975
sS'trials.thisTrialN'
p690
I54
sa(dp691
g31
g32
sg17
F238.22503279335797
sg24
I1
sg35
g39
sg14
F238.1979210319696
sg16
g36
(g70
S'\x01\x00\x00\x00'
tRp692
sg42
g43
sg46
g47
sg15
g113
sg22
F240.50359429256059
sg64
g261
sg62
g89
sg49
g50
sS'trials.thisN'
p693
I55
sg19
I1
sg27
g36
(g38
S'\x00\x00\x00\x00\x00\x00\x1e@'
tRp694
sg52
g53
sg23
S'1'
sg18
F239.46057365764864
sg33
g34
sg51
g11
sg20
S'1'
sg65
g36
(g77
S'\x00\x00\x00\x00\x00\x00\x00\x00'
tRp695
sg44
g45
sg40
g41
sg25
F0.20064887136686593
sS'trials.thisIndex'
p696
g36
(g80
S'\x0f\x00\x00\x00'
tRp697
sg26
V5
sS'trials.thisRepN'
p698
I0
sg66
Vchair
p699
sg63
V../experiment_stimuli/bw_bc_bl/Nonliving_Things/Furniture/chair_25.jpg
p700
sg21
F1.0224500101758167
sS'trials.thisTrialN'
p701
I55
sa(dp702
g31
g32
sg17
F242.45015131658874
sg24
I0
sg35
g39
sg14
F242.43715665175114
sg16
g36
(g70
S'\x01\x00\x00\x00'
tRp703
sg42
g43
sg46
g47
sg15
g72
sg22
F244.03128842753358
sg64
g194
sg62
g74
sg49
g50
sS'trials.thisN'
p704
I56
sg19
I1
sg27
g36
(g38
S'\x00\x00\x00\x00\x00\x00\x18@'
tRp705
sg52
g53
sg23
S'2'
sg18
F243.67976448161062
sg33
g34
sg51
g11
sg20
S'1'
sg65
g36
(g77
S'\x00\x00\x00\x00\x00\x00\x00\x00'
tRp706
sg44
g45
sg40
g41
sg25
F1.3130762946093455
sS'trials.thisIndex'
p707
g36
(g80
S'\x15\x00\x00\x00'
tRp708
sg26
V5
sS'trials.thisRepN'
p709
I0
sg66
Vcrab
p710
sg63
V../experiment_stimuli/bw_bc_bl/Living_Things/Marine_creatures/crab_23.jpg
p711
sg21
F0.33096955390647054
sS'trials.thisTrialN'
p712
I56
sa(dp713
g31
g32
sg17
F247.10256614140235
sg24
I0
sg35
g39
sg14
F247.07726643967908
sg16
g36
(g70
S'\x02\x00\x00\x00'
tRp714
sg42
g43
sg46
g47
sg15
g72
sg22
F249.4430515622953
sg64
g88
sg62
g89
sg49
g50
sS'trials.thisN'
p715
I57
sg19
I0
sg27
g36
(g38
S'\x00\x00\x00\x00\x00\x00\x18@'
tRp716
sg52
g53
sg23
S'2'
sg18
F248.3298871840816
sg33
g34
sg51
g11
sg20
S'1'
sg65
g36
(g77
S'\x00\x00\x00\x00\x00\x00\x00\x00'
tRp717
sg44
g45
sg40
g41
sg25
F0.11051395570393652
sS'trials.thisIndex'
p718
g36
(g80
S'\x1f\x00\x00\x00'
tRp719
sg26
V5
sS'trials.thisRepN'
p720
I0
sg66
Vfrying-pan
p721
sg63
V../experiment_stimuli/bw_bc_bl/Nonliving_Things/Kitchen_Uten/frying-pan_0.jpg
p722
sg21
F1.0926062415819615
sS'trials.thisTrialN'
p723
I57
sa(dp724
g31
g32
sg17
F251.30111517198384
sg24
I1
sg35
g39
sg14
F251.28643019834999
sg16
g36
(g70
S'\x01\x00\x00\x00'
tRp725
sg42
g43
sg46
g47
sg15
g113
sg22
F253.49187218607403
sg64
g261
sg62
g89
sg49
g50
sS'trials.thisN'
p726
I58
sg19
I0
sg27
g36
(g38
S'\x00\x00\x00\x00\x00\x00\x1a@'
tRp727
sg52
g53
sg23
S'1'
sg18
F252.52903237380087
sg33
g34
sg51
g11
sg20
S'2'
sg65
g36
(g77
S'\x00\x00\x00\x00\x00\x00\x00\x00'
tRp728
sg44
g45
sg40
g41
sg25
F1.3030571390409023
sS'trials.thisIndex'
p729
g36
(g80
S'\x05\x00\x00\x00'
tRp730
sg26
V5
sS'trials.thisRepN'
p731
I0
sg66
Vbed
p732
sg63
V../experiment_stimuli/bw_bc_bl/Nonliving_Things/Furniture/bed_4.jpg
p733
sg21
F0.94226284138858318
sS'trials.thisTrialN'
p734
I58
sa(dp735
g31
g32
sg17
F256.55911854468286
sg24
I0
sg35
g39
sg14
F256.52783017395996
sg16
g36
(g70
S'\x01\x00\x00\x00'
tRp736
sg42
g43
sg46
g47
sg15
g72
sg22
F258.36250529845711
sg64
g149
sg62
g74
sg49
g50
sS'trials.thisN'
p737
I59
sg19
I1
sg27
g36
(g38
S'\x00\x00\x00\x00\x00\x00\x18@'
tRp738
sg52
g53
sg23
S'3'
sg18
F257.810538543039
sg33
g34
sg51
g11
sg20
S'1'
sg65
g36
(g77
S'\x00\x00\x00\x00\x00\x00\x00\x00'
tRp739
sg44
g45
sg40
g41
sg25
F0.18060034594964236
sS'trials.thisIndex'
p740
g36
(g80
S'"\x00\x00\x00'
tRp741
sg26
V5
sS'trials.thisRepN'
p742
I0
sg66
Vgoose
p743
sg63
V../experiment_stimuli/bw_bc_bl/Living_Things/Birds/goose_21.jpg
p744
sg21
F0.53140517184510827
sS'trials.thisTrialN'
p745
I59
sa(dp746
g31
g32
sg17
F260.31485133164097
sg24
I0
sg35
g39
sg14
F260.27600733179133
sg16
g36
(g70
S'\x02\x00\x00\x00'
tRp747
sg42
g43
sg46
g47
sg15
g113
sg22
F262.07040370057803
sg64
g194
sg62
g74
sg49
g50
sS'trials.thisN'
p748
I60
sg19
I0
sg27
g36
(g38
S'\x00\x00\x00\x00\x00\x00\x18@'
tRp749
sg52
g53
sg23
S'3'
sg18
F261.54867271450348
sg33
g34
sg51
g11
sg20
S'1'
sg65
g36
(g77
S'\x00\x00\x00\x00\x00\x00\x00\x00'
tRp750
sg44
g45
sg40
g41
sg25
F0.24073606089223176
sS'trials.thisIndex'
p751
g36
(g80
S'K\x00\x00\x00'
tRp752
sg26
V5
sS'trials.thisRepN'
p753
I0
sg66
Vshark
p754
sg63
V../experiment_stimuli/bw_bc_bl/Living_Things/Marine_creatures/shark_25.jpg
p755
sg21
F0.50115299690514803
sS'trials.thisTrialN'
p756
I60
sa(dp757
g31
g32
sg17
F264.05881900084205
sg24
I0
sg35
g39
sg14
F264.04421979282051
sg16
g36
(g70
S'\x02\x00\x00\x00'
tRp758
sg42
g43
sg46
g47
sg15
g72
sg22
F265.84881152620073
sg64
g261
sg62
g89
sg49
g50
sS'trials.thisN'
p759
I61
sg19
I1
sg27
g36
(g38
S'\x00\x00\x00\x00\x00\x00\x18@'
tRp760
sg52
g53
sg23
S'2'
sg18
F265.28682296106126
sg33
g34
sg51
g11
sg20
S'2'
sg65
g36
(g77
S'\x00\x00\x00\x00\x00\x00\x00\x00'
tRp761
sg44
g45
sg40
g41
sg25
F0.31074051943141967
sS'trials.thisIndex'
p762
g36
(g80
S'N\x00\x00\x00'
tRp763
sg26
V5
sS'trials.thisRepN'
p764
I0
sg66
Vsofa
p765
sg63
V../experiment_stimuli/bw_bc_bl/Nonliving_Things/Furniture/sofa_14.jpg
p766
sg21
F0.54142044018954039
sS'trials.thisTrialN'
p767
I61
sa(dp768
g31
g32
sg17
F267.90345097577665
sg24
I1
sg35
g39
sg14
F267.89257961884141
sg16
g36
(g70
S'\x02\x00\x00\x00'
tRp769
sg42
g43
sg46
g47
sg15
g113
sg22
F269.89760227815714
sg64
g73
sg62
g74
sg49
g50
sS'trials.thisN'
p770
I62
sg19
I1
sg27
g36
(g38
S'\x00\x00\x00\x00\x00\x00\x18@'
tRp771
sg52
g53
sg23
S'1'
sg18
F269.1352013128344
sg33
g34
sg51
g11
sg20
S'2'
sg65
g36
(g77
S'\x00\x00\x00\x00\x00\x00\x00\x00'
tRp772
sg44
g45
sg40
g41
sg25
F0.19063394085969776
sS'trials.thisIndex'
p773
g36
(g80
S'_\x00\x00\x00'
tRp774
sg26
V5
sS'trials.thisRepN'
p775
I0
sg66
Vzebra
p776
sg63
V../experiment_stimuli/bw_bc_bl/Living_Things/Animals/zebra_3.jpg
p777
sg21
F0.74184302787762135
sS'trials.thisTrialN'
p778
I62
sa(dp779
g31
g32
sg17
F271.83671582187526
sg24
I0
sg35
g39
sg14
F271.82114139152691
sg16
g36
(g70
S'\x02\x00\x00\x00'
tRp780
sg42
g43
sg46
g47
sg15
g72
sg22
F273.93639550195076
sg64
g101
sg62
g89
sg49
g50
sS'trials.thisN'
p781
I63
sg19
I1
sg27
g36
(g38
S'\x00\x00\x00\x00\x00\x00 @'
tRp782
sg52
g53
sg23
S'3'
sg18
F273.08379465236794
sg33
g34
sg51
g11
sg20
S'2'
sg65
g36
(g77
S'\x00\x00\x00\x00\x00\x00\x00\x00'
tRp783
sg44
g45
sg40
g41
sg25
F0.28082375053782016
sS'trials.thisIndex'
p784
g36
(g80
S'\t\x00\x00\x00'
tRp785
sg26
V5
sS'trials.thisRepN'
p786
I0
sg66
Vbus
p787
sg63
V../experiment_stimuli/bw_bc_bl/Nonliving_Things/Vehicles/bus_5.jpg
p788
sg21
F0.83204798412043601
sS'trials.thisTrialN'
p789
I63
sa(dp790
g31
g32
sg17
F275.97961261961609
sg24
I1
sg35
g39
sg14
F275.95013172575273
sg16
g36
(g70
S'\x02\x00\x00\x00'
tRp791
sg42
g43
sg46
g47
sg15
g72
sg22
F278.14558345230762
sg64
g137
sg62
g89
sg49
g50
sS'trials.thisN'
p792
I64
sg19
I1
sg27
g36
(g38
S'\x00\x00\x00\x00\x00\x00\x18@'
tRp793
sg52
g53
sg23
S'1'
sg18
F277.20276197779458
sg33
g34
sg51
g11
sg20
S'2'
sg65
g36
(g77
S'\x00\x00\x00\x00\x00\x00\x00\x00'
tRp794
sg44
g45
sg40
g41
sg25
F0.34100446105003357
sS'trials.thisIndex'
p795
g36
(g80
S'#\x00\x00\x00'
tRp796
sg26
V5
sS'trials.thisRepN'
p797
I0
sg66
Vgranary
p798
sg63
V../experiment_stimuli/bw_bc_bl/Nonliving_Things/Buildings/granary_2.jpg
p799
sg21
F0.92223292880225927
sS'trials.thisTrialN'
p800
I64
sa(dp801
g31
g32
sg17
F280.23112861870322
sg24
I0
sg35
g39
sg14
F280.21942895883694
sg16
g36
(g70
S'\x02\x00\x00\x00'
tRp802
sg42
g43
sg46
g47
sg15
g72
sg22
F281.86366646329407
sg64
g261
sg62
g89
sg49
g50
sS'trials.thisN'
p803
I65
sg19
I1
sg27
g36
(g38
S'\x00\x00\x00\x00\x00\x00\x1a@'
tRp804
sg52
g53
sg23
S'2'
sg18
F281.49211034888867
sg33
g34
sg51
g11
sg20
S'2'
sg65
g36
(g77
S'\x00\x00\x00\x00\x00\x00\x00\x00'
tRp805
sg44
g45
sg40
g41
sg25
F0.57145711011253297
sS'trials.thisIndex'
p806
g36
(g80
S']\x00\x00\x00'
tRp807
sg26
V5
sS'trials.thisRepN'
p808
I0
sg66
Vwardrobe
p809
sg63
V../experiment_stimuli/bw_bc_bl/Nonliving_Things/Furniture/wardrobe_23.jpg
p810
sg21
F0.34096107457298785
sS'trials.thisTrialN'
p811
I65
sa(dp812
g31
g32
sg17
F284.19948517845478
sg24
I0
sg35
g39
sg14
F284.16803764004726
sg16
g36
(g70
S'\x02\x00\x00\x00'
tRp813
sg42
g43
sg46
g47
sg15
g72
sg22
F286.86454301490448
sg64
g137
sg62
g89
sg49
g50
sS'trials.thisN'
p814
I66
sg19
I1
sg27
g36
(g38
S'\x00\x00\x00\x00\x00\x00\x1a@'
tRp815
sg52
g53
sg23
S'2'
sg18
F285.44069980480708
sg33
g34
sg51
g11
sg20
S'2'
sg65
g36
(g77
S'\x00\x00\x00\x00\x00\x00\x00\x00'
tRp816
sg44
g45
sg40
g41
sg25
F0.30087192228529602
sS'trials.thisIndex'
p817
g36
(g80
S'\x11\x00\x00\x00'
tRp818
sg26
V5
sS'trials.thisRepN'
p819
I0
sg66
Vchurch
p820
sg63
V../experiment_stimuli/bw_bc_bl/Nonliving_Things/Buildings/church_1.jpg
p821
sg21
F1.4032825626200065
sS'trials.thisTrialN'
p822
I66
sa(dp823
g31
g32
sg17
F288.92334100638982
sg24
I0
sg35
g39
sg14
F288.89835436141584
sg16
g36
(g70
S'\x02\x00\x00\x00'
tRp824
sg42
g43
sg46
g47
sg15
g72
sg22
F291.1438726891065
sg64
g101
sg62
g89
sg49
g50
sS'trials.thisN'
p825
I67
sg19
I1
sg27
g36
(g38
S'\x00\x00\x00\x00\x00\x00\x1a@'
tRp826
sg52
g53
sg23
S'2'
sg18
F290.16099230293185
sg33
g34
sg51
g11
sg20
S'2'
sg65
g36
(g77
S'\x00\x00\x00\x00\x00\x00\x00\x00'
tRp827
sg44
g45
sg40
g41
sg25
F0.26078298478387296
sS'trials.thisIndex'
p828
g36
(g80
S'\x0b\x00\x00\x00'
tRp829
sg26
V5
sS'trials.thisRepN'
p830
I0
sg66
Vcar
p831
sg63
V../experiment_stimuli/bw_bc_bl/Nonliving_Things/Vehicles/car_23.jpg
p832
sg21
F0.96232023148331791
sS'trials.thisTrialN'
p833
I67
sa(dp834
g31
g32
sg17
F293.15509066532832
sg24
I0
sg35
g39
sg14
F293.13756103045307
sg16
g36
(g70
S'\x02\x00\x00\x00'
tRp835
sg42
g43
sg46
g47
sg15
g72
sg22
F294.94214179762639
sg64
g261
sg62
g89
sg49
g50
sS'trials.thisN'
p836
I68
sg19
I1
sg27
g36
(g38
S'\x00\x00\x00\x00\x00\x00\x1a@'
tRp837
sg52
g53
sg23
S'2'
sg18
F294.38017060072161
sg33
g34
sg51
g11
sg20
S'2'
sg65
g36
(g77
S'\x00\x00\x00\x00\x00\x00\x00\x00'
tRp838
sg44
g45
sg40
g41
sg25
F0.21066981239710003
sS'trials.thisIndex'
p839
g36
(g80
S'\x08\x00\x00\x00'
tRp840
sg26
V5
sS'trials.thisRepN'
p841
I0
sg66
Vbookcase
p842
sg63
V../experiment_stimuli/bw_bc_bl/Nonliving_Things/Furniture/bookcase_7.jpg
p843
sg21
F0.54140696302056313
sS'trials.thisTrialN'
p844
I68
sa(dp845
g31
g32
sg17
F296.90946824883576
sg24
I0
sg35
g39
sg14
F296.88572335743811
sg16
g36
(g70
S'\x01\x00\x00\x00'
tRp846
sg42
g43
sg46
g47
sg15
g113
sg22
F299.24132745002862
sg64
g88
sg62
g89
sg49
g50
sS'trials.thisN'
p847
I69
sg19
I1
sg27
g36
(g38
S'\x00\x00\x00\x00\x00\x00\x18@'
tRp848
sg52
g53
sg23
S'2'
sg18
F298.13835204916541
sg33
g34
sg51
g11
sg20
S'1'
sg65
g36
(g77
S'\x00\x00\x00\x00\x00\x00\x00\x00'
tRp849
sg44
g45
sg40
g41
sg25
F0.19062712544109672
sS'trials.thisIndex'
p850
g36
(g80
S'M\x00\x00\x00'
tRp851
sg26
V5
sS'trials.thisRepN'
p852
I0
sg66
Vsmall-saucepan
p853
sg63
V../experiment_stimuli/bw_bc_bl/Nonliving_Things/Kitchen_Uten/small-saucepan_12.jpg
p854
sg21
F1.0824164262739941
sS'trials.thisTrialN'
p855
I69
sa(dp856
g31
g32
sg17
F301.19305765558966
sg24
I0
sg35
g39
sg14
F301.16504733241163
sg16
g36
(g70
S'\x02\x00\x00\x00'
tRp857
sg42
g43
sg46
g47
sg15
g72
sg22
F302.90952500072308
sg64
g125
sg62
g89
sg49
g50
sS'trials.thisN'
p858
I70
sg19
I1
sg27
g36
(g38
S'\x00\x00\x00\x00\x00\x00\x18@'
tRp859
sg52
g53
sg23
S'2'
sg18
F302.41768126864918
sg33
g34
sg51
g11
sg20
S'2'
sg65
g36
(g77
S'\x00\x00\x00\x00\x00\x00\x00\x00'
tRp860
sg44
g45
sg40
g41
sg25
F0.32091795897576958
sS'trials.thisIndex'
p861
g36
(g80
S'X\x00\x00\x00'
tRp862
sg26
V5
sS'trials.thisRepN'
p863
I0
sg66
Vtrumpet
p864
sg63
V../experiment_stimuli/bw_bc_bl/Nonliving_Things/Musical_Inst/trumpet_15.jpg
p865
sg21
F0.47127090801950544
sS'trials.thisTrialN'
p866
I70
sa(dp867
g31
g32
sg17
F304.98125952994451
sg24
I0
sg35
g39
sg14
F304.96331773768179
sg16
g36
(g70
S'\x01\x00\x00\x00'
tRp868
sg42
g43
sg46
g47
sg15
g72
sg22
F306.87812984711491
sg64
g149
sg62
g74
sg49
g50
sS'trials.thisN'
p869
I71
sg19
I0
sg27
g36
(g38
S'\x00\x00\x00\x00\x00\x00\x18@'
tRp870
sg52
g53
sg23
S'2'
sg18
F306.21594200492837
sg33
g34
sg51
g11
sg20
S'2'
sg65
g36
(g77
S'\x00\x00\x00\x00\x00\x00\x00\x00'
tRp871
sg44
g45
sg40
g41
sg25
F1.0926024672808126
sS'trials.thisIndex'
p872
g36
(g80
S'*\x00\x00\x00'
tRp873
sg26
V5
sS'trials.thisRepN'
p874
I0
sg66
Vhummingbird
p875
sg63
V../experiment_stimuli/bw_bc_bl/Living_Things/Birds/hummingbird_24.jpg
p876
sg21
F0.64161975122988224
sS'trials.thisTrialN'
p877
I71
sa(dp878
g31
g32
sg17
F309.72443781595211
sg24
I1
sg35
g39
sg14
F309.70363244542386
sg16
g36
(g70
S'\x02\x00\x00\x00'
tRp879
sg42
g43
sg46
g47
sg15
g113
sg22
F311.49817989917938
sg64
g149
sg62
g74
sg49
g50
sS'trials.thisN'
p880
I72
sg19
I0
sg27
g36
(g38
S'\x00\x00\x00\x00\x00\x00\x18@'
tRp881
sg52
g53
sg23
S'1'
sg18
F310.94624861702323
sg33
g34
sg51
g11
sg20
S'1'
sg65
g36
(g77
S'\x00\x00\x00\x00\x00\x00\x00\x00'
tRp882
sg44
g45
sg40
g41
sg25
F0.22070704284124076
sS'trials.thisIndex'
p883
g36
(g80
S'O\x00\x00\x00'
tRp884
sg26
V5
sS'trials.thisRepN'
p885
I0
sg66
Vsparrow
p886
sg63
V../experiment_stimuli/bw_bc_bl/Living_Things/Birds/sparrow_25.jpg
p887
sg21
F0.53137991635594517
sS'trials.thisTrialN'
p888
I72
sa(dp889
g31
g32
sg17
F313.48247930745129
sg24
I1
sg35
g39
sg14
F313.45179671968799
sg16
g36
(g70
S'\x02\x00\x00\x00'
tRp890
sg42
g43
sg46
g47
sg15
g113
sg22
F315.21627104538493
sg64
g194
sg62
g74
sg49
g50
sS'trials.thisN'
p891
I73
sg19
I0
sg27
g36
(g38
S'\x00\x00\x00\x00\x00\x00\x1a@'
tRp892
sg52
g53
sg23
S'1'
sg18
F314.71445294679143
sg33
g34
sg51
g11
sg20
S'1'
sg65
g36
(g77
S'\x00\x00\x00\x00\x00\x00\x00\x00'
tRp893
sg44
g45
sg40
g41
sg25
F0.22071043017785996
sS'trials.thisIndex'
p894
g36
(g80
S'1\x00\x00\x00'
tRp895
sg26
V5
sS'trials.thisRepN'
p896
I0
sg66
Vlobster
p897
sg63
V../experiment_stimuli/bw_bc_bl/Living_Things/Marine_creatures/lobster_2.jpg
p898
sg21
F0.48126479308120906
sS'trials.thisTrialN'
p899
I73
sa(dp900
g31
g32
sg17
F317.20614688994829
sg24
I0
sg35
g39
sg14
F317.16989299713168
sg16
g36
(g70
S'\x02\x00\x00\x00'
tRp901
sg42
g43
sg46
g47
sg15
g113
sg22
F318.9344744309783
sg64
g149
sg62
g74
sg49
g50
sS'trials.thisN'
p902
I74
sg19
I1
sg27
g36
(g38
S'\x00\x00\x00\x00\x00\x00\x18@'
tRp903
sg52
g53
sg23
S'2'
sg18
F318.4626174014993
sg33
g34
sg51
g11
sg20
S'2'
sg65
g36
(g77
S'\x00\x00\x00\x00\x00\x00\x00\x00'
tRp904
sg44
g45
sg40
g41
sg25
F1.2529381359927356
sS'trials.thisIndex'
p905
g36
(g80
S'?\x00\x00\x00'
tRp906
sg26
V5
sS'trials.thisRepN'
p907
I0
sg66
Vpigeon
p908
sg63
V../experiment_stimuli/bw_bc_bl/Living_Things/Birds/pigeon_20.jpg
p909
sg21
F0.45127024303656071
sS'trials.thisTrialN'
p910
I74
sa(dp911
g31
g32
sg17
F321.95932129013818
sg24
I0
sg35
g39
sg14
F321.92024328524712
sg16
g36
(g70
S'\x02\x00\x00\x00'
tRp912
sg42
g43
sg46
g47
sg15
g72
sg22
F323.79495297186077
sg64
g137
sg62
g89
sg49
g50
sS'trials.thisN'
p913
I75
sg19
I1
sg27
g36
(g38
S'\x00\x00\x00\x00\x00\x00\x18@'
tRp914
sg52
g53
sg23
S'2'
sg18
F323.2029328084318
sg33
g34
sg51
g11
sg20
S'2'
sg65
g36
(g77
S'\x00\x00\x00\x00\x00\x00\x00\x00'
tRp915
sg44
g45
sg40
g41
sg25
F0.72181064542382956
sS'trials.thisIndex'
p916
g36
(g80
S'5\x00\x00\x00'
tRp917
sg26
V5
sS'trials.thisRepN'
p918
I0
sg66
Vmill
p919
sg63
V../experiment_stimuli/bw_bc_bl/Nonliving_Things/Buildings/mill_7.jpg
p920
sg21
F0.57146374508738518
sS'trials.thisTrialN'
p921
I75
sa(dp922
g31
g32
sg17
F326.28052283788566
sg24
I0
sg35
g39
sg14
F326.24966707907151
sg16
g36
(g70
S'\x02\x00\x00\x00'
tRp923
sg42
g43
sg46
g47
sg15
g72
sg22
F328.08415702870116
sg64
g101
sg62
g89
sg49
g50
sS'trials.thisN'
p924
I76
sg19
I0
sg27
g36
(g38
S'\x00\x00\x00\x00\x00\x00\x1a@'
tRp925
sg52
g53
sg23
S'2'
sg18
F327.51231792673934
sg33
g34
sg51
g11
sg20
S'1'
sg65
g36
(g77
S'\x00\x00\x00\x00\x00\x00\x00\x00'
tRp926
sg44
g45
sg40
g41
sg25
F0.7418498060433194
sS'trials.thisIndex'
p927
g36
(g80
S'@\x00\x00\x00'
tRp928
sg26
V5
sS'trials.thisRepN'
p929
I0
sg66
Vplane
p930
sg63
V../experiment_stimuli/bw_bc_bl/Nonliving_Things/Vehicles/plane_17.jpg
p931
sg21
F0.55126548872794956
sS'trials.thisTrialN'
p932
I76
sa(dp933
g31
g32
sg17
F330.57856328506023
sg24
I1
sg35
g39
sg14
F330.55905295326374
sg16
g36
(g70
S'\x02\x00\x00\x00'
tRp934
sg42
g43
sg46
g47
sg15
g72
sg22
F332.59413199243136
sg64
g125
sg62
g89
sg49
g50
sS'trials.thisN'
p935
I77
sg19
I1
sg27
g36
(g38
S'\x00\x00\x00\x00\x00\x00 @'
tRp936
sg52
g53
sg23
S'1'
sg18
F331.80166690296028
sg33
g34
sg51
g11
sg20
S'2'
sg65
g36
(g77
S'\x00\x00\x00\x00\x00\x00\x00\x00'
tRp937
sg44
g45
sg40
g41
sg25
F0.19067928660660982
sS'trials.thisIndex'
p938
g36
(g80
S'$\x00\x00\x00'
tRp939
sg26
V5
sS'trials.thisRepN'
p940
I0
sg66
Vguitar
p941
sg63
V../experiment_stimuli/bw_bc_bl/Nonliving_Things/Musical_Inst/guitar_6.jpg
p942
sg21
F0.77190704713575542
sS'trials.thisTrialN'
p943
I77
sa(dp944
g31
g32
sg17
F334.5497357804561
sg24
I0
sg35
g39
sg14
F334.51768057595473
sg16
g36
(g70
S'\x02\x00\x00\x00'
tRp945
sg42
g43
sg46
g47
sg15
g72
sg22
F336.62291542941239
sg64
g101
sg62
g89
sg49
g50
sS'trials.thisN'
p946
I78
sg19
I1
sg27
g36
(g38
S'\x00\x00\x00\x00\x00\x00\x18@'
tRp947
sg52
g53
sg23
S'2'
sg18
F335.80036955385003
sg33
g34
sg51
g11
sg20
S'2'
sg65
g36
(g77
S'\x00\x00\x00\x00\x00\x00\x00\x00'
tRp948
sg44
g45
sg40
g41
sg25
F0.23071560461539775
sS'trials.thisIndex'
p949
g36
(g80
S'W\x00\x00\x00'
tRp950
sg26
V5
sS'trials.thisRepN'
p951
I0
sg66
Vtrain
p952
sg63
V../experiment_stimuli/bw_bc_bl/Nonliving_Things/Vehicles/train_7.jpg
p953
sg21
F0.80197015288285911
sS'trials.thisTrialN'
p954
I78
sa(dp955
g31
g32
sg17
F338.60041254980024
sg24
I0
sg35
g39
sg14
F338.58654111227952
sg16
g36
(g70
S'\x02\x00\x00\x00'
tRp956
sg42
g43
sg46
g47
sg15
g113
sg22
F340.41118610359263
sg64
g149
sg62
g74
sg49
g50
sS'trials.thisN'
p957
I79
sg19
I0
sg27
g36
(g38
S'\x00\x00\x00\x00\x00\x00\x18@'
tRp958
sg52
g53
sg23
S'2'
sg18
F339.84919565520249
sg33
g34
sg51
g11
sg20
S'1'
sg65
g36
(g77
S'\x00\x00\x00\x00\x00\x00\x00\x00'
tRp959
sg44
g45
sg40
g41
sg25
F0.15056090557482094
sS'trials.thisIndex'
p960
g36
(g80
S'3\x00\x00\x00'
tRp961
sg26
V5
sS'trials.thisRepN'
p962
I0
sg66
Vmagpie
p963
sg63
V../experiment_stimuli/bw_bc_bl/Living_Things/Birds/magpie_14.jpg
p964
sg21
F0.54141941014677286
sS'trials.thisTrialN'
p965
I79
sa(dp966
g31
g32
sg17
F342.31796676944941
sg24
I0
sg35
g39
sg14
F342.29461265180726
sg16
g36
(g70
S'\x01\x00\x00\x00'
tRp967
sg42
g43
sg46
g47
sg15
g72
sg22
F344.1392575299833
sg64
g73
sg62
g74
sg49
g50
sS'trials.thisN'
p968
I80
sg19
I0
sg27
g36
(g38
S'\x00\x00\x00\x00\x00\x00\x1c@'
tRp969
sg52
g53
sg23
S'2'
sg18
F343.54723894514609
sg33
g34
sg51
g11
sg20
S'2'
sg65
g36
(g77
S'\x00\x00\x00\x00\x00\x00\x00\x00'
tRp970
sg44
g45
sg40
g41
sg25
F0.25077873095870018
sS'trials.thisIndex'
p971
g36
(g80
S'\x14\x00\x00\x00'
tRp972
sg26
V5
sS'trials.thisRepN'
p973
I0
sg66
Vcow
p974
sg63
V../experiment_stimuli/bw_bc_bl/Living_Things/Animals/cow_2.jpg
p975
sg21
F0.5714704031124711
sS'trials.thisTrialN'
p976
I80
sa(dp977
g31
g32
sg17
F346.13840908289421
sg24
I1
sg35
g39
sg14
F346.12294180935714
sg16
g36
(g70
S'\x02\x00\x00\x00'
tRp978
sg42
g43
sg46
g47
sg15
g113
sg22
F347.71707914129365
sg64
g194
sg62
g74
sg49
g50
sS'trials.thisN'
p979
I81
sg19
I0
sg27
g36
(g38
S'\x00\x00\x00\x00\x00\x00\x18@'
tRp980
sg52
g53
sg23
S'1'
sg18
F347.36555194715038
sg33
g34
sg51
g11
sg20
S'1'
sg65
g36
(g77
S'\x00\x00\x00\x00\x00\x00\x00\x00'
tRp981
sg44
g45
sg40
g41
sg25
F0.40109119925182313
sS'trials.thisIndex'
p982
g36
(g80
S'+\x00\x00\x00'
tRp983
sg26
V5
sS'trials.thisRepN'
p984
I0
sg66
Vkiller-whale
p985
sg63
V../experiment_stimuli/bw_bc_bl/Living_Things/Marine_creatures/killer-whale_19.jpg
p986
sg21
F0.33096555026713759
sS'trials.thisTrialN'
p987
I81
sa(dp988
g31
g32
sg17
F349.88647867797408
sg24
I0
sg35
g39
sg14
F349.85107312200125
sg16
g36
(g70
S'\x01\x00\x00\x00'
tRp989
sg42
g43
sg46
g47
sg15
g72
sg22
F351.78591423830949
sg64
g149
sg62
g74
sg49
g50
sS'trials.thisN'
p990
I82
sg19
I1
sg27
g36
(g38
S'\x00\x00\x00\x00\x00\x00\x1e@'
tRp991
sg52
g53
sg23
S'3'
sg18
F351.13376275042538
sg33
g34
sg51
g11
sg20
S'1'
sg65
g36
(g77
S'\x00\x00\x00\x00\x00\x00\x00\x00'
tRp992
sg44
g45
sg40
g41
sg25
F0.37102210894227028
sS'trials.thisIndex'
p993
g36
(g80
S'J\x00\x00\x00'
tRp994
sg26
V5
sS'trials.thisRepN'
p995
I0
sg66
Vseagull
p996
sg63
V../experiment_stimuli/bw_bc_bl/Living_Things/Birds/seagull_26.jpg
p997
sg21
F0.6315928966505453
sS'trials.thisTrialN'
p998
I82
sa(dp999
g31
g32
sg17
F353.92227191152051
sg24
I0
sg35
g39
sg14
F353.88985665456858
sg16
g36
(g70
S'\x01\x00\x00\x00'
tRp1000
sg42
g43
sg46
g47
sg15
g72
sg22
F355.64433656889014
sg64
g73
sg62
g74
sg49
g50
sS'trials.thisN'
p1001
I83
sg19
I0
sg27
g36
(g38
S'\x00\x00\x00\x00\x00\x00\x18@'
tRp1002
sg52
g53
sg23
S'2'
sg18
F355.14250128995627
sg33
g34
sg51
g11
sg20
S'2'
sg65
g36
(g77
S'\x00\x00\x00\x00\x00\x00\x00\x00'
tRp1003
sg44
g45
sg40
g41
sg25
F0.18062595464289188
sS'trials.thisIndex'
p1004
g36
(g80
S'2\x00\x00\x00'
tRp1005
sg26
V5
sS'trials.thisRepN'
p1006
I0
sg66
Vlynx
p1007
sg63
V../experiment_stimuli/bw_bc_bl/Living_Things/Animals/lynx_1.jpg
p1008
sg21
F0.48127120255958289
sS'trials.thisTrialN'
p1009
I83
sa(dp1010
g31
g32
sg17
F357.57870314852335
sg24
I0
sg35
g39
sg14
F357.55786210170481
sg16
g36
(g70
S'\x01\x00\x00\x00'
tRp1011
sg42
g43
sg46
g47
sg15
g113
sg22
F359.48267349472735
sg64
g670
sg62
g89
sg49
g50
sS'trials.thisN'
p1012
I84
sg19
I0
sg27
g36
(g38
S'\x00\x00\x00\x00\x00\x00\x18@'
tRp1013
sg52
g53
sg23
S'2'
sg18
F358.8004599843407
sg33
g34
sg51
g11
sg20
S'2'
sg65
g36
(g77
S'\x00\x00\x00\x00\x00\x00\x00\x00'
tRp1014
sg44
g45
sg40
g41
sg25
F0.62157206039410084
sS'trials.thisIndex'
p1015
g36
(g80
S'\x03\x00\x00\x00'
tRp1016
sg26
V5
sS'trials.thisRepN'
p1017
I0
sg66
Vaxe
p1018
sg63
V../experiment_stimuli/bw_bc_bl/Nonliving_Things/Tools/axe_10.jpg
p1019
sg21
F0.66166587430052459
sS'trials.thisTrialN'
p1020
I84
sa(dp1021
g31
g32
sg17
F361.85281758557539
sg24
I1
sg35
g39
sg14
F361.83718064066488
sg16
g36
(g70
S'\x01\x00\x00\x00'
tRp1022
sg42
g43
sg46
g47
sg15
g113
sg22
F363.16069955634885
sg64
g261
sg62
g89
sg49
g50
sS'trials.thisN'
p1023
I85
sg19
I0
sg27
g36
(g38
S'\x00\x00\x00\x00\x00\x00\x1c@'
tRp1024
sg52
g53
sg23
S'1'
sg18
F363.07978060957976
sg33
g34
sg51
g11
sg20
S'2'
sg65
g36
(g77
S'\x00\x00\x00\x00\x00\x00\x00\x00'
tRp1025
sg44
g45
sg40
g41
sg25
F0.3209141205297783
sS'trials.thisIndex'
p1026
g36
(g80
S'\x13\x00\x00\x00'
tRp1027
sg26
V5
sS'trials.thisRepN'
p1028
I0
sg66
Vcouch
p1029
sg63
V../experiment_stimuli/bw_bc_bl/Nonliving_Things/Furniture/couch_0.jpg
p1030
sg21
F0.060360129689797759
sS'trials.thisTrialN'
p1031
I85
sa(dp1032
g31
g32
sg17
F365.23860251554288
sg24
I0
sg35
g39
sg14
F365.21452892804518
sg16
g36
(g70
S'\x02\x00\x00\x00'
tRp1033
sg42
g43
sg46
g47
sg15
g72
sg22
F366.96900648146402
sg64
g261
sg62
g89
sg49
g50
sS'trials.thisN'
p1034
I86
sg19
I0
sg27
g36
(g38
S'\x00\x00\x00\x00\x00\x00 @'
tRp1035
sg52
g53
sg23
S'2'
sg18
F366.49721296259668
sg33
g34
sg51
g11
sg20
S'1'
sg65
g36
(g77
S'\x00\x00\x00\x00\x00\x00\x00\x00'
tRp1036
sg44
g45
sg40
g41
sg25
F0.49131927522830665
sS'trials.thisIndex'
p1037
g36
(g80
S'/\x00\x00\x00'
tRp1038
sg26
V5
sS'trials.thisRepN'
p1039
I0
sg66
Vlectern
p1040
sg63
V../experiment_stimuli/bw_bc_bl/Nonliving_Things/Furniture/lectern_17.jpg
p1041
sg21
F0.45122393884230405
sS'trials.thisTrialN'
p1042
I86
sa(dp1043
g31
g32
sg17
F369.21568153006956
sg24
I0
sg35
g39
sg14
F369.1931851139525
sg16
g36
(g70
S'\x01\x00\x00\x00'
tRp1044
sg42
g43
sg46
g47
sg15
g113
sg22
F370.99776909162756
sg64
g137
sg62
g89
sg49
g50
sS'trials.thisN'
p1045
I87
sg19
I1
sg27
g36
(g38
S'\x00\x00\x00\x00\x00\x00\x1e@'
tRp1046
sg52
g53
sg23
S'2'
sg18
F370.44581728696357
sg33
g34
sg51
g11
sg20
S'1'
sg65
g36
(g77
S'\x00\x00\x00\x00\x00\x00\x00\x00'
tRp1047
sg44
g45
sg40
g41
sg25
F0.23071589425671846
sS'trials.thisIndex'
p1048
g36
(g80
S'\x1c\x00\x00\x00'
tRp1049
sg26
V5
sS'trials.thisRepN'
p1050
I0
sg66
Vfactory
p1051
sg63
V../experiment_stimuli/bw_bc_bl/Nonliving_Things/Buildings/factory_6.jpg
p1052
sg21
F0.53138179611414671
sS'trials.thisTrialN'
p1053
I87
sa(dp1054
g31
g32
sg17
F372.9775354617741
sg24
I0
sg35
g39
sg14
F372.96139095851686
sg16
g36
(g70
S'\x01\x00\x00\x00'
tRp1055
sg42
g43
sg46
g47
sg15
g113
sg22
F374.50523273320869
sg64
g101
sg62
g89
sg49
g50
sS'trials.thisN'
p1056
I88
sg19
I0
sg27
g36
(g38
S'\x00\x00\x00\x00\x00\x00\x18@'
tRp1057
sg52
g53
sg23
S'2'
sg18
F374.20400914165657
sg33
g34
sg51
g11
sg20
S'2'
sg65
g36
(g77
S'\x00\x00\x00\x00\x00\x00\x00\x00'
tRp1058
sg44
g45
sg40
g41
sg25
F0.1906261439435184
sS'trials.thisIndex'
p1059
g36
(g80
S'6\x00\x00\x00'
tRp1060
sg26
V5
sS'trials.thisRepN'
p1061
I0
sg66
Vmotorbike
p1062
sg63
V../experiment_stimuli/bw_bc_bl/Nonliving_Things/Vehicles/motorbike_9.jpg
p1063
sg21
F0.28067232004832476
sS'trials.thisTrialN'
p1064
I88
sa(dp1065
g31
g32
sg17
F376.44335854717065
sg24
I0
sg35
g39
sg14
F376.42894973198418
sg16
g36
(g70
S'\x02\x00\x00\x00'
tRp1066
sg42
g43
sg46
g47
sg15
g113
sg22
F377.78253041859716
sg64
g194
sg62
g74
sg49
g50
sS'trials.thisN'
p1067
I89
sg19
I1
sg27
g36
(g38
S'\x00\x00\x00\x00\x00\x00\x1a@'
tRp1068
sg52
g53
sg23
S'2'
sg18
F377.6715476406971
sg33
g34
sg51
g11
sg20
S'2'
sg65
g36
(g77
S'\x00\x00\x00\x00\x00\x00\x00\x00'
tRp1069
sg44
g45
sg40
g41
sg25
F0.1505451159318909
sS'trials.thisIndex'
p1070
g36
(g80
S'4\x00\x00\x00'
tRp1071
sg26
V5
sS'trials.thisRepN'
p1072
I0
sg66
Vmanatee
p1073
sg63
V../experiment_stimuli/bw_bc_bl/Living_Things/Marine_creatures/manatee_24.jpg
p1074
sg21
F0.090417363215237856
sS'trials.thisTrialN'
p1075
I89
sa(dp1076
g31
g32
sg17
F379.68830189178698
sg24
I1
sg35
g39
sg14
F379.66600444354117
sg16
g36
(g70
S'\x01\x00\x00\x00'
tRp1077
sg42
g43
sg46
g47
sg15
g72
sg22
F381.28012993303128
sg64
g73
sg62
g74
sg49
g50
sS'trials.thisN'
p1078
I90
sg19
I1
sg27
g36
(g38
S'\x00\x00\x00\x00\x00\x00\x1e@'
tRp1079
sg52
g53
sg23
S'1'
sg18
F380.9086104198359
sg33
g34
sg51
g11
sg20
S'1'
sg65
g36
(g77
S'\x00\x00\x00\x00\x00\x00\x00\x00'
tRp1080
sg44
g45
sg40
g41
sg25
F0.46122127550188452
sS'trials.thisIndex'
p1081
g36
(g80
S'Z\x00\x00\x00'
tRp1082
sg26
V5
sS'trials.thisRepN'
p1083
I0
sg66
Vturtle
p1084
sg63
V../experiment_stimuli/bw_bc_bl/Living_Things/Animals/turtle_12.jpg
p1085
sg21
F0.35097933886572719
sS'trials.thisTrialN'
p1086
I90
sa(dp1087
g31
g32
sg17
F383.49503730784636
sg24
I0
sg35
g39
sg14
F383.47430666582659
sg16
g36
(g70
S'\x01\x00\x00\x00'
tRp1088
sg42
g43
sg46
g47
sg15
g72
sg22
F385.18866442819126
sg64
g328
sg62
g74
sg49
g50
sS'trials.thisN'
p1089
I91
sg19
I1
sg27
g36
(g38
S'\x00\x00\x00\x00\x00\x00\x18@'
tRp1090
sg52
g53
sg23
S'3'
sg18
F384.74695457122289
sg33
g34
sg51
g11
sg20
S'1'
sg65
g36
(g77
S'\x00\x00\x00\x00\x00\x00\x00\x00'
tRp1091
sg44
g45
sg40
g41
sg25
F0.17058752477169037
sS'trials.thisIndex'
p1092
g36
(g80
S'\x18\x00\x00\x00'
tRp1093
sg26
V5
sS'trials.thisRepN'
p1094
I0
sg66
Vdragonfly
p1095
sg63
V../experiment_stimuli/bw_bc_bl/Living_Things/Insects/dragonfly_23.jpg
p1096
sg21
F0.42114122433122247
sS'trials.thisTrialN'
p1097
I91
sa(dp1098
g31
g32
sg17
F387.10780568304472
sg24
I0
sg35
g39
sg14
F387.09216290374752
sg16
g36
(g70
S'\x02\x00\x00\x00'
tRp1099
sg42
g43
sg46
g47
sg15
g113
sg22
F389.15734795038588
sg64
g73
sg62
g74
sg49
g50
sS'trials.thisN'
p1100
I92
sg19
I1
sg27
g36
(g38
S'\x00\x00\x00\x00\x00\x00\x1a@'
tRp1101
sg52
g53
sg23
S'2'
sg18
F388.34480168949813
sg33
g34
sg51
g11
sg20
S'2'
sg65
g36
(g77
S'\x00\x00\x00\x00\x00\x00\x00\x00'
tRp1102
sg44
g45
sg40
g41
sg25
F0.20069378067273647
sS'trials.thisIndex'
p1103
g36
(g80
S'(\x00\x00\x00'
tRp1104
sg26
V5
sS'trials.thisRepN'
p1105
I0
sg66
Vhorse
p1106
sg63
V../experiment_stimuli/bw_bc_bl/Living_Things/Animals/horse_13.jpg
p1107
sg21
F0.79196330904960632
sS'trials.thisTrialN'
p1108
I92
sa(dp1109
g31
g32
sg17
F391.10808841476683
sg24
I0
sg35
g39
sg14
F391.09086988540366
sg16
g36
(g70
S'\x02\x00\x00\x00'
tRp1110
sg42
g43
sg46
g47
sg15
g113
sg22
F392.93554593215231
sg64
g149
sg62
g74
sg49
g50
sS'trials.thisN'
p1111
I93
sg19
I1
sg27
g36
(g38
S'\x00\x00\x00\x00\x00\x00\x1c@'
tRp1112
sg52
g53
sg23
S'2'
sg18
F392.33348589157686
sg33
g34
sg51
g11
sg20
S'2'
sg65
g36
(g77
S'\x00\x00\x00\x00\x00\x00\x00\x00'
tRp1113
sg44
g45
sg40
g41
sg25
F0.20067051728256047
sS'trials.thisIndex'
p1114
g36
(g80
S'8\x00\x00\x00'
tRp1115
sg26
V5
sS'trials.thisRepN'
p1116
I0
sg66
Vostrich
p1117
sg63
V../experiment_stimuli/bw_bc_bl/Living_Things/Birds/ostrich_23.jpg
p1118
sg21
F0.58150119008496404
sS'trials.thisTrialN'
p1119
I93
sa(dp1120
g31
g32
sg17
F394.89790425274987
sg24
I0
sg35
g39
sg14
F394.87911971006542
sg16
g36
(g70
S'\x01\x00\x00\x00'
tRp1121
sg42
g43
sg46
g47
sg15
g72
sg22
F396.95429312356282
sg64
g149
sg62
g74
sg49
g50
sS'trials.thisN'
p1122
I94
sg19
I1
sg27
g36
(g38
S'\x00\x00\x00\x00\x00\x00\x18@'
tRp1123
sg52
g53
sg23
S'2'
sg18
F396.12173611484468
sg33
g34
sg51
g11
sg20
S'1'
sg65
g36
(g77
S'\x00\x00\x00\x00\x00\x00\x00\x00'
tRp1124
sg44
g45
sg40
g41
sg25
F0.42097699700389057
sS'trials.thisIndex'
p1125
g36
(g80
S'=\x00\x00\x00'
tRp1126
sg26
V5
sS'trials.thisRepN'
p1127
I0
sg66
Vpenguin
p1128
sg63
V../experiment_stimuli/bw_bc_bl/Living_Things/Birds/penguin_2.jpg
p1129
sg21
F0.81199350021779537
sS'trials.thisTrialN'
p1130
I94
sa(dp1131
g31
g32
sg17
F399.13941782189067
sg24
I0
sg35
g39
sg14
F399.10832998680416
sg16
g36
(g70
S'\x01\x00\x00\x00'
tRp1132
sg42
g43
sg46
g47
sg15
g72
sg22
F400.81270374753512
sg64
g149
sg62
g74
sg49
g50
sS'trials.thisN'
p1133
I95
sg19
I1
sg27
g36
(g38
S'\x00\x00\x00\x00\x00\x00\x1a@'
tRp1134
sg52
g53
sg23
S'2'
sg18
F400.36095917480998
sg33
g34
sg51
g11
sg20
S'1'
sg65
g36
(g77
S'\x00\x00\x00\x00\x00\x00\x00\x00'
tRp1135
sg44
g45
sg40
g41
sg25
F0.14037104113958776
sS'trials.thisIndex'
p1136
g36
(g80
S'U\x00\x00\x00'
tRp1137
sg26
V5
sS'trials.thisRepN'
p1138
I0
sg66
Vtoucan
p1139
sg63
V../experiment_stimuli/bw_bc_bl/Living_Things/Birds/toucan_12.jpg
p1140
sg21
F0.43115912436041981
sS'trials.thisTrialN'
p1141
I95
sasS'loops'
p1142
(lp1143
g1
(cpsychopy.data
TrialHandler
p1144
g3
NtRp1145
(dp1146
S'origin'
p1147
NsS'thisTrial'
p1148
(lp1149
sS'_exp'
p1150
I97313040
sg10
S'trials'
p1151
sg6
I-1
sS'thisRepN'
p1152
I1
sg28
I01
sg29
g30
sS'data'
p1153
g1
(cpsychopy.data
DataHandler
p1154
c__builtin__
dict
p1155
(dp1156
g20
cnumpy.core.multiarray
_reconstruct
p1157
(cnumpy
ndarray
p1158
(I0
tS'b'
tRp1159
(I1
(I96
I1
tg37
(S'O4'
I0
I1
tRp1160
(I3
S'|'
NNNI-1
I-1
I63
tbI00
(lp1161
S'2'
aS'1'
aS'2'
aS'2'
aS'2'
aS'2'
aS'2'
aS'1'
aS'2'
aS'2'
aS'2'
aS'2'
aS'2'
aS'2'
aS'2'
aS'1'
aS'2'
aS'2'
aS'1'
aS'2'
aS'2'
aS'1'
aS'2'
aS'2'
aS'1'
aS'1'
aS'1'
aS'1'
aS'1'
aS'1'
aS'2'
aS'1'
aS'2'
aS'1'
aS'1'
aS'2'
aS'2'
aS'2'
aS'1'
aS'2'
aS'2'
aS'2'
aS'2'
aS'1'
aS'2'
aS'2'
aS'2'
aS'1'
aS'1'
aS'1'
aS'2'
aS'1'
aS'2'
aS'2'
aS'2'
aS'2'
aS'2'
aS'1'
aS'1'
aS'2'
aS'2'
aS'1'
aS'2'
aS'2'
aS'1'
aS'2'
aS'2'
aS'1'
aS'2'
aS'2'
aS'1'
aS'2'
aS'1'
aS'2'
aS'1'
aS'1'
aS'2'
aS'1'
aS'2'
aS'1'
aS'1'
aS'1'
aS'2'
aS'2'
aS'2'
aS'1'
aS'2'
aS'2'
aS'2'
aS'2'
aS'1'
aS'2'
aS'2'
aS'2'
aS'1'
aS'2'
atbsg17
cnumpy.ma.core
_mareconstruct
p1162
(cnumpy.ma.core
MaskedArray
p1163
g1158
(I0
tp1164
S'b'
tRp1165
(I1
(I96
I1
tg37
(S'f4'
I0
I1
tRp1166
(I3
S'<'
NNNI-1
I-1
I0
tbI00
S'\x19\x97BC"\xb2-C\x95\x0b\x0eC\x13\xca\xb2C\xdb$\xecB\x16M{C\xb1x\xdbBA\x05\x86A\xda\x93\x92C\x1a\xeb\x87C\xc0lVC0v\x90C\\\x95zBX\xb9^CtE\x96B\x9c9nC\x19\x88q@\x89\x19\x8eC\xb3\xaf6C)\xed\xb4C\xb3(\xabC=srC\xc2\xeeYB\xd3\xe0ZC]\xbf\xbfCz>\x02C\xf5\xdfbC\xc5;\nB\x9b\x9b\xb8CoD\x15CA\x88\x01AB\x1awC\xc7t>C\xee\xa4\xb6B\x91G\x80Cd\xfd\x89C\x0eJ\xa5C\xe0qfC\x9a\x03\x1cB\xf3\x91\xaeB\xcd\x8d\xc1C\xa7<\xc6A\x9a}\x98C\xb7\x11\xadC/\xb9kB\xb9=\xbeB*=\x8fB\x8b\x9e\xb6C\x9e\x0eJB\xc2\xbd\x9cC\r\xf6\xb0C\xdaL\xa9C\xc08\xbcC\xcb\xfa\xa0C }\xbaCoZJC\xd6\x8d\xc3C\xb5\x02\xf5A*\xdc:C\xf0E\x06C\xe0?\nC\xefr\xc5C\xd7N\xcdBc\x9a\x9eC\xe8#\xa3C\xcf\x9d\xa6B\x85\xd8RC\xba\xec1C\xd7\xc0\xe2B\xf1U"Cy\x9dFC0\xc0\xf3B\xfd\x86\xa4Ab>\x1aCx\xf1\xaeCM(\x82C\xb7\xf2iCit\x94C\x87\x07\x84C\xba\xdc\x9aC\x8f\xdf:B{t\x11C\x05I\x9eBd\xdcNC#\xf6\xfcB\xd8\x91\xc7C?\xac\'C^F\xa7C\xb6\x98\x96C\xaaT*B\x1a\xd8\xbdC\x9c\x02GANH\x84B\x96\x1d\x8cC\xed2\xd4B\xa4\xf3\x85C'
S'\x00\x00\x00\x00\x00\x00\x00\x00\x00\x00\x00\x00\x00\x00\x00\x00\x00\x00\x00\x00\x00\x00\x00\x00\x00\x00\x00\x00\x00\x00\x00\x00\x00\x00\x00\x00\x00\x00\x00\x00\x00\x00\x00\x00\x00\x00\x00\x00\x00\x00\x00\x00\x00\x00\x00\x00\x00\x00\x00\x00\x00\x00\x00\x00\x00\x00\x00\x00\x00\x00\x00\x00\x00\x00\x00\x00\x00\x00\x00\x00\x00\x00\x00\x00\x00\x00\x00\x00\x00\x00\x00\x00\x00\x00\x00\x00'
NtbsS'ran'
p1167
g1162
(g1163
g1158
g1164
S'b'
tRp1168
(I1
(I96
I1
tg1166
I00
S'\x00\x00\x80?\x00\x00\x80?\x00\x00\x80?\x00\x00\x80?\x00\x00\x80?\x00\x00\x80?\x00\x00\x80?\x00\x00\x80?\x00\x00\x80?\x00\x00\x80?\x00\x00\x80?\x00\x00\x80?\x00\x00\x80?\x00\x00\x80?\x00\x00\x80?\x00\x00\x80?\x00\x00\x80?\x00\x00\x80?\x00\x00\x80?\x00\x00\x80?\x00\x00\x80?\x00\x00\x80?\x00\x00\x80?\x00\x00\x80?\x00\x00\x80?\x00\x00\x80?\x00\x00\x80?\x00\x00\x80?\x00\x00\x80?\x00\x00\x80?\x00\x00\x80?\x00\x00\x80?\x00\x00\x80?\x00\x00\x80?\x00\x00\x80?\x00\x00\x80?\x00\x00\x80?\x00\x00\x80?\x00\x00\x80?\x00\x00\x80?\x00\x00\x80?\x00\x00\x80?\x00\x00\x80?\x00\x00\x80?\x00\x00\x80?\x00\x00\x80?\x00\x00\x80?\x00\x00\x80?\x00\x00\x80?\x00\x00\x80?\x00\x00\x80?\x00\x00\x80?\x00\x00\x80?\x00\x00\x80?\x00\x00\x80?\x00\x00\x80?\x00\x00\x80?\x00\x00\x80?\x00\x00\x80?\x00\x00\x80?\x00\x00\x80?\x00\x00\x80?\x00\x00\x80?\x00\x00\x80?\x00\x00\x80?\x00\x00\x80?\x00\x00\x80?\x00\x00\x80?\x00\x00\x80?\x00\x00\x80?\x00\x00\x80?\x00\x00\x80?\x00\x00\x80?\x00\x00\x80?\x00\x00\x80?\x00\x00\x80?\x00\x00\x80?\x00\x00\x80?\x00\x00\x80?\x00\x00\x80?\x00\x00\x80?\x00\x00\x80?\x00\x00\x80?\x00\x00\x80?\x00\x00\x80?\x00\x00\x80?\x00\x00\x80?\x00\x00\x80?\x00\x00\x80?\x00\x00\x80?\x00\x00\x80?\x00\x00\x80?\x00\x00\x80?\x00\x00\x80?\x00\x00\x80?\x00\x00\x80?'
S'\x00\x00\x00\x00\x00\x00\x00\x00\x00\x00\x00\x00\x00\x00\x00\x00\x00\x00\x00\x00\x00\x00\x00\x00\x00\x00\x00\x00\x00\x00\x00\x00\x00\x00\x00\x00\x00\x00\x00\x00\x00\x00\x00\x00\x00\x00\x00\x00\x00\x00\x00\x00\x00\x00\x00\x00\x00\x00\x00\x00\x00\x00\x00\x00\x00\x00\x00\x00\x00\x00\x00\x00\x00\x00\x00\x00\x00\x00\x00\x00\x00\x00\x00\x00\x00\x00\x00\x00\x00\x00\x00\x00\x00\x00\x00\x00'
Ntbsg24
g1162
(g1163
g1158
g1164
S'b'
tRp1169
(I1
(I96
I1
tg1166
I00
S'\x00\x00\x00\x00\x00\x00\x00\x00\x00\x00\x00\x00\x00\x00\x00\x00\x00\x00\x80?\x00\x00\x80?\x00\x00\x80?\x00\x00\x00\x00\x00\x00\x00\x00\x00\x00\x00\x00\x00\x00\x00\x00\x00\x00\x00\x00\x00\x00\x80?\x00\x00\x80?\x00\x00\x80?\x00\x00\x80?\x00\x00\x00\x00\x00\x00\x00\x00\x00\x00\x00\x00\x00\x00\x80?\x00\x00\x00\x00\x00\x00\x00\x00\x00\x00\x00\x00\x00\x00\x00\x00\x00\x00\x00\x00\x00\x00\x00\x00\x00\x00\x00\x00\x00\x00\x00\x00\x00\x00\x00\x00\x00\x00\x80?\x00\x00\x00\x00\x00\x00\x00\x00\x00\x00\x80?\x00\x00\x00\x00\x00\x00\x00\x00\x00\x00\x80?\x00\x00\x80?\x00\x00\x80?\x00\x00\x00\x00\x00\x00\x00\x00\x00\x00\x00\x00\x00\x00\x80?\x00\x00\x00\x00\x00\x00\x80?\x00\x00\x80?\x00\x00\x00\x00\x00\x00\x80?\x00\x00\x00\x00\x00\x00\x00\x00\x00\x00\x80?\x00\x00\x00\x00\x00\x00\x00\x00\x00\x00\x00\x00\x00\x00\x00\x00\x00\x00\x00\x00\x00\x00\x00\x00\x00\x00\x00\x00\x00\x00\x00\x00\x00\x00\x00\x00\x00\x00\x00\x00\x00\x00\x80?\x00\x00\x00\x00\x00\x00\x80?\x00\x00\x00\x00\x00\x00\x00\x00\x00\x00\x80?\x00\x00\x80?\x00\x00\x00\x00\x00\x00\x00\x00\x00\x00\x00\x00\x00\x00\x80?\x00\x00\x00\x00\x00\x00\x80?\x00\x00\x00\x00\x00\x00\x00\x00\x00\x00\x00\x00\x00\x00\x00\x00\x00\x00\x00\x00\x00\x00\x00\x00\x00\x00\x80?\x00\x00\x00\x00\x00\x00\x00\x00\x00\x00\x00\x00\x00\x00\x00\x00\x00\x00\x80?\x00\x00\x00\x00\x00\x00\x80?\x00\x00\x00\x00\x00\x00\x00\x00\x00\x00\x00\x00\x00\x00\x80?\x00\x00\x00\x00\x00\x00\x00\x00\x00\x00\x00\x00\x00\x00\x00\x00\x00\x00\x80?'
S'\x00\x00\x00\x00\x00\x00\x00\x00\x00\x00\x00\x00\x00\x00\x00\x00\x00\x00\x00\x00\x00\x00\x00\x00\x00\x00\x00\x00\x00\x00\x00\x00\x00\x00\x00\x00\x00\x00\x00\x00\x00\x00\x00\x00\x00\x00\x00\x00\x00\x00\x00\x00\x00\x00\x00\x00\x00\x00\x00\x00\x00\x00\x00\x00\x00\x00\x00\x00\x00\x00\x00\x00\x00\x00\x00\x00\x00\x00\x00\x00\x00\x00\x00\x00\x00\x00\x00\x00\x00\x00\x00\x00\x00\x00\x00\x00'
Ntbsg14
g1162
(g1163
g1158
g1164
S'b'
tRp1170
(I1
(I96
I1
tg1166
I00
S'\xab\x92BC\xdb\xaa-C\xbb\x04\x0eCh\xc7\xb2C\xb3\x17\xecBSI{C\xb2o\xdbB\xb0\xe2\x85A\x9c\x91\x92C\x1b\xe9\x87C\xf7gVC\xfdr\x90CXvzB\xd6\xb6^C\xc09\x96B\xab2nCD1o@\x82\x15\x8eC\xc2\xaa6C)\xeb\xb4C\xb6%\xabC\xe9orC\x10\xdfYB\x85\xd8ZC\xb6\xbc\xbfC\t9\x02Cn\xdabCA#\nB\xba\x98\xb8C\xf4;\x15C\xa8:\x01A\xc8\x13wC\x16o>C\x99\x98\xb6B\x90C\x80C\x9e\xf9\x89C\x8fG\xa5C\xc6kfCy\xe5\x1bB\xdc\x89\xaeB\xcc\x8b\xc1Ck\x06\xc6AN{\x98C\xbd\x0f\xadCK\xa1kBr6\xbeB\x93+\x8fBv\x9b\xb6C\xe9\xf4IB\xd4\xb9\x9cC\xe7\xf1\xb0C\x14K\xa9C\xe86\xbcC\xcb\xf5\xa0C\x0f{\xbaCnTJC\xa2\x8b\xc3CQ\xc4\xf4Ay\xd3:Cg@\x06C\xf1:\nC\x87p\xc5C\xd2>\xcdB\xbf\x95\x9eC\xf5\x1f\xa3C\xa7\x8f\xa6B\r\xd4RC\x19\xe81CP\xb6\xe2B\x0bP"Cx\x97FCk\xb0\xf3B\x96n\xa4A\r7\x1aC\xf0\xec\xaeCT#\x82C\xba\xediC_q\x94C\xa9\x05\x84C\x11\xda\x9aC\xbf\xcd:B\x99o\x11C\x169\x9eB\xf5\xd6NC\xe1\xed\xfcB\xde\x8d\xc7C\x80\xa7\'CCB\xa7C \x95\x96Cl?*B@\xd5\xbdC\x10\x80FA\x16?\x84B\x16\x1c\x8cC\x14)\xd4B@\xf2\x85C'
S'\x00\x00\x00\x00\x00\x00\x00\x00\x00\x00\x00\x00\x00\x00\x00\x00\x00\x00\x00\x00\x00\x00\x00\x00\x00\x00\x00\x00\x00\x00\x00\x00\x00\x00\x00\x00\x00\x00\x00\x00\x00\x00\x00\x00\x00\x00\x00\x00\x00\x00\x00\x00\x00\x00\x00\x00\x00\x00\x00\x00\x00\x00\x00\x00\x00\x00\x00\x00\x00\x00\x00\x00\x00\x00\x00\x00\x00\x00\x00\x00\x00\x00\x00\x00\x00\x00\x00\x00\x00\x00\x00\x00\x00\x00\x00\x00'
Ntbsg16
g1157
(g1158
(I0
tS'b'
tRp1171
(I1
(I96
I1
tg1160
I00
(lp1172
g570
ag515
ag449
ag1011
ag383
ag725
ag361
ag112
ag835
ag780
ag625
ag824
ag238
ag647
ag272
ag692
ag71
ag813
ag537
ag1022
ag967
ag703
ag216
ag636
ag1088
ag416
ag658
ag160
ag1044
ag471
ag87
ag714
ag559
ag316
ag736
ag791
ag934
ag669
ag171
ag305
ag1099
ag136
ag868
ag978
ag227
ag327
ag260
ag1033
ag205
ag890
ag1000
ag956
ag1066
ag912
ag1055
ag592
ag1110
ag148
ag548
ag427
ag438
ag1121
ag339
ag901
ag923
ag294
ag614
ag526
ag372
ag493
ag581
ag394
ag124
ag482
ag989
ag747
ag681
ag846
ag758
ag879
ag193
ag460
ag283
ag603
ag405
ag1132
ag504
ag945
ag857
ag182
ag1077
ag100
ag249
ag802
ag350
ag769
atbsg15
g1157
(g1158
(I0
tS'b'
tRp1173
(I1
(I96
I1
tg1160
I00
(lp1174
g72
ag72
ag72
ag113
ag113
ag113
ag72
ag113
ag72
ag72
ag113
ag72
ag72
ag72
ag72
ag113
ag72
ag72
ag72
ag113
ag72
ag72
ag72
ag113
ag72
ag113
ag72
ag113
ag113
ag113
ag72
ag72
ag72
ag113
ag72
ag72
ag72
ag113
ag72
ag113
ag113
ag72
ag72
ag113
ag72
ag72
ag113
ag72
ag113
ag113
ag72
ag113
ag113
ag72
ag113
ag113
ag113
ag113
ag72
ag113
ag113
ag72
ag113
ag113
ag72
ag72
ag72
ag113
ag72
ag72
ag113
ag72
ag72
ag72
ag72
ag113
ag113
ag113
ag72
ag113
ag113
ag113
ag72
ag113
ag72
ag72
ag72
ag72
ag72
ag72
ag72
ag72
ag113
ag72
ag72
ag113
atbsg22
g1162
(g1163
g1158
g1164
S'b'
tRp1175
(I1
(I96
I1
tg1166
I00
S'\xc7\xa0DCC\xb1/Cn\x8d\x0fC\xc8\xbd\xb3Cp\xd2\xefB\xeb}}C\x95\xe2\xdeB\x02\x90\x94A\x98x\x93C\xdc\xf7\x88CO\xcdXCj\x92\x91C\xf8[\x80B\n\xdc`C\xe4y\x9aB\xec\x80pC\x80c\xc1@\xa9n\x8fCl\x808C\x92\x94\xb5C\xd3\x11\xacC\x03\x08tC\x1e\x04dB\x1a\xd2\\C&\x98\xc0C\xb6I\x04C\xeb\x81dC\x98\xcc\x12B\xb7\x7f\xb9C\xfaY\x18C\x02\xab AlqyC\xccm@CD*\xbaBg.\x81C\xa2\x12\x8bC\rL\xa6C\x87\x1dhC\xb3\xca!B\xa4m\xb2B$\x94\xc2C(\x15\xdeAgp\x99C\xc9\xdb\xadC\x16\x87rBy\x04\xc9B`L\x92B\x08|\xb7C\x10\xfaQB\xaf\x9b\x9dCz\xd2\xb1C\xa24\xaaC*\xe4\xbcC\xc1\xe5\xa1C\xab@\xbbCW\xbcLC\xc0w\xc4C\xd2\xb8\x01BZ\x8a<C%\xf2\x07CK\xdd\x0bC&z\xc6C]U\xd0B\x9dw\x9fC\xc6\n\xa4C8n\xaaB\xab\x80TC\x04\xc64C\x99M\xe7B\x1f\xa9%CseHC\xb8\xbd\xf8BG\xea\xb5A\xf7I C\x99\xe4\xafC\x03\t\x83Ck9lC\xe4\x9e\x95C\xa6\xec\x84C\xc4\xbf\x9bC\xf08BBdJ\x13C\xff\xfd\xa1B\xec\xdfPC\x0bJ\x00C\x07h\xc8C#\xca)C\xbcO\xa8Ckt\x97C\xb9\xe82B\xdb\xa3\xbeCq\xaclA\xd6\xe1\x8aB\x8d\xee\x8cC\xb5\x91\xd7B\xe5\xf2\x86C'
S'\x00\x00\x00\x00\x00\x00\x00\x00\x00\x00\x00\x00\x00\x00\x00\x00\x00\x00\x00\x00\x00\x00\x00\x00\x00\x00\x00\x00\x00\x00\x00\x00\x00\x00\x00\x00\x00\x00\x00\x00\x00\x00\x00\x00\x00\x00\x00\x00\x00\x00\x00\x00\x00\x00\x00\x00\x00\x00\x00\x00\x00\x00\x00\x00\x00\x00\x00\x00\x00\x00\x00\x00\x00\x00\x00\x00\x00\x00\x00\x00\x00\x00\x00\x00\x00\x00\x00\x00\x00\x00\x00\x00\x00\x00\x00\x00'
Ntbsg26
g1157
(g1158
(I0
tS'b'
tRp1176
(I1
(I96
I1
tg1160
I00
(lp1177
g36
(g80
S'\x03\x00\x00\x00'
tRp1178
ag36
(g80
S'\x02\x00\x00\x00'
tRp1179
ag36
(g80
S'\x02\x00\x00\x00'
tRp1180
aI1
ag36
(g80
S'\x02\x00\x00\x00'
tRp1181
aI1
ag36
(g80
S'\x02\x00\x00\x00'
tRp1182
ag36
(g80
S'\x01\x00\x00\x00'
tRp1183
ag36
(g80
S'\x01\x00\x00\x00'
tRp1184
ag36
(g80
S'\x02\x00\x00\x00'
tRp1185
ag36
(g80
S'\x04\x00\x00\x00'
tRp1186
ag36
(g80
S'\x02\x00\x00\x00'
tRp1187
ag36
(g80
S'\x02\x00\x00\x00'
tRp1188
ag36
(g80
S'\x01\x00\x00\x00'
tRp1189
ag36
(g80
S'\x04\x00\x00\x00'
tRp1190
ag36
(g80
S'\x01\x00\x00\x00'
tRp1191
aS'5.0'
p1192
ag36
(g80
S'\x03\x00\x00\x00'
tRp1193
aI1
aI1
ag36
(g80
S'\x02\x00\x00\x00'
tRp1194
ag36
(g80
S'\x02\x00\x00\x00'
tRp1195
aI1
ag36
(g80
S'\x02\x00\x00\x00'
tRp1196
ag36
(g80
S'\x04\x00\x00\x00'
tRp1197
ag36
(g80
S'\x04\x00\x00\x00'
tRp1198
ag36
(g80
S'\x02\x00\x00\x00'
tRp1199
ag36
(g80
S'\x04\x00\x00\x00'
tRp1200
ag36
(g80
S'\x02\x00\x00\x00'
tRp1201
aI1
aS'4.0'
p1202
ag36
(g80
S'\x01\x00\x00\x00'
tRp1203
aI1
ag36
(g80
S'\x04\x00\x00\x00'
tRp1204
ag36
(g80
S'\x03\x00\x00\x00'
tRp1205
aI1
ag36
(g80
S'\x01\x00\x00\x00'
tRp1206
ag36
(g80
S'\x01\x00\x00\x00'
tRp1207
ag36
(g80
S'\x03\x00\x00\x00'
tRp1208
ag36
(g80
S'\x07\x00\x00\x00'
tRp1209
ag36
(g80
S'\x02\x00\x00\x00'
tRp1210
ag36
(g80
S'\x04\x00\x00\x00'
tRp1211
aI1
ag36
(g80
S'\x01\x00\x00\x00'
tRp1212
aI1
ag36
(g80
S'\x03\x00\x00\x00'
tRp1213
ag36
(g80
S'\x03\x00\x00\x00'
tRp1214
ag36
(g80
S'\x03\x00\x00\x00'
tRp1215
aI1
ag36
(g80
S'\x02\x00\x00\x00'
tRp1216
ag36
(g80
S'\x01\x00\x00\x00'
tRp1217
ag36
(g80
S'\x03\x00\x00\x00'
tRp1218
aI1
ag36
(g80
S'\x03\x00\x00\x00'
tRp1219
ag36
(g80
S'\x01\x00\x00\x00'
tRp1220
ag36
(g80
S'\x02\x00\x00\x00'
tRp1221
ag36
(g80
S'\x01\x00\x00\x00'
tRp1222
ag36
(g80
S'\x05\x00\x00\x00'
tRp1223
aI1
ag36
(g80
S'\x02\x00\x00\x00'
tRp1224
ag36
(g80
S'\x01\x00\x00\x00'
tRp1225
aI1
ag36
(g80
S'\x02\x00\x00\x00'
tRp1226
ag36
(g80
S'\x04\x00\x00\x00'
tRp1227
ag36
(g80
S'\x02\x00\x00\x00'
tRp1228
ag36
(g80
S'\x05\x00\x00\x00'
tRp1229
aI1
ag36
(g80
S'\x01\x00\x00\x00'
tRp1230
ag36
(g80
S'\x03\x00\x00\x00'
tRp1231
ag36
(g80
S'\x01\x00\x00\x00'
tRp1232
ag36
(g80
S'\x01\x00\x00\x00'
tRp1233
ag36
(g80
S'\x04\x00\x00\x00'
tRp1234
aI1
ag36
(g80
S'\x02\x00\x00\x00'
tRp1235
ag36
(g80
S'\x03\x00\x00\x00'
tRp1236
ag36
(g80
S'\x01\x00\x00\x00'
tRp1237
ag36
(g80
S'\x02\x00\x00\x00'
tRp1238
aI1
aI1
aI1
aI1
ag36
(g80
S'\x01\x00\x00\x00'
tRp1239
ag36
(g80
S'\x06\x00\x00\x00'
tRp1240
ag36
(g80
S'\x01\x00\x00\x00'
tRp1241
ag36
(g80
S'\x03\x00\x00\x00'
tRp1242
aI1
aI1
ag36
(g80
S'\x04\x00\x00\x00'
tRp1243
aI1
ag36
(g80
S'\x02\x00\x00\x00'
tRp1244
aI1
ag36
(g80
S'\x02\x00\x00\x00'
tRp1245
ag36
(g80
S'\x04\x00\x00\x00'
tRp1246
ag36
(g80
S'\x04\x00\x00\x00'
tRp1247
ag36
(g80
S'\x03\x00\x00\x00'
tRp1248
aI1
atbsg21
g1162
(g1163
g1158
g1164
S'b'
tRp1249
(I1
(I96
I1
tg1166
I00
S"\x96\x9bE?\x0c\xe9=?Nc\x80>\xefb)?\xe4\xdc\x14?#8q?\xbd\x04\xe7>7L\x12?\xa6\x99\n?\x19\x01U?\x8e#\x8d?\x9eZv?I\xc9\x8f>>ed?\xa2\x01U?\xa4\xdf\x82?\xf6\xefx?\xc3\x9e\xb3?\xc1\xba\x0f?/<w=\xe2K\x12?\xd7t\xa9>\t\xf2\xa2?\x02\x151?\xd3\x9f\xd7>W\x9bE?\x99\xfa\xbd>\xb2\xb2\\?\xa3\x08\x08?\xcf\n\xec?w\xf3+?\x85\xda\x8b?\x8a\xc78?\xb9h\xf6>+\n\x08?u\x17l?\xb3\x9bE?\xea\x7f\xd2>\xcd\xf28>\xb4\x1f\x1f?\x1c\xbeJ?\x19\xd2\xd8?1A$?Qt\xa9>#'\xec>p\xd0\x83@\x03\x86\x85>\xd3\x06\xe7>\xb0Y;?Wh\xf6>.i\xf6>v\x9a\n?\xbd,\xb9=sK\x12?H\xb4\x8f>\xed\xfb\x90?C\xdd\x14?\xd0w\x05?\xc6\xc0\xdc>\xbf\x9f\xd7>\x84\xf7\xbd>\xce\xdeO?\xaa\x86\x85>\xe5\x0c\xe7>\xbc\x1f\r?\xea\x14\x1f?\xe1}\xd2>\x8bF\xcd?gI\x80?\x14m\x05@o\t\x08?@\x82\x9c?\x00\xa8n?\x10M\x99@\x12\xb0!?\x90K\x00?\xa2\xdf\x82?\x9f\x8c\x8a?\x88\x9a\n?\x84\x08\x08?&m\x17?%m\x17?N\xb0\x0f?\x0e\x9bE?5\x99\n?\xe4\xc0\xdc>\x83C_?\xeaMM?lJ\xf1>\x07ed?\x90\xb3\xb3>\x87#\x8d?\x84\x93\x01@s\x92\xae>\xb9\x9e\xd7>m\xe9=?"
S'\x00\x00\x00\x00\x00\x00\x00\x00\x00\x00\x00\x00\x00\x00\x00\x00\x00\x00\x00\x00\x00\x00\x00\x00\x00\x00\x00\x00\x00\x00\x00\x00\x00\x00\x00\x00\x00\x00\x00\x00\x00\x00\x00\x00\x00\x00\x00\x00\x00\x00\x00\x00\x00\x00\x00\x00\x00\x00\x00\x00\x00\x00\x00\x00\x00\x00\x00\x00\x00\x00\x00\x00\x00\x00\x00\x00\x00\x00\x00\x00\x00\x00\x00\x00\x00\x00\x00\x00\x00\x00\x00\x00\x00\x00\x00\x00'
NtbsS'order'
p1250
g1162
(g1163
g1158
g1164
S'b'
tRp1251
(I1
(I96
I1
tg1166
I00
S'\x00\x000B\x00\x00\x1cB\x00\x00\x04B\x00\x00\xa8B\x00\x00\xd8A\x00\x00hB\x00\x00\xc8A\x00\x00@@\x00\x00\x88B\x00\x00|B\x00\x00DB\x00\x00\x86B\x00\x00`A\x00\x00LB\x00\x00\x88A\x00\x00\\B\x00\x00\x00\x00\x00\x00\x84B\x00\x00$B\x00\x00\xaaB\x00\x00\xa0B\x00\x00`B\x00\x00@A\x00\x00HB\x00\x00\xb6B\x00\x00\xf0A\x00\x00PB\x00\x00\xe0@\x00\x00\xaeB\x00\x00\x0cB\x00\x00\x80?\x00\x00dB\x00\x00,B\x00\x00\xa8A\x00\x00lB\x00\x00\x80B\x00\x00\x9aB\x00\x00TB\x00\x00\x00A\x00\x00\xa0A\x00\x00\xb8B\x00\x00\xa0@\x00\x00\x8eB\x00\x00\xa2B\x00\x00PA\x00\x00\xb0A\x00\x00\x80A\x00\x00\xacB\x00\x000A\x00\x00\x92B\x00\x00\xa6B\x00\x00\x9eB\x00\x00\xb2B\x00\x00\x96B\x00\x00\xb0B\x00\x008B\x00\x00\xbaB\x00\x00\xc0@\x00\x00(B\x00\x00\xf8A\x00\x00\x00B\x00\x00\xbcB\x00\x00\xb8A\x00\x00\x94B\x00\x00\x98B\x00\x00\x98A\x00\x00@B\x00\x00 B\x00\x00\xd0A\x00\x00\x14B\x00\x004B\x00\x00\xe0A\x00\x00\x80@\x00\x00\x10B\x00\x00\xa4B\x00\x00pB\x00\x00XB\x00\x00\x8aB\x00\x00tB\x00\x00\x90B\x00\x00 A\x00\x00\x08B\x00\x00\x90A\x00\x00<B\x00\x00\xe8A\x00\x00\xbeB\x00\x00\x18B\x00\x00\x9cB\x00\x00\x8cB\x00\x00\x10A\x00\x00\xb4B\x00\x00\x00@\x00\x00pA\x00\x00\x82B\x00\x00\xc0A\x00\x00xB'
S'\x00\x00\x00\x00\x00\x00\x00\x00\x00\x00\x00\x00\x00\x00\x00\x00\x00\x00\x00\x00\x00\x00\x00\x00\x00\x00\x00\x00\x00\x00\x00\x00\x00\x00\x00\x00\x00\x00\x00\x00\x00\x00\x00\x00\x00\x00\x00\x00\x00\x00\x00\x00\x00\x00\x00\x00\x00\x00\x00\x00\x00\x00\x00\x00\x00\x00\x00\x00\x00\x00\x00\x00\x00\x00\x00\x00\x00\x00\x00\x00\x00\x00\x00\x00\x00\x00\x00\x00\x00\x00\x00\x00\x00\x00\x00\x00'
Ntbsg19
g1162
(g1163
g1158
g1164
S'b'
tRp1252
(I1
(I96
I1
tg1166
I00
S'\x00\x00\x80?\x00\x00\x80?\x00\x00\x80?\x00\x00\x00\x00\x00\x00\x80?\x00\x00\x00\x00\x00\x00\x80?\x00\x00\x80?\x00\x00\x80?\x00\x00\x80?\x00\x00\x80?\x00\x00\x80?\x00\x00\x80?\x00\x00\x00\x00\x00\x00\x80?\x00\x00\x80?\x00\x00\x00\x00\x00\x00\x80?\x00\x00\x00\x00\x00\x00\x00\x00\x00\x00\x00\x00\x00\x00\x80?\x00\x00\x80?\x00\x00\x80?\x00\x00\x80?\x00\x00\x80?\x00\x00\x80?\x00\x00\x00\x00\x00\x00\x80?\x00\x00\x80?\x00\x00\x80?\x00\x00\x00\x00\x00\x00\x00\x00\x00\x00\x00\x00\x00\x00\x80?\x00\x00\x80?\x00\x00\x80?\x00\x00\x00\x00\x00\x00\x80?\x00\x00\x80?\x00\x00\x80?\x00\x00\x80?\x00\x00\x00\x00\x00\x00\x00\x00\x00\x00\x00\x00\x00\x00\x00\x00\x00\x00\x00\x00\x00\x00\x00\x00\x00\x00\x00\x00\x00\x00\x00\x00\x00\x00\x00\x00\x00\x00\x00\x00\x00\x00\x80?\x00\x00\x80?\x00\x00\x00\x00\x00\x00\x80?\x00\x00\x80?\x00\x00\x00\x00\x00\x00\x00\x00\x00\x00\x80?\x00\x00\x80?\x00\x00\x80?\x00\x00\x00\x00\x00\x00\x80?\x00\x00\x00\x00\x00\x00\x00\x00\x00\x00\x80?\x00\x00\x00\x00\x00\x00\x00\x00\x00\x00\x80?\x00\x00\x00\x00\x00\x00\x80?\x00\x00\x00\x00\x00\x00\x00\x00\x00\x00\x80?\x00\x00\x00\x00\x00\x00\x00\x00\x00\x00\x80?\x00\x00\x80?\x00\x00\x00\x00\x00\x00\x00\x00\x00\x00\x80?\x00\x00\x00\x00\x00\x00\x00\x00\x00\x00\x00\x00\x00\x00\x80?\x00\x00\x80?\x00\x00\x80?\x00\x00\x80?\x00\x00\x80?\x00\x00\x80?\x00\x00\x80?\x00\x00\x00\x00\x00\x00\x80?\x00\x00\x80?\x00\x00\x80?'
S'\x00\x00\x00\x00\x00\x00\x00\x00\x00\x00\x00\x00\x00\x00\x00\x00\x00\x00\x00\x00\x00\x00\x00\x00\x00\x00\x00\x00\x00\x00\x00\x00\x00\x00\x00\x00\x00\x00\x00\x00\x00\x00\x00\x00\x00\x00\x00\x00\x00\x00\x00\x00\x00\x00\x00\x00\x00\x00\x00\x00\x00\x00\x00\x00\x00\x00\x00\x00\x00\x00\x00\x00\x00\x00\x00\x00\x00\x00\x00\x00\x00\x00\x00\x00\x00\x00\x00\x00\x00\x00\x00\x00\x00\x00\x00\x00'
Ntbsg27
g1157
(g1158
(I0
tS'b'
tRp1253
(I1
(I96
I1
tg1160
I00
(lp1254
g572
ag517
ag451
ag1013
ag385
ag727
ag363
ag115
ag837
ag782
ag627
ag826
ag240
ag649
ag274
ag694
ag76
ag815
ag539
ag1024
ag969
ag705
ag218
ag638
ag1090
ag418
ag660
ag162
ag1046
ag473
ag91
ag716
ag561
ag318
ag738
ag793
ag936
ag672
ag173
ag307
ag1101
ag139
ag870
ag980
ag229
ag330
ag263
ag1035
ag207
ag892
ag1002
ag958
ag1068
ag914
ag1057
ag594
ag1112
ag151
ag550
ag429
ag440
ag1123
ag341
ag903
ag925
ag296
ag616
ag528
ag374
ag495
ag583
ag396
ag127
ag484
ag991
ag749
ag683
ag848
ag760
ag881
ag196
ag462
ag285
ag605
ag407
ag1134
ag506
ag947
ag859
ag184
ag1079
ag103
ag251
ag804
ag352
ag771
atbsg23
g1157
(g1158
(I0
tS'b'
tRp1255
(I1
(I96
I1
tg1160
I00
(lp1256
S'3'
aS'2'
aS'2'
aS'2'
aS'1'
aS'1'
aS'1'
aS'2'
aS'2'
aS'3'
aS'3'
aS'2'
aS'1'
aS'1'
aS'1'
aS'1'
aS'2'
aS'2'
aS'2'
aS'1'
aS'2'
aS'2'
aS'2'
aS'2'
aS'3'
aS'3'
aS'2'
aS'2'
aS'2'
aS'1'
aS'3'
aS'2'
aS'1'
aS'2'
aS'3'
aS'1'
aS'1'
aS'1'
aS'2'
aS'3'
aS'2'
aS'1'
aS'2'
aS'1'
aS'1'
aS'2'
aS'1'
aS'2'
aS'2'
aS'1'
aS'2'
aS'2'
aS'2'
aS'2'
aS'2'
aS'2'
aS'2'
aS'2'
aS'2'
aS'2'
aS'1'
aS'2'
aS'1'
aS'2'
aS'2'
aS'1'
aS'1'
aS'2'
aS'2'
aS'2'
aS'1'
aS'2'
aS'1'
aS'2'
aS'3'
aS'3'
aS'2'
aS'2'
aS'2'
aS'1'
aS'2'
aS'2'
aS'2'
aS'2'
aS'1'
aS'2'
aS'1'
aS'2'
aS'2'
aS'3'
aS'1'
aS'2'
aS'2'
aS'2'
aS'2'
aS'1'
atbsg18
g1162
(g1163
g1158
g1164
S'b'
tRp1257
(I1
(I96
I1
tg1166
I00
S'\xe9\xd5CC\x18\xee.C\xf9G\x0fCuf\xb3C,\x9e\xeeBo\x87|C\t\xf1\xddB\x89\xd3\x8fA\xa90\x93C\xba\x8a\x88C\xc5\xadWC\x9b\x14\x91CN\x83\x7fBa\xf2_C[\xc5\x98B\xe8uoC\x9cH\xa1@i\xb8\x8eCm\xeb7C6\x8a\xb5C\x0c\xc6\xabC\x05\xaesC}\xd7^B\xc2\x1b\\C\x9c_\xc0C\xd7~\x03C\xaa\x1ddC\xbcD\x0fB\x119\xb9C\xa0|\x16C\x89\x97\x15AsTxC\xc1\xaf?CU)\xb9B\xc0\xe7\x80C\xf4\x99\x8aC\x9d\xe6\xa5C\x03\xafgC\xb1\xfc B\xdd$\xb1B",\xc2C_I\xd0A\xa4\x1b\x99C\xca\xae\xadC\xb7\x99pB\xec\xbc\xc0BQ\xbc\x91B\xa5?\xb7C\x9a\xf7NBs[\x9dC=\x92\xb1C\xb2\xec\xa9C\xf5\xd5\xbcC\xfa\x99\xa1C\x1d\x1a\xbbC\x1b\x95KC\xb0*\xc4C\xc9\x1b\xffA\xb6\x16<C\x13\x81\x07C\x0cy\x0bC\x95\x0f\xc6CL\xc5\xcfB7;\x9fC\x94\xc1\xa3C\x86%\xa9B)\x12TC5&3C\xc9<\xe5B\'\x8e#C$\xd8GC&A\xf6B\xebJ\xaeAJz\x1bC\x1f\x91\xafC;\xc6\x82Cg.kC\xb6\x11\x95C\xb7\xa4\x84C\x1fy\x9bC,\xc6?B\xb4\xad\x12C\x19\xd4\xa0B\x0e\x15PC\\t\xffB4.\xc8C\x9d\xe5(Cs\xe6\xa7Cw5\x97C\x16B/BMt\xbeC\xd4\xb3ZA\xb2\xca\x86B\xfd\xbe\x8cC\x8d\xaf\xd6BN\x91\x86C'
S'\x00\x00\x00\x00\x00\x00\x00\x00\x00\x00\x00\x00\x00\x00\x00\x00\x00\x00\x00\x00\x00\x00\x00\x00\x00\x00\x00\x00\x00\x00\x00\x00\x00\x00\x00\x00\x00\x00\x00\x00\x00\x00\x00\x00\x00\x00\x00\x00\x00\x00\x00\x00\x00\x00\x00\x00\x00\x00\x00\x00\x00\x00\x00\x00\x00\x00\x00\x00\x00\x00\x00\x00\x00\x00\x00\x00\x00\x00\x00\x00\x00\x00\x00\x00\x00\x00\x00\x00\x00\x00\x00\x00\x00\x00\x00\x00'
Ntbsg25
g1162
(g1163
g1158
g1164
S'b'
tRp1258
(I1
(I96
I1
tg1166
I00
S'\r>l>qh\xf6>\xf2&\x1a>Y\x1f\x1f?UvM>\x94\xca\xa6?\xd0\x059>\x89f\x80>\xd4\xb9W>!\xc8\x8f>\x8a0\x9f>Y\x85\x85>\xb6\xc1W>\x8e\x85\x85>\xdb\xe5\x0f>\xe6vM> !\x9a>\xe2\x0b\x9a>\xdcl\x17?\xdbN\xa4>\x12f\x80>\xe2\x12\xa8?1\xad.>\xd7k$>\x7f\xae.>\xc3Al>\x91\xef8>\x03\x99\n?\xca@l>+\xa4\x05>\x1a\xb0!?$U\xe2=\x03}\xd2>\x16\xe9\x94>L\xef8>#\x98\xae>nAC>6\xa3\xa4=\xcc\x1a\xc3>\xe0\xb3\xb3>\xac\x82M>\x92"\x8d?f\xda\x8b?\xd3[\xcd>\xb4c\x80>5\x1c\xc3>\xcb>l>3\x8e\xfb>\x0e\x85v>\xea\x01b>\x03\xf68>\xa3,\x1a>\x80(\x1a>\x95\xc88?\x803C>\xbb\xf6\xbd>\x92|M>B\xf7\xbd>\x06k$>\n+\r?\xb8\x9e\xd7>L\x8a\xd7>\xdd\xf78>G`\xa0?\xde\xe9=?!Q\xa4>1\xb0.>\xcej$>gb)?\xed\x88\x85>@}M>\x9f\xdd\xb8>\xd4\xc8\x8f>\xf8\xe9\x94>\x9c\xf6\xbd>\x84\x83v>u\x8av>\xc23C>b\x19\x9f>\x07\x01b>gwM>s\xb9W>h)\r?\x93\xffa>\xc4vM>m\xbd\x0f>BF\t@\xb6@l>\\O\xa4>\xfa\x8fv>2%\xec>W\xbcW>wi\xd2>\x03K\x12?\xe2vM>\x8b5C>'
S'\x00\x00\x00\x00\x00\x00\x00\x00\x00\x00\x00\x00\x00\x00\x00\x00\x00\x00\x00\x00\x00\x00\x00\x00\x00\x00\x00\x00\x00\x00\x00\x00\x00\x00\x00\x00\x00\x00\x00\x00\x00\x00\x00\x00\x00\x00\x00\x00\x00\x00\x00\x00\x00\x00\x00\x00\x00\x00\x00\x00\x00\x00\x00\x00\x00\x00\x00\x00\x00\x00\x00\x00\x00\x00\x00\x00\x00\x00\x00\x00\x00\x00\x00\x00\x00\x00\x00\x00\x00\x00\x00\x00\x00\x00\x00\x00'
NtbstRp1259
(dp1260
S'isNumeric'
p1261
(dp1262
g23
I00
sg20
I00
sg17
I01
sg1167
I01
sg22
I01
sg24
I01
sg14
I01
sg18
I01
sg16
I00
sg19
I01
sg26
I00
sg27
I00
sg15
I00
sg21
I01
sg1250
I01
sg25
I01
ssg1151
g1145
sS'dataTypes'
p1263
(lp1264
g1167
ag1250
ag14
ag15
ag16
ag17
ag18
ag19
ag20
ag21
ag22
ag23
ag24
ag25
ag26
ag27
asS'dataShape'
p1265
(lp1266
I96
aI1
asbsS'method'
p1267
S'random'
p1268
sS'sequenceIndices'
p1269
g1157
(g1158
(I0
tS'b'
tRp1270
(I1
(I96
I1
tg80
I01
S'\x10\x00\x00\x00\x1e\x00\x00\x00[\x00\x00\x00\x07\x00\x00\x00H\x00\x00\x00)\x00\x00\x009\x00\x00\x00\x1b\x00\x00\x00&\x00\x00\x00Y\x00\x00\x00P\x00\x00\x000\x00\x00\x00\x16\x00\x00\x00,\x00\x00\x00\x0c\x00\x00\x00\\\x00\x00\x00.\x00\x00\x00\x0e\x00\x00\x00R\x00\x00\x00A\x00\x00\x00\'\x00\x00\x00!\x00\x00\x00-\x00\x00\x00>\x00\x00\x00^\x00\x00\x00\x06\x00\x00\x00D\x00\x00\x00\x04\x00\x00\x00G\x00\x00\x00T\x00\x00\x00\x19\x00\x00\x00;\x00\x00\x00<\x00\x00\x00\x02\x00\x00\x00Q\x00\x00\x00\x1d\x00\x00\x00I\x00\x00\x00E\x00\x00\x00V\x00\x00\x00\x01\x00\x00\x00C\x00\x00\x00\x12\x00\x00\x00:\x00\x00\x00 \x00\x00\x00\x00\x00\x00\x00F\x00\x00\x007\x00\x00\x00S\x00\x00\x00B\x00\x00\x00\n\x00\x00\x00\x17\x00\x00\x00\r\x00\x00\x00\x1a\x00\x00\x00%\x00\x00\x00L\x00\x00\x00\x0f\x00\x00\x00\x15\x00\x00\x00\x1f\x00\x00\x00\x05\x00\x00\x00"\x00\x00\x00K\x00\x00\x00N\x00\x00\x00_\x00\x00\x00\t\x00\x00\x00#\x00\x00\x00]\x00\x00\x00\x11\x00\x00\x00\x0b\x00\x00\x00\x08\x00\x00\x00M\x00\x00\x00X\x00\x00\x00*\x00\x00\x00O\x00\x00\x001\x00\x00\x00?\x00\x00\x005\x00\x00\x00@\x00\x00\x00$\x00\x00\x00W\x00\x00\x003\x00\x00\x00\x14\x00\x00\x00+\x00\x00\x00J\x00\x00\x002\x00\x00\x00\x03\x00\x00\x00\x13\x00\x00\x00/\x00\x00\x00\x1c\x00\x00\x006\x00\x00\x004\x00\x00\x00Z\x00\x00\x00\x18\x00\x00\x00(\x00\x00\x008\x00\x00\x00=\x00\x00\x00U\x00\x00\x00'
tbsS'finished'
p1271
I01
sS'nReps'
p1272
I1
sS'nRemaining'
p1273
I-1
sS'trialList'
p1274
(lp1275
g1
(cpsychopy.data
TrialType
p1276
g1155
(dp1277
g62
g89
sg63
g578
sg64
g261
sg65
g573
sg66
g577
stRp1278
ag1
(g1276
g1155
(dp1279
g62
g74
sg63
g523
sg64
g73
sg65
g518
sg66
g522
stRp1280
ag1
(g1276
g1155
(dp1281
g62
g89
sg63
g457
sg64
g261
sg65
g452
sg66
g456
stRp1282
ag1
(g1276
g1155
(dp1283
g62
g89
sg63
g1019
sg64
g670
sg65
g1014
sg66
g1018
stRp1284
ag1
(g1276
g1155
(dp1285
g62
g74
sg63
g391
sg64
g149
sg65
g386
sg66
g390
stRp1286
ag1
(g1276
g1155
(dp1287
g62
g89
sg63
g733
sg64
g261
sg65
g728
sg66
g732
stRp1288
ag1
(g1276
g1155
(dp1289
g62
g89
sg63
g369
sg64
g261
sg65
g364
sg66
g368
stRp1290
ag1
(g1276
g1155
(dp1291
g62
g89
sg63
g121
sg64
g101
sg65
g116
sg66
g120
stRp1292
ag1
(g1276
g1155
(dp1293
g62
g89
sg63
g843
sg64
g261
sg65
g838
sg66
g842
stRp1294
ag1
(g1276
g1155
(dp1295
g62
g89
sg63
g788
sg64
g101
sg65
g783
sg66
g787
stRp1296
ag1
(g1276
g1155
(dp1297
g62
g74
sg63
g633
sg64
g328
sg65
g628
sg66
g632
stRp1298
ag1
(g1276
g1155
(dp1299
g62
g89
sg63
g832
sg64
g101
sg65
g827
sg66
g831
stRp1300
ag1
(g1276
g1155
(dp1301
g62
g89
sg63
g246
sg64
g137
sg65
g241
sg66
g245
stRp1302
ag1
(g1276
g1155
(dp1303
g62
g74
sg63
g655
sg64
g73
sg65
g650
sg66
g654
stRp1304
ag1
(g1276
g1155
(dp1305
g62
g89
sg63
g280
sg64
g137
sg65
g275
sg66
g279
stRp1306
ag1
(g1276
g1155
(dp1307
g62
g89
sg63
g700
sg64
g261
sg65
g695
sg66
g699
stRp1308
ag1
(g1276
g1155
(dp1309
g62
g74
sg63
g84
sg64
g73
sg65
g78
sg66
g83
stRp1310
ag1
(g1276
g1155
(dp1311
g62
g89
sg63
g821
sg64
g137
sg65
g816
sg66
g820
stRp1312
ag1
(g1276
g1155
(dp1313
g62
g89
sg63
g545
sg64
g88
sg65
g540
sg66
g544
stRp1314
ag1
(g1276
g1155
(dp1315
g62
g89
sg63
g1030
sg64
g261
sg65
g1025
sg66
g1029
stRp1316
ag1
(g1276
g1155
(dp1317
g62
g74
sg63
g975
sg64
g73
sg65
g970
sg66
g974
stRp1318
ag1
(g1276
g1155
(dp1319
g62
g74
sg63
g711
sg64
g194
sg65
g706
sg66
g710
stRp1320
ag1
(g1276
g1155
(dp1321
g62
g89
sg63
g224
sg64
g88
sg65
g219
sg66
g223
stRp1322
ag1
(g1276
g1155
(dp1323
g62
g74
sg63
g644
sg64
g194
sg65
g639
sg66
g643
stRp1324
ag1
(g1276
g1155
(dp1325
g62
g74
sg63
g1096
sg64
g328
sg65
g1091
sg66
g1095
stRp1326
ag1
(g1276
g1155
(dp1327
g62
g89
sg63
g424
sg64
g125
sg65
g419
sg66
g423
stRp1328
ag1
(g1276
g1155
(dp1329
g62
g74
sg63
g666
sg64
g149
sg65
g661
sg66
g665
stRp1330
ag1
(g1276
g1155
(dp1331
g62
g74
sg63
g168
sg64
g73
sg65
g163
sg66
g167
stRp1332
ag1
(g1276
g1155
(dp1333
g62
g89
sg63
g1052
sg64
g137
sg65
g1047
sg66
g1051
stRp1334
ag1
(g1276
g1155
(dp1335
g62
g89
sg63
g479
sg64
g261
sg65
g474
sg66
g478
stRp1336
ag1
(g1276
g1155
(dp1337
g62
g89
sg63
g97
sg64
g88
sg65
g92
sg66
g96
stRp1338
ag1
(g1276
g1155
(dp1339
g62
g89
sg63
g722
sg64
g88
sg65
g717
sg66
g721
stRp1340
ag1
(g1276
g1155
(dp1341
g62
g74
sg63
g567
sg64
g73
sg65
g562
sg66
g566
stRp1342
ag1
(g1276
g1155
(dp1343
g62
g74
sg63
g324
sg64
g149
sg65
g319
sg66
g323
stRp1344
ag1
(g1276
g1155
(dp1345
g62
g74
sg63
g744
sg64
g149
sg65
g739
sg66
g743
stRp1346
ag1
(g1276
g1155
(dp1347
g62
g89
sg63
g799
sg64
g137
sg65
g794
sg66
g798
stRp1348
ag1
(g1276
g1155
(dp1349
g62
g89
sg63
g942
sg64
g125
sg65
g937
sg66
g941
stRp1350
ag1
(g1276
g1155
(dp1351
g62
g89
sg63
g678
sg64
g670
sg65
g673
sg66
g677
stRp1352
ag1
(g1276
g1155
(dp1353
g62
g74
sg63
g179
sg64
g149
sg65
g174
sg66
g178
stRp1354
ag1
(g1276
g1155
(dp1355
g62
g74
sg63
g313
sg64
g73
sg65
g308
sg66
g312
stRp1356
ag1
(g1276
g1155
(dp1357
g62
g74
sg63
g1107
sg64
g73
sg65
g1102
sg66
g1106
stRp1358
ag1
(g1276
g1155
(dp1359
g62
g89
sg63
g145
sg64
g137
sg65
g140
sg66
g144
stRp1360
ag1
(g1276
g1155
(dp1361
g62
g74
sg63
g876
sg64
g149
sg65
g871
sg66
g875
stRp1362
ag1
(g1276
g1155
(dp1363
g62
g74
sg63
g986
sg64
g194
sg65
g981
sg66
g985
stRp1364
ag1
(g1276
g1155
(dp1365
g62
g74
sg63
g235
sg64
g149
sg65
g230
sg66
g234
stRp1366
ag1
(g1276
g1155
(dp1367
g62
g74
sg63
g336
sg64
g328
sg65
g331
sg66
g335
stRp1368
ag1
(g1276
g1155
(dp1369
g62
g89
sg63
g269
sg64
g261
sg65
g264
sg66
g268
stRp1370
ag1
(g1276
g1155
(dp1371
g62
g89
sg63
g1041
sg64
g261
sg65
g1036
sg66
g1040
stRp1372
ag1
(g1276
g1155
(dp1373
g62
g74
sg63
g213
sg64
g73
sg65
g208
sg66
g212
stRp1374
ag1
(g1276
g1155
(dp1375
g62
g74
sg63
g898
sg64
g194
sg65
g893
sg66
g897
stRp1376
ag1
(g1276
g1155
(dp1377
g62
g74
sg63
g1008
sg64
g73
sg65
g1003
sg66
g1007
stRp1378
ag1
(g1276
g1155
(dp1379
g62
g74
sg63
g964
sg64
g149
sg65
g959
sg66
g963
stRp1380
ag1
(g1276
g1155
(dp1381
g62
g74
sg63
g1074
sg64
g194
sg65
g1069
sg66
g1073
stRp1382
ag1
(g1276
g1155
(dp1383
g62
g89
sg63
g920
sg64
g137
sg65
g915
sg66
g919
stRp1384
ag1
(g1276
g1155
(dp1385
g62
g89
sg63
g1063
sg64
g101
sg65
g1058
sg66
g1062
stRp1386
ag1
(g1276
g1155
(dp1387
g62
g74
sg63
g600
sg64
g194
sg65
g595
sg66
g599
stRp1388
ag1
(g1276
g1155
(dp1389
g62
g74
sg63
g1118
sg64
g149
sg65
g1113
sg66
g1117
stRp1390
ag1
(g1276
g1155
(dp1391
g62
g74
sg63
g157
sg64
g149
sg65
g152
sg66
g156
stRp1392
ag1
(g1276
g1155
(dp1393
g62
g89
sg63
g556
sg64
g137
sg65
g551
sg66
g555
stRp1394
ag1
(g1276
g1155
(dp1395
g62
g74
sg63
g435
sg64
g149
sg65
g430
sg66
g434
stRp1396
ag1
(g1276
g1155
(dp1397
g62
g74
sg63
g446
sg64
g149
sg65
g441
sg66
g445
stRp1398
ag1
(g1276
g1155
(dp1399
g62
g74
sg63
g1129
sg64
g149
sg65
g1124
sg66
g1128
stRp1400
ag1
(g1276
g1155
(dp1401
g62
g89
sg63
g347
sg64
g125
sg65
g342
sg66
g346
stRp1402
ag1
(g1276
g1155
(dp1403
g62
g74
sg63
g909
sg64
g149
sg65
g904
sg66
g908
stRp1404
ag1
(g1276
g1155
(dp1405
g62
g89
sg63
g931
sg64
g101
sg65
g926
sg66
g930
stRp1406
ag1
(g1276
g1155
(dp1407
g62
g74
sg63
g302
sg64
g194
sg65
g297
sg66
g301
stRp1408
ag1
(g1276
g1155
(dp1409
g62
g89
sg63
g622
sg64
g88
sg65
g617
sg66
g621
stRp1410
ag1
(g1276
g1155
(dp1411
g62
g74
sg63
g534
sg64
g149
sg65
g529
sg66
g533
stRp1412
ag1
(g1276
g1155
(dp1413
g62
g74
sg63
g380
sg64
g73
sg65
g375
sg66
g379
stRp1414
ag1
(g1276
g1155
(dp1415
g62
g89
sg63
g501
sg64
g261
sg65
g496
sg66
g500
stRp1416
ag1
(g1276
g1155
(dp1417
g62
g74
sg63
g589
sg64
g149
sg65
g584
sg66
g588
stRp1418
ag1
(g1276
g1155
(dp1419
g62
g89
sg63
g402
sg64
g88
sg65
g397
sg66
g401
stRp1420
ag1
(g1276
g1155
(dp1421
g62
g89
sg63
g133
sg64
g125
sg65
g128
sg66
g132
stRp1422
ag1
(g1276
g1155
(dp1423
g62
g74
sg63
g490
sg64
g328
sg65
g485
sg66
g489
stRp1424
ag1
(g1276
g1155
(dp1425
g62
g74
sg63
g997
sg64
g149
sg65
g992
sg66
g996
stRp1426
ag1
(g1276
g1155
(dp1427
g62
g74
sg63
g755
sg64
g194
sg65
g750
sg66
g754
stRp1428
ag1
(g1276
g1155
(dp1429
g62
g89
sg63
g689
sg64
g101
sg65
g684
sg66
g688
stRp1430
ag1
(g1276
g1155
(dp1431
g62
g89
sg63
g854
sg64
g88
sg65
g849
sg66
g853
stRp1432
ag1
(g1276
g1155
(dp1433
g62
g89
sg63
g766
sg64
g261
sg65
g761
sg66
g765
stRp1434
ag1
(g1276
g1155
(dp1435
g62
g74
sg63
g887
sg64
g149
sg65
g882
sg66
g886
stRp1436
ag1
(g1276
g1155
(dp1437
g62
g74
sg63
g202
sg64
g194
sg65
g197
sg66
g201
stRp1438
ag1
(g1276
g1155
(dp1439
g62
g89
sg63
g468
sg64
g261
sg65
g463
sg66
g467
stRp1440
ag1
(g1276
g1155
(dp1441
g62
g74
sg63
g291
sg64
g73
sg65
g286
sg66
g290
stRp1442
ag1
(g1276
g1155
(dp1443
g62
g89
sg63
g611
sg64
g88
sg65
g606
sg66
g610
stRp1444
ag1
(g1276
g1155
(dp1445
g62
g74
sg63
g413
sg64
g73
sg65
g408
sg66
g412
stRp1446
ag1
(g1276
g1155
(dp1447
g62
g74
sg63
g1140
sg64
g149
sg65
g1135
sg66
g1139
stRp1448
ag1
(g1276
g1155
(dp1449
g62
g89
sg63
g512
sg64
g101
sg65
g507
sg66
g511
stRp1450
ag1
(g1276
g1155
(dp1451
g62
g89
sg63
g953
sg64
g101
sg65
g948
sg66
g952
stRp1452
ag1
(g1276
g1155
(dp1453
g62
g89
sg63
g865
sg64
g125
sg65
g860
sg66
g864
stRp1454
ag1
(g1276
g1155
(dp1455
g62
g89
sg63
g190
sg64
g125
sg65
g185
sg66
g189
stRp1456
ag1
(g1276
g1155
(dp1457
g62
g74
sg63
g1085
sg64
g73
sg65
g1080
sg66
g1084
stRp1458
ag1
(g1276
g1155
(dp1459
g62
g89
sg63
g109
sg64
g101
sg65
g104
sg66
g108
stRp1460
ag1
(g1276
g1155
(dp1461
g62
g89
sg63
g257
sg64
g125
sg65
g252
sg66
g256
stRp1462
ag1
(g1276
g1155
(dp1463
g62
g89
sg63
g810
sg64
g261
sg65
g805
sg66
g809
stRp1464
ag1
(g1276
g1155
(dp1465
g62
g74
sg63
g358
sg64
g194
sg65
g353
sg66
g357
stRp1466
ag1
(g1276
g1155
(dp1467
g62
g74
sg63
g777
sg64
g73
sg65
g772
sg66
g776
stRp1468
asS'seed'
p1469
NsS'thisIndex'
p1470
g1137
sS'thisN'
p1471
I96
sS'thisTrialN'
p1472
I0
sS'nTotal'
p1473
I96
sS'_warnUseOfNext'
p1474
I01
sbasS'savePickle'
p1475
I00
sb.