ccopy_reg
_reconstructor
p1
(cpsychopy.data
ExperimentHandler
p2
c__builtin__
object
p3
NtRp4
(dp5
S'originPath'
p6
NsS'dataFileName'
p7
VC:\u005cDocuments and Settings\u005cExperimental user\u005cMy Documents\u005cconsciousness\u005cuncon_feat\u005cexperiment_scripts\u005cdata/mattin_Experiment_EEG_version_2019_jul_12_1630
p8
sS'runtimeInfo'
p9
NsS'name'
p10
VExperiment_EEG_version
p11
sS'dataNames'
p12
(lp13
S'image_onset_time'
p14
aS'response_window'
p15
aS'correctAns'
p16
aS'probe_onset'
p17
aS'discrim_resptime'
p18
aS'response.corr'
p19
aS'response.keys'
p20
aS'response.rt'
p21
aS'visible_resptime'
p22
aS'visible.keys'
p23
aS'visible.corr'
p24
aS'visible.rt'
p25
aS'probeFrames'
p26
aS'jitter2'
p27
asS'autoLog'
p28
I01
sS'extraInfo'
p29
(dp30
Vn_square
p31
V32
p32
sVexperiment_color
p33
Vbw
p34
sS'frameRate'
p35
cnumpy.core.multiarray
scalar
p36
(cnumpy
dtype
p37
(S'f8'
I0
I1
tRp38
(I3
S'<'
NNNI-1
I-1
I0
tbS'\xb8\xe2\xc0\xd7\x0c\xf2X@'
tRp39
sS'date'
p40
V2019_jul_12_1630
p41
sVsession
p42
V013
p43
sVimage_size
p44
V256
p45
sVpremask_dur
p46
V20
p47
sVprobeFrames
p48
V5
sVparticipant
p49
Vmattin
p50
sS'expName'
p51
g11
sVpostmask_dur
p52
V20
p53
ssS'loopsUnfinished'
p54
(lp55
sS'saveWideText'
p56
I00
sS'thisEntry'
p57
(dp58
sS'version'
p59
S''
sS'_paramNamesSoFar'
p60
(lp61
S'category'
p62
aS'probe_path'
p63
aS'subcategory'
p64
aS'fixation_duration'
p65
aS'label'
p66
asS'entries'
p67
(lp68
(dp69
g31
g32
sg17
F3.7760303996037692
sg24
I0
sg35
g39
sg14
F3.7379444893449545
sg16
g36
(g37
(S'i4'
I0
I1
tRp70
(I3
S'<'
NNNI-1
I-1
I0
tbS'\x02\x00\x00\x00'
tRp71
sg42
g43
sg46
g47
sg15
S'V_nV'
p72
sg22
F9.3710999002214521
sg64
VKitchen_Uten
p73
sg62
VNonliving_Things
p74
sg49
g50
sS'trials.thisN'
p75
I0
sg19
I0
sg27
g36
(g38
S'\x00\x00\x00\x00\x00\x00\x1a@'
tRp76
sg52
g53
sg23
S'3'
sg18
F5.0406635829713196
sg33
g34
sg51
g11
sg20
S'1'
sg65
g36
(g37
(S'i8'
I0
I1
tRp77
(I3
S'<'
NNNI-1
I-1
I0
tbS'\x00\x00\x00\x00\x00\x00\x00\x00'
tRp78
sg44
g45
sg40
g41
sg25
F1.222882067784667
sS'trials.thisIndex'
p79
g36
(g37
(S'i4'
I0
I1
tRp80
(I3
S'<'
NNNI-1
I-1
I0
tbS'G\x00\x00\x00'
tRp81
sg26
V5
sS'trials.thisRepN'
p82
I0
sg66
Vsaucepan
p83
sg63
V../experiment_stimuli/bw_bc_bl/Nonliving_Things/Kitchen_Uten/saucepan_10.jpg
p84
sg21
F4.299590956652537
sS'trials.thisTrialN'
p85
I0
sa(dp86
g31
g32
sg17
F12.343037222279236
sg24
I0
sg35
g39
sg14
F12.32662182720378
sg16
g36
(g70
S'\x01\x00\x00\x00'
tRp87
sg42
g43
sg46
g47
sg15
g72
sg22
F16.857117397710681
sg64
VBirds
p88
sg62
VLiving_Things
p89
sg49
g50
sS'trials.thisN'
p90
I1
sg19
I1
sg27
g36
(g38
S'\x00\x00\x00\x00\x00\x00\x18@'
tRp91
sg52
g53
sg23
S'2'
sg18
F13.579259575577453
sg33
g34
sg51
g11
sg20
S'1'
sg65
g36
(g77
S'\x00\x00\x00\x00\x00\x00\x00\x00'
tRp92
sg44
g45
sg40
g41
sg25
F0.25077948276884854
sS'trials.thisIndex'
p93
g36
(g80
S';\x00\x00\x00'
tRp94
sg26
V5
sS'trials.thisRepN'
p95
I0
sg66
Vpartridge
p96
sg63
V../experiment_stimuli/bw_bc_bl/Living_Things/Birds/partridge_0.jpg
p97
sg21
F3.2573161930777133
sS'trials.thisTrialN'
p98
I1
sa(dp99
g31
g32
sg17
F18.858091408619657
sg24
I0
sg35
g39
sg14
F18.840808842331171
sg16
g36
(g70
S'\x01\x00\x00\x00'
tRp100
sg42
g43
sg46
g47
sg15
S'nV_V'
p101
sg22
F20.655400750227273
sg64
VFurniture
p102
sg62
g74
sg49
g50
sS'trials.thisN'
p103
I2
sg19
I0
sg27
g36
(g38
S'\x00\x00\x00\x00\x00\x00 @'
tRp104
sg52
g53
sg23
S'2'
sg18
F20.08341876254417
sg33
g34
sg51
g11
sg20
S'2'
sg65
g36
(g77
S'\x00\x00\x00\x00\x00\x00\x00\x00'
tRp105
sg44
g45
sg40
g41
sg25
F0.20065008173696697
sS'trials.thisIndex'
p106
g36
(g80
S'/\x00\x00\x00'
tRp107
sg26
V5
sS'trials.thisRepN'
p108
I0
sg66
Vlectern
p109
sg63
V../experiment_stimuli/bw_bc_bl/Nonliving_Things/Furniture/lectern_3.jpg
p110
sg21
F0.55142283998429775
sS'trials.thisTrialN'
p111
I2
sa(dp112
g31
g32
sg17
F22.610971414251253
sg24
I0
sg35
g39
sg14
F22.588970120763406
sg16
g36
(g70
S'\x02\x00\x00\x00'
tRp113
sg42
g43
sg46
g47
sg15
g101
sg22
F24.433622431010008
sg64
g88
sg62
g89
sg49
g50
sS'trials.thisN'
p114
I3
sg19
I1
sg27
g36
(g38
S'\x00\x00\x00\x00\x00\x00\x18@'
tRp115
sg52
g53
sg23
S'2'
sg18
F23.831587382592261
sg33
g34
sg51
g11
sg20
S'2'
sg65
g36
(g77
S'\x00\x00\x00\x00\x00\x00\x00\x00'
tRp116
sg44
g45
sg40
g41
sg25
F0.1906158437486738
sS'trials.thisIndex'
p117
g36
(g80
S'?\x00\x00\x00'
tRp118
sg26
V5
sS'trials.thisRepN'
p119
I0
sg66
Vpigeon
p120
sg63
V../experiment_stimuli/bw_bc_bl/Living_Things/Birds/pigeon_16.jpg
p121
sg21
F0.58149980311281979
sS'trials.thisTrialN'
p122
I3
sa(dp123
g31
g32
sg17
F26.381276548374444
sg24
I0
sg35
g39
sg14
F26.357185871340334
sg16
g36
(g70
S'\x01\x00\x00\x00'
tRp124
sg42
g43
sg46
g47
sg15
g72
sg22
F28.061528523219749
sg64
VAnimals
p125
sg62
g89
sg49
g50
sS'trials.thisN'
p126
I4
sg19
I1
sg27
g36
(g38
S'\x00\x00\x00\x00\x00\x00\x18@'
tRp127
sg52
g53
sg23
S'2'
sg18
F27.609813720919192
sg33
g34
sg51
g11
sg20
S'1'
sg65
g36
(g77
S'\x00\x00\x00\x00\x00\x00\x00\x00'
tRp128
sg44
g45
sg40
g41
sg25
F0.11030326271429658
sS'trials.thisIndex'
p129
g36
(g80
S'R\x00\x00\x00'
tRp130
sg26
V5
sS'trials.thisRepN'
p131
I0
sg66
Vtapir
p132
sg63
V../experiment_stimuli/bw_bc_bl/Living_Things/Animals/tapir_7.jpg
p133
sg21
F0.43117909785360098
sS'trials.thisTrialN'
p134
I4
sa(dp135
g31
g32
sg17
F29.926873058546335
sg24
I1
sg35
g39
sg14
F29.90490021603182
sg16
g36
(g70
S'\x02\x00\x00\x00'
tRp136
sg42
g43
sg46
g47
sg15
g101
sg22
F31.659355792216957
sg64
g125
sg62
g89
sg49
g50
sS'trials.thisN'
p137
I5
sg19
I1
sg27
g36
(g38
S'\x00\x00\x00\x00\x00\x00\x18@'
tRp138
sg52
g53
sg23
S'1'
sg18
F31.147506834939122
sg33
g34
sg51
g11
sg20
S'2'
sg65
g36
(g77
S'\x00\x00\x00\x00\x00\x00\x00\x00'
tRp139
sg44
g45
sg40
g41
sg25
F0.24074371834285557
sS'trials.thisIndex'
p140
g36
(g80
S'2\x00\x00\x00'
tRp141
sg26
V5
sS'trials.thisRepN'
p142
I0
sg66
Vlynx
p143
sg63
V../experiment_stimuli/bw_bc_bl/Living_Things/Animals/lynx_25.jpg
p144
sg21
F0.49128462537191808
sS'trials.thisTrialN'
p145
I5
sa(dp146
g31
g32
sg17
F33.670597692718729
sg24
I0
sg35
g39
sg14
F33.633028013631701
sg16
g36
(g70
S'\x02\x00\x00\x00'
tRp147
sg42
g43
sg46
g47
sg15
g72
sg22
F35.457485808059573
sg64
VVehicles
p148
sg62
g74
sg49
g50
sS'trials.thisN'
p149
I6
sg19
I0
sg27
g36
(g38
S'\x00\x00\x00\x00\x00\x00\x1a@'
tRp150
sg52
g53
sg23
S'2'
sg18
F34.905688982922584
sg33
g34
sg51
g11
sg20
S'1'
sg65
g36
(g77
S'\x00\x00\x00\x00\x00\x00\x00\x00'
tRp151
sg44
g45
sg40
g41
sg25
F0.21067233453504741
sS'trials.thisIndex'
p152
g36
(g80
S'@\x00\x00\x00'
tRp153
sg26
V5
sS'trials.thisRepN'
p154
I0
sg66
Vplane
p155
sg63
V../experiment_stimuli/bw_bc_bl/Nonliving_Things/Vehicles/plane_5.jpg
p156
sg21
F0.53122631297446787
sS'trials.thisTrialN'
p157
I6
sa(dp158
g31
g32
sg17
F37.415910617914051
sg24
I0
sg35
g39
sg14
F37.401236023753881
sg16
g36
(g70
S'\x01\x00\x00\x00'
tRp159
sg42
g43
sg46
g47
sg15
g101
sg22
F39.736964187351987
sg64
VBuildings
p160
sg62
g74
sg49
g50
sS'trials.thisN'
p161
I7
sg19
I0
sg27
g36
(g38
S'\x00\x00\x00\x00\x00\x00\x18@'
tRp162
sg52
g53
sg23
S'2'
sg18
F38.643829996464774
sg33
g34
sg51
g11
sg20
S'2'
sg65
g36
(g77
S'\x00\x00\x00\x00\x00\x00\x00\x00'
tRp163
sg44
g45
sg40
g41
sg25
F1.9745388173032552
sS'trials.thisIndex'
p164
g36
(g80
S'\x11\x00\x00\x00'
tRp165
sg26
V5
sS'trials.thisRepN'
p166
I0
sg66
Vchurch
p167
sg63
V../experiment_stimuli/bw_bc_bl/Nonliving_Things/Buildings/church_15.jpg
p168
sg21
F1.0725564719177783
sS'trials.thisTrialN'
p169
I7
sa(dp170
g31
g32
sg17
F43.449539197143167
sg24
I1
sg35
g39
sg14
F43.444399887695909
sg16
g36
(g70
S'\x01\x00\x00\x00'
tRp171
sg42
g43
sg46
g47
sg15
g72
sg22
F45.329152304911986
sg64
g125
sg62
g89
sg49
g50
sS'trials.thisN'
p172
I8
sg19
I0
sg27
g36
(g38
S'\x00\x00\x00\x00\x00\x00\x18@'
tRp173
sg52
g53
sg23
S'1'
sg18
F44.676975434180349
sg33
g34
sg51
g11
sg20
S'2'
sg65
g36
(g77
S'\x00\x00\x00\x00\x00\x00\x00\x00'
tRp174
sg44
g45
sg40
g41
sg25
F0.35098092188127339
sS'trials.thisIndex'
p175
g36
(g80
S'\x1b\x00\x00\x00'
tRp176
sg26
V5
sS'trials.thisRepN'
p177
I0
sg66
Velephant
p178
sg63
V../experiment_stimuli/bw_bc_bl/Living_Things/Animals/elephant_6.jpg
p179
sg21
F0.63159343786537647
sS'trials.thisTrialN'
p180
I8
sa(dp181
g31
g32
sg17
F47.430504497140646
sg24
I1
sg35
g39
sg14
F47.413045594701543
sg16
g36
(g70
S'\x01\x00\x00\x00'
tRp182
sg42
g43
sg46
g47
sg15
g101
sg22
F49.057280648034066
sg64
g102
sg62
g74
sg49
g50
sS'trials.thisN'
p183
I9
sg19
I0
sg27
g36
(g38
S'\x00\x00\x00\x00\x00\x00\x18@'
tRp184
sg52
g53
sg23
S'1'
sg18
F48.665650892071426
sg33
g34
sg51
g11
sg20
S'2'
sg65
g36
(g77
S'\x00\x00\x00\x00\x00\x00\x00\x00'
tRp185
sg44
g45
sg40
g41
sg25
F0.17058934061788023
sS'trials.thisIndex'
p186
g36
(g80
S'Q\x00\x00\x00'
tRp187
sg26
V5
sS'trials.thisRepN'
p188
I0
sg66
Vtable
p189
sg63
V../experiment_stimuli/bw_bc_bl/Nonliving_Things/Furniture/table_5.jpg
p190
sg21
F0.37107749143615365
sS'trials.thisTrialN'
p191
I9
sa(dp192
g31
g32
sg17
F50.973994913278148
sg24
I0
sg35
g39
sg14
F50.960749194957316
sg16
g36
(g70
S'\x02\x00\x00\x00'
tRp193
sg42
g43
sg46
g47
sg15
g101
sg22
F55.330915776779875
sg64
g125
sg62
g89
sg49
g50
sS'trials.thisN'
p194
I10
sg19
I1
sg27
g36
(g38
S'\x00\x00\x00\x00\x00\x00\x1e@'
tRp195
sg52
g53
sg23
S'2'
sg18
F52.2334226265084
sg33
g34
sg51
g11
sg20
S'2'
sg65
g36
(g77
S'\x00\x00\x00\x00\x00\x00\x00\x00'
tRp196
sg44
g45
sg40
g41
sg25
F0.15054637915454805
sS'trials.thisIndex'
p197
g36
(g80
S'Z\x00\x00\x00'
tRp198
sg26
V5
sS'trials.thisRepN'
p199
I0
sg66
Vturtle
p200
sg63
V../experiment_stimuli/bw_bc_bl/Living_Things/Animals/turtle_5.jpg
p201
sg21
F3.0769255065824836
sS'trials.thisTrialN'
p202
I10
sa(dp203
g31
g32
sg17
F57.224066836992279
sg24
I0
sg35
g39
sg14
F57.214361298363656
sg16
g36
(g70
S'\x01\x00\x00\x00'
tRp204
sg42
g43
sg46
g47
sg15
g72
sg22
F59.329622536897659
sg64
g125
sg62
g89
sg49
g50
sS'trials.thisN'
p205
I11
sg19
I1
sg27
g36
(g38
S'\x00\x00\x00\x00\x00\x00\x18@'
tRp206
sg52
g53
sg23
S'3'
sg18
F58.477011093404144
sg33
g34
sg51
g11
sg20
S'1'
sg65
g36
(g77
S'\x00\x00\x00\x00\x00\x00\x00\x00'
tRp207
sg44
g45
sg40
g41
sg25
F0.73181107570417225
sS'trials.thisIndex'
p208
g36
(g80
S'\r\x00\x00\x00'
tRp209
sg26
V5
sS'trials.thisRepN'
p210
I0
sg66
Vcat
p211
sg63
V../experiment_stimuli/bw_bc_bl/Living_Things/Animals/cat_1.jpg
p212
sg21
F0.83203419833444059
sS'trials.thisTrialN'
p213
I11
sa(dp214
g31
g32
sg17
F61.823756378609687
sg24
I0
sg35
g39
sg14
F61.794336860068142
sg16
g36
(g70
S'\x01\x00\x00\x00'
tRp215
sg42
g43
sg46
g47
sg15
g101
sg22
F63.8895452497527
sg64
g73
sg62
g74
sg49
g50
sS'trials.thisN'
p216
I12
sg19
I0
sg27
g36
(g38
S'\x00\x00\x00\x00\x00\x00 @'
tRp217
sg52
g53
sg23
S'2'
sg18
F63.046972194686532
sg33
g34
sg51
g11
sg20
S'2'
sg65
g36
(g77
S'\x00\x00\x00\x00\x00\x00\x00\x00'
tRp218
sg44
g45
sg40
g41
sg25
F0.16056374902836978
sS'trials.thisIndex'
p219
g36
(g80
S'\x1f\x00\x00\x00'
tRp220
sg26
V5
sS'trials.thisRepN'
p221
I0
sg66
Vfrying-pan
p222
sg63
V../experiment_stimuli/bw_bc_bl/Nonliving_Things/Kitchen_Uten/frying-pan_26.jpg
p223
sg21
F0.8220156894531101
sS'trials.thisTrialN'
p224
I12
sa(dp225
g31
g32
sg17
F65.801580761093646
sg24
I0
sg35
g39
sg14
F65.783040531678125
sg16
g36
(g70
S'\x02\x00\x00\x00'
tRp226
sg42
g43
sg46
g47
sg15
g101
sg22
F67.49737715930678
sg64
g88
sg62
g89
sg49
g50
sS'trials.thisN'
p227
I13
sg19
I0
sg27
g36
(g38
S'\x00\x00\x00\x00\x00\x00\x18@'
tRp228
sg52
g53
sg23
S'2'
sg18
F67.02562667010352
sg33
g34
sg51
g11
sg20
S'1'
sg65
g36
(g77
S'\x00\x00\x00\x00\x00\x00\x00\x00'
tRp229
sg44
g45
sg40
g41
sg25
F0.23072575125843287
sS'trials.thisIndex'
p230
g36
(g80
S'O\x00\x00\x00'
tRp231
sg26
V5
sS'trials.thisRepN'
p232
I0
sg66
Vsparrow
p233
sg63
V../experiment_stimuli/bw_bc_bl/Living_Things/Birds/sparrow_3.jpg
p234
sg21
F0.45120190153829753
sS'trials.thisTrialN'
p235
I13
sa(dp236
g31
g32
sg17
F69.489226444624364
sg24
I0
sg35
g39
sg14
F69.461034176172689
sg16
g36
(g70
S'\x02\x00\x00\x00'
tRp237
sg42
g43
sg46
g47
sg15
g72
sg22
F71.105252898996696
sg64
VTools
p238
sg62
g74
sg49
g50
sS'trials.thisN'
p239
I14
sg19
I0
sg27
g36
(g38
S'\x00\x00\x00\x00\x00\x00 @'
tRp240
sg52
g53
sg23
S'2'
sg18
F70.713657951215282
sg33
g34
sg51
g11
sg20
S'1'
sg65
g36
(g77
S'\x00\x00\x00\x00\x00\x00\x00\x00'
tRp241
sg44
g45
sg40
g41
sg25
F0.12052758154459298
sS'trials.thisIndex'
p242
g36
(g80
S'\x03\x00\x00\x00'
tRp243
sg26
V5
sS'trials.thisRepN'
p244
I0
sg66
Vaxe
p245
sg63
V../experiment_stimuli/bw_bc_bl/Nonliving_Things/Tools/axe_19.jpg
p246
sg21
F0.37103172554634511
sS'trials.thisTrialN'
p247
I14
sa(dp248
g31
g32
sg17
F72.985918130725622
sg24
I0
sg35
g39
sg14
F72.958648299565539
sg16
g36
(g70
S'\x01\x00\x00\x00'
tRp249
sg42
g43
sg46
g47
sg15
g101
sg22
F74.703102434286848
sg64
g160
sg62
g74
sg49
g50
sS'trials.thisN'
p250
I15
sg19
I0
sg27
g36
(g38
S'\x00\x00\x00\x00\x00\x00\x18@'
tRp251
sg52
g53
sg23
S'2'
sg18
F74.2112823035568
sg33
g34
sg51
g11
sg20
S'2'
sg65
g36
(g77
S'\x00\x00\x00\x00\x00\x00\x00\x00'
tRp252
sg44
g45
sg40
g41
sg25
F0.40108938352204859
sS'trials.thisIndex'
p253
g36
(g80
S'5\x00\x00\x00'
tRp254
sg26
V5
sS'trials.thisRepN'
p255
I0
sg66
Vmill
p256
sg63
V../experiment_stimuli/bw_bc_bl/Nonliving_Things/Buildings/mill_5.jpg
p257
sg21
F0.47125499066896737
sS'trials.thisTrialN'
p258
I15
sa(dp259
g31
g32
sg17
F76.850695618661121
sg24
I1
sg35
g39
sg14
F76.837097336305305
sg16
g36
(g70
S'\x02\x00\x00\x00'
tRp260
sg42
g43
sg46
g47
sg15
g101
sg22
F78.371094095986336
sg64
g125
sg62
g89
sg49
g50
sS'trials.thisN'
p261
I16
sg19
I1
sg27
g36
(g38
S'\x00\x00\x00\x00\x00\x00\x1a@'
tRp262
sg52
g53
sg23
S'1'
sg18
F78.07970281643793
sg33
g34
sg51
g11
sg20
S'2'
sg65
g36
(g77
S'\x00\x00\x00\x00\x00\x00\x00\x00'
tRp263
sg44
g45
sg40
g41
sg25
F0.2007249491289258
sS'trials.thisIndex'
p264
g36
(g80
S'T\x00\x00\x00'
tRp265
sg26
V5
sS'trials.thisRepN'
p266
I0
sg66
Vtiger
p267
sg63
V../experiment_stimuli/bw_bc_bl/Living_Things/Animals/tiger_25.jpg
p268
sg21
F0.27083254209719598
sS'trials.thisTrialN'
p269
I16
sa(dp270
g31
g32
sg17
F80.325816701631993
sg24
I0
sg35
g39
sg14
F80.304634000873193
sg16
g36
(g70
S'\x01\x00\x00\x00'
tRp271
sg42
g43
sg46
g47
sg15
g72
sg22
F82.560184119502082
sg64
g125
sg62
g89
sg49
g50
sS'trials.thisN'
p272
I17
sg19
I1
sg27
g36
(g38
S'\x00\x00\x00\x00\x00\x00\x1c@'
tRp273
sg52
g53
sg23
S'2'
sg18
F81.577316424576566
sg33
g34
sg51
g11
sg20
S'1'
sg65
g36
(g77
S'\x00\x00\x00\x00\x00\x00\x00\x00'
tRp274
sg44
g45
sg40
g41
sg25
F0.1104663060978055
sS'trials.thisIndex'
p275
g36
(g80
S"'\x00\x00\x00"
tRp276
sg26
V5
sS'trials.thisRepN'
p277
I0
sg66
Vhippopotamus
p278
sg63
V../experiment_stimuli/bw_bc_bl/Living_Things/Animals/hippopotamus_3.jpg
p279
sg21
F0.96231989678926766
sS'trials.thisTrialN'
p280
I17
sa(dp281
g31
g32
sg17
F84.424430136336014
sg24
I0
sg35
g39
sg14
F84.403563372092322
sg16
g36
(g70
S'\x02\x00\x00\x00'
tRp282
sg42
g43
sg46
g47
sg15
g101
sg22
F86.408574414905161
sg64
g88
sg62
g89
sg49
g50
sS'trials.thisN'
p283
I18
sg19
I1
sg27
g36
(g38
S'\x00\x00\x00\x00\x00\x00\x18@'
tRp284
sg52
g53
sg23
S'2'
sg18
F85.666215275879949
sg33
g34
sg51
g11
sg20
S'2'
sg65
g36
(g77
S'\x00\x00\x00\x00\x00\x00\x00\x00'
tRp285
sg44
g45
sg40
g41
sg25
F0.44118316727690399
sS'trials.thisIndex'
p286
g36
(g80
S'8\x00\x00\x00'
tRp287
sg26
V5
sS'trials.thisRepN'
p288
I0
sg66
Vostrich
p289
sg63
V../experiment_stimuli/bw_bc_bl/Living_Things/Birds/ostrich_26.jpg
p290
sg21
F0.72179982205852866
sS'trials.thisTrialN'
p291
I18
sa(dp292
g31
g32
sg17
F88.600837983889505
sg24
I0
sg35
g39
sg14
F88.582668897230178
sg16
g36
(g70
S'\x01\x00\x00\x00'
tRp293
sg42
g43
sg46
g47
sg15
g72
sg22
F90.346971784951165
sg64
VMarine_creatures
p294
sg62
g89
sg49
g50
sS'trials.thisN'
p295
I19
sg19
I1
sg27
g36
(g38
S'\x00\x00\x00\x00\x00\x00\x1e@'
tRp296
sg52
g53
sg23
S'2'
sg18
F89.83529745368287
sg33
g34
sg51
g11
sg20
S'1'
sg65
g36
(g77
S'\x00\x00\x00\x00\x00\x00\x00\x00'
tRp297
sg44
g45
sg40
g41
sg25
F0.080468688625842333
sS'trials.thisIndex'
p298
g36
(g80
S'7\x00\x00\x00'
tRp299
sg26
V5
sS'trials.thisRepN'
p300
I0
sg66
Vnarwhal
p301
sg63
V../experiment_stimuli/bw_bc_bl/Living_Things/Marine_creatures/narwhal_22.jpg
p302
sg21
F0.49112836387939751
sS'trials.thisTrialN'
p303
I19
sa(dp304
g31
g32
sg17
F92.165681960526854
sg24
I1
sg35
g39
sg14
F92.160452366108075
sg16
g36
(g70
S'\x02\x00\x00\x00'
tRp305
sg42
g43
sg46
g47
sg15
g101
sg22
F93.85478856950067
sg64
g294
sg62
g89
sg49
g50
sS'trials.thisN'
p306
I20
sg19
I1
sg27
g36
(g38
S'\x00\x00\x00\x00\x00\x00\x18@'
tRp307
sg52
g53
sg23
S'1'
sg18
F93.393050292041153
sg33
g34
sg51
g11
sg20
S'2'
sg65
g36
(g77
S'\x00\x00\x00\x00\x00\x00\x00\x00'
tRp308
sg44
g45
sg40
g41
sg25
F0.14055057312361896
sS'trials.thisIndex'
p309
g36
(g80
S'P\x00\x00\x00'
tRp310
sg26
V5
sS'trials.thisRepN'
p311
I0
sg66
Vsperm-whale
p312
sg63
V../experiment_stimuli/bw_bc_bl/Living_Things/Marine_creatures/sperm-whale_9.jpg
p313
sg21
F0.44119253568351269
sS'trials.thisTrialN'
p314
I20
sa(dp315
g31
g32
sg17
F95.743978630751371
sg24
I0
sg35
g39
sg14
F95.728226108243689
sg16
g36
(g70
S'\x01\x00\x00\x00'
tRp316
sg42
g43
sg46
g47
sg15
g101
sg22
F97.713226899970323
sg64
g102
sg62
g74
sg49
g50
sS'trials.thisN'
p317
I21
sg19
I1
sg27
g36
(g38
S'\x00\x00\x00\x00\x00\x00\x18@'
tRp318
sg52
g53
sg23
S'2'
sg18
F96.980852942913771
sg33
g34
sg51
g11
sg20
S'1'
sg65
g36
(g77
S'\x00\x00\x00\x00\x00\x00\x00\x00'
tRp319
sg44
g45
sg40
g41
sg25
F0.11051891813986003
sS'trials.thisIndex'
p320
g36
(g80
S'N\x00\x00\x00'
tRp321
sg26
V5
sS'trials.thisRepN'
p322
I0
sg66
Vsofa
p323
sg63
V../experiment_stimuli/bw_bc_bl/Nonliving_Things/Furniture/sofa_9.jpg
p324
sg21
F0.71180529077537358
sS'trials.thisTrialN'
p325
I21
sa(dp326
g31
g32
sg17
F99.563466176390648
sg24
I0
sg35
g39
sg14
F99.55655884090811
sg16
g36
(g70
S'\x02\x00\x00\x00'
tRp327
sg42
g43
sg46
g47
sg15
g101
sg22
F101.37115595140494
sg64
g294
sg62
g89
sg49
g50
sS'trials.thisN'
p328
I22
sg19
I0
sg27
g36
(g38
S'\x00\x00\x00\x00\x00\x00\x18@'
tRp329
sg52
g53
sg23
S'2'
sg18
F100.78915003384463
sg33
g34
sg51
g11
sg20
S'1'
sg65
g36
(g77
S'\x00\x00\x00\x00\x00\x00\x00\x00'
tRp330
sg44
g45
sg40
g41
sg25
F0.14052165229804814
sS'trials.thisIndex'
p331
g36
(g80
S'\x15\x00\x00\x00'
tRp332
sg26
V5
sS'trials.thisRepN'
p333
I0
sg66
Vcrab
p334
sg63
V../experiment_stimuli/bw_bc_bl/Living_Things/Marine_creatures/crab_2.jpg
p335
sg21
F0.56144869863055646
sS'trials.thisTrialN'
p336
I22
sa(dp337
g31
g32
sg17
F103.25861394498497
sg24
I0
sg35
g39
sg14
F103.2445900356397
sg16
g36
(g70
S'\x01\x00\x00\x00'
tRp338
sg42
g43
sg46
g47
sg15
g101
sg22
F104.9990428108722
sg64
g102
sg62
g74
sg49
g50
sS'trials.thisN'
p339
I23
sg19
I0
sg27
g36
(g38
S'\x00\x00\x00\x00\x00\x00\x18@'
tRp340
sg52
g53
sg23
S'2'
sg18
F104.48719672230072
sg33
g34
sg51
g11
sg20
S'2'
sg65
g36
(g77
S'\x00\x00\x00\x00\x00\x00\x00\x00'
tRp341
sg44
g45
sg40
g41
sg25
F0.21067549637518823
sS'trials.thisIndex'
p342
g36
(g80
S']\x00\x00\x00'
tRp343
sg26
V5
sS'trials.thisRepN'
p344
I0
sg66
Vwardrobe
p345
sg63
V../experiment_stimuli/bw_bc_bl/Nonliving_Things/Furniture/wardrobe_8.jpg
p346
sg21
F0.49130004621110857
sS'trials.thisTrialN'
p347
I23
sa(dp348
g31
g32
sg17
F106.95806003198959
sg24
I0
sg35
g39
sg14
F106.94266363000497
sg16
g36
(g70
S'\x02\x00\x00\x00'
tRp349
sg42
g43
sg46
g47
sg15
g101
sg22
F109.49884580518119
sg64
g88
sg62
g89
sg49
g50
sS'trials.thisN'
p350
I24
sg19
I1
sg27
g36
(g38
S'\x00\x00\x00\x00\x00\x00\x18@'
tRp351
sg52
g53
sg23
S'2'
sg18
F108.18524818541482
sg33
g34
sg51
g11
sg20
S'2'
sg65
g36
(g77
S'\x00\x00\x00\x00\x00\x00\x00\x00'
tRp352
sg44
g45
sg40
g41
sg25
F0.21068158675916493
sS'trials.thisIndex'
p353
g36
(g80
S'C\x00\x00\x00'
tRp354
sg26
V5
sS'trials.thisRepN'
p355
I0
sg66
Vraven
p356
sg63
V../experiment_stimuli/bw_bc_bl/Living_Things/Birds/raven_4.jpg
p357
sg21
F1.2930397088639438
sS'trials.thisTrialN'
p358
I24
sa(dp359
g31
g32
sg17
F111.4713729522191
sg24
I1
sg35
g39
sg14
F111.44249231158756
sg16
g36
(g70
S'\x02\x00\x00\x00'
tRp360
sg42
g43
sg46
g47
sg15
g72
sg22
F112.8561504506506
sg64
g148
sg62
g74
sg49
g50
sS'trials.thisN'
p361
I25
sg19
I1
sg27
g36
(g38
S'\x00\x00\x00\x00\x00\x00\x1a@'
tRp362
sg52
g53
sg23
S'1'
sg18
F112.69506825599819
sg33
g34
sg51
g11
sg20
S'2'
sg65
g36
(g77
S'\x00\x00\x00\x00\x00\x00\x00\x00'
tRp363
sg44
g45
sg40
g41
sg25
F0.26077935681678355
sS'trials.thisIndex'
p364
g36
(g80
S'6\x00\x00\x00'
tRp365
sg26
V5
sS'trials.thisRepN'
p366
I0
sg66
Vmotorbike
p367
sg63
V../experiment_stimuli/bw_bc_bl/Nonliving_Things/Vehicles/motorbike_8.jpg
p368
sg21
F0.14052401343360543
sS'trials.thisTrialN'
p369
I25
sa(dp370
g31
g32
sg17
F114.86718842876144
sg24
I0
sg35
g39
sg14
F114.84985363367014
sg16
g36
(g70
S'\x01\x00\x00\x00'
tRp371
sg42
g43
sg46
g47
sg15
g72
sg22
F116.71456057438627
sg64
g125
sg62
g89
sg49
g50
sS'trials.thisN'
p372
I26
sg19
I0
sg27
g36
(g38
S'\x00\x00\x00\x00\x00\x00\x1e@'
tRp373
sg52
g53
sg23
S'2'
sg18
F116.11251303367317
sg33
g34
sg51
g11
sg20
S'2'
sg65
g36
(g77
S'\x00\x00\x00\x00\x00\x00\x00\x00'
tRp374
sg44
g45
sg40
g41
sg25
F0.58148446842096746
sS'trials.thisIndex'
p375
g36
(g80
S'\x01\x00\x00\x00'
tRp376
sg26
V5
sS'trials.thisRepN'
p377
I0
sg66
Varmadillo
p378
sg63
V../experiment_stimuli/bw_bc_bl/Living_Things/Animals/armadillo_14.jpg
p379
sg21
F0.5714708543382585
sS'trials.thisTrialN'
p380
I26
sa(dp381
g31
g32
sg17
F119.04683059826493
sg24
I0
sg35
g39
sg14
F119.02896720031276
sg16
g36
(g70
S'\x02\x00\x00\x00'
tRp382
sg42
g43
sg46
g47
sg15
g72
sg22
F120.81349799828604
sg64
g160
sg62
g74
sg49
g50
sS'trials.thisN'
p383
I27
sg19
I0
sg27
g36
(g38
S'\x00\x00\x00\x00\x00\x00\x18@'
tRp384
sg52
g53
sg23
S'2'
sg18
F120.28158742981032
sg33
g34
sg51
g11
sg20
S'1'
sg65
g36
(g77
S'\x00\x00\x00\x00\x00\x00\x00\x00'
tRp385
sg44
g45
sg40
g41
sg25
F0.18060724064707756
sS'trials.thisIndex'
p386
g36
(g80
S')\x00\x00\x00'
tRp387
sg26
V5
sS'trials.thisRepN'
p388
I0
sg66
Vhouse
p389
sg63
V../experiment_stimuli/bw_bc_bl/Nonliving_Things/Buildings/house_6.jpg
p390
sg21
F0.51135521824471653
sS'trials.thisTrialN'
p391
I27
sa(dp392
g31
g32
sg17
F122.74273768952116
sg24
I0
sg35
g39
sg14
F122.72701539983973
sg16
g36
(g70
S'\x01\x00\x00\x00'
tRp393
sg42
g43
sg46
g47
sg15
g72
sg22
F124.75206572772004
sg64
g125
sg62
g89
sg49
g50
sS'trials.thisN'
p394
I28
sg19
I1
sg27
g36
(g38
S'\x00\x00\x00\x00\x00\x00\x1a@'
tRp395
sg52
g53
sg23
S'2'
sg18
F123.96963397762738
sg33
g34
sg51
g11
sg20
S'1'
sg65
g36
(g77
S'\x00\x00\x00\x00\x00\x00\x00\x00'
tRp396
sg44
g45
sg40
g41
sg25
F0.14057162147946656
sS'trials.thisIndex'
p397
g36
(g80
S'0\x00\x00\x00'
tRp398
sg26
V5
sS'trials.thisRepN'
p399
I0
sg66
Vlioness
p400
sg63
V../experiment_stimuli/bw_bc_bl/Living_Things/Animals/lioness_14.jpg
p401
sg21
F0.76190020726062357
sS'trials.thisTrialN'
p402
I28
sa(dp403
g31
g32
sg17
F126.64483761508018
sg24
I0
sg35
g39
sg14
F126.62550033023581
sg16
g36
(g70
S'\x02\x00\x00\x00'
tRp404
sg42
g43
sg46
g47
sg15
g72
sg22
F128.58042153902352
sg64
g160
sg62
g74
sg49
g50
sS'trials.thisN'
p405
I29
sg19
I1
sg27
g36
(g38
S'\x00\x00\x00\x00\x00\x00\x18@'
tRp406
sg52
g53
sg23
S'2'
sg18
F127.86811063368805
sg33
g34
sg51
g11
sg20
S'2'
sg65
g36
(g77
S'\x00\x00\x00\x00\x00\x00\x00\x00'
tRp407
sg44
g45
sg40
g41
sg25
F0.15056446543894708
sS'trials.thisIndex'
p408
g36
(g80
S'\x0e\x00\x00\x00'
tRp409
sg26
V5
sS'trials.thisRepN'
p410
I0
sg66
Vcathedral
p411
sg63
V../experiment_stimuli/bw_bc_bl/Nonliving_Things/Buildings/cathedral_0.jpg
p412
sg21
F0.69174047233536839
sS'trials.thisTrialN'
p413
I29
sa(dp414
g31
g32
sg17
F130.48141337186098
sg24
I0
sg35
g39
sg14
F130.46385907568038
sg16
g36
(g70
S'\x02\x00\x00\x00'
tRp415
sg42
g43
sg46
g47
sg15
g72
sg22
F132.02790424600244
sg64
g102
sg62
g74
sg49
g50
sS'trials.thisN'
p416
I30
sg19
I1
sg27
g36
(g38
S'\x00\x00\x00\x00\x00\x00\x18@'
tRp417
sg52
g53
sg23
S'2'
sg18
F131.70647142385133
sg33
g34
sg51
g11
sg20
S'2'
sg65
g36
(g77
S'\x00\x00\x00\x00\x00\x00\x00\x00'
tRp418
sg44
g45
sg40
g41
sg25
F0.36085565015673637
sS'trials.thisIndex'
p419
g36
(g80
S'\x0f\x00\x00\x00'
tRp420
sg26
V5
sS'trials.thisRepN'
p421
I0
sg66
Vchair
p422
sg63
V../experiment_stimuli/bw_bc_bl/Nonliving_Things/Furniture/chair_10.jpg
p423
sg21
F0.30088650505058467
sS'trials.thisTrialN'
p424
I30
sa(dp425
g31
g32
sg17
F134.14182297210209
sg24
I0
sg35
g39
sg14
F134.12184279598296
sg16
g36
(g70
S'\x01\x00\x00\x00'
tRp426
sg42
g43
sg46
g47
sg15
g101
sg22
F135.63577225641347
sg64
g102
sg62
g74
sg49
g50
sS'trials.thisN'
p427
I31
sg19
I0
sg27
g36
(g38
S'\x00\x00\x00\x00\x00\x00\x1a@'
tRp428
sg52
g53
sg23
S'2'
sg18
F135.36443405062892
sg33
g34
sg51
g11
sg20
S'2'
sg65
g36
(g77
S'\x00\x00\x00\x00\x00\x00\x00\x00'
tRp429
sg44
g45
sg40
g41
sg25
F0.23057241830974817
sS'trials.thisIndex'
p430
g36
(g80
S'\x1d\x00\x00\x00'
tRp431
sg26
V5
sS'trials.thisRepN'
p432
I0
sg66
Vfilling-cabinet
p433
sg63
V../experiment_stimuli/bw_bc_bl/Nonliving_Things/Furniture/filling-cabinet_23.jpg
p434
sg21
F0.25076853949576616
sS'trials.thisTrialN'
p435
I31
sa(dp436
g31
g32
sg17
F137.61776975682005
sg24
I0
sg35
g39
sg14
F137.59940252965316
sg16
g36
(g70
S'\x02\x00\x00\x00'
tRp437
sg42
g43
sg46
g47
sg15
g101
sg22
F139.03299878537655
sg64
g294
sg62
g89
sg49
g50
sS'trials.thisN'
p438
I32
sg19
I0
sg27
g36
(g38
S'\x00\x00\x00\x00\x00\x00\x1c@'
tRp439
sg52
g53
sg23
S'2'
sg18
F138.84201529878192
sg33
g34
sg51
g11
sg20
S'1'
sg65
g36
(g77
S'\x00\x00\x00\x00\x00\x00\x00\x00'
tRp440
sg44
g45
sg40
g41
sg25
F0.10044069937430322
sS'trials.thisIndex'
p441
g36
(g80
S'1\x00\x00\x00'
tRp442
sg26
V5
sS'trials.thisRepN'
p443
I0
sg66
Vlobster
p444
sg63
V../experiment_stimuli/bw_bc_bl/Living_Things/Marine_creatures/lobster_15.jpg
p445
sg21
F0.17044018441811204
sS'trials.thisTrialN'
p446
I32
sa(dp447
g31
g32
sg17
F140.88377490174025
sg24
I1
sg35
g39
sg14
F140.86651426763274
sg16
g36
(g70
S'\x02\x00\x00\x00'
tRp448
sg42
g43
sg46
g47
sg15
g101
sg22
F142.54078178037889
sg64
VInsects
p449
sg62
g89
sg49
g50
sS'trials.thisN'
p450
I33
sg19
I1
sg27
g36
(g38
S'\x00\x00\x00\x00\x00\x00\x18@'
tRp451
sg52
g53
sg23
S'1'
sg18
F142.10911827045493
sg33
g34
sg51
g11
sg20
S'2'
sg65
g36
(g77
S'\x00\x00\x00\x00\x00\x00\x00\x00'
tRp452
sg44
g45
sg40
g41
sg25
F0.12050181091763079
sS'trials.thisIndex'
p453
g36
(g80
S'I\x00\x00\x00'
tRp454
sg26
V5
sS'trials.thisRepN'
p455
I0
sg66
Vscorpion
p456
sg63
V../experiment_stimuli/bw_bc_bl/Living_Things/Insects/scorpion_25.jpg
p457
sg21
F0.41111733228899539
sS'trials.thisTrialN'
p458
I33
sa(dp459
g31
g32
sg17
F144.41781657771207
sg24
I0
sg35
g39
sg14
F144.39424975565635
sg16
g36
(g70
S'\x01\x00\x00\x00'
tRp460
sg42
g43
sg46
g47
sg15
g101
sg22
F146.35910792159848
sg64
g148
sg62
g74
sg49
g50
sS'trials.thisN'
p461
I34
sg19
I1
sg27
g36
(g38
S'\x00\x00\x00\x00\x00\x00 @'
tRp462
sg52
g53
sg23
S'3'
sg18
F145.67689245240763
sg33
g34
sg51
g11
sg20
S'1'
sg65
g36
(g77
S'\x00\x00\x00\x00\x00\x00\x00\x00'
tRp463
sg44
g45
sg40
g41
sg25
F0.29085191711783409
sS'trials.thisIndex'
p464
g36
(g80
S'\x0b\x00\x00\x00'
tRp465
sg26
V5
sS'trials.thisRepN'
p466
I0
sg66
Vcar
p467
sg63
V../experiment_stimuli/bw_bc_bl/Nonliving_Things/Vehicles/car_19.jpg
p468
sg21
F0.6616674717515707
sS'trials.thisTrialN'
p469
I34
sa(dp470
g31
g32
sg17
F148.39718446996994
sg24
I0
sg35
g39
sg14
F148.3828751614783
sg16
g36
(g70
S'\x01\x00\x00\x00'
tRp471
sg42
g43
sg46
g47
sg15
g72
sg22
F151.25978079019114
sg64
g125
sg62
g89
sg49
g50
sS'trials.thisN'
p472
I35
sg19
I0
sg27
g36
(g38
S'\x00\x00\x00\x00\x00\x00\x18@'
tRp473
sg52
g53
sg23
S'2'
sg18
F149.63550625182688
sg33
g34
sg51
g11
sg20
S'2'
sg65
g36
(g77
S'\x00\x00\x00\x00\x00\x00\x00\x00'
tRp474
sg44
g45
sg40
g41
sg25
F0.29085132339969277
sS'trials.thisIndex'
p475
g36
(g80
S'\x14\x00\x00\x00'
tRp476
sg26
V5
sS'trials.thisRepN'
p477
I0
sg66
Vcow
p478
sg63
V../experiment_stimuli/bw_bc_bl/Living_Things/Animals/cow_8.jpg
p479
sg21
F1.6037224472966045
sS'trials.thisTrialN'
p480
I35
sa(dp481
g31
g32
sg17
F153.30020736972801
sg24
I0
sg35
g39
sg14
F153.28356798109598
sg16
g36
(g70
S'\x02\x00\x00\x00'
tRp482
sg42
g43
sg46
g47
sg15
g72
sg22
F155.11817913991399
sg64
g238
sg62
g74
sg49
g50
sS'trials.thisN'
p483
I36
sg19
I1
sg27
g36
(g38
S'\x00\x00\x00\x00\x00\x00\x1c@'
tRp484
sg52
g53
sg23
S'2'
sg18
F154.52615963434801
sg33
g34
sg51
g11
sg20
S'2'
sg65
g36
(g77
S'\x00\x00\x00\x00\x00\x00\x00\x00'
tRp485
sg44
g45
sg40
g41
sg25
F0.25078400946222246
sS'trials.thisIndex'
p486
g36
(g80
S'%\x00\x00\x00'
tRp487
sg26
V5
sS'trials.thisRepN'
p488
I0
sg66
Vhammer
p489
sg63
V../experiment_stimuli/bw_bc_bl/Nonliving_Things/Tools/hammer_13.jpg
p490
sg21
F0.57146855350583792
sS'trials.thisTrialN'
p491
I36
sa(dp492
g31
g32
sg17
F157.12332194414921
sg24
I1
sg35
g39
sg14
F157.10186388902366
sg16
g36
(g70
S'\x01\x00\x00\x00'
tRp493
sg42
g43
sg46
g47
sg15
g101
sg22
F158.94655845849775
sg64
g102
sg62
g74
sg49
g50
sS'trials.thisN'
p494
I37
sg19
I0
sg27
g36
(g38
S'\x00\x00\x00\x00\x00\x00\x1a@'
tRp495
sg52
g53
sg23
S'1'
sg18
F158.3544933067169
sg33
g34
sg51
g11
sg20
S'2'
sg65
g36
(g77
S'\x00\x00\x00\x00\x00\x00\x00\x00'
tRp496
sg44
g45
sg40
g41
sg25
F0.16041290108114481
sS'trials.thisIndex'
p497
g36
(g80
S'\x05\x00\x00\x00'
tRp498
sg26
V5
sS'trials.thisRepN'
p499
I0
sg66
Vbed
p500
sg63
V../experiment_stimuli/bw_bc_bl/Nonliving_Things/Furniture/bed_6.jpg
p501
sg21
F0.57149557187221944
sS'trials.thisTrialN'
p502
I37
sa(dp503
g31
g32
sg17
F160.87250499706715
sg24
I0
sg35
g39
sg14
F160.84000962437131
sg16
g36
(g70
S'\x02\x00\x00\x00'
tRp504
sg42
g43
sg46
g47
sg15
g72
sg22
F163.23572673765011
sg64
VMusical_Inst
p505
sg62
g74
sg49
g50
sS'trials.thisN'
p506
I38
sg19
I0
sg27
g36
(g38
S'\x00\x00\x00\x00\x00\x00\x1c@'
tRp507
sg52
g53
sg23
S'3'
sg18
F162.12269931309856
sg33
g34
sg51
g11
sg20
S'1'
sg65
g36
(g77
S'\x00\x00\x00\x00\x00\x00\x00\x00'
tRp508
sg44
g45
sg40
g41
sg25
F0.46123160561546683
sS'trials.thisIndex'
p509
g36
(g80
S'>\x00\x00\x00'
tRp510
sg26
V5
sS'trials.thisRepN'
p511
I0
sg66
Vpiano
p512
sg63
V../experiment_stimuli/bw_bc_bl/Nonliving_Things/Musical_Inst/piano__11.jpg
p513
sg21
F1.0924473300110549
sS'trials.thisTrialN'
p514
I38
sa(dp515
g31
g32
sg17
F165.44445504341274
sg24
I0
sg35
g39
sg14
F165.4300052288454
sg16
g36
(g70
S'\x02\x00\x00\x00'
tRp516
sg42
g43
sg46
g47
sg15
g101
sg22
F167.74570079171099
sg64
g125
sg62
g89
sg49
g50
sS'trials.thisN'
p517
I39
sg19
I0
sg27
g36
(g38
S'\x00\x00\x00\x00\x00\x00\x1a@'
tRp518
sg52
g53
sg23
S'2'
sg18
F166.67261055088602
sg33
g34
sg51
g11
sg20
S'1'
sg65
g36
(g77
S'\x00\x00\x00\x00\x00\x00\x00\x00'
tRp519
sg44
g45
sg40
g41
sg25
F0.431157500250265
sS'trials.thisIndex'
p520
g36
(g80
S'(\x00\x00\x00'
tRp521
sg26
V5
sS'trials.thisRepN'
p522
I0
sg66
Vhorse
p523
sg63
V../experiment_stimuli/bw_bc_bl/Living_Things/Animals/horse_11.jpg
p524
sg21
F1.0525281457230449
sS'trials.thisTrialN'
p525
I39
sa(dp526
g31
g32
sg17
F169.93931839498691
sg24
I0
sg35
g39
sg14
F169.90978685882874
sg16
g36
(g70
S'\x02\x00\x00\x00'
tRp527
sg42
g43
sg46
g47
sg15
g72
sg22
F171.54396847868338
sg64
g505
sg62
g74
sg49
g50
sS'trials.thisN'
p528
I40
sg19
I1
sg27
g36
(g38
S'\x00\x00\x00\x00\x00\x00\x1a@'
tRp529
sg52
g53
sg23
S'2'
sg18
F171.1623855473008
sg33
g34
sg51
g11
sg20
S'2'
sg65
g36
(g77
S'\x00\x00\x00\x00\x00\x00\x00\x00'
tRp530
sg44
g45
sg40
g41
sg25
F0.17059111851267517
sS'trials.thisIndex'
p531
g36
(g80
S'Y\x00\x00\x00'
tRp532
sg26
V5
sS'trials.thisRepN'
p533
I0
sg66
Vtuba
p534
sg63
V../experiment_stimuli/bw_bc_bl/Nonliving_Things/Musical_Inst/tuba_26.jpg
p535
sg21
F0.36100861872546375
sS'trials.thisTrialN'
p536
I40
sa(dp537
g31
g32
sg17
F173.46786100184545
sg24
I1
sg35
g39
sg14
F173.44745643553324
sg16
g36
(g70
S'\x01\x00\x00\x00'
tRp538
sg42
g43
sg46
g47
sg15
g101
sg22
F175.1718720223289
sg64
g73
sg62
g74
sg49
g50
sS'trials.thisN'
p539
I41
sg19
I1
sg27
g36
(g38
S'\x00\x00\x00\x00\x00\x00\x1e@'
tRp540
sg52
g53
sg23
S'1'
sg18
F174.69006151310168
sg33
g34
sg51
g11
sg20
S'1'
sg65
g36
(g77
S'\x00\x00\x00\x00\x00\x00\x00\x00'
tRp541
sg44
g45
sg40
g41
sg25
F0.19098386983387172
sS'trials.thisIndex'
p542
g36
(g80
S'M\x00\x00\x00'
tRp543
sg26
V5
sS'trials.thisRepN'
p544
I0
sg66
Vsmall-saucepan
p545
sg63
V../experiment_stimuli/bw_bc_bl/Nonliving_Things/Kitchen_Uten/small-saucepan_25.jpg
p546
sg21
F0.46124324132688344
sS'trials.thisTrialN'
p547
I41
sa(dp548
g31
g32
sg17
F177.10136383841746
sg24
I0
sg35
g39
sg14
F177.09540386148728
sg16
g36
(g70
S'\x02\x00\x00\x00'
tRp549
sg42
g43
sg46
g47
sg15
g101
sg22
F179.12045865133405
sg64
g88
sg62
g89
sg49
g50
sS'trials.thisN'
p550
I42
sg19
I0
sg27
g36
(g38
S'\x00\x00\x00\x00\x00\x00\x1a@'
tRp551
sg52
g53
sg23
S'2'
sg18
F178.35804964508861
sg33
g34
sg51
g11
sg20
S'1'
sg65
g36
(g77
S'\x00\x00\x00\x00\x00\x00\x00\x00'
tRp552
sg44
g45
sg40
g41
sg25
F0.14052367839030921
sS'trials.thisIndex'
p553
g36
(g80
S'3\x00\x00\x00'
tRp554
sg26
V5
sS'trials.thisRepN'
p555
I0
sg66
Vmagpie
p556
sg63
V../experiment_stimuli/bw_bc_bl/Living_Things/Birds/magpie_9.jpg
p557
sg21
F0.74184244521893561
sS'trials.thisTrialN'
p558
I42
sa(dp559
g31
g32
sg17
F181.02446380164474
sg24
I0
sg35
g39
sg14
F180.99389040842652
sg16
g36
(g70
S'\x01\x00\x00\x00'
tRp560
sg42
g43
sg46
g47
sg15
g72
sg22
F182.77840886474587
sg64
g125
sg62
g89
sg49
g50
sS'trials.thisN'
p561
I43
sg19
I1
sg27
g36
(g38
S'\x00\x00\x00\x00\x00\x00\x1a@'
tRp562
sg52
g53
sg23
S'2'
sg18
F182.25654216180556
sg33
g34
sg51
g11
sg20
S'1'
sg65
g36
(g77
S'\x00\x00\x00\x00\x00\x00\x00\x00'
tRp563
sg44
g45
sg40
g41
sg25
F0.050329165998846292
sS'trials.thisIndex'
p564
g36
(g80
S'_\x00\x00\x00'
tRp565
sg26
V5
sS'trials.thisRepN'
p566
I0
sg66
Vzebra
p567
sg63
V../experiment_stimuli/bw_bc_bl/Living_Things/Animals/zebra_12.jpg
p568
sg21
F0.50131151010282338
sS'trials.thisTrialN'
p569
I43
sa(dp570
g31
g32
sg17
F184.5823922357522
sg24
I1
sg35
g39
sg14
F184.56168779637665
sg16
g36
(g70
S'\x02\x00\x00\x00'
tRp571
sg42
g43
sg46
g47
sg15
g101
sg22
F186.21592214494012
sg64
g294
sg62
g89
sg49
g50
sS'trials.thisN'
p572
I44
sg19
I1
sg27
g36
(g38
S'\x00\x00\x00\x00\x00\x00 @'
tRp573
sg52
g53
sg23
S'1'
sg18
F185.80426504020579
sg33
g34
sg51
g11
sg20
S'2'
sg65
g36
(g77
S'\x00\x00\x00\x00\x00\x00\x00\x00'
tRp574
sg44
g45
sg40
g41
sg25
F0.14037115406244993
sS'trials.thisIndex'
p575
g36
(g80
S'+\x00\x00\x00'
tRp576
sg26
V5
sS'trials.thisRepN'
p577
I0
sg66
Vkiller-whale
p578
sg63
V../experiment_stimuli/bw_bc_bl/Living_Things/Marine_creatures/killer-whale_4.jpg
p579
sg21
F0.39109641592949629
sS'trials.thisTrialN'
p580
I44
sa(dp581
g31
g32
sg17
F188.11347449570894
sg24
I0
sg35
g39
sg14
F188.08933882671408
sg16
g36
(g70
S'\x02\x00\x00\x00'
tRp582
sg42
g43
sg46
g47
sg15
g72
sg22
F189.84379402711056
sg64
g505
sg62
g74
sg49
g50
sS'trials.thisN'
p583
I45
sg19
I0
sg27
g36
(g38
S'\x00\x00\x00\x00\x00\x00\x1e@'
tRp584
sg52
g53
sg23
S'2'
sg18
F189.36201332975179
sg33
g34
sg51
g11
sg20
S'1'
sg65
g36
(g77
S'\x00\x00\x00\x00\x00\x00\x00\x00'
tRp585
sg44
g45
sg40
g41
sg25
F0.33098076446913183
sS'trials.thisIndex'
p586
g36
(g80
S'$\x00\x00\x00'
tRp587
sg26
V5
sS'trials.thisRepN'
p588
I0
sg66
Vguitar
p589
sg63
V../experiment_stimuli/bw_bc_bl/Nonliving_Things/Musical_Inst/guitar_12.jpg
p590
sg21
F0.46122284303419292
sS'trials.thisTrialN'
p591
I45
sa(dp592
g31
g32
sg17
F191.91709220455959
sg24
I0
sg35
g39
sg14
F191.90765724983066
sg16
g36
(g70
S'\x01\x00\x00\x00'
tRp593
sg42
g43
sg46
g47
sg15
g72
sg22
F193.78222445677966
sg64
g88
sg62
g89
sg49
g50
sS'trials.thisN'
p594
I46
sg19
I0
sg27
g36
(g38
S'\x00\x00\x00\x00\x00\x00\x1a@'
tRp595
sg52
g53
sg23
S'2'
sg18
F193.15026507573202
sg33
g34
sg51
g11
sg20
S'2'
sg65
g36
(g77
S'\x00\x00\x00\x00\x00\x00\x00\x00'
tRp596
sg44
g45
sg40
g41
sg25
F0.21068591740913689
sS'trials.thisIndex'
p597
g36
(g80
S'\x04\x00\x00\x00'
tRp598
sg26
V5
sS'trials.thisRepN'
p599
I0
sg66
Vbarn-owl
p600
sg63
V../experiment_stimuli/bw_bc_bl/Living_Things/Birds/barn-owl_12.jpg
p601
sg21
F0.61140071856789291
sS'trials.thisTrialN'
p602
I46
sa(dp603
g31
g32
sg17
F195.74409681232646
sg24
I0
sg35
g39
sg14
F195.7259700561408
sg16
g36
(g70
S'\x02\x00\x00\x00'
tRp604
sg42
g43
sg46
g47
sg15
g72
sg22
F197.17978058708832
sg64
g102
sg62
g74
sg49
g50
sS'trials.thisN'
p605
I47
sg19
I1
sg27
g36
(g38
S'\x00\x00\x00\x00\x00\x00\x1c@'
tRp606
sg52
g53
sg23
S'2'
sg18
F196.96858224296011
sg33
g34
sg51
g11
sg20
S'2'
sg65
g36
(g77
S'\x00\x00\x00\x00\x00\x00\x00\x00'
tRp607
sg44
g45
sg40
g41
sg25
F0.11045788484625518
sS'trials.thisIndex'
p608
g36
(g80
S'.\x00\x00\x00'
tRp609
sg26
V5
sS'trials.thisRepN'
p610
I0
sg66
Vlamp
p611
sg63
V../experiment_stimuli/bw_bc_bl/Nonliving_Things/Furniture/lamp_24.jpg
p612
sg21
F0.19064382067881525
sS'trials.thisTrialN'
p613
I47
sa(dp614
g31
g32
sg17
F199.04321119957604
sg24
I0
sg35
g39
sg14
F199.02314704284072
sg16
g36
(g70
S'\x01\x00\x00\x00'
tRp615
sg42
g43
sg46
g47
sg15
g101
sg22
F200.93781498842873
sg64
g505
sg62
g74
sg49
g50
sS'trials.thisN'
p616
I48
sg19
I0
sg27
g36
(g38
S'\x00\x00\x00\x00\x00\x00\x18@'
tRp617
sg52
g53
sg23
S'2'
sg18
F200.27578722732142
sg33
g34
sg51
g11
sg20
S'2'
sg65
g36
(g77
S'\x00\x00\x00\x00\x00\x00\x00\x00'
tRp618
sg44
g45
sg40
g41
sg25
F0.18062001490034163
sS'trials.thisIndex'
p619
g36
(g80
S'H\x00\x00\x00'
tRp620
sg26
V5
sS'trials.thisRepN'
p621
I0
sg66
Vsaxophone
p622
sg63
V../experiment_stimuli/bw_bc_bl/Nonliving_Things/Musical_Inst/saxophone_25.jpg
p623
sg21
F0.64146403456106782
sS'trials.thisTrialN'
p624
I48
sa(dp625
g31
g32
sg17
F202.86866427888162
sg24
I0
sg35
g39
sg14
F202.85148356878199
sg16
g36
(g70
S'\x02\x00\x00\x00'
tRp626
sg42
g43
sg46
g47
sg15
g101
sg22
F204.38545631780289
sg64
g88
sg62
g89
sg49
g50
sS'trials.thisN'
p627
I49
sg19
I1
sg27
g36
(g38
S'\x00\x00\x00\x00\x00\x00\x18@'
tRp628
sg52
g53
sg23
S'2'
sg18
F204.09410521807149
sg33
g34
sg51
g11
sg20
S'2'
sg65
g36
(g77
S'\x00\x00\x00\x00\x00\x00\x00\x00'
tRp629
sg44
g45
sg40
g41
sg25
F3.8886935017071664
sS'trials.thisIndex'
p630
g36
(g80
S'9\x00\x00\x00'
tRp631
sg26
V5
sS'trials.thisRepN'
p632
I0
sg66
Vowl
p633
sg63
V../experiment_stimuli/bw_bc_bl/Living_Things/Birds/owl_4.jpg
p634
sg21
F0.27081342181190848
sS'trials.thisTrialN'
p635
I49
sa(dp636
g31
g32
sg17
F210.02560754795559
sg24
I0
sg35
g39
sg14
F210.00706892018206
sg16
g36
(g70
S'\x02\x00\x00\x00'
tRp637
sg42
g43
sg46
g47
sg15
g101
sg22
F212.5131753589958
sg64
g88
sg62
g89
sg49
g50
sS'trials.thisN'
p638
I50
sg19
I1
sg27
g36
(g38
S'\x00\x00\x00\x00\x00\x00\x1a@'
tRp639
sg52
g53
sg23
S'2'
sg18
F211.24968202435412
sg33
g34
sg51
g11
sg20
S'2'
sg65
g36
(g77
S'\x00\x00\x00\x00\x00\x00\x00\x00'
tRp640
sg44
g45
sg40
g41
sg25
F0.1704393457621336
sS'trials.thisIndex'
p641
g36
(g80
S',\x00\x00\x00'
tRp642
sg26
V5
sS'trials.thisRepN'
p643
I0
sg66
Vkiwi
p644
sg63
V../experiment_stimuli/bw_bc_bl/Living_Things/Birds/kiwi_7.jpg
p645
sg21
F1.2429409010801464
sS'trials.thisTrialN'
p646
I50
sa(dp647
g31
g32
sg17
F214.43804108235054
sg24
I0
sg35
g39
sg14
F214.41666839062236
sg16
g36
(g70
S'\x02\x00\x00\x00'
tRp648
sg42
g43
sg46
g47
sg15
g101
sg22
F216.37156152073294
sg64
g294
sg62
g89
sg49
g50
sS'trials.thisN'
p649
I51
sg19
I1
sg27
g36
(g38
S'\x00\x00\x00\x00\x00\x00\x18@'
tRp650
sg52
g53
sg23
S'2'
sg18
F215.65928024658933
sg33
g34
sg51
g11
sg20
S'2'
sg65
g36
(g77
S'\x00\x00\x00\x00\x00\x00\x00\x00'
tRp651
sg44
g45
sg40
g41
sg25
F0.12050465657375753
sS'trials.thisIndex'
p652
g36
(g80
S'A\x00\x00\x00'
tRp653
sg26
V5
sS'trials.thisRepN'
p654
I0
sg66
Vpomfret
p655
sg63
V../experiment_stimuli/bw_bc_bl/Living_Things/Marine_creatures/pomfret_23.jpg
p656
sg21
F0.6917272808495909
sS'trials.thisTrialN'
p657
I51
sa(dp658
g31
g32
sg17
F218.24110018042848
sg24
I0
sg35
g39
sg14
F218.22496068826877
sg16
g36
(g70
S'\x01\x00\x00\x00'
tRp659
sg42
g43
sg46
g47
sg15
g72
sg22
F219.92931845318526
sg64
g125
sg62
g89
sg49
g50
sS'trials.thisN'
p660
I52
sg19
I1
sg27
g36
(g38
S'\x00\x00\x00\x00\x00\x00\x1a@'
tRp661
sg52
g53
sg23
S'2'
sg18
F219.4775901848916
sg33
g34
sg51
g11
sg20
S'1'
sg65
g36
(g77
S'\x00\x00\x00\x00\x00\x00\x00\x00'
tRp662
sg44
g45
sg40
g41
sg25
F0.1105071478523314
sS'trials.thisIndex'
p663
g36
(g80
S'\x10\x00\x00\x00'
tRp664
sg26
V5
sS'trials.thisRepN'
p665
I0
sg66
Vcheetah
p666
sg63
V../experiment_stimuli/bw_bc_bl/Living_Things/Animals/cheetah_14.jpg
p667
sg21
F0.43116340995766222
sS'trials.thisTrialN'
p668
I52
sa(dp669
g31
g32
sg17
F221.77755539794452
sg24
I0
sg35
g39
sg14
F221.77268779603764
sg16
g36
(g70
S'\x02\x00\x00\x00'
tRp670
sg42
g43
sg46
g47
sg15
g72
sg22
F224.31987694371492
sg64
g148
sg62
g74
sg49
g50
sS'trials.thisN'
p671
I53
sg19
I0
sg27
g36
(g38
S'\x00\x00\x00\x00\x00\x00\x1a@'
tRp672
sg52
g53
sg23
S'3'
sg18
F223.00527736125514
sg33
g34
sg51
g11
sg20
S'1'
sg65
g36
(g77
S'\x00\x00\x00\x00\x00\x00\x00\x00'
tRp673
sg44
g45
sg40
g41
sg25
F0.19067836552858353
sS'trials.thisIndex'
p674
g36
(g80
S'W\x00\x00\x00'
tRp675
sg26
V5
sS'trials.thisRepN'
p676
I0
sg66
Vtrain
p677
sg63
V../experiment_stimuli/bw_bc_bl/Nonliving_Things/Vehicles/train_0.jpg
p678
sg21
F1.2940288225654513
sS'trials.thisTrialN'
p679
I53
sa(dp680
g31
g32
sg17
F226.25840170448646
sg24
I0
sg35
g39
sg14
F226.24242309434339
sg16
g36
(g70
S'\x02\x00\x00\x00'
tRp681
sg42
g43
sg46
g47
sg15
g72
sg22
F227.86659665987827
sg64
g160
sg62
g74
sg49
g50
sS'trials.thisN'
p682
I54
sg19
I0
sg27
g36
(g38
S'\x00\x00\x00\x00\x00\x00\x1e@'
tRp683
sg52
g53
sg23
S'2'
sg18
F227.48502876982093
sg33
g34
sg51
g11
sg20
S'1'
sg65
g36
(g77
S'\x00\x00\x00\x00\x00\x00\x00\x00'
tRp684
sg44
g45
sg40
g41
sg25
F0.090466268826276064
sS'trials.thisIndex'
p685
g36
(g80
S'\x1c\x00\x00\x00'
tRp686
sg26
V5
sS'trials.thisRepN'
p687
I0
sg66
Vfactory
p688
sg63
V../experiment_stimuli/bw_bc_bl/Nonliving_Things/Buildings/factory_11.jpg
p689
sg21
F0.36101446067914367
sS'trials.thisTrialN'
p690
I54
sa(dp691
g31
g32
sg17
F229.70754220569506
sg24
I0
sg35
g39
sg14
F229.68992757913657
sg16
g36
(g70
S'\x01\x00\x00\x00'
tRp692
sg42
g43
sg46
g47
sg15
g101
sg22
F231.54462042101659
sg64
g102
sg62
g74
sg49
g50
sS'trials.thisN'
p693
I55
sg19
I0
sg27
g36
(g38
S'\x00\x00\x00\x00\x00\x00\x18@'
tRp694
sg52
g53
sg23
S'2'
sg18
F230.93253582995385
sg33
g34
sg51
g11
sg20
S'2'
sg65
g36
(g77
S'\x00\x00\x00\x00\x00\x00\x00\x00'
tRp695
sg44
g45
sg40
g41
sg25
F0.46122397459112108
sS'trials.thisIndex'
p696
g36
(g80
S'E\x00\x00\x00'
tRp697
sg26
V5
sS'trials.thisRepN'
p698
I0
sg66
Vrocking-chair
p699
sg63
V../experiment_stimuli/bw_bc_bl/Nonliving_Things/Furniture/rocking-chair_22.jpg
p700
sg21
F0.59151680814102292
sS'trials.thisTrialN'
p701
I55
sa(dp702
g31
g32
sg17
F233.75635796855204
sg24
I0
sg35
g39
sg14
F233.73875291715376
sg16
g36
(g70
S'\x01\x00\x00\x00'
tRp703
sg42
g43
sg46
g47
sg15
g72
sg22
F235.46314441412687
sg64
g449
sg62
g89
sg49
g50
sS'trials.thisN'
p704
I56
sg19
I1
sg27
g36
(g38
S'\x00\x00\x00\x00\x00\x00\x18@'
tRp705
sg52
g53
sg23
S'2'
sg18
F234.98135929205455
sg33
g34
sg51
g11
sg20
S'1'
sg65
g36
(g77
S'\x00\x00\x00\x00\x00\x00\x00\x00'
tRp706
sg44
g45
sg40
g41
sg25
F0.080655483528971672
sS'trials.thisIndex'
p707
g36
(g80
S'-\x00\x00\x00'
tRp708
sg26
V5
sS'trials.thisRepN'
p709
I0
sg66
Vladybird
p710
sg63
V../experiment_stimuli/bw_bc_bl/Living_Things/Insects/ladybird_19.jpg
p711
sg21
F0.46123297815211117
sS'trials.thisTrialN'
p712
I56
sa(dp713
g31
g32
sg17
F237.29881821572781
sg24
I0
sg35
g39
sg14
F237.27645948948339
sg16
g36
(g70
S'\x02\x00\x00\x00'
tRp714
sg42
g43
sg46
g47
sg15
g72
sg22
F239.04094157461077
sg64
g73
sg62
g74
sg49
g50
sS'trials.thisN'
p715
I57
sg19
I1
sg27
g36
(g38
S'\x00\x00\x00\x00\x00\x00\x1a@'
tRp716
sg52
g53
sg23
S'2'
sg18
F238.52907773829065
sg33
g34
sg51
g11
sg20
S'2'
sg65
g36
(g77
S'\x00\x00\x00\x00\x00\x00\x00\x00'
tRp717
sg44
g45
sg40
g41
sg25
F0.18060572911053896
sS'trials.thisIndex'
p718
g36
(g80
S'B\x00\x00\x00'
tRp719
sg26
V5
sS'trials.thisRepN'
p720
I0
sg66
Vpot
p721
sg63
V../experiment_stimuli/bw_bc_bl/Nonliving_Things/Kitchen_Uten/pot_14.jpg
p722
sg21
F0.49131071148440242
sS'trials.thisTrialN'
p723
I57
sa(dp724
g31
g32
sg17
F240.98332062852569
sg24
I1
sg35
g39
sg14
F240.96448507532477
sg16
g36
(g70
S'\x01\x00\x00\x00'
tRp725
sg42
g43
sg46
g47
sg15
g72
sg22
F242.53857500618324
sg64
g88
sg62
g89
sg49
g50
sS'trials.thisN'
p726
I58
sg19
I0
sg27
g36
(g38
S'\x00\x00\x00\x00\x00\x00\x18@'
tRp727
sg52
g53
sg23
S'1'
sg18
F242.2070986230392
sg33
g34
sg51
g11
sg20
S'2'
sg65
g36
(g77
S'\x00\x00\x00\x00\x00\x00\x00\x00'
tRp728
sg44
g45
sg40
g41
sg25
F0.23072615708224475
sS'trials.thisIndex'
p729
g36
(g80
S'&\x00\x00\x00'
tRp730
sg26
V5
sS'trials.thisRepN'
p731
I0
sg66
Vhen
p732
sg63
V../experiment_stimuli/bw_bc_bl/Living_Things/Birds/hen_1.jpg
p733
sg21
F0.31092170556075871
sS'trials.thisTrialN'
p734
I58
sa(dp735
g31
g32
sg17
F244.51763627887703
sg24
I0
sg35
g39
sg14
F244.50220833951607
sg16
g36
(g70
S'\x02\x00\x00\x00'
tRp736
sg42
g43
sg46
g47
sg15
g101
sg22
F249.48368629487231
sg64
g449
sg62
g89
sg49
g50
sS'trials.thisN'
p737
I59
sg19
I1
sg27
g36
(g38
S'\x00\x00\x00\x00\x00\x00\x1a@'
tRp738
sg52
g53
sg23
S'2'
sg18
F245.78487502830103
sg33
g34
sg51
g11
sg20
S'2'
sg65
g36
(g77
S'\x00\x00\x00\x00\x00\x00\x00\x00'
tRp739
sg44
g45
sg40
g41
sg25
F0.16056703473441303
sS'trials.thisIndex'
p740
g36
(g80
S'\x18\x00\x00\x00'
tRp741
sg26
V5
sS'trials.thisRepN'
p742
I0
sg66
Vdragonfly
p743
sg63
V../experiment_stimuli/bw_bc_bl/Living_Things/Insects/dragonfly_19.jpg
p744
sg21
F3.6782344540115446
sS'trials.thisTrialN'
p745
I59
sa(dp746
g31
g32
sg17
F251.4008259170223
sg24
I0
sg35
g39
sg14
F251.37715332536027
sg16
g36
(g70
S'\x02\x00\x00\x00'
tRp747
sg42
g43
sg46
g47
sg15
g101
sg22
F253.43231761152856
sg64
g294
sg62
g89
sg49
g50
sS'trials.thisN'
p748
I60
sg19
I1
sg27
g36
(g38
S'\x00\x00\x00\x00\x00\x00\x1e@'
tRp749
sg52
g53
sg23
S'3'
sg18
F252.65984680340625
sg33
g34
sg51
g11
sg20
S'2'
sg65
g36
(g77
S'\x00\x00\x00\x00\x00\x00\x00\x00'
tRp750
sg44
g45
sg40
g41
sg25
F1.1026340923272073
sS'trials.thisIndex'
p751
g36
(g80
S'K\x00\x00\x00'
tRp752
sg26
V5
sS'trials.thisRepN'
p753
I0
sg66
Vshark
p754
sg63
V../experiment_stimuli/bw_bc_bl/Living_Things/Marine_creatures/shark_0.jpg
p755
sg21
F0.75186846172437072
sS'trials.thisTrialN'
p756
I60
sa(dp757
g31
g32
sg17
F256.29326738533564
sg24
I0
sg35
g39
sg14
F256.26780986576341
sg16
g36
(g70
S'\x02\x00\x00\x00'
tRp758
sg42
g43
sg46
g47
sg15
g72
sg22
F257.95214112754911
sg64
g102
sg62
g74
sg49
g50
sS'trials.thisN'
p759
I61
sg19
I1
sg27
g36
(g38
S'\x00\x00\x00\x00\x00\x00\x1a@'
tRp760
sg52
g53
sg23
S'2'
sg18
F257.52044140710495
sg33
g34
sg51
g11
sg20
S'2'
sg65
g36
(g77
S'\x00\x00\x00\x00\x00\x00\x00\x00'
tRp761
sg44
g45
sg40
g41
sg25
F0.13049633917398751
sS'trials.thisIndex'
p762
g36
(g80
S'\x08\x00\x00\x00'
tRp763
sg26
V5
sS'trials.thisRepN'
p764
I0
sg66
Vbookcase
p765
sg63
V../experiment_stimuli/bw_bc_bl/Nonliving_Things/Furniture/bookcase_23.jpg
p766
sg21
F0.41113183228299022
sS'trials.thisTrialN'
p767
I61
sa(dp768
g31
g32
sg17
F259.84738095081411
sg24
I1
sg35
g39
sg14
F259.81555479252711
sg16
g36
(g70
S'\x01\x00\x00\x00'
tRp769
sg42
g43
sg46
g47
sg15
g101
sg22
F261.38959703990258
sg64
g148
sg62
g74
sg49
g50
sS'trials.thisN'
p770
I62
sg19
I0
sg27
g36
(g38
S'\x00\x00\x00\x00\x00\x00\x18@'
tRp771
sg52
g53
sg23
S'1'
sg18
F261.06815650360659
sg33
g34
sg51
g11
sg20
S'2'
sg65
g36
(g77
S'\x00\x00\x00\x00\x00\x00\x00\x00'
tRp772
sg44
g45
sg40
g41
sg25
F0.43116422579623759
sS'trials.thisIndex'
p773
g36
(g80
S'\t\x00\x00\x00'
tRp774
sg26
V5
sS'trials.thisRepN'
p775
I0
sg66
Vbus
p776
sg63
V../experiment_stimuli/bw_bc_bl/Nonliving_Things/Vehicles/bus_22.jpg
p777
sg21
F0.30087917810305953
sS'trials.thisTrialN'
p778
I62
sa(dp779
g31
g32
sg17
F263.57696386426687
sg24
I0
sg35
g39
sg14
F263.5536814793013
sg16
g36
(g70
S'\x01\x00\x00\x00'
tRp780
sg42
g43
sg46
g47
sg15
g101
sg22
F266.35040388302878
sg64
g102
sg62
g74
sg49
g50
sS'trials.thisN'
p781
I63
sg19
I1
sg27
g36
(g38
S'\x00\x00\x00\x00\x00\x00\x1c@'
tRp782
sg52
g53
sg23
S'2'
sg18
F264.82634236593731
sg33
g34
sg51
g11
sg20
S'1'
sg65
g36
(g77
S'\x00\x00\x00\x00\x00\x00\x00\x00'
tRp783
sg44
g45
sg40
g41
sg25
F0.11050954600796103
sS'trials.thisIndex'
p784
g36
(g80
S'\x02\x00\x00\x00'
tRp785
sg26
V5
sS'trials.thisRepN'
p786
I0
sg66
Varmchair
p787
sg63
V../experiment_stimuli/bw_bc_bl/Nonliving_Things/Furniture/armchair_1.jpg
p788
sg21
F1.5034993279259652
sS'trials.thisTrialN'
p789
I63
sa(dp790
g31
g32
sg17
F268.21216829889454
sg24
I0
sg35
g39
sg14
F268.1937690905761
sg16
g36
(g70
S'\x02\x00\x00\x00'
tRp791
sg42
g43
sg46
g47
sg15
g72
sg22
F270.0885753959883
sg64
g148
sg62
g74
sg49
g50
sS'trials.thisN'
p792
I64
sg19
I0
sg27
g36
(g38
S'\x00\x00\x00\x00\x00\x00\x18@'
tRp793
sg52
g53
sg23
S'2'
sg18
F269.45642757345922
sg33
g34
sg51
g11
sg20
S'1'
sg65
g36
(g77
S'\x00\x00\x00\x00\x00\x00\x00\x00'
tRp794
sg44
g45
sg40
g41
sg25
F0.1405181938316673
sS'trials.thisIndex'
p795
g36
(g80
S'V\x00\x00\x00'
tRp796
sg26
V5
sS'trials.thisRepN'
p797
I0
sg66
Vtractor
p798
sg63
V../experiment_stimuli/bw_bc_bl/Nonliving_Things/Vehicles/tractor_13.jpg
p799
sg21
F0.61155914142727852
sS'trials.thisTrialN'
p800
I64
sa(dp801
g31
g32
sg17
F271.99261149717495
sg24
I0
sg35
g39
sg14
F271.96197935612872
sg16
g36
(g70
S'\x02\x00\x00\x00'
tRp802
sg42
g43
sg46
g47
sg15
g72
sg22
F273.7765642227605
sg64
g160
sg62
g74
sg49
g50
sS'trials.thisN'
p803
I65
sg19
I0
sg27
g36
(g38
S'\x00\x00\x00\x00\x00\x00\x18@'
tRp804
sg52
g53
sg23
S'2'
sg18
F273.22462913230993
sg33
g34
sg51
g11
sg20
S'1'
sg65
g36
(g77
S'\x00\x00\x00\x00\x00\x00\x00\x00'
tRp805
sg44
g45
sg40
g41
sg25
F0.09041934460401535
sS'trials.thisIndex'
p806
g36
(g80
S'#\x00\x00\x00'
tRp807
sg26
V5
sS'trials.thisRepN'
p808
I0
sg66
Vgranary
p809
sg63
V../experiment_stimuli/bw_bc_bl/Nonliving_Things/Buildings/granary_24.jpg
p810
sg21
F0.52136588469147682
sS'trials.thisTrialN'
p811
I65
sa(dp812
g31
g32
sg17
F275.61787269311026
sg24
I0
sg35
g39
sg14
F275.59990064566955
sg16
g36
(g70
S'\x02\x00\x00\x00'
tRp813
sg42
g43
sg46
g47
sg15
g101
sg22
F278.8375917149242
sg64
g88
sg62
g89
sg49
g50
sS'trials.thisN'
p814
I66
sg19
I0
sg27
g36
(g38
S'\x00\x00\x00\x00\x00\x00\x18@'
tRp815
sg52
g53
sg23
S'2'
sg18
F276.84250483242795
sg33
g34
sg51
g11
sg20
S'1'
sg65
g36
(g77
S'\x00\x00\x00\x00\x00\x00\x00\x00'
tRp816
sg44
g45
sg40
g41
sg25
F0.090433415723964572
sS'trials.thisIndex'
p817
g36
(g80
S'"\x00\x00\x00'
tRp818
sg26
V5
sS'trials.thisRepN'
p819
I0
sg66
Vgoose
p820
sg63
V../experiment_stimuli/bw_bc_bl/Living_Things/Birds/goose_11.jpg
p821
sg21
F1.9745238064788282
sS'trials.thisTrialN'
p822
I66
sa(dp823
g31
g32
sg17
F280.68115053675137
sg24
I0
sg35
g39
sg14
F280.66092472802848
sg16
g36
(g70
S'\x01\x00\x00\x00'
tRp824
sg42
g43
sg46
g47
sg15
g72
sg22
F282.17486251168884
sg64
g294
sg62
g89
sg49
g50
sS'trials.thisN'
p825
I67
sg19
I0
sg27
g36
(g38
S'\x00\x00\x00\x00\x00\x00\x1a@'
tRp826
sg52
g53
sg23
S'2'
sg18
F281.90354190324433
sg33
g34
sg51
g11
sg20
S'2'
sg65
g36
(g77
S'\x00\x00\x00\x00\x00\x00\x00\x00'
tRp827
sg44
g45
sg40
g41
sg25
F0.41111267078667879
sS'trials.thisIndex'
p828
g36
(g80
S'4\x00\x00\x00'
tRp829
sg26
V5
sS'trials.thisRepN'
p830
I0
sg66
Vmanatee
p831
sg63
V../experiment_stimuli/bw_bc_bl/Living_Things/Marine_creatures/manatee_1.jpg
p832
sg21
F0.25076127285137773
sS'trials.thisTrialN'
p833
I67
sa(dp834
g31
g32
sg17
F284.32375581702217
sg24
I0
sg35
g39
sg14
F284.31888946751133
sg16
g36
(g70
S'\x02\x00\x00\x00'
tRp835
sg42
g43
sg46
g47
sg15
g101
sg22
F286.32388989394531
sg64
g294
sg62
g89
sg49
g50
sS'trials.thisN'
p836
I68
sg19
I1
sg27
g36
(g38
S'\x00\x00\x00\x00\x00\x00\x18@'
tRp837
sg52
g53
sg23
S'2'
sg18
F285.55146729946136
sg33
g34
sg51
g11
sg20
S'2'
sg65
g36
(g77
S'\x00\x00\x00\x00\x00\x00\x00\x00'
tRp838
sg44
g45
sg40
g41
sg25
F0.2407475495710969
sS'trials.thisIndex'
p839
g36
(g80
S'\x17\x00\x00\x00'
tRp840
sg26
V5
sS'trials.thisRepN'
p841
I0
sg66
Vdolphin
p842
sg63
V../experiment_stimuli/bw_bc_bl/Living_Things/Marine_creatures/dolphin_13.jpg
p843
sg21
F0.75185537128709257
sS'trials.thisTrialN'
p844
I68
sa(dp845
g31
g32
sg17
F288.31847599591129
sg24
I0
sg35
g39
sg14
F288.29755418677814
sg16
g36
(g70
S'\x01\x00\x00\x00'
tRp846
sg42
g43
sg46
g47
sg15
g72
sg22
F290.02192997722887
sg64
g88
sg62
g89
sg49
g50
sS'trials.thisN'
p847
I69
sg19
I1
sg27
g36
(g38
S'\x00\x00\x00\x00\x00\x00\x18@'
tRp848
sg52
g53
sg23
S'2'
sg18
F289.54015780962072
sg33
g34
sg51
g11
sg20
S'1'
sg65
g36
(g77
S'\x00\x00\x00\x00\x00\x00\x00\x00'
tRp849
sg44
g45
sg40
g41
sg25
F0.090264403028413653
sS'trials.thisIndex'
p850
g36
(g80
S'J\x00\x00\x00'
tRp851
sg26
V5
sS'trials.thisRepN'
p852
I0
sg66
Vseagull
p853
sg63
V../experiment_stimuli/bw_bc_bl/Living_Things/Birds/seagull_14.jpg
p854
sg21
F0.461232865229249
sS'trials.thisTrialN'
p855
I69
sa(dp856
g31
g32
sg17
F291.85437542595901
sg24
I0
sg35
g39
sg14
F291.84527062159032
sg16
g36
(g70
S'\x01\x00\x00\x00'
tRp857
sg42
g43
sg46
g47
sg15
g72
sg22
F297.5282896135468
sg64
g125
sg62
g89
sg49
g50
sS'trials.thisN'
p858
I70
sg19
I1
sg27
g36
(g38
S'\x00\x00\x00\x00\x00\x00\x1c@'
tRp859
sg52
g53
sg23
S'2'
sg18
F293.08787823328748
sg33
g34
sg51
g11
sg20
S'1'
sg65
g36
(g77
S'\x00\x00\x00\x00\x00\x00\x00\x00'
tRp860
sg44
g45
sg40
g41
sg25
F0.15054158610291779
sS'trials.thisIndex'
p861
g36
(g80
S'D\x00\x00\x00'
tRp862
sg26
V5
sS'trials.thisRepN'
p863
I0
sg66
Vrhino
p864
sg63
V../experiment_stimuli/bw_bc_bl/Living_Things/Animals/rhino_17.jpg
p865
sg21
F4.4198522439692169
sS'trials.thisTrialN'
p866
I70
sa(dp867
g31
g32
sg17
F299.43188198981807
sg24
I1
sg35
g39
sg14
F299.41175232292153
sg16
g36
(g70
S'\x02\x00\x00\x00'
tRp868
sg42
g43
sg46
g47
sg15
g101
sg22
F301.18608532450162
sg64
g88
sg62
g89
sg49
g50
sS'trials.thisN'
p869
I71
sg19
I0
sg27
g36
(g38
S'\x00\x00\x00\x00\x00\x00\x1a@'
tRp870
sg52
g53
sg23
S'1'
sg18
F300.65436456212774
sg33
g34
sg51
g11
sg20
S'1'
sg65
g36
(g77
S'\x00\x00\x00\x00\x00\x00\x00\x00'
tRp871
sg44
g45
sg40
g41
sg25
F0.080391091294586658
sS'trials.thisIndex'
p872
g36
(g80
S'\x1a\x00\x00\x00'
tRp873
sg26
V5
sS'trials.thisRepN'
p874
I0
sg66
Vduck
p875
sg63
V../experiment_stimuli/bw_bc_bl/Living_Things/Birds/duck_1.jpg
p876
sg21
F0.51117584388703108
sS'trials.thisTrialN'
p877
I71
sa(dp878
g31
g32
sg17
F303.02040099026635
sg24
I0
sg35
g39
sg14
F302.99955775169656
sg16
g36
(g70
S'\x02\x00\x00\x00'
tRp879
sg42
g43
sg46
g47
sg15
g101
sg22
F305.02460144041106
sg64
g449
sg62
g89
sg49
g50
sS'trials.thisN'
p880
I72
sg19
I1
sg27
g36
(g38
S'\x00\x00\x00\x00\x00\x00\x18@'
tRp881
sg52
g53
sg23
S'2'
sg18
F304.2622185992077
sg33
g34
sg51
g11
sg20
S'2'
sg65
g36
(g77
S'\x00\x00\x00\x00\x00\x00\x00\x00'
tRp882
sg44
g45
sg40
g41
sg25
F0.42113475082442164
sS'trials.thisIndex'
p883
g36
(g80
S'\n\x00\x00\x00'
tRp884
sg26
V5
sS'trials.thisRepN'
p885
I0
sg66
Vbutterfly
p886
sg63
V../experiment_stimuli/bw_bc_bl/Living_Things/Insects/butterfly_25.jpg
p887
sg21
F0.74184765224345028
sS'trials.thisTrialN'
p888
I72
sa(dp889
g31
g32
sg17
F307.19610693142749
sg24
I0
sg35
g39
sg14
F307.17866088589653
sg16
g36
(g70
S'\x01\x00\x00\x00'
tRp890
sg42
g43
sg46
g47
sg15
g101
sg22
F309.18367756018415
sg64
g148
sg62
g74
sg49
g50
sS'trials.thisN'
p891
I73
sg19
I0
sg27
g36
(g38
S'\x00\x00\x00\x00\x00\x00\x18@'
tRp892
sg52
g53
sg23
S'3'
sg18
F308.44131475966424
sg33
g34
sg51
g11
sg20
S'2'
sg65
g36
(g77
S'\x00\x00\x00\x00\x00\x00\x00\x00'
tRp893
sg44
g45
sg40
g41
sg25
F0.1505459810141474
sS'trials.thisIndex'
p894
g36
(g80
S'L\x00\x00\x00'
tRp895
sg26
V5
sS'trials.thisRepN'
p896
I0
sg66
Vship
p897
sg63
V../experiment_stimuli/bw_bc_bl/Nonliving_Things/Vehicles/ship_8.jpg
p898
sg21
F0.72179538244381547
sS'trials.thisTrialN'
p899
I73
sa(dp900
g31
g32
sg17
F311.08735199621879
sg24
I0
sg35
g39
sg14
F311.0671254878398
sg16
g36
(g70
S'\x01\x00\x00\x00'
tRp901
sg42
g43
sg46
g47
sg15
g72
sg22
F313.12224604515359
sg64
g88
sg62
g89
sg49
g50
sS'trials.thisN'
p902
I74
sg19
I1
sg27
g36
(g38
S'\x00\x00\x00\x00\x00\x00\x1c@'
tRp903
sg52
g53
sg23
S'2'
sg18
F312.31976092024706
sg33
g34
sg51
g11
sg20
S'1'
sg65
g36
(g77
S'\x00\x00\x00\x00\x00\x00\x00\x00'
tRp904
sg44
g45
sg40
g41
sg25
F0.18060934566892684
sS'trials.thisIndex'
p905
g36
(g80
S'*\x00\x00\x00'
tRp906
sg26
V5
sS'trials.thisRepN'
p907
I0
sg66
Vhummingbird
p908
sg63
V../experiment_stimuli/bw_bc_bl/Living_Things/Birds/hummingbird_6.jpg
p909
sg21
F0.78192718769423664
sS'trials.thisTrialN'
p910
I74
sa(dp911
g31
g32
sg17
F315.0601016737055
sg24
I0
sg35
g39
sg14
F315.03576918342151
sg16
g36
(g70
S'\x02\x00\x00\x00'
tRp912
sg42
g43
sg46
g47
sg15
g72
sg22
F316.44953426509164
sg64
g73
sg62
g74
sg49
g50
sS'trials.thisN'
p913
I75
sg19
I0
sg27
g36
(g38
S'\x00\x00\x00\x00\x00\x00\x1a@'
tRp914
sg52
g53
sg23
S'2'
sg18
F316.29843247449026
sg33
g34
sg51
g11
sg20
S'1'
sg65
g36
(g77
S'\x00\x00\x00\x00\x00\x00\x00\x00'
tRp915
sg44
g45
sg40
g41
sg25
F0.070374251576140523
sS'trials.thisIndex'
p916
g36
(g80
S'\x12\x00\x00\x00'
tRp917
sg26
V5
sS'trials.thisRepN'
p918
I0
sg66
Vcoking-pot
p919
sg63
V../experiment_stimuli/bw_bc_bl/Nonliving_Things/Kitchen_Uten/coking-pot_15.jpg
p920
sg21
F0.13054477819241583
sS'trials.thisTrialN'
p921
I75
sa(dp922
g31
g32
sg17
F318.26946910028346
sg24
I0
sg35
g39
sg14
F318.25277411774732
sg16
g36
(g70
S'\x02\x00\x00\x00'
tRp923
sg42
g43
sg46
g47
sg15
g72
sg22
F320.00724799837917
sg64
g148
sg62
g74
sg49
g50
sS'trials.thisN'
p924
I76
sg19
I0
sg27
g36
(g38
S'\x00\x00\x00\x00\x00\x00\x18@'
tRp925
sg52
g53
sg23
S'2'
sg18
F319.49539580452256
sg33
g34
sg51
g11
sg20
S'1'
sg65
g36
(g77
S'\x00\x00\x00\x00\x00\x00\x00\x00'
tRp926
sg44
g45
sg40
g41
sg25
F0.060370351420715451
sS'trials.thisIndex'
p927
g36
(g80
S'\x07\x00\x00\x00'
tRp928
sg26
V5
sS'trials.thisRepN'
p929
I0
sg66
Vboat
p930
sg63
V../experiment_stimuli/bw_bc_bl/Nonliving_Things/Vehicles/boat_6.jpg
p931
sg21
F0.49129705736413598
sS'trials.thisTrialN'
p932
I76
sa(dp933
g31
g32
sg17
F321.83141492353752
sg24
I0
sg35
g39
sg14
F321.80050105624832
sg16
g36
(g70
S'\x02\x00\x00\x00'
tRp934
sg42
g43
sg46
g47
sg15
g72
sg22
F323.39472020720132
sg64
g505
sg62
g74
sg49
g50
sS'trials.thisN'
p935
I77
sg19
I1
sg27
g36
(g38
S'\x00\x00\x00\x00\x00\x00\x18@'
tRp936
sg52
g53
sg23
S'2'
sg18
F323.05313021456823
sg33
g34
sg51
g11
sg20
S'2'
sg65
g36
(g77
S'\x00\x00\x00\x00\x00\x00\x00\x00'
tRp937
sg44
g45
sg40
g41
sg25
F0.28084297198802233
sS'trials.thisIndex'
p938
g36
(g80
S'X\x00\x00\x00'
tRp939
sg26
V5
sS'trials.thisRepN'
p940
I0
sg66
Vtrumpet
p941
sg63
V../experiment_stimuli/bw_bc_bl/Nonliving_Things/Musical_Inst/trumpet_13.jpg
p942
sg21
F0.32104255561716855
sS'trials.thisTrialN'
p943
I77
sa(dp944
g31
g32
sg17
F325.42687885300256
sg24
I0
sg35
g39
sg14
F325.40836398792453
sg16
g36
(g70
S'\x02\x00\x00\x00'
tRp945
sg42
g43
sg46
g47
sg15
g101
sg22
F327.13276959373616
sg64
g88
sg62
g89
sg49
g50
sS'trials.thisN'
p946
I78
sg19
I1
sg27
g36
(g38
S'\x00\x00\x00\x00\x00\x00\x1a@'
tRp947
sg52
g53
sg23
S'2'
sg18
F326.66098633781075
sg33
g34
sg51
g11
sg20
S'2'
sg65
g36
(g77
S'\x00\x00\x00\x00\x00\x00\x00\x00'
tRp948
sg44
g45
sg40
g41
sg25
F0.53137707826681435
sS'trials.thisIndex'
p949
g36
(g80
S'U\x00\x00\x00'
tRp950
sg26
V5
sS'trials.thisRepN'
p951
I0
sg66
Vtoucan
p952
sg63
V../experiment_stimuli/bw_bc_bl/Living_Things/Birds/toucan_20.jpg
p953
sg21
F0.45121826604008675
sS'trials.thisTrialN'
p954
I78
sa(dp955
g31
g32
sg17
F329.42055801255628
sg24
I1
sg35
g39
sg14
F329.3970441299025
sg16
g36
(g70
S'\x02\x00\x00\x00'
tRp956
sg42
g43
sg46
g47
sg15
g101
sg22
F330.87088415632024
sg64
g88
sg62
g89
sg49
g50
sS'trials.thisN'
p957
I79
sg19
I0
sg27
g36
(g38
S'\x00\x00\x00\x00\x00\x00\x18@'
tRp958
sg52
g53
sg23
S'1'
sg18
F330.64967443118803
sg33
g34
sg51
g11
sg20
S'1'
sg65
g36
(g77
S'\x00\x00\x00\x00\x00\x00\x00\x00'
tRp959
sg44
g45
sg40
g41
sg25
F0.15054305968806148
sS'trials.thisIndex'
p960
g36
(g80
S'!\x00\x00\x00'
tRp961
sg26
V5
sS'trials.thisRepN'
p962
I0
sg66
Vgoldfinch
p963
sg63
V../experiment_stimuli/bw_bc_bl/Living_Things/Birds/goldfinch_0.jpg
p964
sg21
F0.20066494238562882
sS'trials.thisTrialN'
p965
I79
sa(dp966
g31
g32
sg17
F332.76696320762858
sg24
I0
sg35
g39
sg14
F332.7543496589642
sg16
g36
(g70
S'\x01\x00\x00\x00'
tRp967
sg42
g43
sg46
g47
sg15
g101
sg22
F334.84957986418158
sg64
g102
sg62
g74
sg49
g50
sS'trials.thisN'
p968
I80
sg19
I0
sg27
g36
(g38
S'\x00\x00\x00\x00\x00\x00\x1a@'
tRp969
sg52
g53
sg23
S'2'
sg18
F333.99696287186816
sg33
g34
sg51
g11
sg20
S'2'
sg65
g36
(g77
S'\x00\x00\x00\x00\x00\x00\x00\x00'
tRp970
sg44
g45
sg40
g41
sg25
F0.17058979184366763
sS'trials.thisIndex'
p971
g36
(g80
S'\x06\x00\x00\x00'
tRp972
sg26
V5
sS'trials.thisRepN'
p973
I0
sg66
Vbedside-table
p974
sg63
V../experiment_stimuli/bw_bc_bl/Nonliving_Things/Furniture/bedside-table_2.jpg
p975
sg21
F0.83204957051202655
sS'trials.thisTrialN'
p976
I80
sa(dp977
g31
g32
sg17
F336.77999358042143
sg24
I0
sg35
g39
sg14
F336.75307232839987
sg16
g36
(g70
S'\x02\x00\x00\x00'
tRp978
sg42
g43
sg46
g47
sg15
g72
sg22
F338.56767663452774
sg64
g505
sg62
g74
sg49
g50
sS'trials.thisN'
p979
I81
sg19
I0
sg27
g36
(g38
S'\x00\x00\x00\x00\x00\x00\x18@'
tRp980
sg52
g53
sg23
S'3'
sg18
F338.01572297653183
sg33
g34
sg51
g11
sg20
S'1'
sg65
g36
(g77
S'\x00\x00\x00\x00\x00\x00\x00\x00'
tRp981
sg44
g45
sg40
g41
sg25
F0.11050476040691137
sS'trials.thisIndex'
p982
g36
(g80
S'\x19\x00\x00\x00'
tRp983
sg26
V5
sS'trials.thisRepN'
p984
I0
sg66
Vdrum
p985
sg63
V../experiment_stimuli/bw_bc_bl/Nonliving_Things/Musical_Inst/drum_6.jpg
p986
sg21
F0.53139695036225021
sS'trials.thisTrialN'
p987
I81
sa(dp988
g31
g32
sg17
F340.42548408545554
sg24
I0
sg35
g39
sg14
F340.4110230342485
sg16
g36
(g70
S'\x02\x00\x00\x00'
tRp989
sg42
g43
sg46
g47
sg15
g101
sg22
F342.28577885567211
sg64
g125
sg62
g89
sg49
g50
sS'trials.thisN'
p990
I82
sg19
I1
sg27
g36
(g38
S'\x00\x00\x00\x00\x00\x00\x18@'
tRp991
sg52
g53
sg23
S'2'
sg18
F341.65363186364993
sg33
g34
sg51
g11
sg20
S'2'
sg65
g36
(g77
S'\x00\x00\x00\x00\x00\x00\x00\x00'
tRp992
sg44
g45
sg40
g41
sg25
F0.12048311205580831
sS'trials.thisIndex'
p993
g36
(g80
S' \x00\x00\x00'
tRp994
sg26
V5
sS'trials.thisRepN'
p995
I0
sg66
Vgiraffe
p996
sg63
V../experiment_stimuli/bw_bc_bl/Living_Things/Animals/giraffe_6.jpg
p997
sg21
F0.61157157784327865
sS'trials.thisTrialN'
p998
I82
sa(dp999
g31
g32
sg17
F344.15867912955582
sg24
I0
sg35
g39
sg14
F344.13916622637771
sg16
g36
(g70
S'\x02\x00\x00\x00'
tRp1000
sg42
g43
sg46
g47
sg15
g72
sg22
F345.74330566520803
sg64
g73
sg62
g74
sg49
g50
sS'trials.thisN'
p1001
I83
sg19
I1
sg27
g36
(g38
S'\x00\x00\x00\x00\x00\x00\x18@'
tRp1002
sg52
g53
sg23
S'2'
sg18
F345.38175655622035
sg33
g34
sg51
g11
sg20
S'2'
sg65
g36
(g77
S'\x00\x00\x00\x00\x00\x00\x00\x00'
tRp1003
sg44
g45
sg40
g41
sg25
F0.17058524652384222
sS'trials.thisIndex'
p1004
g36
(g80
S'\x16\x00\x00\x00'
tRp1005
sg26
V5
sS'trials.thisRepN'
p1006
I0
sg66
Vcup
p1007
sg63
V../experiment_stimuli/bw_bc_bl/Nonliving_Things/Kitchen_Uten/cup_23.jpg
p1008
sg21
F0.34098674706183374
sS'trials.thisTrialN'
p1009
I83
sa(dp1010
g31
g32
sg17
F347.65488696354441
sg24
I0
sg35
g39
sg14
F347.64678565226495
sg16
g36
(g70
S'\x02\x00\x00\x00'
tRp1011
sg42
g43
sg46
g47
sg15
g72
sg22
F349.35114129283465
sg64
g102
sg62
g74
sg49
g50
sS'trials.thisN'
p1012
I84
sg19
I0
sg27
g36
(g38
S'\x00\x00\x00\x00\x00\x00\x18@'
tRp1013
sg52
g53
sg23
S'2'
sg18
F348.88939448562451
sg33
g34
sg51
g11
sg20
S'1'
sg65
g36
(g77
S'\x00\x00\x00\x00\x00\x00\x00\x00'
tRp1014
sg44
g45
sg40
g41
sg25
F0.11045900918543339
sS'trials.thisIndex'
p1015
g36
(g80
S'\x13\x00\x00\x00'
tRp1016
sg26
V5
sS'trials.thisRepN'
p1017
I0
sg66
Vcouch
p1018
sg63
V../experiment_stimuli/bw_bc_bl/Nonliving_Things/Furniture/couch_19.jpg
p1019
sg21
F0.44118611817248166
sS'trials.thisTrialN'
p1020
I84
sa(dp1021
g31
g32
sg17
F351.21676559583284
sg24
I0
sg35
g39
sg14
F351.19450456439517
sg16
g36
(g70
S'\x02\x00\x00\x00'
tRp1022
sg42
g43
sg46
g47
sg15
g72
sg22
F353.66054233186878
sg64
g148
sg62
g74
sg49
g50
sS'trials.thisN'
p1023
I85
sg19
I0
sg27
g36
(g38
S'\x00\x00\x00\x00\x00\x00\x18@'
tRp1024
sg52
g53
sg23
S'2'
sg18
F352.43713061953895
sg33
g34
sg51
g11
sg20
S'1'
sg65
g36
(g77
S'\x00\x00\x00\x00\x00\x00\x00\x00'
tRp1025
sg44
g45
sg40
g41
sg25
F0.080399271799251437
sS'trials.thisIndex'
p1026
g36
(g80
S'[\x00\x00\x00'
tRp1027
sg26
V5
sS'trials.thisRepN'
p1028
I0
sg66
Vvan
p1029
sg63
V../experiment_stimuli/bw_bc_bl/Nonliving_Things/Vehicles/van_12.jpg
p1030
sg21
F1.2028556363657117
sS'trials.thisTrialN'
p1031
I85
sa(dp1032
g31
g32
sg17
F355.49202003190294
sg24
I0
sg35
g39
sg14
F355.47382803191431
sg16
g36
(g70
S'\x01\x00\x00\x00'
tRp1033
sg42
g43
sg46
g47
sg15
g72
sg22
F357.11804503295571
sg64
g88
sg62
g89
sg49
g50
sS'trials.thisN'
p1034
I86
sg19
I0
sg27
g36
(g38
S'\x00\x00\x00\x00\x00\x00\x1e@'
tRp1035
sg52
g53
sg23
S'2'
sg18
F356.71644531656057
sg33
g34
sg51
g11
sg20
S'2'
sg65
g36
(g77
S'\x00\x00\x00\x00\x00\x00\x00\x00'
tRp1036
sg44
g45
sg40
g41
sg25
F0.12047451385296881
sS'trials.thisIndex'
p1037
g36
(g80
S'F\x00\x00\x00'
tRp1038
sg26
V5
sS'trials.thisRepN'
p1039
I0
sg66
Vrooster
p1040
sg63
V../experiment_stimuli/bw_bc_bl/Living_Things/Birds/rooster_23.jpg
p1041
sg21
F0.38105679047293961
sS'trials.thisTrialN'
p1042
I86
sa(dp1043
g31
g32
sg17
F358.97660868987441
sg24
I0
sg35
g39
sg14
F358.97144225658849
sg16
g36
(g70
S'\x01\x00\x00\x00'
tRp1044
sg42
g43
sg46
g47
sg15
g101
sg22
F360.39518622728065
sg64
g73
sg62
g74
sg49
g50
sS'trials.thisN'
p1045
I87
sg19
I0
sg27
g36
(g38
S'\x00\x00\x00\x00\x00\x00\x1c@'
tRp1046
sg52
g53
sg23
S'2'
sg18
F360.20403105486184
sg33
g34
sg51
g11
sg20
S'2'
sg65
g36
(g77
S'\x00\x00\x00\x00\x00\x00\x00\x00'
tRp1047
sg44
g45
sg40
g41
sg25
F0.14053685893304646
sS'trials.thisIndex'
p1048
g36
(g80
S'S\x00\x00\x00'
tRp1049
sg26
V5
sS'trials.thisRepN'
p1050
I0
sg66
Vteapot
p1051
sg63
V../experiment_stimuli/bw_bc_bl/Nonliving_Things/Kitchen_Uten/teapot_12.jpg
p1052
sg21
F0.17059110756963491
sS'trials.thisTrialN'
p1053
I87
sa(dp1054
g31
g32
sg17
F362.28728107316419
sg24
I1
sg35
g39
sg14
F362.26862101815641
sg16
g36
(g70
S'\x02\x00\x00\x00'
tRp1055
sg42
g43
sg46
g47
sg15
g101
sg22
F365.56644801679067
sg64
g88
sg62
g89
sg49
g50
sS'trials.thisN'
p1056
I88
sg19
I0
sg27
g36
(g38
S'\x00\x00\x00\x00\x00\x00\x1c@'
tRp1057
sg52
g53
sg23
S'1'
sg18
F363.51123635889962
sg33
g34
sg51
g11
sg20
S'1'
sg65
g36
(g77
S'\x00\x00\x00\x00\x00\x00\x00\x00'
tRp1058
sg44
g45
sg40
g41
sg25
F0.23071059351786971
sS'trials.thisIndex'
p1059
g36
(g80
S'<\x00\x00\x00'
tRp1060
sg26
V5
sS'trials.thisRepN'
p1061
I0
sg66
Vpelican
p1062
sg63
V../experiment_stimuli/bw_bc_bl/Living_Things/Birds/pelican_19.jpg
p1063
sg21
F2.0346544948406518
sS'trials.thisTrialN'
p1064
I88
sa(dp1065
g31
g32
sg17
F367.55108666536398
sg24
I1
sg35
g39
sg14
F367.53007911657915
sg16
g36
(g70
S'\x02\x00\x00\x00'
tRp1066
sg42
g43
sg46
g47
sg15
g101
sg22
F369.02398297260515
sg64
g294
sg62
g89
sg49
g50
sS'trials.thisN'
p1067
I89
sg19
I0
sg27
g36
(g38
S'\x00\x00\x00\x00\x00\x00\x1a@'
tRp1068
sg52
g53
sg23
S'1'
sg18
F368.78271269588731
sg33
g34
sg51
g11
sg20
S'1'
sg65
g36
(g77
S'\x00\x00\x00\x00\x00\x00\x00\x00'
tRp1069
sg44
g45
sg40
g41
sg25
F1.513520096661523
sS'trials.thisIndex'
p1070
g36
(g80
S'^\x00\x00\x00'
tRp1071
sg26
V5
sS'trials.thisRepN'
p1072
I0
sg66
Vwhale
p1073
sg63
V../experiment_stimuli/bw_bc_bl/Living_Things/Marine_creatures/whale_1.jpg
p1074
sg21
F0.22070992621593177
sS'trials.thisTrialN'
p1075
I89
sa(dp1076
g31
g32
sg17
F372.29125769040547
sg24
I0
sg35
g39
sg14
F372.27040486573242
sg16
g36
(g70
S'\x01\x00\x00\x00'
tRp1077
sg42
g43
sg46
g47
sg15
g101
sg22
F374.20530317653902
sg64
g505
sg62
g74
sg49
g50
sS'trials.thisN'
p1078
I90
sg19
I0
sg27
g36
(g38
S'\x00\x00\x00\x00\x00\x00\x18@'
tRp1079
sg52
g53
sg23
S'2'
sg18
F373.55309563316405
sg33
g34
sg51
g11
sg20
S'2'
sg65
g36
(g77
S'\x00\x00\x00\x00\x00\x00\x00\x00'
tRp1080
sg44
g45
sg40
g41
sg25
F0.11047221557237208
sS'trials.thisIndex'
p1081
g36
(g80
S'\\\x00\x00\x00'
tRp1082
sg26
V5
sS'trials.thisRepN'
p1083
I0
sg66
Vviolin
p1084
sg63
V../experiment_stimuli/bw_bc_bl/Nonliving_Things/Musical_Inst/violin_24.jpg
p1085
sg21
F0.6316479672677815
sS'trials.thisTrialN'
p1086
I90
sa(dp1087
g31
g32
sg17
F376.07186230784282
sg24
I1
sg35
g39
sg14
F376.0586485627573
sg16
g36
(g70
S'\x02\x00\x00\x00'
tRp1088
sg42
g43
sg46
g47
sg15
g72
sg22
F377.38217363972217
sg64
g160
sg62
g74
sg49
g50
sS'trials.thisN'
p1089
I91
sg19
I1
sg27
g36
(g38
S'\x00\x00\x00\x00\x00\x00\x1e@'
tRp1090
sg52
g53
sg23
S'1'
sg18
F377.32130673364736
sg33
g34
sg51
g11
sg20
S'2'
sg65
g36
(g77
S'\x00\x00\x00\x00\x00\x00\x00\x00'
tRp1091
sg44
g45
sg40
g41
sg25
F0.32093103812076151
sS'trials.thisIndex'
p1092
g36
(g80
S'\x0c\x00\x00\x00'
tRp1093
sg26
V5
sS'trials.thisRepN'
p1094
I0
sg66
Vcastle
p1095
sg63
V../experiment_stimuli/bw_bc_bl/Nonliving_Things/Buildings/castle_10.jpg
p1096
sg21
F0.040314593119546771
sS'trials.thisTrialN'
p1097
I91
sa(dp1098
g31
g32
sg17
F379.45310629019514
sg24
I0
sg35
g39
sg14
F379.43602187233046
sg16
g36
(g70
S'\x02\x00\x00\x00'
tRp1099
sg42
g43
sg46
g47
sg15
g72
sg22
F381.97217947337776
sg64
g160
sg62
g74
sg49
g50
sS'trials.thisN'
p1100
I92
sg19
I0
sg27
g36
(g38
S'\x00\x00\x00\x00\x00\x00\x18@'
tRp1101
sg52
g53
sg23
S'2'
sg18
F380.73874450754374
sg33
g34
sg51
g11
sg20
S'1'
sg65
g36
(g77
S'\x00\x00\x00\x00\x00\x00\x00\x00'
tRp1102
sg44
g45
sg40
g41
sg25
F0.080390316899865866
sS'trials.thisIndex'
p1103
g36
(g80
S':\x00\x00\x00'
tRp1104
sg26
V5
sS'trials.thisRepN'
p1105
I0
sg66
Vpalace
p1106
sg63
V../experiment_stimuli/bw_bc_bl/Nonliving_Things/Buildings/palace_25.jpg
p1107
sg21
F1.2128677845466882
sS'trials.thisTrialN'
p1108
I92
sa(dp1109
g31
g32
sg17
F383.80952058755793
sg24
I0
sg35
g39
sg14
F383.7854760454502
sg16
g36
(g70
S'\x02\x00\x00\x00'
tRp1110
sg42
g43
sg46
g47
sg15
g72
sg22
F385.47980758687481
sg64
g73
sg62
g74
sg49
g50
sS'trials.thisN'
p1111
I93
sg19
I1
sg27
g36
(g38
S'\x00\x00\x00\x00\x00\x00\x1a@'
tRp1112
sg52
g53
sg23
S'2'
sg18
F385.07819820521399
sg33
g34
sg51
g11
sg20
S'2'
sg65
g36
(g77
S'\x00\x00\x00\x00\x00\x00\x00\x00'
tRp1113
sg44
g45
sg40
g41
sg25
F0.27080278308130801
sS'trials.thisIndex'
p1114
g36
(g80
S'\x1e\x00\x00\x00'
tRp1115
sg26
V5
sS'trials.thisRepN'
p1116
I0
sg66
Vfondue
p1117
sg63
V../experiment_stimuli/bw_bc_bl/Nonliving_Things/Kitchen_Uten/fondue_26.jpg
p1118
sg21
F0.38104953127913177
sS'trials.thisTrialN'
p1119
I93
sa(dp1120
g31
g32
sg17
F387.49912602477707
sg24
I0
sg35
g39
sg14
F387.48353222641163
sg16
g36
(g70
S'\x01\x00\x00\x00'
tRp1121
sg42
g43
sg46
g47
sg15
g101
sg22
F389.27792073809542
sg64
g102
sg62
g74
sg49
g50
sS'trials.thisN'
p1122
I94
sg19
I1
sg27
g36
(g38
S'\x00\x00\x00\x00\x00\x00\x1c@'
tRp1123
sg52
g53
sg23
S'3'
sg18
F388.76624071178958
sg33
g34
sg51
g11
sg20
S'1'
sg65
g36
(g77
S'\x00\x00\x00\x00\x00\x00\x00\x00'
tRp1124
sg44
g45
sg40
g41
sg25
F0.080447917804121971
sS'trials.thisIndex'
p1125
g36
(g80
S'\x00\x00\x00\x00'
tRp1126
sg26
V5
sS'trials.thisRepN'
p1127
I0
sg66
VChest-of-drawers
p1128
sg63
V../experiment_stimuli/bw_bc_bl/Nonliving_Things/Furniture/Chest-of-drawers_25.jpg
p1129
sg21
F0.49113619094714522
sS'trials.thisTrialN'
p1130
I94
sa(dp1131
g31
g32
sg17
F391.10977422725409
sg24
I0
sg35
g39
sg14
F391.09138683089986
sg16
g36
(g70
S'\x02\x00\x00\x00'
tRp1132
sg42
g43
sg46
g47
sg15
g101
sg22
F393.06632458767854
sg64
g88
sg62
g89
sg49
g50
sS'trials.thisN'
p1133
I95
sg19
I1
sg27
g36
(g38
S'\x00\x00\x00\x00\x00\x00\x18@'
tRp1134
sg52
g53
sg23
S'2'
sg18
F392.34401290654205
sg33
g34
sg51
g11
sg20
S'2'
sg65
g36
(g77
S'\x00\x00\x00\x00\x00\x00\x00\x00'
tRp1135
sg44
g45
sg40
g41
sg25
F0.16041230317205191
sS'trials.thisIndex'
p1136
g36
(g80
S'=\x00\x00\x00'
tRp1137
sg26
V5
sS'trials.thisRepN'
p1138
I0
sg66
Vpenguin
p1139
sg63
V../experiment_stimuli/bw_bc_bl/Living_Things/Birds/penguin_17.jpg
p1140
sg21
F0.70175804896280169
sS'trials.thisTrialN'
p1141
I95
sasS'loops'
p1142
(lp1143
g1
(cpsychopy.data
TrialHandler
p1144
g3
NtRp1145
(dp1146
S'origin'
p1147
NsS'thisTrial'
p1148
(lp1149
sS'_exp'
p1150
I97313040
sg10
S'trials'
p1151
sg6
I-1
sS'thisRepN'
p1152
I1
sg28
I01
sg29
g30
sS'data'
p1153
g1
(cpsychopy.data
DataHandler
p1154
c__builtin__
dict
p1155
(dp1156
g20
cnumpy.core.multiarray
_reconstruct
p1157
(cnumpy
ndarray
p1158
(I0
tS'b'
tRp1159
(I1
(I96
I1
tg37
(S'O4'
I0
I1
tRp1160
(I3
S'|'
NNNI-1
I-1
I63
tbI00
(lp1161
S'1'
aS'2'
aS'1'
aS'1'
aS'2'
aS'2'
aS'2'
aS'1'
aS'2'
aS'2'
aS'2'
aS'1'
aS'2'
aS'1'
aS'2'
aS'2'
aS'1'
aS'2'
aS'1'
aS'1'
aS'2'
aS'1'
aS'2'
aS'2'
aS'2'
aS'1'
aS'1'
aS'2'
aS'1'
aS'2'
aS'2'
aS'2'
aS'2'
aS'1'
aS'1'
aS'1'
aS'1'
aS'2'
aS'2'
aS'1'
aS'1'
aS'1'
aS'1'
aS'2'
aS'2'
aS'1'
aS'2'
aS'2'
aS'1'
aS'1'
aS'2'
aS'1'
aS'2'
aS'2'
aS'2'
aS'1'
aS'2'
aS'2'
aS'1'
aS'1'
aS'1'
aS'2'
aS'1'
aS'2'
aS'1'
aS'2'
aS'2'
aS'2'
aS'1'
aS'2'
aS'2'
aS'1'
aS'2'
aS'2'
aS'1'
aS'2'
aS'2'
aS'1'
aS'1'
aS'1'
aS'2'
aS'2'
aS'1'
aS'2'
aS'2'
aS'2'
aS'1'
aS'1'
aS'2'
aS'2'
aS'2'
aS'1'
aS'2'
aS'2'
aS'1'
aS'1'
atbsg17
cnumpy.ma.core
_mareconstruct
p1162
(cnumpy.ma.core
MaskedArray
p1163
g1158
(I0
tp1164
S'b'
tRp1165
(I1
(I96
I1
tg37
(S'f4'
I0
I1
tRp1166
(I3
S'<'
NNNI-1
I-1
I0
tbI00
S'\xe3\xbf\xc1C\x00\xbc\xe5B\xda\xc9\x83C|\xfa\x8aB\xc7\xea?C\x92\x1f\x1dC,b\xa6C~"\x9fC\x8a%\x80Cw\xec\x81C\x9c\x82\x97C\xf6j\x10C3\t\xbcCr\xe5dB(J\xfdB>{\x02C\xb9=ZC\xe4\xa9\x15B\xb1\x87\x9dC\xd3\xd3\xadC\xaee\x14C\x7f \xc7BP\x14\xacCq)\x8eC\x84\x84tC\xd7c\xa8CH\xb7\x95CT\xcc-B\'BbCO$\x06C\x9e\xe7\xbfC\x87KwBv6\xaaC\xd5\xb5\xa4C\x16\xcf\x89C\x0e\xff\x87C\r\x1d<C\xdaL\x19C\xbb\xfbpC\xd1\xa6\xa0B\xc8q%C\xfa\x17\xeeB.\x8b\x9bC\x18\x958C\x8e\x06RC\xa1\xc1iC}\xbeCC_\xdd\x96AH|\xf5B&\x9e\tC<j\xefA\xf3\x191C0W\x8cC\xca\xf8\x91BX\xf1\xdeB\xa13\xb1BO\xd9\xa8Ba\xdeJC\xff\xb9\xbdC\x15}EA\xc6$\xb5C\r\x8e\xc3C\\\xdf CE\xe3\xb4A\xb1\xae\x06B#pVC\x7fLmC\x87\xea\xd5B\\\xed\x91C!\xb5eC\xfb\xbe\xb1C{\xaaq@\x10\x0bGC?\xe2\x0cC\xc4(\x90C\x9df{C\x1a\x99\x99C\xc6w-C\xeb|\xbfBi\x9a\x83B\xd4T\xb8B\xd6\xb8=B\xdb\x0c\xd3A\x02}\xb3C\x8e\xb3\x99B\xa4\xb6\xa2C(\x1b\x86C\x0e\xc7]Cl\xea\xa0Cw\xf0)C_\xe5KB\xbf\x9b\xafCH%\xbaCi\x84\xceB\x8a\xc6\xb7CC\x065C'
S'\x00\x00\x00\x00\x00\x00\x00\x00\x00\x00\x00\x00\x00\x00\x00\x00\x00\x00\x00\x00\x00\x00\x00\x00\x00\x00\x00\x00\x00\x00\x00\x00\x00\x00\x00\x00\x00\x00\x00\x00\x00\x00\x00\x00\x00\x00\x00\x00\x00\x00\x00\x00\x00\x00\x00\x00\x00\x00\x00\x00\x00\x00\x00\x00\x00\x00\x00\x00\x00\x00\x00\x00\x00\x00\x00\x00\x00\x00\x00\x00\x00\x00\x00\x00\x00\x00\x00\x00\x00\x00\x00\x00\x00\x00\x00\x00'
NtbsS'ran'
p1167
g1162
(g1163
g1158
g1164
S'b'
tRp1168
(I1
(I96
I1
tg1166
I00
S'\x00\x00\x80?\x00\x00\x80?\x00\x00\x80?\x00\x00\x80?\x00\x00\x80?\x00\x00\x80?\x00\x00\x80?\x00\x00\x80?\x00\x00\x80?\x00\x00\x80?\x00\x00\x80?\x00\x00\x80?\x00\x00\x80?\x00\x00\x80?\x00\x00\x80?\x00\x00\x80?\x00\x00\x80?\x00\x00\x80?\x00\x00\x80?\x00\x00\x80?\x00\x00\x80?\x00\x00\x80?\x00\x00\x80?\x00\x00\x80?\x00\x00\x80?\x00\x00\x80?\x00\x00\x80?\x00\x00\x80?\x00\x00\x80?\x00\x00\x80?\x00\x00\x80?\x00\x00\x80?\x00\x00\x80?\x00\x00\x80?\x00\x00\x80?\x00\x00\x80?\x00\x00\x80?\x00\x00\x80?\x00\x00\x80?\x00\x00\x80?\x00\x00\x80?\x00\x00\x80?\x00\x00\x80?\x00\x00\x80?\x00\x00\x80?\x00\x00\x80?\x00\x00\x80?\x00\x00\x80?\x00\x00\x80?\x00\x00\x80?\x00\x00\x80?\x00\x00\x80?\x00\x00\x80?\x00\x00\x80?\x00\x00\x80?\x00\x00\x80?\x00\x00\x80?\x00\x00\x80?\x00\x00\x80?\x00\x00\x80?\x00\x00\x80?\x00\x00\x80?\x00\x00\x80?\x00\x00\x80?\x00\x00\x80?\x00\x00\x80?\x00\x00\x80?\x00\x00\x80?\x00\x00\x80?\x00\x00\x80?\x00\x00\x80?\x00\x00\x80?\x00\x00\x80?\x00\x00\x80?\x00\x00\x80?\x00\x00\x80?\x00\x00\x80?\x00\x00\x80?\x00\x00\x80?\x00\x00\x80?\x00\x00\x80?\x00\x00\x80?\x00\x00\x80?\x00\x00\x80?\x00\x00\x80?\x00\x00\x80?\x00\x00\x80?\x00\x00\x80?\x00\x00\x80?\x00\x00\x80?\x00\x00\x80?\x00\x00\x80?\x00\x00\x80?\x00\x00\x80?\x00\x00\x80?\x00\x00\x80?'
S'\x00\x00\x00\x00\x00\x00\x00\x00\x00\x00\x00\x00\x00\x00\x00\x00\x00\x00\x00\x00\x00\x00\x00\x00\x00\x00\x00\x00\x00\x00\x00\x00\x00\x00\x00\x00\x00\x00\x00\x00\x00\x00\x00\x00\x00\x00\x00\x00\x00\x00\x00\x00\x00\x00\x00\x00\x00\x00\x00\x00\x00\x00\x00\x00\x00\x00\x00\x00\x00\x00\x00\x00\x00\x00\x00\x00\x00\x00\x00\x00\x00\x00\x00\x00\x00\x00\x00\x00\x00\x00\x00\x00\x00\x00\x00\x00'
Ntbsg24
g1162
(g1163
g1158
g1164
S'b'
tRp1169
(I1
(I96
I1
tg1166
I00
S'\x00\x00\x00\x00\x00\x00\x00\x00\x00\x00\x00\x00\x00\x00\x00\x00\x00\x00\x00\x00\x00\x00\x80?\x00\x00\x00\x00\x00\x00\x00\x00\x00\x00\x00\x00\x00\x00\x80?\x00\x00\x00\x00\x00\x00\x00\x00\x00\x00\x80?\x00\x00\x00\x00\x00\x00\x00\x00\x00\x00\x00\x00\x00\x00\x00\x00\x00\x00\x00\x00\x00\x00\x00\x00\x00\x00\x00\x00\x00\x00\x00\x00\x00\x00\x00\x00\x00\x00\x00\x00\x00\x00\x00\x00\x00\x00\x00\x00\x00\x00\x00\x00\x00\x00\x80?\x00\x00\x80?\x00\x00\x00\x00\x00\x00\x00\x00\x00\x00\x00\x00\x00\x00\x00\x00\x00\x00\x00\x00\x00\x00\x80?\x00\x00\x00\x00\x00\x00\x00\x00\x00\x00\x00\x00\x00\x00\x00\x00\x00\x00\x80?\x00\x00\x00\x00\x00\x00\x00\x00\x00\x00\x00\x00\x00\x00\x00\x00\x00\x00\x80?\x00\x00\x00\x00\x00\x00\x00\x00\x00\x00\x00\x00\x00\x00\x00\x00\x00\x00\x00\x00\x00\x00\x00\x00\x00\x00\x80?\x00\x00\x00\x00\x00\x00\x00\x00\x00\x00\x00\x00\x00\x00\x80?\x00\x00\x00\x00\x00\x00\x00\x00\x00\x00\x00\x00\x00\x00\x00\x00\x00\x00\x00\x00\x00\x00\x80?\x00\x00\x00\x00\x00\x00\x00\x00\x00\x00\x00\x00\x00\x00\x00\x00\x00\x00\x00\x00\x00\x00\x00\x00\x00\x00\x00\x00\x00\x00\x00\x00\x00\x00\x00\x00\x00\x00\x00\x00\x00\x00\x00\x00\x00\x00\x00\x00\x00\x00\x80?\x00\x00\x00\x00\x00\x00\x00\x00\x00\x00\x00\x00\x00\x00\x80?\x00\x00\x00\x00\x00\x00\x00\x00\x00\x00\x80?\x00\x00\x80?\x00\x00\x00\x00\x00\x00\x00\x00\x00\x00\x80?\x00\x00\x00\x00\x00\x00\x00\x00\x00\x00\x00\x00\x00\x00\x00\x00\x00\x00\x00\x00\x00\x00\x00\x00\x00\x00\x00\x00\x00\x00\x00\x00\x00\x00\x00\x00\x00\x00\x80?\x00\x00\x00\x00'
S'\x00\x00\x00\x00\x00\x00\x00\x00\x00\x00\x00\x00\x00\x00\x00\x00\x00\x00\x00\x00\x00\x00\x00\x00\x00\x00\x00\x00\x00\x00\x00\x00\x00\x00\x00\x00\x00\x00\x00\x00\x00\x00\x00\x00\x00\x00\x00\x00\x00\x00\x00\x00\x00\x00\x00\x00\x00\x00\x00\x00\x00\x00\x00\x00\x00\x00\x00\x00\x00\x00\x00\x00\x00\x00\x00\x00\x00\x00\x00\x00\x00\x00\x00\x00\x00\x00\x00\x00\x00\x00\x00\x00\x00\x00\x00\x00'
Ntbsg14
g1162
(g1163
g1158
g1164
S'b'
tRp1170
(I1
(I96
I1
tg1166
I00
S'\xe4\xbd\xc1C \xb3\xe5B\xdf\xc6\x83C\r\xec\x8aB\\\xe8?C\x14\x1a\x1dC\x8f`\xa6C[ \x9fCH"\x80Cd\xe8\x81C\xf2\x7f\x97C\xeed\x10C\x82\x07\xbcC\x82\xdbdBB@\xfdB\xbfv\x02C\x979ZC\xde\x9a\x15B\x94\x84\x9dC\xca\xd2\xadC\x04b\x14C\xf5\x1c\xc7B\xd0\x11\xacC\xd1(\x8eC\x91\x80tCe`\xa8C\xb4\xb4\x95C\x11\xc7-B\x0f>bC1\x1f\x06C\x8a\xe4\xbfCg-wB\x9c4\xaaC\xd2\xb2\xa4C\xca\xcc\x89C"\xfb\x87C\xdf\x16<C\x98H\x19C\xe8\xf6pC\xf9\x9b\xa0B\x15n%C\xd5\x0e\xeeB\x98\x88\x9bC\xcb\x8f8C\xcf\x01RC\x1f\xbdiC\xd9\xb9CC\xfa\xb9\x96A;t\xf5Br\x99\tC<=\xefAl\x181C\x99T\x8cC\xd4\xea\x91B\x8e\xe2\xdeBT*\xb1B\xa0\xce\xa8B\xfb\xd9JC\xd0\xb7\xbdC\xd89EAb"\xb5C\xb3\x8b\xc3C\x0b\xd7 C6\xb6\xb4A8\x88\x06B\xabjVC\xc6FmC\xa5\xe2\xd5B2\xec\x91C\x9f\xb0eC\xa6\xbc\xb1C|:o@\xed\x05GC\xd4\xdd\x0cC\x16&\x90C\x8d`{C\xde\x96\x99C\x8dr-C\xdat\xbfB\xeb\x90\x83B\'R\xb8B\xf5\xa6=B\x84\xdb\xd2AX|\xb3C\x98\xac\x99BE\xb4\xa2C\xcd\x18\x86C\xcf\xc5]Cw\xe6\xa0C\xe8\xe8)C\xcf\xd7KB\xe6\x98\xafC\x9d"\xbaC;}\xceB\xda\xc3\xb7Cp\xfe4C'
S'\x00\x00\x00\x00\x00\x00\x00\x00\x00\x00\x00\x00\x00\x00\x00\x00\x00\x00\x00\x00\x00\x00\x00\x00\x00\x00\x00\x00\x00\x00\x00\x00\x00\x00\x00\x00\x00\x00\x00\x00\x00\x00\x00\x00\x00\x00\x00\x00\x00\x00\x00\x00\x00\x00\x00\x00\x00\x00\x00\x00\x00\x00\x00\x00\x00\x00\x00\x00\x00\x00\x00\x00\x00\x00\x00\x00\x00\x00\x00\x00\x00\x00\x00\x00\x00\x00\x00\x00\x00\x00\x00\x00\x00\x00\x00\x00'
Ntbsg16
g1157
(g1158
(I0
tS'b'
tRp1171
(I1
(I96
I1
tg1160
I00
(lp1172
g1121
ag371
ag780
ag237
ag593
ag493
ag967
ag923
ag758
ag769
ag879
ag460
ag1088
ag204
ag404
ag415
ag659
ag159
ag912
ag1011
ag471
ag327
ag1000
ag835
ag736
ag978
ag868
ag171
ag681
ag426
ag1110
ag215
ag989
ag956
ag813
ag802
ag582
ag482
ag725
ag271
ag516
ag382
ag901
ag571
ag637
ag703
ag604
ag100
ag393
ag437
ag136
ag549
ag824
ag249
ag360
ag293
ag282
ag626
ag1099
ag87
ag1055
ag1132
ag504
ag113
ag147
ag648
ag714
ag349
ag857
ag692
ag1033
ag71
ag615
ag448
ag846
ag747
ag890
ag538
ag316
ag226
ag305
ag182
ag124
ag1044
ag260
ag945
ag791
ag670
ag934
ag527
ag193
ag1022
ag1077
ag338
ag1066
ag560
atbsg15
g1157
(g1158
(I0
tS'b'
tRp1173
(I1
(I96
I1
tg1160
I00
(lp1174
g101
ag72
ag101
ag72
ag72
ag101
ag101
ag72
ag72
ag101
ag101
ag101
ag72
ag72
ag72
ag72
ag72
ag101
ag72
ag72
ag72
ag101
ag72
ag101
ag101
ag72
ag101
ag72
ag72
ag101
ag72
ag101
ag101
ag101
ag101
ag72
ag72
ag72
ag72
ag72
ag101
ag72
ag72
ag101
ag101
ag72
ag72
ag101
ag72
ag101
ag101
ag101
ag72
ag101
ag72
ag72
ag101
ag101
ag72
ag72
ag101
ag101
ag72
ag101
ag72
ag101
ag72
ag101
ag72
ag101
ag72
ag72
ag101
ag101
ag72
ag101
ag101
ag101
ag101
ag101
ag101
ag101
ag72
ag101
ag101
ag101
ag72
ag72
ag72
ag72
ag101
ag72
ag101
ag101
ag101
ag72
atbsg22
g1162
(g1163
g1158
g1164
S'b'
tRp1175
(I1
(I96
I1
tg1166
I00
S"\x93\xa3\xc2C\xdbm\xe9B\xda,\x85C\xe45\x8eB@\xc8ACR\xf2\x1eC\xbfl\xa7C\xee\x00\xa0C\xe0\xf9\x80C\xde\xb1\x82C&\x83\x98C\xee[\x12C\xeb\xb0\xbcC\x89QmB\x97\x94\x00C%\x07\x04C\xe8\xed[C\xa7\xf2\x1eB\x8a9\x9eC\xf2\xac\xaeC\x81B\x17C\x08\xbe\xcaB%\xdf\xacCu)\x8fC\xd3{yC\xaaH\xa9C\xd2\x97\x96C\rQ5B\xd9\xddcC\xc2\xa2\x07Cj\xbd\xc0C\xe5\x8e\x7fB\x94$\xabCyo\xa5C6k\x8bCf\xe3\x88C\x03\xd8=CA\x1e\x1bC\xe0\x89rC\xd0\x1e\xa5B\xe6\xbe'C\x83\xa0\xf1B\xa6\x8f\x9cCG7:C_\x83TC\x91vkC\x06.ECC>\xa5A\x0f\x81\xf9Bs\x08\x0bC\\F\xfdA\xd6\x1e3Cb\x16\x8dC\xfdg\x95BY\xb6\xe1B\xa6\xb1\xb4B1\xd1\xacB\xadbLCp\xfc\xbeC`\xdb\x86A\x81\xc8\xb6C}\x88\xc4CY<#C\x0fx\xc3Aw\xd4\rB\x1f_XC{\noCi\xff\xdaB\x9f\xc3\x94Cl\x8bgC\x1c\x8f\xb2C\x06\xf0\x15A\x15\xf0HCq\x8a\x0eC\xcf\x02\x91C\xacn}C\x83\x97\x9aC\x00,/C,m\xc3B\xa8\xfe\x86B\xa7\xb5\xbbB\xa8:DB\x03~\xe0A\x952\xb4C\x00\xbe\x9cB\xff\x90\xa3CV\x0b\x87C\xe3Q`C\x86\xb2\xa1CB\x8b+C\xdcR]B\x8d\xd4\xb0CG\x1a\xbbC\x83\xff\xd1B\x12\x83\xb8CF\xc76C"
S'\x00\x00\x00\x00\x00\x00\x00\x00\x00\x00\x00\x00\x00\x00\x00\x00\x00\x00\x00\x00\x00\x00\x00\x00\x00\x00\x00\x00\x00\x00\x00\x00\x00\x00\x00\x00\x00\x00\x00\x00\x00\x00\x00\x00\x00\x00\x00\x00\x00\x00\x00\x00\x00\x00\x00\x00\x00\x00\x00\x00\x00\x00\x00\x00\x00\x00\x00\x00\x00\x00\x00\x00\x00\x00\x00\x00\x00\x00\x00\x00\x00\x00\x00\x00\x00\x00\x00\x00\x00\x00\x00\x00\x00\x00\x00\x00'
Ntbsg26
g1157
(g1158
(I0
tS'b'
tRp1176
(I1
(I96
I1
tg1160
I00
(lp1177
g36
(g80
S'\x04\x00\x00\x00'
tRp1178
ag36
(g80
S'\x03\x00\x00\x00'
tRp1179
ag36
(g80
S'\x04\x00\x00\x00'
tRp1180
aI1
ag36
(g80
S'\x02\x00\x00\x00'
tRp1181
aI1
ag36
(g80
S'\x02\x00\x00\x00'
tRp1182
aI1
ag36
(g80
S'\x01\x00\x00\x00'
tRp1183
aI1
ag36
(g80
S'\x03\x00\x00\x00'
tRp1184
ag36
(g80
S'\x04\x00\x00\x00'
tRp1185
ag36
(g80
S'\x04\x00\x00\x00'
tRp1186
ag36
(g80
S'\x04\x00\x00\x00'
tRp1187
aI1
aI1
aI1
ag36
(g80
S'\x01\x00\x00\x00'
tRp1188
aI1
aI1
ag36
(g80
S'\x02\x00\x00\x00'
tRp1189
ag36
(g80
S'\x01\x00\x00\x00'
tRp1190
aI1
aI1
ag36
(g80
S'\x04\x00\x00\x00'
tRp1191
ag36
(g80
S'\x01\x00\x00\x00'
tRp1192
aI1
aI1
aI1
aI1
ag36
(g80
S'\x05\x00\x00\x00'
tRp1193
ag36
(g80
S'\x01\x00\x00\x00'
tRp1194
aI1
aI1
ag36
(g80
S'\x01\x00\x00\x00'
tRp1195
ag36
(g80
S'\x02\x00\x00\x00'
tRp1196
ag36
(g80
S'\x03\x00\x00\x00'
tRp1197
ag36
(g80
S'\x01\x00\x00\x00'
tRp1198
aI1
ag36
(g80
S'\x04\x00\x00\x00'
tRp1199
ag36
(g80
S'\x01\x00\x00\x00'
tRp1200
ag36
(g80
S'\x02\x00\x00\x00'
tRp1201
aI1
ag36
(g80
S'\x01\x00\x00\x00'
tRp1202
aI1
aI1
ag36
(g80
S'\x01\x00\x00\x00'
tRp1203
ag36
(g80
S'\x01\x00\x00\x00'
tRp1204
ag36
(g80
S'\x01\x00\x00\x00'
tRp1205
aI1
aI1
ag36
(g80
S'\x03\x00\x00\x00'
tRp1206
aI1
aI1
aI1
ag36
(g80
S'\x02\x00\x00\x00'
tRp1207
ag36
(g80
S'\x03\x00\x00\x00'
tRp1208
aI1
ag36
(g80
S'\x06\x00\x00\x00'
tRp1209
ag36
(g80
S'\x02\x00\x00\x00'
tRp1210
aI1
ag36
(g80
S'\x01\x00\x00\x00'
tRp1211
ag36
(g80
S'\x04\x00\x00\x00'
tRp1212
aI1
ag36
(g80
S'\x02\x00\x00\x00'
tRp1213
aI1
aI1
aI1
aI1
aI1
aI1
aS'5.0'
p1214
aI1
aI1
aI1
ag36
(g80
S'\x03\x00\x00\x00'
tRp1215
ag36
(g80
S'\x02\x00\x00\x00'
tRp1216
aI1
ag36
(g80
S'\x02\x00\x00\x00'
tRp1217
aI1
ag36
(g80
S'\x01\x00\x00\x00'
tRp1218
ag36
(g80
S'\x02\x00\x00\x00'
tRp1219
aI1
aI1
aI1
aI1
ag36
(g80
S'\x03\x00\x00\x00'
tRp1220
aI1
aI1
aI1
ag36
(g80
S'\x05\x00\x00\x00'
tRp1221
aI1
ag36
(g80
S'\x05\x00\x00\x00'
tRp1222
aI1
ag36
(g80
S'\x02\x00\x00\x00'
tRp1223
ag36
(g80
S'\x02\x00\x00\x00'
tRp1224
atbsg21
g1162
(g1163
g1158
g1164
S'b'
tRp1225
(I1
(I96
I1
tg1166
I00
S'4v\xfb>\xeaK\x12?\xaar\xc0?\xdf\xf7\xbd>\xc2\x84\x1c?\x89M\x12?3\x01U?J\x8b\xfb>\xdf\x7f\xd2>\xd6\x0c\x9a>\xba\xe9=?\nc)?\xea %=1\x00U?\xe7\x151?\xcc\r\x9a>s\xc1\xdc>\x88I\x89?\x88\xad\x05>&\xe3\xe1>\xc7F\xcd?\x1a\xbb\x0f?\xd1\x95\xae>\x98y@?1hk@\xa1\t\x08?l\xdc\x02?\x1c\xb0!?\xe3\xd6\xb8>\xbcd\x80>\xed\x18\xc3>\x9foR?\xf4\x8f\x1c?\x1c{M>2\xbd\xfc?<x\x05?g%\xec>\xc3K\x12?!1\x9f>\x99Zv?>\xb9\x86?-\xe8\x02?a,H?\xca=\xc8>\xb0\x18\x9f?\xbb&\xec>"8C>\x0c*\r?\xe4\x0bC?\xdf\x87.>\xa9\x89\xfb>c\xe9=?\xc8c\x80>VH\xf1>\x87\xe5\x0f>-u\xfb>\xe0\xc78?\x0f\xa8\x8a>@?\x9b?\xdewP@\xc77\x02@j\xa63?P\xd5\x8b?,\xdd\x14?s\xfe\x07?\n\x151?\x14\x8d\xfb>S\x82\xa5?no\x8d@\xa5m\x17?\xe0\x19\xc3>@\x96\x89@\xfd6$?\xf9}\xd2>\xb7&\xec>tz@?\x95\xc78?\x13(\xec>\xdf86?\xf0\x03\xe7>\xfd\xe3\xe1>\xde\xfd\xbd>\x82\xc3\xdc>o\xaf.>\x90\xaa\x8a>\x15\x06\xe7>$\x8f\x1c?\xbd\xa2\xa5?\xb1_\xa4>\x1f\xd6\xb8>Y\xecD@,\xf7\x99?\xae\xb3!?\xae\x8b\xfb>\xc8\x01b>\xf3U\x00?'
S'\x00\x00\x00\x00\x00\x00\x00\x00\x00\x00\x00\x00\x00\x00\x00\x00\x00\x00\x00\x00\x00\x00\x00\x00\x00\x00\x00\x00\x00\x00\x00\x00\x00\x00\x00\x00\x00\x00\x00\x00\x00\x00\x00\x00\x00\x00\x00\x00\x00\x00\x00\x00\x00\x00\x00\x00\x00\x00\x00\x00\x00\x00\x00\x00\x00\x00\x00\x00\x00\x00\x00\x00\x00\x00\x00\x00\x00\x00\x00\x00\x00\x00\x00\x00\x00\x00\x00\x00\x00\x00\x00\x00\x00\x00\x00\x00'
NtbsS'order'
p1226
g1162
(g1163
g1158
g1164
S'b'
tRp1227
(I1
(I96
I1
tg1166
I00
S'\x00\x00\xbcB\x00\x00\xd0A\x00\x00|B\x00\x00`A\x00\x008B\x00\x00\x14B\x00\x00\xa0B\x00\x00\x98B\x00\x00tB\x00\x00xB\x00\x00\x90B\x00\x00\x08B\x00\x00\xb6B\x00\x000A\x00\x00\xe8A\x00\x00\xf0A\x00\x00PB\x00\x00\xe0@\x00\x00\x96B\x00\x00\xa8B\x00\x00\x0cB\x00\x00\xb0A\x00\x00\xa6B\x00\x00\x88B\x00\x00lB\x00\x00\xa2B\x00\x00\x8eB\x00\x00\x00A\x00\x00XB\x00\x00\xf8A\x00\x00\xbaB\x00\x00@A\x00\x00\xa4B\x00\x00\x9eB\x00\x00\x84B\x00\x00\x82B\x00\x004B\x00\x00\x10B\x00\x00hB\x00\x00\x88A\x00\x00\x1cB\x00\x00\xd8A\x00\x00\x94B\x00\x000B\x00\x00HB\x00\x00`B\x00\x00<B\x00\x00\x00@\x00\x00\xe0A\x00\x00\x00B\x00\x00\xa0@\x00\x00(B\x00\x00\x86B\x00\x00pA\x00\x00\xc8A\x00\x00\x98A\x00\x00\x90A\x00\x00DB\x00\x00\xb8B\x00\x00\x80?\x00\x00\xb0B\x00\x00\xbeB\x00\x00\x18B\x00\x00@@\x00\x00\xc0@\x00\x00LB\x00\x00dB\x00\x00\xc0A\x00\x00\x8cB\x00\x00\\B\x00\x00\xacB\x00\x00\x00\x00\x00\x00@B\x00\x00\x04B\x00\x00\x8aB\x00\x00pB\x00\x00\x92B\x00\x00$B\x00\x00\xa8A\x00\x00PA\x00\x00\xa0A\x00\x00\x10A\x00\x00\x80@\x00\x00\xaeB\x00\x00\x80A\x00\x00\x9cB\x00\x00\x80B\x00\x00TB\x00\x00\x9aB\x00\x00 B\x00\x00 A\x00\x00\xaaB\x00\x00\xb4B\x00\x00\xb8A\x00\x00\xb2B\x00\x00,B'
S'\x00\x00\x00\x00\x00\x00\x00\x00\x00\x00\x00\x00\x00\x00\x00\x00\x00\x00\x00\x00\x00\x00\x00\x00\x00\x00\x00\x00\x00\x00\x00\x00\x00\x00\x00\x00\x00\x00\x00\x00\x00\x00\x00\x00\x00\x00\x00\x00\x00\x00\x00\x00\x00\x00\x00\x00\x00\x00\x00\x00\x00\x00\x00\x00\x00\x00\x00\x00\x00\x00\x00\x00\x00\x00\x00\x00\x00\x00\x00\x00\x00\x00\x00\x00\x00\x00\x00\x00\x00\x00\x00\x00\x00\x00\x00\x00'
Ntbsg19
g1162
(g1163
g1158
g1164
S'b'
tRp1228
(I1
(I96
I1
tg1166
I00
S'\x00\x00\x80?\x00\x00\x00\x00\x00\x00\x80?\x00\x00\x00\x00\x00\x00\x00\x00\x00\x00\x00\x00\x00\x00\x00\x00\x00\x00\x00\x00\x00\x00\x80?\x00\x00\x00\x00\x00\x00\x80?\x00\x00\x80?\x00\x00\x80?\x00\x00\x80?\x00\x00\x80?\x00\x00\x80?\x00\x00\x80?\x00\x00\x00\x00\x00\x00\x00\x00\x00\x00\x00\x00\x00\x00\x00\x00\x00\x00\x00\x00\x00\x00\x80?\x00\x00\x80?\x00\x00\x80?\x00\x00\x00\x00\x00\x00\x00\x00\x00\x00\x00\x00\x00\x00\x00\x00\x00\x00\x00\x00\x00\x00\x80?\x00\x00\x00\x00\x00\x00\x80?\x00\x00\x00\x00\x00\x00\x00\x00\x00\x00\x00\x00\x00\x00\x00\x00\x00\x00\x80?\x00\x00\x00\x00\x00\x00\x80?\x00\x00\x00\x00\x00\x00\x00\x00\x00\x00\x80?\x00\x00\x80?\x00\x00\x80?\x00\x00\x80?\x00\x00\x80?\x00\x00\x00\x00\x00\x00\x80?\x00\x00\x00\x00\x00\x00\x80?\x00\x00\x00\x00\x00\x00\x00\x00\x00\x00\x00\x00\x00\x00\x80?\x00\x00\x80?\x00\x00\x80?\x00\x00\x80?\x00\x00\x00\x00\x00\x00\x80?\x00\x00\x00\x00\x00\x00\x80?\x00\x00\x00\x00\x00\x00\x80?\x00\x00\x00\x00\x00\x00\x80?\x00\x00\x80?\x00\x00\x80?\x00\x00\x80?\x00\x00\x00\x00\x00\x00\x00\x00\x00\x00\x00\x00\x00\x00\x00\x00\x00\x00\x80?\x00\x00\x80?\x00\x00\x80?\x00\x00\x00\x00\x00\x00\x80?\x00\x00\x80?\x00\x00\x00\x00\x00\x00\x80?\x00\x00\x00\x00\x00\x00\x80?\x00\x00\x00\x00\x00\x00\x80?\x00\x00\x80?\x00\x00\x00\x00\x00\x00\x00\x00\x00\x00\x80?\x00\x00\x80?\x00\x00\x80?\x00\x00\x00\x00\x00\x00\x00\x00\x00\x00\x00\x00\x00\x00\x00\x00\x00\x00\x80?'
S'\x00\x00\x00\x00\x00\x00\x00\x00\x00\x00\x00\x00\x00\x00\x00\x00\x00\x00\x00\x00\x00\x00\x00\x00\x00\x00\x00\x00\x00\x00\x00\x00\x00\x00\x00\x00\x00\x00\x00\x00\x00\x00\x00\x00\x00\x00\x00\x00\x00\x00\x00\x00\x00\x00\x00\x00\x00\x00\x00\x00\x00\x00\x00\x00\x00\x00\x00\x00\x00\x00\x00\x00\x00\x00\x00\x00\x00\x00\x00\x00\x00\x00\x00\x00\x00\x00\x00\x00\x00\x00\x00\x00\x00\x00\x00\x00'
Ntbsg27
g1157
(g1158
(I0
tS'b'
tRp1229
(I1
(I96
I1
tg1160
I00
(lp1230
g1123
ag373
ag782
ag240
ag595
ag495
ag969
ag925
ag760
ag771
ag881
ag462
ag1090
ag206
ag406
ag417
ag661
ag162
ag914
ag1013
ag473
ag329
ag1002
ag837
ag738
ag980
ag870
ag173
ag683
ag428
ag1112
ag217
ag991
ag958
ag815
ag804
ag584
ag484
ag727
ag273
ag518
ag384
ag903
ag573
ag639
ag705
ag606
ag104
ag395
ag439
ag138
ag551
ag826
ag251
ag362
ag296
ag284
ag628
ag1101
ag91
ag1057
ag1134
ag507
ag115
ag150
ag650
ag716
ag351
ag859
ag694
ag1035
ag76
ag617
ag451
ag848
ag749
ag892
ag540
ag318
ag228
ag307
ag184
ag127
ag1046
ag262
ag947
ag793
ag672
ag936
ag529
ag195
ag1024
ag1079
ag340
ag1068
ag562
atbsg23
g1157
(g1158
(I0
tS'b'
tRp1231
(I1
(I96
I1
tg1160
I00
(lp1232
S'3'
aS'2'
aS'2'
aS'2'
aS'2'
aS'1'
aS'2'
aS'2'
aS'2'
aS'1'
aS'2'
aS'3'
aS'1'
aS'3'
aS'2'
aS'2'
aS'2'
aS'2'
aS'2'
aS'2'
aS'2'
aS'2'
aS'2'
aS'2'
aS'2'
aS'3'
aS'1'
aS'1'
aS'2'
aS'2'
aS'2'
aS'2'
aS'2'
aS'1'
aS'2'
aS'2'
aS'2'
aS'2'
aS'1'
aS'2'
aS'2'
aS'2'
aS'2'
aS'1'
aS'2'
aS'2'
aS'2'
aS'2'
aS'2'
aS'2'
aS'1'
aS'2'
aS'2'
aS'2'
aS'1'
aS'2'
aS'2'
aS'2'
aS'2'
aS'2'
aS'1'
aS'2'
aS'3'
aS'2'
aS'2'
aS'2'
aS'2'
aS'2'
aS'2'
aS'2'
aS'2'
aS'3'
aS'2'
aS'1'
aS'2'
aS'3'
aS'3'
aS'1'
aS'2'
aS'2'
aS'1'
aS'1'
aS'2'
aS'2'
aS'1'
aS'2'
aS'2'
aS'3'
aS'2'
aS'2'
aS'2'
aS'2'
aS'2'
aS'2'
aS'1'
aS'2'
atbsg18
g1162
(g1163
g1158
g1164
S'b'
tRp1233
(I1
(I96
I1
tg1166
I00
S'\x14b\xc2C\x9b9\xe8B\xc6i\x84Cem\x8dBx&AC\xc0Z\x1eC\x9c\xff\xa6Ci\xbf\x9fC\x9e\xc2\x80C\xb9\x88\x82C\x90!\x98CI\xad\x11C!\xa9\xbcCv\xe8iBy\xbc\xffB\xdb\xb4\x03CCz[CH\x93\x1aB3&\x9eC\xd8q\xaeC\xb1\xa2\x15C\x0b\x94\xc9B\xdd\xb0\xacC\x96\xc6\x8eC\xee\xc8uC\x03\x02\xa9C\xc2S\x96C9\xb52B+|cCL]\x07C\x02\x8a\xc0C\x190|B\xaa\xd3\xaaC)S\xa5C\xd7k\x8aC\xc1\x9c\x88C\xad\\=C\xb2\x86\x1aC\x045rC\x96\'\xa3B0\xac&C,\x90\xf0B\xee(\x9cC\xe4\xcd9C\xeb?SC:\xfbjC\xf5\xf7DC\xd7\xaa\xa0At\xf0\xf7B\x8e\xd7\nC\x18.\xf9A\xa9[2C\xa7\xf3\x8cC-l\x94B\xe0c\xe1B\xac\xab\xb3B\x1aU\xabB\x17\x18LC\x8f^\xbeC\xa6DYAp\xc1\xb5C\t,\xc4Ci\x1f"C\x17\xa7\xbeAm\x9f\x0bB\xc7\xa8WCr\x87nC\xd9^\xd8B@\x8b\x92C\xbb\xeefC\xb4[\xb2C\x1eM\xa1@\x9aFHC\xef\x1b\x0eC$\xc5\x90C\xec\xa8|C}8\x9aC\xa8\xb0.C2\xf6\xc1B\x1f\r\x86B>\xc9\xbaB\xa0\xa9BB\xe6\xe0\xdcA\x1e\x1a\xb4C\xcf(\x9cB\x9bT\xa3Cl\xba\x86CZ\x01_C\xcd\x86\xa1C\x92)+C\x06\xefPB\xf47\xb0C\xcc\xc6\xbaCr\xf9\xd0B0d\xb8C\xadA6C'
S'\x00\x00\x00\x00\x00\x00\x00\x00\x00\x00\x00\x00\x00\x00\x00\x00\x00\x00\x00\x00\x00\x00\x00\x00\x00\x00\x00\x00\x00\x00\x00\x00\x00\x00\x00\x00\x00\x00\x00\x00\x00\x00\x00\x00\x00\x00\x00\x00\x00\x00\x00\x00\x00\x00\x00\x00\x00\x00\x00\x00\x00\x00\x00\x00\x00\x00\x00\x00\x00\x00\x00\x00\x00\x00\x00\x00\x00\x00\x00\x00\x00\x00\x00\x00\x00\x00\x00\x00\x00\x00\x00\x00\x00\x00\x00\x00'
Ntbsg25
g1162
(g1163
g1158
g1164
S'b'
tRp1234
(I1
(I96
I1
tg1166
I00
S"\xe1\xc1\xa4=+\xdc\x14?\xd4R\xe2=*\xd7\xf6=\r\xbeW>HC$>\x17\xaf.>\xe7Fw=\xd5\xa0\x05>\x8f\xc1\xdc>\xf9\x9e\xd7>\x8b\xea\x94>\x13Q\xa4>\xf8W;?\x92-\x1a>\x12\xc2\xb8>\x92Q\xe2=\xb0\xbd\xfc?` \x90=U8\xe2=w\xea\x94>\xe8\xe4\x0f>\xe6\xad.>\x87\x86v>\xafk$>RP\xe2=\x16\xa4\xa4=\xc5\xb3\xb3>aF\xb9=-\x1bl>\xaa\xa6\x8a>\xd3j$>\xda\xbf\xf6=\xf6'\x1a>(5\xb9=\xc7-\xb9=Pv\xa9>\xc3f\x80>zCl>)<\xe2=\xad\xc0\xdc>\x1b\xf18>\xa8\xf18>u\xbd\x0f>\xa7\x87.>\xb4.\xa5=\xbe7\xe2=7wM>\x02\xf2\x0f>\xda\xb3\xcd=\x85\x85v>p\xe5\x0f>\\}\xd2>\x96[\xcd>\xdf\x84\x85>\xc5\xcc\xa4=\xc3\xe2\xe1>[\xe0x@\xae\xa3\xa4=+f\x80>f?l>\x1fC$>\x8d&\xec>\xcd0C>}\xbaW>%\xcb\xf6=\xb5\xf08>\xea\xbcW>\x93'\x1a>\x8c%\xec>X\xbb\xf6=f\x87\x9c?t\xf48>\xa7\xc9\xf6=\x8b\xdc\xb8=\x1d#\x8d?\xba(\x1a>G\x91C>\xbeW\xe2=_Cl>}\xec\x0f>\xf9\xae.>\xad\xe6\xe1=\xe5\xe8\x0f>\xd7\x8aM>T\x08\x08?\x00\xe4\x0f>0AC>\xa6\xca\x8f>p\xaf.>\xd4(\x1a>`\xa8\xa4=B?\xe2=Q\xbbW>\x07\xbb\xc1?\xf5%N="
S'\x00\x00\x00\x00\x00\x00\x00\x00\x00\x00\x00\x00\x00\x00\x00\x00\x00\x00\x00\x00\x00\x00\x00\x00\x00\x00\x00\x00\x00\x00\x00\x00\x00\x00\x00\x00\x00\x00\x00\x00\x00\x00\x00\x00\x00\x00\x00\x00\x00\x00\x00\x00\x00\x00\x00\x00\x00\x00\x00\x00\x00\x00\x00\x00\x00\x00\x00\x00\x00\x00\x00\x00\x00\x00\x00\x00\x00\x00\x00\x00\x00\x00\x00\x00\x00\x00\x00\x00\x00\x00\x00\x00\x00\x00\x00\x00'
NtbstRp1235
(dp1236
S'isNumeric'
p1237
(dp1238
g23
I00
sg20
I00
sg17
I01
sg1167
I01
sg22
I01
sg24
I01
sg14
I01
sg18
I01
sg16
I00
sg19
I01
sg26
I00
sg27
I00
sg15
I00
sg21
I01
sg1226
I01
sg25
I01
ssg1151
g1145
sS'dataTypes'
p1239
(lp1240
g1167
ag1226
ag14
ag15
ag16
ag17
ag18
ag19
ag20
ag21
ag22
ag23
ag24
ag25
ag26
ag27
asS'dataShape'
p1241
(lp1242
I96
aI1
asbsS'method'
p1243
S'random'
p1244
sS'sequenceIndices'
p1245
g1157
(g1158
(I0
tS'b'
tRp1246
(I1
(I96
I1
tg80
I01
S'G\x00\x00\x00;\x00\x00\x00/\x00\x00\x00?\x00\x00\x00R\x00\x00\x002\x00\x00\x00@\x00\x00\x00\x11\x00\x00\x00\x1b\x00\x00\x00Q\x00\x00\x00Z\x00\x00\x00\r\x00\x00\x00\x1f\x00\x00\x00O\x00\x00\x00\x03\x00\x00\x005\x00\x00\x00T\x00\x00\x00\'\x00\x00\x008\x00\x00\x007\x00\x00\x00P\x00\x00\x00N\x00\x00\x00\x15\x00\x00\x00]\x00\x00\x00C\x00\x00\x006\x00\x00\x00\x01\x00\x00\x00)\x00\x00\x000\x00\x00\x00\x0e\x00\x00\x00\x0f\x00\x00\x00\x1d\x00\x00\x001\x00\x00\x00I\x00\x00\x00\x0b\x00\x00\x00\x14\x00\x00\x00%\x00\x00\x00\x05\x00\x00\x00>\x00\x00\x00(\x00\x00\x00Y\x00\x00\x00M\x00\x00\x003\x00\x00\x00_\x00\x00\x00+\x00\x00\x00$\x00\x00\x00\x04\x00\x00\x00.\x00\x00\x00H\x00\x00\x009\x00\x00\x00,\x00\x00\x00A\x00\x00\x00\x10\x00\x00\x00W\x00\x00\x00\x1c\x00\x00\x00E\x00\x00\x00-\x00\x00\x00B\x00\x00\x00&\x00\x00\x00\x18\x00\x00\x00K\x00\x00\x00\x08\x00\x00\x00\t\x00\x00\x00\x02\x00\x00\x00V\x00\x00\x00#\x00\x00\x00"\x00\x00\x004\x00\x00\x00\x17\x00\x00\x00J\x00\x00\x00D\x00\x00\x00\x1a\x00\x00\x00\n\x00\x00\x00L\x00\x00\x00*\x00\x00\x00\x12\x00\x00\x00\x07\x00\x00\x00X\x00\x00\x00U\x00\x00\x00!\x00\x00\x00\x06\x00\x00\x00\x19\x00\x00\x00 \x00\x00\x00\x16\x00\x00\x00\x13\x00\x00\x00[\x00\x00\x00F\x00\x00\x00S\x00\x00\x00<\x00\x00\x00^\x00\x00\x00\\\x00\x00\x00\x0c\x00\x00\x00:\x00\x00\x00\x1e\x00\x00\x00\x00\x00\x00\x00=\x00\x00\x00'
tbsS'finished'
p1247
I01
sS'nReps'
p1248
I1
sS'nRemaining'
p1249
I-1
sS'trialList'
p1250
(lp1251
g1
(cpsychopy.data
TrialType
p1252
g1155
(dp1253
g62
g74
sg63
g1129
sg64
g102
sg65
g1124
sg66
g1128
stRp1254
ag1
(g1252
g1155
(dp1255
g62
g89
sg63
g379
sg64
g125
sg65
g374
sg66
g378
stRp1256
ag1
(g1252
g1155
(dp1257
g62
g74
sg63
g788
sg64
g102
sg65
g783
sg66
g787
stRp1258
ag1
(g1252
g1155
(dp1259
g62
g74
sg63
g246
sg64
g238
sg65
g241
sg66
g245
stRp1260
ag1
(g1252
g1155
(dp1261
g62
g89
sg63
g601
sg64
g88
sg65
g596
sg66
g600
stRp1262
ag1
(g1252
g1155
(dp1263
g62
g74
sg63
g501
sg64
g102
sg65
g496
sg66
g500
stRp1264
ag1
(g1252
g1155
(dp1265
g62
g74
sg63
g975
sg64
g102
sg65
g970
sg66
g974
stRp1266
ag1
(g1252
g1155
(dp1267
g62
g74
sg63
g931
sg64
g148
sg65
g926
sg66
g930
stRp1268
ag1
(g1252
g1155
(dp1269
g62
g74
sg63
g766
sg64
g102
sg65
g761
sg66
g765
stRp1270
ag1
(g1252
g1155
(dp1271
g62
g74
sg63
g777
sg64
g148
sg65
g772
sg66
g776
stRp1272
ag1
(g1252
g1155
(dp1273
g62
g89
sg63
g887
sg64
g449
sg65
g882
sg66
g886
stRp1274
ag1
(g1252
g1155
(dp1275
g62
g74
sg63
g468
sg64
g148
sg65
g463
sg66
g467
stRp1276
ag1
(g1252
g1155
(dp1277
g62
g74
sg63
g1096
sg64
g160
sg65
g1091
sg66
g1095
stRp1278
ag1
(g1252
g1155
(dp1279
g62
g89
sg63
g212
sg64
g125
sg65
g207
sg66
g211
stRp1280
ag1
(g1252
g1155
(dp1281
g62
g74
sg63
g412
sg64
g160
sg65
g407
sg66
g411
stRp1282
ag1
(g1252
g1155
(dp1283
g62
g74
sg63
g423
sg64
g102
sg65
g418
sg66
g422
stRp1284
ag1
(g1252
g1155
(dp1285
g62
g89
sg63
g667
sg64
g125
sg65
g662
sg66
g666
stRp1286
ag1
(g1252
g1155
(dp1287
g62
g74
sg63
g168
sg64
g160
sg65
g163
sg66
g167
stRp1288
ag1
(g1252
g1155
(dp1289
g62
g74
sg63
g920
sg64
g73
sg65
g915
sg66
g919
stRp1290
ag1
(g1252
g1155
(dp1291
g62
g74
sg63
g1019
sg64
g102
sg65
g1014
sg66
g1018
stRp1292
ag1
(g1252
g1155
(dp1293
g62
g89
sg63
g479
sg64
g125
sg65
g474
sg66
g478
stRp1294
ag1
(g1252
g1155
(dp1295
g62
g89
sg63
g335
sg64
g294
sg65
g330
sg66
g334
stRp1296
ag1
(g1252
g1155
(dp1297
g62
g74
sg63
g1008
sg64
g73
sg65
g1003
sg66
g1007
stRp1298
ag1
(g1252
g1155
(dp1299
g62
g89
sg63
g843
sg64
g294
sg65
g838
sg66
g842
stRp1300
ag1
(g1252
g1155
(dp1301
g62
g89
sg63
g744
sg64
g449
sg65
g739
sg66
g743
stRp1302
ag1
(g1252
g1155
(dp1303
g62
g74
sg63
g986
sg64
g505
sg65
g981
sg66
g985
stRp1304
ag1
(g1252
g1155
(dp1305
g62
g89
sg63
g876
sg64
g88
sg65
g871
sg66
g875
stRp1306
ag1
(g1252
g1155
(dp1307
g62
g89
sg63
g179
sg64
g125
sg65
g174
sg66
g178
stRp1308
ag1
(g1252
g1155
(dp1309
g62
g74
sg63
g689
sg64
g160
sg65
g684
sg66
g688
stRp1310
ag1
(g1252
g1155
(dp1311
g62
g74
sg63
g434
sg64
g102
sg65
g429
sg66
g433
stRp1312
ag1
(g1252
g1155
(dp1313
g62
g74
sg63
g1118
sg64
g73
sg65
g1113
sg66
g1117
stRp1314
ag1
(g1252
g1155
(dp1315
g62
g74
sg63
g223
sg64
g73
sg65
g218
sg66
g222
stRp1316
ag1
(g1252
g1155
(dp1317
g62
g89
sg63
g997
sg64
g125
sg65
g992
sg66
g996
stRp1318
ag1
(g1252
g1155
(dp1319
g62
g89
sg63
g964
sg64
g88
sg65
g959
sg66
g963
stRp1320
ag1
(g1252
g1155
(dp1321
g62
g89
sg63
g821
sg64
g88
sg65
g816
sg66
g820
stRp1322
ag1
(g1252
g1155
(dp1323
g62
g74
sg63
g810
sg64
g160
sg65
g805
sg66
g809
stRp1324
ag1
(g1252
g1155
(dp1325
g62
g74
sg63
g590
sg64
g505
sg65
g585
sg66
g589
stRp1326
ag1
(g1252
g1155
(dp1327
g62
g74
sg63
g490
sg64
g238
sg65
g485
sg66
g489
stRp1328
ag1
(g1252
g1155
(dp1329
g62
g89
sg63
g733
sg64
g88
sg65
g728
sg66
g732
stRp1330
ag1
(g1252
g1155
(dp1331
g62
g89
sg63
g279
sg64
g125
sg65
g274
sg66
g278
stRp1332
ag1
(g1252
g1155
(dp1333
g62
g89
sg63
g524
sg64
g125
sg65
g519
sg66
g523
stRp1334
ag1
(g1252
g1155
(dp1335
g62
g74
sg63
g390
sg64
g160
sg65
g385
sg66
g389
stRp1336
ag1
(g1252
g1155
(dp1337
g62
g89
sg63
g909
sg64
g88
sg65
g904
sg66
g908
stRp1338
ag1
(g1252
g1155
(dp1339
g62
g89
sg63
g579
sg64
g294
sg65
g574
sg66
g578
stRp1340
ag1
(g1252
g1155
(dp1341
g62
g89
sg63
g645
sg64
g88
sg65
g640
sg66
g644
stRp1342
ag1
(g1252
g1155
(dp1343
g62
g89
sg63
g711
sg64
g449
sg65
g706
sg66
g710
stRp1344
ag1
(g1252
g1155
(dp1345
g62
g74
sg63
g612
sg64
g102
sg65
g607
sg66
g611
stRp1346
ag1
(g1252
g1155
(dp1347
g62
g74
sg63
g110
sg64
g102
sg65
g105
sg66
g109
stRp1348
ag1
(g1252
g1155
(dp1349
g62
g89
sg63
g401
sg64
g125
sg65
g396
sg66
g400
stRp1350
ag1
(g1252
g1155
(dp1351
g62
g89
sg63
g445
sg64
g294
sg65
g440
sg66
g444
stRp1352
ag1
(g1252
g1155
(dp1353
g62
g89
sg63
g144
sg64
g125
sg65
g139
sg66
g143
stRp1354
ag1
(g1252
g1155
(dp1355
g62
g89
sg63
g557
sg64
g88
sg65
g552
sg66
g556
stRp1356
ag1
(g1252
g1155
(dp1357
g62
g89
sg63
g832
sg64
g294
sg65
g827
sg66
g831
stRp1358
ag1
(g1252
g1155
(dp1359
g62
g74
sg63
g257
sg64
g160
sg65
g252
sg66
g256
stRp1360
ag1
(g1252
g1155
(dp1361
g62
g74
sg63
g368
sg64
g148
sg65
g363
sg66
g367
stRp1362
ag1
(g1252
g1155
(dp1363
g62
g89
sg63
g302
sg64
g294
sg65
g297
sg66
g301
stRp1364
ag1
(g1252
g1155
(dp1365
g62
g89
sg63
g290
sg64
g88
sg65
g285
sg66
g289
stRp1366
ag1
(g1252
g1155
(dp1367
g62
g89
sg63
g634
sg64
g88
sg65
g629
sg66
g633
stRp1368
ag1
(g1252
g1155
(dp1369
g62
g74
sg63
g1107
sg64
g160
sg65
g1102
sg66
g1106
stRp1370
ag1
(g1252
g1155
(dp1371
g62
g89
sg63
g97
sg64
g88
sg65
g92
sg66
g96
stRp1372
ag1
(g1252
g1155
(dp1373
g62
g89
sg63
g1063
sg64
g88
sg65
g1058
sg66
g1062
stRp1374
ag1
(g1252
g1155
(dp1375
g62
g89
sg63
g1140
sg64
g88
sg65
g1135
sg66
g1139
stRp1376
ag1
(g1252
g1155
(dp1377
g62
g74
sg63
g513
sg64
g505
sg65
g508
sg66
g512
stRp1378
ag1
(g1252
g1155
(dp1379
g62
g89
sg63
g121
sg64
g88
sg65
g116
sg66
g120
stRp1380
ag1
(g1252
g1155
(dp1381
g62
g74
sg63
g156
sg64
g148
sg65
g151
sg66
g155
stRp1382
ag1
(g1252
g1155
(dp1383
g62
g89
sg63
g656
sg64
g294
sg65
g651
sg66
g655
stRp1384
ag1
(g1252
g1155
(dp1385
g62
g74
sg63
g722
sg64
g73
sg65
g717
sg66
g721
stRp1386
ag1
(g1252
g1155
(dp1387
g62
g89
sg63
g357
sg64
g88
sg65
g352
sg66
g356
stRp1388
ag1
(g1252
g1155
(dp1389
g62
g89
sg63
g865
sg64
g125
sg65
g860
sg66
g864
stRp1390
ag1
(g1252
g1155
(dp1391
g62
g74
sg63
g700
sg64
g102
sg65
g695
sg66
g699
stRp1392
ag1
(g1252
g1155
(dp1393
g62
g89
sg63
g1041
sg64
g88
sg65
g1036
sg66
g1040
stRp1394
ag1
(g1252
g1155
(dp1395
g62
g74
sg63
g84
sg64
g73
sg65
g78
sg66
g83
stRp1396
ag1
(g1252
g1155
(dp1397
g62
g74
sg63
g623
sg64
g505
sg65
g618
sg66
g622
stRp1398
ag1
(g1252
g1155
(dp1399
g62
g89
sg63
g457
sg64
g449
sg65
g452
sg66
g456
stRp1400
ag1
(g1252
g1155
(dp1401
g62
g89
sg63
g854
sg64
g88
sg65
g849
sg66
g853
stRp1402
ag1
(g1252
g1155
(dp1403
g62
g89
sg63
g755
sg64
g294
sg65
g750
sg66
g754
stRp1404
ag1
(g1252
g1155
(dp1405
g62
g74
sg63
g898
sg64
g148
sg65
g893
sg66
g897
stRp1406
ag1
(g1252
g1155
(dp1407
g62
g74
sg63
g546
sg64
g73
sg65
g541
sg66
g545
stRp1408
ag1
(g1252
g1155
(dp1409
g62
g74
sg63
g324
sg64
g102
sg65
g319
sg66
g323
stRp1410
ag1
(g1252
g1155
(dp1411
g62
g89
sg63
g234
sg64
g88
sg65
g229
sg66
g233
stRp1412
ag1
(g1252
g1155
(dp1413
g62
g89
sg63
g313
sg64
g294
sg65
g308
sg66
g312
stRp1414
ag1
(g1252
g1155
(dp1415
g62
g74
sg63
g190
sg64
g102
sg65
g185
sg66
g189
stRp1416
ag1
(g1252
g1155
(dp1417
g62
g89
sg63
g133
sg64
g125
sg65
g128
sg66
g132
stRp1418
ag1
(g1252
g1155
(dp1419
g62
g74
sg63
g1052
sg64
g73
sg65
g1047
sg66
g1051
stRp1420
ag1
(g1252
g1155
(dp1421
g62
g89
sg63
g268
sg64
g125
sg65
g263
sg66
g267
stRp1422
ag1
(g1252
g1155
(dp1423
g62
g89
sg63
g953
sg64
g88
sg65
g948
sg66
g952
stRp1424
ag1
(g1252
g1155
(dp1425
g62
g74
sg63
g799
sg64
g148
sg65
g794
sg66
g798
stRp1426
ag1
(g1252
g1155
(dp1427
g62
g74
sg63
g678
sg64
g148
sg65
g673
sg66
g677
stRp1428
ag1
(g1252
g1155
(dp1429
g62
g74
sg63
g942
sg64
g505
sg65
g937
sg66
g941
stRp1430
ag1
(g1252
g1155
(dp1431
g62
g74
sg63
g535
sg64
g505
sg65
g530
sg66
g534
stRp1432
ag1
(g1252
g1155
(dp1433
g62
g89
sg63
g201
sg64
g125
sg65
g196
sg66
g200
stRp1434
ag1
(g1252
g1155
(dp1435
g62
g74
sg63
g1030
sg64
g148
sg65
g1025
sg66
g1029
stRp1436
ag1
(g1252
g1155
(dp1437
g62
g74
sg63
g1085
sg64
g505
sg65
g1080
sg66
g1084
stRp1438
ag1
(g1252
g1155
(dp1439
g62
g74
sg63
g346
sg64
g102
sg65
g341
sg66
g345
stRp1440
ag1
(g1252
g1155
(dp1441
g62
g89
sg63
g1074
sg64
g294
sg65
g1069
sg66
g1073
stRp1442
ag1
(g1252
g1155
(dp1443
g62
g89
sg63
g568
sg64
g125
sg65
g563
sg66
g567
stRp1444
asS'seed'
p1445
NsS'thisIndex'
p1446
g1137
sS'thisN'
p1447
I96
sS'thisTrialN'
p1448
I0
sS'nTotal'
p1449
I96
sS'_warnUseOfNext'
p1450
I01
sbasS'savePickle'
p1451
I00
sb.