ccopy_reg
_reconstructor
p1
(cpsychopy.data
ExperimentHandler
p2
c__builtin__
object
p3
NtRp4
(dp5
S'originPath'
p6
NsS'dataFileName'
p7
VC:\u005cDocuments and Settings\u005cExperimental user\u005cMy Documents\u005cconsciousness\u005cuncon_feat\u005cexperiment_scripts\u005cdata/mattin_Experiment_EEG_version_2019_jun_28_1525
p8
sS'runtimeInfo'
p9
NsS'name'
p10
VExperiment_EEG_version
p11
sS'dataNames'
p12
(lp13
S'image_onset_time'
p14
aS'response_window'
p15
aS'correctAns'
p16
aS'probe_onset'
p17
aS'discrim_resptime'
p18
aS'response.corr'
p19
aS'response.keys'
p20
aS'response.rt'
p21
aS'visible_resptime'
p22
aS'visible.keys'
p23
aS'visible.corr'
p24
aS'visible.rt'
p25
aS'probeFrames'
p26
aS'jitter2'
p27
asS'autoLog'
p28
I01
sS'extraInfo'
p29
(dp30
Vn_square
p31
V32
p32
sVexperiment_color
p33
Vbw
p34
sS'frameRate'
p35
cnumpy.core.multiarray
scalar
p36
(cnumpy
dtype
p37
(S'f8'
I0
I1
tRp38
(I3
S'<'
NNNI-1
I-1
I0
tbS'|+3\x96\xf9\xf1X@'
tRp39
sS'date'
p40
V2019_jun_28_1525
p41
sVsession
p42
V003
p43
sVimage_size
p44
V256
p45
sVpremask_dur
p46
V20
p47
sVprobeFrames
p48
V5
sVparticipant
p49
Vmattin
p50
sS'expName'
p51
g11
sVpostmask_dur
p52
V20
p53
ssS'loopsUnfinished'
p54
(lp55
sS'saveWideText'
p56
I00
sS'thisEntry'
p57
(dp58
sS'version'
p59
S''
sS'_paramNamesSoFar'
p60
(lp61
S'category'
p62
aS'probe_path'
p63
aS'subcategory'
p64
aS'fixation_duration'
p65
aS'label'
p66
asS'entries'
p67
(lp68
(dp69
g31
g32
sg17
F3.7886542117921636
sg24
I0
sg35
g39
sg14
F3.7498750943923369
sg16
g36
(g37
(S'i4'
I0
I1
tRp70
(I3
S'<'
NNNI-1
I-1
I0
tbS'\x02\x00\x00\x00'
tRp71
sg42
g43
sg46
g47
sg15
S'nV_V'
p72
sg22
F7.2984568207757547
sg64
VBirds
p73
sg62
VLiving_Things
p74
sg49
g50
sS'trials.thisN'
p75
I0
sg19
I1
sg27
g36
(g38
S'\x00\x00\x00\x00\x00\x00\x1e@'
tRp76
sg52
g53
sg23
S'3'
sg18
F5.052566034370102
sg33
g34
sg51
g11
sg20
S'2'
sg65
g36
(g37
(S'i8'
I0
I1
tRp77
(I3
S'<'
NNNI-1
I-1
I0
tbS'\x00\x00\x00\x00\x00\x00\x00\x00'
tRp78
sg44
g45
sg40
g41
sg25
F0.74183173861820251
sS'trials.thisIndex'
p79
g36
(g37
(S'i4'
I0
I1
tRp80
(I3
S'<'
NNNI-1
I-1
I0
tbS'"\x00\x00\x00'
tRp81
sg26
V5
sS'trials.thisRepN'
p82
I0
sg66
Vgoose
p83
sg63
V../experiment_stimuli/bw_bc_bl/Living_Things/Birds/goose_22.jpg
p84
sg21
F2.215036271722056
sS'trials.thisTrialN'
p85
I0
sa(dp86
g31
g32
sg17
F9.7863729849923402
sg24
I0
sg35
g39
sg14
F9.7729531741933897
sg16
g36
(g70
S'\x01\x00\x00\x00'
tRp87
sg42
g43
sg46
g47
sg15
S'V_nV'
p88
sg22
F11.747895453358069
sg64
VAnimals
p89
sg62
g74
sg49
g50
sS'trials.thisN'
p90
I1
sg19
I1
sg27
g36
(g38
S'\x00\x00\x00\x00\x00\x00\x1e@'
tRp91
sg52
g53
sg23
S'3'
sg18
F11.015554364654236
sg33
g34
sg51
g11
sg20
S'1'
sg65
g36
(g77
S'\x00\x00\x00\x00\x00\x00\x00\x00'
tRp92
sg44
g45
sg40
g41
sg25
F1.0725687766680494
sS'trials.thisIndex'
p93
g36
(g80
S'0\x00\x00\x00'
tRp94
sg26
V5
sS'trials.thisRepN'
p95
I0
sg66
Vlioness
p96
sg63
V../experiment_stimuli/bw_bc_bl/Living_Things/Animals/lioness_16.jpg
p97
sg21
F0.71179110649973154
sS'trials.thisTrialN'
p98
I1
sa(dp99
g31
g32
sg17
F14.574800555361435
sg24
I0
sg35
g39
sg14
F14.553350409725681
sg16
g36
(g70
S'\x01\x00\x00\x00'
tRp100
sg42
g43
sg46
g47
sg15
g72
sg22
F17.109578941832297
sg64
VTools
p101
sg62
VNonliving_Things
p102
sg49
g50
sS'trials.thisN'
p103
I2
sg19
I0
sg27
g36
(g38
S'\x00\x00\x00\x00\x00\x00\x1a@'
tRp104
sg52
g53
sg23
S'2'
sg18
F15.795958104310557
sg33
g34
sg51
g11
sg20
S'2'
sg65
g36
(g77
S'\x00\x00\x00\x00\x00\x00\x00\x00'
tRp105
sg44
g45
sg40
g41
sg25
F0.43115336145274341
sS'trials.thisIndex'
p106
g36
(g80
S'%\x00\x00\x00'
tRp107
sg26
V5
sS'trials.thisRepN'
p108
I0
sg66
Vhammer
p109
sg63
V../experiment_stimuli/bw_bc_bl/Nonliving_Things/Tools/hammer_14.jpg
p110
sg21
F1.2930525586707518
sS'trials.thisTrialN'
p111
I2
sa(dp112
g31
g32
sg17
F19.312483569490723
sg24
I0
sg35
g39
sg14
F19.273634896497242
sg16
g36
(g70
S'\x02\x00\x00\x00'
tRp113
sg42
g43
sg46
g47
sg15
g72
sg22
F21.268664948875085
sg64
g89
sg62
g74
sg49
g50
sS'trials.thisN'
p114
I3
sg19
I0
sg27
g36
(g38
S'\x00\x00\x00\x00\x00\x00\x18@'
tRp115
sg52
g53
sg23
S'2'
sg18
F20.536277112667449
sg33
g34
sg51
g11
sg20
S'1'
sg65
g36
(g77
S'\x00\x00\x00\x00\x00\x00\x00\x00'
tRp116
sg44
g45
sg40
g41
sg25
F0.47143657924607396
sS'trials.thisIndex'
p117
g36
(g80
S"'\x00\x00\x00"
tRp118
sg26
V5
sS'trials.thisRepN'
p119
I0
sg66
Vhippopotamus
p120
sg63
V../experiment_stimuli/bw_bc_bl/Living_Things/Animals/hippopotamus_18.jpg
p121
sg21
F0.71181836177129298
sS'trials.thisTrialN'
p122
I3
sa(dp123
g31
g32
sg17
F23.506259294459596
sg24
I0
sg35
g39
sg14
F23.472768740379252
sg16
g36
(g70
S'\x02\x00\x00\x00'
tRp124
sg42
g43
sg46
g47
sg15
g72
sg22
F25.577997530228458
sg64
VInsects
p125
sg62
g74
sg49
g50
sS'trials.thisN'
p126
I4
sg19
I0
sg27
g36
(g38
S'\x00\x00\x00\x00\x00\x00\x18@'
tRp127
sg52
g53
sg23
S'2'
sg18
F24.735422065248713
sg33
g34
sg51
g11
sg20
S'1'
sg65
g36
(g77
S'\x00\x00\x00\x00\x00\x00\x00\x00'
tRp128
sg44
g45
sg40
g41
sg25
F0.45119886042084545
sS'trials.thisIndex'
p129
g36
(g80
S'I\x00\x00\x00'
tRp130
sg26
V5
sS'trials.thisRepN'
p131
I0
sg66
Vscorpion
p132
sg63
V../experiment_stimuli/bw_bc_bl/Living_Things/Insects/scorpion_6.jpg
p133
sg21
F0.82201003143563867
sS'trials.thisTrialN'
p134
I4
sa(dp135
g31
g32
sg17
F27.790743510820903
sg24
I1
sg35
g39
sg14
F27.762108303490095
sg16
g36
(g70
S'\x01\x00\x00\x00'
tRp136
sg42
g43
sg46
g47
sg15
g72
sg22
F30.408510445617139
sg64
VFurniture
p137
sg62
g102
sg49
g50
sS'trials.thisN'
p138
I5
sg19
I1
sg27
g36
(g38
S'\x00\x00\x00\x00\x00\x00\x1a@'
tRp139
sg52
g53
sg23
S'1'
sg18
F29.014754156931303
sg33
g34
sg51
g11
sg20
S'1'
sg65
g36
(g77
S'\x00\x00\x00\x00\x00\x00\x00\x00'
tRp140
sg44
g45
sg40
g41
sg25
F0.24059928033966571
sS'trials.thisIndex'
p141
g36
(g80
S'\x08\x00\x00\x00'
tRp142
sg26
V5
sS'trials.thisRepN'
p143
I0
sg66
Vbookcase
p144
sg63
V../experiment_stimuli/bw_bc_bl/Nonliving_Things/Furniture/bookcase_8.jpg
p145
sg21
F1.3732136521721259
sS'trials.thisTrialN'
p146
I5
sa(dp147
g31
g32
sg17
F32.418934242450632
sg24
I0
sg35
g39
sg14
F32.382168603595346
sg16
g36
(g70
S'\x02\x00\x00\x00'
tRp148
sg42
g43
sg46
g47
sg15
g72
sg22
F35.018557191709988
sg64
g73
sg62
g74
sg49
g50
sS'trials.thisN'
p149
I6
sg19
I1
sg27
g36
(g38
S'\x00\x00\x00\x00\x00\x00\x1c@'
tRp150
sg52
g53
sg23
S'3'
sg18
F33.664865348371677
sg33
g34
sg51
g11
sg20
S'2'
sg65
g36
(g77
S'\x00\x00\x00\x00\x00\x00\x00\x00'
tRp151
sg44
g45
sg40
g41
sg25
F0.35097860207315534
sS'trials.thisIndex'
p152
g36
(g80
S'U\x00\x00\x00'
tRp153
sg26
V5
sS'trials.thisRepN'
p154
I0
sg66
Vtoucan
p155
sg63
V../experiment_stimuli/bw_bc_bl/Living_Things/Birds/toucan_6.jpg
p156
sg21
F1.3331249438924715
sS'trials.thisTrialN'
p157
I6
sa(dp158
g31
g32
sg17
F37.146161165903322
sg24
I0
sg35
g39
sg14
F37.102446041419171
sg16
g36
(g70
S'\x02\x00\x00\x00'
tRp159
sg42
g43
sg46
g47
sg15
g72
sg22
F40.871295142569579
sg64
VMarine_creatures
p160
sg62
g74
sg49
g50
sS'trials.thisN'
p161
I7
sg19
I1
sg27
g36
(g38
S'\x00\x00\x00\x00\x00\x00\x18@'
tRp162
sg52
g53
sg23
S'2'
sg18
F38.375130901578814
sg33
g34
sg51
g11
sg20
S'2'
sg65
g36
(g77
S'\x00\x00\x00\x00\x00\x00\x00\x00'
tRp163
sg44
g45
sg40
g41
sg25
F0.17060204723384231
sS'trials.thisIndex'
p164
g36
(g80
S'A\x00\x00\x00'
tRp165
sg26
V5
sS'trials.thisRepN'
p166
I0
sg66
Vpomfret
p167
sg63
V../experiment_stimuli/bw_bc_bl/Living_Things/Marine_creatures/pomfret_4.jpg
p168
sg21
F2.475606074789539
sS'trials.thisTrialN'
p169
I7
sa(dp170
g31
g32
sg17
F42.808014144538902
sg24
I1
sg35
g39
sg14
F42.774800741812214
sg16
g36
(g70
S'\x02\x00\x00\x00'
tRp171
sg42
g43
sg46
g47
sg15
g88
sg22
F45.541470423107967
sg64
VKitchen_Uten
p172
sg62
g102
sg49
g50
sS'trials.thisN'
p173
I8
sg19
I1
sg27
g36
(g38
S'\x00\x00\x00\x00\x00\x00\x1a@'
tRp174
sg52
g53
sg23
S'1'
sg18
F44.027428982546553
sg33
g34
sg51
g11
sg20
S'2'
sg65
g36
(g77
S'\x00\x00\x00\x00\x00\x00\x00\x00'
tRp175
sg44
g45
sg40
g41
sg25
F0.46123521123081446
sS'trials.thisIndex'
p176
g36
(g80
S'B\x00\x00\x00'
tRp177
sg26
V5
sS'trials.thisRepN'
p178
I0
sg66
Vpot
p179
sg63
V../experiment_stimuli/bw_bc_bl/Nonliving_Things/Kitchen_Uten/pot_24.jpg
p180
sg21
F1.4934872779995203
sS'trials.thisTrialN'
p181
I8
sa(dp182
g31
g32
sg17
F47.755069793085568
sg24
I0
sg35
g39
sg14
F47.735607077251188
sg16
g36
(g70
S'\x02\x00\x00\x00'
tRp183
sg42
g43
sg46
g47
sg15
g72
sg22
F50.061313912505284
sg64
g73
sg62
g74
sg49
g50
sS'trials.thisN'
p184
I9
sg19
I0
sg27
g36
(g38
S'\x00\x00\x00\x00\x00\x00\x18@'
tRp185
sg52
g53
sg23
S'2'
sg18
F48.988247438450344
sg33
g34
sg51
g11
sg20
S'1'
sg65
g36
(g77
S'\x00\x00\x00\x00\x00\x00\x00\x00'
tRp186
sg44
g45
sg40
g41
sg25
F0.99237528804223984
sS'trials.thisIndex'
p187
g36
(g80
S'C\x00\x00\x00'
tRp188
sg26
V5
sS'trials.thisRepN'
p189
I0
sg66
Vraven
p190
sg63
V../experiment_stimuli/bw_bc_bl/Living_Things/Birds/raven_3.jpg
p191
sg21
F1.0524853266542777
sS'trials.thisTrialN'
p192
I9
sa(dp193
g31
g32
sg17
F52.809103954583406
sg24
I1
sg35
g39
sg14
F52.786603718530387
sg16
g36
(g70
S'\x02\x00\x00\x00'
tRp194
sg42
g43
sg46
g47
sg15
g72
sg22
F54.901841280632652
sg64
g125
sg62
g74
sg49
g50
sS'trials.thisN'
p195
I10
sg19
I0
sg27
g36
(g38
S'\x00\x00\x00\x00\x00\x00\x18@'
tRp196
sg52
g53
sg23
S'1'
sg18
F54.029207739979029
sg33
g34
sg51
g11
sg20
S'1'
sg65
g36
(g77
S'\x00\x00\x00\x00\x00\x00\x00\x00'
tRp197
sg44
g45
sg40
g41
sg25
F0.19047371752094477
sS'trials.thisIndex'
p198
g36
(g80
S'-\x00\x00\x00'
tRp199
sg26
V5
sS'trials.thisRepN'
p200
I0
sg66
Vladybird
p201
sg63
V../experiment_stimuli/bw_bc_bl/Living_Things/Insects/ladybird_6.jpg
p202
sg21
F0.85207309585530311
sS'trials.thisTrialN'
p203
I10
sa(dp204
g31
g32
sg17
F56.855469747562893
sg24
I0
sg35
g39
sg14
F56.825394269661047
sg16
g36
(g70
S'\x02\x00\x00\x00'
tRp205
sg42
g43
sg46
g47
sg15
g88
sg22
F61.455952227930538
sg64
VVehicles
p206
sg62
g102
sg49
g50
sS'trials.thisN'
p207
I11
sg19
I1
sg27
g36
(g38
S'\x00\x00\x00\x00\x00\x00\x18@'
tRp208
sg52
g53
sg23
S'3'
sg18
F58.098066889331676
sg33
g34
sg51
g11
sg20
S'2'
sg65
g36
(g77
S'\x00\x00\x00\x00\x00\x00\x00\x00'
tRp209
sg44
g45
sg40
g41
sg25
F0.16056325274985284
sS'trials.thisIndex'
p210
g36
(g80
S'@\x00\x00\x00'
tRp211
sg26
V5
sS'trials.thisRepN'
p212
I0
sg66
Vplane
p213
sg63
V../experiment_stimuli/bw_bc_bl/Nonliving_Things/Vehicles/plane_0.jpg
p214
sg21
F3.3373170968843624
sS'trials.thisTrialN'
p215
I11
sa(dp216
g31
g32
sg17
F63.368935180129483
sg24
I0
sg35
g39
sg14
F63.349598680972122
sg16
g36
(g70
S'\x02\x00\x00\x00'
tRp217
sg42
g43
sg46
g47
sg15
g72
sg22
F65.384667521342635
sg64
g73
sg62
g74
sg49
g50
sS'trials.thisN'
p218
I12
sg19
I0
sg27
g36
(g38
S'\x00\x00\x00\x00\x00\x00\x1e@'
tRp219
sg52
g53
sg23
S'2'
sg18
F64.592215405544266
sg33
g34
sg51
g11
sg20
S'1'
sg65
g36
(g77
S'\x00\x00\x00\x00\x00\x00\x00\x00'
tRp220
sg44
g45
sg40
g41
sg25
F2.8865141608985141
sS'trials.thisIndex'
p221
g36
(g80
S'!\x00\x00\x00'
tRp222
sg26
V5
sS'trials.thisRepN'
p223
I0
sg66
Vgoldfinch
p224
sg63
V../experiment_stimuli/bw_bc_bl/Living_Things/Birds/goldfinch_14.jpg
p225
sg21
F0.77190305083058774
sS'trials.thisTrialN'
p226
I12
sa(dp227
g31
g32
sg17
F70.038258074317127
sg24
I0
sg35
g39
sg14
F70.004100955906324
sg16
g36
(g70
S'\x01\x00\x00\x00'
tRp228
sg42
g43
sg46
g47
sg15
g88
sg22
F72.590352364699356
sg64
g73
sg62
g74
sg49
g50
sS'trials.thisN'
p229
I13
sg19
I1
sg27
g36
(g38
S'\x00\x00\x00\x00\x00\x00\x18@'
tRp230
sg52
g53
sg23
S'3'
sg18
F71.26675313047599
sg33
g34
sg51
g11
sg20
S'1'
sg65
g36
(g77
S'\x00\x00\x00\x00\x00\x00\x00\x00'
tRp231
sg44
g45
sg40
g41
sg25
F1.0425060580018908
sS'trials.thisIndex'
p232
g36
(g80
S'*\x00\x00\x00'
tRp233
sg26
V5
sS'trials.thisRepN'
p234
I0
sg66
Vhummingbird
p235
sg63
V../experiment_stimuli/bw_bc_bl/Living_Things/Birds/hummingbird_2.jpg
p236
sg21
F1.3030549174873158
sS'trials.thisTrialN'
p237
I13
sa(dp238
g31
g32
sg17
F75.382495783851482
sg24
I0
sg35
g39
sg14
F75.365766072296537
sg16
g36
(g70
S'\x01\x00\x00\x00'
tRp239
sg42
g43
sg46
g47
sg15
g72
sg22
F77.360756903421134
sg64
g172
sg62
g102
sg49
g50
sS'trials.thisN'
p240
I14
sg19
I1
sg27
g36
(g38
S'\x00\x00\x00\x00\x00\x00\x18@'
tRp241
sg52
g53
sg23
S'2'
sg18
F76.608375672716647
sg33
g34
sg51
g11
sg20
S'1'
sg65
g36
(g77
S'\x00\x00\x00\x00\x00\x00\x00\x00'
tRp242
sg44
g45
sg40
g41
sg25
F0.35097177908755839
sS'trials.thisIndex'
p243
g36
(g80
S'\x16\x00\x00\x00'
tRp244
sg26
V5
sS'trials.thisRepN'
p245
I0
sg66
Vcup
p246
sg63
V../experiment_stimuli/bw_bc_bl/Nonliving_Things/Kitchen_Uten/cup_4.jpg
p247
sg21
F0.73181013949215412
sS'trials.thisTrialN'
p248
I14
sa(dp249
g31
g32
sg17
F79.472336158622056
sg24
I0
sg35
g39
sg14
F79.444662275374867
sg16
g36
(g70
S'\x01\x00\x00\x00'
tRp250
sg42
g43
sg46
g47
sg15
g88
sg22
F81.730271766893566
sg64
g89
sg62
g74
sg49
g50
sS'trials.thisN'
p251
I15
sg19
I1
sg27
g36
(g38
S'\x00\x00\x00\x00\x00\x00\x18@'
tRp252
sg52
g53
sg23
S'3'
sg18
F80.697280798223801
sg33
g34
sg51
g11
sg20
S'1'
sg65
g36
(g77
S'\x00\x00\x00\x00\x00\x00\x00\x00'
tRp253
sg44
g45
sg40
g41
sg25
F0.32099237164948136
sS'trials.thisIndex'
p254
g36
(g80
S'\x14\x00\x00\x00'
tRp255
sg26
V5
sS'trials.thisRepN'
p256
I0
sg66
Vcow
p257
sg63
V../experiment_stimuli/bw_bc_bl/Living_Things/Animals/cow_9.jpg
p258
sg21
F1.0124230502406135
sS'trials.thisTrialN'
p259
I15
sa(dp260
g31
g32
sg17
F83.811287452001125
sg24
I0
sg35
g39
sg14
F83.784105965518393
sg16
g36
(g70
S'\x02\x00\x00\x00'
tRp261
sg42
g43
sg46
g47
sg15
g72
sg22
F88.354713853448629
sg64
g73
sg62
g74
sg49
g50
sS'trials.thisN'
p262
I16
sg19
I0
sg27
g36
(g38
S'\x00\x00\x00\x00\x00\x00\x1a@'
tRp263
sg52
g53
sg23
S'2'
sg18
F85.036728503415361
sg33
g34
sg51
g11
sg20
S'1'
sg65
g36
(g77
S'\x00\x00\x00\x00\x00\x00\x00\x00'
tRp264
sg44
g45
sg40
g41
sg25
F0.15060805506072938
sS'trials.thisIndex'
p265
g36
(g80
S'8\x00\x00\x00'
tRp266
sg26
V5
sS'trials.thisRepN'
p267
I0
sg66
Vostrich
p268
sg63
V../experiment_stimuli/bw_bc_bl/Living_Things/Birds/ostrich_18.jpg
p269
sg21
F3.2974066046299413
sS'trials.thisTrialN'
p270
I16
sa(dp271
g31
g32
sg17
F90.264603417832404
sg24
I1
sg35
g39
sg14
F90.238150179502554
sg16
g36
(g70
S'\x01\x00\x00\x00'
tRp272
sg42
g43
sg46
g47
sg15
g88
sg22
F92.914614344597794
sg64
g160
sg62
g74
sg49
g50
sS'trials.thisN'
p273
I17
sg19
I0
sg27
g36
(g38
S'\x00\x00\x00\x00\x00\x00\x18@'
tRp274
sg52
g53
sg23
S'1'
sg18
F91.490787875140086
sg33
g34
sg51
g11
sg20
S'2'
sg65
g36
(g77
S'\x00\x00\x00\x00\x00\x00\x00\x00'
tRp275
sg44
g45
sg40
g41
sg25
F0.2808160400018096
sS'trials.thisIndex'
p276
g36
(g80
S'+\x00\x00\x00'
tRp277
sg26
V5
sS'trials.thisRepN'
p278
I0
sg66
Vkiller-whale
p279
sg63
V../experiment_stimuli/bw_bc_bl/Living_Things/Marine_creatures/killer-whale_21.jpg
p280
sg21
F1.4032749837497249
sS'trials.thisTrialN'
p281
I17
sa(dp282
g31
g32
sg17
F94.954601696110331
sg24
I0
sg35
g39
sg14
F94.928370368783362
sg16
g36
(g70
S'\x02\x00\x00\x00'
tRp283
sg42
g43
sg46
g47
sg15
g88
sg22
F97.093718606629409
sg64
VMusical_Inst
p284
sg62
g102
sg49
g50
sS'trials.thisN'
p285
I18
sg19
I1
sg27
g36
(g38
S'\x00\x00\x00\x00\x00\x00\x18@'
tRp286
sg52
g53
sg23
S'2'
sg18
F96.191016637487337
sg33
g34
sg51
g11
sg20
S'2'
sg65
g36
(g77
S'\x00\x00\x00\x00\x00\x00\x00\x00'
tRp287
sg44
g45
sg40
g41
sg25
F0.24073298962321132
sS'trials.thisIndex'
p288
g36
(g80
S'\\\x00\x00\x00'
tRp289
sg26
V5
sS'trials.thisRepN'
p290
I0
sg66
Vviolin
p291
sg63
V../experiment_stimuli/bw_bc_bl/Nonliving_Things/Musical_Inst/violin_10.jpg
p292
sg21
F0.88214087823871523
sS'trials.thisTrialN'
p293
I18
sa(dp294
g31
g32
sg17
F99.083035930874757
sg24
I1
sg35
g39
sg14
F99.067381757078692
sg16
g36
(g70
S'\x02\x00\x00\x00'
tRp295
sg42
g43
sg46
g47
sg15
g88
sg22
F101.81384384341072
sg64
g137
sg62
g102
sg49
g50
sS'trials.thisN'
p296
I19
sg19
I1
sg27
g36
(g38
S'\x00\x00\x00\x00\x00\x00\x18@'
tRp297
sg52
g53
sg23
S'1'
sg18
F100.30998472589999
sg33
g34
sg51
g11
sg20
S'2'
sg65
g36
(g77
S'\x00\x00\x00\x00\x00\x00\x00\x00'
tRp298
sg44
g45
sg40
g41
sg25
F0.16056918504182249
sS'trials.thisIndex'
p299
g36
(g80
S'\x05\x00\x00\x00'
tRp300
sg26
V5
sS'trials.thisRepN'
p301
I0
sg66
Vbed
p302
sg63
V../experiment_stimuli/bw_bc_bl/Nonliving_Things/Furniture/bed_24.jpg
p303
sg21
F1.4832891243277118
sS'trials.thisTrialN'
p304
I19
sa(dp305
g31
g32
sg17
F103.72795259556733
sg24
I0
sg35
g39
sg14
F103.70749249949586
sg16
g36
(g70
S'\x02\x00\x00\x00'
tRp306
sg42
g43
sg46
g47
sg15
g72
sg22
F108.47852869681083
sg64
g160
sg62
g74
sg49
g50
sS'trials.thisN'
p307
I20
sg19
I1
sg27
g36
(g38
S'\x00\x00\x00\x00\x00\x00\x1a@'
tRp308
sg52
g53
sg23
S'3'
sg18
F104.98015710432082
sg33
g34
sg51
g11
sg20
S'2'
sg65
g36
(g77
S'\x00\x00\x00\x00\x00\x00\x00\x00'
tRp309
sg44
g45
sg40
g41
sg25
F0.59152848843950778
sS'trials.thisIndex'
p310
g36
(g80
S'K\x00\x00\x00'
tRp311
sg26
V5
sS'trials.thisRepN'
p312
I0
sg66
Vshark
p313
sg63
V../experiment_stimuli/bw_bc_bl/Living_Things/Marine_creatures/shark_10.jpg
p314
sg21
F3.4778034751070663
sS'trials.thisTrialN'
p315
I20
sa(dp316
g31
g32
sg17
F110.82922001555562
sg24
I0
sg35
g39
sg14
F110.80293595953844
sg16
g36
(g70
S'\x02\x00\x00\x00'
tRp317
sg42
g43
sg46
g47
sg15
g88
sg22
F112.85807070066221
sg64
g206
sg62
g102
sg49
g50
sS'trials.thisN'
p318
I21
sg19
I0
sg27
g36
(g38
S'\x00\x00\x00\x00\x00\x00\x18@'
tRp319
sg52
g53
sg23
S'2'
sg18
F112.05556397105101
sg33
g34
sg51
g11
sg20
S'1'
sg65
g36
(g77
S'\x00\x00\x00\x00\x00\x00\x00\x00'
tRp320
sg44
g45
sg40
g41
sg25
F0.21066725591663271
sS'trials.thisIndex'
p321
g36
(g80
S'[\x00\x00\x00'
tRp322
sg26
V5
sS'trials.thisRepN'
p323
I0
sg66
Vvan
p324
sg63
V../experiment_stimuli/bw_bc_bl/Nonliving_Things/Vehicles/van_23.jpg
p325
sg21
F0.78192608989775181
sS'trials.thisTrialN'
p326
I21
sa(dp327
g31
g32
sg17
F114.83302254765294
sg24
I1
sg35
g39
sg14
F114.80164260638412
sg16
g36
(g70
S'\x02\x00\x00\x00'
tRp328
sg42
g43
sg46
g47
sg15
g88
sg22
F116.97704345814418
sg64
g206
sg62
g102
sg49
g50
sS'trials.thisN'
p329
I22
sg19
I1
sg27
g36
(g38
S'\x00\x00\x00\x00\x00\x00\x18@'
tRp330
sg52
g53
sg23
S'1'
sg18
F116.05426959181204
sg33
g34
sg51
g11
sg20
S'2'
sg65
g36
(g77
S'\x00\x00\x00\x00\x00\x00\x00\x00'
tRp331
sg44
g45
sg40
g41
sg25
F0.28082520910538733
sS'trials.thisIndex'
p332
g36
(g80
S'W\x00\x00\x00'
tRp333
sg26
V5
sS'trials.thisRepN'
p334
I0
sg66
Vtrain
p335
sg63
V../experiment_stimuli/bw_bc_bl/Nonliving_Things/Vehicles/train_11.jpg
p336
sg21
F0.90219697100110352
sS'trials.thisTrialN'
p337
I22
sa(dp338
g31
g32
sg17
F119.04993419302627
sg24
I0
sg35
g39
sg14
F118.99077113310341
sg16
g36
(g70
S'\x02\x00\x00\x00'
tRp339
sg42
g43
sg46
g47
sg15
g88
sg22
F123.45112553960644
sg64
g137
sg62
g102
sg49
g50
sS'trials.thisN'
p340
I23
sg19
I1
sg27
g36
(g38
S'\x00\x00\x00\x00\x00\x00\x1e@'
tRp341
sg52
g53
sg23
S'3'
sg18
F120.30352544225752
sg33
g34
sg51
g11
sg20
S'2'
sg65
g36
(g77
S'\x00\x00\x00\x00\x00\x00\x00\x00'
tRp342
sg44
g45
sg40
g41
sg25
F1.5235360264778137
sS'trials.thisIndex'
p343
g36
(g80
S'.\x00\x00\x00'
tRp344
sg26
V5
sS'trials.thisRepN'
p345
I0
sg66
Vlamp
p346
sg63
V../experiment_stimuli/bw_bc_bl/Nonliving_Things/Furniture/lamp_13.jpg
p347
sg21
F3.1270344497170299
sS'trials.thisTrialN'
p348
I23
sa(dp349
g31
g32
sg17
F126.73691554344259
sg24
I1
sg35
g39
sg14
F126.70758479076903
sg16
g36
(g70
S'\x02\x00\x00\x00'
tRp350
sg42
g43
sg46
g47
sg15
g88
sg22
F129.4842665939359
sg64
g137
sg62
g102
sg49
g50
sS'trials.thisN'
p351
I24
sg19
I1
sg27
g36
(g38
S'\x00\x00\x00\x00\x00\x00\x18@'
tRp352
sg52
g53
sg23
S'1'
sg18
F127.97021702560596
sg33
g34
sg51
g11
sg20
S'2'
sg65
g36
(g77
S'\x00\x00\x00\x00\x00\x00\x00\x00'
tRp353
sg44
g45
sg40
g41
sg25
F0.23071009328123182
sS'trials.thisIndex'
p354
g36
(g80
S']\x00\x00\x00'
tRp355
sg26
V5
sS'trials.thisRepN'
p356
I0
sg66
Vwardrobe
p357
sg63
V../experiment_stimuli/bw_bc_bl/Nonliving_Things/Furniture/wardrobe_10.jpg
p358
sg21
F1.4934691162779927
sS'trials.thisTrialN'
p359
I24
sa(dp360
g31
g32
sg17
F131.48098271456547
sg24
I0
sg35
g39
sg14
F131.44789464888163
sg16
g36
(g70
S'\x01\x00\x00\x00'
tRp361
sg42
g43
sg46
g47
sg15
g88
sg22
F133.63328125805128
sg64
g73
sg62
g74
sg49
g50
sS'trials.thisN'
p362
I25
sg19
I1
sg27
g36
(g38
S'\x00\x00\x00\x00\x00\x00\x1e@'
tRp363
sg52
g53
sg23
S'2'
sg18
F132.72056446759962
sg33
g34
sg51
g11
sg20
S'1'
sg65
g36
(g77
S'\x00\x00\x00\x00\x00\x00\x00\x00'
tRp364
sg44
g45
sg40
g41
sg25
F0.7217829804867506
sS'trials.thisIndex'
p365
g36
(g80
S'\x04\x00\x00\x00'
tRp366
sg26
V5
sS'trials.thisRepN'
p367
I0
sg66
Vbarn-owl
p368
sg63
V../experiment_stimuli/bw_bc_bl/Living_Things/Birds/barn-owl_10.jpg
p369
sg21
F0.89216200716327876
sS'trials.thisTrialN'
p370
I25
sa(dp371
g31
g32
sg17
F136.11887319548987
sg24
I0
sg35
g39
sg14
F136.08799759077374
sg16
g36
(g70
S'\x02\x00\x00\x00'
tRp372
sg42
g43
sg46
g47
sg15
g72
sg22
F139.3858299391577
sg64
g160
sg62
g74
sg49
g50
sS'trials.thisN'
p373
I26
sg19
I1
sg27
g36
(g38
S'\x00\x00\x00\x00\x00\x00\x18@'
tRp374
sg52
g53
sg23
S'2'
sg18
F137.3506445888197
sg33
g34
sg51
g11
sg20
S'2'
sg65
g36
(g77
S'\x00\x00\x00\x00\x00\x00\x00\x00'
tRp375
sg44
g45
sg40
g41
sg25
F0.26078181178309023
sS'trials.thisIndex'
p376
g36
(g80
S'\x17\x00\x00\x00'
tRp377
sg26
V5
sS'trials.thisRepN'
p378
I0
sg66
Vdolphin
p379
sg63
V../experiment_stimuli/bw_bc_bl/Living_Things/Marine_creatures/dolphin_23.jpg
p380
sg21
F2.0046023515751585
sS'trials.thisTrialN'
p381
I26
sa(dp382
g31
g32
sg17
F141.40766300039832
sg24
I1
sg35
g39
sg14
F141.37951644195709
sg16
g36
(g70
S'\x01\x00\x00\x00'
tRp383
sg42
g43
sg46
g47
sg15
g72
sg22
F143.71524169563781
sg64
g284
sg62
g102
sg49
g50
sS'trials.thisN'
p384
I27
sg19
I1
sg27
g36
(g38
S'\x00\x00\x00\x00\x00\x00\x1c@'
tRp385
sg52
g53
sg23
S'1'
sg18
F142.63214676931966
sg33
g34
sg51
g11
sg20
S'1'
sg65
g36
(g77
S'\x00\x00\x00\x00\x00\x00\x00\x00'
tRp386
sg44
g45
sg40
g41
sg25
F0.23073183000087738
sS'trials.thisIndex'
p387
g36
(g80
S'H\x00\x00\x00'
tRp388
sg26
V5
sS'trials.thisRepN'
p389
I0
sg66
Vsaxophone
p390
sg63
V../experiment_stimuli/bw_bc_bl/Nonliving_Things/Musical_Inst/saxophone_10.jpg
p391
sg21
F1.0625374442897737
sS'trials.thisTrialN'
p392
I27
sa(dp393
g31
g32
sg17
F145.70536442473531
sg24
I0
sg35
g39
sg14
F145.67888021678664
sg16
g36
(g70
S'\x01\x00\x00\x00'
tRp394
sg42
g43
sg46
g47
sg15
g88
sg22
F148.99680378159974
sg64
g73
sg62
g74
sg49
g50
sS'trials.thisN'
p395
I28
sg19
I1
sg27
g36
(g38
S'\x00\x00\x00\x00\x00\x00\x18@'
tRp396
sg52
g53
sg23
S'2'
sg18
F146.95156264060643
sg33
g34
sg51
g11
sg20
S'1'
sg65
g36
(g77
S'\x00\x00\x00\x00\x00\x00\x00\x00'
tRp397
sg44
g45
sg40
g41
sg25
F0.29084374464582652
sS'trials.thisIndex'
p398
g36
(g80
S'3\x00\x00\x00'
tRp399
sg26
V5
sS'trials.thisRepN'
p400
I0
sg66
Vmagpie
p401
sg63
V../experiment_stimuli/bw_bc_bl/Living_Things/Birds/magpie_22.jpg
p402
sg21
F2.0246628167806193
sS'trials.thisTrialN'
p403
I28
sa(dp404
g31
g32
sg17
F151.0483091105707
sg24
I0
sg35
g39
sg14
F151.02051982260309
sg16
g36
(g70
S'\x01\x00\x00\x00'
tRp405
sg42
g43
sg46
g47
sg15
g72
sg22
F153.97760009020567
sg64
g137
sg62
g102
sg49
g50
sS'trials.thisN'
p406
I29
sg19
I1
sg27
g36
(g38
S'\x00\x00\x00\x00\x00\x00\x1a@'
tRp407
sg52
g53
sg23
S'2'
sg18
F152.28318349318579
sg33
g34
sg51
g11
sg20
S'1'
sg65
g36
(g77
S'\x00\x00\x00\x00\x00\x00\x00\x00'
tRp408
sg44
g45
sg40
g41
sg25
F0.15060636366251856
sS'trials.thisIndex'
p409
g36
(g80
S'/\x00\x00\x00'
tRp410
sg26
V5
sS'trials.thisRepN'
p411
I0
sg66
Vlectern
p412
sg63
V../experiment_stimuli/bw_bc_bl/Nonliving_Things/Furniture/lectern_1.jpg
p413
sg21
F1.6738729230128229
sS'trials.thisTrialN'
p414
I29
sa(dp415
g31
g32
sg17
F155.9029734096257
sg24
I1
sg35
g39
sg14
F155.86105898756068
sg16
g36
(g70
S'\x02\x00\x00\x00'
tRp416
sg42
g43
sg46
g47
sg15
g72
sg22
F158.43730098137166
sg64
g73
sg62
g74
sg49
g50
sS'trials.thisN'
p417
I30
sg19
I0
sg27
g36
(g38
S'\x00\x00\x00\x00\x00\x00\x1c@'
tRp418
sg52
g53
sg23
S'1'
sg18
F157.12370559817646
sg33
g34
sg51
g11
sg20
S'1'
sg65
g36
(g77
S'\x00\x00\x00\x00\x00\x00\x00\x00'
tRp419
sg44
g45
sg40
g41
sg25
F0.43115334282629192
sS'trials.thisIndex'
p420
g36
(g80
S'?\x00\x00\x00'
tRp421
sg26
V5
sS'trials.thisRepN'
p422
I0
sg66
Vpigeon
p423
sg63
V../experiment_stimuli/bw_bc_bl/Living_Things/Birds/pigeon_2.jpg
p424
sg21
F1.2930375062860548
sS'trials.thisTrialN'
p425
I30
sa(dp426
g31
g32
sg17
F160.62480768817477
sg24
I1
sg35
g39
sg14
F160.60137515782844
sg16
g36
(g70
S'\x01\x00\x00\x00'
tRp427
sg42
g43
sg46
g47
sg15
g88
sg22
F163.13754443137441
sg64
g73
sg62
g74
sg49
g50
sS'trials.thisN'
p428
I31
sg19
I0
sg27
g36
(g38
S'\x00\x00\x00\x00\x00\x00\x18@'
tRp429
sg52
g53
sg23
S'1'
sg18
F161.85400487610605
sg33
g34
sg51
g11
sg20
S'2'
sg65
g36
(g77
S'\x00\x00\x00\x00\x00\x00\x00\x00'
tRp430
sg44
g45
sg40
g41
sg25
F0.15053406730294228
sS'trials.thisIndex'
p431
g36
(g80
S';\x00\x00\x00'
tRp432
sg26
V5
sS'trials.thisRepN'
p433
I0
sg66
Vpartridge
p434
sg63
V../experiment_stimuli/bw_bc_bl/Living_Things/Birds/partridge_2.jpg
p435
sg21
F1.2629737313836813
sS'trials.thisTrialN'
p436
I31
sa(dp437
g31
g32
sg17
F165.03998903452884
sg24
I0
sg35
g39
sg14
F165.02100719325244
sg16
g36
(g70
S'\x01\x00\x00\x00'
tRp438
sg42
g43
sg46
g47
sg15
g72
sg22
F168.6092987486627
sg64
g206
sg62
g102
sg49
g50
sS'trials.thisN'
p439
I32
sg19
I0
sg27
g36
(g38
S'\x00\x00\x00\x00\x00\x00\x1a@'
tRp440
sg52
g53
sg23
S'2'
sg18
F166.283661029418
sg33
g34
sg51
g11
sg20
S'2'
sg65
g36
(g77
S'\x00\x00\x00\x00\x00\x00\x00\x00'
tRp441
sg44
g45
sg40
g41
sg25
F0.190631621517241
sS'trials.thisIndex'
p442
g36
(g80
S'\t\x00\x00\x00'
tRp443
sg26
V5
sS'trials.thisRepN'
p444
I0
sg66
Vbus
p445
sg63
V../experiment_stimuli/bw_bc_bl/Nonliving_Things/Vehicles/bus_18.jpg
p446
sg21
F2.3050819439813495
sS'trials.thisTrialN'
p447
I32
sa(dp448
g31
g32
sg17
F170.56388452509418
sg24
I0
sg35
g39
sg14
F170.53300395805854
sg16
g36
(g70
S'\x02\x00\x00\x00'
tRp449
sg42
g43
sg46
g47
sg15
g88
sg22
F172.78857498627622
sg64
g172
sg62
g102
sg49
g50
sS'trials.thisN'
p450
I33
sg19
I0
sg27
g36
(g38
S'\x00\x00\x00\x00\x00\x00\x1a@'
tRp451
sg52
g53
sg23
S'2'
sg18
F171.79565514007118
sg33
g34
sg51
g11
sg20
S'1'
sg65
g36
(g77
S'\x00\x00\x00\x00\x00\x00\x00\x00'
tRp452
sg44
g45
sg40
g41
sg25
F0.25075446092523634
sS'trials.thisIndex'
p453
g36
(g80
S'M\x00\x00\x00'
tRp454
sg26
V5
sS'trials.thisRepN'
p455
I0
sg66
Vsmall-saucepan
p456
sg63
V../experiment_stimuli/bw_bc_bl/Nonliving_Things/Kitchen_Uten/small-saucepan_7.jpg
p457
sg21
F0.9723462286638096
sS'trials.thisTrialN'
p458
I33
sa(dp459
g31
g32
sg17
F174.80374270211905
sg24
I0
sg35
g39
sg14
F174.77223139023408
sg16
g36
(g70
S'\x01\x00\x00\x00'
tRp460
sg42
g43
sg46
g47
sg15
g88
sg22
F176.74718523328193
sg64
g160
sg62
g74
sg49
g50
sS'trials.thisN'
p461
I34
sg19
I1
sg27
g36
(g38
S'\x00\x00\x00\x00\x00\x00\x1e@'
tRp462
sg52
g53
sg23
S'2'
sg18
F176.02486894303001
sg33
g34
sg51
g11
sg20
S'1'
sg65
g36
(g77
S'\x00\x00\x00\x00\x00\x00\x00\x00'
tRp463
sg44
g45
sg40
g41
sg25
F0.21066859795246273
sS'trials.thisIndex'
p464
g36
(g80
S'\x15\x00\x00\x00'
tRp465
sg26
V5
sS'trials.thisRepN'
p466
I0
sg66
Vcrab
p467
sg63
V../experiment_stimuli/bw_bc_bl/Living_Things/Marine_creatures/crab_7.jpg
p468
sg21
F0.70174954866524786
sS'trials.thisTrialN'
p469
I34
sa(dp470
g31
g32
sg17
F178.69691538868938
sg24
I1
sg35
g39
sg14
F178.6907852855511
sg16
g36
(g70
S'\x01\x00\x00\x00'
tRp471
sg42
g43
sg46
g47
sg15
g88
sg22
F181.66788243199699
sg64
g73
sg62
g74
sg49
g50
sS'trials.thisN'
p472
I35
sg19
I0
sg27
g36
(g38
S'\x00\x00\x00\x00\x00\x00\x18@'
tRp473
sg52
g53
sg23
S'1'
sg18
F179.92335159878712
sg33
g34
sg51
g11
sg20
S'2'
sg65
g36
(g77
S'\x00\x00\x00\x00\x00\x00\x00\x00'
tRp474
sg44
g45
sg40
g41
sg25
F0.26078089419752359
sS'trials.thisIndex'
p475
g36
(g80
S'\x1a\x00\x00\x00'
tRp476
sg26
V5
sS'trials.thisRepN'
p477
I0
sg66
Vduck
p478
sg63
V../experiment_stimuli/bw_bc_bl/Living_Things/Birds/duck_25.jpg
p479
sg21
F1.7239750840235502
sS'trials.thisTrialN'
p480
I35
sa(dp481
g31
g32
sg17
F183.67806674260646
sg24
I0
sg35
g39
sg14
F183.66159801720642
sg16
g36
(g70
S'\x01\x00\x00\x00'
tRp482
sg42
g43
sg46
g47
sg15
g72
sg22
F187.20994553947821
sg64
g137
sg62
g102
sg49
g50
sS'trials.thisN'
p483
I36
sg19
I1
sg27
g36
(g38
S'\x00\x00\x00\x00\x00\x00\x18@'
tRp484
sg52
g53
sg23
S'3'
sg18
F184.92424402281176
sg33
g34
sg51
g11
sg20
S'1'
sg65
g36
(g77
S'\x00\x00\x00\x00\x00\x00\x00\x00'
tRp485
sg44
g45
sg40
g41
sg25
F0.33093940385151654
sS'trials.thisIndex'
p486
g36
(g80
S'N\x00\x00\x00'
tRp487
sg26
V5
sS'trials.thisRepN'
p488
I0
sg66
Vsofa
p489
sg63
V../experiment_stimuli/bw_bc_bl/Nonliving_Things/Furniture/sofa_22.jpg
p490
sg21
F2.2651502296794206
sS'trials.thisTrialN'
p491
I36
sa(dp492
g31
g32
sg17
F189.30364359577652
sg24
I0
sg35
g39
sg14
F189.27381310041528
sg16
g36
(g70
S'\x01\x00\x00\x00'
tRp493
sg42
g43
sg46
g47
sg15
g88
sg22
F192.0404722255189
sg64
g73
sg62
g74
sg49
g50
sS'trials.thisN'
p494
I37
sg19
I1
sg27
g36
(g38
S'\x00\x00\x00\x00\x00\x00\x18@'
tRp495
sg52
g53
sg23
S'2'
sg18
F190.52644635608885
sg33
g34
sg51
g11
sg20
S'1'
sg65
g36
(g77
S'\x00\x00\x00\x00\x00\x00\x00\x00'
tRp496
sg44
g45
sg40
g41
sg25
F0.81200196628924459
sS'trials.thisIndex'
p497
g36
(g80
S',\x00\x00\x00'
tRp498
sg26
V5
sS'trials.thisRepN'
p499
I0
sg66
Vkiwi
p500
sg63
V../experiment_stimuli/bw_bc_bl/Living_Things/Birds/kiwi_8.jpg
p501
sg21
F1.4934822515351698
sS'trials.thisTrialN'
p502
I37
sa(dp503
g31
g32
sg17
F194.62160994485021
sg24
I0
sg35
g39
sg14
F194.58537634508684
sg16
g36
(g70
S'\x01\x00\x00\x00'
tRp504
sg42
g43
sg46
g47
sg15
g88
sg22
F197.21173295448534
sg64
g89
sg62
g74
sg49
g50
sS'trials.thisN'
p505
I38
sg19
I1
sg27
g36
(g38
S'\x00\x00\x00\x00\x00\x00\x18@'
tRp506
sg52
g53
sg23
S'2'
sg18
F195.84803468128666
sg33
g34
sg51
g11
sg20
S'1'
sg65
g36
(g77
S'\x00\x00\x00\x00\x00\x00\x00\x00'
tRp507
sg44
g45
sg40
g41
sg25
F0.25075650599319488
sS'trials.thisIndex'
p508
g36
(g80
S'\r\x00\x00\x00'
tRp509
sg26
V5
sS'trials.thisRepN'
p510
I0
sg66
Vcat
p511
sg63
V../experiment_stimuli/bw_bc_bl/Living_Things/Animals/cat_25.jpg
p512
sg21
F1.3431428362382576
sS'trials.thisTrialN'
p513
I38
sa(dp514
g31
g32
sg17
F199.2235113006318
sg24
I1
sg35
g39
sg14
F199.1954229256371
sg16
g36
(g70
S'\x01\x00\x00\x00'
tRp515
sg42
g43
sg46
g47
sg15
g72
sg22
F201.15032614220399
sg64
g172
sg62
g102
sg49
g50
sS'trials.thisN'
p516
I39
sg19
I0
sg27
g36
(g38
S'\x00\x00\x00\x00\x00\x00\x18@'
tRp517
sg52
g53
sg23
S'1'
sg18
F200.44805435813032
sg33
g34
sg51
g11
sg20
S'2'
sg65
g36
(g77
S'\x00\x00\x00\x00\x00\x00\x00\x00'
tRp518
sg44
g45
sg40
g41
sg25
F0.73181121109519154
sS'trials.thisIndex'
p519
g36
(g80
S'S\x00\x00\x00'
tRp520
sg26
V5
sS'trials.thisRepN'
p521
I0
sg66
Vteapot
p522
sg63
V../experiment_stimuli/bw_bc_bl/Nonliving_Things/Kitchen_Uten/teapot_17.jpg
p523
sg21
F0.68170271895360202
sS'trials.thisTrialN'
p524
I39
sa(dp525
g31
g32
sg17
F203.63232523470651
sg24
I1
sg35
g39
sg14
F203.61504475853872
sg16
g36
(g70
S'\x02\x00\x00\x00'
tRp526
sg42
g43
sg46
g47
sg15
g88
sg22
F207.24358822358772
sg64
g137
sg62
g102
sg49
g50
sS'trials.thisN'
p527
I40
sg19
I1
sg27
g36
(g38
S'\x00\x00\x00\x00\x00\x00\x1a@'
tRp528
sg52
g53
sg23
S'1'
sg18
F204.86767311953008
sg33
g34
sg51
g11
sg20
S'2'
sg65
g36
(g77
S'\x00\x00\x00\x00\x00\x00\x00\x00'
tRp529
sg44
g45
sg40
g41
sg25
F0.25075571658089757
sS'trials.thisIndex'
p530
g36
(g80
S'E\x00\x00\x00'
tRp531
sg26
V5
sS'trials.thisRepN'
p532
I0
sg66
Vrocking-chair
p533
sg63
V../experiment_stimuli/bw_bc_bl/Nonliving_Things/Furniture/rocking-chair_25.jpg
p534
sg21
F2.3553480617702007
sS'trials.thisTrialN'
p535
I40
sa(dp536
g31
g32
sg17
F209.25650606118143
sg24
I0
sg35
g39
sg14
F209.22727271355689
sg16
g36
(g70
S'\x01\x00\x00\x00'
tRp537
sg42
g43
sg46
g47
sg15
g72
sg22
F212.71550116722938
sg64
g206
sg62
g102
sg49
g50
sS'trials.thisN'
p538
I41
sg19
I0
sg27
g36
(g38
S'\x00\x00\x00\x00\x00\x00\x1a@'
tRp539
sg52
g53
sg23
S'2'
sg18
F210.49993982200976
sg33
g34
sg51
g11
sg20
S'2'
sg65
g36
(g77
S'\x00\x00\x00\x00\x00\x00\x00\x00'
tRp540
sg44
g45
sg40
g41
sg25
F0.29084294370841235
sS'trials.thisIndex'
p541
g36
(g80
S'L\x00\x00\x00'
tRp542
sg26
V5
sS'trials.thisRepN'
p543
I0
sg66
Vship
p544
sg63
V../experiment_stimuli/bw_bc_bl/Nonliving_Things/Vehicles/ship_6.jpg
p545
sg21
F2.1949984157690778
sS'trials.thisTrialN'
p546
I41
sa(dp547
g31
g32
sg17
F214.77211552404333
sg24
I1
sg35
g39
sg14
F214.7392707640538
sg16
g36
(g70
S'\x01\x00\x00\x00'
tRp548
sg42
g43
sg46
g47
sg15
g72
sg22
F218.56827941059601
sg64
VBuildings
p549
sg62
g102
sg49
g50
sS'trials.thisN'
p550
I42
sg19
I1
sg27
g36
(g38
S'\x00\x00\x00\x00\x00\x00\x1a@'
tRp551
sg52
g53
sg23
S'1'
sg18
F216.00193708518054
sg33
g34
sg51
g11
sg20
S'1'
sg65
g36
(g77
S'\x00\x00\x00\x00\x00\x00\x00\x00'
tRp552
sg44
g45
sg40
g41
sg25
F0.37101655616424978
sS'trials.thisIndex'
p553
g36
(g80
S'\x11\x00\x00\x00'
tRp554
sg26
V5
sS'trials.thisRepN'
p555
I0
sg66
Vchurch
p556
sg63
V../experiment_stimuli/bw_bc_bl/Nonliving_Things/Buildings/church_4.jpg
p557
sg21
F2.5457783808233216
sS'trials.thisTrialN'
p558
I42
sa(dp559
g31
g32
sg17
F220.71007732651196
sg24
I0
sg35
g39
sg14
F220.67218706419226
sg16
g36
(g70
S'\x02\x00\x00\x00'
tRp560
sg42
g43
sg46
g47
sg15
g72
sg22
F222.94780488463584
sg64
g73
sg62
g74
sg49
g50
sS'trials.thisN'
p561
I43
sg19
I1
sg27
g36
(g38
S'\x00\x00\x00\x00\x00\x00\x1a@'
tRp562
sg52
g53
sg23
S'3'
sg18
F221.96491191571113
sg33
g34
sg51
g11
sg20
S'2'
sg65
g36
(g77
S'\x00\x00\x00\x00\x00\x00\x00\x00'
tRp563
sg44
g45
sg40
g41
sg25
F0.54140344797633588
sS'trials.thisIndex'
p564
g36
(g80
S'O\x00\x00\x00'
tRp565
sg26
V5
sS'trials.thisRepN'
p566
I0
sg66
Vsparrow
p567
sg63
V../experiment_stimuli/bw_bc_bl/Living_Things/Birds/sparrow_11.jpg
p568
sg21
F0.96233662974555045
sS'trials.thisTrialN'
p569
I43
sa(dp570
g31
g32
sg17
F225.24181070306804
sg24
I1
sg35
g39
sg14
F225.22209676448256
sg16
g36
(g70
S'\x02\x00\x00\x00'
tRp571
sg42
g43
sg46
g47
sg15
g88
sg22
F226.97655252111144
sg64
g206
sg62
g102
sg49
g50
sS'trials.thisN'
p572
I44
sg19
I1
sg27
g36
(g38
S'\x00\x00\x00\x00\x00\x00\x18@'
tRp573
sg52
g53
sg23
S'1'
sg18
F226.47472674190067
sg33
g34
sg51
g11
sg20
S'2'
sg65
g36
(g77
S'\x00\x00\x00\x00\x00\x00\x00\x00'
tRp574
sg44
g45
sg40
g41
sg25
F0.27080647822003812
sS'trials.thisIndex'
p575
g36
(g80
S'\x0b\x00\x00\x00'
tRp576
sg26
V5
sS'trials.thisRepN'
p577
I0
sg66
Vcar
p578
sg63
V../experiment_stimuli/bw_bc_bl/Nonliving_Things/Vehicles/car_17.jpg
p579
sg21
F0.48127460887189955
sS'trials.thisTrialN'
p580
I44
sa(dp581
g31
g32
sg17
F228.98665891133714
sg24
I0
sg35
g39
sg14
F228.98031230282504
sg16
g36
(g70
S'\x01\x00\x00\x00'
tRp582
sg42
g43
sg46
g47
sg15
g88
sg22
F232.95959818479605
sg64
g89
sg62
g74
sg49
g50
sS'trials.thisN'
p583
I45
sg19
I0
sg27
g36
(g38
S'\x00\x00\x00\x00\x00\x00\x18@'
tRp584
sg52
g53
sg23
S'2'
sg18
F230.25296309916303
sg33
g34
sg51
g11
sg20
S'2'
sg65
g36
(g77
S'\x00\x00\x00\x00\x00\x00\x00\x00'
tRp585
sg44
g45
sg40
g41
sg25
F0.26077887567225844
sS'trials.thisIndex'
p586
g36
(g80
S'2\x00\x00\x00'
tRp587
sg26
V5
sS'trials.thisRepN'
p588
I0
sg66
Vlynx
p589
sg63
V../experiment_stimuli/bw_bc_bl/Living_Things/Animals/lynx_26.jpg
p590
sg21
F2.6860599155770615
sS'trials.thisTrialN'
p591
I45
sa(dp592
g31
g32
sg17
F234.95842602336779
sg24
I0
sg35
g39
sg14
F234.95330083777662
sg16
g36
(g70
S'\x01\x00\x00\x00'
tRp593
sg42
g43
sg46
g47
sg15
g72
sg22
F241.89906598825473
sg64
g549
sg62
g102
sg49
g50
sS'trials.thisN'
p594
I46
sg19
I0
sg27
g36
(g38
S'\x00\x00\x00\x00\x00\x00\x1a@'
tRp595
sg52
g53
sg23
S'2'
sg18
F236.2159409862943
sg33
g34
sg51
g11
sg20
S'2'
sg65
g36
(g77
S'\x00\x00\x00\x00\x00\x00\x00\x00'
tRp596
sg44
g45
sg40
g41
sg25
F0.60154477180913091
sS'trials.thisIndex'
p597
g36
(g80
S'\x1c\x00\x00\x00'
tRp598
sg26
V5
sS'trials.thisRepN'
p599
I0
sg66
Vfactory
p600
sg63
V../experiment_stimuli/bw_bc_bl/Nonliving_Things/Buildings/factory_18.jpg
p601
sg21
F5.662549891974777
sS'trials.thisTrialN'
p602
I46
sa(dp603
g31
g32
sg17
F244.23860074975528
sg24
I0
sg35
g39
sg14
F244.233504695585
sg16
g36
(g70
S'\x01\x00\x00\x00'
tRp604
sg42
g43
sg46
g47
sg15
g72
sg22
F249.255104194046
sg64
g137
sg62
g102
sg49
g50
sS'trials.thisN'
p605
I47
sg19
I1
sg27
g36
(g38
S'\x00\x00\x00\x00\x00\x00\x18@'
tRp606
sg52
g53
sg23
S'2'
sg18
F245.48614829697181
sg33
g34
sg51
g11
sg20
S'1'
sg65
g36
(g77
S'\x00\x00\x00\x00\x00\x00\x00\x00'
tRp607
sg44
g45
sg40
g41
sg25
F0.25077544176019728
sS'trials.thisIndex'
p608
g36
(g80
S'\x1d\x00\x00\x00'
tRp609
sg26
V5
sS'trials.thisRepN'
p610
I0
sg66
Vfilling-cabinet
p611
sg63
V../experiment_stimuli/bw_bc_bl/Nonliving_Things/Furniture/filling-cabinet_14.jpg
p612
sg21
F3.7484044972807169
sS'trials.thisTrialN'
p613
I47
sa(dp614
g31
g32
sg17
F251.27062488347292
sg24
I0
sg35
g39
sg14
F251.23875048139598
sg16
g36
(g70
S'\x01\x00\x00\x00'
tRp615
sg42
g43
sg46
g47
sg15
g88
sg22
F254.24594489496667
sg64
g73
sg62
g74
sg49
g50
sS'trials.thisN'
p616
I48
sg19
I0
sg27
g36
(g38
S'\x00\x00\x00\x00\x00\x00\x1a@'
tRp617
sg52
g53
sg23
S'2'
sg18
F252.50141415558755
sg33
g34
sg51
g11
sg20
S'2'
sg65
g36
(g77
S'\x00\x00\x00\x00\x00\x00\x00\x00'
tRp618
sg44
g45
sg40
g41
sg25
F0.27080267376732081
sS'trials.thisIndex'
p619
g36
(g80
S'=\x00\x00\x00'
tRp620
sg26
V5
sS'trials.thisRepN'
p621
I0
sg66
Vpenguin
p622
sg63
V../experiment_stimuli/bw_bc_bl/Living_Things/Birds/penguin_26.jpg
p623
sg21
F1.7239763997495174
sS'trials.thisTrialN'
p624
I48
sa(dp625
g31
g32
sg17
F256.28027320548426
sg24
I0
sg35
g39
sg14
F256.2496929023182
sg16
g36
(g70
S'\x01\x00\x00\x00'
tRp626
sg42
g43
sg46
g47
sg15
g72
sg22
F258.02418096258771
sg64
g549
sg62
g102
sg49
g50
sS'trials.thisN'
p627
I49
sg19
I1
sg27
g36
(g38
S'\x00\x00\x00\x00\x00\x00 @'
tRp628
sg52
g53
sg23
S'2'
sg18
F257.50231342914049
sg33
g34
sg51
g11
sg20
S'1'
sg65
g36
(g77
S'\x00\x00\x00\x00\x00\x00\x00\x00'
tRp629
sg44
g45
sg40
g41
sg25
F0.23074888985138386
sS'trials.thisIndex'
p630
g36
(g80
S'5\x00\x00\x00'
tRp631
sg26
V5
sS'trials.thisRepN'
p632
I0
sg66
Vmill
p633
sg63
V../experiment_stimuli/bw_bc_bl/Nonliving_Things/Buildings/mill_8.jpg
p634
sg21
F0.5013088749255985
sS'trials.thisTrialN'
p635
I49
sa(dp636
g31
g32
sg17
F260.01926907454617
sg24
I0
sg35
g39
sg14
F259.98780068708584
sg16
g36
(g70
S'\x01\x00\x00\x00'
tRp637
sg42
g43
sg46
g47
sg15
g72
sg22
F262.29346574866213
sg64
g549
sg62
g102
sg49
g50
sS'trials.thisN'
p638
I50
sg19
I0
sg27
g36
(g38
S'\x00\x00\x00\x00\x00\x00\x1a@'
tRp639
sg52
g53
sg23
S'2'
sg18
F261.24043529608753
sg33
g34
sg51
g11
sg20
S'2'
sg65
g36
(g77
S'\x00\x00\x00\x00\x00\x00\x00\x00'
tRp640
sg44
g45
sg40
g41
sg25
F0.29084978206083179
sS'trials.thisIndex'
p641
g36
(g80
S')\x00\x00\x00'
tRp642
sg26
V5
sS'trials.thisRepN'
p643
I0
sg66
Vhouse
p644
sg63
V../experiment_stimuli/bw_bc_bl/Nonliving_Things/Buildings/house_7.jpg
p645
sg21
F1.0324698535259813
sS'trials.thisTrialN'
p646
I50
sa(dp647
g31
g32
sg17
F264.33987407619134
sg24
I1
sg35
g39
sg14
F264.31723106373101
sg16
g36
(g70
S'\x01\x00\x00\x00'
tRp648
sg42
g43
sg46
g47
sg15
g88
sg22
F266.26215327437967
sg64
g89
sg62
g74
sg49
g50
sS'trials.thisN'
p649
I51
sg19
I0
sg27
g36
(g38
S'\x00\x00\x00\x00\x00\x00\x18@'
tRp650
sg52
g53
sg23
S'1'
sg18
F265.55984185962006
sg33
g34
sg51
g11
sg20
S'2'
sg65
g36
(g77
S'\x00\x00\x00\x00\x00\x00\x00\x00'
tRp651
sg44
g45
sg40
g41
sg25
F0.10048286058008671
sS'trials.thisIndex'
p652
g36
(g80
S'\x10\x00\x00\x00'
tRp653
sg26
V5
sS'trials.thisRepN'
p654
I0
sg66
Vcheetah
p655
sg63
V../experiment_stimuli/bw_bc_bl/Living_Things/Animals/cheetah_7.jpg
p656
sg21
F0.68173602328170091
sS'trials.thisTrialN'
p657
I51
sa(dp658
g31
g32
sg17
F268.12167174869683
sg24
I0
sg35
g39
sg14
F268.09545743977651
sg16
g36
(g70
S'\x02\x00\x00\x00'
tRp659
sg42
g43
sg46
g47
sg15
g72
sg22
F275.60247061040718
sg64
g160
sg62
g74
sg49
g50
sS'trials.thisN'
p660
I52
sg19
I1
sg27
g36
(g38
S'\x00\x00\x00\x00\x00\x00\x1c@'
tRp661
sg52
g53
sg23
S'2'
sg18
F269.37815549317747
sg33
g34
sg51
g11
sg20
S'2'
sg65
g36
(g77
S'\x00\x00\x00\x00\x00\x00\x00\x00'
tRp662
sg44
g45
sg40
g41
sg25
F1.0424855056917295
sS'trials.thisIndex'
p663
g36
(g80
S'^\x00\x00\x00'
tRp664
sg26
V5
sS'trials.thisRepN'
p665
I0
sg66
Vwhale
p666
sg63
V../experiment_stimuli/bw_bc_bl/Living_Things/Marine_creatures/whale_19.jpg
p667
sg21
F6.2037318646907806
sS'trials.thisTrialN'
p668
I52
sa(dp669
g31
g32
sg17
F278.40349858836271
sg24
I0
sg35
g39
sg14
F278.3778463259805
sg16
g36
(g70
S'\x02\x00\x00\x00'
tRp670
sg42
g43
sg46
g47
sg15
g88
sg22
F282.36718958115671
sg64
g101
sg62
g102
sg49
g50
sS'trials.thisN'
p671
I53
sg19
I0
sg27
g36
(g38
S'\x00\x00\x00\x00\x00\x00\x18@'
tRp672
sg52
g53
sg23
S'2'
sg18
F279.65053459221963
sg33
g34
sg51
g11
sg20
S'1'
sg65
g36
(g77
S'\x00\x00\x00\x00\x00\x00\x00\x00'
tRp673
sg44
g45
sg40
g41
sg25
F0.59150263911578804
sS'trials.thisIndex'
p674
g36
(g80
S'\x03\x00\x00\x00'
tRp675
sg26
V5
sS'trials.thisRepN'
p676
I0
sg66
Vaxe
p677
sg63
V../experiment_stimuli/bw_bc_bl/Nonliving_Things/Tools/axe_11.jpg
p678
sg21
F2.6960934655508026
sS'trials.thisTrialN'
p679
I53
sa(dp680
g31
g32
sg17
F284.72323391376995
sg24
I0
sg35
g39
sg14
F284.69159987394232
sg16
g36
(g70
S'\x01\x00\x00\x00'
tRp681
sg42
g43
sg46
g47
sg15
g72
sg22
F286.13540211028885
sg64
g206
sg62
g102
sg49
g50
sS'trials.thisN'
p682
I54
sg19
I0
sg27
g36
(g38
S'\x00\x00\x00\x00\x00\x00\x18@'
tRp683
sg52
g53
sg23
S'2'
sg18
F285.95425914973021
sg33
g34
sg51
g11
sg20
S'2'
sg65
g36
(g77
S'\x00\x00\x00\x00\x00\x00\x00\x00'
tRp684
sg44
g45
sg40
g41
sg25
F0.27080876391846687
sS'trials.thisIndex'
p685
g36
(g80
S'6\x00\x00\x00'
tRp686
sg26
V5
sS'trials.thisRepN'
p687
I0
sg66
Vmotorbike
p688
sg63
V../experiment_stimuli/bw_bc_bl/Nonliving_Things/Vehicles/motorbike_16.jpg
p689
sg21
F0.16056855744682252
sS'trials.thisTrialN'
p690
I54
sa(dp691
g31
g32
sg17
F288.17170277552214
sg24
I1
sg35
g39
sg14
F288.1391180427745
sg16
g36
(g70
S'\x01\x00\x00\x00'
tRp692
sg42
g43
sg46
g47
sg15
g88
sg22
F290.64526158256922
sg64
g73
sg62
g74
sg49
g50
sS'trials.thisN'
p693
I55
sg19
I0
sg27
g36
(g38
S'\x00\x00\x00\x00\x00\x00\x18@'
tRp694
sg52
g53
sg23
S'1'
sg18
F289.39174877246842
sg33
g34
sg51
g11
sg20
S'2'
sg65
g36
(g77
S'\x00\x00\x00\x00\x00\x00\x00\x00'
tRp695
sg44
g45
sg40
g41
sg25
F0.22069370828103274
sS'trials.thisIndex'
p696
g36
(g80
S'<\x00\x00\x00'
tRp697
sg26
V5
sS'trials.thisRepN'
p698
I0
sg66
Vpelican
p699
sg63
V../experiment_stimuli/bw_bc_bl/Living_Things/Birds/pelican_13.jpg
p700
sg21
F1.2329300011042506
sS'trials.thisTrialN'
p701
I55
sa(dp702
g31
g32
sg17
F292.61921324126888
sg24
I0
sg35
g39
sg14
F292.59882834739983
sg16
g36
(g70
S'\x01\x00\x00\x00'
tRp703
sg42
g43
sg46
g47
sg15
g88
sg22
F295.13501599663869
sg64
g89
sg62
g74
sg49
g50
sS'trials.thisN'
p704
I56
sg19
I1
sg27
g36
(g38
S'\x00\x00\x00\x00\x00\x00\x1a@'
tRp705
sg52
g53
sg23
S'2'
sg18
F293.85145205422305
sg33
g34
sg51
g11
sg20
S'1'
sg65
g36
(g77
S'\x00\x00\x00\x00\x00\x00\x00\x00'
tRp706
sg44
g45
sg40
g41
sg25
F0.41113478294573724
sS'trials.thisIndex'
p707
g36
(g80
S'\x01\x00\x00\x00'
tRp708
sg26
V5
sS'trials.thisRepN'
p709
I0
sg66
Varmadillo
p710
sg63
V../experiment_stimuli/bw_bc_bl/Living_Things/Animals/armadillo_7.jpg
p711
sg21
F1.2629905920475721
sS'trials.thisTrialN'
p712
I56
sa(dp713
g31
g32
sg17
F297.31033760111313
sg24
I1
sg35
g39
sg14
F297.27901659556665
sg16
g36
(g70
S'\x02\x00\x00\x00'
tRp714
sg42
g43
sg46
g47
sg15
g72
sg22
F299.30407561862376
sg64
g160
sg62
g74
sg49
g50
sS'trials.thisN'
p715
I57
sg19
I0
sg27
g36
(g38
S'\x00\x00\x00\x00\x00\x00\x1a@'
tRp716
sg52
g53
sg23
S'1'
sg18
F298.53163965581916
sg33
g34
sg51
g11
sg20
S'1'
sg65
g36
(g77
S'\x00\x00\x00\x00\x00\x00\x00\x00'
tRp717
sg44
g45
sg40
g41
sg25
F0.26078900718130171
sS'trials.thisIndex'
p718
g36
(g80
S'4\x00\x00\x00'
tRp719
sg26
V5
sS'trials.thisRepN'
p720
I0
sg66
Vmanatee
p721
sg63
V../experiment_stimuli/bw_bc_bl/Living_Things/Marine_creatures/manatee_20.jpg
p722
sg21
F0.75185480003710836
sS'trials.thisTrialN'
p723
I57
sa(dp724
g31
g32
sg17
F301.32496814499609
sg24
I0
sg35
g39
sg14
F301.29776289197616
sg16
g36
(g70
S'\x01\x00\x00\x00'
tRp725
sg42
g43
sg46
g47
sg15
g88
sg22
F304.28490590432193
sg64
g125
sg62
g74
sg49
g50
sS'trials.thisN'
p726
I58
sg19
I1
sg27
g36
(g38
S'\x00\x00\x00\x00\x00\x00\x18@'
tRp727
sg52
g53
sg23
S'2'
sg18
F302.57045037974603
sg33
g34
sg51
g11
sg20
S'1'
sg65
g36
(g77
S'\x00\x00\x00\x00\x00\x00\x00\x00'
tRp728
sg44
g45
sg40
g41
sg25
F0.67169845046009868
sS'trials.thisIndex'
p729
g36
(g80
S'\n\x00\x00\x00'
tRp730
sg26
V5
sS'trials.thisRepN'
p731
I0
sg66
Vbutterfly
p732
sg63
V../experiment_stimuli/bw_bc_bl/Living_Things/Insects/butterfly_9.jpg
p733
sg21
F1.6939113955013454
sS'trials.thisTrialN'
p734
I58
sa(dp735
g31
g32
sg17
F306.71978722466156
sg24
I0
sg35
g39
sg14
F306.68951659125742
sg16
g36
(g70
S'\x01\x00\x00\x00'
tRp736
sg42
g43
sg46
g47
sg15
g72
sg22
F310.13750986021478
sg64
g284
sg62
g102
sg49
g50
sS'trials.thisN'
p737
I59
sg19
I0
sg27
g36
(g38
S'\x00\x00\x00\x00\x00\x00\x18@'
tRp738
sg52
g53
sg23
S'2'
sg18
F307.95216317195445
sg33
g34
sg51
g11
sg20
S'2'
sg65
g36
(g77
S'\x00\x00\x00\x00\x00\x00\x00\x00'
tRp739
sg44
g45
sg40
g41
sg25
F0.24073875998146832
sS'trials.thisIndex'
p740
g36
(g80
S'Y\x00\x00\x00'
tRp741
sg26
V5
sS'trials.thisRepN'
p742
I0
sg66
Vtuba
p743
sg63
V../experiment_stimuli/bw_bc_bl/Nonliving_Things/Musical_Inst/tuba_25.jpg
p744
sg21
F2.1647745448863134
sS'trials.thisTrialN'
p745
I59
sa(dp746
g31
g32
sg17
F312.12314414535649
sg24
I1
sg35
g39
sg14
F312.11130933614913
sg16
g36
(g70
S'\x02\x00\x00\x00'
tRp747
sg42
g43
sg46
g47
sg15
g72
sg22
F314.13636235555168
sg64
g89
sg62
g74
sg49
g50
sS'trials.thisN'
p748
I60
sg19
I0
sg27
g36
(g38
S'\x00\x00\x00\x00\x00\x00\x18@'
tRp749
sg52
g53
sg23
S'1'
sg18
F313.34390646149404
sg33
g34
sg51
g11
sg20
S'1'
sg65
g36
(g77
S'\x00\x00\x00\x00\x00\x00\x00\x00'
tRp750
sg44
g45
sg40
g41
sg25
F0.19062564813066274
sS'trials.thisIndex'
p751
g36
(g80
S' \x00\x00\x00'
tRp752
sg26
V5
sS'trials.thisRepN'
p753
I0
sg66
Vgiraffe
p754
sg63
V../experiment_stimuli/bw_bc_bl/Living_Things/Animals/giraffe_3.jpg
p755
sg21
F0.77189732191618532
sS'trials.thisTrialN'
p756
I60
sa(dp757
g31
g32
sg17
F316.09497676149476
sg24
I0
sg35
g39
sg14
F316.05991319427267
sg16
g36
(g70
S'\x02\x00\x00\x00'
tRp758
sg42
g43
sg46
g47
sg15
g88
sg22
F320.03921056876425
sg64
g137
sg62
g102
sg49
g50
sS'trials.thisN'
p759
I61
sg19
I1
sg27
g36
(g38
S'\x00\x00\x00\x00\x00\x00\x1a@'
tRp760
sg52
g53
sg23
S'3'
sg18
F317.35263589187525
sg33
g34
sg51
g11
sg20
S'2'
sg65
g36
(g77
S'\x00\x00\x00\x00\x00\x00\x00\x00'
tRp761
sg44
g45
sg40
g41
sg25
F0.54139281634707004
sS'trials.thisIndex'
p762
g36
(g80
S'\x00\x00\x00\x00'
tRp763
sg26
V5
sS'trials.thisRepN'
p764
I0
sg66
VChest-of-drawers
p765
sg63
V../experiment_stimuli/bw_bc_bl/Nonliving_Things/Furniture/Chest-of-drawers_12.jpg
p766
sg21
F2.6660322094103321
sS'trials.thisTrialN'
p767
I61
sa(dp768
g31
g32
sg17
F322.35248440946452
sg24
I1
sg35
g39
sg14
F322.31353346689139
sg16
g36
(g70
S'\x01\x00\x00\x00'
tRp769
sg42
g43
sg46
g47
sg15
g72
sg22
F324.92988470662385
sg64
g549
sg62
g102
sg49
g50
sS'trials.thisN'
p770
I62
sg19
I0
sg27
g36
(g38
S'\x00\x00\x00\x00\x00\x00\x1a@'
tRp771
sg52
g53
sg23
S'1'
sg18
F323.57619155116845
sg33
g34
sg51
g11
sg20
S'2'
sg65
g36
(g77
S'\x00\x00\x00\x00\x00\x00\x00\x00'
tRp772
sg44
g45
sg40
g41
sg25
F0.26080074009951204
sS'trials.thisIndex'
p773
g36
(g80
S':\x00\x00\x00'
tRp774
sg26
V5
sS'trials.thisRepN'
p775
I0
sg66
Vpalace
p776
sg63
V../experiment_stimuli/bw_bc_bl/Nonliving_Things/Buildings/palace_11.jpg
p777
sg21
F1.3331259699771181
sS'trials.thisTrialN'
p778
I62
sa(dp779
g31
g32
sg17
F326.94939868000802
sg24
I0
sg35
g39
sg14
F326.92358728044201
sg16
g36
(g70
S'\x02\x00\x00\x00'
tRp780
sg42
g43
sg46
g47
sg15
g88
sg22
F329.17912564380094
sg64
g284
sg62
g102
sg49
g50
sS'trials.thisN'
p781
I63
sg19
I0
sg27
g36
(g38
S'\x00\x00\x00\x00\x00\x00\x1e@'
tRp782
sg52
g53
sg23
S'2'
sg18
F328.1962527083233
sg33
g34
sg51
g11
sg20
S'1'
sg65
g36
(g77
S'\x00\x00\x00\x00\x00\x00\x00\x00'
tRp783
sg44
g45
sg40
g41
sg25
F0.14057449402753264
sS'trials.thisIndex'
p784
g36
(g80
S'>\x00\x00\x00'
tRp785
sg26
V5
sS'trials.thisRepN'
p786
I0
sg66
Vpiano
p787
sg63
V../experiment_stimuli/bw_bc_bl/Nonliving_Things/Musical_Inst/piano__19.jpg
p788
sg21
F0.96231537044513971
sS'trials.thisTrialN'
p789
I63
sa(dp790
g31
g32
sg17
F331.08044686424546
sg24
I1
sg35
g39
sg14
F331.05255508853588
sg16
g36
(g70
S'\x02\x00\x00\x00'
tRp791
sg42
g43
sg46
g47
sg15
g72
sg22
F334.30026688112412
sg64
g89
sg62
g74
sg49
g50
sS'trials.thisN'
p792
I64
sg19
I1
sg27
g36
(g38
S'\x00\x00\x00\x00\x00\x00\x1e@'
tRp793
sg52
g53
sg23
S'1'
sg18
F332.30520072788931
sg33
g34
sg51
g11
sg20
S'2'
sg65
g36
(g77
S'\x00\x00\x00\x00\x00\x00\x00\x00'
tRp794
sg44
g45
sg40
g41
sg25
F0.26077401102520525
sS'trials.thisIndex'
p795
g36
(g80
S'Z\x00\x00\x00'
tRp796
sg26
V5
sS'trials.thisRepN'
p797
I0
sg66
Vturtle
p798
sg63
V../experiment_stimuli/bw_bc_bl/Living_Things/Animals/turtle_10.jpg
p799
sg21
F1.9745243102079257
sS'trials.thisTrialN'
p800
I64
sa(dp801
g31
g32
sg17
F336.32020944030955
sg24
I1
sg35
g39
sg14
F336.29397303785663
sg16
g36
(g70
S'\x02\x00\x00\x00'
tRp802
sg42
g43
sg46
g47
sg15
g88
sg22
F338.82012353569735
sg64
g172
sg62
g102
sg49
g50
sS'trials.thisN'
p803
I65
sg19
I1
sg27
g36
(g38
S'\x00\x00\x00\x00\x00\x00\x18@'
tRp804
sg52
g53
sg23
S'1'
sg18
F337.55664240021724
sg33
g34
sg51
g11
sg20
S'2'
sg65
g36
(g77
S'\x00\x00\x00\x00\x00\x00\x00\x00'
tRp805
sg44
g45
sg40
g41
sg25
F0.18061333068180829
sS'trials.thisIndex'
p806
g36
(g80
S'\x1f\x00\x00\x00'
tRp807
sg26
V5
sS'trials.thisRepN'
p808
I0
sg66
Vfrying-pan
p809
sg63
V../experiment_stimuli/bw_bc_bl/Nonliving_Things/Kitchen_Uten/frying-pan_12.jpg
p810
sg21
F1.2329053512075916
sS'trials.thisTrialN'
p811
I65
sa(dp812
g31
g32
sg17
F340.76635211624671
sg24
I0
sg35
g39
sg14
F340.73366294091102
sg16
g36
(g70
S'\x01\x00\x00\x00'
tRp813
sg42
g43
sg46
g47
sg15
g88
sg22
F344.21185869758483
sg64
g89
sg62
g74
sg49
g50
sS'trials.thisN'
p814
I66
sg19
I1
sg27
g36
(g38
S'\x00\x00\x00\x00\x00\x00\x18@'
tRp815
sg52
g53
sg23
S'2'
sg18
F342.00631637254264
sg33
g34
sg51
g11
sg20
S'1'
sg65
g36
(g77
S'\x00\x00\x00\x00\x00\x00\x00\x00'
tRp816
sg44
g45
sg40
g41
sg25
F0.24073787685483694
sS'trials.thisIndex'
p817
g36
(g80
S'(\x00\x00\x00'
tRp818
sg26
V5
sS'trials.thisRepN'
p819
I0
sg66
Vhorse
p820
sg63
V../experiment_stimuli/bw_bc_bl/Living_Things/Animals/horse_7.jpg
p821
sg21
F2.1849759027827531
sS'trials.thisTrialN'
p822
I66
sa(dp823
g31
g32
sg17
F346.19063337566331
sg24
I0
sg35
g39
sg14
F346.18553031398915
sg16
g36
(g70
S'\x01\x00\x00\x00'
tRp824
sg42
g43
sg46
g47
sg15
g88
sg22
F348.72170208767056
sg64
g73
sg62
g74
sg49
g50
sS'trials.thisN'
p825
I67
sg19
I1
sg27
g36
(g38
S'\x00\x00\x00\x00\x00\x00\x1c@'
tRp826
sg52
g53
sg23
S'2'
sg18
F347.42812586540822
sg33
g34
sg51
g11
sg20
S'1'
sg65
g36
(g77
S'\x00\x00\x00\x00\x00\x00\x00\x00'
tRp827
sg44
g45
sg40
g41
sg25
F0.20067067909985781
sS'trials.thisIndex'
p828
g36
(g80
S'9\x00\x00\x00'
tRp829
sg26
V5
sS'trials.thisRepN'
p830
I0
sg66
Vowl
p831
sg63
V../experiment_stimuli/bw_bc_bl/Living_Things/Birds/owl_25.jpg
p832
sg21
F1.2730141950305551
sS'trials.thisTrialN'
p833
I67
sa(dp834
g31
g32
sg17
F350.68641095806379
sg24
I1
sg35
g39
sg14
F350.65524507116061
sg16
g36
(g70
S'\x02\x00\x00\x00'
tRp835
sg42
g43
sg46
g47
sg15
g72
sg22
F352.85065880173352
sg64
g73
sg62
g74
sg49
g50
sS'trials.thisN'
p836
I68
sg19
I1
sg27
g36
(g38
S'\x00\x00\x00\x00\x00\x00\x18@'
tRp837
sg52
g53
sg23
S'1'
sg18
F351.90787838329561
sg33
g34
sg51
g11
sg20
S'2'
sg65
g36
(g77
S'\x00\x00\x00\x00\x00\x00\x00\x00'
tRp838
sg44
g45
sg40
g41
sg25
F0.23073826590552926
sS'trials.thisIndex'
p839
g36
(g80
S'J\x00\x00\x00'
tRp840
sg26
V5
sS'trials.thisRepN'
p841
I0
sg66
Vseagull
p842
sg63
V../experiment_stimuli/bw_bc_bl/Living_Things/Birds/seagull_2.jpg
p843
sg21
F0.92223268072120845
sS'trials.thisTrialN'
p844
I68
sa(dp845
g31
g32
sg17
F354.84414937079418
sg24
I0
sg35
g39
sg14
F354.81430076656397
sg16
g36
(g70
S'\x02\x00\x00\x00'
tRp846
sg42
g43
sg46
g47
sg15
g88
sg22
F357.68121755158063
sg64
g549
sg62
g102
sg49
g50
sS'trials.thisN'
p847
I69
sg19
I1
sg27
g36
(g38
S'\x00\x00\x00\x00\x00\x00\x18@'
tRp848
sg52
g53
sg23
S'3'
sg18
F356.09700005652849
sg33
g34
sg51
g11
sg20
S'2'
sg65
g36
(g77
S'\x00\x00\x00\x00\x00\x00\x00\x00'
tRp849
sg44
g45
sg40
g41
sg25
F0.49128359870519489
sS'trials.thisIndex'
p850
g36
(g80
S'#\x00\x00\x00'
tRp851
sg26
V5
sS'trials.thisRepN'
p852
I0
sg66
Vgranary
p853
sg63
V../experiment_stimuli/bw_bc_bl/Nonliving_Things/Buildings/granary_17.jpg
p854
sg21
F1.5535952900536358
sS'trials.thisTrialN'
p855
I69
sa(dp856
g31
g32
sg17
F359.93519754428416
sg24
I0
sg35
g39
sg14
F359.90538730414119
sg16
g36
(g70
S'\x02\x00\x00\x00'
tRp857
sg42
g43
sg46
g47
sg15
g88
sg22
F362.12070211058017
sg64
g137
sg62
g102
sg49
g50
sS'trials.thisN'
p858
I70
sg19
I1
sg27
g36
(g38
S'\x00\x00\x00\x00\x00\x00\x18@'
tRp859
sg52
g53
sg23
S'2'
sg18
F361.17806491628289
sg33
g34
sg51
g11
sg20
S'2'
sg65
g36
(g77
S'\x00\x00\x00\x00\x00\x00\x00\x00'
tRp860
sg44
g45
sg40
g41
sg25
F0.2407380985096097
sS'trials.thisIndex'
p861
g36
(g80
S'\x0f\x00\x00\x00'
tRp862
sg26
V5
sS'trials.thisRepN'
p863
I0
sg66
Vchair
p864
sg63
V../experiment_stimuli/bw_bc_bl/Nonliving_Things/Furniture/chair_17.jpg
p865
sg21
F0.92206777620594949
sS'trials.thisTrialN'
p866
I70
sa(dp867
g31
g32
sg17
F364.1238168280106
sg24
I0
sg35
g39
sg14
F364.09451456775423
sg16
g36
(g70
S'\x02\x00\x00\x00'
tRp868
sg42
g43
sg46
g47
sg15
g72
sg22
F366.82110353268217
sg64
g89
sg62
g74
sg49
g50
sS'trials.thisN'
p869
I71
sg19
I0
sg27
g36
(g38
S'\x00\x00\x00\x00\x00\x00\x18@'
tRp870
sg52
g53
sg23
S'2'
sg18
F365.35716963303275
sg33
g34
sg51
g11
sg20
S'1'
sg65
g36
(g77
S'\x00\x00\x00\x00\x00\x00\x00\x00'
tRp871
sg44
g45
sg40
g41
sg25
F0.180605887202546
sS'trials.thisIndex'
p872
g36
(g80
S'\x1b\x00\x00\x00'
tRp873
sg26
V5
sS'trials.thisRepN'
p874
I0
sg66
Velephant
p875
sg63
V../experiment_stimuli/bw_bc_bl/Living_Things/Animals/elephant_18.jpg
p876
sg21
F1.4433616957394406
sS'trials.thisTrialN'
p877
I71
sa(dp878
g31
g32
sg17
F368.76364352484234
sg24
I1
sg35
g39
sg14
F368.73462255473714
sg16
g36
(g70
S'\x01\x00\x00\x00'
tRp879
sg42
g43
sg46
g47
sg15
g72
sg22
F371.27079899748787
sg64
g172
sg62
g102
sg49
g50
sS'trials.thisN'
p880
I72
sg19
I0
sg27
g36
(g38
S'\x00\x00\x00\x00\x00\x00\x18@'
tRp881
sg52
g53
sg23
S'1'
sg18
F369.98725053970702
sg33
g34
sg51
g11
sg20
S'2'
sg65
g36
(g77
S'\x00\x00\x00\x00\x00\x00\x00\x00'
tRp882
sg44
g45
sg40
g41
sg25
F0.20065335207618773
sS'trials.thisIndex'
p883
g36
(g80
S'\x1e\x00\x00\x00'
tRp884
sg26
V5
sS'trials.thisRepN'
p885
I0
sg66
Vfondue
p886
sg63
V../experiment_stimuli/bw_bc_bl/Nonliving_Things/Kitchen_Uten/fondue_15.jpg
p887
sg21
F1.262973603210412
sS'trials.thisTrialN'
p888
I72
sa(dp889
g31
g32
sg17
F373.26754787703976
sg24
I0
sg35
g39
sg14
F373.2043495408725
sg16
g36
(g70
S'\x02\x00\x00\x00'
tRp890
sg42
g43
sg46
g47
sg15
g88
sg22
F375.65032229479402
sg64
g206
sg62
g102
sg49
g50
sS'trials.thisN'
p891
I73
sg19
I1
sg27
g36
(g38
S'\x00\x00\x00\x00\x00\x00\x18@'
tRp892
sg52
g53
sg23
S'2'
sg18
F374.50710169458762
sg33
g34
sg51
g11
sg20
S'2'
sg65
g36
(g77
S'\x00\x00\x00\x00\x00\x00\x00\x00'
tRp893
sg44
g45
sg40
g41
sg25
F0.21066875976976007
sS'trials.thisIndex'
p894
g36
(g80
S'V\x00\x00\x00'
tRp895
sg26
V5
sS'trials.thisRepN'
p896
I0
sg66
Vtractor
p897
sg63
V../experiment_stimuli/bw_bc_bl/Nonliving_Things/Vehicles/tractor_23.jpg
p898
sg21
F1.1226672345073894
sS'trials.thisTrialN'
p899
I73
sa(dp900
g31
g32
sg17
F377.60691057960503
sg24
I0
sg35
g39
sg14
F377.59391850465909
sg16
g36
(g70
S'\x01\x00\x00\x00'
tRp901
sg42
g43
sg46
g47
sg15
g88
sg22
F381.36276764341164
sg64
g160
sg62
g74
sg49
g50
sS'trials.thisN'
p902
I74
sg19
I0
sg27
g36
(g38
S'\x00\x00\x00\x00\x00\x00\x18@'
tRp903
sg52
g53
sg23
S'2'
sg18
F378.84654342243448
sg33
g34
sg51
g11
sg20
S'2'
sg65
g36
(g77
S'\x00\x00\x00\x00\x00\x00\x00\x00'
tRp904
sg44
g45
sg40
g41
sg25
F0.23072003317065537
sS'trials.thisIndex'
p905
g36
(g80
S'1\x00\x00\x00'
tRp906
sg26
V5
sS'trials.thisRepN'
p907
I0
sg66
Vlobster
p908
sg63
V../experiment_stimuli/bw_bc_bl/Living_Things/Marine_creatures/lobster_26.jpg
p909
sg21
F2.4956574079114944
sS'trials.thisTrialN'
p910
I74
sa(dp911
g31
g32
sg17
F383.35763365996536
sg24
I1
sg35
g39
sg14
F383.32640086754691
sg16
g36
(g70
S'\x01\x00\x00\x00'
tRp912
sg42
g43
sg46
g47
sg15
g72
sg22
F385.86254726152401
sg64
g284
sg62
g102
sg49
g50
sS'trials.thisN'
p913
I75
sg19
I1
sg27
g36
(g38
S'\x00\x00\x00\x00\x00\x00\x18@'
tRp914
sg52
g53
sg23
S'1'
sg18
F384.58906386897434
sg33
g34
sg51
g11
sg20
S'1'
sg65
g36
(g77
S'\x00\x00\x00\x00\x00\x00\x00\x00'
tRp915
sg44
g45
sg40
g41
sg25
F0.15054519497789443
sS'trials.thisIndex'
p916
g36
(g80
S'$\x00\x00\x00'
tRp917
sg26
V5
sS'trials.thisRepN'
p918
I0
sg66
Vguitar
p919
sg63
V../experiment_stimuli/bw_bc_bl/Nonliving_Things/Musical_Inst/guitar_10.jpg
p920
sg21
F1.2529532295884565
sS'trials.thisTrialN'
p921
I75
sa(dp922
g31
g32
sg17
F387.76620637450833
sg24
I0
sg35
g39
sg14
F387.74603834294248
sg16
g36
(g70
S'\x01\x00\x00\x00'
tRp923
sg42
g43
sg46
g47
sg15
g88
sg22
F390.32227714092005
sg64
g73
sg62
g74
sg49
g50
sS'trials.thisN'
p924
I76
sg19
I0
sg27
g36
(g38
S'\x00\x00\x00\x00\x00\x00\x18@'
tRp925
sg52
g53
sg23
S'2'
sg18
F389.00868755113333
sg33
g34
sg51
g11
sg20
S'2'
sg65
g36
(g77
S'\x00\x00\x00\x00\x00\x00\x00\x00'
tRp926
sg44
g45
sg40
g41
sg25
F0.19062717806082219
sS'trials.thisIndex'
p927
g36
(g80
S'F\x00\x00\x00'
tRp928
sg26
V5
sS'trials.thisRepN'
p929
I0
sg66
Vrooster
p930
sg63
V../experiment_stimuli/bw_bc_bl/Living_Things/Birds/rooster_25.jpg
p931
sg21
F1.2930395434377715
sS'trials.thisTrialN'
p932
I76
sa(dp933
g31
g32
sg17
F392.27585264248773
sg24
I0
sg35
g39
sg14
F392.2458541111555
sg16
g36
(g70
S'\x01\x00\x00\x00'
tRp934
sg42
g43
sg46
g47
sg15
g72
sg22
F396.22512292210013
sg64
g206
sg62
g102
sg49
g50
sS'trials.thisN'
p935
I77
sg19
I1
sg27
g36
(g38
S'\x00\x00\x00\x00\x00\x00\x1c@'
tRp936
sg52
g53
sg23
S'3'
sg18
F393.50847850402351
sg33
g34
sg51
g11
sg20
S'1'
sg65
g36
(g77
S'\x00\x00\x00\x00\x00\x00\x00\x00'
tRp937
sg44
g45
sg40
g41
sg25
F1.1226620054803789
sS'trials.thisIndex'
p938
g36
(g80
S'\x07\x00\x00\x00'
tRp939
sg26
V5
sS'trials.thisRepN'
p940
I0
sg66
Vboat
p941
sg63
V../experiment_stimuli/bw_bc_bl/Nonliving_Things/Vehicles/boat_21.jpg
p942
sg21
F2.6960915857926011
sS'trials.thisTrialN'
p943
I77
sa(dp944
g31
g32
sg17
F399.11065630777739
sg24
I1
sg35
g39
sg14
F399.08070449042134
sg16
g36
(g70
S'\x02\x00\x00\x00'
tRp945
sg42
g43
sg46
g47
sg15
g72
sg22
F402.06783278880175
sg64
g160
sg62
g74
sg49
g50
sS'trials.thisN'
p946
I78
sg19
I0
sg27
g36
(g38
S'\x00\x00\x00\x00\x00\x00\x1c@'
tRp947
sg52
g53
sg23
S'1'
sg18
F400.3433636383852
sg33
g34
sg51
g11
sg20
S'1'
sg65
g36
(g77
S'\x00\x00\x00\x00\x00\x00\x00\x00'
tRp948
sg44
g45
sg40
g41
sg25
F0.14051628403831273
sS'trials.thisIndex'
p949
g36
(g80
S'7\x00\x00\x00'
tRp950
sg26
V5
sS'trials.thisRepN'
p951
I0
sg66
Vnarwhal
p952
sg63
V../experiment_stimuli/bw_bc_bl/Living_Things/Marine_creatures/narwhal_15.jpg
p953
sg21
F1.7039306000806391
sS'trials.thisTrialN'
p954
I78
sa(dp955
g31
g32
sg17
F403.95773318083957
sg24
I0
sg35
g39
sg14
F403.94127940619364
sg16
g36
(g70
S'\x02\x00\x00\x00'
tRp956
sg42
g43
sg46
g47
sg15
g88
sg22
F406.0365103110671
sg64
g137
sg62
g102
sg49
g50
sS'trials.thisN'
p957
I79
sg19
I1
sg27
g36
(g38
S'\x00\x00\x00\x00\x00\x00\x18@'
tRp958
sg52
g53
sg23
S'2'
sg18
F405.19392116193194
sg33
g34
sg51
g11
sg20
S'2'
sg65
g36
(g77
S'\x00\x00\x00\x00\x00\x00\x00\x00'
tRp959
sg44
g45
sg40
g41
sg25
F0.17058725794777274
sS'trials.thisIndex'
p960
g36
(g80
S'\x13\x00\x00\x00'
tRp961
sg26
V5
sS'trials.thisRepN'
p962
I0
sg66
Vcouch
p963
sg63
V../experiment_stimuli/bw_bc_bl/Nonliving_Things/Furniture/couch_14.jpg
p964
sg21
F0.82202901260461658
sS'trials.thisTrialN'
p965
I79
sa(dp966
g31
g32
sg17
F407.96487356815487
sg24
I1
sg35
g39
sg14
F407.93999335775152
sg16
g36
(g70
S'\x02\x00\x00\x00'
tRp967
sg42
g43
sg46
g47
sg15
g88
sg22
F410.41604273964185
sg64
g137
sg62
g102
sg49
g50
sS'trials.thisN'
p968
I80
sg19
I1
sg27
g36
(g38
S'\x00\x00\x00\x00\x00\x00\x1e@'
tRp969
sg52
g53
sg23
S'1'
sg18
F409.19262738421094
sg33
g34
sg51
g11
sg20
S'2'
sg65
g36
(g77
S'\x00\x00\x00\x00\x00\x00\x00\x00'
tRp970
sg44
g45
sg40
g41
sg25
F0.38104323437437415
sS'trials.thisIndex'
p971
g36
(g80
S'\x06\x00\x00\x00'
tRp972
sg26
V5
sS'trials.thisRepN'
p973
I0
sg66
Vbedside-table
p974
sg63
V../experiment_stimuli/bw_bc_bl/Nonliving_Things/Furniture/bedside-table_8.jpg
p975
sg21
F1.2028438205597922
sS'trials.thisTrialN'
p976
I80
sa(dp977
g31
g32
sg17
F412.5580837392481
sg24
I0
sg35
g39
sg14
F412.52999758615624
sg16
g36
(g70
S'\x01\x00\x00\x00'
tRp978
sg42
g43
sg46
g47
sg15
g88
sg22
F415.87795297871344
sg64
g89
sg62
g74
sg49
g50
sS'trials.thisN'
p979
I81
sg19
I1
sg27
g36
(g38
S'\x00\x00\x00\x00\x00\x00\x1a@'
tRp980
sg52
g53
sg23
S'2'
sg18
F413.80267062655184
sg33
g34
sg51
g11
sg20
S'1'
sg65
g36
(g77
S'\x00\x00\x00\x00\x00\x00\x00\x00'
tRp981
sg44
g45
sg40
g41
sg25
F0.23071212728973478
sS'trials.thisIndex'
p982
g36
(g80
S'R\x00\x00\x00'
tRp983
sg26
V5
sS'trials.thisRepN'
p984
I0
sg66
Vtapir
p985
sg63
V../experiment_stimuli/bw_bc_bl/Living_Things/Animals/tapir_15.jpg
p986
sg21
F2.054716418730095
sS'trials.thisTrialN'
p987
I81
sa(dp988
g31
g32
sg17
F417.85822211799677
sg24
I0
sg35
g39
sg14
F417.84156718791928
sg16
g36
(g70
S'\x01\x00\x00\x00'
tRp989
sg42
g43
sg46
g47
sg15
g72
sg22
F421.00912434887141
sg64
g172
sg62
g102
sg49
g50
sS'trials.thisN'
p990
I82
sg19
I1
sg27
g36
(g38
S'\x00\x00\x00\x00\x00\x00\x1c@'
tRp991
sg52
g53
sg23
S'2'
sg18
F419.10421430238057
sg33
g34
sg51
g11
sg20
S'1'
sg65
g36
(g77
S'\x00\x00\x00\x00\x00\x00\x00\x00'
tRp992
sg44
g45
sg40
g41
sg25
F0.26078207860700786
sS'trials.thisIndex'
p993
g36
(g80
S'G\x00\x00\x00'
tRp994
sg26
V5
sS'trials.thisRepN'
p995
I0
sg66
Vsaucepan
p996
sg63
V../experiment_stimuli/bw_bc_bl/Nonliving_Things/Kitchen_Uten/saucepan_24.jpg
p997
sg21
F1.8843298690626398
sS'trials.thisTrialN'
p998
I82
sa(dp999
g31
g32
sg17
F423.0432495677378
sg24
I1
sg35
g39
sg14
F423.00279797601979
sg16
g36
(g70
S'\x01\x00\x00\x00'
tRp1000
sg42
g43
sg46
g47
sg15
g88
sg22
F425.39866512140725
sg64
g73
sg62
g74
sg49
g50
sS'trials.thisN'
p1001
I83
sg19
I0
sg27
g36
(g38
S'\x00\x00\x00\x00\x00\x00\x18@'
tRp1002
sg52
g53
sg23
S'1'
sg18
F424.26544869551435
sg33
g34
sg51
g11
sg20
S'2'
sg65
g36
(g77
S'\x00\x00\x00\x00\x00\x00\x00\x00'
tRp1003
sg44
g45
sg40
g41
sg25
F0.10043816175311804
sS'trials.thisIndex'
p1004
g36
(g80
S'&\x00\x00\x00'
tRp1005
sg26
V5
sS'trials.thisRepN'
p1006
I0
sg66
Vhen
p1007
sg63
V../experiment_stimuli/bw_bc_bl/Living_Things/Birds/hen_15.jpg
p1008
sg21
F1.1126589133637026
sS'trials.thisTrialN'
p1009
I83
sa(dp1010
g31
g32
sg17
F427.26961546135135
sg24
I1
sg35
g39
sg14
F427.24207108048722
sg16
g36
(g70
S'\x01\x00\x00\x00'
tRp1011
sg42
g43
sg46
g47
sg15
g88
sg22
F429.90846753807273
sg64
g160
sg62
g74
sg49
g50
sS'trials.thisN'
p1012
I84
sg19
I0
sg27
g36
(g38
S'\x00\x00\x00\x00\x00\x00\x1e@'
tRp1013
sg52
g53
sg23
S'1'
sg18
F428.52472336706705
sg33
g34
sg51
g11
sg20
S'2'
sg65
g36
(g77
S'\x00\x00\x00\x00\x00\x00\x00\x00'
tRp1014
sg44
g45
sg40
g41
sg25
F0.23071249923668802
sS'trials.thisIndex'
p1015
g36
(g80
S'P\x00\x00\x00'
tRp1016
sg26
V5
sS'trials.thisRepN'
p1017
I0
sg66
Vsperm-whale
p1018
sg63
V../experiment_stimuli/bw_bc_bl/Living_Things/Marine_creatures/sperm-whale_13.jpg
p1019
sg21
F1.3631885343929753
sS'trials.thisTrialN'
p1020
I84
sa(dp1021
g31
g32
sg17
F431.90307077555917
sg24
I0
sg35
g39
sg14
F431.87210711161606
sg16
g36
(g70
S'\x02\x00\x00\x00'
tRp1022
sg42
g43
sg46
g47
sg15
g88
sg22
F434.7991431907285
sg64
g284
sg62
g102
sg49
g50
sS'trials.thisN'
p1023
I85
sg19
I1
sg27
g36
(g38
S'\x00\x00\x00\x00\x00\x00 @'
tRp1024
sg52
g53
sg23
S'3'
sg18
F433.17485237435903
sg33
g34
sg51
g11
sg20
S'2'
sg65
g36
(g77
S'\x00\x00\x00\x00\x00\x00\x00\x00'
tRp1025
sg44
g45
sg40
g41
sg25
F0.45119546190835536
sS'trials.thisIndex'
p1026
g36
(g80
S'X\x00\x00\x00'
tRp1027
sg26
V5
sS'trials.thisRepN'
p1028
I0
sg66
Vtrumpet
p1029
sg63
V../experiment_stimuli/bw_bc_bl/Nonliving_Things/Musical_Inst/trumpet_16.jpg
p1030
sg21
F1.6037323379423469
sS'trials.thisTrialN'
p1031
I85
sa(dp1032
g31
g32
sg17
F437.02249471552204
sg24
I0
sg35
g39
sg14
F436.99327565333806
sg16
g36
(g70
S'\x02\x00\x00\x00'
tRp1033
sg42
g43
sg46
g47
sg15
g72
sg22
F440.43123717687558
sg64
g89
sg62
g74
sg49
g50
sS'trials.thisN'
p1034
I86
sg19
I1
sg27
g36
(g38
S'\x00\x00\x00\x00\x00\x00\x1e@'
tRp1035
sg52
g53
sg23
S'2'
sg18
F438.27595976309385
sg33
g34
sg51
g11
sg20
S'2'
sg65
g36
(g77
S'\x00\x00\x00\x00\x00\x00\x00\x00'
tRp1036
sg44
g45
sg40
g41
sg25
F0.49129067431204021
sS'trials.thisIndex'
p1037
g36
(g80
S'_\x00\x00\x00'
tRp1038
sg26
V5
sS'trials.thisRepN'
p1039
I0
sg66
Vzebra
p1040
sg63
V../experiment_stimuli/bw_bc_bl/Living_Things/Animals/zebra_18.jpg
p1041
sg21
F2.1347031084587798
sS'trials.thisTrialN'
p1042
I86
sa(dp1043
g31
g32
sg17
F442.68792781361844
sg24
I1
sg35
g39
sg14
F442.65560837869998
sg16
g36
(g70
S'\x02\x00\x00\x00'
tRp1044
sg42
g43
sg46
g47
sg15
g88
sg22
F445.10157527169213
sg64
g549
sg62
g102
sg49
g50
sS'trials.thisN'
p1045
I87
sg19
I1
sg27
g36
(g38
S'\x00\x00\x00\x00\x00\x00\x18@'
tRp1046
sg52
g53
sg23
S'1'
sg18
F443.91825019998942
sg33
g34
sg51
g11
sg20
S'2'
sg65
g36
(g77
S'\x00\x00\x00\x00\x00\x00\x00\x00'
tRp1047
sg44
g45
sg40
g41
sg25
F0.29085888341069221
sS'trials.thisIndex'
p1048
g36
(g80
S'\x0e\x00\x00\x00'
tRp1049
sg26
V5
sS'trials.thisRepN'
p1050
I0
sg66
Vcathedral
p1051
sg63
V../experiment_stimuli/bw_bc_bl/Nonliving_Things/Buildings/cathedral_4.jpg
p1052
sg21
F1.1627564018126577
sS'trials.thisTrialN'
p1053
I87
sa(dp1054
g31
g32
sg17
F447.15929860156029
sg24
I0
sg35
g39
sg14
F447.12532774079591
sg16
g36
(g70
S'\x02\x00\x00\x00'
tRp1055
sg42
g43
sg46
g47
sg15
g88
sg22
F450.25280736619607
sg64
g137
sg62
g102
sg49
g50
sS'trials.thisN'
p1056
I88
sg19
I1
sg27
g36
(g38
S'\x00\x00\x00\x00\x00\x00\x18@'
tRp1057
sg52
g53
sg23
S'3'
sg18
F448.4180501261726
sg33
g34
sg51
g11
sg20
S'2'
sg65
g36
(g77
S'\x00\x00\x00\x00\x00\x00\x00\x00'
tRp1058
sg44
g45
sg40
g41
sg25
F0.2307258490473032
sS'trials.thisIndex'
p1059
g36
(g80
S'Q\x00\x00\x00'
tRp1060
sg26
V5
sS'trials.thisRepN'
p1061
I0
sg66
Vtable
p1062
sg63
V../experiment_stimuli/bw_bc_bl/Nonliving_Things/Furniture/table_1.jpg
p1063
sg21
F1.814196250285022
sS'trials.thisTrialN'
p1064
I88
sa(dp1065
g31
g32
sg17
F452.24257715931162
sg24
I1
sg35
g39
sg14
F452.21641027880833
sg16
g36
(g70
S'\x01\x00\x00\x00'
tRp1066
sg42
g43
sg46
g47
sg15
g72
sg22
F453.86064397485461
sg64
g172
sg62
g102
sg49
g50
sS'trials.thisN'
p1067
I89
sg19
I0
sg27
g36
(g38
S'\x00\x00\x00\x00\x00\x00\x1a@'
tRp1068
sg52
g53
sg23
S'1'
sg18
F453.4790777915623
sg33
g34
sg51
g11
sg20
S'2'
sg65
g36
(g77
S'\x00\x00\x00\x00\x00\x00\x00\x00'
tRp1069
sg44
g45
sg40
g41
sg25
F0.26078360876999795
sS'trials.thisIndex'
p1070
g36
(g80
S'\x12\x00\x00\x00'
tRp1071
sg26
V5
sS'trials.thisRepN'
p1072
I0
sg66
Vcoking-pot
p1073
sg63
V../experiment_stimuli/bw_bc_bl/Nonliving_Things/Kitchen_Uten/coking-pot_12.jpg
p1074
sg21
F0.36099785938858986
sS'trials.thisTrialN'
p1075
I89
sa(dp1076
g31
g32
sg17
F455.87360751873348
sg24
I0
sg35
g39
sg14
F455.85434196621645
sg16
g36
(g70
S'\x02\x00\x00\x00'
tRp1077
sg42
g43
sg46
g47
sg15
g72
sg22
F458.18004123377614
sg64
g125
sg62
g74
sg49
g50
sS'trials.thisN'
p1078
I90
sg19
I1
sg27
g36
(g38
S'\x00\x00\x00\x00\x00\x00\x18@'
tRp1079
sg52
g53
sg23
S'3'
sg18
F457.13704359857365
sg33
g34
sg51
g11
sg20
S'2'
sg65
g36
(g77
S'\x00\x00\x00\x00\x00\x00\x00\x00'
tRp1080
sg44
g45
sg40
g41
sg25
F0.40108694753143936
sS'trials.thisIndex'
p1081
g36
(g80
S'\x18\x00\x00\x00'
tRp1082
sg26
V5
sS'trials.thisRepN'
p1083
I0
sg66
Vdragonfly
p1084
sg63
V../experiment_stimuli/bw_bc_bl/Living_Things/Insects/dragonfly_10.jpg
p1085
sg21
F1.0224462433252484
sS'trials.thisTrialN'
p1086
I90
sa(dp1087
g31
g32
sg17
F460.33859035675414
sg24
I0
sg35
g39
sg14
F460.31404558278155
sg16
g36
(g70
S'\x02\x00\x00\x00'
tRp1088
sg42
g43
sg46
g47
sg15
g88
sg22
F462.4293103585951
sg64
g284
sg62
g102
sg49
g50
sS'trials.thisN'
p1089
I91
sg19
I1
sg27
g36
(g38
S'\x00\x00\x00\x00\x00\x00\x1e@'
tRp1090
sg52
g53
sg23
S'2'
sg18
F461.58673957060091
sg33
g34
sg51
g11
sg20
S'2'
sg65
g36
(g77
S'\x00\x00\x00\x00\x00\x00\x00\x00'
tRp1091
sg44
g45
sg40
g41
sg25
F0.29084337223321199
sS'trials.thisIndex'
p1092
g36
(g80
S'\x19\x00\x00\x00'
tRp1093
sg26
V5
sS'trials.thisRepN'
p1094
I0
sg66
Vdrum
p1095
sg63
V../experiment_stimuli/bw_bc_bl/Nonliving_Things/Musical_Inst/drum_11.jpg
p1096
sg21
F0.82202600117307156
sS'trials.thisTrialN'
p1097
I91
sa(dp1098
g31
g32
sg17
F464.48309118591715
sg24
I1
sg35
g39
sg14
F464.45306091452949
sg16
g36
(g70
S'\x02\x00\x00\x00'
tRp1099
sg42
g43
sg46
g47
sg15
g72
sg22
F467.75092763453722
sg64
g89
sg62
g74
sg49
g50
sS'trials.thisN'
p1100
I92
sg19
I0
sg27
g36
(g38
S'\x00\x00\x00\x00\x00\x00\x18@'
tRp1101
sg52
g53
sg23
S'1'
sg18
F465.71571138617583
sg33
g34
sg51
g11
sg20
S'1'
sg65
g36
(g77
S'\x00\x00\x00\x00\x00\x00\x00\x00'
tRp1102
sg44
g45
sg40
g41
sg25
F0.67168322147335857
sS'trials.thisIndex'
p1103
g36
(g80
S'T\x00\x00\x00'
tRp1104
sg26
V5
sS'trials.thisRepN'
p1105
I0
sg66
Vtiger
p1106
sg63
V../experiment_stimuli/bw_bc_bl/Living_Things/Animals/tiger_2.jpg
p1107
sg21
F2.0146307855611667
sS'trials.thisTrialN'
p1108
I92
sa(dp1109
g31
g32
sg17
F470.19294926559087
sg24
I1
sg35
g39
sg14
F470.1655108158011
sg16
g36
(g70
S'\x01\x00\x00\x00'
tRp1110
sg42
g43
sg46
g47
sg15
g72
sg22
F472.69164998305496
sg64
g137
sg62
g102
sg49
g50
sS'trials.thisN'
p1111
I93
sg19
I1
sg27
g36
(g38
S'\x00\x00\x00\x00\x00\x00\x1e@'
tRp1112
sg52
g53
sg23
S'1'
sg18
F471.42817458033096
sg33
g34
sg51
g11
sg20
S'1'
sg65
g36
(g77
S'\x00\x00\x00\x00\x00\x00\x00\x00'
tRp1113
sg44
g45
sg40
g41
sg25
F0.21067828591912985
sS'trials.thisIndex'
p1114
g36
(g80
S'\x02\x00\x00\x00'
tRp1115
sg26
V5
sS'trials.thisRepN'
p1116
I0
sg66
Varmchair
p1117
sg63
V../experiment_stimuli/bw_bc_bl/Nonliving_Things/Furniture/armchair_8.jpg
p1118
sg21
F1.2429383673006669
sS'trials.thisTrialN'
p1119
I93
sa(dp1120
g31
g32
sg17
F474.65575564175379
sg24
I0
sg35
g39
sg14
F474.63524893356953
sg16
g36
(g70
S'\x02\x00\x00\x00'
tRp1121
sg42
g43
sg46
g47
sg15
g88
sg22
F477.42197231284808
sg64
g549
sg62
g102
sg49
g50
sS'trials.thisN'
p1122
I94
sg19
I1
sg27
g36
(g38
S'\x00\x00\x00\x00\x00\x00\x18@'
tRp1123
sg52
g53
sg23
S'3'
sg18
F475.91794530244078
sg33
g34
sg51
g11
sg20
S'2'
sg65
g36
(g77
S'\x00\x00\x00\x00\x00\x00\x00\x00'
tRp1124
sg44
g45
sg40
g41
sg25
F0.31091562286019325
sS'trials.thisIndex'
p1125
g36
(g80
S'\x0c\x00\x00\x00'
tRp1126
sg26
V5
sS'trials.thisRepN'
p1127
I0
sg66
Vcastle
p1128
sg63
V../experiment_stimuli/bw_bc_bl/Nonliving_Things/Buildings/castle_18.jpg
p1129
sg21
F1.4834640093613416
sS'trials.thisTrialN'
p1130
I94
sa(dp1131
g31
g32
sg17
F479.51253328286111
sg24
I0
sg35
g39
sg14
F479.47578086913563
sg16
g36
(g70
S'\x02\x00\x00\x00'
tRp1132
sg42
g43
sg46
g47
sg15
g72
sg22
F481.7413761470234
sg64
g89
sg62
g74
sg49
g50
sS'trials.thisN'
p1133
I95
sg19
I0
sg27
g36
(g38
S'\x00\x00\x00\x00\x00\x00 @'
tRp1134
sg52
g53
sg23
S'2'
sg18
F480.75847795268055
sg33
g34
sg51
g11
sg20
S'1'
sg65
g36
(g77
S'\x00\x00\x00\x00\x00\x00\x00\x00'
tRp1135
sg44
g45
sg40
g41
sg25
F0.27079847117420286
sS'trials.thisIndex'
p1136
g36
(g80
S'D\x00\x00\x00'
tRp1137
sg26
V5
sS'trials.thisRepN'
p1138
I0
sg66
Vrhino
p1139
sg63
V../experiment_stimuli/bw_bc_bl/Living_Things/Animals/rhino_12.jpg
p1140
sg21
F0.96231674239970744
sS'trials.thisTrialN'
p1141
I95
sasS'loops'
p1142
(lp1143
g1
(cpsychopy.data
TrialHandler
p1144
g3
NtRp1145
(dp1146
S'origin'
p1147
NsS'thisTrial'
p1148
(lp1149
sS'_exp'
p1150
I97292560
sg10
S'trials'
p1151
sg6
I-1
sS'thisRepN'
p1152
I1
sg28
I01
sg29
g30
sS'data'
p1153
g1
(cpsychopy.data
DataHandler
p1154
c__builtin__
dict
p1155
(dp1156
g20
cnumpy.core.multiarray
_reconstruct
p1157
(cnumpy
ndarray
p1158
(I0
tS'b'
tRp1159
(I1
(I96
I1
tg37
(S'O4'
I0
I1
tRp1160
(I3
S'|'
NNNI-1
I-1
I63
tbI00
(lp1161
S'2'
aS'1'
aS'1'
aS'1'
aS'1'
aS'2'
aS'2'
aS'1'
aS'1'
aS'2'
aS'1'
aS'2'
aS'2'
aS'1'
aS'2'
aS'2'
aS'2'
aS'1'
aS'2'
aS'2'
aS'1'
aS'1'
aS'1'
aS'2'
aS'2'
aS'2'
aS'2'
aS'1'
aS'2'
aS'1'
aS'2'
aS'2'
aS'1'
aS'1'
aS'2'
aS'2'
aS'1'
aS'2'
aS'2'
aS'1'
aS'1'
aS'2'
aS'1'
aS'2'
aS'1'
aS'1'
aS'2'
aS'1'
aS'1'
aS'2'
aS'2'
aS'1'
aS'1'
aS'1'
aS'2'
aS'1'
aS'1'
aS'1'
aS'2'
aS'2'
aS'2'
aS'2'
aS'1'
aS'1'
aS'2'
aS'2'
aS'2'
aS'1'
aS'1'
aS'2'
aS'2'
aS'1'
aS'1'
aS'1'
aS'2'
aS'2'
aS'2'
aS'1'
aS'1'
aS'2'
aS'2'
aS'2'
aS'1'
aS'2'
aS'1'
aS'2'
aS'2'
aS'2'
aS'2'
aS'2'
aS'2'
aS'1'
aS'2'
aS'2'
aS'2'
aS'2'
atbsg17
cnumpy.ma.core
_mareconstruct
p1162
(cnumpy.ma.core
MaskedArray
p1163
g1158
(I0
tp1164
S'b'
tRp1165
(I1
(I96
I1
tg37
(S'f4'
I0
I1
tRp1166
(I3
S'<'
NNNI-1
I-1
I0
tbI00
S'(\x0c\x9eCBO\x92C\xb3\x18\xebC\xa63\x8bC"{\x03C\x84*\xc6B\x81\xfb\xcbCO#\xc4CqS\xdeA=\n%C\x99\xa9\x96C\xe7=aC\xf0S\xedC"\x9fBC\x0eX\xddC\xb5\xf7\xb3C\x81+\x84C\xa9\xc5VC\r\x1f\xe2C\x97\xfa\xc9C\xd6\xf1\x9eB\xc2\xcd.C\xd6\xc3\x96Bn\x1e\x08C\xd2\xef\xe3CW+\xe6Ci\xb22C\xd9\x0f\xb6C[\xf5jC\x15=tC\xbfa\xb8C\xfd(\xa8C\xc3\x0f\x9cC\xcay}BPyr@\rl\xb1C\xc7\xad\xbfCb2iA\x89\x85\xd3C\xf7\x7f\x9aA\x18b\xaaCw\x02\x82C\x97\x13\x8cBz\x87\xb4B\xbcM=C\x86<SB\x91\x19\xeeB^\x0c\x17C\xfc\x94\x1cA\xaf\xcd\xbcC\x96\xfcdC\x93\xb4\x11C\xb9\xa7\x94C\xe0#\x80C\x93\\\x8eC*\x8e\xc7Ca\x9f\xa7Bg\x18\xadC\x1e-\xa1C\xf3\x9f C\xfa\x15\x90CHE{C\x86y\xa3C)\xe7\x1bC\x00lcB\xab\x95\x14Bh;+B1\x05?B\x9b\xc1\xefC\xe0\xa1KC\x13\xe2\xc1C\xda\xed\xd0C]h\rC\xd2\x0c\xbcA\xdcW\xafC\xb6t\xcfB\xaaAQC[\x90*C\x96\xad7C\xc8\xb5\\C\x83\xa2\xd5Cd\x94\xdfCoG\xceC89GC\xd6=\xe8C\xfd\xac\x01B?\xa2\xbaC\x82\xaa\xe5B\x98\xf3\xd7C"\\\x99CL\x8a\xa5C\x90\xa8\xddB\xc2\xe8\xbdBMy\xfdB\x93\x0f\x86C\xe1\x82\xdaC'
S'\x00\x00\x00\x00\x00\x00\x00\x00\x00\x00\x00\x00\x00\x00\x00\x00\x00\x00\x00\x00\x00\x00\x00\x00\x00\x00\x00\x00\x00\x00\x00\x00\x00\x00\x00\x00\x00\x00\x00\x00\x00\x00\x00\x00\x00\x00\x00\x00\x00\x00\x00\x00\x00\x00\x00\x00\x00\x00\x00\x00\x00\x00\x00\x00\x00\x00\x00\x00\x00\x00\x00\x00\x00\x00\x00\x00\x00\x00\x00\x00\x00\x00\x00\x00\x00\x00\x00\x00\x00\x00\x00\x00\x00\x00\x00\x00'
NtbsS'ran'
p1167
g1162
(g1163
g1158
g1164
S'b'
tRp1168
(I1
(I96
I1
tg1166
I00
S'\x00\x00\x80?\x00\x00\x80?\x00\x00\x80?\x00\x00\x80?\x00\x00\x80?\x00\x00\x80?\x00\x00\x80?\x00\x00\x80?\x00\x00\x80?\x00\x00\x80?\x00\x00\x80?\x00\x00\x80?\x00\x00\x80?\x00\x00\x80?\x00\x00\x80?\x00\x00\x80?\x00\x00\x80?\x00\x00\x80?\x00\x00\x80?\x00\x00\x80?\x00\x00\x80?\x00\x00\x80?\x00\x00\x80?\x00\x00\x80?\x00\x00\x80?\x00\x00\x80?\x00\x00\x80?\x00\x00\x80?\x00\x00\x80?\x00\x00\x80?\x00\x00\x80?\x00\x00\x80?\x00\x00\x80?\x00\x00\x80?\x00\x00\x80?\x00\x00\x80?\x00\x00\x80?\x00\x00\x80?\x00\x00\x80?\x00\x00\x80?\x00\x00\x80?\x00\x00\x80?\x00\x00\x80?\x00\x00\x80?\x00\x00\x80?\x00\x00\x80?\x00\x00\x80?\x00\x00\x80?\x00\x00\x80?\x00\x00\x80?\x00\x00\x80?\x00\x00\x80?\x00\x00\x80?\x00\x00\x80?\x00\x00\x80?\x00\x00\x80?\x00\x00\x80?\x00\x00\x80?\x00\x00\x80?\x00\x00\x80?\x00\x00\x80?\x00\x00\x80?\x00\x00\x80?\x00\x00\x80?\x00\x00\x80?\x00\x00\x80?\x00\x00\x80?\x00\x00\x80?\x00\x00\x80?\x00\x00\x80?\x00\x00\x80?\x00\x00\x80?\x00\x00\x80?\x00\x00\x80?\x00\x00\x80?\x00\x00\x80?\x00\x00\x80?\x00\x00\x80?\x00\x00\x80?\x00\x00\x80?\x00\x00\x80?\x00\x00\x80?\x00\x00\x80?\x00\x00\x80?\x00\x00\x80?\x00\x00\x80?\x00\x00\x80?\x00\x00\x80?\x00\x00\x80?\x00\x00\x80?\x00\x00\x80?\x00\x00\x80?\x00\x00\x80?\x00\x00\x80?\x00\x00\x80?\x00\x00\x80?'
S'\x00\x00\x00\x00\x00\x00\x00\x00\x00\x00\x00\x00\x00\x00\x00\x00\x00\x00\x00\x00\x00\x00\x00\x00\x00\x00\x00\x00\x00\x00\x00\x00\x00\x00\x00\x00\x00\x00\x00\x00\x00\x00\x00\x00\x00\x00\x00\x00\x00\x00\x00\x00\x00\x00\x00\x00\x00\x00\x00\x00\x00\x00\x00\x00\x00\x00\x00\x00\x00\x00\x00\x00\x00\x00\x00\x00\x00\x00\x00\x00\x00\x00\x00\x00\x00\x00\x00\x00\x00\x00\x00\x00\x00\x00\x00\x00'
Ntbsg24
g1162
(g1163
g1158
g1164
S'b'
tRp1169
(I1
(I96
I1
tg1166
I00
S'\x00\x00\x00\x00\x00\x00\x00\x00\x00\x00\x80?\x00\x00\x00\x00\x00\x00\x00\x00\x00\x00\x80?\x00\x00\x80?\x00\x00\x00\x00\x00\x00\x80?\x00\x00\x00\x00\x00\x00\x00\x00\x00\x00\x80?\x00\x00\x00\x00\x00\x00\x00\x00\x00\x00\x80?\x00\x00\x00\x00\x00\x00\x80?\x00\x00\x80?\x00\x00\x80?\x00\x00\x00\x00\x00\x00\x00\x00\x00\x00\x00\x00\x00\x00\x00\x00\x00\x00\x00\x00\x00\x00\x00\x00\x00\x00\x00\x00\x00\x00\x80?\x00\x00\x00\x00\x00\x00\x00\x00\x00\x00\x00\x00\x00\x00\x80?\x00\x00\x80?\x00\x00\x80?\x00\x00\x00\x00\x00\x00\x00\x00\x00\x00\x00\x00\x00\x00\x80?\x00\x00\x00\x00\x00\x00\x80?\x00\x00\x00\x00\x00\x00\x00\x00\x00\x00\x00\x00\x00\x00\x00\x00\x00\x00\x80?\x00\x00\x00\x00\x00\x00\x80?\x00\x00\x00\x00\x00\x00\x00\x00\x00\x00\x00\x00\x00\x00\x00\x00\x00\x00\x00\x00\x00\x00\x00\x00\x00\x00\x80?\x00\x00\x00\x00\x00\x00\x00\x00\x00\x00\x80?\x00\x00\x00\x00\x00\x00\x00\x00\x00\x00\x80?\x00\x00\x80?\x00\x00\x80?\x00\x00\x00\x00\x00\x00\x00\x00\x00\x00\x80?\x00\x00\x00\x00\x00\x00\x00\x00\x00\x00\x80?\x00\x00\x00\x00\x00\x00\x00\x00\x00\x00\x80?\x00\x00\x00\x00\x00\x00\x00\x00\x00\x00\x80?\x00\x00\x00\x00\x00\x00\x80?\x00\x00\x00\x00\x00\x00\x00\x00\x00\x00\x00\x00\x00\x00\x00\x00\x00\x00\x00\x00\x00\x00\x80?\x00\x00\x00\x00\x00\x00\x00\x00\x00\x00\x80?\x00\x00\x80?\x00\x00\x00\x00\x00\x00\x00\x00\x00\x00\x80?\x00\x00\x00\x00\x00\x00\x00\x00\x00\x00\x80?\x00\x00\x00\x00\x00\x00\x00\x00\x00\x00\x80?\x00\x00\x00\x00\x00\x00\x00\x00'
S'\x00\x00\x00\x00\x00\x00\x00\x00\x00\x00\x00\x00\x00\x00\x00\x00\x00\x00\x00\x00\x00\x00\x00\x00\x00\x00\x00\x00\x00\x00\x00\x00\x00\x00\x00\x00\x00\x00\x00\x00\x00\x00\x00\x00\x00\x00\x00\x00\x00\x00\x00\x00\x00\x00\x00\x00\x00\x00\x00\x00\x00\x00\x00\x00\x00\x00\x00\x00\x00\x00\x00\x00\x00\x00\x00\x00\x00\x00\x00\x00\x00\x00\x00\x00\x00\x00\x00\x00\x00\x00\x00\x00\x00\x00\x00\x00'
Ntbsg14
g1162
(g1163
g1158
g1164
S'b'
tRp1170
(I1
(I96
I1
tg1166
I00
S'\xab\x07\x9eC\xa6L\x92C/\x15\xebC]0\x8bC\xa9r\x03C\x80"\xc6BR\xf8\xcbCx\x1f\xc4C\xcc\x18\xdeAa\x05%C\x1d\xa6\x96C\xdb8aCPQ\xedC\xdb\x95BC\xebS\xddC\xe4\xf3\xb3C\x9b(\x84CA\xbdVC\xb3\x1b\xe2C|\xf8\xc9C\xab\xe3\x9eB\xb1\xc5.CF\xbb\x96B\x87\x16\x08C[\xed\xe3C3(\xe6C\xd7\xb02C\x19\x0c\xb6C\x0c\xf4jC\xc7;tC\x08^\xb8C\xa1%\xa8C?\x0e\x9cC\xfde}B\xf4\xfdo@;h\xb1C\xc8\xa9\xbfC\x86\xdahA\\\x80\xd3Cg0\x9aA\xe9]\xaaCp\xfe\x81C\x1a\x02\x8cB\xefy\xb4B\x19F=C{%SBF\xfb\xedBA\x05\x17C\x04^\x1cA\x06\xcc\xbcC\xf6\xfadC\xcb\xad\x11C\xb7\xa3\x94C\xf6\x1f\x80C\x86X\x8eCU\x8a\xc7Cv\x91\xa7B\xbf\x17\xadC"(\xa1C\xf4\x99 C\xcf\x11\x90C\x1f={C8v\xa3Cn\xdc\x1bC4McB\xe8h\x14Be\x19+BC\xf1>B\xe6\xbc\xefCt\x9dKC~\xdf\xc1C\xb8\xeb\xd0C(a\rC;\xc8\xbbA\xdfS\xafC<j\xcfB/:QCs\x88*C^\xa97C\x14\xac\\C\xfc\x9e\xd5C\x0b\x90\xdfC\xd7C\xceC\x072GC\xfe9\xe8CW\x87\x01B(\x9a\xbaCq\x9a\xe5B\xa1\xef\xd7CBX\x99C\xba\x86\xa5C\x1a\x9b\xddBS\xdb\xbdBIj\xfdB8\x0c\x86C$\x7f\xdaC'
S'\x00\x00\x00\x00\x00\x00\x00\x00\x00\x00\x00\x00\x00\x00\x00\x00\x00\x00\x00\x00\x00\x00\x00\x00\x00\x00\x00\x00\x00\x00\x00\x00\x00\x00\x00\x00\x00\x00\x00\x00\x00\x00\x00\x00\x00\x00\x00\x00\x00\x00\x00\x00\x00\x00\x00\x00\x00\x00\x00\x00\x00\x00\x00\x00\x00\x00\x00\x00\x00\x00\x00\x00\x00\x00\x00\x00\x00\x00\x00\x00\x00\x00\x00\x00\x00\x00\x00\x00\x00\x00\x00\x00\x00\x00\x00\x00'
Ntbsg16
g1157
(g1158
(I0
tS'b'
tRp1171
(I1
(I96
I1
tg1160
I00
(lp1172
g758
ag703
ag1110
ag670
ag361
ag295
ag967
ag934
ag136
ag438
ag725
ag571
ag1121
ag504
ag1044
ag857
ag648
ag548
ag1066
ag956
ag250
ag460
ag239
ag372
ag1077
ag1088
ag471
ag868
ag593
ag604
ag879
ag802
ag747
ag217
ag71
ag846
ag912
ag100
ag1000
ag113
ag813
ag637
ag228
ag272
ag493
ag194
ag339
ag405
ag87
ag901
ag582
ag394
ag714
ag626
ag681
ag945
ag261
ag824
ag769
ag427
ag692
ag615
ag780
ag416
ag205
ag159
ag171
ag183
ag1132
ag526
ag923
ag989
ag383
ag124
ag835
ag306
ag537
ag449
ag482
ag560
ag1011
ag1055
ag978
ag515
ag1099
ag148
ag890
ag328
ag1022
ag736
ag791
ag317
ag283
ag350
ag659
ag1033
atbsg15
g1157
(g1158
(I0
tS'b'
tRp1173
(I1
(I96
I1
tg1160
I00
(lp1174
g88
ag88
ag72
ag88
ag88
ag88
ag88
ag72
ag72
ag72
ag88
ag88
ag88
ag88
ag88
ag88
ag88
ag72
ag72
ag88
ag88
ag88
ag72
ag72
ag72
ag88
ag88
ag72
ag72
ag72
ag72
ag88
ag72
ag72
ag72
ag88
ag72
ag72
ag88
ag72
ag88
ag72
ag88
ag88
ag88
ag72
ag88
ag72
ag88
ag88
ag88
ag88
ag72
ag72
ag72
ag72
ag72
ag88
ag72
ag88
ag88
ag88
ag88
ag72
ag88
ag72
ag88
ag72
ag72
ag88
ag88
ag72
ag72
ag72
ag72
ag72
ag72
ag88
ag72
ag72
ag88
ag88
ag88
ag72
ag72
ag72
ag88
ag88
ag88
ag72
ag72
ag88
ag88
ag88
ag72
ag72
atbsg22
g1162
(g1163
g1158
g1164
S'b'
tRp1175
(I1
(I96
I1
tg1166
I00
S'\x05\x05\xa0CH\x91\x93C\x88X\xecC\x00/\x8dC\x1f\xa2\x05C\xb0\xa0\xcbBA5\xcdC\xd1\x1c\xc6C\xa1D\xf3A\xfb\x9b(Cx$\x98C\xff\xf9bC\x03\xb6\xeeC46EC\x00\x8d\xdeCs\x0f\xb5C\x8e!\x85C{\x91ZC*\xee\xe2C\xac\x04\xcbC\xe6u\xa3BH\xbf0C\xb5\xb8\x9aB\xc6b\x0bC\x0c\x17\xe5C\xf46\xe7C\xfa\xaa5C\x1ai\xb7C)\xe6qCOAyC\xaa\xa2\xb9C\xfah\xa9Ct\x11\x9dC\xf3\xc4\x82B\xf5\x8c\xe9@2\xd7\xb2Ch\xee\xc0Ck\xe0\x88A\x07\xb3\xd4C:&\xaaA\x1e\x1b\xacC\x90%\x83CC.\x91BH\xd4\xb9B\\\n@C|\x9b[B\xfa\xe6\xf6BD\xfa\x19Ca\xf7;Ao\xae\xbeC\xa8\xf5hC/\xff\x14C\xec\xa6\x95C\x18\x03\x81CU\x11\x8fC\xaf\x08\xc9C\x9d\xb5\xb0Ba\\\xaeC\x06w\xa2C6##C\x98R\x91C\xf6>~C\xee\x96\xa4C\xf3o\x1eC\xe5\xd2uB5|#Bw*6B\xc9>HB\xe5\xde\xf0C\\>OC@)\xc3C+\x81\xd2C\x1a\xb7\x0fC\xbd\x9f\xccA\xe2l\xb0C\x02\xf5\xd8B+\xb7TC\xe0\xc9,C\xbf5;C\xa3\xf2^CI\xf4\xd6C\\ \xe1Ca\xf0\xcfC|&IC\x1e\xe0\xe9C\x01\x13\x0cB>\xd3\xbbC?\xf4\xe9BJf\xd9C\x9a\x11\x9bCo&\xa7CU\xb7\xe1B\xfc/\xc2B\xf9{\x01C\x1e\xcd\x89C37\xdcC'
S'\x00\x00\x00\x00\x00\x00\x00\x00\x00\x00\x00\x00\x00\x00\x00\x00\x00\x00\x00\x00\x00\x00\x00\x00\x00\x00\x00\x00\x00\x00\x00\x00\x00\x00\x00\x00\x00\x00\x00\x00\x00\x00\x00\x00\x00\x00\x00\x00\x00\x00\x00\x00\x00\x00\x00\x00\x00\x00\x00\x00\x00\x00\x00\x00\x00\x00\x00\x00\x00\x00\x00\x00\x00\x00\x00\x00\x00\x00\x00\x00\x00\x00\x00\x00\x00\x00\x00\x00\x00\x00\x00\x00\x00\x00\x00\x00'
Ntbsg26
g1157
(g1158
(I0
tS'b'
tRp1176
(I1
(I96
I1
tg1160
I00
(lp1177
g36
(g80
S'\x04\x00\x00\x00'
tRp1178
ag36
(g80
S'\x02\x00\x00\x00'
tRp1179
ag36
(g80
S'\x02\x00\x00\x00'
tRp1180
ag36
(g80
S'\x03\x00\x00\x00'
tRp1181
ag36
(g80
S'\x03\x00\x00\x00'
tRp1182
ag36
(g80
S'\x01\x00\x00\x00'
tRp1183
ag36
(g80
S'\x01\x00\x00\x00'
tRp1184
ag36
(g80
S'\x02\x00\x00\x00'
tRp1185
aI1
ag36
(g80
S'\x03\x00\x00\x00'
tRp1186
ag36
(g80
S'\x03\x00\x00\x00'
tRp1187
ag36
(g80
S'\x02\x00\x00\x00'
tRp1188
ag36
(g80
S'\x05\x00\x00\x00'
tRp1189
aI1
ag36
(g80
S'\x02\x00\x00\x00'
tRp1190
ag36
(g80
S'\x02\x00\x00\x00'
tRp1191
aI1
ag36
(g80
S'\x02\x00\x00\x00'
tRp1192
ag36
(g80
S'\x02\x00\x00\x00'
tRp1193
ag36
(g80
S'\x02\x00\x00\x00'
tRp1194
aI1
ag36
(g80
S'\x01\x00\x00\x00'
tRp1195
aI1
ag36
(g80
S'\x02\x00\x00\x00'
tRp1196
ag36
(g80
S'\x04\x00\x00\x00'
tRp1197
ag36
(g80
S'\x01\x00\x00\x00'
tRp1198
aI1
ag36
(g80
S'\x01\x00\x00\x00'
tRp1199
ag36
(g80
S'\x04\x00\x00\x00'
tRp1200
ag36
(g80
S'\x03\x00\x00\x00'
tRp1201
aI1
ag36
(g80
S'\x02\x00\x00\x00'
tRp1202
ag36
(g80
S'\x01\x00\x00\x00'
tRp1203
ag36
(g80
S'\x01\x00\x00\x00'
tRp1204
aS'5.0'
p1205
ag36
(g80
S'\x04\x00\x00\x00'
tRp1206
ag36
(g80
S'\x01\x00\x00\x00'
tRp1207
aI1
ag36
(g80
S'\x01\x00\x00\x00'
tRp1208
aI1
ag36
(g80
S'\x03\x00\x00\x00'
tRp1209
aI1
aI1
aI1
ag36
(g80
S'\x01\x00\x00\x00'
tRp1210
ag36
(g80
S'\x01\x00\x00\x00'
tRp1211
ag36
(g80
S'\x04\x00\x00\x00'
tRp1212
ag36
(g80
S'\x02\x00\x00\x00'
tRp1213
ag36
(g80
S'\x02\x00\x00\x00'
tRp1214
ag36
(g80
S'\x02\x00\x00\x00'
tRp1215
ag36
(g80
S'\x05\x00\x00\x00'
tRp1216
ag36
(g80
S'\x03\x00\x00\x00'
tRp1217
ag36
(g80
S'\x01\x00\x00\x00'
tRp1218
ag36
(g80
S'\x01\x00\x00\x00'
tRp1219
ag36
(g80
S'\x02\x00\x00\x00'
tRp1220
aI1
aI1
ag36
(g80
S'\x02\x00\x00\x00'
tRp1221
ag36
(g80
S'\x01\x00\x00\x00'
tRp1222
ag36
(g80
S'\x02\x00\x00\x00'
tRp1223
ag36
(g80
S'\x01\x00\x00\x00'
tRp1224
ag36
(g80
S'\x02\x00\x00\x00'
tRp1225
ag36
(g80
S'\x02\x00\x00\x00'
tRp1226
ag36
(g80
S'\x01\x00\x00\x00'
tRp1227
ag36
(g80
S'\x03\x00\x00\x00'
tRp1228
aI1
aI1
ag36
(g80
S'\x02\x00\x00\x00'
tRp1229
ag36
(g80
S'\x03\x00\x00\x00'
tRp1230
ag36
(g80
S'\x02\x00\x00\x00'
tRp1231
ag36
(g80
S'\x03\x00\x00\x00'
tRp1232
ag36
(g80
S'\x02\x00\x00\x00'
tRp1233
ag36
(g80
S'\x01\x00\x00\x00'
tRp1234
aI1
ag36
(g80
S'\x01\x00\x00\x00'
tRp1235
ag36
(g80
S'\x04\x00\x00\x00'
tRp1236
ag36
(g80
S'\x03\x00\x00\x00'
tRp1237
ag36
(g80
S'\x02\x00\x00\x00'
tRp1238
ag36
(g80
S'\x03\x00\x00\x00'
tRp1239
ag36
(g80
S'\x04\x00\x00\x00'
tRp1240
ag36
(g80
S'\x04\x00\x00\x00'
tRp1241
ag36
(g80
S'\x04\x00\x00\x00'
tRp1242
ag36
(g80
S'\x03\x00\x00\x00'
tRp1243
aI1
aI1
ag36
(g80
S'\x03\x00\x00\x00'
tRp1244
ag36
(g80
S'\x03\x00\x00\x00'
tRp1245
aI1
ag36
(g80
S'\x05\x00\x00\x00'
tRp1246
ag36
(g80
S'\x02\x00\x00\x00'
tRp1247
ag36
(g80
S'\x01\x00\x00\x00'
tRp1248
ag36
(g80
S'\x01\x00\x00\x00'
tRp1249
ag36
(g80
S'\x02\x00\x00\x00'
tRp1250
ag36
(g80
S'\x02\x00\x00\x00'
tRp1251
ag36
(g80
S'\x04\x00\x00\x00'
tRp1252
ag36
(g80
S'\x03\x00\x00\x00'
tRp1253
atbsg21
g1162
(g1163
g1158
g1164
S'b'
tRp1254
(I1
(I96
I1
tg1166
I00
S'F\xa0*@\xad\xa9\xa1?\x9b\x18\x9f?\xcc\x8c,@\xbbdd?k\xdc\xbd?\xc9\xf6\x99?\xc4\x8c,@w\xc5\xaf?v\x86\x13@\x17\xd2\xd8?\xa0i\xf6>&\xe2\xbd?\x1b\xec\xab?4\xd5\x94?\xa2\x0cl?A\x86.?\x08\xee"@\xb6\xd4\xb8>~pR?\x14\x97\x81?\xdc\xa53?\xe9W;?hK\x00@\x85\xdf\x82?LpR?7\xab\xdc?\x13\xc0\xb8?\x9c3\xb5@\xdc\xe5o@\x1e\xa9\xa1?\xd8\xcf\x9d?\x10\x9bE?p\x9bE?\'\xc3\r@6\xdc\xc6?\xc5`\xa0?\xbf\x82\xa5?\x9bk\x8e?\xba96?\xa5\xd6\x0b@\xf9\'\x84?\x81\xca\xa6?\x84\x9e\xb3?m*\xbf?v!Z?U!H@xA\xd6?\xf176?\xda\xb8\x1f@h\xe8+@\x13\x94\x01@\x8ey@?\xc7U\x00?\x15l$>f\x1a\xda?\xb6\x08S@!\xf2\xa2?\xdf\xa3\xaa? \xa9\xa1?\xa6\xd0\x9d?B\xab\xdc?MZv?A\x82\xa5?\x9a\x96U@Tp\x1e@\x97*\xbf?\xd7\xb7\x86?dZv?\x06\xbe\x16@R\x82\xa5?\xb91\xf1?:\x01\x88?@oR?q\x17l?U\x94^@\xdbz\x0c@\xaf\xebx?9\xf8\x10@\xb2[v?\xf6|\xae?\x957\xe8?y\x80\x03@\x12\x84.?\xb6\xef\x00@\xd7\xa3\xaa?\x8f\xb3\x8f?a\xf6f?\x1aG\xcd?\xab\x8b\n@6\xbd\xfc?O,H?\xfc\xd3a?\xff)\xbf?\xf9\x84\xc6@\xfa\x9e\x08@'
S'\x00\x00\x00\x00\x00\x00\x00\x00\x00\x00\x00\x00\x00\x00\x00\x00\x00\x00\x00\x00\x00\x00\x00\x00\x00\x00\x00\x00\x00\x00\x00\x00\x00\x00\x00\x00\x00\x00\x00\x00\x00\x00\x00\x00\x00\x00\x00\x00\x00\x00\x00\x00\x00\x00\x00\x00\x00\x00\x00\x00\x00\x00\x00\x00\x00\x00\x00\x00\x00\x00\x00\x00\x00\x00\x00\x00\x00\x00\x00\x00\x00\x00\x00\x00\x00\x00\x00\x00\x00\x00\x00\x00\x00\x00\x00\x00'
NtbsS'order'
p1255
g1162
(g1163
g1158
g1164
S'b'
tRp1256
(I1
(I96
I1
tg1166
I00
S'\x00\x00tB\x00\x00`B\x00\x00\xbaB\x00\x00TB\x00\x00\xc8A\x00\x00\x98A\x00\x00\xa0B\x00\x00\x9aB\x00\x00\xa0@\x00\x00\x00B\x00\x00hB\x00\x000B\x00\x00\xbcB\x00\x00\x18B\x00\x00\xaeB\x00\x00\x8cB\x00\x00LB\x00\x00(B\x00\x00\xb2B\x00\x00\x9eB\x00\x00pA\x00\x00\x08B\x00\x00`A\x00\x00\xd0A\x00\x00\xb4B\x00\x00\xb6B\x00\x00\x0cB\x00\x00\x8eB\x00\x008B\x00\x00<B\x00\x00\x90B\x00\x00\x82B\x00\x00pB\x00\x00@A\x00\x00\x00\x00\x00\x00\x8aB\x00\x00\x96B\x00\x00\x00@\x00\x00\xa6B\x00\x00@@\x00\x00\x84B\x00\x00HB\x00\x00PA\x00\x00\x88A\x00\x00\x14B\x00\x00 A\x00\x00\xb8A\x00\x00\xe8A\x00\x00\x80?\x00\x00\x94B\x00\x004B\x00\x00\xe0A\x00\x00dB\x00\x00DB\x00\x00XB\x00\x00\x9cB\x00\x00\x80A\x00\x00\x86B\x00\x00xB\x00\x00\xf8A\x00\x00\\B\x00\x00@B\x00\x00|B\x00\x00\xf0A\x00\x000A\x00\x00\xe0@\x00\x00\x00A\x00\x00\x10A\x00\x00\xbeB\x00\x00 B\x00\x00\x98B\x00\x00\xa4B\x00\x00\xd8A\x00\x00\x80@\x00\x00\x88B\x00\x00\xa0A\x00\x00$B\x00\x00\x04B\x00\x00\x10B\x00\x00,B\x00\x00\xa8B\x00\x00\xb0B\x00\x00\xa2B\x00\x00\x1cB\x00\x00\xb8B\x00\x00\xc0@\x00\x00\x92B\x00\x00\xb0A\x00\x00\xaaB\x00\x00lB\x00\x00\x80B\x00\x00\xa8A\x00\x00\x90A\x00\x00\xc0A\x00\x00PB\x00\x00\xacB'
S'\x00\x00\x00\x00\x00\x00\x00\x00\x00\x00\x00\x00\x00\x00\x00\x00\x00\x00\x00\x00\x00\x00\x00\x00\x00\x00\x00\x00\x00\x00\x00\x00\x00\x00\x00\x00\x00\x00\x00\x00\x00\x00\x00\x00\x00\x00\x00\x00\x00\x00\x00\x00\x00\x00\x00\x00\x00\x00\x00\x00\x00\x00\x00\x00\x00\x00\x00\x00\x00\x00\x00\x00\x00\x00\x00\x00\x00\x00\x00\x00\x00\x00\x00\x00\x00\x00\x00\x00\x00\x00\x00\x00\x00\x00\x00\x00'
Ntbsg19
g1162
(g1163
g1158
g1164
S'b'
tRp1257
(I1
(I96
I1
tg1166
I00
S'\x00\x00\x80?\x00\x00\x80?\x00\x00\x80?\x00\x00\x00\x00\x00\x00\x80?\x00\x00\x80?\x00\x00\x80?\x00\x00\x80?\x00\x00\x80?\x00\x00\x00\x00\x00\x00\x80?\x00\x00\x80?\x00\x00\x80?\x00\x00\x80?\x00\x00\x80?\x00\x00\x80?\x00\x00\x00\x00\x00\x00\x80?\x00\x00\x00\x00\x00\x00\x80?\x00\x00\x80?\x00\x00\x80?\x00\x00\x80?\x00\x00\x80?\x00\x00\x80?\x00\x00\x80?\x00\x00\x00\x00\x00\x00\x00\x00\x00\x00\x00\x00\x00\x00\x80?\x00\x00\x00\x00\x00\x00\x80?\x00\x00\x00\x00\x00\x00\x00\x00\x00\x00\x80?\x00\x00\x80?\x00\x00\x80?\x00\x00\x00\x00\x00\x00\x00\x00\x00\x00\x00\x00\x00\x00\x80?\x00\x00\x00\x00\x00\x00\x80?\x00\x00\x00\x00\x00\x00\x80?\x00\x00\x00\x00\x00\x00\x80?\x00\x00\x80?\x00\x00\x80?\x00\x00\x00\x00\x00\x00\x00\x00\x00\x00\x80?\x00\x00\x00\x00\x00\x00\x80?\x00\x00\x00\x00\x00\x00\x00\x00\x00\x00\x00\x00\x00\x00\x80?\x00\x00\x00\x00\x00\x00\x00\x00\x00\x00\x00\x00\x00\x00\x00\x00\x00\x00\x00\x00\x00\x00\x00\x00\x00\x00\x80?\x00\x00\x80?\x00\x00\x80?\x00\x00\x00\x00\x00\x00\x00\x00\x00\x00\x80?\x00\x00\x00\x00\x00\x00\x80?\x00\x00\x80?\x00\x00\x00\x00\x00\x00\x80?\x00\x00\x80?\x00\x00\x00\x00\x00\x00\x00\x00\x00\x00\x80?\x00\x00\x80?\x00\x00\x00\x00\x00\x00\x80?\x00\x00\x80?\x00\x00\x00\x00\x00\x00\x00\x00\x00\x00\x80?\x00\x00\x80?\x00\x00\x80?\x00\x00\x80?\x00\x00\x00\x00\x00\x00\x80?\x00\x00\x00\x00\x00\x00\x80?\x00\x00\x80?\x00\x00\x80?\x00\x00\x80?'
S'\x00\x00\x00\x00\x00\x00\x00\x00\x00\x00\x00\x00\x00\x00\x00\x00\x00\x00\x00\x00\x00\x00\x00\x00\x00\x00\x00\x00\x00\x00\x00\x00\x00\x00\x00\x00\x00\x00\x00\x00\x00\x00\x00\x00\x00\x00\x00\x00\x00\x00\x00\x00\x00\x00\x00\x00\x00\x00\x00\x00\x00\x00\x00\x00\x00\x00\x00\x00\x00\x00\x00\x00\x00\x00\x00\x00\x00\x00\x00\x00\x00\x00\x00\x00\x00\x00\x00\x00\x00\x00\x00\x00\x00\x00\x00\x00'
Ntbsg27
g1157
(g1158
(I0
tS'b'
tRp1258
(I1
(I96
I1
tg1160
I00
(lp1259
g760
ag705
ag1112
ag672
ag363
ag297
ag969
ag936
ag139
ag440
ag727
ag573
ag1123
ag506
ag1046
ag859
ag650
ag551
ag1068
ag958
ag252
ag462
ag241
ag374
ag1079
ag1090
ag473
ag870
ag595
ag606
ag881
ag804
ag749
ag219
ag76
ag848
ag914
ag104
ag1002
ag115
ag815
ag639
ag230
ag274
ag495
ag196
ag341
ag407
ag91
ag903
ag584
ag396
ag716
ag628
ag683
ag947
ag263
ag826
ag771
ag429
ag694
ag617
ag782
ag418
ag208
ag162
ag174
ag185
ag1134
ag528
ag925
ag991
ag385
ag127
ag837
ag308
ag539
ag451
ag484
ag562
ag1013
ag1057
ag980
ag517
ag1101
ag150
ag892
ag330
ag1024
ag738
ag793
ag319
ag286
ag352
ag661
ag1035
atbsg23
g1157
(g1158
(I0
tS'b'
tRp1260
(I1
(I96
I1
tg1160
I00
(lp1261
S'3'
aS'2'
aS'1'
aS'2'
aS'2'
aS'1'
aS'1'
aS'3'
aS'1'
aS'2'
aS'2'
aS'1'
aS'3'
aS'2'
aS'1'
aS'2'
aS'1'
aS'1'
aS'1'
aS'2'
aS'3'
aS'2'
aS'2'
aS'2'
aS'3'
aS'2'
aS'1'
aS'2'
aS'2'
aS'2'
aS'1'
aS'1'
aS'1'
aS'2'
aS'3'
aS'3'
aS'1'
aS'2'
aS'1'
aS'2'
aS'2'
aS'2'
aS'3'
aS'1'
aS'2'
aS'1'
aS'3'
aS'2'
aS'3'
aS'2'
aS'2'
aS'2'
aS'1'
aS'2'
aS'2'
aS'1'
aS'2'
aS'2'
aS'1'
aS'1'
aS'1'
aS'2'
aS'2'
aS'1'
aS'3'
aS'2'
aS'1'
aS'2'
aS'2'
aS'1'
aS'2'
aS'2'
aS'1'
aS'2'
aS'1'
aS'3'
aS'2'
aS'2'
aS'3'
aS'3'
aS'1'
aS'3'
aS'2'
aS'1'
aS'1'
aS'3'
aS'2'
aS'1'
aS'3'
aS'2'
aS'1'
aS'2'
aS'2'
aS'1'
aS'2'
aS'2'
atbsg18
g1162
(g1163
g1158
g1164
S'b'
tRp1262
(I1
(I96
I1
tg1166
I00
S'#\xad\x9eC\xfc\xec\x92C\xce\xb6\xebCE\xd3\x8bCw\xb8\x04C\xb6\x9e\xc8B\xa8\x98\xccC\x16\xc1\xc4C7\x1e\xe8A\x9eH&C\x05I\x97C\x88ybC\x7f\xf5\xedC\x19\xd9CC\x89\xf5\xddC\xcb\x96\xb4C\xa9\xc7\x84C\x7f\x00XCR\xbd\xe2C\xd2\x98\xcaC\x02e\xa1B^\x060C}7\x99B\xc4Y\tC\x8b\x91\xe4C\x1a\xcb\xe6Ca\xec3C\xb8\xad\xb6CH7lCt|uC^\xfe\xb8C@\xc7\xa8C\x05\xac\x9cC7/\x81B\x9f\xae\xa1@j\x0c\xb2CfK\xc0C?\xbc|A\xfa!\xd4CLJ\xa4A\xcf\x00\xabC\xc7\x9e\x82C\x94\x88\x8eBI\xfb\xb6B\xc5\x86>C\xe9\x1dXBh\x9b\xf0B\x7fH\x18C\xb6?0A\\l\xbdC\xc2@fC\x9a\xf3\x12C\rD\x95CL\xc0\x80C%\xfa\x8eC\xf3+\xc8C\xce\x12\xaaB\xcd\xb6\xadC\xc1\xc9\xa1C\xa0\xda!C%\xb2\x90C]\x80|C\x1f\x19\xa4C\xab\x1f\x1dCldhB"\x80\x19B\x16\x1c0B\xf7\xf3CB\x16a\xf0C \xdeLC\x1d\x81\xc2CW\x8d\xd1C\xd4\xa1\x0eC%\xe2\xc5A5\xf4\xafC\xd7\xf5\xd1B\xfc\x7fRC\xb0\xcb+C\x9b\xec8C\x04\xf7]C*C\xd6C\x835\xe0C\xbe\xe6\xceC\xb4rHC\x9c\xdb\xe8C\xd2\xa8\x06B\xe9@\xbbC\xc9\x1b\xe8Bb\x96\xd8C\xe0\xf9\x99C\x11\'\xa6Cs\x1c\xe0B\xcda\xc0B\xc0\xf0\xffBg\xb0\x86CS#\xdbC'
S'\x00\x00\x00\x00\x00\x00\x00\x00\x00\x00\x00\x00\x00\x00\x00\x00\x00\x00\x00\x00\x00\x00\x00\x00\x00\x00\x00\x00\x00\x00\x00\x00\x00\x00\x00\x00\x00\x00\x00\x00\x00\x00\x00\x00\x00\x00\x00\x00\x00\x00\x00\x00\x00\x00\x00\x00\x00\x00\x00\x00\x00\x00\x00\x00\x00\x00\x00\x00\x00\x00\x00\x00\x00\x00\x00\x00\x00\x00\x00\x00\x00\x00\x00\x00\x00\x00\x00\x00\x00\x00\x00\x00\x00\x00\x00\x00'
Ntbsg25
g1162
(g1163
g1158
g1164
S'b'
tRp1263
(I1
(I96
I1
tg1166
I00
S'\xb8\x98\n?B\x80\xd2>\x0c\xbcW>\xb8l\x17?\xc5\xc68?@l$>\x19\x18\xc3>c\xb3\x8f?\xa8_v>\xf04C>n\xf4+?&\xa7\x8a>U0\x9f>(c\x80>u\xeb\x94>\x0c\x84v>\xf5\xc9\xcd=\xe2\xf5\xbd>n\x85\x85>m\xae.>\x1dY\xa4>\x82\xb9W>\x93\xb2\xb3>2\x85\x85>E[\xcd>l\xe9\x94>\x13\x85\x85>\xc0\xf08>\xd7\xfe\x19?\xa4e\x80>\x13xM>\xb3\xf28>_3C>\xa6\xbc8@\xaf\xe8=?\x86\x89\xfb>\x85(\x1a>"\xc0\xdc>\x86\xb2\xcd=#`\xf1>\xfd\x83v>C\xea\x94>\xd7p\x85?\x1f\xc7\x8f>\\\xdfO?\x8b\x0bC>:\x03\xc3?\x8e8\x1a>\xefI\x89?\xdfAl>\xcf\x84\x85>y\xe9\x94>#\x86\x85>pIl>r\xa7\x8a>\x80\xe3\x0f>\xff8\x1a>\x9d|M>\xad\x87\x85>\x9a%\x1a>\x88\xfda>\xa6\xa6\x8a>\xc3\xf2\x0f>"\xc0\xdc>\xb1j$>N\xb2.>\x06\'\xec>O\x0c~?\x19\xa6\x8a>\x0ec\x80>\xc53C>;\x85\x85>\xf7Dl>\x89\x03\xe7>\xa7Fl>in\x17?^\xe9\x94>\xe4b\x80>\xe4p\xa9>k\x99\n?\xe6?l>fCl>\xcd?l>\xfbW;?n\xf3+?x\xb3\xb3>\x8d\xb9W>R\xc8\x8f>\x17\x03\xe7>9\x84v>,\x84\x85>(\xb9W>\xb5\x82v>D?l>*p\x85?t\x8a\xfb>'
S'\x00\x00\x00\x00\x00\x00\x00\x00\x00\x00\x00\x00\x00\x00\x00\x00\x00\x00\x00\x00\x00\x00\x00\x00\x00\x00\x00\x00\x00\x00\x00\x00\x00\x00\x00\x00\x00\x00\x00\x00\x00\x00\x00\x00\x00\x00\x00\x00\x00\x00\x00\x00\x00\x00\x00\x00\x00\x00\x00\x00\x00\x00\x00\x00\x00\x00\x00\x00\x00\x00\x00\x00\x00\x00\x00\x00\x00\x00\x00\x00\x00\x00\x00\x00\x00\x00\x00\x00\x00\x00\x00\x00\x00\x00\x00\x00'
NtbstRp1264
(dp1265
S'isNumeric'
p1266
(dp1267
g23
I00
sg20
I00
sg17
I01
sg1167
I01
sg22
I01
sg24
I01
sg14
I01
sg18
I01
sg16
I00
sg19
I01
sg26
I00
sg27
I00
sg15
I00
sg21
I01
sg1255
I01
sg25
I01
ssg1151
g1145
sS'dataTypes'
p1268
(lp1269
g1167
ag1255
ag14
ag15
ag16
ag17
ag18
ag19
ag20
ag21
ag22
ag23
ag24
ag25
ag26
ag27
asS'dataShape'
p1270
(lp1271
I96
aI1
asbsS'method'
p1272
S'random'
p1273
sS'sequenceIndices'
p1274
g1157
(g1158
(I0
tS'b'
tRp1275
(I1
(I96
I1
tg80
I01
S'"\x00\x00\x000\x00\x00\x00%\x00\x00\x00\'\x00\x00\x00I\x00\x00\x00\x08\x00\x00\x00U\x00\x00\x00A\x00\x00\x00B\x00\x00\x00C\x00\x00\x00-\x00\x00\x00@\x00\x00\x00!\x00\x00\x00*\x00\x00\x00\x16\x00\x00\x00\x14\x00\x00\x008\x00\x00\x00+\x00\x00\x00\\\x00\x00\x00\x05\x00\x00\x00K\x00\x00\x00[\x00\x00\x00W\x00\x00\x00.\x00\x00\x00]\x00\x00\x00\x04\x00\x00\x00\x17\x00\x00\x00H\x00\x00\x003\x00\x00\x00/\x00\x00\x00?\x00\x00\x00;\x00\x00\x00\t\x00\x00\x00M\x00\x00\x00\x15\x00\x00\x00\x1a\x00\x00\x00N\x00\x00\x00,\x00\x00\x00\r\x00\x00\x00S\x00\x00\x00E\x00\x00\x00L\x00\x00\x00\x11\x00\x00\x00O\x00\x00\x00\x0b\x00\x00\x002\x00\x00\x00\x1c\x00\x00\x00\x1d\x00\x00\x00=\x00\x00\x005\x00\x00\x00)\x00\x00\x00\x10\x00\x00\x00^\x00\x00\x00\x03\x00\x00\x006\x00\x00\x00<\x00\x00\x00\x01\x00\x00\x004\x00\x00\x00\n\x00\x00\x00Y\x00\x00\x00 \x00\x00\x00\x00\x00\x00\x00:\x00\x00\x00>\x00\x00\x00Z\x00\x00\x00\x1f\x00\x00\x00(\x00\x00\x009\x00\x00\x00J\x00\x00\x00#\x00\x00\x00\x0f\x00\x00\x00\x1b\x00\x00\x00\x1e\x00\x00\x00V\x00\x00\x001\x00\x00\x00$\x00\x00\x00F\x00\x00\x00\x07\x00\x00\x007\x00\x00\x00\x13\x00\x00\x00\x06\x00\x00\x00R\x00\x00\x00G\x00\x00\x00&\x00\x00\x00P\x00\x00\x00X\x00\x00\x00_\x00\x00\x00\x0e\x00\x00\x00Q\x00\x00\x00\x12\x00\x00\x00\x18\x00\x00\x00\x19\x00\x00\x00T\x00\x00\x00\x02\x00\x00\x00\x0c\x00\x00\x00D\x00\x00\x00'
tbsS'finished'
p1276
I01
sS'nReps'
p1277
I1
sS'nRemaining'
p1278
I-1
sS'trialList'
p1279
(lp1280
g1
(cpsychopy.data
TrialType
p1281
g1155
(dp1282
g62
g102
sg63
g766
sg64
g137
sg65
g761
sg66
g765
stRp1283
ag1
(g1281
g1155
(dp1284
g62
g74
sg63
g711
sg64
g89
sg65
g706
sg66
g710
stRp1285
ag1
(g1281
g1155
(dp1286
g62
g102
sg63
g1118
sg64
g137
sg65
g1113
sg66
g1117
stRp1287
ag1
(g1281
g1155
(dp1288
g62
g102
sg63
g678
sg64
g101
sg65
g673
sg66
g677
stRp1289
ag1
(g1281
g1155
(dp1290
g62
g74
sg63
g369
sg64
g73
sg65
g364
sg66
g368
stRp1291
ag1
(g1281
g1155
(dp1292
g62
g102
sg63
g303
sg64
g137
sg65
g298
sg66
g302
stRp1293
ag1
(g1281
g1155
(dp1294
g62
g102
sg63
g975
sg64
g137
sg65
g970
sg66
g974
stRp1295
ag1
(g1281
g1155
(dp1296
g62
g102
sg63
g942
sg64
g206
sg65
g937
sg66
g941
stRp1297
ag1
(g1281
g1155
(dp1298
g62
g102
sg63
g145
sg64
g137
sg65
g140
sg66
g144
stRp1299
ag1
(g1281
g1155
(dp1300
g62
g102
sg63
g446
sg64
g206
sg65
g441
sg66
g445
stRp1301
ag1
(g1281
g1155
(dp1302
g62
g74
sg63
g733
sg64
g125
sg65
g728
sg66
g732
stRp1303
ag1
(g1281
g1155
(dp1304
g62
g102
sg63
g579
sg64
g206
sg65
g574
sg66
g578
stRp1305
ag1
(g1281
g1155
(dp1306
g62
g102
sg63
g1129
sg64
g549
sg65
g1124
sg66
g1128
stRp1307
ag1
(g1281
g1155
(dp1308
g62
g74
sg63
g512
sg64
g89
sg65
g507
sg66
g511
stRp1309
ag1
(g1281
g1155
(dp1310
g62
g102
sg63
g1052
sg64
g549
sg65
g1047
sg66
g1051
stRp1311
ag1
(g1281
g1155
(dp1312
g62
g102
sg63
g865
sg64
g137
sg65
g860
sg66
g864
stRp1313
ag1
(g1281
g1155
(dp1314
g62
g74
sg63
g656
sg64
g89
sg65
g651
sg66
g655
stRp1315
ag1
(g1281
g1155
(dp1316
g62
g102
sg63
g557
sg64
g549
sg65
g552
sg66
g556
stRp1317
ag1
(g1281
g1155
(dp1318
g62
g102
sg63
g1074
sg64
g172
sg65
g1069
sg66
g1073
stRp1319
ag1
(g1281
g1155
(dp1320
g62
g102
sg63
g964
sg64
g137
sg65
g959
sg66
g963
stRp1321
ag1
(g1281
g1155
(dp1322
g62
g74
sg63
g258
sg64
g89
sg65
g253
sg66
g257
stRp1323
ag1
(g1281
g1155
(dp1324
g62
g74
sg63
g468
sg64
g160
sg65
g463
sg66
g467
stRp1325
ag1
(g1281
g1155
(dp1326
g62
g102
sg63
g247
sg64
g172
sg65
g242
sg66
g246
stRp1327
ag1
(g1281
g1155
(dp1328
g62
g74
sg63
g380
sg64
g160
sg65
g375
sg66
g379
stRp1329
ag1
(g1281
g1155
(dp1330
g62
g74
sg63
g1085
sg64
g125
sg65
g1080
sg66
g1084
stRp1331
ag1
(g1281
g1155
(dp1332
g62
g102
sg63
g1096
sg64
g284
sg65
g1091
sg66
g1095
stRp1333
ag1
(g1281
g1155
(dp1334
g62
g74
sg63
g479
sg64
g73
sg65
g474
sg66
g478
stRp1335
ag1
(g1281
g1155
(dp1336
g62
g74
sg63
g876
sg64
g89
sg65
g871
sg66
g875
stRp1337
ag1
(g1281
g1155
(dp1338
g62
g102
sg63
g601
sg64
g549
sg65
g596
sg66
g600
stRp1339
ag1
(g1281
g1155
(dp1340
g62
g102
sg63
g612
sg64
g137
sg65
g607
sg66
g611
stRp1341
ag1
(g1281
g1155
(dp1342
g62
g102
sg63
g887
sg64
g172
sg65
g882
sg66
g886
stRp1343
ag1
(g1281
g1155
(dp1344
g62
g102
sg63
g810
sg64
g172
sg65
g805
sg66
g809
stRp1345
ag1
(g1281
g1155
(dp1346
g62
g74
sg63
g755
sg64
g89
sg65
g750
sg66
g754
stRp1347
ag1
(g1281
g1155
(dp1348
g62
g74
sg63
g225
sg64
g73
sg65
g220
sg66
g224
stRp1349
ag1
(g1281
g1155
(dp1350
g62
g74
sg63
g84
sg64
g73
sg65
g78
sg66
g83
stRp1351
ag1
(g1281
g1155
(dp1352
g62
g102
sg63
g854
sg64
g549
sg65
g849
sg66
g853
stRp1353
ag1
(g1281
g1155
(dp1354
g62
g102
sg63
g920
sg64
g284
sg65
g915
sg66
g919
stRp1355
ag1
(g1281
g1155
(dp1356
g62
g102
sg63
g110
sg64
g101
sg65
g105
sg66
g109
stRp1357
ag1
(g1281
g1155
(dp1358
g62
g74
sg63
g1008
sg64
g73
sg65
g1003
sg66
g1007
stRp1359
ag1
(g1281
g1155
(dp1360
g62
g74
sg63
g121
sg64
g89
sg65
g116
sg66
g120
stRp1361
ag1
(g1281
g1155
(dp1362
g62
g74
sg63
g821
sg64
g89
sg65
g816
sg66
g820
stRp1363
ag1
(g1281
g1155
(dp1364
g62
g102
sg63
g645
sg64
g549
sg65
g640
sg66
g644
stRp1365
ag1
(g1281
g1155
(dp1366
g62
g74
sg63
g236
sg64
g73
sg65
g231
sg66
g235
stRp1367
ag1
(g1281
g1155
(dp1368
g62
g74
sg63
g280
sg64
g160
sg65
g275
sg66
g279
stRp1369
ag1
(g1281
g1155
(dp1370
g62
g74
sg63
g501
sg64
g73
sg65
g496
sg66
g500
stRp1371
ag1
(g1281
g1155
(dp1372
g62
g74
sg63
g202
sg64
g125
sg65
g197
sg66
g201
stRp1373
ag1
(g1281
g1155
(dp1374
g62
g102
sg63
g347
sg64
g137
sg65
g342
sg66
g346
stRp1375
ag1
(g1281
g1155
(dp1376
g62
g102
sg63
g413
sg64
g137
sg65
g408
sg66
g412
stRp1377
ag1
(g1281
g1155
(dp1378
g62
g74
sg63
g97
sg64
g89
sg65
g92
sg66
g96
stRp1379
ag1
(g1281
g1155
(dp1380
g62
g74
sg63
g909
sg64
g160
sg65
g904
sg66
g908
stRp1381
ag1
(g1281
g1155
(dp1382
g62
g74
sg63
g590
sg64
g89
sg65
g585
sg66
g589
stRp1383
ag1
(g1281
g1155
(dp1384
g62
g74
sg63
g402
sg64
g73
sg65
g397
sg66
g401
stRp1385
ag1
(g1281
g1155
(dp1386
g62
g74
sg63
g722
sg64
g160
sg65
g717
sg66
g721
stRp1387
ag1
(g1281
g1155
(dp1388
g62
g102
sg63
g634
sg64
g549
sg65
g629
sg66
g633
stRp1389
ag1
(g1281
g1155
(dp1390
g62
g102
sg63
g689
sg64
g206
sg65
g684
sg66
g688
stRp1391
ag1
(g1281
g1155
(dp1392
g62
g74
sg63
g953
sg64
g160
sg65
g948
sg66
g952
stRp1393
ag1
(g1281
g1155
(dp1394
g62
g74
sg63
g269
sg64
g73
sg65
g264
sg66
g268
stRp1395
ag1
(g1281
g1155
(dp1396
g62
g74
sg63
g832
sg64
g73
sg65
g827
sg66
g831
stRp1397
ag1
(g1281
g1155
(dp1398
g62
g102
sg63
g777
sg64
g549
sg65
g772
sg66
g776
stRp1399
ag1
(g1281
g1155
(dp1400
g62
g74
sg63
g435
sg64
g73
sg65
g430
sg66
g434
stRp1401
ag1
(g1281
g1155
(dp1402
g62
g74
sg63
g700
sg64
g73
sg65
g695
sg66
g699
stRp1403
ag1
(g1281
g1155
(dp1404
g62
g74
sg63
g623
sg64
g73
sg65
g618
sg66
g622
stRp1405
ag1
(g1281
g1155
(dp1406
g62
g102
sg63
g788
sg64
g284
sg65
g783
sg66
g787
stRp1407
ag1
(g1281
g1155
(dp1408
g62
g74
sg63
g424
sg64
g73
sg65
g419
sg66
g423
stRp1409
ag1
(g1281
g1155
(dp1410
g62
g102
sg63
g214
sg64
g206
sg65
g209
sg66
g213
stRp1411
ag1
(g1281
g1155
(dp1412
g62
g74
sg63
g168
sg64
g160
sg65
g163
sg66
g167
stRp1413
ag1
(g1281
g1155
(dp1414
g62
g102
sg63
g180
sg64
g172
sg65
g175
sg66
g179
stRp1415
ag1
(g1281
g1155
(dp1416
g62
g74
sg63
g191
sg64
g73
sg65
g186
sg66
g190
stRp1417
ag1
(g1281
g1155
(dp1418
g62
g74
sg63
g1140
sg64
g89
sg65
g1135
sg66
g1139
stRp1419
ag1
(g1281
g1155
(dp1420
g62
g102
sg63
g534
sg64
g137
sg65
g529
sg66
g533
stRp1421
ag1
(g1281
g1155
(dp1422
g62
g74
sg63
g931
sg64
g73
sg65
g926
sg66
g930
stRp1423
ag1
(g1281
g1155
(dp1424
g62
g102
sg63
g997
sg64
g172
sg65
g992
sg66
g996
stRp1425
ag1
(g1281
g1155
(dp1426
g62
g102
sg63
g391
sg64
g284
sg65
g386
sg66
g390
stRp1427
ag1
(g1281
g1155
(dp1428
g62
g74
sg63
g133
sg64
g125
sg65
g128
sg66
g132
stRp1429
ag1
(g1281
g1155
(dp1430
g62
g74
sg63
g843
sg64
g73
sg65
g838
sg66
g842
stRp1431
ag1
(g1281
g1155
(dp1432
g62
g74
sg63
g314
sg64
g160
sg65
g309
sg66
g313
stRp1433
ag1
(g1281
g1155
(dp1434
g62
g102
sg63
g545
sg64
g206
sg65
g540
sg66
g544
stRp1435
ag1
(g1281
g1155
(dp1436
g62
g102
sg63
g457
sg64
g172
sg65
g452
sg66
g456
stRp1437
ag1
(g1281
g1155
(dp1438
g62
g102
sg63
g490
sg64
g137
sg65
g485
sg66
g489
stRp1439
ag1
(g1281
g1155
(dp1440
g62
g74
sg63
g568
sg64
g73
sg65
g563
sg66
g567
stRp1441
ag1
(g1281
g1155
(dp1442
g62
g74
sg63
g1019
sg64
g160
sg65
g1014
sg66
g1018
stRp1443
ag1
(g1281
g1155
(dp1444
g62
g102
sg63
g1063
sg64
g137
sg65
g1058
sg66
g1062
stRp1445
ag1
(g1281
g1155
(dp1446
g62
g74
sg63
g986
sg64
g89
sg65
g981
sg66
g985
stRp1447
ag1
(g1281
g1155
(dp1448
g62
g102
sg63
g523
sg64
g172
sg65
g518
sg66
g522
stRp1449
ag1
(g1281
g1155
(dp1450
g62
g74
sg63
g1107
sg64
g89
sg65
g1102
sg66
g1106
stRp1451
ag1
(g1281
g1155
(dp1452
g62
g74
sg63
g156
sg64
g73
sg65
g151
sg66
g155
stRp1453
ag1
(g1281
g1155
(dp1454
g62
g102
sg63
g898
sg64
g206
sg65
g893
sg66
g897
stRp1455
ag1
(g1281
g1155
(dp1456
g62
g102
sg63
g336
sg64
g206
sg65
g331
sg66
g335
stRp1457
ag1
(g1281
g1155
(dp1458
g62
g102
sg63
g1030
sg64
g284
sg65
g1025
sg66
g1029
stRp1459
ag1
(g1281
g1155
(dp1460
g62
g102
sg63
g744
sg64
g284
sg65
g739
sg66
g743
stRp1461
ag1
(g1281
g1155
(dp1462
g62
g74
sg63
g799
sg64
g89
sg65
g794
sg66
g798
stRp1463
ag1
(g1281
g1155
(dp1464
g62
g102
sg63
g325
sg64
g206
sg65
g320
sg66
g324
stRp1465
ag1
(g1281
g1155
(dp1466
g62
g102
sg63
g292
sg64
g284
sg65
g287
sg66
g291
stRp1467
ag1
(g1281
g1155
(dp1468
g62
g102
sg63
g358
sg64
g137
sg65
g353
sg66
g357
stRp1469
ag1
(g1281
g1155
(dp1470
g62
g74
sg63
g667
sg64
g160
sg65
g662
sg66
g666
stRp1471
ag1
(g1281
g1155
(dp1472
g62
g74
sg63
g1041
sg64
g89
sg65
g1036
sg66
g1040
stRp1473
asS'seed'
p1474
NsS'thisIndex'
p1475
g1137
sS'thisN'
p1476
I96
sS'thisTrialN'
p1477
I0
sS'nTotal'
p1478
I96
sS'_warnUseOfNext'
p1479
I01
sbasS'savePickle'
p1480
I00
sb.