ccopy_reg
_reconstructor
p1
(cpsychopy.data
ExperimentHandler
p2
c__builtin__
object
p3
NtRp4
(dp5
S'originPath'
p6
NsS'dataFileName'
p7
VC:\u005cDocuments and Settings\u005cExperimental user\u005cMy Documents\u005cconsciousness\u005cuncon_feat\u005cexperiment_scripts\u005cdata/leyre_Experiment_EEG_version_2019_may_28_1038
p8
sS'runtimeInfo'
p9
NsS'name'
p10
VExperiment_EEG_version
p11
sS'dataNames'
p12
(lp13
S'image_onset_time'
p14
aS'response_window'
p15
aS'correctAns'
p16
aS'probe_onset'
p17
aS'discrim_resptime'
p18
aS'response.corr'
p19
aS'response.keys'
p20
aS'response.rt'
p21
aS'visible_resptime'
p22
aS'visible.keys'
p23
aS'visible.corr'
p24
aS'visible.rt'
p25
aS'probeFrames'
p26
aS'jitter2'
p27
asS'autoLog'
p28
I01
sS'extraInfo'
p29
(dp30
Vn_square
p31
V32
p32
sVexperiment_color
p33
Vbw
p34
sS'frameRate'
p35
cnumpy.core.multiarray
scalar
p36
(cnumpy
dtype
p37
(S'f8'
I0
I1
tRp38
(I3
S'<'
NNNI-1
I-1
I0
tbS'\x8f\x10D\x826\xf2X@'
tRp39
sS'date'
p40
V2019_may_28_1038
p41
sVsession
p42
V018
p43
sVimage_size
p44
V256
p45
sVpremask_dur
p46
V20
p47
sVprobeFrames
p48
V5
sVparticipant
p49
Vleyre
p50
sS'expName'
p51
g11
sVpostmask_dur
p52
V20
p53
ssS'loopsUnfinished'
p54
(lp55
sS'saveWideText'
p56
I00
sS'thisEntry'
p57
(dp58
sS'version'
p59
S''
sS'_paramNamesSoFar'
p60
(lp61
S'category'
p62
aS'probe_path'
p63
aS'subcategory'
p64
aS'fixation_duration'
p65
aS'label'
p66
asS'entries'
p67
(lp68
(dp69
g31
g32
sg17
F3.7376295241992921
sg24
I0
sg35
g39
sg14
F3.7158527872525156
sg16
g36
(g37
(S'i4'
I0
I1
tRp70
(I3
S'<'
NNNI-1
I-1
I0
tbS'\x01\x00\x00\x00'
tRp71
sg42
g43
sg46
g47
sg15
S'V_nV'
p72
sg22
F5.7010694346390665
sg64
VBirds
p73
sg62
VLiving_Things
p74
sg49
g50
sS'trials.thisN'
p75
I0
sg19
I1
sg27
g36
(g38
S'\x00\x00\x00\x00\x00\x00\x18@'
tRp76
sg52
g53
sg23
S'2'
sg18
F4.9985429134685546
sg33
g34
sg51
g11
sg20
S'1'
sg65
g36
(g37
(S'i8'
I0
I1
tRp77
(I3
S'<'
NNNI-1
I-1
I0
tbS'\x00\x00\x00\x00\x00\x00\x00\x00'
tRp78
sg44
g45
sg40
g41
sg25
F0.12047824822366238
sS'trials.thisIndex'
p79
g36
(g37
(S'i4'
I0
I1
tRp80
(I3
S'<'
NNNI-1
I-1
I0
tbS',\x00\x00\x00'
tRp81
sg26
V5
sS'trials.thisRepN'
p82
I0
sg66
Vkiwi
p83
sg63
V../experiment_stimuli/bw_bc_bl/Living_Things/Birds/kiwi_6.jpg
p84
sg21
F0.67168765864335001
sS'trials.thisTrialN'
p85
I0
sa(dp86
g31
g32
sg17
F7.558979969471693
sg24
I0
sg35
g39
sg14
F7.5541927749291062
sg16
g36
(g70
S'\x02\x00\x00\x00'
tRp87
sg42
g43
sg46
g47
sg15
g72
sg22
F8.9980512207839638
sg64
VTools
p88
sg62
VNonliving_Things
p89
sg49
g50
sS'trials.thisN'
p90
I1
sg19
I0
sg27
g36
(g38
S'\x00\x00\x00\x00\x00\x00\x18@'
tRp91
sg52
g53
sg23
S'2'
sg18
F8.8168422256130725
sg33
g34
sg51
g11
sg20
S'1'
sg65
g36
(g77
S'\x00\x00\x00\x00\x00\x00\x00\x00'
tRp92
sg44
g45
sg40
g41
sg25
F0.090436599450185895
sS'trials.thisIndex'
p93
g36
(g80
S'\x03\x00\x00\x00'
tRp94
sg26
V5
sS'trials.thisRepN'
p95
I0
sg66
Vaxe
p96
sg63
V../experiment_stimuli/bw_bc_bl/Nonliving_Things/Tools/axe_6.jpg
p97
sg21
F0.16063238005153835
sS'trials.thisTrialN'
p98
I1
sa(dp99
g31
g32
sg17
F10.826176280155778
sg24
I0
sg35
g39
sg14
F10.821297391084954
sg16
g36
(g70
S'\x01\x00\x00\x00'
tRp100
sg42
g43
sg46
g47
sg15
S'nV_V'
p101
sg22
F12.70605639833957
sg64
VMusical_Inst
p102
sg62
g89
sg49
g50
sS'trials.thisN'
p103
I2
sg19
I1
sg27
g36
(g38
S'\x00\x00\x00\x00\x00\x00\x1c@'
tRp104
sg52
g53
sg23
S'2'
sg18
F12.073920331196859
sg33
g34
sg51
g11
sg20
S'1'
sg65
g36
(g77
S'\x00\x00\x00\x00\x00\x00\x00\x00'
tRp105
sg44
g45
sg40
g41
sg25
F0.12048345850780606
sS'trials.thisIndex'
p106
g36
(g80
S'>\x00\x00\x00'
tRp107
sg26
V5
sS'trials.thisRepN'
p108
I0
sg66
Vpiano
p109
sg63
V../experiment_stimuli/bw_bc_bl/Nonliving_Things/Musical_Inst/piano__21.jpg
p110
sg21
F0.61156360618770123
sS'trials.thisTrialN'
p111
I2
sa(dp112
g31
g32
sg17
F14.564490057528019
sg24
I1
sg35
g39
sg14
F14.559426186140627
sg16
g36
(g70
S'\x01\x00\x00\x00'
tRp113
sg42
g43
sg46
g47
sg15
g72
sg22
F15.862886470044032
sg64
VInsects
p114
sg62
g74
sg49
g50
sS'trials.thisN'
p115
I3
sg19
I0
sg27
g36
(g38
S'\x00\x00\x00\x00\x00\x00\x18@'
tRp116
sg52
g53
sg23
S'1'
sg18
F15.802024875301868
sg33
g34
sg51
g11
sg20
S'2'
sg65
g36
(g77
S'\x00\x00\x00\x00\x00\x00\x00\x00'
tRp117
sg44
g45
sg40
g41
sg25
F0.13050910481251776
sS'trials.thisIndex'
p118
g36
(g80
S'I\x00\x00\x00'
tRp119
sg26
V5
sS'trials.thisRepN'
p120
I0
sg66
Vscorpion
p121
sg63
V../experiment_stimuli/bw_bc_bl/Living_Things/Insects/scorpion_17.jpg
p122
sg21
F0.040327783208340406
sS'trials.thisTrialN'
p123
I3
sa(dp124
g31
g32
sg17
F17.731274700490758
sg24
I0
sg35
g39
sg14
F17.726359067950398
sg16
g36
(g70
S'\x02\x00\x00\x00'
tRp125
sg42
g43
sg46
g47
sg15
g72
sg22
F19.500825026771054
sg64
VVehicles
p126
sg62
g89
sg49
g50
sS'trials.thisN'
p127
I4
sg19
I1
sg27
g36
(g38
S'\x00\x00\x00\x00\x00\x00\x1a@'
tRp128
sg52
g53
sg23
S'3'
sg18
F18.988978861132637
sg33
g34
sg51
g11
sg20
S'2'
sg65
g36
(g77
S'\x00\x00\x00\x00\x00\x00\x00\x00'
tRp129
sg44
g45
sg40
g41
sg25
F0.18062380026094615
sS'trials.thisIndex'
p130
g36
(g80
S'\t\x00\x00\x00'
tRp131
sg26
V5
sS'trials.thisRepN'
p132
I0
sg66
Vbus
p133
sg63
V../experiment_stimuli/bw_bc_bl/Nonliving_Things/Vehicles/bus_4.jpg
p134
sg21
F0.49131150520406663
sS'trials.thisTrialN'
p135
I4
sa(dp136
g31
g32
sg17
F21.419134226860479
sg24
I0
sg35
g39
sg14
F21.414336374262348
sg16
g36
(g70
S'\x01\x00\x00\x00'
tRp137
sg42
g43
sg46
g47
sg15
g72
sg22
F23.198836592026055
sg64
VAnimals
p138
sg62
g74
sg49
g50
sS'trials.thisN'
p139
I5
sg19
I0
sg27
g36
(g38
S'\x00\x00\x00\x00\x00\x00\x1a@'
tRp140
sg52
g53
sg23
S'2'
sg18
F22.656934792874381
sg33
g34
sg51
g11
sg20
S'2'
sg65
g36
(g77
S'\x00\x00\x00\x00\x00\x00\x00\x00'
tRp141
sg44
g45
sg40
g41
sg25
F0.23071399657055736
sS'trials.thisIndex'
p142
g36
(g80
S'R\x00\x00\x00'
tRp143
sg26
V5
sS'trials.thisRepN'
p144
I0
sg66
Vtapir
p145
sg63
V../experiment_stimuli/bw_bc_bl/Living_Things/Animals/tapir_2.jpg
p146
sg21
F0.5213624129537493
sS'trials.thisTrialN'
p147
I5
sa(dp148
g31
g32
sg17
F25.167826863238588
sg24
I1
sg35
g39
sg14
F25.16247126320377
sg16
g36
(g70
S'\x02\x00\x00\x00'
tRp149
sg42
g43
sg46
g47
sg15
g72
sg22
F26.636295155854896
sg64
VKitchen_Uten
p150
sg62
g89
sg49
g50
sS'trials.thisN'
p151
I6
sg19
I1
sg27
g36
(g38
S'\x00\x00\x00\x00\x00\x00\x18@'
tRp152
sg52
g53
sg23
S'1'
sg18
F26.395048686070368
sg33
g34
sg51
g11
sg20
S'2'
sg65
g36
(g77
S'\x00\x00\x00\x00\x00\x00\x00\x00'
tRp153
sg44
g45
sg40
g41
sg25
F0.060364296892657876
sS'trials.thisIndex'
p154
g36
(g80
S'\x12\x00\x00\x00'
tRp155
sg26
V5
sS'trials.thisRepN'
p156
I0
sg66
Vcoking-pot
p157
sg63
V../experiment_stimuli/bw_bc_bl/Nonliving_Things/Kitchen_Uten/coking-pot_22.jpg
p158
sg21
F0.22071007592603564
sS'trials.thisTrialN'
p159
I6
sa(dp160
g31
g32
sg17
F28.434477557195351
sg24
I1
sg35
g39
sg14
F28.429574649780989
sg16
g36
(g70
S'\x02\x00\x00\x00'
tRp161
sg42
g43
sg46
g47
sg15
g72
sg22
F29.863166423281655
sg64
g126
sg62
g89
sg49
g50
sS'trials.thisN'
p162
I7
sg19
I1
sg27
g36
(g38
S'\x00\x00\x00\x00\x00\x00\x18@'
tRp163
sg52
g53
sg23
S'1'
sg18
F29.672177504515275
sg33
g34
sg51
g11
sg20
S'2'
sg65
g36
(g77
S'\x00\x00\x00\x00\x00\x00\x00\x00'
tRp164
sg44
g45
sg40
g41
sg25
F0.070392995607107878
sS'trials.thisIndex'
p165
g36
(g80
S'W\x00\x00\x00'
tRp166
sg26
V5
sS'trials.thisRepN'
p167
I0
sg66
Vtrain
p168
sg63
V../experiment_stimuli/bw_bc_bl/Nonliving_Things/Vehicles/train_25.jpg
p169
sg21
F0.17043947987258434
sS'trials.thisTrialN'
p170
I7
sa(dp171
g31
g32
sg17
F31.671537430724129
sg24
I0
sg35
g39
sg14
F31.666604317259043
sg16
g36
(g70
S'\x02\x00\x00\x00'
tRp172
sg42
g43
sg46
g47
sg15
g72
sg22
F33.401025515282527
sg64
g126
sg62
g89
sg49
g50
sS'trials.thisN'
p173
I8
sg19
I1
sg27
g36
(g38
S'\x00\x00\x00\x00\x00\x00\x1a@'
tRp174
sg52
g53
sg23
S'3'
sg18
F32.93928525201045
sg33
g34
sg51
g11
sg20
S'2'
sg65
g36
(g77
S'\x00\x00\x00\x00\x00\x00\x00\x00'
tRp175
sg44
g45
sg40
g41
sg25
F0.20065913372673094
sS'trials.thisIndex'
p176
g36
(g80
S'6\x00\x00\x00'
tRp177
sg26
V5
sS'trials.thisRepN'
p178
I0
sg66
Vmotorbike
p179
sg63
V../experiment_stimuli/bw_bc_bl/Nonliving_Things/Vehicles/motorbike_25.jpg
p180
sg21
F0.44120599352754653
sS'trials.thisTrialN'
p181
I8
sa(dp182
g31
g32
sg17
F35.339393687201664
sg24
I0
sg35
g39
sg14
F35.334582477807999
sg16
g36
(g70
S'\x02\x00\x00\x00'
tRp183
sg42
g43
sg46
g47
sg15
g101
sg22
F37.189241130370647
sg64
g73
sg62
g74
sg49
g50
sS'trials.thisN'
p184
I9
sg19
I1
sg27
g36
(g38
S'\x00\x00\x00\x00\x00\x00\x18@'
tRp185
sg52
g53
sg23
S'2'
sg18
F36.587204970652238
sg33
g34
sg51
g11
sg20
S'2'
sg65
g36
(g77
S'\x00\x00\x00\x00\x00\x00\x00\x00'
tRp186
sg44
g45
sg40
g41
sg25
F0.20065444218926132
sS'trials.thisIndex'
p187
g36
(g80
S'8\x00\x00\x00'
tRp188
sg26
V5
sS'trials.thisRepN'
p189
I0
sg66
Vostrich
p190
sg63
V../experiment_stimuli/bw_bc_bl/Living_Things/Birds/ostrich_4.jpg
p191
sg21
F0.58148674387484789
sS'trials.thisTrialN'
p192
I9
sa(dp193
g31
g32
sg17
F39.128292022040114
sg24
I1
sg35
g39
sg14
F39.122817258350551
sg16
g36
(g70
S'\x02\x00\x00\x00'
tRp194
sg42
g43
sg46
g47
sg15
g101
sg22
F40.60670263832435
sg64
VMarine_creatures
p195
sg62
g74
sg49
g50
sS'trials.thisN'
p196
I10
sg19
I1
sg27
g36
(g38
S'\x00\x00\x00\x00\x00\x00\x18@'
tRp197
sg52
g53
sg23
S'1'
sg18
F40.365414530038834
sg33
g34
sg51
g11
sg20
S'2'
sg65
g36
(g77
S'\x00\x00\x00\x00\x00\x00\x00\x00'
tRp198
sg44
g45
sg40
g41
sg25
F0.090439279796555638
sS'trials.thisIndex'
p199
g36
(g80
S'\x17\x00\x00\x00'
tRp200
sg26
V5
sS'trials.thisRepN'
p201
I0
sg66
Vdolphin
p202
sg63
V../experiment_stimuli/bw_bc_bl/Living_Things/Marine_creatures/dolphin_9.jpg
p203
sg21
F0.22072326764464378
sS'trials.thisTrialN'
p204
I10
sa(dp205
g31
g32
sg17
F42.434896700549871
sg24
I0
sg35
g39
sg14
F42.430005773901939
sg16
g36
(g70
S'\x02\x00\x00\x00'
tRp206
sg42
g43
sg46
g47
sg15
g101
sg22
F44.07419445971027
sg64
g138
sg62
g74
sg49
g50
sS'trials.thisN'
p207
I11
sg19
I1
sg27
g36
(g38
S'\x00\x00\x00\x00\x00\x00\x18@'
tRp208
sg52
g53
sg23
S'2'
sg18
F43.702673701802269
sg33
g34
sg51
g11
sg20
S'2'
sg65
g36
(g77
S'\x00\x00\x00\x00\x00\x00\x00\x00'
tRp209
sg44
g45
sg40
g41
sg25
F0.29086906393058598
sS'trials.thisIndex'
p210
g36
(g80
S'D\x00\x00\x00'
tRp211
sg26
V5
sS'trials.thisRepN'
p212
I0
sg66
Vrhino
p213
sg63
V../experiment_stimuli/bw_bc_bl/Living_Things/Animals/rhino_19.jpg
p214
sg21
F0.35099117993377149
sS'trials.thisTrialN'
p215
I11
sa(dp216
g31
g32
sg17
F46.102864252403378
sg24
I1
sg35
g39
sg14
F46.097976934863254
sg16
g36
(g70
S'\x02\x00\x00\x00'
tRp217
sg42
g43
sg46
g47
sg15
g72
sg22
F48.123014121083543
sg64
g150
sg62
g89
sg49
g50
sS'trials.thisN'
p218
I12
sg19
I1
sg27
g36
(g38
S'\x00\x00\x00\x00\x00\x00\x1a@'
tRp219
sg52
g53
sg23
S'1'
sg18
F47.360618795733899
sg33
g34
sg51
g11
sg20
S'2'
sg65
g36
(g77
S'\x00\x00\x00\x00\x00\x00\x00\x00'
tRp220
sg44
g45
sg40
g41
sg25
F0.18062572902999818
sS'trials.thisIndex'
p221
g36
(g80
S'S\x00\x00\x00'
tRp222
sg26
V5
sS'trials.thisRepN'
p223
I0
sg66
Vteapot
p224
sg63
V../experiment_stimuli/bw_bc_bl/Nonliving_Things/Kitchen_Uten/teapot_23.jpg
p225
sg21
F0.74184295465238392
sS'trials.thisTrialN'
p226
I12
sa(dp227
g31
g32
sg17
F50.041389245074242
sg24
I1
sg35
g39
sg14
F50.036538412328809
sg16
g36
(g70
S'\x02\x00\x00\x00'
tRp228
sg42
g43
sg46
g47
sg15
g72
sg22
F51.440239782910794
sg64
g126
sg62
g89
sg49
g50
sS'trials.thisN'
p229
I13
sg19
I1
sg27
g36
(g38
S'\x00\x00\x00\x00\x00\x00\x18@'
tRp230
sg52
g53
sg23
S'1'
sg18
F51.3192373579368
sg33
g34
sg51
g11
sg20
S'2'
sg65
g36
(g77
S'\x00\x00\x00\x00\x00\x00\x00\x00'
tRp231
sg44
g45
sg40
g41
sg25
F0.18061543582007289
sS'trials.thisIndex'
p232
g36
(g80
S'@\x00\x00\x00'
tRp233
sg26
V5
sS'trials.thisRepN'
p234
I0
sg66
Vplane
p235
sg63
V../experiment_stimuli/bw_bc_bl/Nonliving_Things/Vehicles/plane_1.jpg
p236
sg21
F0.10045190365053713
sS'trials.thisTrialN'
p237
I13
sa(dp238
g31
g32
sg17
F53.358659229008481
sg24
I1
sg35
g39
sg14
F53.353748449822888
sg16
g36
(g70
S'\x01\x00\x00\x00'
tRp239
sg42
g43
sg46
g47
sg15
g101
sg22
F54.747405731119215
sg64
VFurniture
p240
sg62
g89
sg49
g50
sS'trials.thisN'
p241
I14
sg19
I0
sg27
g36
(g38
S'\x00\x00\x00\x00\x00\x00\x18@'
tRp242
sg52
g53
sg23
S'1'
sg18
F54.656488942913711
sg33
g34
sg51
g11
sg20
S'2'
sg65
g36
(g77
S'\x00\x00\x00\x00\x00\x00\x00\x00'
tRp243
sg44
g45
sg40
g41
sg25
F0.15054472023621202
sS'trials.thisIndex'
p244
g36
(g80
S'\x00\x00\x00\x00'
tRp245
sg26
V5
sS'trials.thisRepN'
p246
I0
sg66
VChest-of-drawers
p247
sg63
V../experiment_stimuli/bw_bc_bl/Nonliving_Things/Furniture/Chest-of-drawers_7.jpg
p248
sg21
F0.070377612486481667
sS'trials.thisTrialN'
p249
I14
sa(dp250
g31
g32
sg17
F56.635779551463202
sg24
I1
sg35
g39
sg14
F56.630894850706682
sg16
g36
(g70
S'\x01\x00\x00\x00'
tRp251
sg42
g43
sg46
g47
sg15
g101
sg22
F59.588005778612569
sg64
g126
sg62
g89
sg49
g50
sS'trials.thisN'
p252
I15
sg19
I0
sg27
g36
(g38
S'\x00\x00\x00\x00\x00\x00\x1e@'
tRp253
sg52
g53
sg23
S'1'
sg18
F57.943636429961771
sg33
g34
sg51
g11
sg20
S'2'
sg65
g36
(g77
S'\x00\x00\x00\x00\x00\x00\x00\x00'
tRp254
sg44
g45
sg40
g41
sg25
F0.12048189854249358
sS'trials.thisIndex'
p255
g36
(g80
S'\x0b\x00\x00\x00'
tRp256
sg26
V5
sS'trials.thisRepN'
p257
I0
sg66
Vcar
p258
sg63
V../experiment_stimuli/bw_bc_bl/Nonliving_Things/Vehicles/car_12.jpg
p259
sg21
F1.6237946811597794
sS'trials.thisTrialN'
p260
I15
sa(dp261
g31
g32
sg17
F61.446328465593979
sg24
I0
sg35
g39
sg14
F61.441348702181131
sg16
g36
(g70
S'\x02\x00\x00\x00'
tRp262
sg42
g43
sg46
g47
sg15
g72
sg22
F63.306192603660747
sg64
VBuildings
p263
sg62
g89
sg49
g50
sS'trials.thisN'
p264
I16
sg19
I1
sg27
g36
(g38
S'\x00\x00\x00\x00\x00\x00\x18@'
tRp265
sg52
g53
sg23
S'3'
sg18
F62.784156403504312
sg33
g34
sg51
g11
sg20
S'2'
sg65
g36
(g77
S'\x00\x00\x00\x00\x00\x00\x00\x00'
tRp266
sg44
g45
sg40
g41
sg25
F0.17059154924936593
sS'trials.thisIndex'
p267
g36
(g80
S'#\x00\x00\x00'
tRp268
sg26
V5
sS'trials.thisRepN'
p269
I0
sg66
Vgranary
p270
sg63
V../experiment_stimuli/bw_bc_bl/Nonliving_Things/Buildings/granary_16.jpg
p271
sg21
F0.50150285917334259
sS'trials.thisTrialN'
p272
I16
sa(dp273
g31
g32
sg17
F65.21427888981998
sg24
I1
sg35
g39
sg14
F65.209540480282158
sg16
g36
(g70
S'\x02\x00\x00\x00'
tRp274
sg42
g43
sg46
g47
sg15
g72
sg22
F67.24460927490145
sg64
g126
sg62
g89
sg49
g50
sS'trials.thisN'
p275
I17
sg19
I0
sg27
g36
(g38
S'\x00\x00\x00\x00\x00\x00\x18@'
tRp276
sg52
g53
sg23
S'1'
sg18
F66.522288765991107
sg33
g34
sg51
g11
sg20
S'1'
sg65
g36
(g77
S'\x00\x00\x00\x00\x00\x00\x00\x00'
tRp277
sg44
g45
sg40
g41
sg25
F0.22071841801516712
sS'trials.thisIndex'
p278
g36
(g80
S'\x07\x00\x00\x00'
tRp279
sg26
V5
sS'trials.thisRepN'
p280
I0
sg66
Vboat
p281
sg63
V../experiment_stimuli/bw_bc_bl/Nonliving_Things/Vehicles/boat_23.jpg
p282
sg21
F0.70176532561890781
sS'trials.thisTrialN'
p283
I17
sa(dp284
g31
g32
sg17
F69.204478560015559
sg24
I0
sg35
g39
sg14
F69.198195740114897
sg16
g36
(g70
S'\x02\x00\x00\x00'
tRp285
sg42
g43
sg46
g47
sg15
g72
sg22
F70.952654947992414
sg64
g150
sg62
g89
sg49
g50
sS'trials.thisN'
p286
I18
sg19
I1
sg27
g36
(g38
S'\x00\x00\x00\x00\x00\x00\x1a@'
tRp287
sg52
g53
sg23
S'3'
sg18
F70.530992314219475
sg33
g34
sg51
g11
sg20
S'2'
sg65
g36
(g77
S'\x00\x00\x00\x00\x00\x00\x00\x00'
tRp288
sg44
g45
sg40
g41
sg25
F0.20065832906402647
sS'trials.thisIndex'
p289
g36
(g80
S'\x16\x00\x00\x00'
tRp290
sg26
V5
sS'trials.thisRepN'
p291
I0
sg66
Vcup
p292
sg63
V../experiment_stimuli/bw_bc_bl/Nonliving_Things/Kitchen_Uten/cup_20.jpg
p293
sg21
F0.40110796969383955
sS'trials.thisTrialN'
p294
I18
sa(dp295
g31
g32
sg17
F72.891014259541407
sg24
I0
sg35
g39
sg14
F72.886209467193112
sg16
g36
(g70
S'\x02\x00\x00\x00'
tRp296
sg42
g43
sg46
g47
sg15
g72
sg22
F74.610610252246261
sg64
g102
sg62
g89
sg49
g50
sS'trials.thisN'
p297
I19
sg19
I1
sg27
g36
(g38
S'\x00\x00\x00\x00\x00\x00\x18@'
tRp298
sg52
g53
sg23
S'3'
sg18
F74.19896023790352
sg33
g34
sg51
g11
sg20
S'2'
sg65
g36
(g77
S'\x00\x00\x00\x00\x00\x00\x00\x00'
tRp299
sg44
g45
sg40
g41
sg25
F0.09043187415227294
sS'trials.thisIndex'
p300
g36
(g80
S'\x19\x00\x00\x00'
tRp301
sg26
V5
sS'trials.thisRepN'
p302
I0
sg66
Vdrum
p303
sg63
V../experiment_stimuli/bw_bc_bl/Nonliving_Things/Musical_Inst/drum_16.jpg
p304
sg21
F0.38106363289989531
sS'trials.thisTrialN'
p305
I19
sa(dp306
g31
g32
sg17
F76.439578547375277
sg24
I1
sg35
g39
sg14
F76.433923677541316
sg16
g36
(g70
S'\x02\x00\x00\x00'
tRp307
sg42
g43
sg46
g47
sg15
g101
sg22
F78.1082310709171
sg64
g138
sg62
g74
sg49
g50
sS'trials.thisN'
p308
I20
sg19
I0
sg27
g36
(g38
S'\x00\x00\x00\x00\x00\x00\x18@'
tRp309
sg52
g53
sg23
S'1'
sg18
F77.726633866783231
sg33
g34
sg51
g11
sg20
S'1'
sg65
g36
(g77
S'\x00\x00\x00\x00\x00\x00\x00\x00'
tRp310
sg44
g45
sg40
g41
sg25
F0.29085374833084643
sS'trials.thisIndex'
p311
g36
(g80
S'0\x00\x00\x00'
tRp312
sg26
V5
sS'trials.thisRepN'
p313
I0
sg66
Vlioness
p314
sg63
V../experiment_stimuli/bw_bc_bl/Living_Things/Animals/lioness_19.jpg
p315
sg21
F0.36100898776203394
sS'trials.thisTrialN'
p316
I20
sa(dp317
g31
g32
sg17
F80.137499117990956
sg24
I1
sg35
g39
sg14
F80.131967392517254
sg16
g36
(g70
S'\x01\x00\x00\x00'
tRp318
sg42
g43
sg46
g47
sg15
g72
sg22
F81.525632481789216
sg64
g73
sg62
g74
sg49
g50
sS'trials.thisN'
p319
I21
sg19
I0
sg27
g36
(g38
S'\x00\x00\x00\x00\x00\x00\x18@'
tRp320
sg52
g53
sg23
S'1'
sg18
F81.434692611219361
sg33
g34
sg51
g11
sg20
S'2'
sg65
g36
(g77
S'\x00\x00\x00\x00\x00\x00\x00\x00'
tRp321
sg44
g45
sg40
g41
sg25
F0.11046462855301797
sS'trials.thisIndex'
p322
g36
(g80
S'&\x00\x00\x00'
tRp323
sg26
V5
sS'trials.thisRepN'
p324
I0
sg66
Vhen
p325
sg63
V../experiment_stimuli/bw_bc_bl/Living_Things/Birds/hen_9.jpg
p326
sg21
F0.070392179768532515
sS'trials.thisTrialN'
p327
I21
sa(dp328
g31
g32
sg17
F83.374871125910431
sg24
I0
sg35
g39
sg14
F83.36899939016439
sg16
g36
(g70
S'\x01\x00\x00\x00'
tRp329
sg42
g43
sg46
g47
sg15
g72
sg22
F85.283655206440017
sg64
g114
sg62
g74
sg49
g50
sS'trials.thisN'
p330
I22
sg19
I1
sg27
g36
(g38
S'\x00\x00\x00\x00\x00\x00\x1a@'
tRp331
sg52
g53
sg23
S'3'
sg18
F84.691772273276001
sg33
g34
sg51
g11
sg20
S'1'
sg65
g36
(g77
S'\x00\x00\x00\x00\x00\x00\x00\x00'
tRp332
sg44
g45
sg40
g41
sg25
F0.12033011484891176
sS'trials.thisIndex'
p333
g36
(g80
S'\x18\x00\x00\x00'
tRp334
sg26
V5
sS'trials.thisRepN'
p335
I0
sg66
Vdragonfly
p336
sg63
V../experiment_stimuli/bw_bc_bl/Living_Things/Insects/dragonfly_0.jpg
p337
sg21
F0.57130525819957256
sS'trials.thisTrialN'
p338
I22
sa(dp339
g31
g32
sg17
F87.142367688240483
sg24
I0
sg35
g39
sg14
F87.137188258580863
sg16
g36
(g70
S'\x02\x00\x00\x00'
tRp340
sg42
g43
sg46
g47
sg15
g72
sg22
F88.821500369813293
sg64
g102
sg62
g89
sg49
g50
sS'trials.thisN'
p341
I23
sg19
I1
sg27
g36
(g38
S'\x00\x00\x00\x00\x00\x00 @'
tRp342
sg52
g53
sg23
S'3'
sg18
F88.429900102317333
sg33
g34
sg51
g11
sg20
S'2'
sg65
g36
(g77
S'\x00\x00\x00\x00\x00\x00\x00\x00'
tRp343
sg44
g45
sg40
g41
sg25
F0.14054314908571541
sS'trials.thisIndex'
p344
g36
(g80
S'X\x00\x00\x00'
tRp345
sg26
V5
sS'trials.thisRepN'
p346
I0
sg66
Vtrumpet
p347
sg63
V../experiment_stimuli/bw_bc_bl/Nonliving_Things/Musical_Inst/trumpet_14.jpg
p348
sg21
F0.37103758496232331
sS'trials.thisTrialN'
p349
I23
sa(dp350
g31
g32
sg17
F90.699875442543998
sg24
I0
sg35
g39
sg14
F90.69493024260737
sg16
g36
(g70
S'\x01\x00\x00\x00'
tRp351
sg42
g43
sg46
g47
sg15
g72
sg22
F92.589699328411371
sg64
g195
sg62
g74
sg49
g50
sS'trials.thisN'
p352
I24
sg19
I1
sg27
g36
(g38
S'\x00\x00\x00\x00\x00\x00 @'
tRp353
sg52
g53
sg23
S'2'
sg18
F91.967602023622021
sg33
g34
sg51
g11
sg20
S'1'
sg65
g36
(g77
S'\x00\x00\x00\x00\x00\x00\x00\x00'
tRp354
sg44
g45
sg40
g41
sg25
F0.14054347993806005
sS'trials.thisIndex'
p355
g36
(g80
S'7\x00\x00\x00'
tRp356
sg26
V5
sS'trials.thisRepN'
p357
I0
sg66
Vnarwhal
p358
sg63
V../experiment_stimuli/bw_bc_bl/Living_Things/Marine_creatures/narwhal_13.jpg
p359
sg21
F0.60154208424501121
sS'trials.thisTrialN'
p360
I24
sa(dp361
g31
g32
sg17
F94.468911903910339
sg24
I0
sg35
g39
sg14
F94.463116923114285
sg16
g36
(g70
S'\x02\x00\x00\x00'
tRp362
sg42
g43
sg46
g47
sg15
g101
sg22
F96.277713916497305
sg64
g73
sg62
g74
sg49
g50
sS'trials.thisN'
p363
I25
sg19
I1
sg27
g36
(g38
S'\x00\x00\x00\x00\x00\x00\x1a@'
tRp364
sg52
g53
sg23
S'2'
sg18
F95.7257677949965
sg33
g34
sg51
g11
sg20
S'2'
sg65
g36
(g77
S'\x00\x00\x00\x00\x00\x00\x00\x00'
tRp365
sg44
g45
sg40
g41
sg25
F0.21078896266408265
sS'trials.thisIndex'
p366
g36
(g80
S'*\x00\x00\x00'
tRp367
sg26
V5
sS'trials.thisRepN'
p368
I0
sg66
Vhummingbird
p369
sg63
V../experiment_stimuli/bw_bc_bl/Living_Things/Birds/hummingbird_12.jpg
p370
sg21
F0.53139606234617531
sS'trials.thisTrialN'
p371
I25
sa(dp372
g31
g32
sg17
F98.226151700131595
sg24
I0
sg35
g39
sg14
F98.221293273381889
sg16
g36
(g70
S'\x01\x00\x00\x00'
tRp373
sg42
g43
sg46
g47
sg15
g72
sg22
F100.16615888965316
sg64
g114
sg62
g74
sg49
g50
sS'trials.thisN'
p374
I26
sg19
I1
sg27
g36
(g38
S'\x00\x00\x00\x00\x00\x00\x18@'
tRp375
sg52
g53
sg23
S'3'
sg18
F99.473919408861548
sg33
g34
sg51
g11
sg20
S'1'
sg65
g36
(g77
S'\x00\x00\x00\x00\x00\x00\x00\x00'
tRp376
sg44
g45
sg40
g41
sg25
F0.15055603161454201
sS'trials.thisIndex'
p377
g36
(g80
S'\n\x00\x00\x00'
tRp378
sg26
V5
sS'trials.thisRepN'
p379
I0
sg66
Vbutterfly
p380
sg63
V../experiment_stimuli/bw_bc_bl/Living_Things/Insects/butterfly_13.jpg
p381
sg21
F0.66167645249515772
sS'trials.thisTrialN'
p382
I26
sa(dp383
g31
g32
sg17
F102.05441079824232
sg24
I1
sg35
g39
sg14
F102.04960806621239
sg16
g36
(g70
S'\x02\x00\x00\x00'
tRp384
sg42
g43
sg46
g47
sg15
g101
sg22
F103.31297342386097
sg64
g138
sg62
g74
sg49
g50
sS'trials.thisN'
p385
I27
sg19
I1
sg27
g36
(g38
S'\x00\x00\x00\x00\x00\x00\x18@'
tRp386
sg52
g53
sg23
S'1'
sg18
F103.28218755288981
sg33
g34
sg51
g11
sg20
S'2'
sg65
g36
(g77
S'\x00\x00\x00\x00\x00\x00\x00\x00'
tRp387
sg44
g45
sg40
g41
sg25
F0.12050316901877522
sS'trials.thisIndex'
p388
g36
(g80
S'\x14\x00\x00\x00'
tRp389
sg26
V5
sS'trials.thisRepN'
p390
I0
sg66
Vcow
p391
sg63
V../experiment_stimuli/bw_bc_bl/Living_Things/Animals/cow_26.jpg
p392
sg21
F0.010251642670482397
sS'trials.thisTrialN'
p393
I27
sa(dp394
g31
g32
sg17
F105.1713480874896
sg24
I0
sg35
g39
sg14
F105.16638578637503
sg16
g36
(g70
S'\x01\x00\x00\x00'
tRp395
sg42
g43
sg46
g47
sg15
g72
sg22
F106.67039267136715
sg64
g73
sg62
g74
sg49
g50
sS'trials.thisN'
p396
I28
sg19
I0
sg27
g36
(g38
S'\x00\x00\x00\x00\x00\x00\x1a@'
tRp397
sg52
g53
sg23
S'2'
sg18
F106.41901277168654
sg33
g34
sg51
g11
sg20
S'2'
sg65
g36
(g77
S'\x00\x00\x00\x00\x00\x00\x00\x00'
tRp398
sg44
g45
sg40
g41
sg25
F0.15056315949186683
sS'trials.thisIndex'
p399
g36
(g80
S'\x1a\x00\x00\x00'
tRp400
sg26
V5
sS'trials.thisRepN'
p401
I0
sg66
Vduck
p402
sg63
V../experiment_stimuli/bw_bc_bl/Living_Things/Birds/duck_2.jpg
p403
sg21
F0.23083091573789716
sS'trials.thisTrialN'
p404
I28
sa(dp405
g31
g32
sg17
F108.55958411563188
sg24
I1
sg35
g39
sg14
F108.5537470637355
sg16
g36
(g70
S'\x02\x00\x00\x00'
tRp406
sg42
g43
sg46
g47
sg15
g72
sg22
F109.96746484725736
sg64
g88
sg62
g89
sg49
g50
sS'trials.thisN'
p407
I29
sg19
I1
sg27
g36
(g38
S'\x00\x00\x00\x00\x00\x00\x18@'
tRp408
sg52
g53
sg23
S'1'
sg18
F109.79634961718693
sg33
g34
sg51
g11
sg20
S'2'
sg65
g36
(g77
S'\x00\x00\x00\x00\x00\x00\x00\x00'
tRp409
sg44
g45
sg40
g41
sg25
F0.13052269467152655
sS'trials.thisIndex'
p410
g36
(g80
S'%\x00\x00\x00'
tRp411
sg26
V5
sS'trials.thisRepN'
p412
I0
sg66
Vhammer
p413
sg63
V../experiment_stimuli/bw_bc_bl/Nonliving_Things/Tools/hammer_1.jpg
p414
sg21
F0.15056028380058706
sS'trials.thisTrialN'
p415
I29
sa(dp416
g31
g32
sg17
F111.8357792517636
sg24
I0
sg35
g39
sg14
F111.83087592339143
sg16
g36
(g70
S'\x01\x00\x00\x00'
tRp417
sg42
g43
sg46
g47
sg15
g101
sg22
F113.27462998731062
sg64
g240
sg62
g89
sg49
g50
sS'trials.thisN'
p418
I30
sg19
I1
sg27
g36
(g38
S'\x00\x00\x00\x00\x00\x00\x18@'
tRp419
sg52
g53
sg23
S'2'
sg18
F113.09351809998043
sg33
g34
sg51
g11
sg20
S'1'
sg65
g36
(g77
S'\x00\x00\x00\x00\x00\x00\x00\x00'
tRp420
sg44
g45
sg40
g41
sg25
F0.56143427523784339
sS'trials.thisIndex'
p421
g36
(g80
S'\x06\x00\x00\x00'
tRp422
sg26
V5
sS'trials.thisRepN'
p423
I0
sg66
Vbedside-table
p424
sg63
V../experiment_stimuli/bw_bc_bl/Nonliving_Things/Furniture/bedside-table_21.jpg
p425
sg21
F0.16057354235090315
sS'trials.thisTrialN'
p426
I30
sa(dp427
g31
g32
sg17
F115.57395691471174
sg24
I0
sg35
g39
sg14
F115.56899599335156
sg16
g36
(g70
S'\x01\x00\x00\x00'
tRp428
sg42
g43
sg46
g47
sg15
g101
sg22
F117.3435036810115
sg64
g102
sg62
g89
sg49
g50
sS'trials.thisN'
p429
I31
sg19
I1
sg27
g36
(g38
S'\x00\x00\x00\x00\x00\x00\x18@'
tRp430
sg52
g53
sg23
S'3'
sg18
F116.82162175653502
sg33
g34
sg51
g11
sg20
S'1'
sg65
g36
(g77
S'\x00\x00\x00\x00\x00\x00\x00\x00'
tRp431
sg44
g45
sg40
g41
sg25
F0.10043942276388407
sS'trials.thisIndex'
p432
g36
(g80
S'Y\x00\x00\x00'
tRp433
sg26
V5
sS'trials.thisRepN'
p434
I0
sg66
Vtuba
p435
sg63
V../experiment_stimuli/bw_bc_bl/Nonliving_Things/Musical_Inst/tuba_21.jpg
p436
sg21
F0.501332898857072
sS'trials.thisTrialN'
p437
I31
sa(dp438
g31
g32
sg17
F119.18266363465227
sg24
I0
sg35
g39
sg14
F119.17684579314664
sg16
g36
(g70
S'\x02\x00\x00\x00'
tRp439
sg42
g43
sg46
g47
sg15
g101
sg22
F120.65068031707779
sg64
g73
sg62
g74
sg49
g50
sS'trials.thisN'
p440
I32
sg19
I0
sg27
g36
(g38
S'\x00\x00\x00\x00\x00\x00\x1e@'
tRp441
sg52
g53
sg23
S'2'
sg18
F120.40941997175105
sg33
g34
sg51
g11
sg20
S'1'
sg65
g36
(g77
S'\x00\x00\x00\x00\x00\x00\x00\x00'
tRp442
sg44
g45
sg40
g41
sg25
F0.060360549250617623
sS'trials.thisIndex'
p443
g36
(g80
S'J\x00\x00\x00'
tRp444
sg26
V5
sS'trials.thisRepN'
p445
I0
sg66
Vseagull
p446
sg63
V../experiment_stimuli/bw_bc_bl/Living_Things/Birds/seagull_5.jpg
p447
sg21
F0.22070624912157655
sS'trials.thisTrialN'
p448
I32
sa(dp449
g31
g32
sg17
F122.44885180168785
sg24
I0
sg35
g39
sg14
F122.44394143577665
sg16
g36
(g70
S'\x02\x00\x00\x00'
tRp450
sg42
g43
sg46
g47
sg15
g101
sg22
F123.85765594127588
sg64
g73
sg62
g74
sg49
g50
sS'trials.thisN'
p451
I33
sg19
I0
sg27
g36
(g38
S'\x00\x00\x00\x00\x00\x00\x1a@'
tRp452
sg52
g53
sg23
S'2'
sg18
F123.67653935821727
sg33
g34
sg51
g11
sg20
S'1'
sg65
g36
(g77
S'\x00\x00\x00\x00\x00\x00\x00\x00'
tRp453
sg44
g45
sg40
g41
sg25
F0.090417633531615138
sS'trials.thisIndex'
p454
g36
(g80
S'O\x00\x00\x00'
tRp455
sg26
V5
sS'trials.thisRepN'
p456
I0
sg66
Vsparrow
p457
sg63
V../experiment_stimuli/bw_bc_bl/Living_Things/Birds/sparrow_9.jpg
p458
sg21
F0.16057672677561641
sS'trials.thisTrialN'
p459
I33
sa(dp460
g31
g32
sg17
F125.68623397499323
sg24
I1
sg35
g39
sg14
F125.68098116666079
sg16
g36
(g70
S'\x02\x00\x00\x00'
tRp461
sg42
g43
sg46
g47
sg15
g72
sg22
F126.99447358865291
sg64
g263
sg62
g89
sg49
g50
sS'trials.thisN'
p462
I34
sg19
I1
sg27
g36
(g38
S'\x00\x00\x00\x00\x00\x00 @'
tRp463
sg52
g53
sg23
S'1'
sg18
F126.91356111946516
sg33
g34
sg51
g11
sg20
S'2'
sg65
g36
(g77
S'\x00\x00\x00\x00\x00\x00\x00\x00'
tRp464
sg44
g45
sg40
g41
sg25
F0.1405216867569834
sS'trials.thisIndex'
p465
g36
(g80
S'5\x00\x00\x00'
tRp466
sg26
V5
sS'trials.thisRepN'
p467
I0
sg66
Vmill
p468
sg63
V../experiment_stimuli/bw_bc_bl/Nonliving_Things/Buildings/mill_1.jpg
p469
sg21
F0.060365146957337856
sS'trials.thisTrialN'
p470
I34
sa(dp471
g31
g32
sg17
F128.87477691168897
sg24
I1
sg35
g39
sg14
F128.8679143821355
sg16
g36
(g70
S'\x01\x00\x00\x00'
tRp472
sg42
g43
sg46
g47
sg15
g72
sg22
F130.26155989663675
sg64
g138
sg62
g74
sg49
g50
sS'trials.thisN'
p473
I35
sg19
I1
sg27
g36
(g38
S'\x00\x00\x00\x00\x00\x00\x1e@'
tRp474
sg52
g53
sg23
S'1'
sg18
F130.12053035269491
sg33
g34
sg51
g11
sg20
S'1'
sg65
g36
(g77
S'\x00\x00\x00\x00\x00\x00\x00\x00'
tRp475
sg44
g45
sg40
g41
sg25
F0.48126590833999217
sS'trials.thisIndex'
p476
g36
(g80
S' \x00\x00\x00'
tRp477
sg26
V5
sS'trials.thisRepN'
p478
I0
sg66
Vgiraffe
p479
sg63
V../experiment_stimuli/bw_bc_bl/Living_Things/Animals/giraffe_10.jpg
p480
sg21
F0.12049116170965135
sS'trials.thisTrialN'
p481
I35
sa(dp482
g31
g32
sg17
F132.48069849121384
sg24
I0
sg35
g39
sg14
F132.47575640422292
sg16
g36
(g70
S'\x02\x00\x00\x00'
tRp483
sg42
g43
sg46
g47
sg15
g101
sg22
F134.37050224957056
sg64
g138
sg62
g74
sg49
g50
sS'trials.thisN'
p484
I36
sg19
I1
sg27
g36
(g38
S'\x00\x00\x00\x00\x00\x00\x1a@'
tRp485
sg52
g53
sg23
S'2'
sg18
F133.74842093302868
sg33
g34
sg51
g11
sg20
S'2'
sg65
g36
(g77
S'\x00\x00\x00\x00\x00\x00\x00\x00'
tRp486
sg44
g45
sg40
g41
sg25
F0.28084467351436615
sS'trials.thisIndex'
p487
g36
(g80
S"'\x00\x00\x00"
tRp488
sg26
V5
sS'trials.thisRepN'
p489
I0
sg66
Vhippopotamus
p490
sg63
V../experiment_stimuli/bw_bc_bl/Living_Things/Animals/hippopotamus_20.jpg
p491
sg21
F0.60153412190265954
sS'trials.thisTrialN'
p492
I36
sa(dp493
g31
g32
sg17
F136.38926836033352
sg24
I1
sg35
g39
sg14
F136.38425488723442
sg16
g36
(g70
S'\x02\x00\x00\x00'
tRp494
sg42
g43
sg46
g47
sg15
g72
sg22
F137.72783299093135
sg64
g240
sg62
g89
sg49
g50
sS'trials.thisN'
p495
I37
sg19
I1
sg27
g36
(g38
S'\x00\x00\x00\x00\x00\x00\x1a@'
tRp496
sg52
g53
sg23
S'1'
sg18
F137.64689966128208
sg33
g34
sg51
g11
sg20
S'2'
sg65
g36
(g77
S'\x00\x00\x00\x00\x00\x00\x00\x00'
tRp497
sg44
g45
sg40
g41
sg25
F0.15055547165684402
sS'trials.thisIndex'
p498
g36
(g80
S'\x0f\x00\x00\x00'
tRp499
sg26
V5
sS'trials.thisRepN'
p500
I0
sg66
Vchair
p501
sg63
V../experiment_stimuli/bw_bc_bl/Nonliving_Things/Furniture/chair_0.jpg
p502
sg21
F0.060371541418135166
sS'trials.thisTrialN'
p503
I37
sa(dp504
g31
g32
sg17
F139.61614077468403
sg24
I0
sg35
g39
sg14
F139.6112690132577
sg16
g36
(g70
S'\x02\x00\x00\x00'
tRp505
sg42
g43
sg46
g47
sg15
g72
sg22
F142.47816049656831
sg64
g150
sg62
g89
sg49
g50
sS'trials.thisN'
p506
I38
sg19
I1
sg27
g36
(g38
S'\x00\x00\x00\x00\x00\x00\x1a@'
tRp507
sg52
g53
sg23
S'3'
sg18
F140.89396672975272
sg33
g34
sg51
g11
sg20
S'2'
sg65
g36
(g77
S'\x00\x00\x00\x00\x00\x00\x00\x00'
tRp508
sg44
g45
sg40
g41
sg25
F0.09041589661501348
sS'trials.thisIndex'
p509
g36
(g80
S'\x1f\x00\x00\x00'
tRp510
sg26
V5
sS'trials.thisRepN'
p511
I0
sg66
Vfrying-pan
p512
sg63
V../experiment_stimuli/bw_bc_bl/Nonliving_Things/Kitchen_Uten/frying-pan_10.jpg
p513
sg21
F1.5636511736083776
sS'trials.thisTrialN'
p514
I38
sa(dp515
g31
g32
sg17
F144.30731287575327
sg24
I1
sg35
g39
sg14
F144.30146179394796
sg16
g36
(g70
S'\x02\x00\x00\x00'
tRp516
sg42
g43
sg46
g47
sg15
g101
sg22
F145.62497726036236
sg64
g73
sg62
g74
sg49
g50
sS'trials.thisN'
p517
I39
sg19
I1
sg27
g36
(g38
S'\x00\x00\x00\x00\x00\x00\x1a@'
tRp518
sg52
g53
sg23
S'1'
sg18
F145.56410834263079
sg33
g34
sg51
g11
sg20
S'2'
sg65
g36
(g77
S'\x00\x00\x00\x00\x00\x00\x00\x00'
tRp519
sg44
g45
sg40
g41
sg25
F0.12049273308366537
sS'trials.thisIndex'
p520
g36
(g80
S'9\x00\x00\x00'
tRp521
sg26
V5
sS'trials.thisRepN'
p522
I0
sg66
Vowl
p523
sg63
V../experiment_stimuli/bw_bc_bl/Living_Things/Birds/owl_20.jpg
p524
sg21
F0.040315764956176281
sS'trials.thisTrialN'
p525
I39
sa(dp526
g31
g32
sg17
F147.48514273623005
sg24
I0
sg35
g39
sg14
F147.47836794611067
sg16
g36
(g70
S'\x01\x00\x00\x00'
tRp527
sg42
g43
sg46
g47
sg15
g101
sg22
F149.34306391747668
sg64
g240
sg62
g89
sg49
g50
sS'trials.thisN'
p528
I40
sg19
I1
sg27
g36
(g38
S'\x00\x00\x00\x00\x00\x00\x1a@'
tRp529
sg52
g53
sg23
S'3'
sg18
F148.75103383976966
sg33
g34
sg51
g11
sg20
S'1'
sg65
g36
(g77
S'\x00\x00\x00\x00\x00\x00\x00\x00'
tRp530
sg44
g45
sg40
g41
sg25
F0.10044224956072867
sS'trials.thisIndex'
p531
g36
(g80
S'\x13\x00\x00\x00'
tRp532
sg26
V5
sS'trials.thisRepN'
p533
I0
sg66
Vcouch
p534
sg63
V../experiment_stimuli/bw_bc_bl/Nonliving_Things/Furniture/couch_23.jpg
p535
sg21
F0.57147147739306092
sS'trials.thisTrialN'
p536
I40
sa(dp537
g31
g32
sg17
F151.18144590873271
sg24
I1
sg35
g39
sg14
F151.17642263835296
sg16
g36
(g70
S'\x02\x00\x00\x00'
tRp538
sg42
g43
sg46
g47
sg15
g72
sg22
F152.56005669874139
sg64
g102
sg62
g89
sg49
g50
sS'trials.thisN'
p539
I41
sg19
I1
sg27
g36
(g38
S'\x00\x00\x00\x00\x00\x00\x1a@'
tRp540
sg52
g53
sg23
S'1'
sg18
F152.4190092261415
sg33
g34
sg51
g11
sg20
S'2'
sg65
g36
(g77
S'\x00\x00\x00\x00\x00\x00\x00\x00'
tRp541
sg44
g45
sg40
g41
sg25
F0.10044724587351084
sS'trials.thisIndex'
p542
g36
(g80
S'\\\x00\x00\x00'
tRp543
sg26
V5
sS'trials.thisRepN'
p544
I0
sg66
Vviolin
p545
sg63
V../experiment_stimuli/bw_bc_bl/Nonliving_Things/Musical_Inst/violin_22.jpg
p546
sg21
F0.12050540558993816
sS'trials.thisTrialN'
p547
I41
sa(dp548
g31
g32
sg17
F154.39826412079856
sg24
I1
sg35
g39
sg14
F154.39340385212563
sg16
g36
(g70
S'\x01\x00\x00\x00'
tRp549
sg42
g43
sg46
g47
sg15
g72
sg22
F155.85723235784099
sg64
g73
sg62
g74
sg49
g50
sS'trials.thisN'
p550
I42
sg19
I0
sg27
g36
(g38
S'\x00\x00\x00\x00\x00\x00\x1a@'
tRp551
sg52
g53
sg23
S'1'
sg18
F155.64602534123696
sg33
g34
sg51
g11
sg20
S'2'
sg65
g36
(g77
S'\x00\x00\x00\x00\x00\x00\x00\x00'
tRp552
sg44
g45
sg40
g41
sg25
F0.070393089670687914
sS'trials.thisIndex'
p553
g36
(g80
S'\x04\x00\x00\x00'
tRp554
sg26
V5
sS'trials.thisRepN'
p555
I0
sg66
Vbarn-owl
p556
sg63
V../experiment_stimuli/bw_bc_bl/Living_Things/Birds/barn-owl_23.jpg
p557
sg21
F0.19064158922992647
sS'trials.thisTrialN'
p558
I42
sa(dp559
g31
g32
sg17
F157.66745415073819
sg24
I1
sg35
g39
sg14
F157.66050028032623
sg16
g36
(g70
S'\x01\x00\x00\x00'
tRp560
sg42
g43
sg46
g47
sg15
g72
sg22
F159.16443069675006
sg64
g73
sg62
g74
sg49
g50
sS'trials.thisN'
p561
I43
sg19
I1
sg27
g36
(g38
S'\x00\x00\x00\x00\x00\x00\x18@'
tRp562
sg52
g53
sg23
S'1'
sg18
F158.92314712610096
sg33
g34
sg51
g11
sg20
S'1'
sg65
g36
(g77
S'\x00\x00\x00\x00\x00\x00\x00\x00'
tRp563
sg44
g45
sg40
g41
sg25
F0.17059239139780402
sS'trials.thisIndex'
p564
g36
(g80
S'U\x00\x00\x00'
tRp565
sg26
V5
sS'trials.thisRepN'
p566
I0
sg66
Vtoucan
p567
sg63
V../experiment_stimuli/bw_bc_bl/Living_Things/Birds/toucan_9.jpg
p568
sg21
F0.22072535008192062
sS'trials.thisTrialN'
p569
I43
sa(dp570
g31
g32
sg17
F161.07278557680547
sg24
I0
sg35
g39
sg14
F161.06790852267295
sg16
g36
(g70
S'\x02\x00\x00\x00'
tRp571
sg42
g43
sg46
g47
sg15
g72
sg22
F162.9025475862436
sg64
g102
sg62
g89
sg49
g50
sS'trials.thisN'
p572
I44
sg19
I1
sg27
g36
(g38
S'\x00\x00\x00\x00\x00\x00\x1e@'
tRp573
sg52
g53
sg23
S'3'
sg18
F162.36062121554278
sg33
g34
sg51
g11
sg20
S'2'
sg65
g36
(g77
S'\x00\x00\x00\x00\x00\x00\x00\x00'
tRp574
sg44
g45
sg40
g41
sg25
F0.18062980030663311
sS'trials.thisIndex'
p575
g36
(g80
S'$\x00\x00\x00'
tRp576
sg26
V5
sS'trials.thisRepN'
p577
I0
sg66
Vguitar
p578
sg63
V../experiment_stimuli/bw_bc_bl/Nonliving_Things/Musical_Inst/guitar_17.jpg
p579
sg21
F0.52137053315527737
sS'trials.thisTrialN'
p580
I44
sa(dp581
g31
g32
sg17
F164.82200904749334
sg24
I0
sg35
g39
sg14
F164.81606523436494
sg16
g36
(g70
S'\x01\x00\x00\x00'
tRp582
sg42
g43
sg46
g47
sg15
g72
sg22
F166.76093188812956
sg64
g195
sg62
g74
sg49
g50
sS'trials.thisN'
p583
I45
sg19
I1
sg27
g36
(g38
S'\x00\x00\x00\x00\x00\x00\x1e@'
tRp584
sg52
g53
sg23
S'2'
sg18
F166.07870803470723
sg33
g34
sg51
g11
sg20
S'1'
sg65
g36
(g77
S'\x00\x00\x00\x00\x00\x00\x00\x00'
tRp585
sg44
g45
sg40
g41
sg25
F0.1103144499938935
sS'trials.thisIndex'
p586
g36
(g80
S'^\x00\x00\x00'
tRp587
sg26
V5
sS'trials.thisRepN'
p588
I0
sg66
Vwhale
p589
sg63
V../experiment_stimuli/bw_bc_bl/Living_Things/Marine_creatures/whale_6.jpg
p590
sg21
F0.66167444502934813
sS'trials.thisTrialN'
p591
I45
sa(dp592
g31
g32
sg17
F168.60939950565808
sg24
I0
sg35
g39
sg14
F168.60429263534024
sg16
g36
(g70
S'\x02\x00\x00\x00'
tRp593
sg42
g43
sg46
g47
sg15
g101
sg22
F170.41888114740141
sg64
g138
sg62
g74
sg49
g50
sS'trials.thisN'
p594
I46
sg19
I1
sg27
g36
(g38
S'\x00\x00\x00\x00\x00\x00\x18@'
tRp595
sg52
g53
sg23
S'2'
sg18
F169.85691825207323
sg33
g34
sg51
g11
sg20
S'2'
sg65
g36
(g77
S'\x00\x00\x00\x00\x00\x00\x00\x00'
tRp596
sg44
g45
sg40
g41
sg25
F0.18061635666526854
sS'trials.thisIndex'
p597
g36
(g80
S'(\x00\x00\x00'
tRp598
sg26
V5
sS'trials.thisRepN'
p599
I0
sg66
Vhorse
p600
sg63
V../experiment_stimuli/bw_bc_bl/Living_Things/Animals/horse_24.jpg
p601
sg21
F0.54140543425455689
sS'trials.thisTrialN'
p602
I46
sa(dp603
g31
g32
sg17
F172.33718613302335
sg24
I1
sg35
g39
sg14
F172.33239905862138
sg16
g36
(g70
S'\x02\x00\x00\x00'
tRp604
sg42
g43
sg46
g47
sg15
g72
sg22
F173.66594529501162
sg64
g240
sg62
g89
sg49
g50
sS'trials.thisN'
p605
I47
sg19
I1
sg27
g36
(g38
S'\x00\x00\x00\x00\x00\x00\x18@'
tRp606
sg52
g53
sg23
S'1'
sg18
F173.57500560116023
sg33
g34
sg51
g11
sg20
S'2'
sg65
g36
(g77
S'\x00\x00\x00\x00\x00\x00\x00\x00'
tRp607
sg44
g45
sg40
g41
sg25
F0.12048872211016715
sS'trials.thisIndex'
p608
g36
(g80
S'N\x00\x00\x00'
tRp609
sg26
V5
sS'trials.thisRepN'
p610
I0
sg66
Vsofa
p611
sg63
V../experiment_stimuli/bw_bc_bl/Nonliving_Things/Furniture/sofa_4.jpg
p612
sg21
F0.070398882962763309
sS'trials.thisTrialN'
p613
I47
sa(dp614
g31
g32
sg17
F175.52430877438746
sg24
I1
sg35
g39
sg14
F175.51934274402447
sg16
g36
(g70
S'\x01\x00\x00\x00'
tRp615
sg42
g43
sg46
g47
sg15
g72
sg22
F176.99320515501313
sg64
g73
sg62
g74
sg49
g50
sS'trials.thisN'
p616
I48
sg19
I0
sg27
g36
(g38
S'\x00\x00\x00\x00\x00\x00\x1a@'
tRp617
sg52
g53
sg23
S'1'
sg18
F176.78198689781129
sg33
g34
sg51
g11
sg20
S'2'
sg65
g36
(g77
S'\x00\x00\x00\x00\x00\x00\x00\x00'
tRp618
sg44
g45
sg40
g41
sg25
F0.090433591976761818
sS'trials.thisIndex'
p619
g36
(g80
S'<\x00\x00\x00'
tRp620
sg26
V5
sS'trials.thisRepN'
p621
I0
sg66
Vpelican
p622
sg63
V../experiment_stimuli/bw_bc_bl/Living_Things/Birds/pelican_14.jpg
p623
sg21
F0.1906671526376158
sS'trials.thisTrialN'
p624
I48
sa(dp625
g31
g32
sg17
F178.82135919481516
sg24
I0
sg35
g39
sg14
F178.81649666279554
sg16
g36
(g70
S'\x02\x00\x00\x00'
tRp626
sg42
g43
sg46
g47
sg15
g101
sg22
F180.59101659129374
sg64
g138
sg62
g74
sg49
g50
sS'trials.thisN'
p627
I49
sg19
I1
sg27
g36
(g38
S'\x00\x00\x00\x00\x00\x00\x18@'
tRp628
sg52
g53
sg23
S'2'
sg18
F180.0991878756322
sg33
g34
sg51
g11
sg20
S'2'
sg65
g36
(g77
S'\x00\x00\x00\x00\x00\x00\x00\x00'
tRp629
sg44
g45
sg40
g41
sg25
F0.27082836953923106
sS'trials.thisIndex'
p630
g36
(g80
S'\r\x00\x00\x00'
tRp631
sg26
V5
sS'trials.thisRepN'
p632
I0
sg66
Vcat
p633
sg63
V../experiment_stimuli/bw_bc_bl/Living_Things/Animals/cat_10.jpg
p634
sg21
F0.47125125490128994
sS'trials.thisTrialN'
p635
I49
sa(dp636
g31
g32
sg17
F182.59954576962627
sg24
I1
sg35
g39
sg14
F182.59471382759511
sg16
g36
(g70
S'\x02\x00\x00\x00'
tRp637
sg42
g43
sg46
g47
sg15
g101
sg22
F184.74987963517196
sg64
g73
sg62
g74
sg49
g50
sS'trials.thisN'
p638
I50
sg19
I1
sg27
g36
(g38
S'\x00\x00\x00\x00\x00\x00\x18@'
tRp639
sg52
g53
sg23
S'1'
sg18
F183.85735425190069
sg33
g34
sg51
g11
sg20
S'2'
sg65
g36
(g77
S'\x00\x00\x00\x00\x00\x00\x00\x00'
tRp640
sg44
g45
sg40
g41
sg25
F0.15054883644916117
sS'trials.thisIndex'
p641
g36
(g80
S'=\x00\x00\x00'
tRp642
sg26
V5
sS'trials.thisRepN'
p643
I0
sg66
Vpenguin
p644
sg63
V../experiment_stimuli/bw_bc_bl/Living_Things/Birds/penguin_10.jpg
p645
sg21
F0.87196171912364662
sS'trials.thisTrialN'
p646
I50
sa(dp647
g31
g32
sg17
F186.63846268202178
sg24
I0
sg35
g39
sg14
F186.63349333195947
sg16
g36
(g70
S'\x01\x00\x00\x00'
tRp648
sg42
g43
sg46
g47
sg15
g101
sg22
F188.36790939839557
sg64
g240
sg62
g89
sg49
g50
sS'trials.thisN'
p649
I51
sg19
I1
sg27
g36
(g38
S'\x00\x00\x00\x00\x00\x00\x18@'
tRp650
sg52
g53
sg23
S'3'
sg18
F187.92620525066741
sg33
g34
sg51
g11
sg20
S'1'
sg65
g36
(g77
S'\x00\x00\x00\x00\x00\x00\x00\x00'
tRp651
sg44
g45
sg40
g41
sg25
F0.060351530555635691
sS'trials.thisIndex'
p652
g36
(g80
S'E\x00\x00\x00'
tRp653
sg26
V5
sS'trials.thisRepN'
p654
I0
sg66
Vrocking-chair
p655
sg63
V../experiment_stimuli/bw_bc_bl/Nonliving_Things/Furniture/rocking-chair_12.jpg
p656
sg21
F0.42115732189267874
sS'trials.thisTrialN'
p657
I51
sa(dp658
g31
g32
sg17
F190.16718047624454
sg24
I0
sg35
g39
sg14
F190.16116102458909
sg16
g36
(g70
S'\x02\x00\x00\x00'
tRp659
sg42
g43
sg46
g47
sg15
g72
sg22
F191.93551798537374
sg64
g240
sg62
g89
sg49
g50
sS'trials.thisN'
p660
I52
sg19
I1
sg27
g36
(g38
S'\x00\x00\x00\x00\x00\x00 @'
tRp661
sg52
g53
sg23
S'3'
sg18
F191.42381723108701
sg33
g34
sg51
g11
sg20
S'2'
sg65
g36
(g77
S'\x00\x00\x00\x00\x00\x00\x00\x00'
tRp662
sg44
g45
sg40
g41
sg25
F0.13053062674589455
sS'trials.thisIndex'
p663
g36
(g80
S']\x00\x00\x00'
tRp664
sg26
V5
sS'trials.thisRepN'
p665
I0
sg66
Vwardrobe
p666
sg63
V../experiment_stimuli/bw_bc_bl/Nonliving_Things/Furniture/wardrobe_21.jpg
p667
sg21
F0.4911516010761261
sS'trials.thisTrialN'
p668
I52
sa(dp669
g31
g32
sg17
F193.80391802405939
sg24
I0
sg35
g39
sg14
F193.79906609351747
sg16
g36
(g70
S'\x01\x00\x00\x00'
tRp670
sg42
g43
sg46
g47
sg15
g101
sg22
F195.66375839943066
sg64
g150
sg62
g89
sg49
g50
sS'trials.thisN'
p671
I53
sg19
I1
sg27
g36
(g38
S'\x00\x00\x00\x00\x00\x00\x18@'
tRp672
sg52
g53
sg23
S'3'
sg18
F195.05169146996923
sg33
g34
sg51
g11
sg20
S'1'
sg65
g36
(g77
S'\x00\x00\x00\x00\x00\x00\x00\x00'
tRp673
sg44
g45
sg40
g41
sg25
F0.060350680956616998
sS'trials.thisIndex'
p674
g36
(g80
S'B\x00\x00\x00'
tRp675
sg26
V5
sS'trials.thisRepN'
p676
I0
sg66
Vpot
p677
sg63
V../experiment_stimuli/bw_bc_bl/Nonliving_Things/Kitchen_Uten/pot_20.jpg
p678
sg21
F0.59151478810235858
sS'trials.thisTrialN'
p679
I53
sa(dp680
g31
g32
sg17
F197.46199791668914
sg24
I1
sg35
g39
sg14
F197.45702446904033
sg16
g36
(g70
S'\x02\x00\x00\x00'
tRp681
sg42
g43
sg46
g47
sg15
g72
sg22
F199.0411259366665
sg64
g263
sg62
g89
sg49
g50
sS'trials.thisN'
p682
I54
sg19
I1
sg27
g36
(g38
S'\x00\x00\x00\x00\x00\x00\x18@'
tRp683
sg52
g53
sg23
S'1'
sg18
F198.68960174149834
sg33
g34
sg51
g11
sg20
S'2'
sg65
g36
(g77
S'\x00\x00\x00\x00\x00\x00\x00\x00'
tRp684
sg44
g45
sg40
g41
sg25
F0.21068202774040401
sS'trials.thisIndex'
p685
g36
(g80
S':\x00\x00\x00'
tRp686
sg26
V5
sS'trials.thisRepN'
p687
I0
sg66
Vpalace
p688
sg63
V../experiment_stimuli/bw_bc_bl/Nonliving_Things/Buildings/palace_1.jpg
p689
sg21
F0.33095482061617076
sS'trials.thisTrialN'
p690
I54
sa(dp691
g31
g32
sg17
F200.98955894191749
sg24
I1
sg35
g39
sg14
F200.98469769931398
sg16
g36
(g70
S'\x01\x00\x00\x00'
tRp692
sg42
g43
sg46
g47
sg15
g72
sg22
F202.3583180308342
sg64
g73
sg62
g74
sg49
g50
sS'trials.thisN'
p693
I55
sg19
I0
sg27
g36
(g38
S'\x00\x00\x00\x00\x00\x00\x18@'
tRp694
sg52
g53
sg23
S'1'
sg18
F202.24734504125081
sg33
g34
sg51
g11
sg20
S'2'
sg65
g36
(g77
S'\x00\x00\x00\x00\x00\x00\x00\x00'
tRp695
sg44
g45
sg40
g41
sg25
F0.1505477309692651
sS'trials.thisIndex'
p696
g36
(g80
S'"\x00\x00\x00'
tRp697
sg26
V5
sS'trials.thisRepN'
p698
I0
sg66
Vgoose
p699
sg63
V../experiment_stimuli/bw_bc_bl/Living_Things/Birds/goose_20.jpg
p700
sg21
F0.090426784008741379
sS'trials.thisTrialN'
p701
I55
sa(dp702
g31
g32
sg17
F204.24660303303972
sg24
I0
sg35
g39
sg14
F204.24177507543936
sg16
g36
(g70
S'\x02\x00\x00\x00'
tRp703
sg42
g43
sg46
g47
sg15
g101
sg22
F206.19668699544854
sg64
g114
sg62
g74
sg49
g50
sS'trials.thisN'
p704
I56
sg19
I0
sg27
g36
(g38
S'\x00\x00\x00\x00\x00\x00\x18@'
tRp705
sg52
g53
sg23
S'2'
sg18
F205.534487813944
sg33
g34
sg51
g11
sg20
S'1'
sg65
g36
(g77
S'\x00\x00\x00\x00\x00\x00\x00\x00'
tRp706
sg44
g45
sg40
g41
sg25
F0.17059595533646643
sS'trials.thisIndex'
p707
g36
(g80
S'-\x00\x00\x00'
tRp708
sg26
V5
sS'trials.thisRepN'
p709
I0
sg66
Vladybird
p710
sg63
V../experiment_stimuli/bw_bc_bl/Living_Things/Insects/ladybird_16.jpg
p711
sg21
F0.64164075441658497
sS'trials.thisTrialN'
p712
I56
sa(dp713
g31
g32
sg17
F208.10520110628568
sg24
I0
sg35
g39
sg14
F208.10015816357918
sg16
g36
(g70
S'\x02\x00\x00\x00'
tRp714
sg42
g43
sg46
g47
sg15
g72
sg22
F209.94479854241945
sg64
g263
sg62
g89
sg49
g50
sS'trials.thisN'
p715
I57
sg19
I1
sg27
g36
(g38
S'\x00\x00\x00\x00\x00\x00\x1a@'
tRp716
sg52
g53
sg23
S'3'
sg18
F209.382847962901
sg33
g34
sg51
g11
sg20
S'2'
sg65
g36
(g77
S'\x00\x00\x00\x00\x00\x00\x00\x00'
tRp717
sg44
g45
sg40
g41
sg25
F0.12050374038517475
sS'trials.thisIndex'
p718
g36
(g80
S'\x0c\x00\x00\x00'
tRp719
sg26
V5
sS'trials.thisRepN'
p720
I0
sg66
Vcastle
p721
sg63
V../experiment_stimuli/bw_bc_bl/Nonliving_Things/Buildings/castle_22.jpg
p722
sg21
F0.54140637768432498
sS'trials.thisTrialN'
p723
I57
sa(dp724
g31
g32
sg17
F211.80306120403111
sg24
I0
sg35
g39
sg14
F211.79820113419555
sg16
g36
(g70
S'\x02\x00\x00\x00'
tRp725
sg42
g43
sg46
g47
sg15
g101
sg22
F213.65285739628598
sg64
g138
sg62
g74
sg49
g50
sS'trials.thisN'
p726
I58
sg19
I1
sg27
g36
(g38
S'\x00\x00\x00\x00\x00\x00\x1a@'
tRp727
sg52
g53
sg23
S'2'
sg18
F213.05082028894685
sg33
g34
sg51
g11
sg20
S'2'
sg65
g36
(g77
S'\x00\x00\x00\x00\x00\x00\x00\x00'
tRp728
sg44
g45
sg40
g41
sg25
F0.20065132924355567
sS'trials.thisIndex'
p729
g36
(g80
S'T\x00\x00\x00'
tRp730
sg26
V5
sS'trials.thisRepN'
p731
I0
sg66
Vtiger
p732
sg63
V../experiment_stimuli/bw_bc_bl/Living_Things/Animals/tiger_18.jpg
p733
sg21
F0.5814936759416014
sS'trials.thisTrialN'
p734
I58
sa(dp735
g31
g32
sg17
F215.59141721972264
sg24
I1
sg35
g39
sg14
F215.58643459528685
sg16
g36
(g70
S'\x02\x00\x00\x00'
tRp736
sg42
g43
sg46
g47
sg15
g72
sg22
F216.88000706583261
sg64
g263
sg62
g89
sg49
g50
sS'trials.thisN'
p737
I59
sg19
I1
sg27
g36
(g38
S'\x00\x00\x00\x00\x00\x00\x18@'
tRp738
sg52
g53
sg23
S'1'
sg18
F216.82904131803662
sg33
g34
sg51
g11
sg20
S'2'
sg65
g36
(g77
S'\x00\x00\x00\x00\x00\x00\x00\x00'
tRp739
sg44
g45
sg40
g41
sg25
F0.16058065905235708
sS'trials.thisIndex'
p740
g36
(g80
S'\x1c\x00\x00\x00'
tRp741
sg26
V5
sS'trials.thisRepN'
p742
I0
sg66
Vfactory
p743
sg63
V../experiment_stimuli/bw_bc_bl/Nonliving_Things/Buildings/factory_7.jpg
p744
sg21
F0.030416459077969193
sS'trials.thisTrialN'
p745
I59
sa(dp746
g31
g32
sg17
F218.77835700241849
sg24
I1
sg35
g39
sg14
F218.77336013060994
sg16
g36
(g70
S'\x01\x00\x00\x00'
tRp747
sg42
g43
sg46
g47
sg15
g72
sg22
F220.39752868190408
sg64
g195
sg62
g74
sg49
g50
sS'trials.thisN'
p748
I60
sg19
I0
sg27
g36
(g38
S'\x00\x00\x00\x00\x00\x00\x1e@'
tRp749
sg52
g53
sg23
S'1'
sg18
F220.04602815210819
sg33
g34
sg51
g11
sg20
S'2'
sg65
g36
(g77
S'\x00\x00\x00\x00\x00\x00\x00\x00'
tRp750
sg44
g45
sg40
g41
sg25
F0.090421900385990739
sS'trials.thisIndex'
p751
g36
(g80
S'A\x00\x00\x00'
tRp752
sg26
V5
sS'trials.thisRepN'
p753
I0
sg66
Vpomfret
p754
sg63
V../experiment_stimuli/bw_bc_bl/Living_Things/Marine_creatures/pomfret_13.jpg
p755
sg21
F0.33095372980460525
sS'trials.thisTrialN'
p756
I60
sa(dp757
g31
g32
sg17
F222.22583724232391
sg24
I0
sg35
g39
sg14
F222.22087654983625
sg16
g36
(g70
S'\x01\x00\x00\x00'
tRp758
sg42
g43
sg46
g47
sg15
g101
sg22
F224.11562397819944
sg64
g240
sg62
g89
sg49
g50
sS'trials.thisN'
p759
I61
sg19
I1
sg27
g36
(g38
S'\x00\x00\x00\x00\x00\x00\x18@'
tRp760
sg52
g53
sg23
S'3'
sg18
F223.50355370272882
sg33
g34
sg51
g11
sg20
S'1'
sg65
g36
(g77
S'\x00\x00\x00\x00\x00\x00\x00\x00'
tRp761
sg44
g45
sg40
g41
sg25
F0.12048141355626285
sS'trials.thisIndex'
p762
g36
(g80
S'\x02\x00\x00\x00'
tRp763
sg26
V5
sS'trials.thisRepN'
p764
I0
sg66
Varmchair
p765
sg63
V../experiment_stimuli/bw_bc_bl/Nonliving_Things/Furniture/armchair_20.jpg
p766
sg21
F0.59151717880740762
sS'trials.thisTrialN'
p767
I61
sa(dp768
g31
g32
sg17
F225.9753378520254
sg24
I0
sg35
g39
sg14
F225.96902542351745
sg16
g36
(g70
S'\x02\x00\x00\x00'
tRp769
sg42
g43
sg46
g47
sg15
g101
sg22
F227.48277323669754
sg64
g138
sg62
g74
sg49
g50
sS'trials.thisN'
p770
I62
sg19
I0
sg27
g36
(g38
S'\x00\x00\x00\x00\x00\x00\x1a@'
tRp771
sg52
g53
sg23
S'2'
sg18
F227.23164884070866
sg33
g34
sg51
g11
sg20
S'1'
sg65
g36
(g77
S'\x00\x00\x00\x00\x00\x00\x00\x00'
tRp772
sg44
g45
sg40
g41
sg25
F0.050338538363575935
sS'trials.thisIndex'
p773
g36
(g80
S'_\x00\x00\x00'
tRp774
sg26
V5
sS'trials.thisRepN'
p775
I0
sg66
Vzebra
p776
sg63
V../experiment_stimuli/bw_bc_bl/Living_Things/Animals/zebra_6.jpg
p777
sg21
F0.23057469027116895
sS'trials.thisTrialN'
p778
I62
sa(dp779
g31
g32
sg17
F229.27128249872476
sg24
I1
sg35
g39
sg14
F229.26619749632664
sg16
g36
(g70
S'\x01\x00\x00\x00'
tRp780
sg42
g43
sg46
g47
sg15
g101
sg22
F230.70994724426419
sg64
g102
sg62
g89
sg49
g50
sS'trials.thisN'
p781
I63
sg19
I0
sg27
g36
(g38
S'\x00\x00\x00\x00\x00\x00\x18@'
tRp782
sg52
g53
sg23
S'1'
sg18
F230.51880207937211
sg33
g34
sg51
g11
sg20
S'2'
sg65
g36
(g77
S'\x00\x00\x00\x00\x00\x00\x00\x00'
tRp783
sg44
g45
sg40
g41
sg25
F0.040438105119392276
sS'trials.thisIndex'
p784
g36
(g80
S'H\x00\x00\x00'
tRp785
sg26
V5
sS'trials.thisRepN'
p786
I0
sg66
Vsaxophone
p787
sg63
V../experiment_stimuli/bw_bc_bl/Nonliving_Things/Musical_Inst/saxophone_5.jpg
p788
sg21
F0.17059857933782041
sS'trials.thisTrialN'
p789
I63
sa(dp790
g31
g32
sg17
F232.49072008323856
sg24
I0
sg35
g39
sg14
F232.48316826997325
sg16
g36
(g70
S'\x02\x00\x00\x00'
tRp791
sg42
g43
sg46
g47
sg15
g101
sg22
F234.4580895351246
sg64
g138
sg62
g74
sg49
g50
sS'trials.thisN'
p792
I64
sg19
I0
sg27
g36
(g38
S'\x00\x00\x00\x00\x00\x00\x1e@'
tRp793
sg52
g53
sg23
S'2'
sg18
F233.7458242920693
sg33
g34
sg51
g11
sg20
S'1'
sg65
g36
(g77
S'\x00\x00\x00\x00\x00\x00\x00\x00'
tRp794
sg44
g45
sg40
g41
sg25
F0.14052696898579597
sS'trials.thisIndex'
p795
g36
(g80
S'Z\x00\x00\x00'
tRp796
sg26
V5
sS'trials.thisRepN'
p797
I0
sg66
Vturtle
p798
sg63
V../experiment_stimuli/bw_bc_bl/Living_Things/Animals/turtle_19.jpg
p799
sg21
F0.69173278519883752
sS'trials.thisTrialN'
p800
I64
sa(dp801
g31
g32
sg17
F236.33660335023887
sg24
I0
sg35
g39
sg14
F236.33154282462783
sg16
g36
(g70
S'\x02\x00\x00\x00'
tRp802
sg42
g43
sg46
g47
sg15
g72
sg22
F238.14611842366867
sg64
g150
sg62
g89
sg49
g50
sS'trials.thisN'
p803
I65
sg19
I1
sg27
g36
(g38
S'\x00\x00\x00\x00\x00\x00\x1e@'
tRp804
sg52
g53
sg23
S'3'
sg18
F237.58415817096829
sg33
g34
sg51
g11
sg20
S'2'
sg65
g36
(g77
S'\x00\x00\x00\x00\x00\x00\x00\x00'
tRp805
sg44
g45
sg40
g41
sg25
F0.090415708953514695
sS'trials.thisIndex'
p806
g36
(g80
S'\x1e\x00\x00\x00'
tRp807
sg26
V5
sS'trials.thisRepN'
p808
I0
sg66
Vfondue
p809
sg63
V../experiment_stimuli/bw_bc_bl/Nonliving_Things/Kitchen_Uten/fondue_17.jpg
p810
sg21
F0.53138218331150711
sS'trials.thisTrialN'
p811
I65
sa(dp812
g31
g32
sg17
F239.97449913714081
sg24
I0
sg35
g39
sg14
F239.96946081449278
sg16
g36
(g70
S'\x02\x00\x00\x00'
tRp813
sg42
g43
sg46
g47
sg15
g72
sg22
F241.57358405133709
sg64
g126
sg62
g89
sg49
g50
sS'trials.thisN'
p814
I66
sg19
I0
sg27
g36
(g38
S'\x00\x00\x00\x00\x00\x00\x18@'
tRp815
sg52
g53
sg23
S'2'
sg18
F241.2020257525146
sg33
g34
sg51
g11
sg20
S'1'
sg65
g36
(g77
S'\x00\x00\x00\x00\x00\x00\x00\x00'
tRp816
sg44
g45
sg40
g41
sg25
F0.10045847506262362
sS'trials.thisIndex'
p817
g36
(g80
S'L\x00\x00\x00'
tRp818
sg26
V5
sS'trials.thisRepN'
p819
I0
sg66
Vship
p820
sg63
V../experiment_stimuli/bw_bc_bl/Nonliving_Things/Vehicles/ship_18.jpg
p821
sg21
F0.3509927662089467
sS'trials.thisTrialN'
p822
I66
sa(dp823
g31
g32
sg17
F243.41200339933857
sg24
I1
sg35
g39
sg14
F243.4069200924132
sg16
g36
(g70
S'\x01\x00\x00\x00'
tRp824
sg42
g43
sg46
g47
sg15
g72
sg22
F244.71037430083379
sg64
g195
sg62
g74
sg49
g50
sS'trials.thisN'
p825
I67
sg19
I0
sg27
g36
(g38
S'\x00\x00\x00\x00\x00\x00\x18@'
tRp826
sg52
g53
sg23
S'1'
sg18
F244.64952026656829
sg33
g34
sg51
g11
sg20
S'2'
sg65
g36
(g77
S'\x00\x00\x00\x00\x00\x00\x00\x00'
tRp827
sg44
g45
sg40
g41
sg25
F0.14055097568780184
sS'trials.thisIndex'
p828
g36
(g80
S'1\x00\x00\x00'
tRp829
sg26
V5
sS'trials.thisRepN'
p830
I0
sg66
Vlobster
p831
sg63
V../experiment_stimuli/bw_bc_bl/Living_Things/Marine_creatures/lobster_11.jpg
p832
sg21
F0.040318779880180955
sS'trials.thisTrialN'
p833
I67
sa(dp834
g31
g32
sg17
F246.58899417053908
sg24
I1
sg35
g39
sg14
F246.58383040991612
sg16
g36
(g70
S'\x02\x00\x00\x00'
tRp835
sg42
g43
sg46
g47
sg15
g101
sg22
F248.14786920603365
sg64
g73
sg62
g74
sg49
g50
sS'trials.thisN'
p836
I68
sg19
I1
sg27
g36
(g38
S'\x00\x00\x00\x00\x00\x00\x18@'
tRp837
sg52
g53
sg23
S'1'
sg18
F247.85649795783684
sg33
g34
sg51
g11
sg20
S'2'
sg65
g36
(g77
S'\x00\x00\x00\x00\x00\x00\x00\x00'
tRp838
sg44
g45
sg40
g41
sg25
F0.040308772120624781
sS'trials.thisIndex'
p839
g36
(g80
S'3\x00\x00\x00'
tRp840
sg26
V5
sS'trials.thisRepN'
p841
I0
sg66
Vmagpie
p842
sg63
V../experiment_stimuli/bw_bc_bl/Living_Things/Birds/magpie_19.jpg
p843
sg21
F0.27083164383657277
sS'trials.thisTrialN'
p844
I68
sa(dp845
g31
g32
sg17
F249.92612605844624
sg24
I0
sg35
g39
sg14
F249.92107260436751
sg16
g36
(g70
S'\x01\x00\x00\x00'
tRp846
sg42
g43
sg46
g47
sg15
g101
sg22
F251.77575558749959
sg64
g240
sg62
g89
sg49
g50
sS'trials.thisN'
p847
I69
sg19
I1
sg27
g36
(g38
S'\x00\x00\x00\x00\x00\x00\x1a@'
tRp848
sg52
g53
sg23
S'3'
sg18
F251.21379237645306
sg33
g34
sg51
g11
sg20
S'1'
sg65
g36
(g77
S'\x00\x00\x00\x00\x00\x00\x00\x00'
tRp849
sg44
g45
sg40
g41
sg25
F0.13052645395509899
sS'trials.thisIndex'
p850
g36
(g80
S'\x05\x00\x00\x00'
tRp851
sg26
V5
sS'trials.thisRepN'
p852
I0
sg66
Vbed
p853
sg63
V../experiment_stimuli/bw_bc_bl/Nonliving_Things/Furniture/bed_9.jpg
p854
sg21
F0.54141072742640972
sS'trials.thisTrialN'
p855
I69
sa(dp856
g31
g32
sg17
F253.64419186627492
sg24
I1
sg35
g39
sg14
F253.63916094973683
sg16
g36
(g70
S'\x02\x00\x00\x00'
tRp857
sg42
g43
sg46
g47
sg15
g101
sg22
F255.153087410843
sg64
g73
sg62
g74
sg49
g50
sS'trials.thisN'
p858
I70
sg19
I1
sg27
g36
(g38
S'\x00\x00\x00\x00\x00\x00\x1e@'
tRp859
sg52
g53
sg23
S'1'
sg18
F254.9018095433712
sg33
g34
sg51
g11
sg20
S'2'
sg65
g36
(g77
S'\x00\x00\x00\x00\x00\x00\x00\x00'
tRp860
sg44
g45
sg40
g41
sg25
F0.1204834021627903
sS'trials.thisIndex'
p861
g36
(g80
S'C\x00\x00\x00'
tRp862
sg26
V5
sS'trials.thisRepN'
p863
I0
sg66
Vraven
p864
sg63
V../experiment_stimuli/bw_bc_bl/Living_Things/Birds/raven_8.jpg
p865
sg21
F0.23073751502670348
sS'trials.thisTrialN'
p866
I70
sa(dp867
g31
g32
sg17
F257.01252742763609
sg24
I0
sg35
g39
sg14
F257.00648421328515
sg16
g36
(g70
S'\x01\x00\x00\x00'
tRp868
sg42
g43
sg46
g47
sg15
g101
sg22
F259.18188204313628
sg64
g150
sg62
g89
sg49
g50
sS'trials.thisN'
p869
I71
sg19
I1
sg27
g36
(g38
S'\x00\x00\x00\x00\x00\x00\x18@'
tRp870
sg52
g53
sg23
S'3'
sg18
F258.28917243727483
sg33
g34
sg51
g11
sg20
S'1'
sg65
g36
(g77
S'\x00\x00\x00\x00\x00\x00\x00\x00'
tRp871
sg44
g45
sg40
g41
sg25
F0.26080872351303697
sS'trials.thisIndex'
p872
g36
(g80
S'G\x00\x00\x00'
tRp873
sg26
V5
sS'trials.thisRepN'
p874
I0
sg66
Vsaucepan
p875
sg63
V../experiment_stimuli/bw_bc_bl/Nonliving_Things/Kitchen_Uten/saucepan_0.jpg
p876
sg21
F0.87212668266147375
sS'trials.thisTrialN'
p877
I71
sa(dp878
g31
g32
sg17
F261.18061676784419
sg24
I0
sg35
g39
sg14
F261.17554570897482
sg16
g36
(g70
S'\x02\x00\x00\x00'
tRp879
sg42
g43
sg46
g47
sg15
g101
sg22
F263.0102044751402
sg64
g195
sg62
g74
sg49
g50
sS'trials.thisN'
p880
I72
sg19
I0
sg27
g36
(g38
S'\x00\x00\x00\x00\x00\x00\x1a@'
tRp881
sg52
g53
sg23
S'3'
sg18
F262.41814879630692
sg33
g34
sg51
g11
sg20
S'1'
sg65
g36
(g77
S'\x00\x00\x00\x00\x00\x00\x00\x00'
tRp882
sg44
g45
sg40
g41
sg25
F0.17044363054446876
sS'trials.thisIndex'
p883
g36
(g80
S'P\x00\x00\x00'
tRp884
sg26
V5
sS'trials.thisRepN'
p885
I0
sg66
Vsperm-whale
p886
sg63
V../experiment_stimuli/bw_bc_bl/Living_Things/Marine_creatures/sperm-whale_10.jpg
p887
sg21
F0.57147584576159716
sS'trials.thisTrialN'
p888
I72
sa(dp889
g31
g32
sg17
F264.91884494503029
sg24
I1
sg35
g39
sg14
F264.91367281600833
sg16
g36
(g70
S'\x01\x00\x00\x00'
tRp890
sg42
g43
sg46
g47
sg15
g72
sg22
F266.20711164176464
sg64
g138
sg62
g74
sg49
g50
sS'trials.thisN'
p891
I73
sg19
I0
sg27
g36
(g38
S'\x00\x00\x00\x00\x00\x00\x1a@'
tRp892
sg52
g53
sg23
S'1'
sg18
F266.14625212596729
sg33
g34
sg51
g11
sg20
S'2'
sg65
g36
(g77
S'\x00\x00\x00\x00\x00\x00\x00\x00'
tRp893
sg44
g45
sg40
g41
sg25
F0.060351541731506586
sS'trials.thisIndex'
p894
g36
(g80
S'\x01\x00\x00\x00'
tRp895
sg26
V5
sS'trials.thisRepN'
p896
I0
sg66
Varmadillo
p897
sg63
V../experiment_stimuli/bw_bc_bl/Living_Things/Animals/armadillo_0.jpg
p898
sg21
F0.040317922364920378
sS'trials.thisTrialN'
p899
I73
sa(dp900
g31
g32
sg17
F268.00681844982319
sg24
I1
sg35
g39
sg14
F268.00037877913564
sg16
g36
(g70
S'\x02\x00\x00\x00'
tRp901
sg42
g43
sg46
g47
sg15
g72
sg22
F269.36400355072692
sg64
g240
sg62
g89
sg49
g50
sS'trials.thisN'
p902
I74
sg19
I1
sg27
g36
(g38
S'\x00\x00\x00\x00\x00\x00\x1a@'
tRp903
sg52
g53
sg23
S'1'
sg18
F269.24300228361972
sg33
g34
sg51
g11
sg20
S'2'
sg65
g36
(g77
S'\x00\x00\x00\x00\x00\x00\x00\x00'
tRp904
sg44
g45
sg40
g41
sg25
F0.11046724510379136
sS'trials.thisIndex'
p905
g36
(g80
S'/\x00\x00\x00'
tRp906
sg26
V5
sS'trials.thisRepN'
p907
I0
sg66
Vlectern
p908
sg63
V../experiment_stimuli/bw_bc_bl/Nonliving_Things/Furniture/lectern_24.jpg
p909
sg21
F0.10047010635025799
sS'trials.thisTrialN'
p910
I74
sa(dp911
g31
g32
sg17
F271.21269451430999
sg24
I0
sg35
g39
sg14
F271.20735246292315
sg16
g36
(g70
S'\x01\x00\x00\x00'
tRp912
sg42
g43
sg46
g47
sg15
g72
sg22
F273.29253803589381
sg64
g195
sg62
g74
sg49
g50
sS'trials.thisN'
p913
I75
sg19
I0
sg27
g36
(g38
S'\x00\x00\x00\x00\x00\x00\x18@'
tRp914
sg52
g53
sg23
S'2'
sg18
F272.47001899266616
sg33
g34
sg51
g11
sg20
S'2'
sg65
g36
(g77
S'\x00\x00\x00\x00\x00\x00\x00\x00'
tRp915
sg44
g45
sg40
g41
sg25
F0.23072442505508661
sS'trials.thisIndex'
p916
g36
(g80
S'+\x00\x00\x00'
tRp917
sg26
V5
sS'trials.thisRepN'
p918
I0
sg66
Vkiller-whale
p919
sg63
V../experiment_stimuli/bw_bc_bl/Living_Things/Marine_creatures/killer-whale_22.jpg
p920
sg21
F0.80197424022480845
sS'trials.thisTrialN'
p921
I75
sa(dp922
g31
g32
sg17
F275.26146772154607
sg24
I0
sg35
g39
sg14
F275.25615553045645
sg16
g36
(g70
S'\x02\x00\x00\x00'
tRp923
sg42
g43
sg46
g47
sg15
g101
sg22
F276.99056784552522
sg64
g73
sg62
g74
sg49
g50
sS'trials.thisN'
p924
I76
sg19
I0
sg27
g36
(g38
S'\x00\x00\x00\x00\x00\x00\x18@'
tRp925
sg52
g53
sg23
S'2'
sg18
F276.49876480968669
sg33
g34
sg51
g11
sg20
S'1'
sg65
g36
(g77
S'\x00\x00\x00\x00\x00\x00\x00\x00'
tRp926
sg44
g45
sg40
g41
sg25
F0.080241726711392403
sS'trials.thisIndex'
p927
g36
(g80
S'F\x00\x00\x00'
tRp928
sg26
V5
sS'trials.thisRepN'
p929
I0
sg66
Vrooster
p930
sg63
V../experiment_stimuli/bw_bc_bl/Living_Things/Birds/rooster_5.jpg
p931
sg21
F0.47086520376615226
sS'trials.thisTrialN'
p932
I76
sa(dp933
g31
g32
sg17
F278.80904802773148
sg24
I1
sg35
g39
sg14
F278.80386563180946
sg16
g36
(g70
S'\x01\x00\x00\x00'
tRp934
sg42
g43
sg46
g47
sg15
g72
sg22
F280.36789146554656
sg64
g195
sg62
g74
sg49
g50
sS'trials.thisN'
p935
I77
sg19
I0
sg27
g36
(g38
S'\x00\x00\x00\x00\x00\x00\x18@'
tRp936
sg52
g53
sg23
S'1'
sg18
F280.03644821234047
sg33
g34
sg51
g11
sg20
S'2'
sg65
g36
(g77
S'\x00\x00\x00\x00\x00\x00\x00\x00'
tRp937
sg44
g45
sg40
g41
sg25
F0.040308949071913958
sS'trials.thisIndex'
p938
g36
(g80
S'K\x00\x00\x00'
tRp939
sg26
V5
sS'trials.thisRepN'
p940
I0
sg66
Vshark
p941
sg63
V../experiment_stimuli/bw_bc_bl/Living_Things/Marine_creatures/shark_20.jpg
p942
sg21
F0.31089975778013468
sS'trials.thisTrialN'
p943
I77
sa(dp944
g31
g32
sg17
F282.14633790543303
sg24
I0
sg35
g39
sg14
F282.14113312656991
sg16
g36
(g70
S'\x02\x00\x00\x00'
tRp945
sg42
g43
sg46
g47
sg15
g72
sg22
F283.86551452474669
sg64
g126
sg62
g89
sg49
g50
sS'trials.thisN'
p946
I78
sg19
I1
sg27
g36
(g38
S'\x00\x00\x00\x00\x00\x00\x1c@'
tRp947
sg52
g53
sg23
S'3'
sg18
F283.39374728105031
sg33
g34
sg51
g11
sg20
S'2'
sg65
g36
(g77
S'\x00\x00\x00\x00\x00\x00\x00\x00'
tRp948
sg44
g45
sg40
g41
sg25
F0.14054684434086084
sS'trials.thisIndex'
p949
g36
(g80
S'[\x00\x00\x00'
tRp950
sg26
V5
sS'trials.thisRepN'
p951
I0
sg66
Vvan
p952
sg63
V../experiment_stimuli/bw_bc_bl/Nonliving_Things/Vehicles/van_19.jpg
p953
sg21
F0.45120656071230769
sS'trials.thisTrialN'
p954
I78
sa(dp955
g31
g32
sg17
F285.7440994665958
sg24
I1
sg35
g39
sg14
F285.73894355888478
sg16
g36
(g70
S'\x01\x00\x00\x00'
tRp956
sg42
g43
sg46
g47
sg15
g101
sg22
F287.36312445253134
sg64
g263
sg62
g89
sg49
g50
sS'trials.thisN'
p957
I79
sg19
I1
sg27
g36
(g38
S'\x00\x00\x00\x00\x00\x00\x1a@'
tRp958
sg52
g53
sg23
S'1'
sg18
F286.97153222607449
sg33
g34
sg51
g11
sg20
S'1'
sg65
g36
(g77
S'\x00\x00\x00\x00\x00\x00\x00\x00'
tRp959
sg44
g45
sg40
g41
sg25
F0.17059198557399213
sS'trials.thisIndex'
p960
g36
(g80
S'\x0e\x00\x00\x00'
tRp961
sg26
V5
sS'trials.thisRepN'
p962
I0
sg66
Vcathedral
p963
sg63
V../experiment_stimuli/bw_bc_bl/Nonliving_Things/Buildings/cathedral_16.jpg
p964
sg21
F0.37104103551246226
sS'trials.thisTrialN'
p965
I79
sa(dp966
g31
g32
sg17
F289.28183667291887
sg24
I1
sg35
g39
sg14
F289.27664778847247
sg16
g36
(g70
S'\x02\x00\x00\x00'
tRp967
sg42
g43
sg46
g47
sg15
g101
sg22
F290.63023607619107
sg64
g73
sg62
g74
sg49
g50
sS'trials.thisN'
p968
I80
sg19
I0
sg27
g36
(g38
S'\x00\x00\x00\x00\x00\x00\x18@'
tRp969
sg52
g53
sg23
S'1'
sg18
F290.53928525443189
sg33
g34
sg51
g11
sg20
S'1'
sg65
g36
(g77
S'\x00\x00\x00\x00\x00\x00\x00\x00'
tRp970
sg44
g45
sg40
g41
sg25
F0.58132952405139804
sS'trials.thisIndex'
p971
g36
(g80
S'?\x00\x00\x00'
tRp972
sg26
V5
sS'trials.thisRepN'
p973
I0
sg66
Vpigeon
p974
sg63
V../experiment_stimuli/bw_bc_bl/Living_Things/Birds/pigeon_17.jpg
p975
sg21
F0.070386702194809914
sS'trials.thisTrialN'
p976
I80
sa(dp977
g31
g32
sg17
F292.94994451617822
sg24
I0
sg35
g39
sg14
F292.94460899103433
sg16
g36
(g70
S'\x02\x00\x00\x00'
tRp978
sg42
g43
sg46
g47
sg15
g72
sg22
F294.75918254838325
sg64
g126
sg62
g89
sg49
g50
sS'trials.thisN'
p979
I81
sg19
I1
sg27
g36
(g38
S'\x00\x00\x00\x00\x00\x00\x18@'
tRp980
sg52
g53
sg23
S'3'
sg18
F294.21727764024399
sg33
g34
sg51
g11
sg20
S'2'
sg65
g36
(g77
S'\x00\x00\x00\x00\x00\x00\x00\x00'
tRp981
sg44
g45
sg40
g41
sg25
F0.13050887896679342
sS'trials.thisIndex'
p982
g36
(g80
S'V\x00\x00\x00'
tRp983
sg26
V5
sS'trials.thisRepN'
p984
I0
sg66
Vtractor
p985
sg63
V../experiment_stimuli/bw_bc_bl/Nonliving_Things/Vehicles/tractor_22.jpg
p986
sg21
F0.52135793934576213
sS'trials.thisTrialN'
p987
I81
sa(dp988
g31
g32
sg17
F296.62774844188243
sg24
I1
sg35
g39
sg14
F296.62260848935694
sg16
g36
(g70
S'\x01\x00\x00\x00'
tRp989
sg42
g43
sg46
g47
sg15
g101
sg22
F297.97623140760697
sg64
g240
sg62
g89
sg49
g50
sS'trials.thisN'
p990
I82
sg19
I0
sg27
g36
(g38
S'\x00\x00\x00\x00\x00\x00\x1a@'
tRp991
sg52
g53
sg23
S'1'
sg18
F297.86520821577869
sg33
g34
sg51
g11
sg20
S'2'
sg65
g36
(g77
S'\x00\x00\x00\x00\x00\x00\x00\x00'
tRp992
sg44
g45
sg40
g41
sg25
F0.12048451160080731
sS'trials.thisIndex'
p993
g36
(g80
S'.\x00\x00\x00'
tRp994
sg26
V5
sS'trials.thisRepN'
p995
I0
sg66
Vlamp
p996
sg63
V../experiment_stimuli/bw_bc_bl/Nonliving_Things/Furniture/lamp_9.jpg
p997
sg21
F0.090446595568209887
sS'trials.thisTrialN'
p998
I82
sa(dp999
g31
g32
sg17
F299.83787107700482
sg24
I0
sg35
g39
sg14
F299.82958162063733
sg16
g36
(g70
S'\x02\x00\x00\x00'
tRp1000
sg42
g43
sg46
g47
sg15
g72
sg22
F302.22546486812644
sg64
g240
sg62
g89
sg49
g50
sS'trials.thisN'
p1001
I83
sg19
I0
sg27
g36
(g38
S'\x00\x00\x00\x00\x00\x00\x1c@'
tRp1002
sg52
g53
sg23
S'2'
sg18
F301.0922287106514
sg33
g34
sg51
g11
sg20
S'1'
sg65
g36
(g77
S'\x00\x00\x00\x00\x00\x00\x00\x00'
tRp1003
sg44
g45
sg40
g41
sg25
F0.6817111992277205
sS'trials.thisIndex'
p1004
g36
(g80
S'\x08\x00\x00\x00'
tRp1005
sg26
V5
sS'trials.thisRepN'
p1006
I0
sg66
Vbookcase
p1007
sg63
V../experiment_stimuli/bw_bc_bl/Nonliving_Things/Furniture/bookcase_2.jpg
p1008
sg21
F1.1126674369443208
sS'trials.thisTrialN'
p1009
I83
sa(dp1010
g31
g32
sg17
F304.64524194644764
sg24
I0
sg35
g39
sg14
F304.64004667103291
sg16
g36
(g70
S'\x02\x00\x00\x00'
tRp1011
sg42
g43
sg46
g47
sg15
g72
sg22
F306.36441037035547
sg64
g240
sg62
g89
sg49
g50
sS'trials.thisN'
p1012
I84
sg19
I1
sg27
g36
(g38
S'\x00\x00\x00\x00\x00\x00\x1e@'
tRp1013
sg52
g53
sg23
S'3'
sg18
F305.89266237826087
sg33
g34
sg51
g11
sg20
S'2'
sg65
g36
(g77
S'\x00\x00\x00\x00\x00\x00\x00\x00'
tRp1014
sg44
g45
sg40
g41
sg25
F0.14052251027897
sS'trials.thisIndex'
p1015
g36
(g80
S'\x1d\x00\x00\x00'
tRp1016
sg26
V5
sS'trials.thisRepN'
p1017
I0
sg66
Vfilling-cabinet
p1018
sg63
V../experiment_stimuli/bw_bc_bl/Nonliving_Things/Furniture/filling-cabinet_19.jpg
p1019
sg21
F0.45120491390116513
sS'trials.thisTrialN'
p1020
I84
sa(dp1021
g31
g32
sg17
F308.24326813523658
sg24
I1
sg35
g39
sg14
F308.23785702465102
sg16
g36
(g70
S'\x02\x00\x00\x00'
tRp1022
sg42
g43
sg46
g47
sg15
g101
sg22
F309.51127470098436
sg64
g73
sg62
g74
sg49
g50
sS'trials.thisN'
p1023
I85
sg19
I0
sg27
g36
(g38
S'\x00\x00\x00\x00\x00\x00\x1a@'
tRp1024
sg52
g53
sg23
S'1'
sg18
F309.47044630837627
sg33
g34
sg51
g11
sg20
S'1'
sg65
g36
(g77
S'\x00\x00\x00\x00\x00\x00\x00\x00'
tRp1025
sg44
g45
sg40
g41
sg25
F0.55141735076904297
sS'trials.thisIndex'
p1026
g36
(g80
S';\x00\x00\x00'
tRp1027
sg26
V5
sS'trials.thisRepN'
p1028
I0
sg66
Vpartridge
p1029
sg63
V../experiment_stimuli/bw_bc_bl/Living_Things/Birds/partridge_23.jpg
p1030
sg21
F0.02028318727388978
sS'trials.thisTrialN'
p1031
I85
sa(dp1032
g31
g32
sg17
F311.81100075412542
sg24
I0
sg35
g39
sg14
F311.80562400398776
sg16
g36
(g70
S'\x01\x00\x00\x00'
tRp1033
sg42
g43
sg46
g47
sg15
g101
sg22
F313.65030693868175
sg64
g150
sg62
g89
sg49
g50
sS'trials.thisN'
p1034
I86
sg19
I1
sg27
g36
(g38
S'\x00\x00\x00\x00\x00\x00\x1a@'
tRp1035
sg52
g53
sg23
S'2'
sg18
F313.06826038355939
sg33
g34
sg51
g11
sg20
S'1'
sg65
g36
(g77
S'\x00\x00\x00\x00\x00\x00\x00\x00'
tRp1036
sg44
g45
sg40
g41
sg25
F0.1104649705812335
sS'trials.thisIndex'
p1037
g36
(g80
S'M\x00\x00\x00'
tRp1038
sg26
V5
sS'trials.thisRepN'
p1039
I0
sg66
Vsmall-saucepan
p1040
sg63
V../experiment_stimuli/bw_bc_bl/Nonliving_Things/Kitchen_Uten/small-saucepan_13.jpg
p1041
sg21
F0.5614599515683949
sS'trials.thisTrialN'
p1042
I86
sa(dp1043
g31
g32
sg17
F315.49911040486768
sg24
I1
sg35
g39
sg14
F315.49365244898945
sg16
g36
(g70
S'\x02\x00\x00\x00'
tRp1044
sg42
g43
sg46
g47
sg15
g101
sg22
F317.00829169689678
sg64
g138
sg62
g74
sg49
g50
sS'trials.thisN'
p1045
I87
sg19
I1
sg27
g36
(g38
S'\x00\x00\x00\x00\x00\x00\x18@'
tRp1046
sg52
g53
sg23
S'1'
sg18
F316.73623342416249
sg33
g34
sg51
g11
sg20
S'2'
sg65
g36
(g77
S'\x00\x00\x00\x00\x00\x00\x00\x00'
tRp1047
sg44
g45
sg40
g41
sg25
F0.070392687572166324
sS'trials.thisIndex'
p1048
g36
(g80
S'\x10\x00\x00\x00'
tRp1049
sg26
V5
sS'trials.thisRepN'
p1050
I0
sg66
Vcheetah
p1051
sg63
V../experiment_stimuli/bw_bc_bl/Living_Things/Animals/cheetah_9.jpg
p1052
sg21
F0.2507707504555583
sS'trials.thisTrialN'
p1053
I87
sa(dp1054
g31
g32
sg17
F318.81633276189677
sg24
I0
sg35
g39
sg14
F318.81085800565779
sg16
g36
(g70
S'\x01\x00\x00\x00'
tRp1055
sg42
g43
sg46
g47
sg15
g72
sg22
F320.55531481932849
sg64
g138
sg62
g74
sg49
g50
sS'trials.thisN'
p1056
I88
sg19
I1
sg27
g36
(g38
S'\x00\x00\x00\x00\x00\x00\x18@'
tRp1057
sg52
g53
sg23
S'2'
sg18
F320.07349355425686
sg33
g34
sg51
g11
sg20
S'1'
sg65
g36
(g77
S'\x00\x00\x00\x00\x00\x00\x00\x00'
tRp1058
sg44
g45
sg40
g41
sg25
F0.17058725212700665
sS'trials.thisIndex'
p1059
g36
(g80
S'2\x00\x00\x00'
tRp1060
sg26
V5
sS'trials.thisRepN'
p1061
I0
sg66
Vlynx
p1062
sg63
V../experiment_stimuli/bw_bc_bl/Living_Things/Animals/lynx_24.jpg
p1063
sg21
F0.4612537925131619
sS'trials.thisTrialN'
p1064
I88
sa(dp1065
g31
g32
sg17
F322.46421934571117
sg24
I0
sg35
g39
sg14
F322.45877723162994
sg16
g36
(g70
S'\x02\x00\x00\x00'
tRp1066
sg42
g43
sg46
g47
sg15
g101
sg22
F324.35351982526481
sg64
g138
sg62
g74
sg49
g50
sS'trials.thisN'
p1067
I89
sg19
I1
sg27
g36
(g38
S'\x00\x00\x00\x00\x00\x00\x18@'
tRp1068
sg52
g53
sg23
S'3'
sg18
F323.72142250603065
sg33
g34
sg51
g11
sg20
S'2'
sg65
g36
(g77
S'\x00\x00\x00\x00\x00\x00\x00\x00'
tRp1069
sg44
g45
sg40
g41
sg25
F0.090421190252527595
sS'trials.thisIndex'
p1070
g36
(g80
S'\x1b\x00\x00\x00'
tRp1071
sg26
V5
sS'trials.thisRepN'
p1072
I0
sg66
Velephant
p1073
sg63
V../experiment_stimuli/bw_bc_bl/Living_Things/Animals/elephant_9.jpg
p1074
sg21
F0.6115580836776644
sS'trials.thisTrialN'
p1075
I89
sa(dp1076
g31
g32
sg17
F326.18241309910081
sg24
I1
sg35
g39
sg14
F326.17686134041287
sg16
g36
(g70
S'\x01\x00\x00\x00'
tRp1077
sg42
g43
sg46
g47
sg15
g101
sg22
F327.48019929113798
sg64
g263
sg62
g89
sg49
g50
sS'trials.thisN'
p1078
I90
sg19
I0
sg27
g36
(g38
S'\x00\x00\x00\x00\x00\x00\x18@'
tRp1079
sg52
g53
sg23
S'1'
sg18
F327.40943750366569
sg33
g34
sg51
g11
sg20
S'2'
sg65
g36
(g77
S'\x00\x00\x00\x00\x00\x00\x00\x00'
tRp1080
sg44
g45
sg40
g41
sg25
F0.020265033002942801
sS'trials.thisIndex'
p1081
g36
(g80
S'\x11\x00\x00\x00'
tRp1082
sg26
V5
sS'trials.thisRepN'
p1083
I0
sg66
Vchurch
p1084
sg63
V../experiment_stimuli/bw_bc_bl/Nonliving_Things/Buildings/church_20.jpg
p1085
sg21
F0.050178762525320053
sS'trials.thisTrialN'
p1086
I90
sa(dp1087
g31
g32
sg17
F329.23904663161375
sg24
I0
sg35
g39
sg14
F329.23351841745898
sg16
g36
(g70
S'\x02\x00\x00\x00'
tRp1088
sg42
g43
sg46
g47
sg15
g101
sg22
F331.01852740999311
sg64
g195
sg62
g74
sg49
g50
sS'trials.thisN'
p1089
I91
sg19
I1
sg27
g36
(g38
S'\x00\x00\x00\x00\x00\x00\x18@'
tRp1090
sg52
g53
sg23
S'2'
sg18
F330.48613144806586
sg33
g34
sg51
g11
sg20
S'2'
sg65
g36
(g77
S'\x00\x00\x00\x00\x00\x00\x00\x00'
tRp1091
sg44
g45
sg40
g41
sg25
F0.20065171690657735
sS'trials.thisIndex'
p1092
g36
(g80
S'4\x00\x00\x00'
tRp1093
sg26
V5
sS'trials.thisRepN'
p1094
I0
sg66
Vmanatee
p1095
sg63
V../experiment_stimuli/bw_bc_bl/Living_Things/Marine_creatures/manatee_13.jpg
p1096
sg21
F0.51185086509212852
sS'trials.thisTrialN'
p1097
I91
sa(dp1098
g31
g32
sg17
F332.95731429778971
sg24
I0
sg35
g39
sg14
F332.9516095824074
sg16
g36
(g70
S'\x02\x00\x00\x00'
tRp1099
sg42
g43
sg46
g47
sg15
g101
sg22
F334.58578845672309
sg64
g195
sg62
g74
sg49
g50
sS'trials.thisN'
p1100
I92
sg19
I1
sg27
g36
(g38
S'\x00\x00\x00\x00\x00\x00\x1a@'
tRp1101
sg52
g53
sg23
S'2'
sg18
F334.1941974859219
sg33
g34
sg51
g11
sg20
S'2'
sg65
g36
(g77
S'\x00\x00\x00\x00\x00\x00\x00\x00'
tRp1102
sg44
g45
sg40
g41
sg25
F0.18062633043155074
sS'trials.thisIndex'
p1103
g36
(g80
S'\x15\x00\x00\x00'
tRp1104
sg26
V5
sS'trials.thisRepN'
p1105
I0
sg66
Vcrab
p1106
sg63
V../experiment_stimuli/bw_bc_bl/Living_Things/Marine_creatures/crab_18.jpg
p1107
sg21
F0.37103815237060189
sS'trials.thisTrialN'
p1108
I92
sa(dp1109
g31
g32
sg17
F336.50501565472223
sg24
I1
sg35
g39
sg14
F336.49930356745608
sg16
g36
(g70
S'\x02\x00\x00\x00'
tRp1110
sg42
g43
sg46
g47
sg15
g72
sg22
F338.56444012303837
sg64
g240
sg62
g89
sg49
g50
sS'trials.thisN'
p1111
I93
sg19
I1
sg27
g36
(g38
S'\x00\x00\x00\x00\x00\x00\x18@'
tRp1112
sg52
g53
sg23
S'1'
sg18
F337.73188959923573
sg33
g34
sg51
g11
sg20
S'2'
sg65
g36
(g77
S'\x00\x00\x00\x00\x00\x00\x00\x00'
tRp1113
sg44
g45
sg40
g41
sg25
F0.1104563579428941
sS'trials.thisIndex'
p1114
g36
(g80
S'Q\x00\x00\x00'
tRp1115
sg26
V5
sS'trials.thisRepN'
p1116
I0
sg66
Vtable
p1117
sg63
V../experiment_stimuli/bw_bc_bl/Nonliving_Things/Furniture/table_20.jpg
p1118
sg21
F0.81199743109755218
sS'trials.thisTrialN'
p1119
I93
sa(dp1120
g31
g32
sg17
F340.4135029274039
sg24
I0
sg35
g39
sg14
F340.40780080598779
sg16
g36
(g70
S'\x02\x00\x00\x00'
tRp1121
sg42
g43
sg46
g47
sg15
g101
sg22
F342.1121329611633
sg64
g73
sg62
g74
sg49
g50
sS'trials.thisN'
p1122
I94
sg19
I1
sg27
g36
(g38
S'\x00\x00\x00\x00\x00\x00\x1a@'
tRp1123
sg52
g53
sg23
S'2'
sg18
F341.67045553494245
sg33
g34
sg51
g11
sg20
S'2'
sg65
g36
(g77
S'\x00\x00\x00\x00\x00\x00\x00\x00'
tRp1124
sg44
g45
sg40
g41
sg25
F0.20066178403794765
sS'trials.thisIndex'
p1125
g36
(g80
S'!\x00\x00\x00'
tRp1126
sg26
V5
sS'trials.thisRepN'
p1127
I0
sg66
Vgoldfinch
p1128
sg63
V../experiment_stimuli/bw_bc_bl/Living_Things/Birds/goldfinch_10.jpg
p1129
sg21
F0.42114949855022132
sS'trials.thisTrialN'
p1130
I94
sa(dp1131
g31
g32
sg17
F344.05123209278099
sg24
I0
sg35
g39
sg14
F344.04570212680846
sg16
g36
(g70
S'\x02\x00\x00\x00'
tRp1132
sg42
g43
sg46
g47
sg15
g72
sg22
F345.80016283877194
sg64
g263
sg62
g89
sg49
g50
sS'trials.thisN'
p1133
I95
sg19
I1
sg27
g36
(g38
S'\x00\x00\x00\x00\x00\x00\x18@'
tRp1134
sg52
g53
sg23
S'3'
sg18
F345.29832986788824
sg33
g34
sg51
g11
sg20
S'2'
sg65
g36
(g77
S'\x00\x00\x00\x00\x00\x00\x00\x00'
tRp1135
sg44
g45
sg40
g41
sg25
F0.15057273814454675
sS'trials.thisIndex'
p1136
g36
(g80
S')\x00\x00\x00'
tRp1137
sg26
V5
sS'trials.thisRepN'
p1138
I0
sg66
Vhouse
p1139
sg63
V../experiment_stimuli/bw_bc_bl/Nonliving_Things/Buildings/house_26.jpg
p1140
sg21
F0.48127250606194139
sS'trials.thisTrialN'
p1141
I95
sasS'loops'
p1142
(lp1143
g1
(cpsychopy.data
TrialHandler
p1144
g3
NtRp1145
(dp1146
S'origin'
p1147
NsS'thisTrial'
p1148
(lp1149
sS'_exp'
p1150
I97317136
sg10
S'trials'
p1151
sg6
I-1
sS'thisRepN'
p1152
I1
sg28
I01
sg29
g30
sS'data'
p1153
g1
(cpsychopy.data
DataHandler
p1154
c__builtin__
dict
p1155
(dp1156
g20
cnumpy.core.multiarray
_reconstruct
p1157
(cnumpy
ndarray
p1158
(I0
tS'b'
tRp1159
(I1
(I96
I1
tg37
(S'O4'
I0
I1
tRp1160
(I3
S'|'
NNNI-1
I-1
I63
tbI00
(lp1161
S'2'
aS'2'
aS'1'
aS'1'
aS'2'
aS'1'
aS'1'
aS'1'
aS'1'
aS'2'
aS'1'
aS'2'
aS'2'
aS'2'
aS'1'
aS'2'
aS'2'
aS'2'
aS'2'
aS'1'
aS'2'
aS'2'
aS'2'
aS'2'
aS'1'
aS'2'
aS'2'
aS'2'
aS'2'
aS'2'
aS'2'
aS'2'
aS'1'
aS'2'
aS'2'
aS'2'
aS'2'
aS'2'
aS'2'
aS'2'
aS'2'
aS'2'
aS'2'
aS'2'
aS'1'
aS'1'
aS'2'
aS'2'
aS'1'
aS'2'
aS'1'
aS'2'
aS'2'
aS'2'
aS'2'
aS'1'
aS'2'
aS'2'
aS'2'
aS'1'
aS'2'
aS'2'
aS'1'
aS'1'
aS'2'
aS'2'
aS'1'
aS'2'
aS'2'
aS'1'
aS'1'
aS'1'
aS'2'
aS'2'
aS'1'
aS'2'
aS'1'
aS'1'
aS'2'
aS'1'
aS'1'
aS'2'
aS'2'
aS'2'
aS'2'
aS'1'
aS'2'
aS'2'
aS'2'
aS'1'
aS'1'
aS'2'
aS'2'
aS'2'
aS'1'
aS'1'
atbsg17
cnumpy.ma.core
_mareconstruct
p1162
(cnumpy.ma.core
MaskedArray
p1163
g1158
(I0
tp1164
S'b'
tRp1165
(I1
(I96
I1
tg37
(S'f4'
I0
I1
tRp1166
(I3
S'<'
NNNI-1
I-1
I0
tbI00
S"DoUB\x9du\x84C\xd09^C*\xe3\xf1@\xf5e\x1aC\x17\xedyC\xeb\xab\xdfB\xb6m\x82B?\xeb\x95C\xa7\xd9\x8dA\xcas\xc4B\n\x8bbB\xee\x1aPCE\xd22C?\xdf\x8eC\xa7c\x08C\xe3\xbf\x9dCY\x17\xa3C\xb6W\xc9A2|\x13C\xdc\x1b\xccB\x89z\xa6C\xb1h\x8aB_\x83\x1cB\xef\xbf\xa6B3\xc8\x91B\xbbW\xd2Bl;\xa1Cg\x97WC\x97R\x98C,VlC\xbb\x9d\x0bC\xf1\xdf\x00C\xee4\xaaCT\xfdHC\n\xc9uB\xa2\x12!C\x82\x1e\xd9BfF\xa0B\x0f{\x04C\x02\x9c(C\x8f\x06\xacC\x15\xf0\xbcB:\x9b\x87CR5o@!?LCZP\x94C\xdf\x00\x86C\x10\xe1\x98ByisC~h\x9fC\xc8\x96vC\x99\x9e\xa4CZ_\xfbBO_\xfdAVf\xb5B\x8a[\rB\xacN\x10CEvEC#\x1f\x9aC9\x86/C|\x996C\x058-A\x13\xa4\x90Cb*HBB\xc7ZC\xce\xcdAC\xea\xa4}CV\xbd)Br\xa3:Cx\xa1\x89C\x9a\x81\x80CsEeC'\x08iA\x86]\xeeB\x8fg\x8bCy\xf9oC\xcf\xe7\x9bCRV,C\xd0\xe5\xf4B\x1e\x97\x82C\xa4@\xa8CcZ\xabAUi8B\x95\xcdSC\xde\xaa\x1dC\x98y\x92C\xcfy\xe3A\xe4H\xaeB\xde%\xe7B\xa0}hC\xbb\x12\x8dCs.\x17C\xcc*>Co\xd2$C\xb0\xf9aC"
S'\x00\x00\x00\x00\x00\x00\x00\x00\x00\x00\x00\x00\x00\x00\x00\x00\x00\x00\x00\x00\x00\x00\x00\x00\x00\x00\x00\x00\x00\x00\x00\x00\x00\x00\x00\x00\x00\x00\x00\x00\x00\x00\x00\x00\x00\x00\x00\x00\x00\x00\x00\x00\x00\x00\x00\x00\x00\x00\x00\x00\x00\x00\x00\x00\x00\x00\x00\x00\x00\x00\x00\x00\x00\x00\x00\x00\x00\x00\x00\x00\x00\x00\x00\x00\x00\x00\x00\x00\x00\x00\x00\x00\x00\x00\x00\x00'
NtbsS'ran'
p1167
g1162
(g1163
g1158
g1164
S'b'
tRp1168
(I1
(I96
I1
tg1166
I00
S'\x00\x00\x80?\x00\x00\x80?\x00\x00\x80?\x00\x00\x80?\x00\x00\x80?\x00\x00\x80?\x00\x00\x80?\x00\x00\x80?\x00\x00\x80?\x00\x00\x80?\x00\x00\x80?\x00\x00\x80?\x00\x00\x80?\x00\x00\x80?\x00\x00\x80?\x00\x00\x80?\x00\x00\x80?\x00\x00\x80?\x00\x00\x80?\x00\x00\x80?\x00\x00\x80?\x00\x00\x80?\x00\x00\x80?\x00\x00\x80?\x00\x00\x80?\x00\x00\x80?\x00\x00\x80?\x00\x00\x80?\x00\x00\x80?\x00\x00\x80?\x00\x00\x80?\x00\x00\x80?\x00\x00\x80?\x00\x00\x80?\x00\x00\x80?\x00\x00\x80?\x00\x00\x80?\x00\x00\x80?\x00\x00\x80?\x00\x00\x80?\x00\x00\x80?\x00\x00\x80?\x00\x00\x80?\x00\x00\x80?\x00\x00\x80?\x00\x00\x80?\x00\x00\x80?\x00\x00\x80?\x00\x00\x80?\x00\x00\x80?\x00\x00\x80?\x00\x00\x80?\x00\x00\x80?\x00\x00\x80?\x00\x00\x80?\x00\x00\x80?\x00\x00\x80?\x00\x00\x80?\x00\x00\x80?\x00\x00\x80?\x00\x00\x80?\x00\x00\x80?\x00\x00\x80?\x00\x00\x80?\x00\x00\x80?\x00\x00\x80?\x00\x00\x80?\x00\x00\x80?\x00\x00\x80?\x00\x00\x80?\x00\x00\x80?\x00\x00\x80?\x00\x00\x80?\x00\x00\x80?\x00\x00\x80?\x00\x00\x80?\x00\x00\x80?\x00\x00\x80?\x00\x00\x80?\x00\x00\x80?\x00\x00\x80?\x00\x00\x80?\x00\x00\x80?\x00\x00\x80?\x00\x00\x80?\x00\x00\x80?\x00\x00\x80?\x00\x00\x80?\x00\x00\x80?\x00\x00\x80?\x00\x00\x80?\x00\x00\x80?\x00\x00\x80?\x00\x00\x80?\x00\x00\x80?\x00\x00\x80?'
S'\x00\x00\x00\x00\x00\x00\x00\x00\x00\x00\x00\x00\x00\x00\x00\x00\x00\x00\x00\x00\x00\x00\x00\x00\x00\x00\x00\x00\x00\x00\x00\x00\x00\x00\x00\x00\x00\x00\x00\x00\x00\x00\x00\x00\x00\x00\x00\x00\x00\x00\x00\x00\x00\x00\x00\x00\x00\x00\x00\x00\x00\x00\x00\x00\x00\x00\x00\x00\x00\x00\x00\x00\x00\x00\x00\x00\x00\x00\x00\x00\x00\x00\x00\x00\x00\x00\x00\x00\x00\x00\x00\x00\x00\x00\x00\x00'
Ntbsg24
g1162
(g1163
g1158
g1164
S'b'
tRp1169
(I1
(I96
I1
tg1166
I00
S'\x00\x00\x80?\x00\x00\x80?\x00\x00\x00\x00\x00\x00\x00\x00\x00\x00\x80?\x00\x00\x00\x00\x00\x00\x00\x00\x00\x00\x80?\x00\x00\x00\x00\x00\x00\x00\x00\x00\x00\x00\x00\x00\x00\x80?\x00\x00\x00\x00\x00\x00\x00\x00\x00\x00\x80?\x00\x00\x80?\x00\x00\x80?\x00\x00\x80?\x00\x00\x80?\x00\x00\x00\x00\x00\x00\x80?\x00\x00\x00\x00\x00\x00\x00\x00\x00\x00\x80?\x00\x00\x00\x00\x00\x00\x00\x00\x00\x00\x00\x00\x00\x00\x00\x00\x00\x00\x80?\x00\x00\x00\x00\x00\x00\x00\x00\x00\x00\x00\x00\x00\x00\x80?\x00\x00\x00\x00\x00\x00\x80?\x00\x00\x00\x00\x00\x00\x00\x00\x00\x00\x80?\x00\x00\x80?\x00\x00\x00\x00\x00\x00\x00\x00\x00\x00\x00\x00\x00\x00\x00\x00\x00\x00\x00\x00\x00\x00\x00\x00\x00\x00\x00\x00\x00\x00\x80?\x00\x00\x80?\x00\x00\x80?\x00\x00\x80?\x00\x00\x00\x00\x00\x00\x80?\x00\x00\x00\x00\x00\x00\x80?\x00\x00\x00\x00\x00\x00\x00\x00\x00\x00\x00\x00\x00\x00\x80?\x00\x00\x80?\x00\x00\x80?\x00\x00\x80?\x00\x00\x80?\x00\x00\x00\x00\x00\x00\x80?\x00\x00\x80?\x00\x00\x80?\x00\x00\x00\x00\x00\x00\x80?\x00\x00\x00\x00\x00\x00\x00\x00\x00\x00\x00\x00\x00\x00\x00\x00\x00\x00\x80?\x00\x00\x80?\x00\x00\x00\x00\x00\x00\x80?\x00\x00\x00\x00\x00\x00\x00\x00\x00\x00\x80?\x00\x00\x00\x00\x00\x00\x00\x00\x00\x00\x80?\x00\x00\x00\x00\x00\x00\x80?\x00\x00\x00\x00\x00\x00\x80?\x00\x00\x00\x00\x00\x00\x80?\x00\x00\x00\x00\x00\x00\x00\x00\x00\x00\x00\x00\x00\x00\x00\x00\x00\x00\x80?\x00\x00\x00\x00\x00\x00\x00\x00\x00\x00\x00\x00'
S'\x00\x00\x00\x00\x00\x00\x00\x00\x00\x00\x00\x00\x00\x00\x00\x00\x00\x00\x00\x00\x00\x00\x00\x00\x00\x00\x00\x00\x00\x00\x00\x00\x00\x00\x00\x00\x00\x00\x00\x00\x00\x00\x00\x00\x00\x00\x00\x00\x00\x00\x00\x00\x00\x00\x00\x00\x00\x00\x00\x00\x00\x00\x00\x00\x00\x00\x00\x00\x00\x00\x00\x00\x00\x00\x00\x00\x00\x00\x00\x00\x00\x00\x00\x00\x00\x00\x00\x00\x00\x00\x00\x00\x00\x00\x00\x00'
Ntbsg14
g1162
(g1163
g1158
g1164
S'b'
tRp1170
(I1
(I96
I1
tg1166
I00
S'=jUB\xf3t\x84C\x8b8^C\xf2\xbb\xf1@\xb6d\x1aC\xcb\xebyCi\xa9\xdfBIk\x82B0\xea\x95C\x95\xcf\x8dAMq\xc4B\t\x86bB\xa4\x19PC\x06\xd12C\x96\xde\x8eC_b\x08C0\xbf\x9dC\xa3\x16\xa3C\xbeL\xc9Avz\x13Cf\x19\xccB\xcey\xa6Cze\x8aB\xc4}\x1cB\xed\xbc\xa6B\xbd\xc5\x91B1U\xd2B\xb9:\xa1C!\x96WC\xedQ\x98C\xe0TlC|\x9c\x0bC0\xde\x00C34\xaaC\x15\xfcHC\xf1\xc3uBb\x11!C\x85\x1b\xd9B\x91C\xa0B\xcby\x04C\xb3\x9a(C\xda\x05\xacC\x1e\xed\xbcB\x8b\x9a\x87C\x88\xd0m@\xe5=LC\xb2O\x94C\x0c\x00\x86C+\xde\x98B,hsC\xcag\x9fCv\x95vC\xe4\x9d\xa4C\xaa\\\xfbB5U\xfdA\xcec\xb5B\x9dV\rB-M\x10C\x00uECr\x1e\x9aC\xf4\x84/C?\x986C\t$-Ai\xa3\x90Cj%HB\xfb\xc5ZC\x90\xccAC\xa0\xa3}CS\xb8)B-\xa2:C\xca\xa0\x89C\xd4\x80\x80C&DeCi\xf3hA\x8cZ\xeeB\xe5f\x8bC/\xf8oC\x1f\xe7\x9bC\x18U,CL\xe3\xf4Bx\x96\x82C\xe9?\xa8C\x90P\xabATd8BW\xccSC\x17\xa9\x1dC\xe9x\x92C\xc5o\xe3A>F\xaeBS#\xe7B\xb1{hC\x11\x12\x8dC*-\x17CB)>C\xea\xd0$C\x12\xf8aC'
S'\x00\x00\x00\x00\x00\x00\x00\x00\x00\x00\x00\x00\x00\x00\x00\x00\x00\x00\x00\x00\x00\x00\x00\x00\x00\x00\x00\x00\x00\x00\x00\x00\x00\x00\x00\x00\x00\x00\x00\x00\x00\x00\x00\x00\x00\x00\x00\x00\x00\x00\x00\x00\x00\x00\x00\x00\x00\x00\x00\x00\x00\x00\x00\x00\x00\x00\x00\x00\x00\x00\x00\x00\x00\x00\x00\x00\x00\x00\x00\x00\x00\x00\x00\x00\x00\x00\x00\x00\x00\x00\x00\x00\x00\x00\x00\x00'
Ntbsg16
g1157
(g1158
(I0
tS'b'
tRp1171
(I1
(I96
I1
tg1160
I00
(lp1172
g239
ag890
ag758
ag87
ag549
ag846
ag417
ag274
ag1000
ag125
ag373
ag251
ag714
ag626
ag956
ag494
ag1044
ag1077
ag149
ag527
ag384
ag1099
ag285
ag194
ag329
ag296
ag395
ag1066
ag736
ag1011
ag802
ag505
ag472
ag1121
ag692
ag262
ag571
ag406
ag318
ag483
ag593
ag1132
ag362
ag912
ag71
ag703
ag989
ag901
ag307
ag824
ag1055
ag835
ag1088
ag461
ag172
ag351
ag183
ag516
ag681
ag1022
ag615
ag637
ag100
ag967
ag228
ag747
ag670
ag857
ag206
ag648
ag923
ag868
ag780
ag113
ag439
ag934
ag813
ag1033
ag604
ag450
ag879
ag1110
ag137
ag217
ag725
ag560
ag978
ag161
ag340
ag428
ag791
ag945
ag538
ag659
ag582
ag769
atbsg15
g1157
(g1158
(I0
tS'b'
tRp1173
(I1
(I96
I1
tg1160
I00
(lp1174
g101
ag72
ag101
ag72
ag72
ag101
ag101
ag72
ag72
ag72
ag72
ag101
ag72
ag101
ag101
ag72
ag101
ag101
ag72
ag101
ag101
ag101
ag72
ag101
ag72
ag72
ag72
ag101
ag72
ag72
ag72
ag72
ag72
ag101
ag72
ag72
ag72
ag72
ag72
ag101
ag101
ag72
ag101
ag72
ag72
ag101
ag101
ag72
ag101
ag72
ag72
ag101
ag101
ag72
ag72
ag72
ag101
ag101
ag72
ag101
ag72
ag101
ag101
ag101
ag72
ag72
ag101
ag101
ag101
ag101
ag101
ag101
ag101
ag72
ag101
ag72
ag72
ag101
ag72
ag101
ag101
ag72
ag72
ag72
ag101
ag72
ag72
ag72
ag72
ag101
ag101
ag72
ag72
ag72
ag72
ag101
atbsg22
g1162
(g1163
g1158
g1164
S'b'
tRp1175
(I1
(I96
I1
tg1166
I00
S'X\xfdZB\x83\x1a\x85C\x9a\x1d`C\x05\xf8\x0fAt\xdb\x1bC\x98\xc6{C\x9c\x8c\xe2B=}\x86B\xdc\x1c\x97C\xb1\x01\x9cA\x13U\xc8B\x1eZnB\xde\xf1QCM\x974C{\xae\x8fCS\xba\tC\x10\x81\x9eCw\xbd\xa3C"\x17\xd5A\xd3W\x15C>\xa0\xceB\xfbJ\xa7C\xc2\xe7\x8dBCm"B;\x91\xaaB\xa28\x95B>W\xd5B@-\xa2CH\xe1XC\xa5.\x99Ch%nCiz\x0eC\xf6B\x02CZ\x0e\xabC\xbb[JC\x8b9}B\r\xe7"CX\xef\xdbB \r\xa3B\xd9^\x06C<k*Cl\xe6\xacC1\x8e\xc0Br\xa5\x88C)o\xb6@Z2NC\xf5\xfc\x94C\x98\xae\x86Cj7\x9cB\xdb\xb5tC\x15G\xa0C\xdb%xC_\x82\xa5C,\xfd\xfdB\xa6\x9a\x05B\xed-\xb9B\xc8\xc1\x14B\xff\x9f\x11C\x87\nGCq\xc1\x9aCC\xfe0C\xf8\xbf8C\x02LKA\xacP\x91C\xce\xc2MB\xc4e\\C\xec\xa9CC1\'\x7fC\xfaK0B/^<C\xcb~\x8aCH\x97\x81C\xbf\xb5fCb\xce}A&M\xf1B\x17/\x8cC\xd6\x92qC=\xd3\x9cC{\xaa-C\x1f\xb7\xf7BN\x81\x83C@H\xa9C8\x97\xb9A\xf7}@B"\xa7UC\x18*\x1fC-a\x93C\xc4\xe7\xeeA\x9c\xa4\xb1B\xe0\xaf\xeaBEujC\xc9\xee\x8dC`\x8f\x18C~\xef?C\xcc\xc2&C\x97{cC'
S'\x00\x00\x00\x00\x00\x00\x00\x00\x00\x00\x00\x00\x00\x00\x00\x00\x00\x00\x00\x00\x00\x00\x00\x00\x00\x00\x00\x00\x00\x00\x00\x00\x00\x00\x00\x00\x00\x00\x00\x00\x00\x00\x00\x00\x00\x00\x00\x00\x00\x00\x00\x00\x00\x00\x00\x00\x00\x00\x00\x00\x00\x00\x00\x00\x00\x00\x00\x00\x00\x00\x00\x00\x00\x00\x00\x00\x00\x00\x00\x00\x00\x00\x00\x00\x00\x00\x00\x00\x00\x00\x00\x00\x00\x00\x00\x00'
Ntbsg26
g1157
(g1158
(I0
tS'b'
tRp1176
(I1
(I96
I1
tg1160
I00
(lp1177
g36
(g80
S'\x08\x00\x00\x00'
tRp1178
aI1
ag36
(g80
S'\x06\x00\x00\x00'
tRp1179
aS'4.0'
p1180
ag36
(g80
S'\x03\x00\x00\x00'
tRp1181
ag36
(g80
S'\x06\x00\x00\x00'
tRp1182
ag36
(g80
S'\x04\x00\x00\x00'
tRp1183
ag36
(g80
S'\t\x00\x00\x00'
tRp1184
ag36
(g80
S'\x04\x00\x00\x00'
tRp1185
ag36
(g80
S'\x04\x00\x00\x00'
tRp1186
ag36
(g80
S'\x03\x00\x00\x00'
tRp1187
ag36
(g80
S'\t\x00\x00\x00'
tRp1188
ag36
(g80
S'\x06\x00\x00\x00'
tRp1189
ag36
(g80
S'\x05\x00\x00\x00'
tRp1190
aI1
ag36
(g80
S'\x04\x00\x00\x00'
tRp1191
ag36
(g80
S'\x02\x00\x00\x00'
tRp1192
ag36
(g80
S'\x01\x00\x00\x00'
tRp1193
ag36
(g80
S'\x01\x00\x00\x00'
tRp1194
ag36
(g80
S'\x05\x00\x00\x00'
tRp1195
aI1
ag36
(g80
S'\x02\x00\x00\x00'
tRp1196
ag36
(g80
S'\x0b\x00\x00\x00'
tRp1197
ag36
(g80
S'\x02\x00\x00\x00'
tRp1198
ag36
(g80
S'\n\x00\x00\x00'
tRp1199
ag36
(g80
S'\t\x00\x00\x00'
tRp1200
ag36
(g80
S'\x03\x00\x00\x00'
tRp1201
ag36
(g80
S'\x03\x00\x00\x00'
tRp1202
ag36
(g80
S'\x02\x00\x00\x00'
tRp1203
ag36
(g80
S'\x03\x00\x00\x00'
tRp1204
ag36
(g80
S'\x03\x00\x00\x00'
tRp1205
ag36
(g80
S'\x06\x00\x00\x00'
tRp1206
ag36
(g80
S'\x03\x00\x00\x00'
tRp1207
ag36
(g80
S'\x04\x00\x00\x00'
tRp1208
ag36
(g80
S'\x04\x00\x00\x00'
tRp1209
ag36
(g80
S'\x0c\x00\x00\x00'
tRp1210
ag36
(g80
S'\x07\x00\x00\x00'
tRp1211
ag36
(g80
S'\x02\x00\x00\x00'
tRp1212
ag36
(g80
S'\x08\x00\x00\x00'
tRp1213
ag36
(g80
S'\x05\x00\x00\x00'
tRp1214
ag36
(g80
S'\x03\x00\x00\x00'
tRp1215
ag36
(g80
S'\x03\x00\x00\x00'
tRp1216
ag36
(g80
S'\x04\x00\x00\x00'
tRp1217
ag36
(g80
S'\x03\x00\x00\x00'
tRp1218
aS'5.0'
p1219
ag36
(g80
S'\x07\x00\x00\x00'
tRp1220
ag36
(g80
S'\x02\x00\x00\x00'
tRp1221
ag36
(g80
S'\x02\x00\x00\x00'
tRp1222
ag36
(g80
S'\x07\x00\x00\x00'
tRp1223
aI1
ag36
(g80
S'\x04\x00\x00\x00'
tRp1224
ag36
(g80
S'\x04\x00\x00\x00'
tRp1225
ag36
(g80
S'\x03\x00\x00\x00'
tRp1226
aI1
ag36
(g80
S'\x05\x00\x00\x00'
tRp1227
ag36
(g80
S'\x05\x00\x00\x00'
tRp1228
ag36
(g80
S'\x03\x00\x00\x00'
tRp1229
ag36
(g80
S'\x04\x00\x00\x00'
tRp1230
aI1
aI1
ag36
(g80
S'\x03\x00\x00\x00'
tRp1231
ag36
(g80
S'\x04\x00\x00\x00'
tRp1232
aS'3.0'
p1233
ag36
(g80
S'\x04\x00\x00\x00'
tRp1234
ag36
(g80
S'\x06\x00\x00\x00'
tRp1235
ag36
(g80
S'\x05\x00\x00\x00'
tRp1236
ag36
(g80
S'\x02\x00\x00\x00'
tRp1237
ag36
(g80
S'\x04\x00\x00\x00'
tRp1238
ag36
(g80
S'\x05\x00\x00\x00'
tRp1239
ag36
(g80
S'\x07\x00\x00\x00'
tRp1240
ag36
(g80
S'\x02\x00\x00\x00'
tRp1241
ag36
(g80
S'\x05\x00\x00\x00'
tRp1242
ag36
(g80
S'\x02\x00\x00\x00'
tRp1243
aS'2.0'
p1244
aI1
ag36
(g80
S'\x01\x00\x00\x00'
tRp1245
aI1
ag36
(g80
S'\x03\x00\x00\x00'
tRp1246
ag36
(g80
S'\x02\x00\x00\x00'
tRp1247
aI1
ag36
(g80
S'\x02\x00\x00\x00'
tRp1248
ag36
(g80
S'\x01\x00\x00\x00'
tRp1249
ag36
(g80
S'\x02\x00\x00\x00'
tRp1250
ag36
(g80
S'\x04\x00\x00\x00'
tRp1251
ag36
(g80
S'\x03\x00\x00\x00'
tRp1252
ag36
(g80
S'\x04\x00\x00\x00'
tRp1253
ag36
(g80
S'\x05\x00\x00\x00'
tRp1254
ag36
(g80
S'\x02\x00\x00\x00'
tRp1255
ag36
(g80
S'\x07\x00\x00\x00'
tRp1256
ag36
(g80
S'\x03\x00\x00\x00'
tRp1257
ag36
(g80
S'\x04\x00\x00\x00'
tRp1258
ag36
(g80
S'\x02\x00\x00\x00'
tRp1259
ag36
(g80
S'\x02\x00\x00\x00'
tRp1260
ag36
(g80
S'\x04\x00\x00\x00'
tRp1261
ag36
(g80
S'\x04\x00\x00\x00'
tRp1262
ag36
(g80
S'\x03\x00\x00\x00'
tRp1263
atbsg21
g1162
(g1163
g1158
g1164
S'b'
tRp1264
(I1
(I96
I1
tg1166
I00
S'#"\x90=h$%=\xabm\x17?\xd1|$>\x8c7C>\xe5\x99\n?dm$>\xe4\xa63?\xe3k\x8e?.\x8d\xfb>\xa1c)?\x81\xd8\xcf?\x9c\x99\n?\xd8G\xf1>\x17\xf9\xbd>&Hw=\x06e\x80>?\x88M=\xd2\x01b>\xf4K\x12?\x82\xf6\'<\xb6\xf8\xbd>\x06^\xcd>H\x05b>\x10A\x12?\xc6\x1a\xc3>\xf1^l>\x12\x8f\x1c?\xf0+\xf9<U\x04\xe7>\xaa\x08\x08?\xb9%\xc8?\x12\xc4\xf6=\xe8\xa0\xd7>\xae1\xb9=~b\x00?\x8ax\x05?z,\x1a>\xc6)\x90=$\xfe\x19?\x8c\x99\n?Zi\xf6>\x93\t\x08?/NM?\xb9\xf3+?\x92B$?\x11<\xb9=E\xc3\xcd=,\xd6\xb8>N%%=u)\xec>r\xaa\x8a>\xa9\x08\x03?rAw=\xc1\xe5\xe1>\xa9\xfe\x19?Q\xdc\x14?%"%=\xe9r\xa9>\xed(\xa6<@>C>\xe28_?o\x8f\x1c?\xe7&\x90=\xba\xb9\xcd=\xc4r\xa9>\x83m\x17?uFl>\x1e\xb5\xb3>\xef\xa1\xd7>>\x15\xf1>\xb2C_?e\xb1.>\xbf.%=\xd2\x00b>A.\x9f>S\xb5\xb3>\xd7\xbb\x0f?J-\x90=:n$>>L\x12?\x10\xdfO?\x02x\x05?k\xe9=?\xc5\xdc\x14?\xd4\x05b>\xb7w\x05?\xb0\x87.>\xa3\xf8\xbd>ZW\x00?f\x151?\x8c\x04\xe7>\x8a\xcb\xf6=9x\xfb>\x7fc)?\xc6\x1bl>'
S'\x00\x00\x00\x00\x00\x00\x00\x00\x00\x00\x00\x00\x00\x00\x00\x00\x00\x00\x00\x00\x00\x00\x00\x00\x00\x00\x00\x00\x00\x00\x00\x00\x00\x00\x00\x00\x00\x00\x00\x00\x00\x00\x00\x00\x00\x00\x00\x00\x00\x00\x00\x00\x00\x00\x00\x00\x00\x00\x00\x00\x00\x00\x00\x00\x00\x00\x00\x00\x00\x00\x00\x00\x00\x00\x00\x00\x00\x00\x00\x00\x00\x00\x00\x00\x00\x00\x00\x00\x00\x00\x00\x00\x00\x00\x00\x00'
NtbsS'order'
p1265
g1162
(g1163
g1158
g1164
S'b'
tRp1266
(I1
(I96
I1
tg1166
I00
S'\x00\x00`A\x00\x00\x92B\x00\x00tB\x00\x00\x80?\x00\x00(B\x00\x00\x8aB\x00\x00\xf0A\x00\x00\x88A\x00\x00\xa6B\x00\x00\x80@\x00\x00\xd0A\x00\x00pA\x00\x00dB\x00\x00DB\x00\x00\x9eB\x00\x00\x14B\x00\x00\xaeB\x00\x00\xb4B\x00\x00\xc0@\x00\x00 B\x00\x00\xd8A\x00\x00\xb8B\x00\x00\x90A\x00\x00 A\x00\x00\xb0A\x00\x00\x98A\x00\x00\xe0A\x00\x00\xb2B\x00\x00lB\x00\x00\xa8B\x00\x00\x82B\x00\x00\x18B\x00\x00\x0cB\x00\x00\xbcB\x00\x00\\B\x00\x00\x80A\x00\x000B\x00\x00\xe8A\x00\x00\xa8A\x00\x00\x10B\x00\x008B\x00\x00\xbeB\x00\x00\xc8A\x00\x00\x96B\x00\x00\x00\x00\x00\x00`B\x00\x00\xa4B\x00\x00\x94B\x00\x00\xa0A\x00\x00\x86B\x00\x00\xb0B\x00\x00\x88B\x00\x00\xb6B\x00\x00\x08B\x00\x00\x00A\x00\x00\xc0A\x00\x00\x10A\x00\x00\x1cB\x00\x00XB\x00\x00\xaaB\x00\x00@B\x00\x00HB\x00\x00\x00@\x00\x00\xa0B\x00\x00PA\x00\x00pB\x00\x00TB\x00\x00\x8cB\x00\x000A\x00\x00LB\x00\x00\x98B\x00\x00\x8eB\x00\x00|B\x00\x00@@\x00\x00\x00B\x00\x00\x9aB\x00\x00\x84B\x00\x00\xacB\x00\x00<B\x00\x00\x04B\x00\x00\x90B\x00\x00\xbaB\x00\x00\xa0@\x00\x00@A\x00\x00hB\x00\x00,B\x00\x00\xa2B\x00\x00\xe0@\x00\x00\xb8A\x00\x00\xf8A\x00\x00\x80B\x00\x00\x9cB\x00\x00$B\x00\x00PB\x00\x004B\x00\x00xB'
S'\x00\x00\x00\x00\x00\x00\x00\x00\x00\x00\x00\x00\x00\x00\x00\x00\x00\x00\x00\x00\x00\x00\x00\x00\x00\x00\x00\x00\x00\x00\x00\x00\x00\x00\x00\x00\x00\x00\x00\x00\x00\x00\x00\x00\x00\x00\x00\x00\x00\x00\x00\x00\x00\x00\x00\x00\x00\x00\x00\x00\x00\x00\x00\x00\x00\x00\x00\x00\x00\x00\x00\x00\x00\x00\x00\x00\x00\x00\x00\x00\x00\x00\x00\x00\x00\x00\x00\x00\x00\x00\x00\x00\x00\x00\x00\x00'
Ntbsg19
g1162
(g1163
g1158
g1164
S'b'
tRp1267
(I1
(I96
I1
tg1166
I00
S'\x00\x00\x00\x00\x00\x00\x00\x00\x00\x00\x80?\x00\x00\x00\x00\x00\x00\x00\x00\x00\x00\x80?\x00\x00\x80?\x00\x00\x00\x00\x00\x00\x00\x00\x00\x00\x80?\x00\x00\x80?\x00\x00\x00\x00\x00\x00\x80?\x00\x00\x80?\x00\x00\x80?\x00\x00\x80?\x00\x00\x80?\x00\x00\x00\x00\x00\x00\x80?\x00\x00\x80?\x00\x00\x80?\x00\x00\x80?\x00\x00\x80?\x00\x00\x80?\x00\x00\x80?\x00\x00\x80?\x00\x00\x00\x00\x00\x00\x80?\x00\x00\x80?\x00\x00\x80?\x00\x00\x80?\x00\x00\x80?\x00\x00\x80?\x00\x00\x80?\x00\x00\x00\x00\x00\x00\x80?\x00\x00\x80?\x00\x00\x80?\x00\x00\x00\x00\x00\x00\x80?\x00\x00\x80?\x00\x00\x80?\x00\x00\x80?\x00\x00\x00\x00\x00\x00\x80?\x00\x00\x00\x00\x00\x00\x00\x00\x00\x00\x80?\x00\x00\x00\x00\x00\x00\x00\x00\x00\x00\x80?\x00\x00\x80?\x00\x00\x80?\x00\x00\x80?\x00\x00\x80?\x00\x00\x80?\x00\x00\x80?\x00\x00\x80?\x00\x00\x80?\x00\x00\x00\x00\x00\x00\x00\x00\x00\x00\x80?\x00\x00\x80?\x00\x00\x00\x00\x00\x00\x80?\x00\x00\x00\x00\x00\x00\x80?\x00\x00\x80?\x00\x00\x80?\x00\x00\x80?\x00\x00\x00\x00\x00\x00\x80?\x00\x00\x00\x00\x00\x00\x00\x00\x00\x00\x00\x00\x00\x00\x00\x00\x00\x00\x00\x00\x00\x00\x80?\x00\x00\x80?\x00\x00\x00\x00\x00\x00\x00\x00\x00\x00\x80?\x00\x00\x00\x00\x00\x00\x80?\x00\x00\x80?\x00\x00\x80?\x00\x00\x80?\x00\x00\x80?\x00\x00\x80?\x00\x00\x80?\x00\x00\x00\x00\x00\x00\x80?\x00\x00\x80?\x00\x00\x80?\x00\x00\x80?\x00\x00\x00\x00'
S'\x00\x00\x00\x00\x00\x00\x00\x00\x00\x00\x00\x00\x00\x00\x00\x00\x00\x00\x00\x00\x00\x00\x00\x00\x00\x00\x00\x00\x00\x00\x00\x00\x00\x00\x00\x00\x00\x00\x00\x00\x00\x00\x00\x00\x00\x00\x00\x00\x00\x00\x00\x00\x00\x00\x00\x00\x00\x00\x00\x00\x00\x00\x00\x00\x00\x00\x00\x00\x00\x00\x00\x00\x00\x00\x00\x00\x00\x00\x00\x00\x00\x00\x00\x00\x00\x00\x00\x00\x00\x00\x00\x00\x00\x00\x00\x00'
Ntbsg27
g1157
(g1158
(I0
tS'b'
tRp1268
(I1
(I96
I1
tg1160
I00
(lp1269
g242
ag892
ag760
ag91
ag551
ag848
ag419
ag276
ag1002
ag128
ag375
ag253
ag716
ag628
ag958
ag496
ag1046
ag1079
ag152
ag529
ag386
ag1101
ag287
ag197
ag331
ag298
ag397
ag1068
ag738
ag1013
ag804
ag507
ag474
ag1123
ag694
ag265
ag573
ag408
ag320
ag485
ag595
ag1134
ag364
ag914
ag76
ag705
ag991
ag903
ag309
ag826
ag1057
ag837
ag1090
ag463
ag174
ag353
ag185
ag518
ag683
ag1024
ag617
ag639
ag104
ag969
ag230
ag749
ag672
ag859
ag208
ag650
ag925
ag870
ag782
ag116
ag441
ag936
ag815
ag1035
ag606
ag452
ag881
ag1112
ag140
ag219
ag727
ag562
ag980
ag163
ag342
ag430
ag793
ag947
ag540
ag661
ag584
ag771
atbsg23
g1157
(g1158
(I0
tS'b'
tRp1270
(I1
(I96
I1
tg1160
I00
(lp1271
S'1'
aS'1'
aS'3'
aS'2'
aS'1'
aS'3'
aS'2'
aS'1'
aS'2'
aS'3'
aS'3'
aS'1'
aS'3'
aS'2'
aS'1'
aS'1'
aS'1'
aS'1'
aS'1'
aS'3'
aS'1'
aS'2'
aS'3'
aS'1'
aS'3'
aS'3'
aS'2'
aS'3'
aS'1'
aS'3'
aS'3'
aS'3'
aS'1'
aS'2'
aS'1'
aS'3'
aS'3'
aS'1'
aS'1'
aS'2'
aS'2'
aS'3'
aS'2'
aS'2'
aS'2'
aS'2'
aS'1'
aS'1'
aS'1'
aS'1'
aS'2'
aS'1'
aS'2'
aS'1'
aS'3'
aS'2'
aS'2'
aS'1'
aS'1'
aS'1'
aS'1'
aS'1'
aS'2'
aS'1'
aS'1'
aS'1'
aS'3'
aS'1'
aS'2'
aS'3'
aS'2'
aS'3'
aS'1'
aS'1'
aS'2'
aS'1'
aS'2'
aS'2'
aS'1'
aS'2'
aS'3'
aS'1'
aS'2'
aS'1'
aS'2'
aS'1'
aS'3'
aS'1'
aS'3'
aS'3'
aS'2'
aS'3'
aS'1'
aS'3'
aS'2'
aS'2'
atbsg18
g1162
(g1163
g1158
g1164
S'b'
tRp1272
(I1
(I96
I1
tg1166
I00
S'?\xa0ZB\xb8\x12\x85C\xe9\x80_C\xc9\x11\rAb\xa5\x1bC\xbb6{C\xe2/\xe2Bi\x0b\x85B\xce\x8b\x96Cn\xe9\x97A\xa6\xf2\xc6BI\xc6gB\x02bQCd\x194C[|\x8fC\x9b\xa5\tC=^\x9eCh\xb4\xa3C\x0f)\xd3AD\xc0\x14C{\x90\xceB\xdb\x18\xa7C\xde\x0f\x8dB/v!B0b\xa9B\xdee\x94B\x89\xd6\xd4BX\xdc\xa1C<\xd4XCC\xf2\x98C\x8b\x95mC\xdb\xe4\x0cC\xdb\x1e\x02C\xd1\xd5\xaaCR?JC\xfa"{BR\\"C\xbb\x97\xdbB\x90\xde\xa2B\x99\xbf\x05C_\xdb)C0\xa6\xacC\x98s\xbfB*<\x88C\x10\xf4\x9f@\xd4\x88MC\xbf\xee\x94C\x1b\x9f\x86C\tt\x9bBG\xa6tCh\t\xa0CC\xdbwC:>\xa5C\xbe\xd3\xfdB\xd4\xc1\x03Bj\xef\xb7BLY\x12Bi\x90\x11C\x8a\xb0FC8\xbc\x9aC0\xc80C|\xdb7C\xc7.AA\x07E\x91C\xe6FMB\xc9\x0b\\C<\rCC\xdd\xe6~C\x8a\xcf.B\x1c\xed;C\xd8?\x8aC\x04%\x81C\xd0\x84fC\x18\xd5|A\x9f\xd1\xf0B\xaa\x04\x8cC\xb83qC\xbd\x88\x9cC4\x93-CcZ\xf7B\x865\x83C\xaf\xdd\xa8CgA\xb5AFq=B\x03\rUCS\xec\x1eC\xd0\x1b\x93C\x9f`\xedA\x1c\xdc\xb0B\xac\xa4\xe9B\xee\xbeiCf\xb2\x8dCDk\x18C\x7fl?C&\x14&CM;cC'
S'\x00\x00\x00\x00\x00\x00\x00\x00\x00\x00\x00\x00\x00\x00\x00\x00\x00\x00\x00\x00\x00\x00\x00\x00\x00\x00\x00\x00\x00\x00\x00\x00\x00\x00\x00\x00\x00\x00\x00\x00\x00\x00\x00\x00\x00\x00\x00\x00\x00\x00\x00\x00\x00\x00\x00\x00\x00\x00\x00\x00\x00\x00\x00\x00\x00\x00\x00\x00\x00\x00\x00\x00\x00\x00\x00\x00\x00\x00\x00\x00\x00\x00\x00\x00\x00\x00\x00\x00\x00\x00\x00\x00\x00\x00\x00\x00'
Ntbsg25
g1162
(g1163
g1158
g1164
S'b'
tRp1273
(I1
(I96
I1
tg1166
I00
S'e(\x1a>.3w=\xf6\xbe\xf6=\xd36\xb9=A*\x90=\xba\xa8\x05>(\xba\x0f?\x02\x04b>\xa0\x84.?r\xf58>\\+\x1a>7\xbf\xf6=\xaa\xca\xf6=\x04\xaa\x8a>\xaa\xaf.>7+\x1a>\x0b*\x90=\xdb\x02\xa6<\x8e@w=\xab\xb4\xcd=^\xca\xf6=\x1c\xf68>ayM>;8\xb9=\xa3o\xf6=Y4\xb9=;-\x1a>\xbf.\xb9=Bo$>"\xe5\x0f>\xdf+\xb9=\xf8+\xb9=|h\xf6>HzM>/)\x1a>\x8d\xaf.>\x05\xf78>\xbe\xa7\x05>G;\xe2=\xe0\xca\x8f>\x7f\xf38>\xbd/\x1a>\x10\xd9W>\x06Cl>M\xbd\xf6=\xb5\xb0.>\x95\xc0\xf6=\xa7<\xe2=\xc8\xea\x94>\x98\xec\x0f>m\xae.>\xd0\x1a%=\xa5wM>\xeb\xe4\x0f>\x97yM>\xa1\xea\x0f>\\xM>\xe5\xc4\xf6=\x08\xbdW>\xb0)\r??5\xb9=y)\x1a>\x08\xc0\xf6=\x03\xd2\x14?A\xf38>\x1e/\xb9=G2w=\x00\xc0\xf6=\xca\xec\x94>+3w=\xc6U\xa4=\xb9\x88\x85>m\xa2%=.\xa4\x05>\xa0<w=\xff\x1a%=,\xbd\xcd=u;\xe2=\xcb\xc2\xf6=\xe1,\xb9=\xc6\x88.>\xf16\xe2=J@l>\xf3\xf58>\x8bwM>\xc6\xaf.>\x1f\xa4\x05>4*\x90=\x8b\xea\x0f>/\xb3\xcd=M\xe6\x0f>\x83\xeb\x0f>I\xb7\xcd=\xd2\xa9\x05>\x8b\xec\xe1=\xc8/N='
S'\x00\x00\x00\x00\x00\x00\x00\x00\x00\x00\x00\x00\x00\x00\x00\x00\x00\x00\x00\x00\x00\x00\x00\x00\x00\x00\x00\x00\x00\x00\x00\x00\x00\x00\x00\x00\x00\x00\x00\x00\x00\x00\x00\x00\x00\x00\x00\x00\x00\x00\x00\x00\x00\x00\x00\x00\x00\x00\x00\x00\x00\x00\x00\x00\x00\x00\x00\x00\x00\x00\x00\x00\x00\x00\x00\x00\x00\x00\x00\x00\x00\x00\x00\x00\x00\x00\x00\x00\x00\x00\x00\x00\x00\x00\x00\x00'
NtbstRp1274
(dp1275
S'isNumeric'
p1276
(dp1277
g23
I00
sg20
I00
sg17
I01
sg1167
I01
sg22
I01
sg24
I01
sg14
I01
sg18
I01
sg16
I00
sg19
I01
sg26
I00
sg27
I00
sg15
I00
sg21
I01
sg1265
I01
sg25
I01
ssg1151
g1145
sS'dataTypes'
p1278
(lp1279
g1167
ag1265
ag14
ag15
ag16
ag17
ag18
ag19
ag20
ag21
ag22
ag23
ag24
ag25
ag26
ag27
asS'dataShape'
p1280
(lp1281
I96
aI1
asbsS'method'
p1282
S'random'
p1283
sS'sequenceIndices'
p1284
g1157
(g1158
(I0
tS'b'
tRp1285
(I1
(I96
I1
tg80
I01
S',\x00\x00\x00\x03\x00\x00\x00>\x00\x00\x00I\x00\x00\x00\t\x00\x00\x00R\x00\x00\x00\x12\x00\x00\x00W\x00\x00\x006\x00\x00\x008\x00\x00\x00\x17\x00\x00\x00D\x00\x00\x00S\x00\x00\x00@\x00\x00\x00\x00\x00\x00\x00\x0b\x00\x00\x00#\x00\x00\x00\x07\x00\x00\x00\x16\x00\x00\x00\x19\x00\x00\x000\x00\x00\x00&\x00\x00\x00\x18\x00\x00\x00X\x00\x00\x007\x00\x00\x00*\x00\x00\x00\n\x00\x00\x00\x14\x00\x00\x00\x1a\x00\x00\x00%\x00\x00\x00\x06\x00\x00\x00Y\x00\x00\x00J\x00\x00\x00O\x00\x00\x005\x00\x00\x00 \x00\x00\x00\'\x00\x00\x00\x0f\x00\x00\x00\x1f\x00\x00\x009\x00\x00\x00\x13\x00\x00\x00\\\x00\x00\x00\x04\x00\x00\x00U\x00\x00\x00$\x00\x00\x00^\x00\x00\x00(\x00\x00\x00N\x00\x00\x00<\x00\x00\x00\r\x00\x00\x00=\x00\x00\x00E\x00\x00\x00]\x00\x00\x00B\x00\x00\x00:\x00\x00\x00"\x00\x00\x00-\x00\x00\x00\x0c\x00\x00\x00T\x00\x00\x00\x1c\x00\x00\x00A\x00\x00\x00\x02\x00\x00\x00_\x00\x00\x00H\x00\x00\x00Z\x00\x00\x00\x1e\x00\x00\x00L\x00\x00\x001\x00\x00\x003\x00\x00\x00\x05\x00\x00\x00C\x00\x00\x00G\x00\x00\x00P\x00\x00\x00\x01\x00\x00\x00/\x00\x00\x00+\x00\x00\x00F\x00\x00\x00K\x00\x00\x00[\x00\x00\x00\x0e\x00\x00\x00?\x00\x00\x00V\x00\x00\x00.\x00\x00\x00\x08\x00\x00\x00\x1d\x00\x00\x00;\x00\x00\x00M\x00\x00\x00\x10\x00\x00\x002\x00\x00\x00\x1b\x00\x00\x00\x11\x00\x00\x004\x00\x00\x00\x15\x00\x00\x00Q\x00\x00\x00!\x00\x00\x00)\x00\x00\x00'
tbsS'finished'
p1286
I01
sS'nReps'
p1287
I1
sS'nRemaining'
p1288
I-1
sS'trialList'
p1289
(lp1290
g1
(cpsychopy.data
TrialType
p1291
g1155
(dp1292
g62
g89
sg63
g248
sg64
g240
sg65
g243
sg66
g247
stRp1293
ag1
(g1291
g1155
(dp1294
g62
g74
sg63
g898
sg64
g138
sg65
g893
sg66
g897
stRp1295
ag1
(g1291
g1155
(dp1296
g62
g89
sg63
g766
sg64
g240
sg65
g761
sg66
g765
stRp1297
ag1
(g1291
g1155
(dp1298
g62
g89
sg63
g97
sg64
g88
sg65
g92
sg66
g96
stRp1299
ag1
(g1291
g1155
(dp1300
g62
g74
sg63
g557
sg64
g73
sg65
g552
sg66
g556
stRp1301
ag1
(g1291
g1155
(dp1302
g62
g89
sg63
g854
sg64
g240
sg65
g849
sg66
g853
stRp1303
ag1
(g1291
g1155
(dp1304
g62
g89
sg63
g425
sg64
g240
sg65
g420
sg66
g424
stRp1305
ag1
(g1291
g1155
(dp1306
g62
g89
sg63
g282
sg64
g126
sg65
g277
sg66
g281
stRp1307
ag1
(g1291
g1155
(dp1308
g62
g89
sg63
g1008
sg64
g240
sg65
g1003
sg66
g1007
stRp1309
ag1
(g1291
g1155
(dp1310
g62
g89
sg63
g134
sg64
g126
sg65
g129
sg66
g133
stRp1311
ag1
(g1291
g1155
(dp1312
g62
g74
sg63
g381
sg64
g114
sg65
g376
sg66
g380
stRp1313
ag1
(g1291
g1155
(dp1314
g62
g89
sg63
g259
sg64
g126
sg65
g254
sg66
g258
stRp1315
ag1
(g1291
g1155
(dp1316
g62
g89
sg63
g722
sg64
g263
sg65
g717
sg66
g721
stRp1317
ag1
(g1291
g1155
(dp1318
g62
g74
sg63
g634
sg64
g138
sg65
g629
sg66
g633
stRp1319
ag1
(g1291
g1155
(dp1320
g62
g89
sg63
g964
sg64
g263
sg65
g959
sg66
g963
stRp1321
ag1
(g1291
g1155
(dp1322
g62
g89
sg63
g502
sg64
g240
sg65
g497
sg66
g501
stRp1323
ag1
(g1291
g1155
(dp1324
g62
g74
sg63
g1052
sg64
g138
sg65
g1047
sg66
g1051
stRp1325
ag1
(g1291
g1155
(dp1326
g62
g89
sg63
g1085
sg64
g263
sg65
g1080
sg66
g1084
stRp1327
ag1
(g1291
g1155
(dp1328
g62
g89
sg63
g158
sg64
g150
sg65
g153
sg66
g157
stRp1329
ag1
(g1291
g1155
(dp1330
g62
g89
sg63
g535
sg64
g240
sg65
g530
sg66
g534
stRp1331
ag1
(g1291
g1155
(dp1332
g62
g74
sg63
g392
sg64
g138
sg65
g387
sg66
g391
stRp1333
ag1
(g1291
g1155
(dp1334
g62
g74
sg63
g1107
sg64
g195
sg65
g1102
sg66
g1106
stRp1335
ag1
(g1291
g1155
(dp1336
g62
g89
sg63
g293
sg64
g150
sg65
g288
sg66
g292
stRp1337
ag1
(g1291
g1155
(dp1338
g62
g74
sg63
g203
sg64
g195
sg65
g198
sg66
g202
stRp1339
ag1
(g1291
g1155
(dp1340
g62
g74
sg63
g337
sg64
g114
sg65
g332
sg66
g336
stRp1341
ag1
(g1291
g1155
(dp1342
g62
g89
sg63
g304
sg64
g102
sg65
g299
sg66
g303
stRp1343
ag1
(g1291
g1155
(dp1344
g62
g74
sg63
g403
sg64
g73
sg65
g398
sg66
g402
stRp1345
ag1
(g1291
g1155
(dp1346
g62
g74
sg63
g1074
sg64
g138
sg65
g1069
sg66
g1073
stRp1347
ag1
(g1291
g1155
(dp1348
g62
g89
sg63
g744
sg64
g263
sg65
g739
sg66
g743
stRp1349
ag1
(g1291
g1155
(dp1350
g62
g89
sg63
g1019
sg64
g240
sg65
g1014
sg66
g1018
stRp1351
ag1
(g1291
g1155
(dp1352
g62
g89
sg63
g810
sg64
g150
sg65
g805
sg66
g809
stRp1353
ag1
(g1291
g1155
(dp1354
g62
g89
sg63
g513
sg64
g150
sg65
g508
sg66
g512
stRp1355
ag1
(g1291
g1155
(dp1356
g62
g74
sg63
g480
sg64
g138
sg65
g475
sg66
g479
stRp1357
ag1
(g1291
g1155
(dp1358
g62
g74
sg63
g1129
sg64
g73
sg65
g1124
sg66
g1128
stRp1359
ag1
(g1291
g1155
(dp1360
g62
g74
sg63
g700
sg64
g73
sg65
g695
sg66
g699
stRp1361
ag1
(g1291
g1155
(dp1362
g62
g89
sg63
g271
sg64
g263
sg65
g266
sg66
g270
stRp1363
ag1
(g1291
g1155
(dp1364
g62
g89
sg63
g579
sg64
g102
sg65
g574
sg66
g578
stRp1365
ag1
(g1291
g1155
(dp1366
g62
g89
sg63
g414
sg64
g88
sg65
g409
sg66
g413
stRp1367
ag1
(g1291
g1155
(dp1368
g62
g74
sg63
g326
sg64
g73
sg65
g321
sg66
g325
stRp1369
ag1
(g1291
g1155
(dp1370
g62
g74
sg63
g491
sg64
g138
sg65
g486
sg66
g490
stRp1371
ag1
(g1291
g1155
(dp1372
g62
g74
sg63
g601
sg64
g138
sg65
g596
sg66
g600
stRp1373
ag1
(g1291
g1155
(dp1374
g62
g89
sg63
g1140
sg64
g263
sg65
g1135
sg66
g1139
stRp1375
ag1
(g1291
g1155
(dp1376
g62
g74
sg63
g370
sg64
g73
sg65
g365
sg66
g369
stRp1377
ag1
(g1291
g1155
(dp1378
g62
g74
sg63
g920
sg64
g195
sg65
g915
sg66
g919
stRp1379
ag1
(g1291
g1155
(dp1380
g62
g74
sg63
g84
sg64
g73
sg65
g78
sg66
g83
stRp1381
ag1
(g1291
g1155
(dp1382
g62
g74
sg63
g711
sg64
g114
sg65
g706
sg66
g710
stRp1383
ag1
(g1291
g1155
(dp1384
g62
g89
sg63
g997
sg64
g240
sg65
g992
sg66
g996
stRp1385
ag1
(g1291
g1155
(dp1386
g62
g89
sg63
g909
sg64
g240
sg65
g904
sg66
g908
stRp1387
ag1
(g1291
g1155
(dp1388
g62
g74
sg63
g315
sg64
g138
sg65
g310
sg66
g314
stRp1389
ag1
(g1291
g1155
(dp1390
g62
g74
sg63
g832
sg64
g195
sg65
g827
sg66
g831
stRp1391
ag1
(g1291
g1155
(dp1392
g62
g74
sg63
g1063
sg64
g138
sg65
g1058
sg66
g1062
stRp1393
ag1
(g1291
g1155
(dp1394
g62
g74
sg63
g843
sg64
g73
sg65
g838
sg66
g842
stRp1395
ag1
(g1291
g1155
(dp1396
g62
g74
sg63
g1096
sg64
g195
sg65
g1091
sg66
g1095
stRp1397
ag1
(g1291
g1155
(dp1398
g62
g89
sg63
g469
sg64
g263
sg65
g464
sg66
g468
stRp1399
ag1
(g1291
g1155
(dp1400
g62
g89
sg63
g180
sg64
g126
sg65
g175
sg66
g179
stRp1401
ag1
(g1291
g1155
(dp1402
g62
g74
sg63
g359
sg64
g195
sg65
g354
sg66
g358
stRp1403
ag1
(g1291
g1155
(dp1404
g62
g74
sg63
g191
sg64
g73
sg65
g186
sg66
g190
stRp1405
ag1
(g1291
g1155
(dp1406
g62
g74
sg63
g524
sg64
g73
sg65
g519
sg66
g523
stRp1407
ag1
(g1291
g1155
(dp1408
g62
g89
sg63
g689
sg64
g263
sg65
g684
sg66
g688
stRp1409
ag1
(g1291
g1155
(dp1410
g62
g74
sg63
g1030
sg64
g73
sg65
g1025
sg66
g1029
stRp1411
ag1
(g1291
g1155
(dp1412
g62
g74
sg63
g623
sg64
g73
sg65
g618
sg66
g622
stRp1413
ag1
(g1291
g1155
(dp1414
g62
g74
sg63
g645
sg64
g73
sg65
g640
sg66
g644
stRp1415
ag1
(g1291
g1155
(dp1416
g62
g89
sg63
g110
sg64
g102
sg65
g105
sg66
g109
stRp1417
ag1
(g1291
g1155
(dp1418
g62
g74
sg63
g975
sg64
g73
sg65
g970
sg66
g974
stRp1419
ag1
(g1291
g1155
(dp1420
g62
g89
sg63
g236
sg64
g126
sg65
g231
sg66
g235
stRp1421
ag1
(g1291
g1155
(dp1422
g62
g74
sg63
g755
sg64
g195
sg65
g750
sg66
g754
stRp1423
ag1
(g1291
g1155
(dp1424
g62
g89
sg63
g678
sg64
g150
sg65
g673
sg66
g677
stRp1425
ag1
(g1291
g1155
(dp1426
g62
g74
sg63
g865
sg64
g73
sg65
g860
sg66
g864
stRp1427
ag1
(g1291
g1155
(dp1428
g62
g74
sg63
g214
sg64
g138
sg65
g209
sg66
g213
stRp1429
ag1
(g1291
g1155
(dp1430
g62
g89
sg63
g656
sg64
g240
sg65
g651
sg66
g655
stRp1431
ag1
(g1291
g1155
(dp1432
g62
g74
sg63
g931
sg64
g73
sg65
g926
sg66
g930
stRp1433
ag1
(g1291
g1155
(dp1434
g62
g89
sg63
g876
sg64
g150
sg65
g871
sg66
g875
stRp1435
ag1
(g1291
g1155
(dp1436
g62
g89
sg63
g788
sg64
g102
sg65
g783
sg66
g787
stRp1437
ag1
(g1291
g1155
(dp1438
g62
g74
sg63
g122
sg64
g114
sg65
g117
sg66
g121
stRp1439
ag1
(g1291
g1155
(dp1440
g62
g74
sg63
g447
sg64
g73
sg65
g442
sg66
g446
stRp1441
ag1
(g1291
g1155
(dp1442
g62
g74
sg63
g942
sg64
g195
sg65
g937
sg66
g941
stRp1443
ag1
(g1291
g1155
(dp1444
g62
g89
sg63
g821
sg64
g126
sg65
g816
sg66
g820
stRp1445
ag1
(g1291
g1155
(dp1446
g62
g89
sg63
g1041
sg64
g150
sg65
g1036
sg66
g1040
stRp1447
ag1
(g1291
g1155
(dp1448
g62
g89
sg63
g612
sg64
g240
sg65
g607
sg66
g611
stRp1449
ag1
(g1291
g1155
(dp1450
g62
g74
sg63
g458
sg64
g73
sg65
g453
sg66
g457
stRp1451
ag1
(g1291
g1155
(dp1452
g62
g74
sg63
g887
sg64
g195
sg65
g882
sg66
g886
stRp1453
ag1
(g1291
g1155
(dp1454
g62
g89
sg63
g1118
sg64
g240
sg65
g1113
sg66
g1117
stRp1455
ag1
(g1291
g1155
(dp1456
g62
g74
sg63
g146
sg64
g138
sg65
g141
sg66
g145
stRp1457
ag1
(g1291
g1155
(dp1458
g62
g89
sg63
g225
sg64
g150
sg65
g220
sg66
g224
stRp1459
ag1
(g1291
g1155
(dp1460
g62
g74
sg63
g733
sg64
g138
sg65
g728
sg66
g732
stRp1461
ag1
(g1291
g1155
(dp1462
g62
g74
sg63
g568
sg64
g73
sg65
g563
sg66
g567
stRp1463
ag1
(g1291
g1155
(dp1464
g62
g89
sg63
g986
sg64
g126
sg65
g981
sg66
g985
stRp1465
ag1
(g1291
g1155
(dp1466
g62
g89
sg63
g169
sg64
g126
sg65
g164
sg66
g168
stRp1467
ag1
(g1291
g1155
(dp1468
g62
g89
sg63
g348
sg64
g102
sg65
g343
sg66
g347
stRp1469
ag1
(g1291
g1155
(dp1470
g62
g89
sg63
g436
sg64
g102
sg65
g431
sg66
g435
stRp1471
ag1
(g1291
g1155
(dp1472
g62
g74
sg63
g799
sg64
g138
sg65
g794
sg66
g798
stRp1473
ag1
(g1291
g1155
(dp1474
g62
g89
sg63
g953
sg64
g126
sg65
g948
sg66
g952
stRp1475
ag1
(g1291
g1155
(dp1476
g62
g89
sg63
g546
sg64
g102
sg65
g541
sg66
g545
stRp1477
ag1
(g1291
g1155
(dp1478
g62
g89
sg63
g667
sg64
g240
sg65
g662
sg66
g666
stRp1479
ag1
(g1291
g1155
(dp1480
g62
g74
sg63
g590
sg64
g195
sg65
g585
sg66
g589
stRp1481
ag1
(g1291
g1155
(dp1482
g62
g74
sg63
g777
sg64
g138
sg65
g772
sg66
g776
stRp1483
asS'seed'
p1484
NsS'thisIndex'
p1485
g1137
sS'thisN'
p1486
I96
sS'thisTrialN'
p1487
I0
sS'nTotal'
p1488
I96
sS'_warnUseOfNext'
p1489
I01
sbasS'savePickle'
p1490
I00
sb.