ccopy_reg
_reconstructor
p1
(cpsychopy.data
ExperimentHandler
p2
c__builtin__
object
p3
NtRp4
(dp5
S'originPath'
p6
NsS'dataFileName'
p7
VC:\u005cDocuments and Settings\u005cExperimental user\u005cMy Documents\u005cconsciousness\u005cuncon_feat\u005cexperiment_scripts\u005cdata/leyre_Experiment_EEG_version_2019_may_28_0950
p8
sS'runtimeInfo'
p9
NsS'name'
p10
VExperiment_EEG_version
p11
sS'dataNames'
p12
(lp13
S'image_onset_time'
p14
aS'response_window'
p15
aS'correctAns'
p16
aS'probe_onset'
p17
aS'discrim_resptime'
p18
aS'response.corr'
p19
aS'response.keys'
p20
aS'response.rt'
p21
aS'visible_resptime'
p22
aS'visible.keys'
p23
aS'visible.corr'
p24
aS'visible.rt'
p25
aS'probeFrames'
p26
aS'jitter2'
p27
asS'autoLog'
p28
I01
sS'extraInfo'
p29
(dp30
Vn_square
p31
V32
p32
sVexperiment_color
p33
Vbw
p34
sS'frameRate'
p35
cnumpy.core.multiarray
scalar
p36
(cnumpy
dtype
p37
(S'f8'
I0
I1
tRp38
(I3
S'<'
NNNI-1
I-1
I0
tbS'\xad\xbd\x017\x1b\xf2X@'
tRp39
sS'date'
p40
V2019_may_28_0950
p41
sVsession
p42
V012
p43
sVimage_size
p44
V256
p45
sVpremask_dur
p46
V20
p47
sVprobeFrames
p48
V5
sVparticipant
p49
Vleyre
p50
sS'expName'
p51
g11
sVpostmask_dur
p52
V20
p53
ssS'loopsUnfinished'
p54
(lp55
sS'saveWideText'
p56
I00
sS'thisEntry'
p57
(dp58
sS'version'
p59
S''
sS'_paramNamesSoFar'
p60
(lp61
S'category'
p62
aS'probe_path'
p63
aS'subcategory'
p64
aS'fixation_duration'
p65
aS'label'
p66
asS'entries'
p67
(lp68
(dp69
g31
g32
sg17
F3.7379928461741656
sg24
I0
sg35
g39
sg14
F3.7157270857132971
sg16
g36
(g37
(S'i4'
I0
I1
tRp70
(I3
S'<'
NNNI-1
I-1
I0
tbS'\x01\x00\x00\x00'
tRp71
sg42
g43
sg46
g47
sg15
S'V_nV'
p72
sg22
F5.6809247119817883
sg64
VAnimals
p73
sg62
VLiving_Things
p74
sg49
g50
sS'trials.thisN'
p75
I0
sg19
I1
sg27
g36
(g38
S'\x00\x00\x00\x00\x00\x00\x1a@'
tRp76
sg52
g53
sg23
S'2'
sg18
F4.998414219589904
sg33
g34
sg51
g11
sg20
S'1'
sg65
g36
(g37
(S'i8'
I0
I1
tRp77
(I3
S'<'
NNNI-1
I-1
I0
tbS'\x00\x00\x00\x00\x00\x00\x00\x00'
tRp78
sg44
g45
sg40
g41
sg25
F0.090428501833230257
sS'trials.thisIndex'
p79
g36
(g37
(S'i4'
I0
I1
tRp80
(I3
S'<'
NNNI-1
I-1
I0
tbS'\x01\x00\x00\x00'
tRp81
sg26
V5
sS'trials.thisRepN'
p82
I0
sg66
Varmadillo
p83
sg63
V../experiment_stimuli/bw_bc_bl/Living_Things/Animals/armadillo_8.jpg
p84
sg21
F0.65164951700717211
sS'trials.thisTrialN'
p85
I0
sa(dp86
g31
g32
sg17
F7.5088701909407973
sg24
I0
sg35
g39
sg14
F7.5039571032393724
sg16
g36
(g70
S'\x01\x00\x00\x00'
tRp87
sg42
g43
sg46
g47
sg15
g72
sg22
F9.178269071970135
sg64
VBirds
p88
sg62
g74
sg49
g50
sS'trials.thisN'
p89
I1
sg19
I1
sg27
g36
(g38
S'\x00\x00\x00\x00\x00\x00\x18@'
tRp90
sg52
g53
sg23
S'2'
sg18
F8.7666085129603744
sg33
g34
sg51
g11
sg20
S'1'
sg65
g36
(g77
S'\x00\x00\x00\x00\x00\x00\x00\x00'
tRp91
sg44
g45
sg40
g41
sg25
F0.14052623952738941
sS'trials.thisIndex'
p92
g36
(g80
S'=\x00\x00\x00'
tRp93
sg26
V5
sS'trials.thisRepN'
p94
I0
sg66
Vpenguin
p95
sg63
V../experiment_stimuli/bw_bc_bl/Living_Things/Birds/penguin_3.jpg
p96
sg21
F0.39109814679250121
sS'trials.thisTrialN'
p97
I1
sa(dp98
g31
g32
sg17
F11.057084066793323
sg24
I1
sg35
g39
sg14
F11.051670926157385
sg16
g36
(g70
S'\x01\x00\x00\x00'
tRp99
sg42
g43
sg46
g47
sg15
S'nV_V'
p100
sg22
F12.746009108377621
sg64
VVehicles
p101
sg62
VNonliving_Things
p102
sg49
g50
sS'trials.thisN'
p103
I2
sg19
I0
sg27
g36
(g38
S'\x00\x00\x00\x00\x00\x00\x1e@'
tRp104
sg52
g53
sg23
S'1'
sg18
F12.304294483037665
sg33
g34
sg51
g11
sg20
S'2'
sg65
g36
(g77
S'\x00\x00\x00\x00\x00\x00\x00\x00'
tRp105
sg44
g45
sg40
g41
sg25
F0.13052284903824329
sS'trials.thisIndex'
p106
g36
(g80
S'W\x00\x00\x00'
tRp107
sg26
V5
sS'trials.thisRepN'
p108
I0
sg66
Vtrain
p109
sg63
V../experiment_stimuli/bw_bc_bl/Nonliving_Things/Vehicles/train_8.jpg
p110
sg21
F0.42116048722527921
sS'trials.thisTrialN'
p111
I2
sa(dp112
g31
g32
sg17
F14.61431052046828
sg24
I0
sg35
g39
sg14
F14.60941634979099
sg16
g36
(g70
S'\x01\x00\x00\x00'
tRp113
sg42
g43
sg46
g47
sg15
g100
sg22
F16.36386513710022
sg64
VFurniture
p114
sg62
g102
sg49
g50
sS'trials.thisN'
p115
I3
sg19
I1
sg27
g36
(g38
S'\x00\x00\x00\x00\x00\x00\x18@'
tRp116
sg52
g53
sg23
S'2'
sg18
F15.872049466473982
sg33
g34
sg51
g11
sg20
S'1'
sg65
g36
(g77
S'\x00\x00\x00\x00\x00\x00\x00\x00'
tRp117
sg44
g45
sg40
g41
sg25
F0.17059065820649266
sS'trials.thisIndex'
p118
g36
(g80
S'\x05\x00\x00\x00'
tRp119
sg26
V5
sS'trials.thisRepN'
p120
I0
sg66
Vbed
p121
sg63
V../experiment_stimuli/bw_bc_bl/Nonliving_Things/Furniture/bed_21.jpg
p122
sg21
F0.47126293112523854
sS'trials.thisTrialN'
p123
I3
sa(dp124
g31
g32
sg17
F18.272194096352905
sg24
I0
sg35
g39
sg14
F18.267360526369885
sg16
g36
(g70
S'\x01\x00\x00\x00'
tRp125
sg42
g43
sg46
g47
sg15
g100
sg22
F20.041902815457433
sg64
g114
sg62
g102
sg49
g50
sS'trials.thisN'
p126
I4
sg19
I1
sg27
g36
(g38
S'\x00\x00\x00\x00\x00\x00\x18@'
tRp127
sg52
g53
sg23
S'3'
sg18
F19.519982102327049
sg33
g34
sg51
g11
sg20
S'1'
sg65
g36
(g77
S'\x00\x00\x00\x00\x00\x00\x00\x00'
tRp128
sg44
g45
sg40
g41
sg25
F0.090420686407014728
sS'trials.thisIndex'
p129
g36
(g80
S'\x1d\x00\x00\x00'
tRp130
sg26
V5
sS'trials.thisRepN'
p131
I0
sg66
Vfilling-cabinet
p132
sg63
V../experiment_stimuli/bw_bc_bl/Nonliving_Things/Furniture/filling-cabinet_13.jpg
p133
sg21
F0.50136912032030523
sS'trials.thisTrialN'
p134
I4
sa(dp135
g31
g32
sg17
F21.870117099024355
sg24
I1
sg35
g39
sg14
F21.865176812279969
sg16
g36
(g70
S'\x02\x00\x00\x00'
tRp136
sg42
g43
sg46
g47
sg15
g100
sg22
F23.509414692874998
sg64
g88
sg62
g74
sg49
g50
sS'trials.thisN'
p137
I5
sg19
I0
sg27
g36
(g38
S'\x00\x00\x00\x00\x00\x00\x18@'
tRp138
sg52
g53
sg23
S'1'
sg18
F23.097761953249574
sg33
g34
sg51
g11
sg20
S'1'
sg65
g36
(g77
S'\x00\x00\x00\x00\x00\x00\x00\x00'
tRp139
sg44
g45
sg40
g41
sg25
F0.26080733258277178
sS'trials.thisIndex'
p140
g36
(g80
S';\x00\x00\x00'
tRp141
sg26
V5
sS'trials.thisRepN'
p142
I0
sg66
Vpartridge
p143
sg63
V../experiment_stimuli/bw_bc_bl/Living_Things/Birds/partridge_25.jpg
p144
sg21
F0.39109283499419689
sS'trials.thisTrialN'
p145
I5
sa(dp146
g31
g32
sg17
F25.507818065350875
sg24
I0
sg35
g39
sg14
F25.503087268210948
sg16
g36
(g70
S'\x02\x00\x00\x00'
tRp147
sg42
g43
sg46
g47
sg15
g100
sg22
F27.367774837650359
sg64
VMarine_creatures
p148
sg62
g74
sg49
g50
sS'trials.thisN'
p149
I6
sg19
I1
sg27
g36
(g38
S'\x00\x00\x00\x00\x00\x00\x1a@'
tRp150
sg52
g53
sg23
S'2'
sg18
F26.755709836492315
sg33
g34
sg51
g11
sg20
S'2'
sg65
g36
(g77
S'\x00\x00\x00\x00\x00\x00\x00\x00'
tRp151
sg44
g45
sg40
g41
sg25
F0.20065755466930568
sS'trials.thisIndex'
p152
g36
(g80
S'P\x00\x00\x00'
tRp153
sg26
V5
sS'trials.thisRepN'
p154
I0
sg66
Vsperm-whale
p155
sg63
V../experiment_stimuli/bw_bc_bl/Living_Things/Marine_creatures/sperm-whale_18.jpg
p156
sg21
F0.59150966419838369
sS'trials.thisTrialN'
p157
I6
sa(dp158
g31
g32
sg17
F29.306311619933695
sg24
I0
sg35
g39
sg14
F29.301344405394047
sg16
g36
(g70
S'\x01\x00\x00\x00'
tRp159
sg42
g43
sg46
g47
sg15
g100
sg22
F30.925515114562586
sg64
VTools
p160
sg62
g102
sg49
g50
sS'trials.thisN'
p161
I7
sg19
I1
sg27
g36
(g38
S'\x00\x00\x00\x00\x00\x00\x18@'
tRp162
sg52
g53
sg23
S'2'
sg18
F30.543942977907136
sg33
g34
sg51
g11
sg20
S'1'
sg65
g36
(g77
S'\x00\x00\x00\x00\x00\x00\x00\x00'
tRp163
sg44
g45
sg40
g41
sg25
F0.22070937696844339
sS'trials.thisIndex'
p164
g36
(g80
S'%\x00\x00\x00'
tRp165
sg26
V5
sS'trials.thisRepN'
p166
I0
sg66
Vhammer
p167
sg63
V../experiment_stimuli/bw_bc_bl/Nonliving_Things/Tools/hammer_2.jpg
p168
sg21
F0.3610129535663873
sS'trials.thisTrialN'
p169
I7
sa(dp170
g31
g32
sg17
F32.884011209011078
sg24
I1
sg35
g39
sg14
F32.879125790204853
sg16
g36
(g70
S'\x01\x00\x00\x00'
tRp171
sg42
g43
sg46
g47
sg15
g72
sg22
F34.413114557974041
sg64
g88
sg62
g74
sg49
g50
sS'trials.thisN'
p172
I8
sg19
I0
sg27
g36
(g38
S'\x00\x00\x00\x00\x00\x00\x18@'
tRp173
sg52
g53
sg23
S'1'
sg18
F34.111703934613615
sg33
g34
sg51
g11
sg20
S'2'
sg65
g36
(g77
S'\x00\x00\x00\x00\x00\x00\x00\x00'
tRp174
sg44
g45
sg40
g41
sg25
F0.0603496921248734
sS'trials.thisIndex'
p175
g36
(g80
S'\x1a\x00\x00\x00'
tRp176
sg26
V5
sS'trials.thisRepN'
p177
I0
sg66
Vduck
p178
sg63
V../experiment_stimuli/bw_bc_bl/Living_Things/Birds/duck_18.jpg
p179
sg21
F0.28085501515306532
sS'trials.thisTrialN'
p180
I8
sa(dp181
g31
g32
sg17
F36.211285613942891
sg24
I0
sg35
g39
sg14
F36.206355466274545
sg16
g36
(g70
S'\x01\x00\x00\x00'
tRp182
sg42
g43
sg46
g47
sg15
g72
sg22
F37.950778445927426
sg64
VInsects
p183
sg62
g74
sg49
g50
sS'trials.thisN'
p184
I9
sg19
I1
sg27
g36
(g38
S'\x00\x00\x00\x00\x00\x00\x1a@'
tRp185
sg52
g53
sg23
S'2'
sg18
F37.448970008641481
sg33
g34
sg51
g11
sg20
S'1'
sg65
g36
(g77
S'\x00\x00\x00\x00\x00\x00\x00\x00'
tRp186
sg44
g45
sg40
g41
sg25
F0.15061109862290323
sS'trials.thisIndex'
p187
g36
(g80
S'\x18\x00\x00\x00'
tRp188
sg26
V5
sS'trials.thisRepN'
p189
I0
sg66
Vdragonfly
p190
sg63
V../experiment_stimuli/bw_bc_bl/Living_Things/Insects/dragonfly_5.jpg
p191
sg21
F0.48127831029705703
sS'trials.thisTrialN'
p192
I9
sa(dp193
g31
g32
sg17
F39.839216423453763
sg24
I1
sg35
g39
sg14
F39.834240990690887
sg16
g36
(g70
S'\x01\x00\x00\x00'
tRp194
sg42
g43
sg46
g47
sg15
g72
sg22
F41.538589878706262
sg64
g73
sg62
g74
sg49
g50
sS'trials.thisN'
p195
I10
sg19
I0
sg27
g36
(g38
S'\x00\x00\x00\x00\x00\x00\x18@'
tRp196
sg52
g53
sg23
S'1'
sg18
F41.06682094745338
sg33
g34
sg51
g11
sg20
S'2'
sg65
g36
(g77
S'\x00\x00\x00\x00\x00\x00\x00\x00'
tRp197
sg44
g45
sg40
g41
sg25
F0.030278453603386879
sS'trials.thisIndex'
p198
g36
(g80
S'0\x00\x00\x00'
tRp199
sg26
V5
sS'trials.thisRepN'
p200
I0
sg66
Vlioness
p201
sg63
V../experiment_stimuli/bw_bc_bl/Living_Things/Animals/lioness_11.jpg
p202
sg21
F0.45120552694424987
sS'trials.thisTrialN'
p203
I10
sa(dp204
g31
g32
sg17
F43.307810259051621
sg24
I0
sg35
g39
sg14
F43.30178311583586
sg16
g36
(g70
S'\x01\x00\x00\x00'
tRp205
sg42
g43
sg46
g47
sg15
g72
sg22
F45.036170088686049
sg64
g73
sg62
g74
sg49
g50
sS'trials.thisN'
p206
I11
sg19
I1
sg27
g36
(g38
S'\x00\x00\x00\x00\x00\x00\x1e@'
tRp207
sg52
g53
sg23
S'2'
sg18
F44.544386406429112
sg33
g34
sg51
g11
sg20
S'1'
sg65
g36
(g77
S'\x00\x00\x00\x00\x00\x00\x00\x00'
tRp208
sg44
g45
sg40
g41
sg25
F0.37103552836924791
sS'trials.thisIndex'
p209
g36
(g80
S'\x1b\x00\x00\x00'
tRp210
sg26
V5
sS'trials.thisRepN'
p211
I0
sg66
Velephant
p212
sg63
V../experiment_stimuli/bw_bc_bl/Living_Things/Animals/elephant_14.jpg
p213
sg21
F0.47125386353582144
sS'trials.thisTrialN'
p214
I11
sa(dp215
g31
g32
sg17
F47.145010154228657
sg24
I1
sg35
g39
sg14
F47.140129107283428
sg16
g36
(g70
S'\x01\x00\x00\x00'
tRp216
sg42
g43
sg46
g47
sg15
g100
sg22
F48.644379691919312
sg64
VBuildings
p217
sg62
g102
sg49
g50
sS'trials.thisN'
p218
I12
sg19
I0
sg27
g36
(g38
S'\x00\x00\x00\x00\x00\x00\x18@'
tRp219
sg52
g53
sg23
S'1'
sg18
F48.372706650290638
sg33
g34
sg51
g11
sg20
S'2'
sg65
g36
(g77
S'\x00\x00\x00\x00\x00\x00\x00\x00'
tRp220
sg44
g45
sg40
g41
sg25
F0.12047831574454904
sS'trials.thisIndex'
p221
g36
(g80
S'\x0e\x00\x00\x00'
tRp222
sg26
V5
sS'trials.thisRepN'
p223
I0
sg66
Vcathedral
p224
sg63
V../experiment_stimuli/bw_bc_bl/Nonliving_Things/Buildings/cathedral_6.jpg
p225
sg21
F0.25113096344284713
sS'trials.thisTrialN'
p226
I12
sa(dp227
g31
g32
sg17
F50.502909646602347
sg24
I0
sg35
g39
sg14
F50.497422661166638
sg16
g36
(g70
S'\x01\x00\x00\x00'
tRp228
sg42
g43
sg46
g47
sg15
g100
sg22
F52.402210926637053
sg64
VKitchen_Uten
p229
sg62
g102
sg49
g50
sS'trials.thisN'
p230
I13
sg19
I1
sg27
g36
(g38
S'\x00\x00\x00\x00\x00\x00\x1c@'
tRp231
sg52
g53
sg23
S'3'
sg18
F51.750045067630708
sg33
g34
sg51
g11
sg20
S'1'
sg65
g36
(g77
S'\x00\x00\x00\x00\x00\x00\x00\x00'
tRp232
sg44
g45
sg40
g41
sg25
F0.16062395530752838
sS'trials.thisIndex'
p233
g36
(g80
S'\x16\x00\x00\x00'
tRp234
sg26
V5
sS'trials.thisRepN'
p235
I0
sg66
Vcup
p236
sg63
V../experiment_stimuli/bw_bc_bl/Nonliving_Things/Kitchen_Uten/cup_6.jpg
p237
sg21
F0.6315940257627517
sS'trials.thisTrialN'
p238
I13
sa(dp239
g31
g32
sg17
F54.300537582021207
sg24
I0
sg35
g39
sg14
F54.295701591065153
sg16
g36
(g70
S'\x01\x00\x00\x00'
tRp240
sg42
g43
sg46
g47
sg15
g72
sg22
F55.769546442199498
sg64
g148
sg62
g74
sg49
g50
sS'trials.thisN'
p241
I14
sg19
I1
sg27
g36
(g38
S'\x00\x00\x00\x00\x00\x00\x18@'
tRp242
sg52
g53
sg23
S'2'
sg18
F55.52826415700838
sg33
g34
sg51
g11
sg20
S'1'
sg65
g36
(g77
S'\x00\x00\x00\x00\x00\x00\x00\x00'
tRp243
sg44
g45
sg40
g41
sg25
F0.030279487371444702
sS'trials.thisIndex'
p244
g36
(g80
S'+\x00\x00\x00'
tRp245
sg26
V5
sS'trials.thisRepN'
p246
I0
sg66
Vkiller-whale
p247
sg63
V../experiment_stimuli/bw_bc_bl/Living_Things/Marine_creatures/killer-whale_26.jpg
p248
sg21
F0.22072177869267762
sS'trials.thisTrialN'
p249
I14
sa(dp250
g31
g32
sg17
F57.537539275828749
sg24
I1
sg35
g39
sg14
F57.53271701792255
sg16
g36
(g70
S'\x01\x00\x00\x00'
tRp251
sg42
g43
sg46
g47
sg15
g100
sg22
F58.846204455010593
sg64
g217
sg62
g102
sg49
g50
sS'trials.thisN'
p252
I15
sg19
I0
sg27
g36
(g38
S'\x00\x00\x00\x00\x00\x00\x1a@'
tRp253
sg52
g53
sg23
S'1'
sg18
F58.765299662249163
sg33
g34
sg51
g11
sg20
S'2'
sg65
g36
(g77
S'\x00\x00\x00\x00\x00\x00\x00\x00'
tRp254
sg44
g45
sg40
g41
sg25
F0.13036087737418711
sS'trials.thisIndex'
p255
g36
(g80
S'\x1c\x00\x00\x00'
tRp256
sg26
V5
sS'trials.thisRepN'
p257
I0
sg66
Vfactory
p258
sg63
V../experiment_stimuli/bw_bc_bl/Nonliving_Things/Buildings/factory_3.jpg
p259
sg21
F0.060353120556101203
sS'trials.thisTrialN'
p260
I15
sa(dp261
g31
g32
sg17
F60.714465179946274
sg24
I0
sg35
g39
sg14
F60.70962200104259
sg16
g36
(g70
S'\x01\x00\x00\x00'
tRp262
sg42
g43
sg46
g47
sg15
g100
sg22
F62.474086930276826
sg64
g101
sg62
g102
sg49
g50
sS'trials.thisN'
p263
I16
sg19
I1
sg27
g36
(g38
S'\x00\x00\x00\x00\x00\x00\x1e@'
tRp264
sg52
g53
sg23
S'3'
sg18
F61.972266688477248
sg33
g34
sg51
g11
sg20
S'1'
sg65
g36
(g77
S'\x00\x00\x00\x00\x00\x00\x00\x00'
tRp265
sg44
g45
sg40
g41
sg25
F0.1505538176279515
sS'trials.thisIndex'
p266
g36
(g80
S'L\x00\x00\x00'
tRp267
sg26
V5
sS'trials.thisRepN'
p268
I0
sg66
Vship
p269
sg63
V../experiment_stimuli/bw_bc_bl/Nonliving_Things/Vehicles/ship_4.jpg
p270
sg21
F0.48127216356806457
sS'trials.thisTrialN'
p271
I16
sa(dp272
g31
g32
sg17
F64.363338956143707
sg24
I0
sg35
g39
sg14
F64.357587358215824
sg16
g36
(g70
S'\x02\x00\x00\x00'
tRp273
sg42
g43
sg46
g47
sg15
g72
sg22
F66.222263574134558
sg64
g217
sg62
g102
sg49
g50
sS'trials.thisN'
p274
I17
sg19
I1
sg27
g36
(g38
S'\x00\x00\x00\x00\x00\x00\x1e@'
tRp275
sg52
g53
sg23
S'2'
sg18
F65.590145871508867
sg33
g34
sg51
g11
sg20
S'2'
sg65
g36
(g77
S'\x00\x00\x00\x00\x00\x00\x00\x00'
tRp276
sg44
g45
sg40
g41
sg25
F0.14053628803230822
sS'trials.thisIndex'
p277
g36
(g80
S'5\x00\x00\x00'
tRp278
sg26
V5
sS'trials.thisRepN'
p279
I0
sg66
Vmill
p280
sg63
V../experiment_stimuli/bw_bc_bl/Nonliving_Things/Buildings/mill_21.jpg
p281
sg21
F0.61158228619024158
sS'trials.thisTrialN'
p282
I17
sa(dp283
g31
g32
sg17
F68.10116880829446
sg24
I1
sg35
g39
sg14
F68.095679627498612
sg16
g36
(g70
S'\x01\x00\x00\x00'
tRp284
sg42
g43
sg46
g47
sg15
g100
sg22
F69.379098619101569
sg64
g114
sg62
g102
sg49
g50
sS'trials.thisN'
p285
I18
sg19
I1
sg27
g36
(g38
S'\x00\x00\x00\x00\x00\x00\x18@'
tRp286
sg52
g53
sg23
S'1'
sg18
F69.328271734295413
sg33
g34
sg51
g11
sg20
S'1'
sg65
g36
(g77
S'\x00\x00\x00\x00\x00\x00\x00\x00'
tRp287
sg44
g45
sg40
g41
sg25
F0.65164652094244957
sS'trials.thisIndex'
p288
g36
(g80
S']\x00\x00\x00'
tRp289
sg26
V5
sS'trials.thisRepN'
p290
I0
sg66
Vwardrobe
p291
sg63
V../experiment_stimuli/bw_bc_bl/Nonliving_Things/Furniture/wardrobe_9.jpg
p292
sg21
F0.030289648799225688
sS'trials.thisTrialN'
p293
I18
sa(dp294
g31
g32
sg17
F71.769992949208245
sg24
I1
sg35
g39
sg14
F71.76365876570344
sg16
g36
(g70
S'\x01\x00\x00\x00'
tRp295
sg42
g43
sg46
g47
sg15
g72
sg22
F73.397849361645058
sg64
g183
sg62
g74
sg49
g50
sS'trials.thisN'
p296
I19
sg19
I0
sg27
g36
(g38
S'\x00\x00\x00\x00\x00\x00\x1a@'
tRp297
sg52
g53
sg23
S'1'
sg18
F73.00625774031505
sg33
g34
sg51
g11
sg20
S'2'
sg65
g36
(g77
S'\x00\x00\x00\x00\x00\x00\x00\x00'
tRp298
sg44
g45
sg40
g41
sg25
F0.15055799786932766
sS'trials.thisIndex'
p299
g36
(g80
S'I\x00\x00\x00'
tRp300
sg26
V5
sS'trials.thisRepN'
p301
I0
sg66
Vscorpion
p302
sg63
V../experiment_stimuli/bw_bc_bl/Living_Things/Insects/scorpion_16.jpg
p303
sg21
F0.37103607319295406
sS'trials.thisTrialN'
p304
I19
sa(dp305
g31
g32
sg17
F75.286267752759159
sg24
I1
sg35
g39
sg14
F75.281298756133765
sg16
g36
(g70
S'\x02\x00\x00\x00'
tRp306
sg42
g43
sg46
g47
sg15
g72
sg22
F77.065824469784275
sg64
g114
sg62
g102
sg49
g50
sS'trials.thisN'
p307
I20
sg19
I0
sg27
g36
(g38
S'\x00\x00\x00\x00\x00\x00\x18@'
tRp308
sg52
g53
sg23
S'1'
sg18
F76.553972138557583
sg33
g34
sg51
g11
sg20
S'1'
sg65
g36
(g77
S'\x00\x00\x00\x00\x00\x00\x00\x00'
tRp309
sg44
g45
sg40
g41
sg25
F0.22069830168038607
sS'trials.thisIndex'
p310
g36
(g80
S'\x0f\x00\x00\x00'
tRp311
sg26
V5
sS'trials.thisRepN'
p312
I0
sg66
Vchair
p313
sg63
V../experiment_stimuli/bw_bc_bl/Nonliving_Things/Furniture/chair_14.jpg
p314
sg21
F0.49130357638932765
sS'trials.thisTrialN'
p315
I20
sa(dp316
g31
g32
sg17
F79.024313248228282
sg24
I0
sg35
g39
sg14
F79.019439532188699
sg16
g36
(g70
S'\x02\x00\x00\x00'
tRp317
sg42
g43
sg46
g47
sg15
g100
sg22
F81.144714873284101
sg64
g73
sg62
g74
sg49
g50
sS'trials.thisN'
p318
I21
sg19
I1
sg27
g36
(g38
S'\x00\x00\x00\x00\x00\x00\x18@'
tRp319
sg52
g53
sg23
S'3'
sg18
F80.31214612768963
sg33
g34
sg51
g11
sg20
S'2'
sg65
g36
(g77
S'\x00\x00\x00\x00\x00\x00\x00\x00'
tRp320
sg44
g45
sg40
g41
sg25
F0.20067127631045878
sS'trials.thisIndex'
p321
g36
(g80
S"'\x00\x00\x00"
tRp322
sg26
V5
sS'trials.thisRepN'
p323
I0
sg66
Vhippopotamus
p324
sg63
V../experiment_stimuli/bw_bc_bl/Living_Things/Animals/hippopotamus_5.jpg
p325
sg21
F0.81199948000721633
sS'trials.thisTrialN'
p326
I21
sa(dp327
g31
g32
sg17
F83.08476717909798
sg24
I0
sg35
g39
sg14
F83.078250388847664
sg16
g36
(g70
S'\x02\x00\x00\x00'
tRp328
sg42
g43
sg46
g47
sg15
g100
sg22
F85.143442736938596
sg64
g88
sg62
g74
sg49
g50
sS'trials.thisN'
p329
I22
sg19
I1
sg27
g36
(g38
S'\x00\x00\x00\x00\x00\x00\x18@'
tRp330
sg52
g53
sg23
S'2'
sg18
F84.340898771770298
sg33
g34
sg51
g11
sg20
S'2'
sg65
g36
(g77
S'\x00\x00\x00\x00\x00\x00\x00\x00'
tRp331
sg44
g45
sg40
g41
sg25
F0.20067106583155692
sS'trials.thisIndex'
p332
g36
(g80
S'9\x00\x00\x00'
tRp333
sg26
V5
sS'trials.thisRepN'
p334
I0
sg66
Vowl
p335
sg63
V../experiment_stimuli/bw_bc_bl/Living_Things/Birds/owl_6.jpg
p336
sg21
F0.7819915150757879
sS'trials.thisTrialN'
p337
I22
sa(dp338
g31
g32
sg17
F87.08348743012175
sg24
I0
sg35
g39
sg14
F87.076949391979724
sg16
g36
(g70
S'\x01\x00\x00\x00'
tRp339
sg42
g43
sg46
g47
sg15
g72
sg22
F88.77127839368768
sg64
g73
sg62
g74
sg49
g50
sS'trials.thisN'
p340
I23
sg19
I1
sg27
g36
(g38
S'\x00\x00\x00\x00\x00\x00\x18@'
tRp341
sg52
g53
sg23
S'2'
sg18
F88.329568738350645
sg33
g34
sg51
g11
sg20
S'1'
sg65
g36
(g77
S'\x00\x00\x00\x00\x00\x00\x00\x00'
tRp342
sg44
g45
sg40
g41
sg25
F0.18062459374777973
sS'trials.thisIndex'
p343
g36
(g80
S'Z\x00\x00\x00'
tRp344
sg26
V5
sS'trials.thisRepN'
p345
I0
sg66
Vturtle
p346
sg63
V../experiment_stimuli/bw_bc_bl/Living_Things/Animals/turtle_4.jpg
p347
sg21
F0.42114737466908991
sS'trials.thisTrialN'
p348
I23
sa(dp349
g31
g32
sg17
F90.689839045051485
sg24
I1
sg35
g39
sg14
F90.684789245016873
sg16
g36
(g70
S'\x02\x00\x00\x00'
tRp350
sg42
g43
sg46
g47
sg15
g72
sg22
F92.288920320104808
sg64
g160
sg62
g102
sg49
g50
sS'trials.thisN'
p351
I24
sg19
I1
sg27
g36
(g38
S'\x00\x00\x00\x00\x00\x00\x18@'
tRp352
sg52
g53
sg23
S'1'
sg18
F91.927395185921341
sg33
g34
sg51
g11
sg20
S'2'
sg65
g36
(g77
S'\x00\x00\x00\x00\x00\x00\x00\x00'
tRp353
sg44
g45
sg40
g41
sg25
F0.10046282433904707
sS'trials.thisIndex'
p354
g36
(g80
S'\x03\x00\x00\x00'
tRp355
sg26
V5
sS'trials.thisRepN'
p356
I0
sg66
Vaxe
p357
sg63
V../experiment_stimuli/bw_bc_bl/Nonliving_Things/Tools/axe_23.jpg
p358
sg21
F0.34097065823152661
sS'trials.thisTrialN'
p359
I24
sa(dp360
g31
g32
sg17
F94.128008105792105
sg24
I0
sg35
g39
sg14
F94.122262872289866
sg16
g36
(g70
S'\x02\x00\x00\x00'
tRp361
sg42
g43
sg46
g47
sg15
g100
sg22
F95.846645172685385
sg64
g88
sg62
g74
sg49
g50
sS'trials.thisN'
p362
I25
sg19
I0
sg27
g36
(g38
S'\x00\x00\x00\x00\x00\x00\x1e@'
tRp363
sg52
g53
sg23
S'2'
sg18
F95.394933232106268
sg33
g34
sg51
g11
sg20
S'1'
sg65
g36
(g77
S'\x00\x00\x00\x00\x00\x00\x00\x00'
tRp364
sg44
g45
sg40
g41
sg25
F0.12047768803313375
sS'trials.thisIndex'
p365
g36
(g80
S'U\x00\x00\x00'
tRp366
sg26
V5
sS'trials.thisRepN'
p367
I0
sg66
Vtoucan
p368
sg63
V../experiment_stimuli/bw_bc_bl/Living_Things/Birds/toucan_17.jpg
p369
sg21
F0.43116577598266304
sS'trials.thisTrialN'
p370
I25
sa(dp371
g31
g32
sg17
F97.704939852235839
sg24
I0
sg35
g39
sg14
F97.700058719143271
sg16
g36
(g70
S'\x01\x00\x00\x00'
tRp372
sg42
g43
sg46
g47
sg15
g72
sg22
F99.394359758822247
sg64
g73
sg62
g74
sg49
g50
sS'trials.thisN'
p373
I26
sg19
I0
sg27
g36
(g38
S'\x00\x00\x00\x00\x00\x00\x18@'
tRp374
sg52
g53
sg23
S'2'
sg18
F98.96270196698606
sg33
g34
sg51
g11
sg20
S'2'
sg65
g36
(g77
S'\x00\x00\x00\x00\x00\x00\x00\x00'
tRp375
sg44
g45
sg40
g41
sg25
F0.31088426965288818
sS'trials.thisIndex'
p376
g36
(g80
S'T\x00\x00\x00'
tRp377
sg26
V5
sS'trials.thisRepN'
p378
I0
sg66
Vtiger
p379
sg63
V../experiment_stimuli/bw_bc_bl/Living_Things/Animals/tiger_10.jpg
p380
sg21
F0.40109567693434656
sS'trials.thisTrialN'
p381
I26
sa(dp382
g31
g32
sg17
F101.44397187512368
sg24
I1
sg35
g39
sg14
F101.43817601818591
sg16
g36
(g70
S'\x02\x00\x00\x00'
tRp383
sg42
g43
sg46
g47
sg15
g100
sg22
F103.0723860913422
sg64
g88
sg62
g74
sg49
g50
sS'trials.thisN'
p384
I27
sg19
I0
sg27
g36
(g38
S'\x00\x00\x00\x00\x00\x00\x1a@'
tRp385
sg52
g53
sg23
S'1'
sg18
F102.6907938120421
sg33
g34
sg51
g11
sg20
S'1'
sg65
g36
(g77
S'\x00\x00\x00\x00\x00\x00\x00\x00'
tRp386
sg44
g45
sg40
g41
sg25
F0.19064088282175362
sS'trials.thisIndex'
p387
g36
(g80
S'3\x00\x00\x00'
tRp388
sg26
V5
sS'trials.thisRepN'
p389
I0
sg66
Vmagpie
p390
sg63
V../experiment_stimuli/bw_bc_bl/Living_Things/Birds/magpie_26.jpg
p391
sg21
F0.3610166902653873
sS'trials.thisTrialN'
p392
I27
sa(dp393
g31
g32
sg17
F105.00183099647984
sg24
I0
sg35
g39
sg14
F104.99591083684936
sg16
g36
(g70
S'\x02\x00\x00\x00'
tRp394
sg42
g43
sg46
g47
sg15
g100
sg22
F107.08108888729475
sg64
g148
sg62
g74
sg49
g50
sS'trials.thisN'
p395
I28
sg19
I0
sg27
g36
(g38
S'\x00\x00\x00\x00\x00\x00\x1a@'
tRp396
sg52
g53
sg23
S'2'
sg18
F106.25855320505798
sg33
g34
sg51
g11
sg20
S'1'
sg65
g36
(g77
S'\x00\x00\x00\x00\x00\x00\x00\x00'
tRp397
sg44
g45
sg40
g41
sg25
F0.14054429926909506
sS'trials.thisIndex'
p398
g36
(g80
S'\x15\x00\x00\x00'
tRp399
sg26
V5
sS'trials.thisRepN'
p400
I0
sg66
Vcrab
p401
sg63
V../experiment_stimuli/bw_bc_bl/Living_Things/Marine_creatures/crab_26.jpg
p402
sg21
F0.80198074388317764
sS'trials.thisTrialN'
p403
I28
sa(dp404
g31
g32
sg17
F108.96117169852369
sg24
I0
sg35
g39
sg14
F108.95451149716973
sg16
g36
(g70
S'\x02\x00\x00\x00'
tRp405
sg42
g43
sg46
g47
sg15
g72
sg22
F111.51053679664619
sg64
g217
sg62
g102
sg49
g50
sS'trials.thisN'
p406
I29
sg19
I1
sg27
g36
(g38
S'\x00\x00\x00\x00\x00\x00\x1c@'
tRp407
sg52
g53
sg23
S'3'
sg18
F110.20713341468945
sg33
g34
sg51
g11
sg20
S'2'
sg65
g36
(g77
S'\x00\x00\x00\x00\x00\x00\x00\x00'
tRp408
sg44
g45
sg40
g41
sg25
F0.26078285905532539
sS'trials.thisIndex'
p409
g36
(g80
S':\x00\x00\x00'
tRp410
sg26
V5
sS'trials.thisRepN'
p411
I0
sg66
Vpalace
p412
sg63
V../experiment_stimuli/bw_bc_bl/Nonliving_Things/Buildings/palace_8.jpg
p413
sg21
F1.2828607216943055
sS'trials.thisTrialN'
p414
I29
sa(dp415
g31
g32
sg17
F113.5095000222791
sg24
I0
sg35
g39
sg14
F113.50440465495922
sg16
g36
(g70
S'\x02\x00\x00\x00'
tRp416
sg42
g43
sg46
g47
sg15
g72
sg22
F115.29894481552765
sg64
g114
sg62
g102
sg49
g50
sS'trials.thisN'
p417
I30
sg19
I0
sg27
g36
(g38
S'\x00\x00\x00\x00\x00\x00\x18@'
tRp418
sg52
g53
sg23
S'2'
sg18
F114.73698168690316
sg33
g34
sg51
g11
sg20
S'1'
sg65
g36
(g77
S'\x00\x00\x00\x00\x00\x00\x00\x00'
tRp419
sg44
g45
sg40
g41
sg25
F0.19063563831150532
sS'trials.thisIndex'
p420
g36
(g80
S'E\x00\x00\x00'
tRp421
sg26
V5
sS'trials.thisRepN'
p422
I0
sg66
Vrocking-chair
p423
sg63
V../experiment_stimuli/bw_bc_bl/Nonliving_Things/Furniture/rocking-chair_19.jpg
p424
sg21
F0.53137934487313032
sS'trials.thisTrialN'
p425
I30
sa(dp426
g31
g32
sg17
F117.22841611504555
sg24
I1
sg35
g39
sg14
F117.22248412086628
sg16
g36
(g70
S'\x01\x00\x00\x00'
tRp427
sg42
g43
sg46
g47
sg15
g72
sg22
F118.66611210396513
sg64
g88
sg62
g74
sg49
g50
sS'trials.thisN'
p428
I31
sg19
I0
sg27
g36
(g38
S'\x00\x00\x00\x00\x00\x00\x1e@'
tRp429
sg52
g53
sg23
S'1'
sg18
F118.45506483316422
sg33
g34
sg51
g11
sg20
S'2'
sg65
g36
(g77
S'\x00\x00\x00\x00\x00\x00\x00\x00'
tRp430
sg44
g45
sg40
g41
sg25
F0.080445622326806188
sS'trials.thisIndex'
p431
g36
(g80
S'\x04\x00\x00\x00'
tRp432
sg26
V5
sS'trials.thisRepN'
p433
I0
sg66
Vbarn-owl
p434
sg63
V../experiment_stimuli/bw_bc_bl/Living_Things/Birds/barn-owl_26.jpg
p435
sg21
F0.19048588839359581
sS'trials.thisTrialN'
p436
I31
sa(dp437
g31
g32
sg17
F120.48636382841505
sg24
I0
sg35
g39
sg14
F120.47957759466954
sg16
g36
(g70
S'\x01\x00\x00\x00'
tRp438
sg42
g43
sg46
g47
sg15
g100
sg22
F122.28412971296348
sg64
g101
sg62
g102
sg49
g50
sS'trials.thisN'
p439
I32
sg19
I1
sg27
g36
(g38
S'\x00\x00\x00\x00\x00\x00\x18@'
tRp440
sg52
g53
sg23
S'3'
sg18
F121.74221100797877
sg33
g34
sg51
g11
sg20
S'1'
sg65
g36
(g77
S'\x00\x00\x00\x00\x00\x00\x00\x00'
tRp441
sg44
g45
sg40
g41
sg25
F0.14055028394795954
sS'trials.thisIndex'
p442
g36
(g80
S'6\x00\x00\x00'
tRp443
sg26
V5
sS'trials.thisRepN'
p444
I0
sg66
Vmotorbike
p445
sg63
V../experiment_stimuli/bw_bc_bl/Nonliving_Things/Vehicles/motorbike_26.jpg
p446
sg21
F0.51133015076629817
sS'trials.thisTrialN'
p447
I32
sa(dp448
g31
g32
sg17
F124.16248492500745
sg24
I1
sg35
g39
sg14
F124.15756032639183
sg16
g36
(g70
S'\x01\x00\x00\x00'
tRp449
sg42
g43
sg46
g47
sg15
g100
sg22
F125.60140761453658
sg64
g114
sg62
g102
sg49
g50
sS'trials.thisN'
p450
I33
sg19
I0
sg27
g36
(g38
S'\x00\x00\x00\x00\x00\x00\x18@'
tRp451
sg52
g53
sg23
S'1'
sg18
F125.39015218499117
sg33
g34
sg51
g11
sg20
S'2'
sg65
g36
(g77
S'\x00\x00\x00\x00\x00\x00\x00\x00'
tRp452
sg44
g45
sg40
g41
sg25
F0.070376450661569834
sS'trials.thisIndex'
p453
g36
(g80
S'Q\x00\x00\x00'
tRp454
sg26
V5
sS'trials.thisRepN'
p455
I0
sg66
Vtable
p456
sg63
V../experiment_stimuli/bw_bc_bl/Nonliving_Things/Furniture/table_10.jpg
p457
sg21
F0.19066563015803695
sS'trials.thisTrialN'
p458
I33
sa(dp459
g31
g32
sg17
F127.40959005313925
sg24
I0
sg35
g39
sg14
F127.40462611312978
sg16
g36
(g70
S'\x02\x00\x00\x00'
tRp460
sg42
g43
sg46
g47
sg15
g100
sg22
F129.2092153923586
sg64
g88
sg62
g74
sg49
g50
sS'trials.thisN'
p461
I34
sg19
I1
sg27
g36
(g38
S'\x00\x00\x00\x00\x00\x00\x1e@'
tRp462
sg52
g53
sg23
S'3'
sg18
F128.66727933078073
sg33
g34
sg51
g11
sg20
S'2'
sg65
g36
(g77
S'\x00\x00\x00\x00\x00\x00\x00\x00'
tRp463
sg44
g45
sg40
g41
sg25
F0.18062949576415122
sS'trials.thisIndex'
p464
g36
(g80
S'J\x00\x00\x00'
tRp465
sg26
V5
sS'trials.thisRepN'
p466
I0
sg66
Vseagull
p467
sg63
V../experiment_stimuli/bw_bc_bl/Living_Things/Birds/seagull_22.jpg
p468
sg21
F0.52136373613029718
sS'trials.thisTrialN'
p469
I34
sa(dp470
g31
g32
sg17
F131.12864556908607
sg24
I1
sg35
g39
sg14
F131.12272389791906
sg16
g36
(g70
S'\x01\x00\x00\x00'
tRp471
sg42
g43
sg46
g47
sg15
g72
sg22
F132.90720399562269
sg64
g148
sg62
g74
sg49
g50
sS'trials.thisN'
p472
I35
sg19
I1
sg27
g36
(g38
S'\x00\x00\x00\x00\x00\x00\x18@'
tRp473
sg52
g53
sg23
S'1'
sg18
F132.3552829073742
sg33
g34
sg51
g11
sg20
S'1'
sg65
g36
(g77
S'\x00\x00\x00\x00\x00\x00\x00\x00'
tRp474
sg44
g45
sg40
g41
sg25
F0.19063312350772321
sS'trials.thisIndex'
p475
g36
(g80
S'K\x00\x00\x00'
tRp476
sg26
V5
sS'trials.thisRepN'
p477
I0
sg66
Vshark
p478
sg63
V../experiment_stimuli/bw_bc_bl/Living_Things/Marine_creatures/shark_7.jpg
p479
sg21
F0.53137934091500938
sS'trials.thisTrialN'
p480
I35
sa(dp481
g31
g32
sg17
F134.83581992029212
sg24
I0
sg35
g39
sg14
F134.8307817291934
sg16
g36
(g70
S'\x01\x00\x00\x00'
tRp482
sg42
g43
sg46
g47
sg15
g100
sg22
F136.80569908441976
sg64
g217
sg62
g102
sg49
g50
sS'trials.thisN'
p483
I36
sg19
I1
sg27
g36
(g38
S'\x00\x00\x00\x00\x00\x00\x18@'
tRp484
sg52
g53
sg23
S'2'
sg18
F136.08339918428101
sg33
g34
sg51
g11
sg20
S'1'
sg65
g36
(g77
S'\x00\x00\x00\x00\x00\x00\x00\x00'
tRp485
sg44
g45
sg40
g41
sg25
F0.1204888760112226
sS'trials.thisIndex'
p486
g36
(g80
S'#\x00\x00\x00'
tRp487
sg26
V5
sS'trials.thisRepN'
p488
I0
sg66
Vgranary
p489
sg63
V../experiment_stimuli/bw_bc_bl/Nonliving_Things/Buildings/granary_20.jpg
p490
sg21
F0.70175633719190955
sS'trials.thisTrialN'
p491
I36
sa(dp492
g31
g32
sg17
F138.66398480953649
sg24
I1
sg35
g39
sg14
F138.65908706746995
sg16
g36
(g70
S'\x01\x00\x00\x00'
tRp493
sg42
g43
sg46
g47
sg15
g72
sg22
F140.02270464715548
sg64
g73
sg62
g74
sg49
g50
sS'trials.thisN'
p494
I37
sg19
I0
sg27
g36
(g38
S'\x00\x00\x00\x00\x00\x00\x1c@'
tRp495
sg52
g53
sg23
S'1'
sg18
F139.90169351198711
sg33
g34
sg51
g11
sg20
S'2'
sg65
g36
(g77
S'\x00\x00\x00\x00\x00\x00\x00\x00'
tRp496
sg44
g45
sg40
g41
sg25
F0.13050224026665092
sS'trials.thisIndex'
p497
g36
(g80
S'\r\x00\x00\x00'
tRp498
sg26
V5
sS'trials.thisRepN'
p499
I0
sg66
Vcat
p500
sg63
V../experiment_stimuli/bw_bc_bl/Living_Things/Animals/cat_7.jpg
p501
sg21
F0.1004601966124028
sS'trials.thisTrialN'
p502
I37
sa(dp503
g31
g32
sg17
F141.89108764869161
sg24
I0
sg35
g39
sg14
F141.88611539639533
sg16
g36
(g70
S'\x02\x00\x00\x00'
tRp504
sg42
g43
sg46
g47
sg15
g72
sg22
F143.7508012666367
sg64
g229
sg62
g102
sg49
g50
sS'trials.thisN'
p505
I38
sg19
I1
sg27
g36
(g38
S'\x00\x00\x00\x00\x00\x00\x1a@'
tRp506
sg52
g53
sg23
S'3'
sg18
F143.13873045705259
sg33
g34
sg51
g11
sg20
S'2'
sg65
g36
(g77
S'\x00\x00\x00\x00\x00\x00\x00\x00'
tRp507
sg44
g45
sg40
g41
sg25
F0.17058117361739278
sS'trials.thisIndex'
p508
g36
(g80
S'\x1e\x00\x00\x00'
tRp509
sg26
V5
sS'trials.thisRepN'
p510
I0
sg66
Vfondue
p511
sg63
V../experiment_stimuli/bw_bc_bl/Nonliving_Things/Kitchen_Uten/fondue_10.jpg
p512
sg21
F0.59150887792930007
sS'trials.thisTrialN'
p513
I38
sa(dp514
g31
g32
sg17
F145.66138381417841
sg24
I1
sg35
g39
sg14
F145.654297783738
sg16
g36
(g70
S'\x01\x00\x00\x00'
tRp515
sg42
g43
sg46
g47
sg15
g100
sg22
F146.98785656876862
sg64
g229
sg62
g102
sg49
g50
sS'trials.thisN'
p516
I39
sg19
I0
sg27
g36
(g38
S'\x00\x00\x00\x00\x00\x00\x1a@'
tRp517
sg52
g53
sg23
S'1'
sg18
F146.88687674026005
sg33
g34
sg51
g11
sg20
S'2'
sg65
g36
(g77
S'\x00\x00\x00\x00\x00\x00\x00\x00'
tRp518
sg44
g45
sg40
g41
sg25
F0.18061610497534275
sS'trials.thisIndex'
p519
g36
(g80
S'B\x00\x00\x00'
tRp520
sg26
V5
sS'trials.thisRepN'
p521
I0
sg66
Vpot
p522
sg63
V../experiment_stimuli/bw_bc_bl/Nonliving_Things/Kitchen_Uten/pot_7.jpg
p523
sg21
F0.080414976226165891
sS'trials.thisTrialN'
p524
I39
sa(dp525
g31
g32
sg17
F148.90731498901732
sg24
I1
sg35
g39
sg14
F148.90138486330397
sg16
g36
(g70
S'\x01\x00\x00\x00'
tRp526
sg42
g43
sg46
g47
sg15
g100
sg22
F150.36517991079018
sg64
g114
sg62
g102
sg49
g50
sS'trials.thisN'
p527
I40
sg19
I1
sg27
g36
(g38
S'\x00\x00\x00\x00\x00\x00\x18@'
tRp528
sg52
g53
sg23
S'1'
sg18
F150.14396183076315
sg33
g34
sg51
g11
sg20
S'1'
sg65
g36
(g77
S'\x00\x00\x00\x00\x00\x00\x00\x00'
tRp529
sg44
g45
sg40
g41
sg25
F2.0446719161700457
sS'trials.thisIndex'
p530
g36
(g80
S'\x00\x00\x00\x00'
tRp531
sg26
V5
sS'trials.thisRepN'
p532
I0
sg66
VChest-of-drawers
p533
sg63
V../experiment_stimuli/bw_bc_bl/Nonliving_Things/Furniture/Chest-of-drawers_8.jpg
p534
sg21
F0.20065989322029054
sS'trials.thisTrialN'
p535
I40
sa(dp536
g31
g32
sg17
F154.14875900628977
sg24
I0
sg35
g39
sg14
F154.14275523507968
sg16
g36
(g70
S'\x02\x00\x00\x00'
tRp537
sg42
g43
sg46
g47
sg15
g72
sg22
F155.92726900149137
sg64
g229
sg62
g102
sg49
g50
sS'trials.thisN'
p538
I41
sg19
I1
sg27
g36
(g38
S'\x00\x00\x00\x00\x00\x00\x18@'
tRp539
sg52
g53
sg23
S'3'
sg18
F155.4053990393877
sg33
g34
sg51
g11
sg20
S'2'
sg65
g36
(g77
S'\x00\x00\x00\x00\x00\x00\x00\x00'
tRp540
sg44
g45
sg40
g41
sg25
F0.1403729822486639
sS'trials.thisIndex'
p541
g36
(g80
S'\x12\x00\x00\x00'
tRp542
sg26
V5
sS'trials.thisRepN'
p543
I0
sg66
Vcoking-pot
p544
sg63
V../experiment_stimuli/bw_bc_bl/Nonliving_Things/Kitchen_Uten/coking-pot_9.jpg
p545
sg21
F0.50131745589897037
sS'trials.thisTrialN'
p546
I41
sa(dp547
g31
g32
sg17
F157.80570276873186
sg24
I1
sg35
g39
sg14
F157.80070604314096
sg16
g36
(g70
S'\x01\x00\x00\x00'
tRp548
sg42
g43
sg46
g47
sg15
g72
sg22
F159.11421552486718
sg64
g73
sg62
g74
sg49
g50
sS'trials.thisN'
p549
I42
sg19
I0
sg27
g36
(g38
S'\x00\x00\x00\x00\x00\x00\x1c@'
tRp550
sg52
g53
sg23
S'1'
sg18
F159.03328506741673
sg33
g34
sg51
g11
sg20
S'2'
sg65
g36
(g77
S'\x00\x00\x00\x00\x00\x00\x00\x00'
tRp551
sg44
g45
sg40
g41
sg25
F0.20066106598824263
sS'trials.thisIndex'
p552
g36
(g80
S'\x14\x00\x00\x00'
tRp553
sg26
V5
sS'trials.thisRepN'
p554
I0
sg66
Vcow
p555
sg63
V../experiment_stimuli/bw_bc_bl/Living_Things/Animals/cow_23.jpg
p556
sg21
F0.060357643291354179
sS'trials.thisTrialN'
p557
I42
sa(dp558
g31
g32
sg17
F161.05287022679113
sg24
I0
sg35
g39
sg14
F161.04776508174837
sg16
g36
(g70
S'\x02\x00\x00\x00'
tRp559
sg42
g43
sg46
g47
sg15
g72
sg22
F162.81223789043725
sg64
VMusical_Inst
p560
sg62
g102
sg49
g50
sS'trials.thisN'
p561
I43
sg19
I1
sg27
g36
(g38
S'\x00\x00\x00\x00\x00\x00\x18@'
tRp562
sg52
g53
sg23
S'3'
sg18
F162.31041209632531
sg33
g34
sg51
g11
sg20
S'2'
sg65
g36
(g77
S'\x00\x00\x00\x00\x00\x00\x00\x00'
tRp563
sg44
g45
sg40
g41
sg25
F0.12069835397414863
sS'trials.thisIndex'
p564
g36
(g80
S'\x19\x00\x00\x00'
tRp565
sg26
V5
sS'trials.thisRepN'
p566
I0
sg66
Vdrum
p567
sg63
V../experiment_stimuli/bw_bc_bl/Nonliving_Things/Musical_Inst/drum_19.jpg
p568
sg21
F0.48127661854960024
sS'trials.thisTrialN'
p569
I43
sa(dp570
g31
g32
sg17
F164.67044001910836
sg24
I0
sg35
g39
sg14
F164.66562796011567
sg16
g36
(g70
S'\x01\x00\x00\x00'
tRp571
sg42
g43
sg46
g47
sg15
g100
sg22
F166.49022406572476
sg64
g114
sg62
g102
sg49
g50
sS'trials.thisN'
p572
I44
sg19
I1
sg27
g36
(g38
S'\x00\x00\x00\x00\x00\x00\x1e@'
tRp573
sg52
g53
sg23
S'2'
sg18
F165.90823412267491
sg33
g34
sg51
g11
sg20
S'1'
sg65
g36
(g77
S'\x00\x00\x00\x00\x00\x00\x00\x00'
tRp574
sg44
g45
sg40
g41
sg25
F0.12050855974666774
sS'trials.thisIndex'
p575
g36
(g80
S'\x02\x00\x00\x00'
tRp576
sg26
V5
sS'trials.thisRepN'
p577
I0
sg66
Varmchair
p578
sg63
V../experiment_stimuli/bw_bc_bl/Nonliving_Things/Furniture/armchair_22.jpg
p579
sg21
F0.56145007605664432
sS'trials.thisTrialN'
p580
I44
sa(dp581
g31
g32
sg17
F168.34863904467784
sg24
I1
sg35
g39
sg14
F168.3436248570215
sg16
g36
(g70
S'\x01\x00\x00\x00'
tRp582
sg42
g43
sg46
g47
sg15
g72
sg22
F169.76734937308356
sg64
g73
sg62
g74
sg49
g50
sS'trials.thisN'
p583
I45
sg19
I0
sg27
g36
(g38
S'\x00\x00\x00\x00\x00\x00\x18@'
tRp584
sg52
g53
sg23
S'1'
sg18
F169.57621493749321
sg33
g34
sg51
g11
sg20
S'2'
sg65
g36
(g77
S'\x00\x00\x00\x00\x00\x00\x00\x00'
tRp585
sg44
g45
sg40
g41
sg25
F0.11045745178125799
sS'trials.thisIndex'
p586
g36
(g80
S'(\x00\x00\x00'
tRp587
sg26
V5
sS'trials.thisRepN'
p588
I0
sg66
Vhorse
p589
sg63
V../experiment_stimuli/bw_bc_bl/Living_Things/Animals/horse_16.jpg
p590
sg21
F0.17059216997586191
sS'trials.thisTrialN'
p591
I45
sa(dp592
g31
g32
sg17
F171.61672614281997
sg24
I0
sg35
g39
sg14
F171.61072756699286
sg16
g36
(g70
S'\x01\x00\x00\x00'
tRp593
sg42
g43
sg46
g47
sg15
g100
sg22
F173.42531460197642
sg64
g217
sg62
g102
sg49
g50
sS'trials.thisN'
p594
I46
sg19
I1
sg27
g36
(g38
S'\x00\x00\x00\x00\x00\x00\x18@'
tRp595
sg52
g53
sg23
S'3'
sg18
F172.87337635620497
sg33
g34
sg51
g11
sg20
S'1'
sg65
g36
(g77
S'\x00\x00\x00\x00\x00\x00\x00\x00'
tRp596
sg44
g45
sg40
g41
sg25
F0.11031287466175854
sS'trials.thisIndex'
p597
g36
(g80
S'\x11\x00\x00\x00'
tRp598
sg26
V5
sS'trials.thisRepN'
p599
I0
sg66
Vchurch
p600
sg63
V../experiment_stimuli/bw_bc_bl/Nonliving_Things/Buildings/church_2.jpg
p601
sg21
F0.53138516424223781
sS'trials.thisTrialN'
p602
I46
sa(dp603
g31
g32
sg17
F175.27473447634839
sg24
I1
sg35
g39
sg14
F175.2686839653179
sg16
g36
(g70
S'\x01\x00\x00\x00'
tRp604
sg42
g43
sg46
g47
sg15
g72
sg22
F176.78262531710789
sg64
g88
sg62
g74
sg49
g50
sS'trials.thisN'
p605
I47
sg19
I1
sg27
g36
(g38
S'\x00\x00\x00\x00\x00\x00\x18@'
tRp606
sg52
g53
sg23
S'1'
sg18
F176.50126237678342
sg33
g34
sg51
g11
sg20
S'1'
sg65
g36
(g77
S'\x00\x00\x00\x00\x00\x00\x00\x00'
tRp607
sg44
g45
sg40
g41
sg25
F0.20064983726479113
sS'trials.thisIndex'
p608
g36
(g80
S',\x00\x00\x00'
tRp609
sg26
V5
sS'trials.thisRepN'
p610
I0
sg66
Vkiwi
p611
sg63
V../experiment_stimuli/bw_bc_bl/Living_Things/Birds/kiwi_24.jpg
p612
sg21
F0.26079512201249599
sS'trials.thisTrialN'
p613
I47
sa(dp614
g31
g32
sg17
F178.72112502111122
sg24
I1
sg35
g39
sg14
F178.71617653546855
sg16
g36
(g70
S'\x01\x00\x00\x00'
tRp615
sg42
g43
sg46
g47
sg15
g100
sg22
F180.55082021187991
sg64
g560
sg62
g102
sg49
g50
sS'trials.thisN'
p616
I48
sg19
I1
sg27
g36
(g38
S'\x00\x00\x00\x00\x00\x00\x18@'
tRp617
sg52
g53
sg23
S'1'
sg18
F179.97883012169041
sg33
g34
sg51
g11
sg20
S'1'
sg65
g36
(g77
S'\x00\x00\x00\x00\x00\x00\x00\x00'
tRp618
sg44
g45
sg40
g41
sg25
F0.45120094018056989
sS'trials.thisIndex'
p619
g36
(g80
S'\\\x00\x00\x00'
tRp620
sg26
V5
sS'trials.thisRepN'
p621
I0
sg66
Vviolin
p622
sg63
V../experiment_stimuli/bw_bc_bl/Nonliving_Things/Musical_Inst/violin_25.jpg
p623
sg21
F0.55142267420887947
sS'trials.thisTrialN'
p624
I48
sa(dp625
g31
g32
sg17
F182.73996705561876
sg24
I0
sg35
g39
sg14
F182.73491372191347
sg16
g36
(g70
S'\x02\x00\x00\x00'
tRp626
sg42
g43
sg46
g47
sg15
g100
sg22
F184.59965351573192
sg64
g73
sg62
g74
sg49
g50
sS'trials.thisN'
p627
I49
sg19
I1
sg27
g36
(g38
S'\x00\x00\x00\x00\x00\x00\x18@'
tRp628
sg52
g53
sg23
S'3'
sg18
F184.00759625458159
sg33
g34
sg51
g11
sg20
S'2'
sg65
g36
(g77
S'\x00\x00\x00\x00\x00\x00\x00\x00'
tRp629
sg44
g45
sg40
g41
sg25
F0.12048477819189429
sS'trials.thisIndex'
p630
g36
(g80
S'_\x00\x00\x00'
tRp631
sg26
V5
sS'trials.thisRepN'
p632
I0
sg66
Vzebra
p633
sg63
V../experiment_stimuli/bw_bc_bl/Living_Things/Animals/zebra_9.jpg
p634
sg21
F0.57148994319140911
sS'trials.thisTrialN'
p635
I49
sa(dp636
g31
g32
sg17
F186.45913424622267
sg24
I0
sg35
g39
sg14
F186.45299716107547
sg16
g36
(g70
S'\x02\x00\x00\x00'
tRp637
sg42
g43
sg46
g47
sg15
g72
sg22
F188.59834811696783
sg64
g229
sg62
g102
sg49
g50
sS'trials.thisN'
p638
I50
sg19
I1
sg27
g36
(g38
S'\x00\x00\x00\x00\x00\x00\x1a@'
tRp639
sg52
g53
sg23
S'2'
sg18
F187.71564753656276
sg33
g34
sg51
g11
sg20
S'2'
sg65
g36
(g77
S'\x00\x00\x00\x00\x00\x00\x00\x00'
tRp640
sg44
g45
sg40
g41
sg25
F0.2608006636146456
sS'trials.thisIndex'
p641
g36
(g80
S'S\x00\x00\x00'
tRp642
sg26
V5
sS'trials.thisRepN'
p643
I0
sg66
Vteapot
p644
sg63
V../experiment_stimuli/bw_bc_bl/Nonliving_Things/Kitchen_Uten/teapot_19.jpg
p645
sg21
F0.86211907025426626
sS'trials.thisTrialN'
p646
I50
sa(dp647
g31
g32
sg17
F190.59814769867808
sg24
I1
sg35
g39
sg14
F190.59199641062878
sg16
g36
(g70
S'\x01\x00\x00\x00'
tRp648
sg42
g43
sg46
g47
sg15
g72
sg22
F192.48677979712375
sg64
g88
sg62
g74
sg49
g50
sS'trials.thisN'
p649
I51
sg19
I1
sg27
g36
(g38
S'\x00\x00\x00\x00\x00\x00\x1c@'
tRp650
sg52
g53
sg23
S'1'
sg18
F191.83460074989125
sg33
g34
sg51
g11
sg20
S'1'
sg65
g36
(g77
S'\x00\x00\x00\x00\x00\x00\x00\x00'
tRp651
sg44
g45
sg40
g41
sg25
F0.3209210354834795
sS'trials.thisIndex'
p652
g36
(g80
S'&\x00\x00\x00'
tRp653
sg26
V5
sS'trials.thisRepN'
p654
I0
sg66
Vhen
p655
sg63
V../experiment_stimuli/bw_bc_bl/Living_Things/Birds/hen_14.jpg
p656
sg21
F0.63161968742497265
sS'trials.thisTrialN'
p657
I51
sa(dp658
g31
g32
sg17
F194.54562604450621
sg24
I0
sg35
g39
sg14
F194.54057823680341
sg16
g36
(g70
S'\x02\x00\x00\x00'
tRp659
sg42
g43
sg46
g47
sg15
g100
sg22
F196.59572744718753
sg64
g73
sg62
g74
sg49
g50
sS'trials.thisN'
p660
I52
sg19
I0
sg27
g36
(g38
S'\x00\x00\x00\x00\x00\x00\x18@'
tRp661
sg52
g53
sg23
S'2'
sg18
F195.82328590424731
sg33
g34
sg51
g11
sg20
S'1'
sg65
g36
(g77
S'\x00\x00\x00\x00\x00\x00\x00\x00'
tRp662
sg44
g45
sg40
g41
sg25
F0.12048495863564312
sS'trials.thisIndex'
p663
g36
(g80
S' \x00\x00\x00'
tRp664
sg26
V5
sS'trials.thisRepN'
p665
I0
sg66
Vgiraffe
p666
sg63
V../experiment_stimuli/bw_bc_bl/Living_Things/Animals/giraffe_0.jpg
p667
sg21
F0.75189483328722417
sS'trials.thisTrialN'
p668
I52
sa(dp669
g31
g32
sg17
F198.45410641143098
sg24
I0
sg35
g39
sg14
F198.44909497536719
sg16
g36
(g70
S'\x02\x00\x00\x00'
tRp670
sg42
g43
sg46
g47
sg15
g100
sg22
F200.41386339720339
sg64
g148
sg62
g74
sg49
g50
sS'trials.thisN'
p671
I53
sg19
I1
sg27
g36
(g38
S'\x00\x00\x00\x00\x00\x00\x18@'
tRp672
sg52
g53
sg23
S'3'
sg18
F199.72174664377235
sg33
g34
sg51
g11
sg20
S'2'
sg65
g36
(g77
S'\x00\x00\x00\x00\x00\x00\x00\x00'
tRp673
sg44
g45
sg40
g41
sg25
F0.17044141609221697
sS'trials.thisIndex'
p674
g36
(g80
S'1\x00\x00\x00'
tRp675
sg26
V5
sS'trials.thisRepN'
p676
I0
sg66
Vlobster
p677
sg63
V../experiment_stimuli/bw_bc_bl/Living_Things/Marine_creatures/lobster_23.jpg
p678
sg21
F0.6715338786598295
sS'trials.thisTrialN'
p679
I53
sa(dp680
g31
g32
sg17
F202.3224098496139
sg24
I1
sg35
g39
sg14
F202.31751412246376
sg16
g36
(g70
S'\x01\x00\x00\x00'
tRp681
sg42
g43
sg46
g47
sg15
g72
sg22
F203.81140993465669
sg64
g183
sg62
g74
sg49
g50
sS'trials.thisN'
p682
I54
sg19
I0
sg27
g36
(g38
S'\x00\x00\x00\x00\x00\x00\x1a@'
tRp683
sg52
g53
sg23
S'1'
sg18
F203.55007152701728
sg33
g34
sg51
g11
sg20
S'2'
sg65
g36
(g77
S'\x00\x00\x00\x00\x00\x00\x00\x00'
tRp684
sg44
g45
sg40
g41
sg25
F0.11045819241553545
sS'trials.thisIndex'
p685
g36
(g80
S'\n\x00\x00\x00'
tRp686
sg26
V5
sS'trials.thisRepN'
p687
I0
sg66
Vbutterfly
p688
sg63
V../experiment_stimuli/bw_bc_bl/Living_Things/Insects/butterfly_10.jpg
p689
sg21
F0.24077355931513011
sS'trials.thisTrialN'
p690
I54
sa(dp691
g31
g32
sg17
F205.65972321201116
sg24
I0
sg35
g39
sg14
F205.65474128723145
sg16
g36
(g70
S'\x02\x00\x00\x00'
tRp692
sg42
g43
sg46
g47
sg15
g72
sg22
F207.40926282899454
sg64
g114
sg62
g102
sg49
g50
sS'trials.thisN'
p693
I55
sg19
I1
sg27
g36
(g38
S'\x00\x00\x00\x00\x00\x00\x1e@'
tRp694
sg52
g53
sg23
S'3'
sg18
F206.91740132425912
sg33
g34
sg51
g11
sg20
S'2'
sg65
g36
(g77
S'\x00\x00\x00\x00\x00\x00\x00\x00'
tRp695
sg44
g45
sg40
g41
sg25
F0.10062586353160441
sS'trials.thisIndex'
p696
g36
(g80
S'.\x00\x00\x00'
tRp697
sg26
V5
sS'trials.thisRepN'
p698
I0
sg66
Vlamp
p699
sg63
V../experiment_stimuli/bw_bc_bl/Nonliving_Things/Furniture/lamp_12.jpg
p700
sg21
F0.47126392344944179
sS'trials.thisTrialN'
p701
I55
sa(dp702
g31
g32
sg17
F209.2475367388688
sg24
I0
sg35
g39
sg14
F209.24254960706457
sg16
g36
(g70
S'\x01\x00\x00\x00'
tRp703
sg42
g43
sg46
g47
sg15
g72
sg22
F211.03709498560056
sg64
g148
sg62
g74
sg49
g50
sS'trials.thisN'
p704
I56
sg19
I1
sg27
g36
(g38
S'\x00\x00\x00\x00\x00\x00\x18@'
tRp705
sg52
g53
sg23
S'3'
sg18
F210.4951711113099
sg33
g34
sg51
g11
sg20
S'1'
sg65
g36
(g77
S'\x00\x00\x00\x00\x00\x00\x00\x00'
tRp706
sg44
g45
sg40
g41
sg25
F0.15059974533505738
sS'trials.thisIndex'
p707
g36
(g80
S'^\x00\x00\x00'
tRp708
sg26
V5
sS'trials.thisRepN'
p709
I0
sg66
Vwhale
p710
sg63
V../experiment_stimuli/bw_bc_bl/Living_Things/Marine_creatures/whale_11.jpg
p711
sg21
F0.52137681492604315
sS'trials.thisTrialN'
p712
I56
sa(dp713
g31
g32
sg17
F212.92797861224972
sg24
I1
sg35
g39
sg14
F212.92054038774222
sg16
g36
(g70
S'\x02\x00\x00\x00'
tRp714
sg42
g43
sg46
g47
sg15
g100
sg22
F214.45451774215326
sg64
g148
sg62
g74
sg49
g50
sS'trials.thisN'
p715
I57
sg19
I1
sg27
g36
(g38
S'\x00\x00\x00\x00\x00\x00\x18@'
tRp716
sg52
g53
sg23
S'1'
sg18
F214.15312121668831
sg33
g34
sg51
g11
sg20
S'2'
sg65
g36
(g77
S'\x00\x00\x00\x00\x00\x00\x00\x00'
tRp717
sg44
g45
sg40
g41
sg25
F0.090421802829951048
sS'trials.thisIndex'
p718
g36
(g80
S'4\x00\x00\x00'
tRp719
sg26
V5
sS'trials.thisRepN'
p720
I0
sg66
Vmanatee
p721
sg63
V../experiment_stimuli/bw_bc_bl/Living_Things/Marine_creatures/manatee_19.jpg
p722
sg21
F0.28083973727189004
sS'trials.thisTrialN'
p723
I57
sa(dp724
g31
g32
sg17
F216.28283436270431
sg24
I0
sg35
g39
sg14
F216.27784480596893
sg16
g36
(g70
S'\x02\x00\x00\x00'
tRp725
sg42
g43
sg46
g47
sg15
g100
sg22
F218.08242020988837
sg64
g88
sg62
g74
sg49
g50
sS'trials.thisN'
p726
I58
sg19
I1
sg27
g36
(g38
S'\x00\x00\x00\x00\x00\x00\x18@'
tRp727
sg52
g53
sg23
S'3'
sg18
F217.54048580210656
sg33
g34
sg51
g11
sg20
S'2'
sg65
g36
(g77
S'\x00\x00\x00\x00\x00\x00\x00\x00'
tRp728
sg44
g45
sg40
g41
sg25
F0.13053641631267965
sS'trials.thisIndex'
p729
g36
(g80
S'O\x00\x00\x00'
tRp730
sg26
V5
sS'trials.thisRepN'
p731
I0
sg66
Vsparrow
p732
sg63
V../experiment_stimuli/bw_bc_bl/Living_Things/Birds/sparrow_6.jpg
p733
sg21
F0.52137380023486912
sS'trials.thisTrialN'
p734
I58
sa(dp735
g31
g32
sg17
F219.95086430455558
sg24
I1
sg35
g39
sg14
F219.94581975624897
sg16
g36
(g70
S'\x02\x00\x00\x00'
tRp736
sg42
g43
sg46
g47
sg15
g100
sg22
F221.45975627377629
sg64
g73
sg62
g74
sg49
g50
sS'trials.thisN'
p737
I59
sg19
I1
sg27
g36
(g38
S'\x00\x00\x00\x00\x00\x00\x1a@'
tRp738
sg52
g53
sg23
S'1'
sg18
F221.18841452430934
sg33
g34
sg51
g11
sg20
S'2'
sg65
g36
(g77
S'\x00\x00\x00\x00\x00\x00\x00\x00'
tRp739
sg44
g45
sg40
g41
sg25
F0.070376668823882937
sS'trials.thisIndex'
p740
g36
(g80
S'R\x00\x00\x00'
tRp741
sg26
V5
sS'trials.thisRepN'
p742
I0
sg66
Vtapir
p743
sg63
V../experiment_stimuli/bw_bc_bl/Living_Things/Animals/tapir_11.jpg
p744
sg21
F0.25077107781544328
sS'trials.thisTrialN'
p745
I59
sa(dp746
g31
g32
sg17
F223.26806609798223
sg24
I1
sg35
g39
sg14
F223.2630262337625
sg16
g36
(g70
S'\x01\x00\x00\x00'
tRp747
sg42
g43
sg46
g47
sg15
g100
sg22
F225.09768814290874
sg64
g114
sg62
g102
sg49
g50
sS'trials.thisN'
p748
I60
sg19
I1
sg27
g36
(g38
S'\x00\x00\x00\x00\x00\x00\x18@'
tRp749
sg52
g53
sg23
S'1'
sg18
F224.54571584868245
sg33
g34
sg51
g11
sg20
S'1'
sg65
g36
(g77
S'\x00\x00\x00\x00\x00\x00\x00\x00'
tRp750
sg44
g45
sg40
g41
sg25
F0.18062855210155249
sS'trials.thisIndex'
p751
g36
(g80
S'\x13\x00\x00\x00'
tRp752
sg26
V5
sS'trials.thisRepN'
p753
I0
sg66
Vcouch
p754
sg63
V../experiment_stimuli/bw_bc_bl/Nonliving_Things/Furniture/couch_7.jpg
p755
sg21
F0.53140646824613214
sS'trials.thisTrialN'
p756
I60
sa(dp757
g31
g32
sg17
F227.01621609530412
sg24
I0
sg35
g39
sg14
F227.01117297960445
sg16
g36
(g70
S'\x02\x00\x00\x00'
tRp758
sg42
g43
sg46
g47
sg15
g100
sg22
F228.89593658829108
sg64
g148
sg62
g74
sg49
g50
sS'trials.thisN'
p759
I61
sg19
I0
sg27
g36
(g38
S'\x00\x00\x00\x00\x00\x00\x1a@'
tRp760
sg52
g53
sg23
S'3'
sg18
F228.29386377101764
sg33
g34
sg51
g11
sg20
S'1'
sg65
g36
(g77
S'\x00\x00\x00\x00\x00\x00\x00\x00'
tRp761
sg44
g45
sg40
g41
sg25
F0.1305111835245043
sS'trials.thisIndex'
p762
g36
(g80
S'A\x00\x00\x00'
tRp763
sg26
V5
sS'trials.thisRepN'
p764
I0
sg66
Vpomfret
p765
sg63
V../experiment_stimuli/bw_bc_bl/Living_Things/Marine_creatures/pomfret_7.jpg
p766
sg21
F0.58148499904200435
sS'trials.thisTrialN'
p767
I61
sa(dp768
g31
g32
sg17
F230.7643039659597
sg24
I0
sg35
g39
sg14
F230.75934768351726
sg16
g36
(g70
S'\x01\x00\x00\x00'
tRp769
sg42
g43
sg46
g47
sg15
g100
sg22
F232.56388841476291
sg64
g101
sg62
g102
sg49
g50
sS'trials.thisN'
p770
I62
sg19
I1
sg27
g36
(g38
S'\x00\x00\x00\x00\x00\x00\x18@'
tRp771
sg52
g53
sg23
S'3'
sg18
F232.02197998017073
sg33
g34
sg51
g11
sg20
S'1'
sg65
g36
(g77
S'\x00\x00\x00\x00\x00\x00\x00\x00'
tRp772
sg44
g45
sg40
g41
sg25
F0.1104687147308141
sS'trials.thisIndex'
p773
g36
(g80
S'\x07\x00\x00\x00'
tRp774
sg26
V5
sS'trials.thisRepN'
p775
I0
sg66
Vboat
p776
sg63
V../experiment_stimuli/bw_bc_bl/Nonliving_Things/Vehicles/boat_15.jpg
p777
sg21
F0.52136723999865353
sS'trials.thisTrialN'
p778
I62
sa(dp779
g31
g32
sg17
F234.4123512879014
sg24
I1
sg35
g39
sg14
F234.40725149260834
sg16
g36
(g70
S'\x02\x00\x00\x00'
tRp780
sg42
g43
sg46
g47
sg15
g100
sg22
F235.88109230971895
sg64
g88
sg62
g74
sg49
g50
sS'trials.thisN'
p781
I63
sg19
I1
sg27
g36
(g38
S'\x00\x00\x00\x00\x00\x00\x18@'
tRp782
sg52
g53
sg23
S'1'
sg18
F235.63984273467213
sg33
g34
sg51
g11
sg20
S'2'
sg65
g36
(g77
S'\x00\x00\x00\x00\x00\x00\x00\x00'
tRp783
sg44
g45
sg40
g41
sg25
F0.070389785105362535
sS'trials.thisIndex'
p784
g36
(g80
S'*\x00\x00\x00'
tRp785
sg26
V5
sS'trials.thisRepN'
p786
I0
sg66
Vhummingbird
p787
sg63
V../experiment_stimuli/bw_bc_bl/Living_Things/Birds/hummingbird_17.jpg
p788
sg21
F0.22070681652985513
sS'trials.thisTrialN'
p789
I63
sa(dp790
g31
g32
sg17
F237.68955405661836
sg24
I0
sg35
g39
sg14
F237.68437745398842
sg16
g36
(g70
S'\x02\x00\x00\x00'
tRp791
sg42
g43
sg46
g47
sg15
g100
sg22
F239.59922762424685
sg64
g183
sg62
g74
sg49
g50
sS'trials.thisN'
p792
I64
sg19
I0
sg27
g36
(g38
S'\x00\x00\x00\x00\x00\x00 @'
tRp793
sg52
g53
sg23
S'2'
sg18
F238.94703081785701
sg33
g34
sg51
g11
sg20
S'1'
sg65
g36
(g77
S'\x00\x00\x00\x00\x00\x00\x00\x00'
tRp794
sg44
g45
sg40
g41
sg25
F0.10044072684831917
sS'trials.thisIndex'
p795
g36
(g80
S'-\x00\x00\x00'
tRp796
sg26
V5
sS'trials.thisRepN'
p797
I0
sg66
Vladybird
p798
sg63
V../experiment_stimuli/bw_bc_bl/Living_Things/Insects/ladybird_14.jpg
p799
sg21
F0.63162463833577931
sS'trials.thisTrialN'
p800
I64
sa(dp801
g31
g32
sg17
F241.43789455504157
sg24
I1
sg35
g39
sg14
F241.43254130077548
sg16
g36
(g70
S'\x02\x00\x00\x00'
tRp802
sg42
g43
sg46
g47
sg15
g72
sg22
F242.89637335157022
sg64
g560
sg62
g102
sg49
g50
sS'trials.thisN'
p803
I65
sg19
I1
sg27
g36
(g38
S'\x00\x00\x00\x00\x00\x00\x18@'
tRp804
sg52
g53
sg23
S'1'
sg18
F242.6751431664452
sg33
g34
sg51
g11
sg20
S'2'
sg65
g36
(g77
S'\x00\x00\x00\x00\x00\x00\x00\x00'
tRp805
sg44
g45
sg40
g41
sg25
F0.15055099409073591
sS'trials.thisIndex'
p806
g36
(g80
S'H\x00\x00\x00'
tRp807
sg26
V5
sS'trials.thisRepN'
p808
I0
sg66
Vsaxophone
p809
sg63
V../experiment_stimuli/bw_bc_bl/Nonliving_Things/Musical_Inst/saxophone_0.jpg
p810
sg21
F0.19063989771530032
sS'trials.thisTrialN'
p811
I65
sa(dp812
g31
g32
sg17
F244.78497017617337
sg24
I0
sg35
g39
sg14
F244.77980516338721
sg16
g36
(g70
S'\x02\x00\x00\x00'
tRp813
sg42
g43
sg46
g47
sg15
g72
sg22
F246.58438369142823
sg64
g560
sg62
g102
sg49
g50
sS'trials.thisN'
p814
I66
sg19
I1
sg27
g36
(g38
S'\x00\x00\x00\x00\x00\x00\x1a@'
tRp815
sg52
g53
sg23
S'3'
sg18
F246.04245072347112
sg33
g34
sg51
g11
sg20
S'2'
sg65
g36
(g77
S'\x00\x00\x00\x00\x00\x00\x00\x00'
tRp816
sg44
g45
sg40
g41
sg25
F0.13052742392756045
sS'trials.thisIndex'
p817
g36
(g80
S'$\x00\x00\x00'
tRp818
sg26
V5
sS'trials.thisRepN'
p819
I0
sg66
Vguitar
p820
sg63
V../experiment_stimuli/bw_bc_bl/Nonliving_Things/Musical_Inst/guitar_15.jpg
p821
sg21
F0.52136695431545377
sS'trials.thisTrialN'
p822
I66
sa(dp823
g31
g32
sg17
F248.45301668555476
sg24
I0
sg35
g39
sg14
F248.44779056869447
sg16
g36
(g70
S'\x01\x00\x00\x00'
tRp824
sg42
g43
sg46
g47
sg15
g72
sg22
F249.86150545347482
sg64
g73
sg62
g74
sg49
g50
sS'trials.thisN'
p825
I67
sg19
I0
sg27
g36
(g38
S'\x00\x00\x00\x00\x00\x00\x1a@'
tRp826
sg52
g53
sg23
S'2'
sg18
F249.68037146120332
sg33
g34
sg51
g11
sg20
S'2'
sg65
g36
(g77
S'\x00\x00\x00\x00\x00\x00\x00\x00'
tRp827
sg44
g45
sg40
g41
sg25
F0.53122942196205258
sS'trials.thisIndex'
p828
g36
(g80
S'\x10\x00\x00\x00'
tRp829
sg26
V5
sS'trials.thisRepN'
p830
I0
sg66
Vcheetah
p831
sg63
V../experiment_stimuli/bw_bc_bl/Living_Things/Animals/cheetah_0.jpg
p832
sg21
F0.16058714361861348
sS'trials.thisTrialN'
p833
I67
sa(dp834
g31
g32
sg17
F252.13110081409104
sg24
I1
sg35
g39
sg14
F252.1257774992846
sg16
g36
(g70
S'\x01\x00\x00\x00'
tRp835
sg42
g43
sg46
g47
sg15
g72
sg22
F253.5796018212568
sg64
g73
sg62
g74
sg49
g50
sS'trials.thisN'
p836
I68
sg19
I0
sg27
g36
(g38
S'\x00\x00\x00\x00\x00\x00\x18@'
tRp837
sg52
g53
sg23
S'1'
sg18
F253.36837777867913
sg33
g34
sg51
g11
sg20
S'2'
sg65
g36
(g77
S'\x00\x00\x00\x00\x00\x00\x00\x00'
tRp838
sg44
g45
sg40
g41
sg25
F0.12048540986143053
sS'trials.thisIndex'
p839
g36
(g80
S'2\x00\x00\x00'
tRp840
sg26
V5
sS'trials.thisRepN'
p841
I0
sg66
Vlynx
p842
sg63
V../experiment_stimuli/bw_bc_bl/Living_Things/Animals/lynx_3.jpg
p843
sg21
F0.1906621903181076
sS'trials.thisTrialN'
p844
I68
sa(dp845
g31
g32
sg17
F255.43807756598108
sg24
I0
sg35
g39
sg14
F255.43297209404409
sg16
g36
(g70
S'\x02\x00\x00\x00'
tRp846
sg42
g43
sg46
g47
sg15
g72
sg22
F257.68851063703187
sg64
g229
sg62
g102
sg49
g50
sS'trials.thisN'
p847
I69
sg19
I1
sg27
g36
(g38
S'\x00\x00\x00\x00\x00\x00\x18@'
tRp848
sg52
g53
sg23
S'3'
sg18
F256.69562154845335
sg33
g34
sg51
g11
sg20
S'2'
sg65
g36
(g77
S'\x00\x00\x00\x00\x00\x00\x00\x00'
tRp849
sg44
g45
sg40
g41
sg25
F0.18062290945090353
sS'trials.thisIndex'
p850
g36
(g80
S'G\x00\x00\x00'
tRp851
sg26
V5
sS'trials.thisRepN'
p852
I0
sg66
Vsaucepan
p853
sg63
V../experiment_stimuli/bw_bc_bl/Nonliving_Things/Kitchen_Uten/saucepan_7.jpg
p854
sg21
F0.972338946769014
sS'trials.thisTrialN'
p855
I69
sa(dp856
g31
g32
sg17
F259.60864856280386
sg24
I1
sg35
g39
sg14
F259.60204102587886
sg16
g36
(g70
S'\x02\x00\x00\x00'
tRp857
sg42
g43
sg46
g47
sg15
g100
sg22
F261.21617830358446
sg64
g88
sg62
g74
sg49
g50
sS'trials.thisN'
p858
I70
sg19
I0
sg27
g36
(g38
S'\x00\x00\x00\x00\x00\x00\x18@'
tRp859
sg52
g53
sg23
S'1'
sg18
F260.84463363606483
sg33
g34
sg51
g11
sg20
S'1'
sg65
g36
(g77
S'\x00\x00\x00\x00\x00\x00\x00\x00'
tRp860
sg44
g45
sg40
g41
sg25
F0.12047812785021961
sS'trials.thisIndex'
p861
g36
(g80
S'F\x00\x00\x00'
tRp862
sg26
V5
sS'trials.thisRepN'
p863
I0
sg66
Vrooster
p864
sg63
V../experiment_stimuli/bw_bc_bl/Living_Things/Birds/rooster_17.jpg
p865
sg21
F0.35099674761295319
sS'trials.thisTrialN'
p866
I70
sa(dp867
g31
g32
sg17
F263.07469982956536
sg24
I0
sg35
g39
sg14
F263.06958097801544
sg16
g36
(g70
S'\x01\x00\x00\x00'
tRp868
sg42
g43
sg46
g47
sg15
g100
sg22
F264.87412962689996
sg64
g114
sg62
g102
sg49
g50
sS'trials.thisN'
p869
I71
sg19
I1
sg27
g36
(g38
S'\x00\x00\x00\x00\x00\x00\x18@'
tRp870
sg52
g53
sg23
S'3'
sg18
F264.35227734851651
sg33
g34
sg51
g11
sg20
S'1'
sg65
g36
(g77
S'\x00\x00\x00\x00\x00\x00\x00\x00'
tRp871
sg44
g45
sg40
g41
sg25
F0.17062310874462128
sS'trials.thisIndex'
p872
g36
(g80
S'N\x00\x00\x00'
tRp873
sg26
V5
sS'trials.thisRepN'
p874
I0
sg66
Vsofa
p875
sg63
V../experiment_stimuli/bw_bc_bl/Nonliving_Things/Furniture/sofa_21.jpg
p876
sg21
F0.50131888035684824
sS'trials.thisTrialN'
p877
I71
sa(dp878
g31
g32
sg17
F266.79286774923094
sg24
I0
sg35
g39
sg14
F266.78765269205905
sg16
g36
(g70
S'\x01\x00\x00\x00'
tRp879
sg42
g43
sg46
g47
sg15
g72
sg22
F269.19335071626119
sg64
g88
sg62
g74
sg49
g50
sS'trials.thisN'
p880
I72
sg19
I1
sg27
g36
(g38
S'\x00\x00\x00\x00\x00\x00\x18@'
tRp881
sg52
g53
sg23
S'2'
sg18
F268.03025577566586
sg33
g34
sg51
g11
sg20
S'1'
sg65
g36
(g77
S'\x00\x00\x00\x00\x00\x00\x00\x00'
tRp882
sg44
g45
sg40
g41
sg25
F0.10044216690585017
sS'trials.thisIndex'
p883
g36
(g80
S'<\x00\x00\x00'
tRp884
sg26
V5
sS'trials.thisRepN'
p885
I0
sg66
Vpelican
p886
sg63
V../experiment_stimuli/bw_bc_bl/Living_Things/Birds/pelican_0.jpg
p887
sg21
F1.1425517797470093
sS'trials.thisTrialN'
p888
I72
sa(dp889
g31
g32
sg17
F271.03222630196251
sg24
I1
sg35
g39
sg14
F271.02686914545484
sg16
g36
(g70
S'\x02\x00\x00\x00'
tRp890
sg42
g43
sg46
g47
sg15
g100
sg22
F272.44060612400062
sg64
g88
sg62
g74
sg49
g50
sS'trials.thisN'
p891
I73
sg19
I1
sg27
g36
(g38
S'\x00\x00\x00\x00\x00\x00\x1a@'
tRp892
sg52
g53
sg23
S'1'
sg18
F272.25945759448223
sg33
g34
sg51
g11
sg20
S'2'
sg65
g36
(g77
S'\x00\x00\x00\x00\x00\x00\x00\x00'
tRp893
sg44
g45
sg40
g41
sg25
F0.17043454409576952
sS'trials.thisIndex'
p894
g36
(g80
S'?\x00\x00\x00'
tRp895
sg26
V5
sS'trials.thisRepN'
p896
I0
sg66
Vpigeon
p897
sg63
V../experiment_stimuli/bw_bc_bl/Living_Things/Birds/pigeon_10.jpg
p898
sg21
F0.16058809473179281
sS'trials.thisTrialN'
p899
I73
sa(dp900
g31
g32
sg17
F274.35101453121752
sg24
I1
sg35
g39
sg14
F274.34409035206772
sg16
g36
(g70
S'\x01\x00\x00\x00'
tRp901
sg42
g43
sg46
g47
sg15
g100
sg22
F276.30901256483048
sg64
g101
sg62
g102
sg49
g50
sS'trials.thisN'
p902
I74
sg19
I0
sg27
g36
(g38
S'\x00\x00\x00\x00\x00\x00\x1e@'
tRp903
sg52
g53
sg23
S'1'
sg18
F275.60673269396648
sg33
g34
sg51
g11
sg20
S'2'
sg65
g36
(g77
S'\x00\x00\x00\x00\x00\x00\x00\x00'
tRp904
sg44
g45
sg40
g41
sg25
F0.17057841410860419
sS'trials.thisIndex'
p905
g36
(g80
S'@\x00\x00\x00'
tRp906
sg26
V5
sS'trials.thisRepN'
p907
I0
sg66
Vplane
p908
sg63
V../experiment_stimuli/bw_bc_bl/Nonliving_Things/Vehicles/plane_9.jpg
p909
sg21
F0.6817156202159822
sS'trials.thisTrialN'
p910
I74
sa(dp911
g31
g32
sg17
F278.2178142729681
sg24
I0
sg35
g39
sg14
F278.21249828883447
sg16
g36
(g70
S'\x01\x00\x00\x00'
tRp912
sg42
g43
sg46
g47
sg15
g100
sg22
F280.07718539959751
sg64
g229
sg62
g102
sg49
g50
sS'trials.thisN'
p913
I75
sg19
I1
sg27
g36
(g38
S'\x00\x00\x00\x00\x00\x00\x18@'
tRp914
sg52
g53
sg23
S'3'
sg18
F279.48515917523764
sg33
g34
sg51
g11
sg20
S'1'
sg65
g36
(g77
S'\x00\x00\x00\x00\x00\x00\x00\x00'
tRp915
sg44
g45
sg40
g41
sg25
F0.14052279945462942
sS'trials.thisIndex'
p916
g36
(g80
S'M\x00\x00\x00'
tRp917
sg26
V5
sS'trials.thisRepN'
p918
I0
sg66
Vsmall-saucepan
p919
sg63
V../experiment_stimuli/bw_bc_bl/Nonliving_Things/Kitchen_Uten/small-saucepan_4.jpg
p920
sg21
F0.57146748877130449
sS'trials.thisTrialN'
p921
I75
sa(dp922
g31
g32
sg17
F281.956011924427
sg24
I0
sg35
g39
sg14
F281.95061929849908
sg16
g36
(g70
S'\x01\x00\x00\x00'
tRp923
sg42
g43
sg46
g47
sg15
g100
sg22
F283.75520388269797
sg64
g560
sg62
g102
sg49
g50
sS'trials.thisN'
p924
I76
sg19
I1
sg27
g36
(g38
S'\x00\x00\x00\x00\x00\x00\x1e@'
tRp925
sg52
g53
sg23
S'3'
sg18
F283.19322590460069
sg33
g34
sg51
g11
sg20
S'1'
sg65
g36
(g77
S'\x00\x00\x00\x00\x00\x00\x00\x00'
tRp926
sg44
g45
sg40
g41
sg25
F0.15056795650161803
sS'trials.thisIndex'
p927
g36
(g80
S'Y\x00\x00\x00'
tRp928
sg26
V5
sS'trials.thisRepN'
p929
I0
sg66
Vtuba
p930
sg63
V../experiment_stimuli/bw_bc_bl/Nonliving_Things/Musical_Inst/tuba_1.jpg
p931
sg21
F0.54140094155445695
sS'trials.thisTrialN'
p932
I76
sa(dp933
g31
g32
sg17
F285.64396125404164
sg24
I0
sg35
g39
sg14
F285.63863524748012
sg16
g36
(g70
S'\x02\x00\x00\x00'
tRp934
sg42
g43
sg46
g47
sg15
g72
sg22
F287.47328485990874
sg64
g101
sg62
g102
sg49
g50
sS'trials.thisN'
p935
I77
sg19
I0
sg27
g36
(g38
S'\x00\x00\x00\x00\x00\x00\x1a@'
tRp936
sg52
g53
sg23
S'2'
sg18
F286.87122183572501
sg33
g34
sg51
g11
sg20
S'1'
sg65
g36
(g77
S'\x00\x00\x00\x00\x00\x00\x00\x00'
tRp937
sg44
g45
sg40
g41
sg25
F0.16057830164209008
sS'trials.thisIndex'
p938
g36
(g80
S'\t\x00\x00\x00'
tRp939
sg26
V5
sS'trials.thisRepN'
p940
I0
sg66
Vbus
p941
sg63
V../experiment_stimuli/bw_bc_bl/Nonliving_Things/Vehicles/bus_25.jpg
p942
sg21
F0.58149025519378483
sS'trials.thisTrialN'
p943
I77
sa(dp944
g31
g32
sg17
F289.37207060237415
sg24
I1
sg35
g39
sg14
F289.36675432487391
sg16
g36
(g70
S'\x01\x00\x00\x00'
tRp945
sg42
g43
sg46
g47
sg15
g72
sg22
F290.70030188467354
sg64
g88
sg62
g74
sg49
g50
sS'trials.thisN'
p946
I78
sg19
I0
sg27
g36
(g38
S'\x00\x00\x00\x00\x00\x00\x1a@'
tRp947
sg52
g53
sg23
S'1'
sg18
F290.59933355613612
sg33
g34
sg51
g11
sg20
S'2'
sg65
g36
(g77
S'\x00\x00\x00\x00\x00\x00\x00\x00'
tRp948
sg44
g45
sg40
g41
sg25
F0.16043596900999546
sS'trials.thisIndex'
p949
g36
(g80
S'8\x00\x00\x00'
tRp950
sg26
V5
sS'trials.thisRepN'
p951
I0
sg66
Vostrich
p952
sg63
V../experiment_stimuli/bw_bc_bl/Living_Things/Birds/ostrich_11.jpg
p953
sg21
F0.080420378595590591
sS'trials.thisTrialN'
p954
I78
sa(dp955
g31
g32
sg17
F292.59915179922245
sg24
I0
sg35
g39
sg14
F292.59375824104063
sg16
g36
(g70
S'\x02\x00\x00\x00'
tRp956
sg42
g43
sg46
g47
sg15
g72
sg22
F294.29811081313528
sg64
g101
sg62
g102
sg49
g50
sS'trials.thisN'
p957
I79
sg19
I1
sg27
g36
(g38
S'\x00\x00\x00\x00\x00\x00\x1e@'
tRp958
sg52
g53
sg23
S'3'
sg18
F293.86643718346022
sg33
g34
sg51
g11
sg20
S'2'
sg65
g36
(g77
S'\x00\x00\x00\x00\x00\x00\x00\x00'
tRp959
sg44
g45
sg40
g41
sg25
F0.14037380926311016
sS'trials.thisIndex'
p960
g36
(g80
S'[\x00\x00\x00'
tRp961
sg26
V5
sS'trials.thisRepN'
p962
I0
sg66
Vvan
p963
sg63
V../experiment_stimuli/bw_bc_bl/Nonliving_Things/Vehicles/van_2.jpg
p964
sg21
F0.41111570224165916
sS'trials.thisTrialN'
p965
I79
sa(dp966
g31
g32
sg17
F296.17844847450033
sg24
I1
sg35
g39
sg14
F296.17153774620965
sg16
g36
(g70
S'\x02\x00\x00\x00'
tRp967
sg42
g43
sg46
g47
sg15
g100
sg22
F297.65542381815612
sg64
g88
sg62
g74
sg49
g50
sS'trials.thisN'
p968
I80
sg19
I1
sg27
g36
(g38
S'\x00\x00\x00\x00\x00\x00\x1a@'
tRp969
sg52
g53
sg23
S'1'
sg18
F297.40412237192504
sg33
g34
sg51
g11
sg20
S'2'
sg65
g36
(g77
S'\x00\x00\x00\x00\x00\x00\x00\x00'
tRp970
sg44
g45
sg40
g41
sg25
F0.040309869917109609
sS'trials.thisIndex'
p971
g36
(g80
S'!\x00\x00\x00'
tRp972
sg26
V5
sS'trials.thisRepN'
p973
I0
sg66
Vgoldfinch
p974
sg63
V../experiment_stimuli/bw_bc_bl/Living_Things/Birds/goldfinch_18.jpg
p975
sg21
F0.23074724432080984
sS'trials.thisTrialN'
p976
I80
sa(dp977
g31
g32
sg17
F299.43408895400353
sg24
I1
sg35
g39
sg14
F299.4286250132136
sg16
g36
(g70
S'\x02\x00\x00\x00'
tRp978
sg42
g43
sg46
g47
sg15
g72
sg22
F301.09292879444547
sg64
g560
sg62
g102
sg49
g50
sS'trials.thisN'
p979
I81
sg19
I0
sg27
g36
(g38
S'\x00\x00\x00\x00\x00\x00\x1a@'
tRp980
sg52
g53
sg23
S'1'
sg18
F300.68124500242993
sg33
g34
sg51
g11
sg20
S'1'
sg65
g36
(g77
S'\x00\x00\x00\x00\x00\x00\x00\x00'
tRp981
sg44
g45
sg40
g41
sg25
F0.20066902483813465
sS'trials.thisIndex'
p982
g36
(g80
S'>\x00\x00\x00'
tRp983
sg26
V5
sS'trials.thisRepN'
p984
I0
sg66
Vpiano
p985
sg63
V../experiment_stimuli/bw_bc_bl/Nonliving_Things/Musical_Inst/piano__10.jpg
p986
sg21
F0.39110807538963854
sS'trials.thisTrialN'
p987
I81
sa(dp988
g31
g32
sg17
F303.03185799601488
sg24
I0
sg35
g39
sg14
F303.02643836662173
sg16
g36
(g70
S'\x02\x00\x00\x00'
tRp989
sg42
g43
sg46
g47
sg15
g72
sg22
F304.97132493043318
sg64
g114
sg62
g102
sg49
g50
sS'trials.thisN'
p990
I82
sg19
I1
sg27
g36
(g38
S'\x00\x00\x00\x00\x00\x00\x1a@'
tRp991
sg52
g53
sg23
S'2'
sg18
F304.30913264723495
sg33
g34
sg51
g11
sg20
S'2'
sg65
g36
(g77
S'\x00\x00\x00\x00\x00\x00\x00\x00'
tRp992
sg44
g45
sg40
g41
sg25
F0.26080237375572324
sS'trials.thisIndex'
p993
g36
(g80
S'/\x00\x00\x00'
tRp994
sg26
V5
sS'trials.thisRepN'
p995
I0
sg66
Vlectern
p996
sg63
V../experiment_stimuli/bw_bc_bl/Nonliving_Things/Furniture/lectern_20.jpg
p997
sg21
F0.6416209654416889
sS'trials.thisTrialN'
p998
I82
sa(dp999
g31
g32
sg17
F306.97208134434186
sg24
I0
sg35
g39
sg14
F306.9650009192992
sg16
g36
(g70
S'\x02\x00\x00\x00'
tRp1000
sg42
g43
sg46
g47
sg15
g72
sg22
F308.79964785091579
sg64
g560
sg62
g102
sg49
g50
sS'trials.thisN'
p1001
I83
sg19
I1
sg27
g36
(g38
S'\x00\x00\x00\x00\x00\x00\x18@'
tRp1002
sg52
g53
sg23
S'3'
sg18
F308.23767087678425
sg33
g34
sg51
g11
sg20
S'2'
sg65
g36
(g77
S'\x00\x00\x00\x00\x00\x00\x00\x00'
tRp1003
sg44
g45
sg40
g41
sg25
F0.15056732483208179
sS'trials.thisIndex'
p1004
g36
(g80
S'X\x00\x00\x00'
tRp1005
sg26
V5
sS'trials.thisRepN'
p1006
I0
sg66
Vtrumpet
p1007
sg63
V../experiment_stimuli/bw_bc_bl/Nonliving_Things/Musical_Inst/trumpet_4.jpg
p1008
sg21
F0.54140252806246281
sS'trials.thisTrialN'
p1009
I83
sa(dp1010
g31
g32
sg17
F310.6886501701083
sg24
I0
sg35
g39
sg14
F310.68308476451784
sg16
g36
(g70
S'\x02\x00\x00\x00'
tRp1011
sg42
g43
sg46
g47
sg15
g72
sg22
F312.54778030375019
sg64
g101
sg62
g102
sg49
g50
sS'trials.thisN'
p1012
I84
sg19
I1
sg27
g36
(g38
S'\x00\x00\x00\x00\x00\x00\x18@'
tRp1013
sg52
g53
sg23
S'2'
sg18
F311.91568720946088
sg33
g34
sg51
g11
sg20
S'2'
sg65
g36
(g77
S'\x00\x00\x00\x00\x00\x00\x00\x00'
tRp1014
sg44
g45
sg40
g41
sg25
F0.4211319989990443
sS'trials.thisIndex'
p1015
g36
(g80
S'V\x00\x00\x00'
tRp1016
sg26
V5
sS'trials.thisRepN'
p1017
I0
sg66
Vtractor
p1018
sg63
V../experiment_stimuli/bw_bc_bl/Nonliving_Things/Vehicles/tractor_11.jpg
p1019
sg21
F0.61155994469299912
sS'trials.thisTrialN'
p1020
I84
sa(dp1021
g31
g32
sg17
F314.70740688615479
sg24
I1
sg35
g39
sg14
F314.70182586810552
sg16
g36
(g70
S'\x01\x00\x00\x00'
tRp1022
sg42
g43
sg46
g47
sg15
g72
sg22
F316.56653774506412
sg64
g88
sg62
g74
sg49
g50
sS'trials.thisN'
p1023
I85
sg19
I0
sg27
g36
(g38
S'\x00\x00\x00\x00\x00\x00\x1c@'
tRp1024
sg52
g53
sg23
S'1'
sg18
F315.93440692615695
sg33
g34
sg51
g11
sg20
S'2'
sg65
g36
(g77
S'\x00\x00\x00\x00\x00\x00\x00\x00'
tRp1025
sg44
g45
sg40
g41
sg25
F0.18061642837710679
sS'trials.thisIndex'
p1026
g36
(g80
S'C\x00\x00\x00'
tRp1027
sg26
V5
sS'trials.thisRepN'
p1028
I0
sg66
Vraven
p1029
sg63
V../experiment_stimuli/bw_bc_bl/Living_Things/Birds/raven_17.jpg
p1030
sg21
F0.61155173438601196
sS'trials.thisTrialN'
p1031
I85
sa(dp1032
g31
g32
sg17
F318.485708481865
sg24
I0
sg35
g39
sg14
F318.48004157398827
sg16
g36
(g70
S'\x01\x00\x00\x00'
tRp1033
sg42
g43
sg46
g47
sg15
g100
sg22
F320.3146754684858
sg64
g101
sg62
g102
sg49
g50
sS'trials.thisN'
p1034
I86
sg19
I1
sg27
g36
(g38
S'\x00\x00\x00\x00\x00\x00\x1c@'
tRp1035
sg52
g53
sg23
S'3'
sg18
F319.74269361514598
sg33
g34
sg51
g11
sg20
S'1'
sg65
g36
(g77
S'\x00\x00\x00\x00\x00\x00\x00\x00'
tRp1036
sg44
g45
sg40
g41
sg25
F0.13050779257901013
sS'trials.thisIndex'
p1037
g36
(g80
S'\x0b\x00\x00\x00'
tRp1038
sg26
V5
sS'trials.thisRepN'
p1039
I0
sg66
Vcar
p1040
sg63
V../experiment_stimuli/bw_bc_bl/Nonliving_Things/Vehicles/car_16.jpg
p1041
sg21
F0.55142869660630822
sS'trials.thisTrialN'
p1042
I86
sa(dp1043
g31
g32
sg17
F322.18364063464105
sg24
I0
sg35
g39
sg14
F322.17808281932957
sg16
g36
(g70
S'\x02\x00\x00\x00'
tRp1044
sg42
g43
sg46
g47
sg15
g72
sg22
F324.03273627650924
sg64
g217
sg62
g102
sg49
g50
sS'trials.thisN'
p1045
I87
sg19
I1
sg27
g36
(g38
S'\x00\x00\x00\x00\x00\x00\x18@'
tRp1046
sg52
g53
sg23
S'2'
sg18
F323.42068184306845
sg33
g34
sg51
g11
sg20
S'2'
sg65
g36
(g77
S'\x00\x00\x00\x00\x00\x00\x00\x00'
tRp1047
sg44
g45
sg40
g41
sg25
F0.21068625338375568
sS'trials.thisIndex'
p1048
g36
(g80
S'\x0c\x00\x00\x00'
tRp1049
sg26
V5
sS'trials.thisRepN'
p1050
I0
sg66
Vcastle
p1051
sg63
V../experiment_stimuli/bw_bc_bl/Nonliving_Things/Buildings/castle_1.jpg
p1052
sg21
F0.59151536715216935
sS'trials.thisTrialN'
p1053
I87
sa(dp1054
g31
g32
sg17
F325.98186115920544
sg24
I1
sg35
g39
sg14
F325.97635759878904
sg16
g36
(g70
S'\x02\x00\x00\x00'
tRp1055
sg42
g43
sg46
g47
sg15
g72
sg22
F327.53035156871192
sg64
g217
sg62
g102
sg49
g50
sS'trials.thisN'
p1056
I88
sg19
I1
sg27
g36
(g38
S'\x00\x00\x00\x00\x00\x00\x18@'
tRp1057
sg52
g53
sg23
S'1'
sg18
F327.20892331888899
sg33
g34
sg51
g11
sg20
S'2'
sg65
g36
(g77
S'\x00\x00\x00\x00\x00\x00\x00\x00'
tRp1058
sg44
g45
sg40
g41
sg25
F0.060363158117979765
sS'trials.thisIndex'
p1059
g36
(g80
S')\x00\x00\x00'
tRp1060
sg26
V5
sS'trials.thisRepN'
p1061
I0
sg66
Vhouse
p1062
sg63
V../experiment_stimuli/bw_bc_bl/Nonliving_Things/Buildings/house_5.jpg
p1063
sg21
F0.3008746684063226
sS'trials.thisTrialN'
p1064
I88
sa(dp1065
g31
g32
sg17
F329.32935049617663
sg24
I0
sg35
g39
sg14
F329.3236122590024
sg16
g36
(g70
S'\x01\x00\x00\x00'
tRp1066
sg42
g43
sg46
g47
sg15
g100
sg22
F331.24844411714002
sg64
g114
sg62
g102
sg49
g50
sS'trials.thisN'
p1067
I89
sg19
I1
sg27
g36
(g38
S'\x00\x00\x00\x00\x00\x00\x1c@'
tRp1068
sg52
g53
sg23
S'2'
sg18
F330.58627082244493
sg33
g34
sg51
g11
sg20
S'1'
sg65
g36
(g77
S'\x00\x00\x00\x00\x00\x00\x00\x00'
tRp1069
sg44
g45
sg40
g41
sg25
F0.12050718767568469
sS'trials.thisIndex'
p1070
g36
(g80
S'\x08\x00\x00\x00'
tRp1071
sg26
V5
sS'trials.thisRepN'
p1072
I0
sg66
Vbookcase
p1073
sg63
V../experiment_stimuli/bw_bc_bl/Nonliving_Things/Furniture/bookcase_10.jpg
p1074
sg21
F0.64162117592059076
sS'trials.thisTrialN'
p1075
I89
sa(dp1076
g31
g32
sg17
F333.10747844027355
sg24
I0
sg35
g39
sg14
F333.10183016769588
sg16
g36
(g70
S'\x02\x00\x00\x00'
tRp1077
sg42
g43
sg46
g47
sg15
g100
sg22
F335.06659326632507
sg64
g73
sg62
g74
sg49
g50
sS'trials.thisN'
p1078
I90
sg19
I1
sg27
g36
(g38
S'\x00\x00\x00\x00\x00\x00\x1a@'
tRp1079
sg52
g53
sg23
S'2'
sg18
F334.35445324331522
sg33
g34
sg51
g11
sg20
S'2'
sg65
g36
(g77
S'\x00\x00\x00\x00\x00\x00\x00\x00'
tRp1080
sg44
g45
sg40
g41
sg25
F0.18062153737992048
sS'trials.thisIndex'
p1081
g36
(g80
S'D\x00\x00\x00'
tRp1082
sg26
V5
sS'trials.thisRepN'
p1083
I0
sg66
Vrhino
p1084
sg63
V../experiment_stimuli/bw_bc_bl/Living_Things/Animals/rhino_1.jpg
p1085
sg21
F0.69157207291573286
sS'trials.thisTrialN'
p1086
I90
sa(dp1087
g31
g32
sg17
F336.9859361355193
sg24
I1
sg35
g39
sg14
F336.98025951744057
sg16
g36
(g70
S'\x01\x00\x00\x00'
tRp1088
sg42
g43
sg46
g47
sg15
g100
sg22
F339.15564659959637
sg64
g229
sg62
g102
sg49
g50
sS'trials.thisN'
p1089
I91
sg19
I0
sg27
g36
(g38
S'\x00\x00\x00\x00\x00\x00\x18@'
tRp1090
sg52
g53
sg23
S'1'
sg18
F338.22287905216217
sg33
g34
sg51
g11
sg20
S'2'
sg65
g36
(g77
S'\x00\x00\x00\x00\x00\x00\x00\x00'
tRp1091
sg44
g45
sg40
g41
sg25
F0.28083246294409037
sS'trials.thisIndex'
p1092
g36
(g80
S'\x1f\x00\x00\x00'
tRp1093
sg26
V5
sS'trials.thisRepN'
p1094
I0
sg66
Vfrying-pan
p1095
sg63
V../experiment_stimuli/bw_bc_bl/Nonliving_Things/Kitchen_Uten/frying-pan_25.jpg
p1096
sg21
F0.91222235676832497
sS'trials.thisTrialN'
p1097
I91
sa(dp1098
g31
g32
sg17
F341.17513424507342
sg24
I0
sg35
g39
sg14
F341.16936779022217
sg16
g36
(g70
S'\x01\x00\x00\x00'
tRp1099
sg42
g43
sg46
g47
sg15
g72
sg22
F343.07414325140417
sg64
g88
sg62
g74
sg49
g50
sS'trials.thisN'
p1100
I92
sg19
I1
sg27
g36
(g38
S'\x00\x00\x00\x00\x00\x00 @'
tRp1101
sg52
g53
sg23
S'3'
sg18
F342.44204241316766
sg33
g34
sg51
g11
sg20
S'1'
sg65
g36
(g77
S'\x00\x00\x00\x00\x00\x00\x00\x00'
tRp1102
sg44
g45
sg40
g41
sg25
F0.14052306255325675
sS'trials.thisIndex'
p1103
g36
(g80
S'"\x00\x00\x00'
tRp1104
sg26
V5
sS'trials.thisRepN'
p1105
I0
sg66
Vgoose
p1106
sg63
V../experiment_stimuli/bw_bc_bl/Living_Things/Birds/goose_15.jpg
p1107
sg21
F0.61155756865628064
sS'trials.thisTrialN'
p1108
I92
sa(dp1109
g31
g32
sg17
F344.95482918573543
sg24
I0
sg35
g39
sg14
F344.94758360134438
sg16
g36
(g70
S'\x02\x00\x00\x00'
tRp1110
sg42
g43
sg46
g47
sg15
g72
sg22
F347.09293271112256
sg64
g114
sg62
g102
sg49
g50
sS'trials.thisN'
p1111
I93
sg19
I1
sg27
g36
(g38
S'\x00\x00\x00\x00\x00\x00\x1c@'
tRp1112
sg52
g53
sg23
S'2'
sg18
F346.20020884624682
sg33
g34
sg51
g11
sg20
S'2'
sg65
g36
(g77
S'\x00\x00\x00\x00\x00\x00\x00\x00'
tRp1113
sg44
g45
sg40
g41
sg25
F0.1806145750451833
sS'trials.thisIndex'
p1114
g36
(g80
S'\x06\x00\x00\x00'
tRp1115
sg26
V5
sS'trials.thisRepN'
p1116
I0
sg66
Vbedside-table
p1117
sg63
V../experiment_stimuli/bw_bc_bl/Nonliving_Things/Furniture/bedside-table_12.jpg
p1118
sg21
F0.87216033623553813
sS'trials.thisTrialN'
p1119
I93
sa(dp1120
g31
g32
sg17
F349.02206901204772
sg24
I1
sg35
g39
sg14
F349.01643081428483
sg16
g36
(g70
S'\x01\x00\x00\x00'
tRp1121
sg42
g43
sg46
g47
sg15
g72
sg22
F350.37002960173413
sg64
g148
sg62
g74
sg49
g50
sS'trials.thisN'
p1122
I94
sg19
I0
sg27
g36
(g38
S'\x00\x00\x00\x00\x00\x00\x18@'
tRp1123
sg52
g53
sg23
S'1'
sg18
F350.25904710451141
sg33
g34
sg51
g11
sg20
S'2'
sg65
g36
(g77
S'\x00\x00\x00\x00\x00\x00\x00\x00'
tRp1124
sg44
g45
sg40
g41
sg25
F0.14054488181136549
sS'trials.thisIndex'
p1125
g36
(g80
S'\x17\x00\x00\x00'
tRp1126
sg26
V5
sS'trials.thisRepN'
p1127
I0
sg66
Vdolphin
p1128
sg63
V../experiment_stimuli/bw_bc_bl/Living_Things/Marine_creatures/dolphin_2.jpg
p1129
sg21
F0.090436896309256554
sS'trials.thisTrialN'
p1130
I94
sa(dp1131
g31
g32
sg17
F352.24911587848328
sg24
I1
sg35
g39
sg14
F352.24344146694057
sg16
g36
(g70
S'\x02\x00\x00\x00'
tRp1132
sg42
g43
sg46
g47
sg15
g100
sg22
F354.1583229075186
sg64
g148
sg62
g74
sg49
g50
sS'trials.thisN'
p1133
I95
sg19
I1
sg27
g36
(g38
S'\x00\x00\x00\x00\x00\x00\x18@'
tRp1134
sg52
g53
sg23
S'1'
sg18
F353.49607082805596
sg33
g34
sg51
g11
sg20
S'2'
sg65
g36
(g77
S'\x00\x00\x00\x00\x00\x00\x00\x00'
tRp1135
sg44
g45
sg40
g41
sg25
F0.180639055557549
sS'trials.thisIndex'
p1136
g36
(g80
S'7\x00\x00\x00'
tRp1137
sg26
V5
sS'trials.thisRepN'
p1138
I0
sg66
Vnarwhal
p1139
sg63
V../experiment_stimuli/bw_bc_bl/Living_Things/Marine_creatures/narwhal_19.jpg
p1140
sg21
F0.64167238539084792
sS'trials.thisTrialN'
p1141
I95
sasS'loops'
p1142
(lp1143
g1
(cpsychopy.data
TrialHandler
p1144
g3
NtRp1145
(dp1146
S'origin'
p1147
NsS'thisTrial'
p1148
(lp1149
sS'_exp'
p1150
I97317136
sg10
S'trials'
p1151
sg6
I-1
sS'thisRepN'
p1152
I1
sg28
I01
sg29
g30
sS'data'
p1153
g1
(cpsychopy.data
DataHandler
p1154
c__builtin__
dict
p1155
(dp1156
g20
cnumpy.core.multiarray
_reconstruct
p1157
(cnumpy
ndarray
p1158
(I0
tS'b'
tRp1159
(I1
(I96
I1
tg37
(S'O4'
I0
I1
tRp1160
(I3
S'|'
NNNI-1
I-1
I63
tbI00
(lp1161
S'1'
aS'1'
aS'1'
aS'2'
aS'2'
aS'1'
aS'2'
aS'1'
aS'1'
aS'1'
aS'2'
aS'1'
aS'2'
aS'2'
aS'2'
aS'1'
aS'2'
aS'1'
aS'2'
aS'1'
aS'2'
aS'1'
aS'1'
aS'2'
aS'1'
aS'2'
aS'2'
aS'1'
aS'2'
aS'1'
aS'2'
aS'2'
aS'1'
aS'2'
aS'1'
aS'1'
aS'2'
aS'1'
aS'1'
aS'2'
aS'2'
aS'2'
aS'2'
aS'1'
aS'1'
aS'1'
aS'2'
aS'2'
aS'2'
aS'2'
aS'2'
aS'1'
aS'2'
aS'2'
aS'1'
aS'2'
aS'2'
aS'2'
aS'2'
aS'1'
aS'1'
aS'1'
aS'1'
aS'2'
aS'2'
aS'1'
aS'2'
aS'2'
aS'2'
aS'1'
aS'1'
aS'2'
aS'2'
aS'2'
aS'2'
aS'1'
aS'1'
aS'1'
aS'1'
aS'2'
aS'2'
aS'2'
aS'2'
aS'2'
aS'2'
aS'1'
aS'2'
aS'2'
aS'2'
aS'1'
aS'1'
aS'2'
aS'1'
aS'1'
aS'1'
aS'2'
atbsg17
cnumpy.ma.core
_mareconstruct
p1162
(cnumpy.ma.core
MaskedArray
p1163
g1158
(I0
tp1164
S'b'
tRp1165
(I1
(I96
I1
tg37
(S'f4'
I0
I1
tRp1166
(I3
S'<'
NNNI-1
I-1
I0
tbI00
S"F\xe8\x14CF;o@\xa2\xab$C3a\xb5B\xf3t\xeaB7\xd4iA8z\xacC\xa9\xc3fC(\xaa\xa4Cm\xd2\x8eC\x89RJC,>\x9fC\x82\x17\xa1C\xfb\xa9\nC~\x94<B\x92\x92\x96B\xf9sxC\xe2\x9d+C\x15&\x1aC\xa0D_CC\xce\x1dC\xf0\x00\xd2B\xfb\x02JB\xd3\x82\xaeC[\xd8\x10B\x89\r!C:\x89\x03B3;-Bq&fBt-\x92A\x1e\xe4\rC3~\xa8C\xae\x8bBC\xd7\x16\x94Ck\x96\xaaC\xf8\xd5\x06C\xf4\xc8tCTs\xeaA \x99>Cs\x0c\x9eB@Y(C\xae\xfd\xa2C\x90ijC\xc03YBUF/C\x87\xb0mC\xe4\xa8MC\x14\x84\x97C\\[\x1fB@tFC\x90!|CP\xe3\xcaB\x90\xedTC\x08\xba\x80B\x05\xf9\xf0B\xe3\x1f\xb0C\xa0\xaf\x90Cg+\xa6B\x1f\xec\xd9B\x00\xf6\xaeA}e\x85C\xaaH\xf0@\x90\xb7\x95C \x84\x87C\xee,\x89C'\x04cCP\xa9\x11C\x8cZ\x9dC\xc2\x8d\xa6C\xdd\x04\xe3B\xe8\xcd\x81C&p\x7fC\x1apqC=\x8a\x8fB\xb6\xd1\xfeB\xef \x03C\x9d\xdbrB\xe1\x1b\x8bC\x90\x89\x83ChHXC\x03\x10\xccA1S\xf8Bl\xf3[C\x8au:C\xeeh\xc3B\x8aA\xbcB&X\x9bC\xd1\xe90Am|\x99C_\xfa\x8cC\xbf*\xaeB\xb1L\x92C\x9c\xb82C\xcc3\x88B_?QCn\xbd6C"
S'\x00\x00\x00\x00\x00\x00\x00\x00\x00\x00\x00\x00\x00\x00\x00\x00\x00\x00\x00\x00\x00\x00\x00\x00\x00\x00\x00\x00\x00\x00\x00\x00\x00\x00\x00\x00\x00\x00\x00\x00\x00\x00\x00\x00\x00\x00\x00\x00\x00\x00\x00\x00\x00\x00\x00\x00\x00\x00\x00\x00\x00\x00\x00\x00\x00\x00\x00\x00\x00\x00\x00\x00\x00\x00\x00\x00\x00\x00\x00\x00\x00\x00\x00\x00\x00\x00\x00\x00\x00\x00\x00\x00\x00\x00\x00\x00'
NtbsS'ran'
p1167
g1162
(g1163
g1158
g1164
S'b'
tRp1168
(I1
(I96
I1
tg1166
I00
S'\x00\x00\x80?\x00\x00\x80?\x00\x00\x80?\x00\x00\x80?\x00\x00\x80?\x00\x00\x80?\x00\x00\x80?\x00\x00\x80?\x00\x00\x80?\x00\x00\x80?\x00\x00\x80?\x00\x00\x80?\x00\x00\x80?\x00\x00\x80?\x00\x00\x80?\x00\x00\x80?\x00\x00\x80?\x00\x00\x80?\x00\x00\x80?\x00\x00\x80?\x00\x00\x80?\x00\x00\x80?\x00\x00\x80?\x00\x00\x80?\x00\x00\x80?\x00\x00\x80?\x00\x00\x80?\x00\x00\x80?\x00\x00\x80?\x00\x00\x80?\x00\x00\x80?\x00\x00\x80?\x00\x00\x80?\x00\x00\x80?\x00\x00\x80?\x00\x00\x80?\x00\x00\x80?\x00\x00\x80?\x00\x00\x80?\x00\x00\x80?\x00\x00\x80?\x00\x00\x80?\x00\x00\x80?\x00\x00\x80?\x00\x00\x80?\x00\x00\x80?\x00\x00\x80?\x00\x00\x80?\x00\x00\x80?\x00\x00\x80?\x00\x00\x80?\x00\x00\x80?\x00\x00\x80?\x00\x00\x80?\x00\x00\x80?\x00\x00\x80?\x00\x00\x80?\x00\x00\x80?\x00\x00\x80?\x00\x00\x80?\x00\x00\x80?\x00\x00\x80?\x00\x00\x80?\x00\x00\x80?\x00\x00\x80?\x00\x00\x80?\x00\x00\x80?\x00\x00\x80?\x00\x00\x80?\x00\x00\x80?\x00\x00\x80?\x00\x00\x80?\x00\x00\x80?\x00\x00\x80?\x00\x00\x80?\x00\x00\x80?\x00\x00\x80?\x00\x00\x80?\x00\x00\x80?\x00\x00\x80?\x00\x00\x80?\x00\x00\x80?\x00\x00\x80?\x00\x00\x80?\x00\x00\x80?\x00\x00\x80?\x00\x00\x80?\x00\x00\x80?\x00\x00\x80?\x00\x00\x80?\x00\x00\x80?\x00\x00\x80?\x00\x00\x80?\x00\x00\x80?\x00\x00\x80?\x00\x00\x80?'
S'\x00\x00\x00\x00\x00\x00\x00\x00\x00\x00\x00\x00\x00\x00\x00\x00\x00\x00\x00\x00\x00\x00\x00\x00\x00\x00\x00\x00\x00\x00\x00\x00\x00\x00\x00\x00\x00\x00\x00\x00\x00\x00\x00\x00\x00\x00\x00\x00\x00\x00\x00\x00\x00\x00\x00\x00\x00\x00\x00\x00\x00\x00\x00\x00\x00\x00\x00\x00\x00\x00\x00\x00\x00\x00\x00\x00\x00\x00\x00\x00\x00\x00\x00\x00\x00\x00\x00\x00\x00\x00\x00\x00\x00\x00\x00\x00'
Ntbsg24
g1162
(g1163
g1158
g1164
S'b'
tRp1169
(I1
(I96
I1
tg1166
I00
S'\x00\x00\x80?\x00\x00\x00\x00\x00\x00\x00\x00\x00\x00\x80?\x00\x00\x80?\x00\x00\x00\x00\x00\x00\x00\x00\x00\x00\x00\x00\x00\x00\x00\x00\x00\x00\x00\x00\x00\x00\x80?\x00\x00\x00\x00\x00\x00\x00\x00\x00\x00\x80?\x00\x00\x80?\x00\x00\x80?\x00\x00\x00\x00\x00\x00\x00\x00\x00\x00\x00\x00\x00\x00\x80?\x00\x00\x80?\x00\x00\x00\x00\x00\x00\x00\x00\x00\x00\x80?\x00\x00\x00\x00\x00\x00\x00\x00\x00\x00\x80?\x00\x00\x00\x00\x00\x00\x80?\x00\x00\x00\x00\x00\x00\x00\x00\x00\x00\x80?\x00\x00\x00\x00\x00\x00\x80?\x00\x00\x00\x00\x00\x00\x00\x00\x00\x00\x00\x00\x00\x00\x00\x00\x00\x00\x80?\x00\x00\x00\x00\x00\x00\x80?\x00\x00\x80?\x00\x00\x80?\x00\x00\x00\x00\x00\x00\x80?\x00\x00\x00\x00\x00\x00\x00\x00\x00\x00\x00\x00\x00\x00\x80?\x00\x00\x00\x00\x00\x00\x80?\x00\x00\x80?\x00\x00\x80?\x00\x00\x00\x00\x00\x00\x00\x00\x00\x00\x80?\x00\x00\x80?\x00\x00\x00\x00\x00\x00\x00\x00\x00\x00\x80?\x00\x00\x00\x00\x00\x00\x00\x00\x00\x00\x80?\x00\x00\x80?\x00\x00\x80?\x00\x00\x00\x00\x00\x00\x80?\x00\x00\x80?\x00\x00\x00\x00\x00\x00\x00\x00\x00\x00\x80?\x00\x00\x00\x00\x00\x00\x80?\x00\x00\x80?\x00\x00\x00\x00\x00\x00\x80?\x00\x00\x00\x00\x00\x00\x00\x00\x00\x00\x00\x00\x00\x00\x00\x00\x00\x00\x00\x00\x00\x00\x80?\x00\x00\x80?\x00\x00\x00\x00\x00\x00\x00\x00\x00\x00\x00\x00\x00\x00\x00\x00\x00\x00\x80?\x00\x00\x00\x00\x00\x00\x00\x00\x00\x00\x00\x00\x00\x00\x00\x00\x00\x00\x80?\x00\x00\x80?\x00\x00\x00\x00\x00\x00\x00\x00'
S'\x00\x00\x00\x00\x00\x00\x00\x00\x00\x00\x00\x00\x00\x00\x00\x00\x00\x00\x00\x00\x00\x00\x00\x00\x00\x00\x00\x00\x00\x00\x00\x00\x00\x00\x00\x00\x00\x00\x00\x00\x00\x00\x00\x00\x00\x00\x00\x00\x00\x00\x00\x00\x00\x00\x00\x00\x00\x00\x00\x00\x00\x00\x00\x00\x00\x00\x00\x00\x00\x00\x00\x00\x00\x00\x00\x00\x00\x00\x00\x00\x00\x00\x00\x00\x00\x00\x00\x00\x00\x00\x00\x00\x00\x00\x00\x00'
Ntbsg14
g1162
(g1163
g1158
g1164
S'b'
tRp1170
(I1
(I96
I1
tg1166
I00
S"\xc1\xe6\x14Cy\xcem@g\xaa$C\x9d^\xb5B\xe9q\xeaB+\xc0iAJy\xacCe\xc2fCl\xa9\xa4C\xbf\xd1\x8eCIQJCr=\x9fC\xcb\x16\xa1C\xba\xa8\nC~\x8f<B\x06\x90\x96B\xa2rxCY\x9c+C\x8c$\x1aCVC_C\xfb\xcc\x1dC\xe8\xfd\xd1B\\\xfdIB\x1a\x82\xaeCO\xd3\x10B:\x0c!C:\x84\x03B\x075-B\x81!fB\x8e#\x92A\xd8\xe2\rCy}\xa8Cc\x8aBC\xf5\x15\x94C\xae\x95\xaaC\xae\xd4\x06C\xa1\xc7tC'i\xeaA\x8d\x97>C\xf4\t\x9eB\xf8W(C\xf9\xfc\xa2CBhjC\xcc.YB\xc8D/C3\xafmC\x9d\xa7MCb\x83\x97CCV\x1fB\xf8rFC3 |CY\xe0\xcaB\xa9\xebTC\x16\xb7\x80B\x8b\xf5\xf0B)\x1f\xb0C\xf2\xae\x90C\x10(\xa6B\xb6\xe8\xd9B\xe2\xeb\xaeA\xd2d\x85Ck \xf0@\xdd\xb6\x95Cp\x83\x87C\x0b,\x89C\xdc\x02cC\x80\xa7\x11C\xd5Y\x9dC\t\x8d\xa6CA\x02\xe3B\x10\xcd\x81C\xd7n\x7fC\xbbnqC\xfe\x86\x8fB+\xcf\xfeBk\x1f\x03C\xa7\xd6rB3\x1b\x8bC\xe8\x88\x83C!GXCS\x06\xccA\xacP\xf8B!\xf2[C\xf8s:Cnf\xc3B\x99>\xbcBoW\x9bC\xa5\xd30A\x85{\x99C\xae\xf9\x8cCf'\xaeB\x00L\x92CW\xb72C\xfd0\x88B\x18>QC#\xbc6C"
S'\x00\x00\x00\x00\x00\x00\x00\x00\x00\x00\x00\x00\x00\x00\x00\x00\x00\x00\x00\x00\x00\x00\x00\x00\x00\x00\x00\x00\x00\x00\x00\x00\x00\x00\x00\x00\x00\x00\x00\x00\x00\x00\x00\x00\x00\x00\x00\x00\x00\x00\x00\x00\x00\x00\x00\x00\x00\x00\x00\x00\x00\x00\x00\x00\x00\x00\x00\x00\x00\x00\x00\x00\x00\x00\x00\x00\x00\x00\x00\x00\x00\x00\x00\x00\x00\x00\x00\x00\x00\x00\x00\x00\x00\x00\x00\x00'
Ntbsg16
g1157
(g1158
(I0
tS'b'
tRp1171
(I1
(I96
I1
tg1160
I00
(lp1172
g526
ag71
ag571
ag350
ag427
ag113
ag1110
ag769
ag1066
ag934
ag681
ag1033
ag1044
ag493
ag216
ag306
ag824
ag593
ag537
ag747
ag548
ag394
ag228
ag1121
ag182
ag559
ag171
ag205
ag251
ag125
ag504
ag1088
ag659
ag967
ag1099
ag482
ag813
ag159
ag648
ag317
ag582
ag1055
ag780
ag240
ag604
ag791
ag692
ag989
ag194
ag670
ag835
ag383
ag714
ag273
ag438
ag1132
ag945
ag328
ag405
ag136
ag879
ag87
ag978
ag890
ag901
ag758
ag515
ag1022
ag1077
ag416
ag857
ag846
ag802
ag295
ag460
ag471
ag262
ag912
ag868
ag725
ag147
ag449
ag736
ag637
ag372
ag361
ag1011
ag99
ag1000
ag923
ag339
ag956
ag615
ag284
ag703
ag626
atbsg15
g1157
(g1158
(I0
tS'b'
tRp1173
(I1
(I96
I1
tg1160
I00
(lp1174
g100
ag72
ag100
ag72
ag72
ag100
ag72
ag100
ag100
ag72
ag72
ag100
ag72
ag72
ag100
ag72
ag72
ag100
ag72
ag100
ag72
ag100
ag100
ag72
ag72
ag72
ag72
ag72
ag100
ag100
ag72
ag100
ag100
ag100
ag72
ag100
ag72
ag100
ag72
ag100
ag72
ag72
ag100
ag72
ag72
ag100
ag72
ag72
ag72
ag100
ag72
ag100
ag100
ag72
ag100
ag100
ag72
ag100
ag72
ag100
ag72
ag72
ag72
ag100
ag100
ag100
ag100
ag72
ag100
ag72
ag100
ag72
ag72
ag72
ag100
ag72
ag100
ag100
ag100
ag100
ag100
ag100
ag100
ag72
ag72
ag100
ag72
ag100
ag72
ag100
ag72
ag72
ag100
ag100
ag72
ag100
atbsg22
g1162
(g1163
g1158
g1164
S'b'
tRp1175
(I1
(I96
I1
tg1166
I00
S'|]\x16C#\xca\xb5@\x7f}&C\xed\x93\xb8B\rU\xedB2\xe9\x82A\xe5\x8b\xadC[\x90hC\xcd\x9f\xa5C\x95\xbc\x8fC\xb9\xcfKCG(\xa0C1\x04\xa2C\xd0\x05\x0cC\xd8\x93BB\xb4!\x9aB\x8c\xdcyC\xe1l-Cb\xed\x1bC\x02\x19aC=\x1d\x1fC\x84)\xd6B\xdd\x9bQB]/\xafC\x99\xcd\x17B\xef\xcf"C\x08\xa7\tB\n%4B\x83bkB\xd1U\xa0A5\xc0\x0fC\xec\x93\xa9C\x82\x98DC\xe5\xd3\x94C~\x89\xabCB\xce\x08C\x9a\x95vCtg\xf7A\x9e|@C\x18J\xa2Bq\xc4)C\xe3\xc3\xa3C\x8f\xe1kC\x04\x14_BZ\xc80Cg\x99oC\xc5hOCT|\x98C\x84\'&B\xf3iHCa\x94}C\x10%\xceB[tVC\xcdq\x84By\x91\xf4BD\x14\xb1C\xa3Y\x91CqI\xaaBe\x05\xdfBH\x13\xbcA\xc0\x98\x86C1\xda\x12A\xe5\x8b\x96Cf8\x88C\x8e\'\x8aC\\\xe5dC\xe4\xfc\x12C\x84H\x9eC\x86\x88\xa7C\x0f\x99\xe6B\xac\x9b\x82C!\xd8\x80Cy\xe5rC\xb3\xcb\x92B\x8f5\x01C?\xe8\x04Cw\xe5yB\xe1\t\x8cC\xe3o\x84C\x19\x15ZC4\xf1\xdaA\xec3\xfbB\xb3u]C-\x99<C\xea\xc9\xc6B{\xb1\xbfB\x1eF\x9cC\xa7\xefKA[f\x9aC\xab\xe0\x8dC\xe5\x8a\xb1B(&\x93C\x03\x8d4C\x19\xc2\x8aB\x7f\tSC\x83\x998C'
S'\x00\x00\x00\x00\x00\x00\x00\x00\x00\x00\x00\x00\x00\x00\x00\x00\x00\x00\x00\x00\x00\x00\x00\x00\x00\x00\x00\x00\x00\x00\x00\x00\x00\x00\x00\x00\x00\x00\x00\x00\x00\x00\x00\x00\x00\x00\x00\x00\x00\x00\x00\x00\x00\x00\x00\x00\x00\x00\x00\x00\x00\x00\x00\x00\x00\x00\x00\x00\x00\x00\x00\x00\x00\x00\x00\x00\x00\x00\x00\x00\x00\x00\x00\x00\x00\x00\x00\x00\x00\x00\x00\x00\x00\x00\x00\x00'
Ntbsg26
g1157
(g1158
(I0
tS'b'
tRp1176
(I1
(I96
I1
tg1160
I00
(lp1177
g36
(g80
S'\x02\x00\x00\x00'
tRp1178
aS'5.0'
p1179
ag36
(g80
S'\x02\x00\x00\x00'
tRp1180
ag36
(g80
S'\x02\x00\x00\x00'
tRp1181
aI1
ag36
(g80
S'\x04\x00\x00\x00'
tRp1182
ag36
(g80
S'\x02\x00\x00\x00'
tRp1183
ag36
(g80
S'\x04\x00\x00\x00'
tRp1184
ag36
(g80
S'\x04\x00\x00\x00'
tRp1185
aI1
ag36
(g80
S'\x01\x00\x00\x00'
tRp1186
ag36
(g80
S'\x04\x00\x00\x00'
tRp1187
ag36
(g80
S'\x02\x00\x00\x00'
tRp1188
ag36
(g80
S'\x02\x00\x00\x00'
tRp1189
ag36
(g80
S'\x01\x00\x00\x00'
tRp1190
ag36
(g80
S'\x05\x00\x00\x00'
tRp1191
aI1
ag36
(g80
S'\x04\x00\x00\x00'
tRp1192
ag36
(g80
S'\x04\x00\x00\x00'
tRp1193
ag36
(g80
S'\x05\x00\x00\x00'
tRp1194
ag36
(g80
S'\x01\x00\x00\x00'
tRp1195
ag36
(g80
S'\x04\x00\x00\x00'
tRp1196
ag36
(g80
S'\x03\x00\x00\x00'
tRp1197
ag36
(g80
S'\x01\x00\x00\x00'
tRp1198
ag36
(g80
S'\x02\x00\x00\x00'
tRp1199
ag36
(g80
S'\x04\x00\x00\x00'
tRp1200
ag36
(g80
S'\x01\x00\x00\x00'
tRp1201
ag36
(g80
S'\x02\x00\x00\x00'
tRp1202
aI1
ag36
(g80
S'\x03\x00\x00\x00'
tRp1203
ag36
(g80
S'\x03\x00\x00\x00'
tRp1204
ag36
(g80
S'\x02\x00\x00\x00'
tRp1205
ag36
(g80
S'\x05\x00\x00\x00'
tRp1206
ag36
(g80
S'\x01\x00\x00\x00'
tRp1207
ag36
(g80
S'\x05\x00\x00\x00'
tRp1208
ag36
(g80
S'\x03\x00\x00\x00'
tRp1209
ag36
(g80
S'\x03\x00\x00\x00'
tRp1210
ag36
(g80
S'\x02\x00\x00\x00'
tRp1211
ag36
(g80
S'\x02\x00\x00\x00'
tRp1212
ag36
(g80
S'\x07\x00\x00\x00'
tRp1213
ag36
(g80
S'\x01\x00\x00\x00'
tRp1214
ag36
(g80
S'\x01\x00\x00\x00'
tRp1215
ag36
(g80
S'\x01\x00\x00\x00'
tRp1216
ag36
(g80
S'\x01\x00\x00\x00'
tRp1217
ag36
(g80
S'\x01\x00\x00\x00'
tRp1218
ag36
(g80
S'\x03\x00\x00\x00'
tRp1219
ag36
(g80
S'\x04\x00\x00\x00'
tRp1220
ag36
(g80
S'\x05\x00\x00\x00'
tRp1221
ag36
(g80
S'\x01\x00\x00\x00'
tRp1222
ag36
(g80
S'\x04\x00\x00\x00'
tRp1223
aI1
ag36
(g80
S'\x03\x00\x00\x00'
tRp1224
aI1
ag36
(g80
S'\x01\x00\x00\x00'
tRp1225
ag36
(g80
S'\x04\x00\x00\x00'
tRp1226
ag36
(g80
S'\x03\x00\x00\x00'
tRp1227
aI1
ag36
(g80
S'\x04\x00\x00\x00'
tRp1228
ag36
(g80
S'\x03\x00\x00\x00'
tRp1229
ag36
(g80
S'\x01\x00\x00\x00'
tRp1230
ag36
(g80
S'\x02\x00\x00\x00'
tRp1231
aS'4.0'
p1232
ag36
(g80
S'\x03\x00\x00\x00'
tRp1233
ag36
(g80
S'\x01\x00\x00\x00'
tRp1234
ag36
(g80
S'\x04\x00\x00\x00'
tRp1235
ag36
(g80
S'\x06\x00\x00\x00'
tRp1236
aI1
aI1
ag36
(g80
S'\x03\x00\x00\x00'
tRp1237
aI1
ag36
(g80
S'\x02\x00\x00\x00'
tRp1238
ag36
(g80
S'\x04\x00\x00\x00'
tRp1239
ag36
(g80
S'\x02\x00\x00\x00'
tRp1240
ag36
(g80
S'\x02\x00\x00\x00'
tRp1241
ag36
(g80
S'\x04\x00\x00\x00'
tRp1242
ag36
(g80
S'\x01\x00\x00\x00'
tRp1243
ag36
(g80
S'\x04\x00\x00\x00'
tRp1244
ag36
(g80
S'\x05\x00\x00\x00'
tRp1245
ag36
(g80
S'\x05\x00\x00\x00'
tRp1246
ag36
(g80
S'\x04\x00\x00\x00'
tRp1247
ag36
(g80
S'\x03\x00\x00\x00'
tRp1248
ag36
(g80
S'\x01\x00\x00\x00'
tRp1249
ag36
(g80
S'\x02\x00\x00\x00'
tRp1250
ag36
(g80
S'\x03\x00\x00\x00'
tRp1251
ag36
(g80
S'\x04\x00\x00\x00'
tRp1252
ag36
(g80
S'\x05\x00\x00\x00'
tRp1253
ag36
(g80
S'\x01\x00\x00\x00'
tRp1254
aS'3.0'
p1255
ag36
(g80
S'\x04\x00\x00\x00'
tRp1256
ag36
(g80
S'\x02\x00\x00\x00'
tRp1257
ag36
(g80
S'\x03\x00\x00\x00'
tRp1258
ag36
(g80
S'\x04\x00\x00\x00'
tRp1259
ag36
(g80
S'\x04\x00\x00\x00'
tRp1260
aI1
ag36
(g80
S'\x02\x00\x00\x00'
tRp1261
ag36
(g80
S'\x05\x00\x00\x00'
tRp1262
atbsg21
g1162
(g1163
g1158
g1164
S'b'
tRp1263
(I1
(I96
I1
tg1166
I00
S"\xc9yM>\x81\xd2&?1\xbb\x0f?\xb5\x93\xae>\xbc\x0eC>`I\xf1>\xe6E_?Sx\x05?IA$?\x8c\xdc\x14?X\x8dv>n*\r?\x8dm\x17?\x13\xbe\xcd==\x94\x80>$\x8c\xfb>\xf5p$>\xdc\x08\x08?WV\x00?A\n\x08?\x949w=\x9cNM?%\xb0!?\xfb6\xb9=\x1cj\xf6>\xe4i\xf6>;\xcc\x8f>0H\xf1>\xd54w=\xbaY\x00? m\x17?h\x87i?.|@?\x01Il>\t\x8f\x1c?N\xa63?Nx\x05?\xb1\xd6\xb8>\xd4\xb1!?3\xdfO?\xb7\xaf.>?\x0c\x9a>\xf8\x00b>\xe4\x04b>\xf0\x86\x85>'\xb2!?\x81I\xf1>FA$?i\x04\xe7>\xa5\xe9+?\xf3<C>.\xd7\xb8>:\xca\x8f>\xa8\x90\x1c?\x88\xe6\x02?\xa4D$?p\xb3\xa4=\x990H?\xc84\xa4?R=\xc8>#?\x92?\x04>\xc8>Q?\xc8>5q$>\xea\x84.?3\xdc\x14?\x9b\xb0\xa4=\xa8\x8e\x1c?\xde\n1?z\x08\x08?\xd8\xb5\xb3>5\xebx?\x1b7C>q\xf8\xbd>\x18x\x05?z\x08\x08?Ni\xf6>\xb1K\x12?oV\x00?\xc1x\x05?-m\x17?\xda=C>\x11e\x80>\xd6\xb3\\?j\\\xcd>\xc3\xc1\xdc>1\x8f\x1c?Y\xa2\xd7>[\x99\n?A\x99\n?\xa1\xa0\xd7>\xc2}\xd2>\t*\r?\xff!\xf8<\xf3x\x05?*M\x12?"
S'\x00\x00\x00\x00\x00\x00\x00\x00\x00\x00\x00\x00\x00\x00\x00\x00\x00\x00\x00\x00\x00\x00\x00\x00\x00\x00\x00\x00\x00\x00\x00\x00\x00\x00\x00\x00\x00\x00\x00\x00\x00\x00\x00\x00\x00\x00\x00\x00\x00\x00\x00\x00\x00\x00\x00\x00\x00\x00\x00\x00\x00\x00\x00\x00\x00\x00\x00\x00\x00\x00\x00\x00\x00\x00\x00\x00\x00\x00\x00\x00\x00\x00\x00\x00\x00\x00\x00\x00\x00\x00\x00\x00\x00\x00\x00\x00'
NtbsS'order'
p1264
g1162
(g1163
g1158
g1164
S'b'
tRp1265
(I1
(I96
I1
tg1166
I00
S'\x00\x00 B\x00\x00\x00\x00\x00\x000B\x00\x00\xc0A\x00\x00\xf8A\x00\x00@@\x00\x00\xbaB\x00\x00xB\x00\x00\xb2B\x00\x00\x9aB\x00\x00XB\x00\x00\xacB\x00\x00\xaeB\x00\x00\x14B\x00\x00@A\x00\x00\xa0A\x00\x00\x86B\x00\x008B\x00\x00$B\x00\x00pB\x00\x00(B\x00\x00\xe0A\x00\x00PA\x00\x00\xbcB\x00\x00\x10A\x00\x00,B\x00\x00\x00A\x00\x000A\x00\x00pA\x00\x00\x80@\x00\x00\x18B\x00\x00\xb6B\x00\x00PB\x00\x00\xa0B\x00\x00\xb8B\x00\x00\x10B\x00\x00\x84B\x00\x00\xe0@\x00\x00LB\x00\x00\xa8A\x00\x004B\x00\x00\xb0B\x00\x00|B\x00\x00`A\x00\x00<B\x00\x00\x80B\x00\x00\\B\x00\x00\xa4B\x00\x00 A\x00\x00TB\x00\x00\x88B\x00\x00\xd8A\x00\x00dB\x00\x00\x88A\x00\x00\x00B\x00\x00\xbeB\x00\x00\x9cB\x00\x00\xb0A\x00\x00\xe8A\x00\x00\xa0@\x00\x00\x90B\x00\x00\x80?\x00\x00\xa2B\x00\x00\x92B\x00\x00\x94B\x00\x00tB\x00\x00\x1cB\x00\x00\xaaB\x00\x00\xb4B\x00\x00\xf0A\x00\x00\x8cB\x00\x00\x8aB\x00\x00\x82B\x00\x00\x98A\x00\x00\x08B\x00\x00\x0cB\x00\x00\x80A\x00\x00\x96B\x00\x00\x8eB\x00\x00hB\x00\x00\xc0@\x00\x00\x04B\x00\x00lB\x00\x00HB\x00\x00\xd0A\x00\x00\xc8A\x00\x00\xa8B\x00\x00\x00@\x00\x00\xa6B\x00\x00\x98B\x00\x00\xb8A\x00\x00\x9eB\x00\x00@B\x00\x00\x90A\x00\x00`B\x00\x00DB'
S'\x00\x00\x00\x00\x00\x00\x00\x00\x00\x00\x00\x00\x00\x00\x00\x00\x00\x00\x00\x00\x00\x00\x00\x00\x00\x00\x00\x00\x00\x00\x00\x00\x00\x00\x00\x00\x00\x00\x00\x00\x00\x00\x00\x00\x00\x00\x00\x00\x00\x00\x00\x00\x00\x00\x00\x00\x00\x00\x00\x00\x00\x00\x00\x00\x00\x00\x00\x00\x00\x00\x00\x00\x00\x00\x00\x00\x00\x00\x00\x00\x00\x00\x00\x00\x00\x00\x00\x00\x00\x00\x00\x00\x00\x00\x00\x00'
Ntbsg19
g1162
(g1163
g1158
g1164
S'b'
tRp1266
(I1
(I96
I1
tg1166
I00
S'\x00\x00\x80?\x00\x00\x80?\x00\x00\x80?\x00\x00\x80?\x00\x00\x00\x00\x00\x00\x80?\x00\x00\x80?\x00\x00\x80?\x00\x00\x80?\x00\x00\x00\x00\x00\x00\x00\x00\x00\x00\x80?\x00\x00\x80?\x00\x00\x00\x00\x00\x00\x00\x00\x00\x00\x00\x00\x00\x00\x00\x00\x00\x00\x80?\x00\x00\x80?\x00\x00\x80?\x00\x00\x00\x00\x00\x00\x00\x00\x00\x00\x80?\x00\x00\x00\x00\x00\x00\x80?\x00\x00\x80?\x00\x00\x00\x00\x00\x00\x80?\x00\x00\x00\x00\x00\x00\x80?\x00\x00\x80?\x00\x00\x00\x00\x00\x00\x00\x00\x00\x00\x80?\x00\x00\x80?\x00\x00\x80?\x00\x00\x80?\x00\x00\x80?\x00\x00\x80?\x00\x00\x80?\x00\x00\x00\x00\x00\x00\x80?\x00\x00\x80?\x00\x00\x80?\x00\x00\x80?\x00\x00\x00\x00\x00\x00\x80?\x00\x00\x80?\x00\x00\x00\x00\x00\x00\x80?\x00\x00\x00\x00\x00\x00\x00\x00\x00\x00\x80?\x00\x00\x80?\x00\x00\x80?\x00\x00\x80?\x00\x00\x00\x00\x00\x00\x80?\x00\x00\x80?\x00\x00\x00\x00\x00\x00\x80?\x00\x00\x80?\x00\x00\x00\x00\x00\x00\x80?\x00\x00\x00\x00\x00\x00\x00\x00\x00\x00\x00\x00\x00\x00\x00\x00\x00\x00\x80?\x00\x00\x00\x00\x00\x00\x00\x00\x00\x00\x80?\x00\x00\x80?\x00\x00\x00\x00\x00\x00\x80?\x00\x00\x80?\x00\x00\x80?\x00\x00\x80?\x00\x00\x80?\x00\x00\x80?\x00\x00\x80?\x00\x00\x00\x00\x00\x00\x80?\x00\x00\x80?\x00\x00\x00\x00\x00\x00\x00\x00\x00\x00\x80?\x00\x00\x00\x00\x00\x00\x80?\x00\x00\x80?\x00\x00\x80?\x00\x00\x80?\x00\x00\x80?\x00\x00\x80?\x00\x00\x80?\x00\x00\x80?'
S'\x00\x00\x00\x00\x00\x00\x00\x00\x00\x00\x00\x00\x00\x00\x00\x00\x00\x00\x00\x00\x00\x00\x00\x00\x00\x00\x00\x00\x00\x00\x00\x00\x00\x00\x00\x00\x00\x00\x00\x00\x00\x00\x00\x00\x00\x00\x00\x00\x00\x00\x00\x00\x00\x00\x00\x00\x00\x00\x00\x00\x00\x00\x00\x00\x00\x00\x00\x00\x00\x00\x00\x00\x00\x00\x00\x00\x00\x00\x00\x00\x00\x00\x00\x00\x00\x00\x00\x00\x00\x00\x00\x00\x00\x00\x00\x00'
Ntbsg27
g1157
(g1158
(I0
tS'b'
tRp1267
(I1
(I96
I1
tg1160
I00
(lp1268
g528
ag76
ag573
ag352
ag429
ag116
ag1112
ag771
ag1068
ag936
ag683
ag1035
ag1046
ag495
ag219
ag308
ag826
ag595
ag539
ag749
ag550
ag396
ag231
ag1123
ag185
ag562
ag173
ag207
ag253
ag127
ag506
ag1090
ag661
ag969
ag1101
ag484
ag815
ag162
ag650
ag319
ag584
ag1057
ag782
ag242
ag606
ag793
ag694
ag991
ag196
ag672
ag837
ag385
ag716
ag275
ag440
ag1134
ag947
ag330
ag407
ag138
ag881
ag90
ag980
ag892
ag903
ag760
ag517
ag1024
ag1079
ag418
ag859
ag848
ag804
ag297
ag462
ag473
ag264
ag914
ag870
ag727
ag150
ag451
ag738
ag639
ag374
ag363
ag1013
ag104
ag1002
ag925
ag341
ag958
ag617
ag286
ag705
ag628
atbsg23
g1157
(g1158
(I0
tS'b'
tRp1269
(I1
(I96
I1
tg1160
I00
(lp1270
S'1'
aS'2'
aS'2'
aS'1'
aS'1'
aS'2'
aS'2'
aS'3'
aS'2'
aS'2'
aS'1'
aS'3'
aS'2'
aS'1'
aS'1'
aS'1'
aS'2'
aS'3'
aS'3'
aS'1'
aS'1'
aS'2'
aS'3'
aS'1'
aS'2'
aS'3'
aS'1'
aS'2'
aS'1'
aS'3'
aS'3'
aS'1'
aS'2'
aS'1'
aS'3'
aS'2'
aS'3'
aS'2'
aS'1'
aS'3'
aS'1'
aS'1'
aS'1'
aS'2'
aS'1'
aS'2'
aS'3'
aS'2'
aS'1'
aS'3'
aS'1'
aS'1'
aS'1'
aS'2'
aS'3'
aS'1'
aS'1'
aS'2'
aS'3'
aS'1'
aS'2'
aS'2'
aS'1'
aS'1'
aS'1'
aS'3'
aS'1'
aS'1'
aS'2'
aS'2'
aS'1'
aS'3'
aS'1'
aS'1'
aS'3'
aS'1'
aS'3'
aS'3'
aS'3'
aS'3'
aS'2'
aS'1'
aS'1'
aS'2'
aS'2'
aS'2'
aS'2'
aS'1'
aS'3'
aS'3'
aS'2'
aS'3'
aS'1'
aS'1'
aS'3'
aS'3'
atbsg18
g1162
(g1163
g1158
g1164
S'b'
tRp1271
(I1
(I96
I1
tg1166
I00
S'\xdb$\x16C\x02\xf3\x9f@\x82\xe8%C\xd4\xda\xb7B\xfe\xe8\xecB\xea\xf3}A\xa0\x19\xadC\xa0\x05hC\x0bK\xa5C\x84o\x8fC\xd1\x8cKC\x11\xdf\x9fC\xd9\xb5\xa1C\xd5\xe6\x0bC\xa7}AB\xa2\x1b\x99B-\xaeyC\x96\xdf,C\xc8g\x1bC\xb4\x8b`C\x85\x08\x1fCa\x84\xd4B\x0c\x00OB(!\xafC\xbf\xcb\x15BwO"Ccr\x08Bt-2B\xab\x0fkB\xec(\x9cA\x84#\x0fC\x87\x1c\xa9C\xc3\xd2CC\xba\xb3\x94C\x958\xabCZ\x15\x08C\xde\nvC\xffY\xf4A\xa8\xd5?C\xd2\x9f\xa0B\x83\x93)C\xbe\x9a\xa3C\xcd\xa3kC\xf1\x1c^BS\x800Cq\xf2nC\xdb\xeaNC\x92\'\x98CmD$B\xc4\xb8GCN^}C\xb0a\xcdB3\'VC(.\x83B\x03|\xf3B\x7f\xbf\xb0C\xb7L\x91C\x8a\xae\xa8B\rj\xdcB7\xc8\xb8A\xdf\x03\x86C\x07D\x0cA3W\x96C6!\x88C\xa9\xcd\x89C;KdC\n\xe3\x12C\x9b\xf7\x9dC_-\xa7CVy\xe5B\x1dl\x82C\nY\x80C\xd6\xacrC4\x03\x92B\xd3\xaa\x00C\xf4Z\x04C\x9a\xe3wB\x1a\xbe\x8bC\x17-\x84C]\x8aYC\xb2\x0b\xd6A\xc2\xc7\xfaB<0]C5\xb7;C\xe7\xec\xc5B5\xca\xbeB5\xf5\x9bCd\xdeDAl\x1e\x9aC\xbc\x98\x8dC\xbd\xa8\xb0B\xe7\xee\x92C\x95\xfa3C\x13\xa8\x8aB\xc4~RC\xf2\x018C'
S'\x00\x00\x00\x00\x00\x00\x00\x00\x00\x00\x00\x00\x00\x00\x00\x00\x00\x00\x00\x00\x00\x00\x00\x00\x00\x00\x00\x00\x00\x00\x00\x00\x00\x00\x00\x00\x00\x00\x00\x00\x00\x00\x00\x00\x00\x00\x00\x00\x00\x00\x00\x00\x00\x00\x00\x00\x00\x00\x00\x00\x00\x00\x00\x00\x00\x00\x00\x00\x00\x00\x00\x00\x00\x00\x00\x00\x00\x00\x00\x00\x00\x00\x00\x00\x00\x00\x00\x00\x00\x00\x00\x00\x00\x00\x00\x00'
Ntbsg25
g1162
(g1163
g1158
g1164
S'b'
tRp1272
(I1
(I96
I1
tg1166
I00
S"\xe8\xdb\x02@\x942\xb9=1\xcd\xf6=t\xbf\xcd=\xad\xc0\xa4=Q\xaf.>\x07\xf38>l=\xe2=y\xcc\xf6=\xa3n$>\xe87\xe2=\xd6\xa3\x05>#\xbeW>a\xa2\x05>V\xbd\xf6=\xbc\xfea>\xa7\xfe\x07?\xb7\xeb\xe1=\xef\xbd\x0f>\xb1\xf68>\x18zM>\xd8\xea\x0f>\x9bz$>\xff\xea\x0f>\xcc9\x1a>\xb30\xf7==1w=^\xf8\xbd>R}\x05>{.\xb9=\xd5\xac.>F\xc9\x8f>\xd1\xc0\xf6=\xf6\x1b%=G\xe5\x0f>\xdf\xc2\xf6=\xfb\xa8\x05>\xa4\x01b>\xc3O\xa4>\xc5|M>\x847\xe2=\\?w=\x85(\x90=\xb0\x0c\xf8<'wM>\xde\xb3\xcd=\xef\x14\xce=\xe4\x87\x85>\x85\n\xf8<2\x88.>\x0e\xc1\xf6=]7C>\x11/\xb9=\xbf\xe8\x0f>j\xec\x0f>r\xf98>TI$>\xb7|M>U\x85\x85>\x8a\x88\x85>\x9f\xb4\xcd=\x1c\xe6\x0f>.|M>e\x86.>\x1c\xac.>\xb9\xa4\x05>n\xf38>\x83\xf38>\xda\xf48>\xfd5C>=\xbd\xf6=6\xf58>\n*\x1a>\xe0+\x1a>\xf0\xf68>T5C>\xc8*\x1a>5\xe5\x0f>\xd3\xb7.>W\xab\x05>-yM>\x87!\x90=\xa5!\x90=\xaa\x87\x85>9,\x9f>\x02\xbd\xf6=\x9d\x9e\xd7>\xc8\xa7\x05>R.\x1a>}.\x1a>\xa7\xf58>'\xbe\x0f>\xcf\x03\xe7>N\xd2&?\xd26\x1a>\xb9\xc0\xf6="
S'\x00\x00\x00\x00\x00\x00\x00\x00\x00\x00\x00\x00\x00\x00\x00\x00\x00\x00\x00\x00\x00\x00\x00\x00\x00\x00\x00\x00\x00\x00\x00\x00\x00\x00\x00\x00\x00\x00\x00\x00\x00\x00\x00\x00\x00\x00\x00\x00\x00\x00\x00\x00\x00\x00\x00\x00\x00\x00\x00\x00\x00\x00\x00\x00\x00\x00\x00\x00\x00\x00\x00\x00\x00\x00\x00\x00\x00\x00\x00\x00\x00\x00\x00\x00\x00\x00\x00\x00\x00\x00\x00\x00\x00\x00\x00\x00'
NtbstRp1273
(dp1274
S'isNumeric'
p1275
(dp1276
g23
I00
sg20
I00
sg17
I01
sg1167
I01
sg22
I01
sg24
I01
sg14
I01
sg18
I01
sg16
I00
sg19
I01
sg26
I00
sg27
I00
sg15
I00
sg21
I01
sg1264
I01
sg25
I01
ssg1151
g1145
sS'dataTypes'
p1277
(lp1278
g1167
ag1264
ag14
ag15
ag16
ag17
ag18
ag19
ag20
ag21
ag22
ag23
ag24
ag25
ag26
ag27
asS'dataShape'
p1279
(lp1280
I96
aI1
asbsS'method'
p1281
S'random'
p1282
sS'sequenceIndices'
p1283
g1157
(g1158
(I0
tS'b'
tRp1284
(I1
(I96
I1
tg80
I01
S'\x01\x00\x00\x00=\x00\x00\x00W\x00\x00\x00\x05\x00\x00\x00\x1d\x00\x00\x00;\x00\x00\x00P\x00\x00\x00%\x00\x00\x00\x1a\x00\x00\x00\x18\x00\x00\x000\x00\x00\x00\x1b\x00\x00\x00\x0e\x00\x00\x00\x16\x00\x00\x00+\x00\x00\x00\x1c\x00\x00\x00L\x00\x00\x005\x00\x00\x00]\x00\x00\x00I\x00\x00\x00\x0f\x00\x00\x00\'\x00\x00\x009\x00\x00\x00Z\x00\x00\x00\x03\x00\x00\x00U\x00\x00\x00T\x00\x00\x003\x00\x00\x00\x15\x00\x00\x00:\x00\x00\x00E\x00\x00\x00\x04\x00\x00\x006\x00\x00\x00Q\x00\x00\x00J\x00\x00\x00K\x00\x00\x00#\x00\x00\x00\r\x00\x00\x00\x1e\x00\x00\x00B\x00\x00\x00\x00\x00\x00\x00\x12\x00\x00\x00\x14\x00\x00\x00\x19\x00\x00\x00\x02\x00\x00\x00(\x00\x00\x00\x11\x00\x00\x00,\x00\x00\x00\\\x00\x00\x00_\x00\x00\x00S\x00\x00\x00&\x00\x00\x00 \x00\x00\x001\x00\x00\x00\n\x00\x00\x00.\x00\x00\x00^\x00\x00\x004\x00\x00\x00O\x00\x00\x00R\x00\x00\x00\x13\x00\x00\x00A\x00\x00\x00\x07\x00\x00\x00*\x00\x00\x00-\x00\x00\x00H\x00\x00\x00$\x00\x00\x00\x10\x00\x00\x002\x00\x00\x00G\x00\x00\x00F\x00\x00\x00N\x00\x00\x00<\x00\x00\x00?\x00\x00\x00@\x00\x00\x00M\x00\x00\x00Y\x00\x00\x00\t\x00\x00\x008\x00\x00\x00[\x00\x00\x00!\x00\x00\x00>\x00\x00\x00/\x00\x00\x00X\x00\x00\x00V\x00\x00\x00C\x00\x00\x00\x0b\x00\x00\x00\x0c\x00\x00\x00)\x00\x00\x00\x08\x00\x00\x00D\x00\x00\x00\x1f\x00\x00\x00"\x00\x00\x00\x06\x00\x00\x00\x17\x00\x00\x007\x00\x00\x00'
tbsS'finished'
p1285
I01
sS'nReps'
p1286
I1
sS'nRemaining'
p1287
I-1
sS'trialList'
p1288
(lp1289
g1
(cpsychopy.data
TrialType
p1290
g1155
(dp1291
g62
g102
sg63
g534
sg64
g114
sg65
g529
sg66
g533
stRp1292
ag1
(g1290
g1155
(dp1293
g62
g74
sg63
g84
sg64
g73
sg65
g78
sg66
g83
stRp1294
ag1
(g1290
g1155
(dp1295
g62
g102
sg63
g579
sg64
g114
sg65
g574
sg66
g578
stRp1296
ag1
(g1290
g1155
(dp1297
g62
g102
sg63
g358
sg64
g160
sg65
g353
sg66
g357
stRp1298
ag1
(g1290
g1155
(dp1299
g62
g74
sg63
g435
sg64
g88
sg65
g430
sg66
g434
stRp1300
ag1
(g1290
g1155
(dp1301
g62
g102
sg63
g122
sg64
g114
sg65
g117
sg66
g121
stRp1302
ag1
(g1290
g1155
(dp1303
g62
g102
sg63
g1118
sg64
g114
sg65
g1113
sg66
g1117
stRp1304
ag1
(g1290
g1155
(dp1305
g62
g102
sg63
g777
sg64
g101
sg65
g772
sg66
g776
stRp1306
ag1
(g1290
g1155
(dp1307
g62
g102
sg63
g1074
sg64
g114
sg65
g1069
sg66
g1073
stRp1308
ag1
(g1290
g1155
(dp1309
g62
g102
sg63
g942
sg64
g101
sg65
g937
sg66
g941
stRp1310
ag1
(g1290
g1155
(dp1311
g62
g74
sg63
g689
sg64
g183
sg65
g684
sg66
g688
stRp1312
ag1
(g1290
g1155
(dp1313
g62
g102
sg63
g1041
sg64
g101
sg65
g1036
sg66
g1040
stRp1314
ag1
(g1290
g1155
(dp1315
g62
g102
sg63
g1052
sg64
g217
sg65
g1047
sg66
g1051
stRp1316
ag1
(g1290
g1155
(dp1317
g62
g74
sg63
g501
sg64
g73
sg65
g496
sg66
g500
stRp1318
ag1
(g1290
g1155
(dp1319
g62
g102
sg63
g225
sg64
g217
sg65
g220
sg66
g224
stRp1320
ag1
(g1290
g1155
(dp1321
g62
g102
sg63
g314
sg64
g114
sg65
g309
sg66
g313
stRp1322
ag1
(g1290
g1155
(dp1323
g62
g74
sg63
g832
sg64
g73
sg65
g827
sg66
g831
stRp1324
ag1
(g1290
g1155
(dp1325
g62
g102
sg63
g601
sg64
g217
sg65
g596
sg66
g600
stRp1326
ag1
(g1290
g1155
(dp1327
g62
g102
sg63
g545
sg64
g229
sg65
g540
sg66
g544
stRp1328
ag1
(g1290
g1155
(dp1329
g62
g102
sg63
g755
sg64
g114
sg65
g750
sg66
g754
stRp1330
ag1
(g1290
g1155
(dp1331
g62
g74
sg63
g556
sg64
g73
sg65
g551
sg66
g555
stRp1332
ag1
(g1290
g1155
(dp1333
g62
g74
sg63
g402
sg64
g148
sg65
g397
sg66
g401
stRp1334
ag1
(g1290
g1155
(dp1335
g62
g102
sg63
g237
sg64
g229
sg65
g232
sg66
g236
stRp1336
ag1
(g1290
g1155
(dp1337
g62
g74
sg63
g1129
sg64
g148
sg65
g1124
sg66
g1128
stRp1338
ag1
(g1290
g1155
(dp1339
g62
g74
sg63
g191
sg64
g183
sg65
g186
sg66
g190
stRp1340
ag1
(g1290
g1155
(dp1341
g62
g102
sg63
g568
sg64
g560
sg65
g563
sg66
g567
stRp1342
ag1
(g1290
g1155
(dp1343
g62
g74
sg63
g179
sg64
g88
sg65
g174
sg66
g178
stRp1344
ag1
(g1290
g1155
(dp1345
g62
g74
sg63
g213
sg64
g73
sg65
g208
sg66
g212
stRp1346
ag1
(g1290
g1155
(dp1347
g62
g102
sg63
g259
sg64
g217
sg65
g254
sg66
g258
stRp1348
ag1
(g1290
g1155
(dp1349
g62
g102
sg63
g133
sg64
g114
sg65
g128
sg66
g132
stRp1350
ag1
(g1290
g1155
(dp1351
g62
g102
sg63
g512
sg64
g229
sg65
g507
sg66
g511
stRp1352
ag1
(g1290
g1155
(dp1353
g62
g102
sg63
g1096
sg64
g229
sg65
g1091
sg66
g1095
stRp1354
ag1
(g1290
g1155
(dp1355
g62
g74
sg63
g667
sg64
g73
sg65
g662
sg66
g666
stRp1356
ag1
(g1290
g1155
(dp1357
g62
g74
sg63
g975
sg64
g88
sg65
g970
sg66
g974
stRp1358
ag1
(g1290
g1155
(dp1359
g62
g74
sg63
g1107
sg64
g88
sg65
g1102
sg66
g1106
stRp1360
ag1
(g1290
g1155
(dp1361
g62
g102
sg63
g490
sg64
g217
sg65
g485
sg66
g489
stRp1362
ag1
(g1290
g1155
(dp1363
g62
g102
sg63
g821
sg64
g560
sg65
g816
sg66
g820
stRp1364
ag1
(g1290
g1155
(dp1365
g62
g102
sg63
g168
sg64
g160
sg65
g163
sg66
g167
stRp1366
ag1
(g1290
g1155
(dp1367
g62
g74
sg63
g656
sg64
g88
sg65
g651
sg66
g655
stRp1368
ag1
(g1290
g1155
(dp1369
g62
g74
sg63
g325
sg64
g73
sg65
g320
sg66
g324
stRp1370
ag1
(g1290
g1155
(dp1371
g62
g74
sg63
g590
sg64
g73
sg65
g585
sg66
g589
stRp1372
ag1
(g1290
g1155
(dp1373
g62
g102
sg63
g1063
sg64
g217
sg65
g1058
sg66
g1062
stRp1374
ag1
(g1290
g1155
(dp1375
g62
g74
sg63
g788
sg64
g88
sg65
g783
sg66
g787
stRp1376
ag1
(g1290
g1155
(dp1377
g62
g74
sg63
g248
sg64
g148
sg65
g243
sg66
g247
stRp1378
ag1
(g1290
g1155
(dp1379
g62
g74
sg63
g612
sg64
g88
sg65
g607
sg66
g611
stRp1380
ag1
(g1290
g1155
(dp1381
g62
g74
sg63
g799
sg64
g183
sg65
g794
sg66
g798
stRp1382
ag1
(g1290
g1155
(dp1383
g62
g102
sg63
g700
sg64
g114
sg65
g695
sg66
g699
stRp1384
ag1
(g1290
g1155
(dp1385
g62
g102
sg63
g997
sg64
g114
sg65
g992
sg66
g996
stRp1386
ag1
(g1290
g1155
(dp1387
g62
g74
sg63
g202
sg64
g73
sg65
g197
sg66
g201
stRp1388
ag1
(g1290
g1155
(dp1389
g62
g74
sg63
g678
sg64
g148
sg65
g673
sg66
g677
stRp1390
ag1
(g1290
g1155
(dp1391
g62
g74
sg63
g843
sg64
g73
sg65
g838
sg66
g842
stRp1392
ag1
(g1290
g1155
(dp1393
g62
g74
sg63
g391
sg64
g88
sg65
g386
sg66
g390
stRp1394
ag1
(g1290
g1155
(dp1395
g62
g74
sg63
g722
sg64
g148
sg65
g717
sg66
g721
stRp1396
ag1
(g1290
g1155
(dp1397
g62
g102
sg63
g281
sg64
g217
sg65
g276
sg66
g280
stRp1398
ag1
(g1290
g1155
(dp1399
g62
g102
sg63
g446
sg64
g101
sg65
g441
sg66
g445
stRp1400
ag1
(g1290
g1155
(dp1401
g62
g74
sg63
g1140
sg64
g148
sg65
g1135
sg66
g1139
stRp1402
ag1
(g1290
g1155
(dp1403
g62
g74
sg63
g953
sg64
g88
sg65
g948
sg66
g952
stRp1404
ag1
(g1290
g1155
(dp1405
g62
g74
sg63
g336
sg64
g88
sg65
g331
sg66
g335
stRp1406
ag1
(g1290
g1155
(dp1407
g62
g102
sg63
g413
sg64
g217
sg65
g408
sg66
g412
stRp1408
ag1
(g1290
g1155
(dp1409
g62
g74
sg63
g144
sg64
g88
sg65
g139
sg66
g143
stRp1410
ag1
(g1290
g1155
(dp1411
g62
g74
sg63
g887
sg64
g88
sg65
g882
sg66
g886
stRp1412
ag1
(g1290
g1155
(dp1413
g62
g74
sg63
g96
sg64
g88
sg65
g91
sg66
g95
stRp1414
ag1
(g1290
g1155
(dp1415
g62
g102
sg63
g986
sg64
g560
sg65
g981
sg66
g985
stRp1416
ag1
(g1290
g1155
(dp1417
g62
g74
sg63
g898
sg64
g88
sg65
g893
sg66
g897
stRp1418
ag1
(g1290
g1155
(dp1419
g62
g102
sg63
g909
sg64
g101
sg65
g904
sg66
g908
stRp1420
ag1
(g1290
g1155
(dp1421
g62
g74
sg63
g766
sg64
g148
sg65
g761
sg66
g765
stRp1422
ag1
(g1290
g1155
(dp1423
g62
g102
sg63
g523
sg64
g229
sg65
g518
sg66
g522
stRp1424
ag1
(g1290
g1155
(dp1425
g62
g74
sg63
g1030
sg64
g88
sg65
g1025
sg66
g1029
stRp1426
ag1
(g1290
g1155
(dp1427
g62
g74
sg63
g1085
sg64
g73
sg65
g1080
sg66
g1084
stRp1428
ag1
(g1290
g1155
(dp1429
g62
g102
sg63
g424
sg64
g114
sg65
g419
sg66
g423
stRp1430
ag1
(g1290
g1155
(dp1431
g62
g74
sg63
g865
sg64
g88
sg65
g860
sg66
g864
stRp1432
ag1
(g1290
g1155
(dp1433
g62
g102
sg63
g854
sg64
g229
sg65
g849
sg66
g853
stRp1434
ag1
(g1290
g1155
(dp1435
g62
g102
sg63
g810
sg64
g560
sg65
g805
sg66
g809
stRp1436
ag1
(g1290
g1155
(dp1437
g62
g74
sg63
g303
sg64
g183
sg65
g298
sg66
g302
stRp1438
ag1
(g1290
g1155
(dp1439
g62
g74
sg63
g468
sg64
g88
sg65
g463
sg66
g467
stRp1440
ag1
(g1290
g1155
(dp1441
g62
g74
sg63
g479
sg64
g148
sg65
g474
sg66
g478
stRp1442
ag1
(g1290
g1155
(dp1443
g62
g102
sg63
g270
sg64
g101
sg65
g265
sg66
g269
stRp1444
ag1
(g1290
g1155
(dp1445
g62
g102
sg63
g920
sg64
g229
sg65
g915
sg66
g919
stRp1446
ag1
(g1290
g1155
(dp1447
g62
g102
sg63
g876
sg64
g114
sg65
g871
sg66
g875
stRp1448
ag1
(g1290
g1155
(dp1449
g62
g74
sg63
g733
sg64
g88
sg65
g728
sg66
g732
stRp1450
ag1
(g1290
g1155
(dp1451
g62
g74
sg63
g156
sg64
g148
sg65
g151
sg66
g155
stRp1452
ag1
(g1290
g1155
(dp1453
g62
g102
sg63
g457
sg64
g114
sg65
g452
sg66
g456
stRp1454
ag1
(g1290
g1155
(dp1455
g62
g74
sg63
g744
sg64
g73
sg65
g739
sg66
g743
stRp1456
ag1
(g1290
g1155
(dp1457
g62
g102
sg63
g645
sg64
g229
sg65
g640
sg66
g644
stRp1458
ag1
(g1290
g1155
(dp1459
g62
g74
sg63
g380
sg64
g73
sg65
g375
sg66
g379
stRp1460
ag1
(g1290
g1155
(dp1461
g62
g74
sg63
g369
sg64
g88
sg65
g364
sg66
g368
stRp1462
ag1
(g1290
g1155
(dp1463
g62
g102
sg63
g1019
sg64
g101
sg65
g1014
sg66
g1018
stRp1464
ag1
(g1290
g1155
(dp1465
g62
g102
sg63
g110
sg64
g101
sg65
g105
sg66
g109
stRp1466
ag1
(g1290
g1155
(dp1467
g62
g102
sg63
g1008
sg64
g560
sg65
g1003
sg66
g1007
stRp1468
ag1
(g1290
g1155
(dp1469
g62
g102
sg63
g931
sg64
g560
sg65
g926
sg66
g930
stRp1470
ag1
(g1290
g1155
(dp1471
g62
g74
sg63
g347
sg64
g73
sg65
g342
sg66
g346
stRp1472
ag1
(g1290
g1155
(dp1473
g62
g102
sg63
g964
sg64
g101
sg65
g959
sg66
g963
stRp1474
ag1
(g1290
g1155
(dp1475
g62
g102
sg63
g623
sg64
g560
sg65
g618
sg66
g622
stRp1476
ag1
(g1290
g1155
(dp1477
g62
g102
sg63
g292
sg64
g114
sg65
g287
sg66
g291
stRp1478
ag1
(g1290
g1155
(dp1479
g62
g74
sg63
g711
sg64
g148
sg65
g706
sg66
g710
stRp1480
ag1
(g1290
g1155
(dp1481
g62
g74
sg63
g634
sg64
g73
sg65
g629
sg66
g633
stRp1482
asS'seed'
p1483
NsS'thisIndex'
p1484
g1137
sS'thisN'
p1485
I96
sS'thisTrialN'
p1486
I0
sS'nTotal'
p1487
I96
sS'_warnUseOfNext'
p1488
I01
sbasS'savePickle'
p1489
I00
sb.