ccopy_reg
_reconstructor
p1
(cpsychopy.data
ExperimentHandler
p2
c__builtin__
object
p3
NtRp4
(dp5
S'originPath'
p6
NsS'dataFileName'
p7
VC:\u005cDocuments and Settings\u005cExperimental user\u005cMy Documents\u005cconsciousness\u005cuncon_feat\u005cexperiment_scripts\u005cdata/leyre_Experiment_EEG_version_2019_may_28_1029
p8
sS'runtimeInfo'
p9
NsS'name'
p10
VExperiment_EEG_version
p11
sS'dataNames'
p12
(lp13
S'image_onset_time'
p14
aS'response_window'
p15
aS'correctAns'
p16
aS'probe_onset'
p17
aS'discrim_resptime'
p18
aS'response.corr'
p19
aS'response.keys'
p20
aS'response.rt'
p21
aS'visible_resptime'
p22
aS'visible.keys'
p23
aS'visible.corr'
p24
aS'visible.rt'
p25
aS'probeFrames'
p26
aS'jitter2'
p27
asS'autoLog'
p28
I01
sS'extraInfo'
p29
(dp30
Vn_square
p31
V32
p32
sVexperiment_color
p33
Vbw
p34
sS'frameRate'
p35
cnumpy.core.multiarray
scalar
p36
(cnumpy
dtype
p37
(S'f8'
I0
I1
tRp38
(I3
S'<'
NNNI-1
I-1
I0
tbS'!\xa4X!#\xf2X@'
tRp39
sS'date'
p40
V2019_may_28_1029
p41
sVsession
p42
V017
p43
sVimage_size
p44
V256
p45
sVpremask_dur
p46
V20
p47
sVprobeFrames
p48
V5
sVparticipant
p49
Vleyre
p50
sS'expName'
p51
g11
sVpostmask_dur
p52
V20
p53
ssS'loopsUnfinished'
p54
(lp55
sS'saveWideText'
p56
I00
sS'thisEntry'
p57
(dp58
sS'version'
p59
S''
sS'_paramNamesSoFar'
p60
(lp61
S'category'
p62
aS'probe_path'
p63
aS'subcategory'
p64
aS'fixation_duration'
p65
aS'label'
p66
asS'entries'
p67
(lp68
(dp69
g31
g32
sg17
F3.7371387607418001
sg24
I0
sg35
g39
sg14
F3.7156919245608151
sg16
g36
(g37
(S'i4'
I0
I1
tRp70
(I3
S'<'
NNNI-1
I-1
I0
tbS'\x02\x00\x00\x00'
tRp71
sg42
g43
sg46
g47
sg15
S'nV_V'
p72
sg22
F5.7610669513233006
sg64
VAnimals
p73
sg62
VLiving_Things
p74
sg49
g50
sS'trials.thisN'
p75
I0
sg19
I1
sg27
g36
(g38
S'\x00\x00\x00\x00\x00\x00\x1a@'
tRp76
sg52
g53
sg23
S'3'
sg18
F4.9983821860514581
sg33
g34
sg51
g11
sg20
S'2'
sg65
g36
(g37
(S'i8'
I0
I1
tRp77
(I3
S'<'
NNNI-1
I-1
I0
tbS'\x00\x00\x00\x00\x00\x00\x00\x00'
tRp78
sg44
g45
sg40
g41
sg25
F0.20067088166251779
sS'trials.thisIndex'
p79
g36
(g37
(S'i4'
I0
I1
tRp80
(I3
S'<'
NNNI-1
I-1
I0
tbS"'\x00\x00\x00"
tRp81
sg26
V5
sS'trials.thisRepN'
p82
I0
sg66
Vhippopotamus
p83
sg63
V../experiment_stimuli/bw_bc_bl/Living_Things/Animals/hippopotamus_1.jpg
p84
sg21
F0.73183492873795331
sS'trials.thisTrialN'
p85
I0
sa(dp86
g31
g32
sg17
F7.6992165665142238
sg24
I1
sg35
g39
sg14
F7.6943344555329531
sg16
g36
(g70
S'\x01\x00\x00\x00'
tRp87
sg42
g43
sg46
g47
sg15
S'V_nV'
p88
sg22
F9.1181007642298937
sg64
g73
sg62
g74
sg49
g50
sS'trials.thisN'
p89
I1
sg19
I0
sg27
g36
(g38
S'\x00\x00\x00\x00\x00\x00\x1e@'
tRp90
sg52
g53
sg23
S'1'
sg18
F8.9369460430461913
sg33
g34
sg51
g11
sg20
S'2'
sg65
g36
(g77
S'\x00\x00\x00\x00\x00\x00\x00\x00'
tRp91
sg44
g45
sg40
g41
sg25
F0.030293648829683661
sS'trials.thisIndex'
p92
g36
(g80
S'R\x00\x00\x00'
tRp93
sg26
V5
sS'trials.thisRepN'
p94
I0
sg66
Vtapir
p95
sg63
V../experiment_stimuli/bw_bc_bl/Living_Things/Animals/tapir_24.jpg
p96
sg21
F0.16058736923150718
sS'trials.thisTrialN'
p97
I1
sa(dp98
g31
g32
sg17
F10.886584824416786
sg24
I1
sg35
g39
sg14
F10.881267039338127
sg16
g36
(g70
S'\x02\x00\x00\x00'
tRp99
sg42
g43
sg46
g47
sg15
g72
sg22
F12.154552931897342
sg64
g73
sg62
g74
sg49
g50
sS'trials.thisN'
p100
I2
sg19
I1
sg27
g36
(g38
S'\x00\x00\x00\x00\x00\x00\x18@'
tRp101
sg52
g53
sg23
S'1'
sg18
F12.133892216719687
sg33
g34
sg51
g11
sg20
S'2'
sg65
g36
(g77
S'\x00\x00\x00\x00\x00\x00\x00\x00'
tRp102
sg44
g45
sg40
g41
sg25
F0.060351714491844177
sS'trials.thisIndex'
p103
g36
(g80
S'T\x00\x00\x00'
tRp104
sg26
V5
sS'trials.thisRepN'
p105
I0
sg66
Vtiger
p106
sg63
V../experiment_stimuli/bw_bc_bl/Living_Things/Animals/tiger_9.jpg
p107
sg21
F0.00010389671660959721
sS'trials.thisTrialN'
p108
I2
sa(dp109
g31
g32
sg17
F13.953176744747907
sg24
I0
sg35
g39
sg14
F13.947932454757392
sg16
g36
(g70
S'\x01\x00\x00\x00'
tRp110
sg42
g43
sg46
g47
sg15
g88
sg22
F15.562097472837195
sg64
VMarine_creatures
p111
sg62
g74
sg49
g50
sS'trials.thisN'
p112
I3
sg19
I0
sg27
g36
(g38
S'\x00\x00\x00\x00\x00\x00\x1a@'
tRp113
sg52
g53
sg23
S'2'
sg18
F15.210585567168891
sg33
g34
sg51
g11
sg20
S'2'
sg65
g36
(g77
S'\x00\x00\x00\x00\x00\x00\x00\x00'
tRp114
sg44
g45
sg40
g41
sg25
F0.49129531718790531
sS'trials.thisIndex'
p115
g36
(g80
S'P\x00\x00\x00'
tRp116
sg26
V5
sS'trials.thisRepN'
p117
I0
sg66
Vsperm-whale
p118
sg63
V../experiment_stimuli/bw_bc_bl/Living_Things/Marine_creatures/sperm-whale_22.jpg
p119
sg21
F0.33095079776830971
sS'trials.thisTrialN'
p120
I3
sa(dp121
g31
g32
sg17
F17.791241713799536
sg24
I1
sg35
g39
sg14
F17.786300152773038
sg16
g36
(g70
S'\x02\x00\x00\x00'
tRp122
sg42
g43
sg46
g47
sg15
g72
sg22
F19.149907315615565
sg64
g73
sg62
g74
sg49
g50
sS'trials.thisN'
p123
I4
sg19
I0
sg27
g36
(g38
S'\x00\x00\x00\x00\x00\x00\x18@'
tRp124
sg52
g53
sg23
S'1'
sg18
F19.038903183536604
sg33
g34
sg51
g11
sg20
S'1'
sg65
g36
(g77
S'\x00\x00\x00\x00\x00\x00\x00\x00'
tRp125
sg44
g45
sg40
g41
sg25
F1.2229301398620009
sS'trials.thisIndex'
p126
g36
(g80
S' \x00\x00\x00'
tRp127
sg26
V5
sS'trials.thisRepN'
p128
I0
sg66
Vgiraffe
p129
sg63
V../experiment_stimuli/bw_bc_bl/Living_Things/Animals/giraffe_14.jpg
p130
sg21
F0.090432979399338365
sS'trials.thisTrialN'
p131
I4
sa(dp132
g31
g32
sg17
F22.110519170993939
sg24
I0
sg35
g39
sg14
F22.105669514508918
sg16
g36
(g70
S'\x01\x00\x00\x00'
tRp133
sg42
g43
sg46
g47
sg15
g88
sg22
F23.980372244957834
sg64
g111
sg62
g74
sg49
g50
sS'trials.thisN'
p134
I5
sg19
I1
sg27
g36
(g38
S'\x00\x00\x00\x00\x00\x00\x1c@'
tRp135
sg52
g53
sg23
S'2'
sg18
F23.38835718203336
sg33
g34
sg51
g11
sg20
S'1'
sg65
g36
(g77
S'\x00\x00\x00\x00\x00\x00\x00\x00'
tRp136
sg44
g45
sg40
g41
sg25
F0.080236012348905206
sS'trials.thisIndex'
p137
g36
(g80
S'^\x00\x00\x00'
tRp138
sg26
V5
sS'trials.thisRepN'
p139
I0
sg66
Vwhale
p140
sg63
V../experiment_stimuli/bw_bc_bl/Living_Things/Marine_creatures/whale_14.jpg
p141
sg21
F0.57146711996756494
sS'trials.thisTrialN'
p142
I5
sa(dp143
g31
g32
sg17
F25.7991104463581
sg24
I0
sg35
g39
sg14
F25.793677813373506
sg16
g36
(g70
S'\x01\x00\x00\x00'
tRp144
sg42
g43
sg46
g47
sg15
g88
sg22
F27.918934895191342
sg64
g73
sg62
g74
sg49
g50
sS'trials.thisN'
p145
I6
sg19
I1
sg27
g36
(g38
S'\x00\x00\x00\x00\x00\x00\x1a@'
tRp146
sg52
g53
sg23
S'3'
sg18
F27.066351947607473
sg33
g34
sg51
g11
sg20
S'1'
sg65
g36
(g77
S'\x00\x00\x00\x00\x00\x00\x00\x00'
tRp147
sg44
g45
sg40
g41
sg25
F0.20066578034311533
sS'trials.thisIndex'
p148
g36
(g80
S'D\x00\x00\x00'
tRp149
sg26
V5
sS'trials.thisRepN'
p150
I0
sg66
Vrhino
p151
sg63
V../experiment_stimuli/bw_bc_bl/Living_Things/Animals/rhino_21.jpg
p152
sg21
F0.83189977379515767
sS'trials.thisTrialN'
p153
I6
sa(dp154
g31
g32
sg17
F29.857584939338267
sg24
I0
sg35
g39
sg14
F29.852505496703088
sg16
g36
(g70
S'\x01\x00\x00\x00'
tRp155
sg42
g43
sg46
g47
sg15
g88
sg22
F31.667109178146347
sg64
VBirds
p156
sg62
g74
sg49
g50
sS'trials.thisN'
p157
I7
sg19
I0
sg27
g36
(g38
S'\x00\x00\x00\x00\x00\x00 @'
tRp158
sg52
g53
sg23
S'2'
sg18
F31.105127418180928
sg33
g34
sg51
g11
sg20
S'2'
sg65
g36
(g77
S'\x00\x00\x00\x00\x00\x00\x00\x00'
tRp159
sg44
g45
sg40
g41
sg25
F0.20064750639721751
sS'trials.thisIndex'
p160
g36
(g80
S'&\x00\x00\x00'
tRp161
sg26
V5
sS'trials.thisRepN'
p162
I0
sg66
Vhen
p163
sg63
V../experiment_stimuli/bw_bc_bl/Living_Things/Birds/hen_13.jpg
p164
sg21
F0.54140785522758961
sS'trials.thisTrialN'
p165
I7
sa(dp166
g31
g32
sg17
F33.605590822175145
sg24
I0
sg35
g39
sg14
F33.60065407329239
sg16
g36
(g70
S'\x01\x00\x00\x00'
tRp167
sg42
g43
sg46
g47
sg15
g72
sg22
F35.625696225557476
sg64
VVehicles
p168
sg62
VNonliving_Things
p169
sg49
g50
sS'trials.thisN'
p170
I8
sg19
I1
sg27
g36
(g38
S'\x00\x00\x00\x00\x00\x00\x1c@'
tRp171
sg52
g53
sg23
S'3'
sg18
F34.843269630568102
sg33
g34
sg51
g11
sg20
S'1'
sg65
g36
(g77
S'\x00\x00\x00\x00\x00\x00\x00\x00'
tRp172
sg44
g45
sg40
g41
sg25
F0.40111468033865094
sS'trials.thisIndex'
p173
g36
(g80
S'6\x00\x00\x00'
tRp174
sg26
V5
sS'trials.thisRepN'
p175
I0
sg66
Vmotorbike
p176
sg63
V../experiment_stimuli/bw_bc_bl/Nonliving_Things/Vehicles/motorbike_21.jpg
p177
sg21
F0.7618970510084182
sS'trials.thisTrialN'
p178
I8
sa(dp179
g31
g32
sg17
F37.764597454573959
sg24
I1
sg35
g39
sg14
F37.759694855427369
sg16
g36
(g70
S'\x02\x00\x00\x00'
tRp180
sg42
g43
sg46
g47
sg15
g72
sg22
F39.183419382665306
sg64
g156
sg62
g74
sg49
g50
sS'trials.thisN'
p181
I9
sg19
I1
sg27
g36
(g38
S'\x00\x00\x00\x00\x00\x00\x18@'
tRp182
sg52
g53
sg23
S'1'
sg18
F38.992279349360615
sg33
g34
sg51
g11
sg20
S'2'
sg65
g36
(g77
S'\x00\x00\x00\x00\x00\x00\x00\x00'
tRp183
sg44
g45
sg40
g41
sg25
F0.12048027804121375
sS'trials.thisIndex'
p184
g36
(g80
S'\x1a\x00\x00\x00'
tRp185
sg26
V5
sS'trials.thisRepN'
p186
I0
sg66
Vduck
p187
sg63
V../experiment_stimuli/bw_bc_bl/Living_Things/Birds/duck_0.jpg
p188
sg21
F0.17060009413398802
sS'trials.thisTrialN'
p189
I9
sa(dp190
g31
g32
sg17
F41.042287389049307
sg24
I1
sg35
g39
sg14
F41.036827579606324
sg16
g36
(g70
S'\x01\x00\x00\x00'
tRp191
sg42
g43
sg46
g47
sg15
g72
sg22
F42.360357865225524
sg64
VFurniture
p192
sg62
g169
sg49
g50
sS'trials.thisN'
p193
I10
sg19
I0
sg27
g36
(g38
S'\x00\x00\x00\x00\x00\x00\x1a@'
tRp194
sg52
g53
sg23
S'1'
sg18
F42.289443418616429
sg33
g34
sg51
g11
sg20
S'2'
sg65
g36
(g77
S'\x00\x00\x00\x00\x00\x00\x00\x00'
tRp195
sg44
g45
sg40
g41
sg25
F0.1806363754440099
sS'trials.thisIndex'
p196
g36
(g80
S'\x13\x00\x00\x00'
tRp197
sg26
V5
sS'trials.thisRepN'
p198
I0
sg66
Vcouch
p199
sg63
V../experiment_stimuli/bw_bc_bl/Nonliving_Things/Furniture/couch_15.jpg
p200
sg21
F0.050353763625025749
sS'trials.thisTrialN'
p201
I10
sa(dp202
g31
g32
sg17
F44.279827443649992
sg24
I0
sg35
g39
sg14
F44.273852904560044
sg16
g36
(g70
S'\x02\x00\x00\x00'
tRp203
sg42
g43
sg46
g47
sg15
g88
sg22
F46.419149594148621
sg64
g192
sg62
g169
sg49
g50
sS'trials.thisN'
p204
I11
sg19
I1
sg27
g36
(g38
S'\x00\x00\x00\x00\x00\x00\x1e@'
tRp205
sg52
g53
sg23
S'3'
sg18
F45.546529433690012
sg33
g34
sg51
g11
sg20
S'2'
sg65
g36
(g77
S'\x00\x00\x00\x00\x00\x00\x00\x00'
tRp206
sg44
g45
sg40
g41
sg25
F0.12050431547686458
sS'trials.thisIndex'
p207
g36
(g80
S'.\x00\x00\x00'
tRp208
sg26
V5
sS'trials.thisRepN'
p209
I0
sg66
Vlamp
p210
sg63
V../experiment_stimuli/bw_bc_bl/Nonliving_Things/Furniture/lamp_18.jpg
p211
sg21
F0.85208115796558559
sS'trials.thisTrialN'
p212
I11
sa(dp213
g31
g32
sg17
F48.277420285856351
sg24
I0
sg35
g39
sg14
F48.272545385640115
sg16
g36
(g70
S'\x01\x00\x00\x00'
tRp214
sg42
g43
sg46
g47
sg15
g72
sg22
F50.337660813471302
sg64
g192
sg62
g169
sg49
g50
sS'trials.thisN'
p215
I12
sg19
I1
sg27
g36
(g38
S'\x00\x00\x00\x00\x00\x00\x1a@'
tRp216
sg52
g53
sg23
S'3'
sg18
F49.525173273170367
sg33
g34
sg51
g11
sg20
S'1'
sg65
g36
(g77
S'\x00\x00\x00\x00\x00\x00\x00\x00'
tRp217
sg44
g45
sg40
g41
sg25
F0.1705910456366837
sS'trials.thisIndex'
p218
g36
(g80
S'Q\x00\x00\x00'
tRp219
sg26
V5
sS'trials.thisRepN'
p220
I0
sg66
Vtable
p221
sg63
V../experiment_stimuli/bw_bc_bl/Nonliving_Things/Furniture/table_4.jpg
p222
sg21
F0.79194433847442269
sS'trials.thisTrialN'
p223
I12
sa(dp224
g31
g32
sg17
F52.246046249987558
sg24
I0
sg35
g39
sg14
F52.241180556127802
sg16
g36
(g70
S'\x01\x00\x00\x00'
tRp225
sg42
g43
sg46
g47
sg15
g72
sg22
F54.155990689527243
sg64
VBuildings
p226
sg62
g169
sg49
g50
sS'trials.thisN'
p227
I13
sg19
I1
sg27
g36
(g38
S'\x00\x00\x00\x00\x00\x00\x1a@'
tRp228
sg52
g53
sg23
S'2'
sg18
F53.47375482483767
sg33
g34
sg51
g11
sg20
S'1'
sg65
g36
(g77
S'\x00\x00\x00\x00\x00\x00\x00\x00'
tRp229
sg44
g45
sg40
g41
sg25
F0.12048127432353795
sS'trials.thisIndex'
p230
g36
(g80
S'\x0e\x00\x00\x00'
tRp231
sg26
V5
sS'trials.thisRepN'
p232
I0
sg66
Vcathedral
p233
sg63
V../experiment_stimuli/bw_bc_bl/Nonliving_Things/Buildings/cathedral_1.jpg
p234
sg21
F0.66168292216025293
sS'trials.thisTrialN'
p235
I13
sa(dp236
g31
g32
sg17
F56.014342887327075
sg24
I1
sg35
g39
sg14
F56.009364774217829
sg16
g36
(g70
S'\x01\x00\x00\x00'
tRp237
sg42
g43
sg46
g47
sg15
g72
sg22
F57.322877891361713
sg64
VTools
p238
sg62
g169
sg49
g50
sS'trials.thisN'
p239
I14
sg19
I0
sg27
g36
(g38
S'\x00\x00\x00\x00\x00\x00\x1a@'
tRp240
sg52
g53
sg23
S'1'
sg18
F57.241944490233436
sg33
g34
sg51
g11
sg20
S'2'
sg65
g36
(g77
S'\x00\x00\x00\x00\x00\x00\x00\x00'
tRp241
sg44
g45
sg40
g41
sg25
F0.12048086849972606
sS'trials.thisIndex'
p242
g36
(g80
S'\x03\x00\x00\x00'
tRp243
sg26
V5
sS'trials.thisRepN'
p244
I0
sg66
Vaxe
p245
sg63
V../experiment_stimuli/bw_bc_bl/Nonliving_Things/Tools/axe_2.jpg
p246
sg21
F0.060376221779733896
sS'trials.thisTrialN'
p247
I14
sa(dp248
g31
g32
sg17
F59.181082719238475
sg24
I1
sg35
g39
sg14
F59.176287355367094
sg16
g36
(g70
S'\x02\x00\x00\x00'
tRp249
sg42
g43
sg46
g47
sg15
g72
sg22
F60.780411941697821
sg64
g73
sg62
g74
sg49
g50
sS'trials.thisN'
p250
I15
sg19
I1
sg27
g36
(g38
S'\x00\x00\x00\x00\x00\x00\x18@'
tRp251
sg52
g53
sg23
S'1'
sg18
F60.418853946961462
sg33
g34
sg51
g11
sg20
S'2'
sg65
g36
(g77
S'\x00\x00\x00\x00\x00\x00\x00\x00'
tRp252
sg44
g45
sg40
g41
sg25
F0.00024115038104355335
sS'trials.thisIndex'
p253
g36
(g80
S'(\x00\x00\x00'
tRp254
sg26
V5
sS'trials.thisRepN'
p255
I0
sg66
Vhorse
p256
sg63
V../experiment_stimuli/bw_bc_bl/Living_Things/Animals/horse_12.jpg
p257
sg21
F0.34098648116923869
sS'trials.thisTrialN'
p258
I15
sa(dp259
g31
g32
sg17
F62.518416457343847
sg24
I0
sg35
g39
sg14
F62.513524587033316
sg16
g36
(g70
S'\x02\x00\x00\x00'
tRp260
sg42
g43
sg46
g47
sg15
g72
sg22
F64.3581834922079
sg64
g111
sg62
g74
sg49
g50
sS'trials.thisN'
p261
I16
sg19
I1
sg27
g36
(g38
S'\x00\x00\x00\x00\x00\x00\x1c@'
tRp262
sg52
g53
sg23
S'2'
sg18
F63.786174003966153
sg33
g34
sg51
g11
sg20
S'2'
sg65
g36
(g77
S'\x00\x00\x00\x00\x00\x00\x00\x00'
tRp263
sg44
g45
sg40
g41
sg25
F0.12050299206748605
sS'trials.thisIndex'
p264
g36
(g80
S'7\x00\x00\x00'
tRp265
sg26
V5
sS'trials.thisRepN'
p266
I0
sg66
Vnarwhal
p267
sg63
V../experiment_stimuli/bw_bc_bl/Living_Things/Marine_creatures/narwhal_2.jpg
p268
sg21
F0.55145074892789125
sS'trials.thisTrialN'
p269
I16
sa(dp270
g31
g32
sg17
F66.216598580125719
sg24
I1
sg35
g39
sg14
F66.211546073434874
sg16
g36
(g70
S'\x02\x00\x00\x00'
tRp271
sg42
g43
sg46
g47
sg15
g72
sg22
F67.805747753242031
sg64
g111
sg62
g74
sg49
g50
sS'trials.thisN'
p272
I17
sg19
I0
sg27
g36
(g38
S'\x00\x00\x00\x00\x00\x00\x1c@'
tRp273
sg52
g53
sg23
S'1'
sg18
F67.474190858658403
sg33
g34
sg51
g11
sg20
S'1'
sg65
g36
(g77
S'\x00\x00\x00\x00\x00\x00\x00\x00'
tRp274
sg44
g45
sg40
g41
sg25
F0.44102098443545401
sS'trials.thisIndex'
p275
g36
(g80
S'1\x00\x00\x00'
tRp276
sg26
V5
sS'trials.thisRepN'
p277
I0
sg66
Vlobster
p278
sg63
V../experiment_stimuli/bw_bc_bl/Living_Things/Marine_creatures/lobster_20.jpg
p279
sg21
F0.31098192976787686
sS'trials.thisTrialN'
p280
I17
sa(dp281
g31
g32
sg17
F69.985954217612743
sg24
I0
sg35
g39
sg14
F69.979734287597239
sg16
g36
(g70
S'\x01\x00\x00\x00'
tRp282
sg42
g43
sg46
g47
sg15
g72
sg22
F71.994747658725828
sg64
VKitchen_Uten
p283
sg62
g169
sg49
g50
sS'trials.thisN'
p284
I18
sg19
I1
sg27
g36
(g38
S'\x00\x00\x00\x00\x00\x00\x18@'
tRp285
sg52
g53
sg23
S'2'
sg18
F71.262438270729035
sg33
g34
sg51
g11
sg20
S'1'
sg65
g36
(g77
S'\x00\x00\x00\x00\x00\x00\x00\x00'
tRp286
sg44
g45
sg40
g41
sg25
F0.11046959483064711
sS'trials.thisIndex'
p287
g36
(g80
S'\x1f\x00\x00\x00'
tRp288
sg26
V5
sS'trials.thisRepN'
p289
I0
sg66
Vfrying-pan
p290
sg63
V../experiment_stimuli/bw_bc_bl/Nonliving_Things/Kitchen_Uten/frying-pan_13.jpg
p291
sg21
F0.71177528356201947
sS'trials.thisTrialN'
p292
I18
sa(dp293
g31
g32
sg17
F73.842945250449702
sg24
I0
sg35
g39
sg14
F73.83812507474795
sg16
g36
(g70
S'\x02\x00\x00\x00'
tRp294
sg42
g43
sg46
g47
sg15
g88
sg22
F75.432263349415734
sg64
g168
sg62
g169
sg49
g50
sS'trials.thisN'
p295
I19
sg19
I0
sg27
g36
(g38
S'\x00\x00\x00\x00\x00\x00\x1a@'
tRp296
sg52
g53
sg23
S'2'
sg18
F75.110791276907548
sg33
g34
sg51
g11
sg20
S'1'
sg65
g36
(g77
S'\x00\x00\x00\x00\x00\x00\x00\x00'
tRp297
sg44
g45
sg40
g41
sg25
F0.1204827141482383
sS'trials.thisIndex'
p298
g36
(g80
S'L\x00\x00\x00'
tRp299
sg26
V5
sS'trials.thisRepN'
p300
I0
sg66
Vship
p301
sg63
V../experiment_stimuli/bw_bc_bl/Nonliving_Things/Vehicles/ship_17.jpg
p302
sg21
F0.30090315314009786
sS'trials.thisTrialN'
p303
I19
sa(dp304
g31
g32
sg17
F77.291251421906054
sg24
I0
sg35
g39
sg14
F77.285631144884974
sg16
g36
(g70
S'\x02\x00\x00\x00'
tRp305
sg42
g43
sg46
g47
sg15
g88
sg22
F79.110050527611747
sg64
g283
sg62
g169
sg49
g50
sS'trials.thisN'
p306
I20
sg19
I1
sg27
g36
(g38
S'\x00\x00\x00\x00\x00\x00\x1a@'
tRp307
sg52
g53
sg23
S'3'
sg18
F78.548267689533532
sg33
g34
sg51
g11
sg20
S'2'
sg65
g36
(g77
S'\x00\x00\x00\x00\x00\x00\x00\x00'
tRp308
sg44
g45
sg40
g41
sg25
F0.10044911038130522
sS'trials.thisIndex'
p309
g36
(g80
S'\x16\x00\x00\x00'
tRp310
sg26
V5
sS'trials.thisRepN'
p311
I0
sg66
Vcup
p312
sg63
V../experiment_stimuli/bw_bc_bl/Nonliving_Things/Kitchen_Uten/cup_13.jpg
p313
sg21
F0.53121693711727858
sS'trials.thisTrialN'
p314
I20
sa(dp315
g31
g32
sg17
F80.948500266065821
sg24
I1
sg35
g39
sg14
F80.943574918899685
sg16
g36
(g70
S'\x01\x00\x00\x00'
tRp316
sg42
g43
sg46
g47
sg15
g88
sg22
F82.38738047843799
sg64
g111
sg62
g74
sg49
g50
sS'trials.thisN'
p317
I21
sg19
I0
sg27
g36
(g38
S'\x00\x00\x00\x00\x00\x00 @'
tRp318
sg52
g53
sg23
S'1'
sg18
F82.186172826215625
sg33
g34
sg51
g11
sg20
S'2'
sg65
g36
(g77
S'\x00\x00\x00\x00\x00\x00\x00\x00'
tRp319
sg44
g45
sg40
g41
sg25
F0.10043712565675378
sS'trials.thisIndex'
p320
g36
(g80
S'K\x00\x00\x00'
tRp321
sg26
V5
sS'trials.thisRepN'
p322
I0
sg66
Vshark
p323
sg63
V../experiment_stimuli/bw_bc_bl/Living_Things/Marine_creatures/shark_16.jpg
p324
sg21
F0.18063391675241292
sS'trials.thisTrialN'
p325
I21
sa(dp326
g31
g32
sg17
F84.227156074019149
sg24
I1
sg35
g39
sg14
F84.220715808914974
sg16
g36
(g70
S'\x02\x00\x00\x00'
tRp327
sg42
g43
sg46
g47
sg15
g72
sg22
F85.634417524794117
sg64
g111
sg62
g74
sg49
g50
sS'trials.thisN'
p328
I22
sg19
I1
sg27
g36
(g38
S'\x00\x00\x00\x00\x00\x00\x18@'
tRp329
sg52
g53
sg23
S'1'
sg18
F85.473318035015836
sg33
g34
sg51
g11
sg20
S'2'
sg65
g36
(g77
S'\x00\x00\x00\x00\x00\x00\x00\x00'
tRp330
sg44
g45
sg40
g41
sg25
F0.090411449316889048
sS'trials.thisIndex'
p331
g36
(g80
S'A\x00\x00\x00'
tRp332
sg26
V5
sS'trials.thisRepN'
p333
I0
sg66
Vpomfret
p334
sg63
V../experiment_stimuli/bw_bc_bl/Living_Things/Marine_creatures/pomfret_8.jpg
p335
sg21
F0.14053003257140517
sS'trials.thisTrialN'
p336
I22
sa(dp337
g31
g32
sg17
F87.464105509221554
sg24
I1
sg35
g39
sg14
F87.457733295625076
sg16
g36
(g70
S'\x01\x00\x00\x00'
tRp338
sg42
g43
sg46
g47
sg15
g72
sg22
F88.881635737605393
sg64
g192
sg62
g169
sg49
g50
sS'trials.thisN'
p339
I23
sg19
I1
sg27
g36
(g38
S'\x00\x00\x00\x00\x00\x00\x18@'
tRp340
sg52
g53
sg23
S'1'
sg18
F88.730402257060632
sg33
g34
sg51
g11
sg20
S'1'
sg65
g36
(g77
S'\x00\x00\x00\x00\x00\x00\x00\x00'
tRp341
sg44
g45
sg40
g41
sg25
F3.1069774467032403
sS'trials.thisIndex'
p342
g36
(g80
S'\x02\x00\x00\x00'
tRp343
sg26
V5
sS'trials.thisRepN'
p344
I0
sg66
Varmchair
p345
sg63
V../experiment_stimuli/bw_bc_bl/Nonliving_Things/Furniture/armchair_21.jpg
p346
sg21
F0.1306701663415879
sS'trials.thisTrialN'
p347
I23
sa(dp348
g31
g32
sg17
F93.726299253525212
sg24
I0
sg35
g39
sg14
F93.721343305427581
sg16
g36
(g70
S'\x02\x00\x00\x00'
tRp349
sg42
g43
sg46
g47
sg15
g88
sg22
F95.445759248221293
sg64
VMusical_Inst
p350
sg62
g169
sg49
g50
sS'trials.thisN'
p351
I24
sg19
I1
sg27
g36
(g38
S'\x00\x00\x00\x00\x00\x00\x18@'
tRp352
sg52
g53
sg23
S'3'
sg18
F95.004052168224007
sg33
g34
sg51
g11
sg20
S'2'
sg65
g36
(g77
S'\x00\x00\x00\x00\x00\x00\x00\x00'
tRp353
sg44
g45
sg40
g41
sg25
F0.11045546317473054
sS'trials.thisIndex'
p354
g36
(g80
S'>\x00\x00\x00'
tRp355
sg26
V5
sS'trials.thisRepN'
p356
I0
sg66
Vpiano
p357
sg63
V../experiment_stimuli/bw_bc_bl/Nonliving_Things/Musical_Inst/piano__9.jpg
p358
sg21
F0.42115587810985744
sS'trials.thisTrialN'
p359
I24
sa(dp360
g31
g32
sg17
F97.294974054442719
sg24
I0
sg35
g39
sg14
F97.289105266099796
sg16
g36
(g70
S'\x02\x00\x00\x00'
tRp361
sg42
g43
sg46
g47
sg15
g72
sg22
F99.243993716547266
sg64
g111
sg62
g74
sg49
g50
sS'trials.thisN'
p362
I25
sg19
I1
sg27
g36
(g38
S'\x00\x00\x00\x00\x00\x00\x1a@'
tRp363
sg52
g53
sg23
S'3'
sg18
F98.541729845572263
sg33
g34
sg51
g11
sg20
S'2'
sg65
g36
(g77
S'\x00\x00\x00\x00\x00\x00\x00\x00'
tRp364
sg44
g45
sg40
g41
sg25
F0.71179006528109312
sS'trials.thisIndex'
p365
g36
(g80
S'\x15\x00\x00\x00'
tRp366
sg26
V5
sS'trials.thisRepN'
p367
I0
sg66
Vcrab
p368
sg63
V../experiment_stimuli/bw_bc_bl/Living_Things/Marine_creatures/crab_25.jpg
p369
sg21
F0.68170778569765389
sS'trials.thisTrialN'
p370
I25
sa(dp371
g31
g32
sg17
F101.69363103294745
sg24
I1
sg35
g39
sg14
F101.68866667128168
sg16
g36
(g70
S'\x01\x00\x00\x00'
tRp372
sg42
g43
sg46
g47
sg15
g72
sg22
F103.07231167494319
sg64
g226
sg62
g169
sg49
g50
sS'trials.thisN'
p373
I26
sg19
I0
sg27
g36
(g38
S'\x00\x00\x00\x00\x00\x00\x1c@'
tRp374
sg52
g53
sg23
S'1'
sg18
F102.92126274807379
sg33
g34
sg51
g11
sg20
S'2'
sg65
g36
(g77
S'\x00\x00\x00\x00\x00\x00\x00\x00'
tRp375
sg44
g45
sg40
g41
sg25
F0.060374150285497308
sS'trials.thisIndex'
p376
g36
(g80
S'5\x00\x00\x00'
tRp377
sg26
V5
sS'trials.thisRepN'
p378
I0
sg66
Vmill
p379
sg63
V../experiment_stimuli/bw_bc_bl/Nonliving_Things/Buildings/mill_2.jpg
p380
sg21
F0.12048733816482127
sS'trials.thisTrialN'
p381
I26
sa(dp382
g31
g32
sg17
F104.87045819754712
sg24
I1
sg35
g39
sg14
F104.86557266185991
sg16
g36
(g70
S'\x02\x00\x00\x00'
tRp383
sg42
g43
sg46
g47
sg15
g72
sg22
F106.20932265813462
sg64
g156
sg62
g74
sg49
g50
sS'trials.thisN'
p384
I27
sg19
I0
sg27
g36
(g38
S'\x00\x00\x00\x00\x00\x00\x18@'
tRp385
sg52
g53
sg23
S'1'
sg18
F106.128220601473
sg33
g34
sg51
g11
sg20
S'1'
sg65
g36
(g77
S'\x00\x00\x00\x00\x00\x00\x00\x00'
tRp386
sg44
g45
sg40
g41
sg25
F0.83203229447826743
sS'trials.thisIndex'
p387
g36
(g80
S'J\x00\x00\x00'
tRp388
sg26
V5
sS'trials.thisRepN'
p389
I0
sg66
Vseagull
p390
sg63
V../experiment_stimuli/bw_bc_bl/Living_Things/Birds/seagull_12.jpg
p391
sg21
F0.060539963888004422
sS'trials.thisTrialN'
p392
I27
sa(dp393
g31
g32
sg17
F108.77920226706192
sg24
I0
sg35
g39
sg14
F108.77407635538839
sg16
g36
(g70
S'\x01\x00\x00\x00'
tRp394
sg42
g43
sg46
g47
sg15
g88
sg22
F110.63879398815334
sg64
g73
sg62
g74
sg49
g50
sS'trials.thisN'
p395
I28
sg19
I1
sg27
g36
(g38
S'\x00\x00\x00\x00\x00\x00\x1a@'
tRp396
sg52
g53
sg23
S'2'
sg18
F110.05675977095962
sg33
g34
sg51
g11
sg20
S'1'
sg65
g36
(g77
S'\x00\x00\x00\x00\x00\x00\x00\x00'
tRp397
sg44
g45
sg40
g41
sg25
F0.1806151126511395
sS'trials.thisIndex'
p398
g36
(g80
S'\x1b\x00\x00\x00'
tRp399
sg26
V5
sS'trials.thisRepN'
p400
I0
sg66
Velephant
p401
sg63
V../experiment_stimuli/bw_bc_bl/Living_Things/Animals/elephant_12.jpg
p402
sg21
F0.56145215826109052
sS'trials.thisTrialN'
p403
I28
sa(dp404
g31
g32
sg17
F112.55813392903656
sg24
I0
sg35
g39
sg14
F112.55228750128299
sg16
g36
(g70
S'\x01\x00\x00\x00'
tRp405
sg42
g43
sg46
g47
sg15
g72
sg22
F114.47711455146782
sg64
g350
sg62
g169
sg49
g50
sS'trials.thisN'
p406
I29
sg19
I1
sg27
g36
(g38
S'\x00\x00\x00\x00\x00\x00\x18@'
tRp407
sg52
g53
sg23
S'2'
sg18
F113.82495539123192
sg33
g34
sg51
g11
sg20
S'1'
sg65
g36
(g77
S'\x00\x00\x00\x00\x00\x00\x00\x00'
tRp408
sg44
g45
sg40
g41
sg25
F0.060363022610545158
sS'trials.thisIndex'
p409
g36
(g80
S'\\\x00\x00\x00'
tRp410
sg26
V5
sS'trials.thisRepN'
p411
I0
sg66
Vviolin
p412
sg63
V../experiment_stimuli/bw_bc_bl/Nonliving_Things/Musical_Inst/violin_17.jpg
p413
sg21
F0.63161117257550359
sS'trials.thisTrialN'
p414
I29
sa(dp415
g31
g32
sg17
F116.27526324684732
sg24
I0
sg35
g39
sg14
F116.27037177141756
sg16
g36
(g70
S'\x01\x00\x00\x00'
tRp416
sg42
g43
sg46
g47
sg15
g88
sg22
F117.76427772594616
sg64
g111
sg62
g74
sg49
g50
sS'trials.thisN'
p417
I30
sg19
I1
sg27
g36
(g38
S'\x00\x00\x00\x00\x00\x00\x1c@'
tRp418
sg52
g53
sg23
S'2'
sg18
F117.5330362257082
sg33
g34
sg51
g11
sg20
S'1'
sg65
g36
(g77
S'\x00\x00\x00\x00\x00\x00\x00\x00'
tRp419
sg44
g45
sg40
g41
sg25
F0.15054965601302683
sS'trials.thisIndex'
p420
g36
(g80
S'+\x00\x00\x00'
tRp421
sg26
V5
sS'trials.thisRepN'
p422
I0
sg66
Vkiller-whale
p423
sg63
V../experiment_stimuli/bw_bc_bl/Living_Things/Marine_creatures/killer-whale_15.jpg
p424
sg21
F0.21069417055696249
sS'trials.thisTrialN'
p425
I30
sa(dp426
g31
g32
sg17
F119.65355580439791
sg24
I0
sg35
g39
sg14
F119.64770867372863
sg16
g36
(g70
S'\x01\x00\x00\x00'
tRp427
sg42
g43
sg46
g47
sg15
g88
sg22
F121.18169961031526
sg64
g156
sg62
g74
sg49
g50
sS'trials.thisN'
p428
I31
sg19
I1
sg27
g36
(g38
S'\x00\x00\x00\x00\x00\x00\x18@'
tRp429
sg52
g53
sg23
S'2'
sg18
F120.90033350861631
sg33
g34
sg51
g11
sg20
S'1'
sg65
g36
(g77
S'\x00\x00\x00\x00\x00\x00\x00\x00'
tRp430
sg44
g45
sg40
g41
sg25
F0.11031011189334095
sS'trials.thisIndex'
p431
g36
(g80
S'3\x00\x00\x00'
tRp432
sg26
V5
sS'trials.thisRepN'
p433
I0
sg66
Vmagpie
p434
sg63
V../experiment_stimuli/bw_bc_bl/Living_Things/Birds/magpie_20.jpg
p435
sg21
F0.26079929852858186
sS'trials.thisTrialN'
p436
I31
sa(dp437
g31
g32
sg17
F123.02988230763003
sg24
I1
sg35
g39
sg14
F123.02505626343191
sg16
g36
(g70
S'\x01\x00\x00\x00'
tRp438
sg42
g43
sg46
g47
sg15
g72
sg22
F124.88974649040028
sg64
g283
sg62
g169
sg49
g50
sS'trials.thisN'
p439
I32
sg19
I0
sg27
g36
(g38
S'\x00\x00\x00\x00\x00\x00\x18@'
tRp440
sg52
g53
sg23
S'1'
sg18
F124.26765829441138
sg33
g34
sg51
g11
sg20
S'2'
sg65
g36
(g77
S'\x00\x00\x00\x00\x00\x00\x00\x00'
tRp441
sg44
g45
sg40
g41
sg25
F0.080403089057654142
sS'trials.thisIndex'
p442
g36
(g80
S'G\x00\x00\x00'
tRp443
sg26
V5
sS'trials.thisRepN'
p444
I0
sg66
Vsaucepan
p445
sg63
V../experiment_stimuli/bw_bc_bl/Nonliving_Things/Kitchen_Uten/saucepan_19.jpg
p446
sg21
F0.60153409582562745
sS'trials.thisTrialN'
p447
I32
sa(dp448
g31
g32
sg17
F126.70888864481822
sg24
I0
sg35
g39
sg14
F126.70305902115069
sg16
g36
(g70
S'\x02\x00\x00\x00'
tRp449
sg42
g43
sg46
g47
sg15
g88
sg22
F128.5878079647664
sg64
g192
sg62
g169
sg49
g50
sS'trials.thisN'
p450
I33
sg19
I1
sg27
g36
(g38
S'\x00\x00\x00\x00\x00\x00\x1a@'
tRp451
sg52
g53
sg23
S'2'
sg18
F127.95567442034371
sg33
g34
sg51
g11
sg20
S'2'
sg65
g36
(g77
S'\x00\x00\x00\x00\x00\x00\x00\x00'
tRp452
sg44
g45
sg40
g41
sg25
F0.34095918061211705
sS'trials.thisIndex'
p453
g36
(g80
S'\x0f\x00\x00\x00'
tRp454
sg26
V5
sS'trials.thisRepN'
p455
I0
sg66
Vchair
p456
sg63
V../experiment_stimuli/bw_bc_bl/Nonliving_Things/Furniture/chair_7.jpg
p457
sg21
F0.61156830913387239
sS'trials.thisTrialN'
p458
I33
sa(dp459
g31
g32
sg17
F130.66679459693842
sg24
I1
sg35
g39
sg14
F130.66165086557157
sg16
g36
(g70
S'\x02\x00\x00\x00'
tRp460
sg42
g43
sg46
g47
sg15
g88
sg22
F132.39607056393288
sg64
g350
sg62
g169
sg49
g50
sS'trials.thisN'
p461
I34
sg19
I0
sg27
g36
(g38
S'\x00\x00\x00\x00\x00\x00\x18@'
tRp462
sg52
g53
sg23
S'1'
sg18
F131.90427014115267
sg33
g34
sg51
g11
sg20
S'1'
sg65
g36
(g77
S'\x00\x00\x00\x00\x00\x00\x00\x00'
tRp463
sg44
g45
sg40
g41
sg25
F1.0825783642940223
sS'trials.thisIndex'
p464
g36
(g80
S'X\x00\x00\x00'
tRp465
sg26
V5
sS'trials.thisRepN'
p466
I0
sg66
Vtrumpet
p467
sg63
V../experiment_stimuli/bw_bc_bl/Nonliving_Things/Musical_Inst/trumpet_17.jpg
p468
sg21
F0.47125301044434309
sS'trials.thisTrialN'
p469
I34
sa(dp470
g31
g32
sg17
F135.21745435707271
sg24
I0
sg35
g39
sg14
F135.21154634724371
sg16
g36
(g70
S'\x01\x00\x00\x00'
tRp471
sg42
g43
sg46
g47
sg15
g88
sg22
F137.14639026136138
sg64
VInsects
p472
sg62
g74
sg49
g50
sS'trials.thisN'
p473
I35
sg19
I1
sg27
g36
(g38
S'\x00\x00\x00\x00\x00\x00 @'
tRp474
sg52
g53
sg23
S'3'
sg18
F136.48422260535881
sg33
g34
sg51
g11
sg20
S'1'
sg65
g36
(g77
S'\x00\x00\x00\x00\x00\x00\x00\x00'
tRp475
sg44
g45
sg40
g41
sg25
F0.11046921880915761
sS'trials.thisIndex'
p476
g36
(g80
S'\x18\x00\x00\x00'
tRp477
sg26
V5
sS'trials.thisRepN'
p478
I0
sg66
Vdragonfly
p479
sg63
V../experiment_stimuli/bw_bc_bl/Living_Things/Insects/dragonfly_11.jpg
p480
sg21
F0.64162735221907496
sS'trials.thisTrialN'
p481
I35
sa(dp482
g31
g32
sg17
F138.99578448222019
sg24
I1
sg35
g39
sg14
F138.98976457933895
sg16
g36
(g70
S'\x02\x00\x00\x00'
tRp483
sg42
g43
sg46
g47
sg15
g72
sg22
F140.43353617703542
sg64
g73
sg62
g74
sg49
g50
sS'trials.thisN'
p484
I36
sg19
I1
sg27
g36
(g38
S'\x00\x00\x00\x00\x00\x00\x18@'
tRp485
sg52
g53
sg23
S'1'
sg18
F140.24238225654699
sg33
g34
sg51
g11
sg20
S'2'
sg65
g36
(g77
S'\x00\x00\x00\x00\x00\x00\x00\x00'
tRp486
sg44
g45
sg40
g41
sg25
F0.10046611004509032
sS'trials.thisIndex'
p487
g36
(g80
S'0\x00\x00\x00'
tRp488
sg26
V5
sS'trials.thisRepN'
p489
I0
sg66
Vlioness
p490
sg63
V../experiment_stimuli/bw_bc_bl/Living_Things/Animals/lioness_18.jpg
p491
sg21
F0.17059312062337995
sS'trials.thisTrialN'
p492
I36
sa(dp493
g31
g32
sg17
F142.27178955730051
sg24
I0
sg35
g39
sg14
F142.26688305963762
sg16
g36
(g70
S'\x02\x00\x00\x00'
tRp494
sg42
g43
sg46
g47
sg15
g88
sg22
F144.0113416176755
sg64
g192
sg62
g169
sg49
g50
sS'trials.thisN'
p495
I37
sg19
I1
sg27
g36
(g38
S'\x00\x00\x00\x00\x00\x00\x1a@'
tRp496
sg52
g53
sg23
S'3'
sg18
F143.54957561078481
sg33
g34
sg51
g11
sg20
S'2'
sg65
g36
(g77
S'\x00\x00\x00\x00\x00\x00\x00\x00'
tRp497
sg44
g45
sg40
g41
sg25
F0.060353673296049237
sS'trials.thisIndex'
p498
g36
(g80
S'\x08\x00\x00\x00'
tRp499
sg26
V5
sS'trials.thisRepN'
p500
I0
sg66
Vbookcase
p501
sg63
V../experiment_stimuli/bw_bc_bl/Nonliving_Things/Furniture/bookcase_13.jpg
p502
sg21
F0.44119626423344016
sS'trials.thisTrialN'
p503
I37
sa(dp504
g31
g32
sg17
F145.8104962084908
sg24
I0
sg35
g39
sg14
F145.80457756388932
sg16
g36
(g70
S'\x02\x00\x00\x00'
tRp505
sg42
g43
sg46
g47
sg15
g72
sg22
F147.7895331622567
sg64
g156
sg62
g74
sg49
g50
sS'trials.thisN'
p506
I38
sg19
I1
sg27
g36
(g38
S'\x00\x00\x00\x00\x00\x00\x18@'
tRp507
sg52
g53
sg23
S'2'
sg18
F147.05721083469689
sg33
g34
sg51
g11
sg20
S'2'
sg65
g36
(g77
S'\x00\x00\x00\x00\x00\x00\x00\x00'
tRp508
sg44
g45
sg40
g41
sg25
F0.37102793785743415
sS'trials.thisIndex'
p509
g36
(g80
S'"\x00\x00\x00'
tRp510
sg26
V5
sS'trials.thisRepN'
p511
I0
sg66
Vgoose
p512
sg63
V../experiment_stimuli/bw_bc_bl/Living_Things/Birds/goose_16.jpg
p513
sg21
F0.71177904703654349
sS'trials.thisTrialN'
p514
I38
sa(dp515
g31
g32
sg17
F149.89944552816451
sg24
I1
sg35
g39
sg14
F149.89346141438
sg16
g36
(g70
S'\x01\x00\x00\x00'
tRp516
sg42
g43
sg46
g47
sg15
g88
sg22
F151.21700001577847
sg64
g73
sg62
g74
sg49
g50
sS'trials.thisN'
p517
I39
sg19
I1
sg27
g36
(g38
S'\x00\x00\x00\x00\x00\x00\x18@'
tRp518
sg52
g53
sg23
S'1'
sg18
F151.13606990035623
sg33
g34
sg51
g11
sg20
S'1'
sg65
g36
(g77
S'\x00\x00\x00\x00\x00\x00\x00\x00'
tRp519
sg44
g45
sg40
g41
sg25
F0.46122333826497197
sS'trials.thisIndex'
p520
g36
(g80
S'\x10\x00\x00\x00'
tRp521
sg26
V5
sS'trials.thisRepN'
p522
I0
sg66
Vcheetah
p523
sg63
V../experiment_stimuli/bw_bc_bl/Living_Things/Animals/cheetah_15.jpg
p524
sg21
F0.06035177456215024
sS'trials.thisTrialN'
p525
I39
sa(dp526
g31
g32
sg17
F153.4160195379518
sg24
I0
sg35
g39
sg14
F153.41110967937857
sg16
g36
(g70
S'\x02\x00\x00\x00'
tRp527
sg42
g43
sg46
g47
sg15
g72
sg22
F155.33592530852184
sg64
g156
sg62
g74
sg49
g50
sS'trials.thisN'
p528
I40
sg19
I1
sg27
g36
(g38
S'\x00\x00\x00\x00\x00\x00\x1c@'
tRp529
sg52
g53
sg23
S'3'
sg18
F154.68377994908951
sg33
g34
sg51
g11
sg20
S'2'
sg65
g36
(g77
S'\x00\x00\x00\x00\x00\x00\x00\x00'
tRp530
sg44
g45
sg40
g41
sg25
F0.15054936660453677
sS'trials.thisIndex'
p531
g36
(g80
S';\x00\x00\x00'
tRp532
sg26
V5
sS'trials.thisRepN'
p533
I0
sg66
Vpartridge
p534
sg63
V../experiment_stimuli/bw_bc_bl/Living_Things/Birds/partridge_18.jpg
p535
sg21
F0.63160464609973133
sS'trials.thisTrialN'
p536
I40
sa(dp537
g31
g32
sg17
F157.22424778016284
sg24
I0
sg35
g39
sg14
F157.21939419908449
sg16
g36
(g70
S'\x02\x00\x00\x00'
tRp538
sg42
g43
sg46
g47
sg15
g72
sg22
F159.08409417793155
sg64
g111
sg62
g74
sg49
g50
sS'trials.thisN'
p539
I41
sg19
I1
sg27
g36
(g38
S'\x00\x00\x00\x00\x00\x00\x1c@'
tRp540
sg52
g53
sg23
S'3'
sg18
F158.47201674082316
sg33
g34
sg51
g11
sg20
S'2'
sg65
g36
(g77
S'\x00\x00\x00\x00\x00\x00\x00\x00'
tRp541
sg44
g45
sg40
g41
sg25
F0.12047716556116939
sS'trials.thisIndex'
p542
g36
(g80
S'4\x00\x00\x00'
tRp543
sg26
V5
sS'trials.thisRepN'
p544
I0
sg66
Vmanatee
p545
sg63
V../experiment_stimuli/bw_bc_bl/Living_Things/Marine_creatures/manatee_17.jpg
p546
sg21
F0.59151294967159629
sS'trials.thisTrialN'
p547
I41
sa(dp548
g31
g32
sg17
F160.94243607902899
sg24
I0
sg35
g39
sg14
F160.93747154809535
sg16
g36
(g70
S'\x02\x00\x00\x00'
tRp549
sg42
g43
sg46
g47
sg15
g72
sg22
F162.54163878457621
sg64
g156
sg62
g74
sg49
g50
sS'trials.thisN'
p550
I42
sg19
I1
sg27
g36
(g38
S'\x00\x00\x00\x00\x00\x00\x18@'
tRp551
sg52
g53
sg23
S'2'
sg18
F162.17005652352236
sg33
g34
sg51
g11
sg20
S'2'
sg65
g36
(g77
S'\x00\x00\x00\x00\x00\x00\x00\x00'
tRp552
sg44
g45
sg40
g41
sg25
F0.21067679859697819
sS'trials.thisIndex'
p553
g36
(g80
S'=\x00\x00\x00'
tRp554
sg26
V5
sS'trials.thisRepN'
p555
I0
sg66
Vpenguin
p556
sg63
V../experiment_stimuli/bw_bc_bl/Living_Things/Birds/penguin_18.jpg
p557
sg21
F0.35102478112094104
sS'trials.thisTrialN'
p558
I42
sa(dp559
g31
g32
sg17
F164.49210684001446
sg24
I1
sg35
g39
sg14
F164.48518463061191
sg16
g36
(g70
S'\x02\x00\x00\x00'
tRp560
sg42
g43
sg46
g47
sg15
g72
sg22
F165.88872377038933
sg64
g156
sg62
g74
sg49
g50
sS'trials.thisN'
p561
I43
sg19
I1
sg27
g36
(g38
S'\x00\x00\x00\x00\x00\x00\x18@'
tRp562
sg52
g53
sg23
S'1'
sg18
F165.71776425652206
sg33
g34
sg51
g11
sg20
S'2'
sg65
g36
(g77
S'\x00\x00\x00\x00\x00\x00\x00\x00'
tRp563
sg44
g45
sg40
g41
sg25
F0.10044140764512122
sS'trials.thisIndex'
p564
g36
(g80
S'*\x00\x00\x00'
tRp565
sg26
V5
sS'trials.thisRepN'
p566
I0
sg66
Vhummingbird
p567
sg63
V../experiment_stimuli/bw_bc_bl/Living_Things/Birds/hummingbird_22.jpg
p568
sg21
F0.15039560198783875
sS'trials.thisTrialN'
p569
I43
sa(dp570
g31
g32
sg17
F167.72829218860716
sg24
I1
sg35
g39
sg14
F167.72221636166796
sg16
g36
(g70
S'\x01\x00\x00\x00'
tRp571
sg42
g43
sg46
g47
sg15
g72
sg22
F169.16603984171525
sg64
g226
sg62
g169
sg49
g50
sS'trials.thisN'
p572
I44
sg19
I0
sg27
g36
(g38
S'\x00\x00\x00\x00\x00\x00\x18@'
tRp573
sg52
g53
sg23
S'1'
sg18
F168.96482823463157
sg33
g34
sg51
g11
sg20
S'2'
sg65
g36
(g77
S'\x00\x00\x00\x00\x00\x00\x00\x00'
tRp574
sg44
g45
sg40
g41
sg25
F0.15055292309261858
sS'trials.thisIndex'
p575
g36
(g80
S':\x00\x00\x00'
tRp576
sg26
V5
sS'trials.thisRepN'
p577
I0
sg66
Vpalace
p578
sg63
V../experiment_stimuli/bw_bc_bl/Nonliving_Things/Buildings/palace_12.jpg
p579
sg21
F0.18064097687602043
sS'trials.thisTrialN'
p580
I44
sa(dp581
g31
g32
sg17
F171.05434477608651
sg24
I1
sg35
g39
sg14
F171.04945419542491
sg16
g36
(g70
S'\x01\x00\x00\x00'
tRp582
sg42
g43
sg46
g47
sg15
g88
sg22
F172.63353695254773
sg64
g156
sg62
g74
sg49
g50
sS'trials.thisN'
p583
I45
sg19
I0
sg27
g36
(g38
S'\x00\x00\x00\x00\x00\x00\x1e@'
tRp584
sg52
g53
sg23
S'1'
sg18
F172.31209923652932
sg33
g34
sg51
g11
sg20
S'2'
sg65
g36
(g77
S'\x00\x00\x00\x00\x00\x00\x00\x00'
tRp585
sg44
g45
sg40
g41
sg25
F0.1205069434363395
sS'trials.thisIndex'
p586
g36
(g80
S'F\x00\x00\x00'
tRp587
sg26
V5
sS'trials.thisRepN'
p588
I0
sg66
Vrooster
p589
sg63
V../experiment_stimuli/bw_bc_bl/Living_Things/Birds/rooster_13.jpg
p590
sg21
F0.30087248398922384
sS'trials.thisTrialN'
p591
I45
sa(dp592
g31
g32
sg17
F174.49179787375033
sg24
I0
sg35
g39
sg14
F174.48692862712778
sg16
g36
(g70
S'\x02\x00\x00\x00'
tRp593
sg42
g43
sg46
g47
sg15
g72
sg22
F176.46185862878338
sg64
g156
sg62
g74
sg49
g50
sS'trials.thisN'
p594
I46
sg19
I1
sg27
g36
(g38
S'\x00\x00\x00\x00\x00\x00 @'
tRp595
sg52
g53
sg23
S'2'
sg18
F175.75960900587961
sg33
g34
sg51
g11
sg20
S'2'
sg65
g36
(g77
S'\x00\x00\x00\x00\x00\x00\x00\x00'
tRp596
sg44
g45
sg40
g41
sg25
F0.25062439916655421
sS'trials.thisIndex'
p597
g36
(g80
S'?\x00\x00\x00'
tRp598
sg26
V5
sS'trials.thisRepN'
p599
I0
sg66
Vpigeon
p600
sg63
V../experiment_stimuli/bw_bc_bl/Living_Things/Birds/pigeon_8.jpg
p601
sg21
F0.68170855613425374
sS'trials.thisTrialN'
p602
I46
sa(dp603
g31
g32
sg17
F178.45053348690271
sg24
I1
sg35
g39
sg14
F178.44552935496904
sg16
g36
(g70
S'\x01\x00\x00\x00'
tRp604
sg42
g43
sg46
g47
sg15
g88
sg22
F179.9193951417692
sg64
g73
sg62
g74
sg49
g50
sS'trials.thisN'
p605
I47
sg19
I0
sg27
g36
(g38
S'\x00\x00\x00\x00\x00\x00\x18@'
tRp606
sg52
g53
sg23
S'1'
sg18
F179.7081834487617
sg33
g34
sg51
g11
sg20
S'2'
sg65
g36
(g77
S'\x00\x00\x00\x00\x00\x00\x00\x00'
tRp607
sg44
g45
sg40
g41
sg25
F0.12048491346649826
sS'trials.thisIndex'
p608
g36
(g80
S'2\x00\x00\x00'
tRp609
sg26
V5
sS'trials.thisRepN'
p610
I0
sg66
Vlynx
p611
sg63
V../experiment_stimuli/bw_bc_bl/Living_Things/Animals/lynx_10.jpg
p612
sg21
F0.19063495402224362
sS'trials.thisTrialN'
p613
I47
sa(dp614
g31
g32
sg17
F181.77872970933095
sg24
I1
sg35
g39
sg14
F181.77276221918873
sg16
g36
(g70
S'\x02\x00\x00\x00'
tRp615
sg42
g43
sg46
g47
sg15
g72
sg22
F183.14638693770394
sg64
g111
sg62
g74
sg49
g50
sS'trials.thisN'
p616
I48
sg19
I0
sg27
g36
(g38
S'\x00\x00\x00\x00\x00\x00\x18@'
tRp617
sg52
g53
sg23
S'1'
sg18
F183.06548788584769
sg33
g34
sg51
g11
sg20
S'1'
sg65
g36
(g77
S'\x00\x00\x00\x00\x00\x00\x00\x00'
tRp618
sg44
g45
sg40
g41
sg25
F0.72177812177687883
sS'trials.thisIndex'
p619
g36
(g80
S'\x17\x00\x00\x00'
tRp620
sg26
V5
sS'trials.thisRepN'
p621
I0
sg66
Vdolphin
p622
sg63
V../experiment_stimuli/bw_bc_bl/Living_Things/Marine_creatures/dolphin_8.jpg
p623
sg21
F0.060359485447406769
sS'trials.thisTrialN'
p624
I48
sa(dp625
g31
g32
sg17
F185.60691927094012
sg24
I0
sg35
g39
sg14
F185.60108777880669
sg16
g36
(g70
S'\x01\x00\x00\x00'
tRp626
sg42
g43
sg46
g47
sg15
g72
sg22
F187.52594954660162
sg64
g192
sg62
g169
sg49
g50
sS'trials.thisN'
p627
I49
sg19
I1
sg27
g36
(g38
S'\x00\x00\x00\x00\x00\x00\x18@'
tRp628
sg52
g53
sg23
S'3'
sg18
F186.92387677822262
sg33
g34
sg51
g11
sg20
S'1'
sg65
g36
(g77
S'\x00\x00\x00\x00\x00\x00\x00\x00'
tRp629
sg44
g45
sg40
g41
sg25
F0.12048995844088495
sS'trials.thisIndex'
p630
g36
(g80
S']\x00\x00\x00'
tRp631
sg26
V5
sS'trials.thisRepN'
p632
I0
sg66
Vwardrobe
p633
sg63
V../experiment_stimuli/bw_bc_bl/Nonliving_Things/Furniture/wardrobe_24.jpg
p634
sg21
F0.581487946677953
sS'trials.thisTrialN'
p635
I49
sa(dp636
g31
g32
sg17
F189.38440131442621
sg24
I0
sg35
g39
sg14
F189.3793037366122
sg16
g36
(g70
S'\x01\x00\x00\x00'
tRp637
sg42
g43
sg46
g47
sg15
g88
sg22
F190.94333734479733
sg64
g156
sg62
g74
sg49
g50
sS'trials.thisN'
p638
I50
sg19
I1
sg27
g36
(g38
S'\x00\x00\x00\x00\x00\x00\x1a@'
tRp639
sg52
g53
sg23
S'2'
sg18
F190.69205975951627
sg33
g34
sg51
g11
sg20
S'1'
sg65
g36
(g77
S'\x00\x00\x00\x00\x00\x00\x00\x00'
tRp640
sg44
g45
sg40
g41
sg25
F0.11046327161602676
sS'trials.thisIndex'
p641
g36
(g80
S'8\x00\x00\x00'
tRp642
sg26
V5
sS'trials.thisRepN'
p643
I0
sg66
Vostrich
p644
sg63
V../experiment_stimuli/bw_bc_bl/Living_Things/Birds/ostrich_13.jpg
p645
sg21
F0.23072715429589152
sS'trials.thisTrialN'
p646
I50
sa(dp647
g31
g32
sg17
F192.79159516887739
sg24
I0
sg35
g39
sg14
F192.78671166673303
sg16
g36
(g70
S'\x02\x00\x00\x00'
tRp648
sg42
g43
sg46
g47
sg15
g88
sg22
F194.35077280085534
sg64
g350
sg62
g169
sg49
g50
sS'trials.thisN'
p649
I51
sg19
I0
sg27
g36
(g38
S'\x00\x00\x00\x00\x00\x00\x1e@'
tRp650
sg52
g53
sg23
S'2'
sg18
F194.08945659245364
sg33
g34
sg51
g11
sg20
S'1'
sg65
g36
(g77
S'\x00\x00\x00\x00\x00\x00\x00\x00'
tRp651
sg44
g45
sg40
g41
sg25
F0.090405693743377924
sS'trials.thisIndex'
p652
g36
(g80
S'H\x00\x00\x00'
tRp653
sg26
V5
sS'trials.thisRepN'
p654
I0
sg66
Vsaxophone
p655
sg63
V../experiment_stimuli/bw_bc_bl/Nonliving_Things/Musical_Inst/saxophone_1.jpg
p656
sg21
F0.24076033383607864
sS'trials.thisTrialN'
p657
I51
sa(dp658
g31
g32
sg17
F196.17897678026929
sg24
I0
sg35
g39
sg14
F196.17408415838145
sg16
g36
(g70
S'\x01\x00\x00\x00'
tRp659
sg42
g43
sg46
g47
sg15
g88
sg22
F198.93069899524562
sg64
g156
sg62
g74
sg49
g50
sS'trials.thisN'
p660
I52
sg19
I1
sg27
g36
(g38
S'\x00\x00\x00\x00\x00\x00\x18@'
tRp661
sg52
g53
sg23
S'2'
sg18
F197.46678802440874
sg33
g34
sg51
g11
sg20
S'1'
sg65
g36
(g77
S'\x00\x00\x00\x00\x00\x00\x00\x00'
tRp662
sg44
g45
sg40
g41
sg25
F0.15055443020537496
sS'trials.thisIndex'
p663
g36
(g80
S'!\x00\x00\x00'
tRp664
sg26
V5
sS'trials.thisRepN'
p665
I0
sg66
Vgoldfinch
p666
sg63
V../experiment_stimuli/bw_bc_bl/Living_Things/Birds/goldfinch_15.jpg
p667
sg21
F1.4433658176567405
sS'trials.thisTrialN'
p668
I52
sa(dp669
g31
g32
sg17
F200.81908327410929
sg24
I0
sg35
g39
sg14
F200.81417293846607
sg16
g36
(g70
S'\x01\x00\x00\x00'
tRp670
sg42
g43
sg46
g47
sg15
g88
sg22
F202.5085137214046
sg64
g73
sg62
g74
sg49
g50
sS'trials.thisN'
p671
I53
sg19
I1
sg27
g36
(g38
S'\x00\x00\x00\x00\x00\x00\x18@'
tRp672
sg52
g53
sg23
S'2'
sg18
F202.08683320414275
sg33
g34
sg51
g11
sg20
S'1'
sg65
g36
(g77
S'\x00\x00\x00\x00\x00\x00\x00\x00'
tRp673
sg44
g45
sg40
g41
sg25
F0.12048365781083703
sS'trials.thisIndex'
p674
g36
(g80
S'\x01\x00\x00\x00'
tRp675
sg26
V5
sS'trials.thisRepN'
p676
I0
sg66
Varmadillo
p677
sg63
V../experiment_stimuli/bw_bc_bl/Living_Things/Animals/armadillo_9.jpg
p678
sg21
F0.40109941363334656
sS'trials.thisTrialN'
p679
I53
sa(dp680
g31
g32
sg17
F204.36822105408646
sg24
I0
sg35
g39
sg14
F204.3618773103226
sg16
g36
(g70
S'\x02\x00\x00\x00'
tRp681
sg42
g43
sg46
g47
sg15
g88
sg22
F206.14639808400534
sg64
g192
sg62
g169
sg49
g50
sS'trials.thisN'
p682
I54
sg19
I1
sg27
g36
(g38
S'\x00\x00\x00\x00\x00\x00 @'
tRp683
sg52
g53
sg23
S'3'
sg18
F205.62453432846814
sg33
g34
sg51
g11
sg20
S'2'
sg65
g36
(g77
S'\x00\x00\x00\x00\x00\x00\x00\x00'
tRp684
sg44
g45
sg40
g41
sg25
F0.17059150827117264
sS'trials.thisIndex'
p685
g36
(g80
S'\x06\x00\x00\x00'
tRp686
sg26
V5
sS'trials.thisRepN'
p687
I0
sg66
Vbedside-table
p688
sg63
V../experiment_stimuli/bw_bc_bl/Nonliving_Things/Furniture/bedside-table_6.jpg
p689
sg21
F0.50131605356000364
sS'trials.thisTrialN'
p690
I54
sa(dp691
g31
g32
sg17
F208.05475762230344
sg24
I0
sg35
g39
sg14
F208.04989162762649
sg16
g36
(g70
S'\x01\x00\x00\x00'
tRp692
sg42
g43
sg46
g47
sg15
g72
sg22
F209.97471148241311
sg64
g350
sg62
g169
sg49
g50
sS'trials.thisN'
p693
I55
sg19
I1
sg27
g36
(g38
S'\x00\x00\x00\x00\x00\x00\x1a@'
tRp694
sg52
g53
sg23
S'2'
sg18
F209.28247374203056
sg33
g34
sg51
g11
sg20
S'1'
sg65
g36
(g77
S'\x00\x00\x00\x00\x00\x00\x00\x00'
tRp695
sg44
g45
sg40
g41
sg25
F0.11045982805080712
sS'trials.thisIndex'
p696
g36
(g80
S'Y\x00\x00\x00'
tRp697
sg26
V5
sS'trials.thisRepN'
p698
I0
sg66
Vtuba
p699
sg63
V../experiment_stimuli/bw_bc_bl/Nonliving_Things/Musical_Inst/tuba_3.jpg
p700
sg21
F0.67167716985568404
sS'trials.thisTrialN'
p701
I55
sa(dp702
g31
g32
sg17
F211.82288945396431
sg24
I0
sg35
g39
sg14
F211.81809093197808
sg16
g36
(g70
S'\x02\x00\x00\x00'
tRp703
sg42
g43
sg46
g47
sg15
g88
sg22
F213.3719619975891
sg64
g192
sg62
g169
sg49
g50
sS'trials.thisN'
p704
I56
sg19
I0
sg27
g36
(g38
S'\x00\x00\x00\x00\x00\x00\x1c@'
tRp705
sg52
g53
sg23
S'2'
sg18
F213.05066541116685
sg33
g34
sg51
g11
sg20
S'1'
sg65
g36
(g77
S'\x00\x00\x00\x00\x00\x00\x00\x00'
tRp706
sg44
g45
sg40
g41
sg25
F0.040308046853169799
sS'trials.thisIndex'
p707
g36
(g80
S'N\x00\x00\x00'
tRp708
sg26
V5
sS'trials.thisRepN'
p709
I0
sg66
Vsofa
p710
sg63
V../experiment_stimuli/bw_bc_bl/Nonliving_Things/Furniture/sofa_7.jpg
p711
sg21
F0.30071822321042418
sS'trials.thisTrialN'
p712
I56
sa(dp713
g31
g32
sg17
F215.15267879981548
sg24
I1
sg35
g39
sg14
F215.145320386393
sg16
g36
(g70
S'\x02\x00\x00\x00'
tRp714
sg42
g43
sg46
g47
sg15
g72
sg22
F216.47899347008206
sg64
g73
sg62
g74
sg49
g50
sS'trials.thisN'
p715
I57
sg19
I1
sg27
g36
(g38
S'\x00\x00\x00\x00\x00\x00\x1e@'
tRp716
sg52
g53
sg23
S'1'
sg18
F216.3778980684001
sg33
g34
sg51
g11
sg20
S'2'
sg65
g36
(g77
S'\x00\x00\x00\x00\x00\x00\x00\x00'
tRp717
sg44
g45
sg40
g41
sg25
F0.90228626178577542
sS'trials.thisIndex'
p718
g36
(g80
S'_\x00\x00\x00'
tRp719
sg26
V5
sS'trials.thisRepN'
p720
I0
sg66
Vzebra
p721
sg63
V../experiment_stimuli/bw_bc_bl/Living_Things/Animals/zebra_16.jpg
p722
sg21
F0.080510861938819289
sS'trials.thisTrialN'
p723
I57
sa(dp724
g31
g32
sg17
F219.11885839304887
sg24
I0
sg35
g39
sg14
F219.11394281638786
sg16
g36
(g70
S'\x01\x00\x00\x00'
tRp725
sg42
g43
sg46
g47
sg15
g72
sg22
F220.89849633048289
sg64
g168
sg62
g169
sg49
g50
sS'trials.thisN'
p726
I58
sg19
I1
sg27
g36
(g38
S'\x00\x00\x00\x00\x00\x00\x18@'
tRp727
sg52
g53
sg23
S'3'
sg18
F220.35654986998998
sg33
g34
sg51
g11
sg20
S'1'
sg65
g36
(g77
S'\x00\x00\x00\x00\x00\x00\x00\x00'
tRp728
sg44
g45
sg40
g41
sg25
F0.090435054386034608
sS'trials.thisIndex'
p729
g36
(g80
S'\t\x00\x00\x00'
tRp730
sg26
V5
sS'trials.thisRepN'
p731
I0
sg66
Vbus
p732
sg63
V../experiment_stimuli/bw_bc_bl/Nonliving_Things/Vehicles/bus_11.jpg
p733
sg21
F0.52138409344479442
sS'trials.thisTrialN'
p734
I58
sa(dp735
g31
g32
sg17
F222.72658835258335
sg24
I0
sg35
g39
sg14
F222.72178637608886
sg16
g36
(g70
S'\x02\x00\x00\x00'
tRp736
sg42
g43
sg46
g47
sg15
g88
sg22
F224.17564213718288
sg64
g283
sg62
g169
sg49
g50
sS'trials.thisN'
p737
I59
sg19
I0
sg27
g36
(g38
S'\x00\x00\x00\x00\x00\x00\x18@'
tRp738
sg52
g53
sg23
S'2'
sg18
F223.95439275330864
sg33
g34
sg51
g11
sg20
S'1'
sg65
g36
(g77
S'\x00\x00\x00\x00\x00\x00\x00\x00'
tRp739
sg44
g45
sg40
g41
sg25
F0.090433204779401422
sS'trials.thisIndex'
p740
g36
(g80
S'\x1e\x00\x00\x00'
tRp741
sg26
V5
sS'trials.thisRepN'
p742
I0
sg66
Vfondue
p743
sg63
V../experiment_stimuli/bw_bc_bl/Nonliving_Things/Kitchen_Uten/fondue_25.jpg
p744
sg21
F0.20069173839874566
sS'trials.thisTrialN'
p745
I59
sa(dp746
g31
g32
sg17
F226.00368611887097
sg24
I1
sg35
g39
sg14
F225.99891144270077
sg16
g36
(g70
S'\x02\x00\x00\x00'
tRp747
sg42
g43
sg46
g47
sg15
g88
sg22
F227.33244478795677
sg64
g192
sg62
g169
sg49
g50
sS'trials.thisN'
p748
I60
sg19
I1
sg27
g36
(g38
S'\x00\x00\x00\x00\x00\x00\x1e@'
tRp749
sg52
g53
sg23
S'1'
sg18
F227.23151253024116
sg33
g34
sg51
g11
sg20
S'2'
sg65
g36
(g77
S'\x00\x00\x00\x00\x00\x00\x00\x00'
tRp750
sg44
g45
sg40
g41
sg25
F2.6259347009472549
sS'trials.thisIndex'
p751
g36
(g80
S'/\x00\x00\x00'
tRp752
sg26
V5
sS'trials.thisRepN'
p753
I0
sg66
Vlectern
p754
sg63
V../experiment_stimuli/bw_bc_bl/Nonliving_Things/Furniture/lectern_4.jpg
p755
sg21
F0.080396025441586971
sS'trials.thisTrialN'
p756
I60
sa(dp757
g31
g32
sg17
F231.69618191337213
sg24
I1
sg35
g39
sg14
F231.69129027612507
sg16
g36
(g70
S'\x01\x00\x00\x00'
tRp758
sg42
g43
sg46
g47
sg15
g88
sg22
F233.67624573968351
sg64
g472
sg62
g74
sg49
g50
sS'trials.thisN'
p759
I61
sg19
I0
sg27
g36
(g38
S'\x00\x00\x00\x00\x00\x00 @'
tRp760
sg52
g53
sg23
S'1'
sg18
F232.95393800502643
sg33
g34
sg51
g11
sg20
S'2'
sg65
g36
(g77
S'\x00\x00\x00\x00\x00\x00\x00\x00'
tRp761
sg44
g45
sg40
g41
sg25
F0.37103926157578826
sS'trials.thisIndex'
p762
g36
(g80
S'-\x00\x00\x00'
tRp763
sg26
V5
sS'trials.thisRepN'
p764
I0
sg66
Vladybird
p765
sg63
V../experiment_stimuli/bw_bc_bl/Living_Things/Insects/ladybird_10.jpg
p766
sg21
F0.70174748776480556
sS'trials.thisTrialN'
p767
I61
sa(dp768
g31
g32
sg17
F235.78502895636484
sg24
I0
sg35
g39
sg14
F235.78018263424747
sg16
g36
(g70
S'\x01\x00\x00\x00'
tRp769
sg42
g43
sg46
g47
sg15
g72
sg22
F237.60477431933396
sg64
g226
sg62
g169
sg49
g50
sS'trials.thisN'
p770
I62
sg19
I1
sg27
g36
(g38
S'\x00\x00\x00\x00\x00\x00\x1a@'
tRp771
sg52
g53
sg23
S'3'
sg18
F237.05284825386479
sg33
g34
sg51
g11
sg20
S'1'
sg65
g36
(g77
S'\x00\x00\x00\x00\x00\x00\x00\x00'
tRp772
sg44
g45
sg40
g41
sg25
F0.10044079460203648
sS'trials.thisIndex'
p773
g36
(g80
S'\x0c\x00\x00\x00'
tRp774
sg26
V5
sS'trials.thisRepN'
p775
I0
sg66
Vcastle
p776
sg63
V../experiment_stimuli/bw_bc_bl/Nonliving_Things/Buildings/castle_3.jpg
p777
sg21
F0.53138770558871329
sS'trials.thisTrialN'
p778
I62
sa(dp779
g31
g32
sg17
F239.44292382150888
sg24
I1
sg35
g39
sg14
F239.43813330703415
sg16
g36
(g70
S'\x01\x00\x00\x00'
tRp780
sg42
g43
sg46
g47
sg15
g88
sg22
F240.82178444578312
sg64
g156
sg62
g74
sg49
g50
sS'trials.thisN'
p781
I63
sg19
I0
sg27
g36
(g38
S'\x00\x00\x00\x00\x00\x00\x18@'
tRp782
sg52
g53
sg23
S'1'
sg18
F240.70078162639402
sg33
g34
sg51
g11
sg20
S'2'
sg65
g36
(g77
S'\x00\x00\x00\x00\x00\x00\x00\x00'
tRp783
sg44
g45
sg40
g41
sg25
F0.060350778279826045
sS'trials.thisIndex'
p784
g36
(g80
S'C\x00\x00\x00'
tRp785
sg26
V5
sS'trials.thisRepN'
p786
I0
sg66
Vraven
p787
sg63
V../experiment_stimuli/bw_bc_bl/Living_Things/Birds/raven_21.jpg
p788
sg21
F0.1004431820474565
sS'trials.thisTrialN'
p789
I63
sa(dp790
g31
g32
sg17
F242.61999828717671
sg24
I0
sg35
g39
sg14
F242.61503701191396
sg16
g36
(g70
S'\x01\x00\x00\x00'
tRp791
sg42
g43
sg46
g47
sg15
g72
sg22
F244.4095907623414
sg64
g168
sg62
g169
sg49
g50
sS'trials.thisN'
p792
I64
sg19
I1
sg27
g36
(g38
S'\x00\x00\x00\x00\x00\x00\x18@'
tRp793
sg52
g53
sg23
S'3'
sg18
F243.87768539902754
sg33
g34
sg51
g11
sg20
S'1'
sg65
g36
(g77
S'\x00\x00\x00\x00\x00\x00\x00\x00'
tRp794
sg44
g45
sg40
g41
sg25
F0.090436840197071433
sS'trials.thisIndex'
p795
g36
(g80
S'V\x00\x00\x00'
tRp796
sg26
V5
sS'trials.thisRepN'
p797
I0
sg66
Vtractor
p798
sg63
V../experiment_stimuli/bw_bc_bl/Nonliving_Things/Vehicles/tractor_7.jpg
p799
sg21
F0.51135696982964873
sS'trials.thisTrialN'
p800
I64
sa(dp801
g31
g32
sg17
F246.23783247428946
sg24
I1
sg35
g39
sg14
F246.23290145420469
sg16
g36
(g70
S'\x01\x00\x00\x00'
tRp802
sg42
g43
sg46
g47
sg15
g88
sg22
F247.77690713130869
sg64
g73
sg62
g74
sg49
g50
sS'trials.thisN'
p803
I65
sg19
I0
sg27
g36
(g38
S'\x00\x00\x00\x00\x00\x00\x18@'
tRp804
sg52
g53
sg23
S'1'
sg18
F247.47550749685615
sg33
g34
sg51
g11
sg20
S'2'
sg65
g36
(g77
S'\x00\x00\x00\x00\x00\x00\x00\x00'
tRp805
sg44
g45
sg40
g41
sg25
F0.080458170967176557
sS'trials.thisIndex'
p806
g36
(g80
S'\x14\x00\x00\x00'
tRp807
sg26
V5
sS'trials.thisRepN'
p808
I0
sg66
Vcow
p809
sg63
V../experiment_stimuli/bw_bc_bl/Living_Things/Animals/cow_19.jpg
p810
sg21
F0.27081176056526601
sS'trials.thisTrialN'
p811
I65
sa(dp812
g31
g32
sg17
F249.59512994159013
sg24
I0
sg35
g39
sg14
F249.59022010164335
sg16
g36
(g70
S'\x02\x00\x00\x00'
tRp813
sg42
g43
sg46
g47
sg15
g88
sg22
F251.33464190084487
sg64
g226
sg62
g169
sg49
g50
sS'trials.thisN'
p814
I66
sg19
I1
sg27
g36
(g38
S'\x00\x00\x00\x00\x00\x00\x1e@'
tRp815
sg52
g53
sg23
S'2'
sg18
F250.8528618121054
sg33
g34
sg51
g11
sg20
S'2'
sg65
g36
(g77
S'\x00\x00\x00\x00\x00\x00\x00\x00'
tRp816
sg44
g45
sg40
g41
sg25
F0.20066999830305576
sS'trials.thisIndex'
p817
g36
(g80
S'\x11\x00\x00\x00'
tRp818
sg26
V5
sS'trials.thisRepN'
p819
I0
sg66
Vchurch
p820
sg63
V../experiment_stimuli/bw_bc_bl/Nonliving_Things/Buildings/church_14.jpg
p821
sg21
F0.4612316049169749
sS'trials.thisTrialN'
p822
I66
sa(dp823
g31
g32
sg17
F253.27295496501029
sg24
I0
sg35
g39
sg14
F253.26819978072308
sg16
g36
(g70
S'\x01\x00\x00\x00'
tRp824
sg42
g43
sg46
g47
sg15
g72
sg22
F255.08279137592763
sg64
g168
sg62
g169
sg49
g50
sS'trials.thisN'
p825
I67
sg19
I1
sg27
g36
(g38
S'\x00\x00\x00\x00\x00\x00\x18@'
tRp826
sg52
g53
sg23
S'3'
sg18
F254.52082315715961
sg33
g34
sg51
g11
sg20
S'1'
sg65
g36
(g77
S'\x00\x00\x00\x00\x00\x00\x00\x00'
tRp827
sg44
g45
sg40
g41
sg25
F0.25079539720900357
sS'trials.thisIndex'
p828
g36
(g80
S'\x07\x00\x00\x00'
tRp829
sg26
V5
sS'trials.thisRepN'
p830
I0
sg66
Vboat
p831
sg63
V../experiment_stimuli/bw_bc_bl/Nonliving_Things/Vehicles/boat_7.jpg
p832
sg21
F0.54140627267770469
sS'trials.thisTrialN'
p833
I67
sa(dp834
g31
g32
sg17
F257.07139711431228
sg24
I1
sg35
g39
sg14
F257.06644950830378
sg16
g36
(g70
S'\x01\x00\x00\x00'
tRp835
sg42
g43
sg46
g47
sg15
g88
sg22
F258.43007979099639
sg64
g73
sg62
g74
sg49
g50
sS'trials.thisN'
p836
I68
sg19
I0
sg27
g36
(g38
S'\x00\x00\x00\x00\x00\x00\x1a@'
tRp837
sg52
g53
sg23
S'1'
sg18
F258.2990413706284
sg33
g34
sg51
g11
sg20
S'2'
sg65
g36
(g77
S'\x00\x00\x00\x00\x00\x00\x00\x00'
tRp838
sg44
g45
sg40
g41
sg25
F0.13116625277325511
sS'trials.thisIndex'
p839
g36
(g80
S'\r\x00\x00\x00'
tRp840
sg26
V5
sS'trials.thisRepN'
p841
I0
sg66
Vcat
p842
sg63
V../experiment_stimuli/bw_bc_bl/Living_Things/Animals/cat_22.jpg
p843
sg21
F0.11047307960689068
sS'trials.thisTrialN'
p844
I68
sa(dp845
g31
g32
sg17
F260.29848422831856
sg24
I1
sg35
g39
sg14
F260.2934657135047
sg16
g36
(g70
S'\x02\x00\x00\x00'
tRp846
sg42
g43
sg46
g47
sg15
g72
sg22
F261.86752506531775
sg64
g156
sg62
g74
sg49
g50
sS'trials.thisN'
p847
I69
sg19
I1
sg27
g36
(g38
S'\x00\x00\x00\x00\x00\x00\x1a@'
tRp848
sg52
g53
sg23
S'1'
sg18
F261.53607424092479
sg33
g34
sg51
g11
sg20
S'2'
sg65
g36
(g77
S'\x00\x00\x00\x00\x00\x00\x00\x00'
tRp849
sg44
g45
sg40
g41
sg25
F0.070394127164036036
sS'trials.thisIndex'
p850
g36
(g80
S'9\x00\x00\x00'
tRp851
sg26
V5
sS'trials.thisRepN'
p852
I0
sg66
Vowl
p853
sg63
V../experiment_stimuli/bw_bc_bl/Living_Things/Birds/owl_24.jpg
p854
sg21
F0.3108974271453917
sS'trials.thisTrialN'
p855
I69
sa(dp856
g31
g32
sg17
F263.67565956525505
sg24
I1
sg35
g39
sg14
F263.67081071692519
sg16
g36
(g70
S'\x02\x00\x00\x00'
tRp857
sg42
g43
sg46
g47
sg15
g72
sg22
F265.00436224648729
sg64
g156
sg62
g74
sg49
g50
sS'trials.thisN'
p858
I70
sg19
I1
sg27
g36
(g38
S'\x00\x00\x00\x00\x00\x00\x18@'
tRp859
sg52
g53
sg23
S'1'
sg18
F264.92343584145419
sg33
g34
sg51
g11
sg20
S'2'
sg65
g36
(g77
S'\x00\x00\x00\x00\x00\x00\x00\x00'
tRp860
sg44
g45
sg40
g41
sg25
F0.08039324707351625
sS'trials.thisIndex'
p861
g36
(g80
S',\x00\x00\x00'
tRp862
sg26
V5
sS'trials.thisRepN'
p863
I0
sg66
Vkiwi
p864
sg63
V../experiment_stimuli/bw_bc_bl/Living_Things/Birds/kiwi_2.jpg
p865
sg21
F0.060362740885466337
sS'trials.thisTrialN'
p866
I70
sa(dp867
g31
g32
sg17
F266.82270770519972
sg24
I1
sg35
g39
sg14
F266.8176513412036
sg16
g36
(g70
S'\x01\x00\x00\x00'
tRp868
sg42
g43
sg46
g47
sg15
g72
sg22
F268.7224258100614
sg64
g238
sg62
g169
sg49
g50
sS'trials.thisN'
p869
I71
sg19
I0
sg27
g36
(g38
S'\x00\x00\x00\x00\x00\x00\x18@'
tRp870
sg52
g53
sg23
S'1'
sg18
F268.09032696043141
sg33
g34
sg51
g11
sg20
S'2'
sg65
g36
(g77
S'\x00\x00\x00\x00\x00\x00\x00\x00'
tRp871
sg44
g45
sg40
g41
sg25
F0.11046747444197536
sS'trials.thisIndex'
p872
g36
(g80
S'%\x00\x00\x00'
tRp873
sg26
V5
sS'trials.thisRepN'
p874
I0
sg66
Vhammer
p875
sg63
V../experiment_stimuli/bw_bc_bl/Nonliving_Things/Tools/hammer_17.jpg
p876
sg21
F0.61155269271694124
sS'trials.thisTrialN'
p877
I71
sa(dp878
g31
g32
sg17
F270.57084056385793
sg24
I1
sg35
g39
sg14
F270.56580215063877
sg16
g36
(g70
S'\x01\x00\x00\x00'
tRp879
sg42
g43
sg46
g47
sg15
g72
sg22
F272.47058549523354
sg64
g168
sg62
g169
sg49
g50
sS'trials.thisN'
p880
I72
sg19
I1
sg27
g36
(g38
S'\x00\x00\x00\x00\x00\x00\x18@'
tRp881
sg52
g53
sg23
S'1'
sg18
F271.85852684383281
sg33
g34
sg51
g11
sg20
S'1'
sg65
g36
(g77
S'\x00\x00\x00\x00\x00\x00\x00\x00'
tRp882
sg44
g45
sg40
g41
sg25
F0.23071467690169811
sS'trials.thisIndex'
p883
g36
(g80
S'W\x00\x00\x00'
tRp884
sg26
V5
sS'trials.thisRepN'
p885
I0
sg66
Vtrain
p886
sg63
V../experiment_stimuli/bw_bc_bl/Nonliving_Things/Vehicles/train_21.jpg
p887
sg21
F0.59151164907962084
sS'trials.thisTrialN'
p888
I72
sa(dp889
g31
g32
sg17
F274.43914519390091
sg24
I0
sg35
g39
sg14
F274.43420888087712
sg16
g36
(g70
S'\x01\x00\x00\x00'
tRp890
sg42
g43
sg46
g47
sg15
g72
sg22
F276.54946254217066
sg64
g192
sg62
g169
sg49
g50
sS'trials.thisN'
p891
I73
sg19
I1
sg27
g36
(g38
S'\x00\x00\x00\x00\x00\x00\x1a@'
tRp892
sg52
g53
sg23
S'2'
sg18
F275.73694855067879
sg33
g34
sg51
g11
sg20
S'1'
sg65
g36
(g77
S'\x00\x00\x00\x00\x00\x00\x00\x00'
tRp893
sg44
g45
sg40
g41
sg25
F0.19063889025710523
sS'trials.thisIndex'
p894
g36
(g80
S'\x1d\x00\x00\x00'
tRp895
sg26
V5
sS'trials.thisRepN'
p896
I0
sg66
Vfilling-cabinet
p897
sg63
V../experiment_stimuli/bw_bc_bl/Nonliving_Things/Furniture/filling-cabinet_24.jpg
p898
sg21
F0.79195901518687606
sS'trials.thisTrialN'
p899
I73
sa(dp900
g31
g32
sg17
F278.47797133307904
sg24
I0
sg35
g39
sg14
F278.472990388982
sg16
g36
(g70
S'\x02\x00\x00\x00'
tRp901
sg42
g43
sg46
g47
sg15
g88
sg22
F280.6183272623457
sg64
g192
sg62
g169
sg49
g50
sS'trials.thisN'
p902
I74
sg19
I1
sg27
g36
(g38
S'\x00\x00\x00\x00\x00\x00\x18@'
tRp903
sg52
g53
sg23
S'3'
sg18
F279.7657082285732
sg33
g34
sg51
g11
sg20
S'2'
sg65
g36
(g77
S'\x00\x00\x00\x00\x00\x00\x00\x00'
tRp904
sg44
g45
sg40
g41
sg25
F0.18061387562192976
sS'trials.thisIndex'
p905
g36
(g80
S'\x00\x00\x00\x00'
tRp906
sg26
V5
sS'trials.thisRepN'
p907
I0
sg66
VChest-of-drawers
p908
sg63
V../experiment_stimuli/bw_bc_bl/Nonliving_Things/Furniture/Chest-of-drawers_9.jpg
p909
sg21
F0.83205214398913085
sS'trials.thisTrialN'
p910
I74
sa(dp911
g31
g32
sg17
F282.5367079351563
sg24
I0
sg35
g39
sg14
F282.53181836567819
sg16
g36
(g70
S'\x02\x00\x00\x00'
tRp912
sg42
g43
sg46
g47
sg15
g88
sg22
F284.41656566271558
sg64
g283
sg62
g169
sg49
g50
sS'trials.thisN'
p913
I75
sg19
I1
sg27
g36
(g38
S'\x00\x00\x00\x00\x00\x00\x18@'
tRp914
sg52
g53
sg23
S'3'
sg18
F283.79446349712089
sg33
g34
sg51
g11
sg20
S'2'
sg65
g36
(g77
S'\x00\x00\x00\x00\x00\x00\x00\x00'
tRp915
sg44
g45
sg40
g41
sg25
F0.12050948827527463
sS'trials.thisIndex'
p916
g36
(g80
S'\x12\x00\x00\x00'
tRp917
sg26
V5
sS'trials.thisRepN'
p918
I0
sg66
Vcoking-pot
p919
sg63
V../experiment_stimuli/bw_bc_bl/Nonliving_Things/Kitchen_Uten/coking-pot_11.jpg
p920
sg21
F0.60153243038803339
sS'trials.thisTrialN'
p921
I75
sa(dp922
g31
g32
sg17
F286.27636453555897
sg24
I1
sg35
g39
sg14
F286.26993800699711
sg16
g36
(g70
S'\x01\x00\x00\x00'
tRp923
sg42
g43
sg46
g47
sg15
g88
sg22
F287.53338535595685
sg64
g472
sg62
g74
sg49
g50
sS'trials.thisN'
p924
I76
sg19
I0
sg27
g36
(g38
S'\x00\x00\x00\x00\x00\x00\x1a@'
tRp925
sg52
g53
sg23
S'1'
sg18
F287.51254921080545
sg33
g34
sg51
g11
sg20
S'2'
sg65
g36
(g77
S'\x00\x00\x00\x00\x00\x00\x00\x00'
tRp926
sg44
g45
sg40
g41
sg25
F0.080387562979012728
sS'trials.thisIndex'
p927
g36
(g80
S'\n\x00\x00\x00'
tRp928
sg26
V5
sS'trials.thisRepN'
p929
I0
sg66
Vbutterfly
p930
sg63
V../experiment_stimuli/bw_bc_bl/Living_Things/Insects/butterfly_23.jpg
p931
sg21
F0.00027484213933348656
sS'trials.thisTrialN'
p932
I76
sa(dp933
g31
g32
sg17
F289.35172200296074
sg24
I0
sg35
g39
sg14
F289.34662789897993
sg16
g36
(g70
S'\x01\x00\x00\x00'
tRp934
sg42
g43
sg46
g47
sg15
g72
sg22
F291.19126884173602
sg64
g168
sg62
g169
sg49
g50
sS'trials.thisN'
p935
I77
sg19
I1
sg27
g36
(g38
S'\x00\x00\x00\x00\x00\x00\x1a@'
tRp936
sg52
g53
sg23
S'3'
sg18
F290.60928171803243
sg33
g34
sg51
g11
sg20
S'1'
sg65
g36
(g77
S'\x00\x00\x00\x00\x00\x00\x00\x00'
tRp937
sg44
g45
sg40
g41
sg25
F0.11045820009894669
sS'trials.thisIndex'
p938
g36
(g80
S'\x0b\x00\x00\x00'
tRp939
sg26
V5
sS'trials.thisRepN'
p940
I0
sg66
Vcar
p941
sg63
V../experiment_stimuli/bw_bc_bl/Nonliving_Things/Vehicles/car_2.jpg
p942
sg21
F0.56144825625233352
sS'trials.thisTrialN'
p943
I77
sa(dp944
g31
g32
sg17
F293.03955110860988
sg24
I0
sg35
g39
sg14
F293.03465376864187
sg16
g36
(g70
S'\x02\x00\x00\x00'
tRp945
sg42
g43
sg46
g47
sg15
g72
sg22
F294.89935157843865
sg64
g73
sg62
g74
sg49
g50
sS'trials.thisN'
p946
I78
sg19
I1
sg27
g36
(g38
S'\x00\x00\x00\x00\x00\x00\x18@'
tRp947
sg52
g53
sg23
S'2'
sg18
F294.28727432526648
sg33
g34
sg51
g11
sg20
S'2'
sg65
g36
(g77
S'\x00\x00\x00\x00\x00\x00\x00\x00'
tRp948
sg44
g45
sg40
g41
sg25
F0.21068165940232575
sS'trials.thisIndex'
p949
g36
(g80
S'Z\x00\x00\x00'
tRp950
sg26
V5
sS'trials.thisRepN'
p951
I0
sg66
Vturtle
p952
sg63
V../experiment_stimuli/bw_bc_bl/Living_Things/Animals/turtle_24.jpg
p953
sg21
F0.59150886349380016
sS'trials.thisTrialN'
p954
I78
sa(dp955
g31
g32
sg17
F296.84787024836987
sg24
I1
sg35
g39
sg14
F296.84293432231061
sg16
g36
(g70
S'\x02\x00\x00\x00'
tRp956
sg42
g43
sg46
g47
sg15
g72
sg22
F298.16631101630628
sg64
g156
sg62
g74
sg49
g50
sS'trials.thisN'
p957
I79
sg19
I1
sg27
g36
(g38
S'\x00\x00\x00\x00\x00\x00\x1c@'
tRp958
sg52
g53
sg23
S'1'
sg18
F298.08553522569127
sg33
g34
sg51
g11
sg20
S'2'
sg65
g36
(g77
S'\x00\x00\x00\x00\x00\x00\x00\x00'
tRp959
sg44
g45
sg40
g41
sg25
F0.050332640064880252
sS'trials.thisIndex'
p960
g36
(g80
S'\x04\x00\x00\x00'
tRp961
sg26
V5
sS'trials.thisRepN'
p962
I0
sg66
Vbarn-owl
p963
sg63
V../experiment_stimuli/bw_bc_bl/Living_Things/Birds/barn-owl_0.jpg
p964
sg21
F0.060204137582331896
sS'trials.thisTrialN'
p965
I79
sa(dp966
g31
g32
sg17
F299.95469643408433
sg24
I1
sg35
g39
sg14
F299.94969201693311
sg16
g36
(g70
S'\x02\x00\x00\x00'
tRp967
sg42
g43
sg46
g47
sg15
g88
sg22
F301.30325856758282
sg64
g283
sg62
g169
sg49
g50
sS'trials.thisN'
p968
I80
sg19
I1
sg27
g36
(g38
S'\x00\x00\x00\x00\x00\x00\x18@'
tRp969
sg52
g53
sg23
S'1'
sg18
F301.19228570233099
sg33
g34
sg51
g11
sg20
S'2'
sg65
g36
(g77
S'\x00\x00\x00\x00\x00\x00\x00\x00'
tRp970
sg44
g45
sg40
g41
sg25
F0.17059541400521994
sS'trials.thisIndex'
p971
g36
(g80
S'S\x00\x00\x00'
tRp972
sg26
V5
sS'trials.thisRepN'
p973
I0
sg66
Vteapot
p974
sg63
V../experiment_stimuli/bw_bc_bl/Nonliving_Things/Kitchen_Uten/teapot_26.jpg
p975
sg21
F0.09042344568297267
sS'trials.thisTrialN'
p976
I80
sa(dp977
g31
g32
sg17
F303.21178414486349
sg24
I0
sg35
g39
sg14
F303.20676231803373
sg16
g36
(g70
S'\x02\x00\x00\x00'
tRp978
sg42
g43
sg46
g47
sg15
g88
sg22
F304.9712432846427
sg64
g226
sg62
g169
sg49
g50
sS'trials.thisN'
p979
I81
sg19
I1
sg27
g36
(g38
S'\x00\x00\x00\x00\x00\x00\x18@'
tRp980
sg52
g53
sg23
S'3'
sg18
F304.45941871241666
sg33
g34
sg51
g11
sg20
S'2'
sg65
g36
(g77
S'\x00\x00\x00\x00\x00\x00\x00\x00'
tRp981
sg44
g45
sg40
g41
sg25
F0.1405340286437422
sS'trials.thisIndex'
p982
g36
(g80
S'#\x00\x00\x00'
tRp983
sg26
V5
sS'trials.thisRepN'
p984
I0
sg66
Vgranary
p985
sg63
V../experiment_stimuli/bw_bc_bl/Nonliving_Things/Buildings/granary_5.jpg
p986
sg21
F0.49129186221398413
sS'trials.thisTrialN'
p987
I81
sa(dp988
g31
g32
sg17
F306.84992785332724
sg24
I0
sg35
g39
sg14
F306.8446670032572
sg16
g36
(g70
S'\x01\x00\x00\x00'
tRp989
sg42
g43
sg46
g47
sg15
g72
sg22
F308.78952821390703
sg64
g350
sg62
g169
sg49
g50
sS'trials.thisN'
p990
I82
sg19
I1
sg27
g36
(g38
S'\x00\x00\x00\x00\x00\x00\x1a@'
tRp991
sg52
g53
sg23
S'3'
sg18
F308.08728130883537
sg33
g34
sg51
g11
sg20
S'1'
sg65
g36
(g77
S'\x00\x00\x00\x00\x00\x00\x00\x00'
tRp992
sg44
g45
sg40
g41
sg25
F0.10043868189677596
sS'trials.thisIndex'
p993
g36
(g80
S'\x19\x00\x00\x00'
tRp994
sg26
V5
sS'trials.thisRepN'
p995
I0
sg66
Vdrum
p996
sg63
V../experiment_stimuli/bw_bc_bl/Nonliving_Things/Musical_Inst/drum_10.jpg
p997
sg21
F0.68170627439394593
sS'trials.thisTrialN'
p998
I82
sa(dp999
g31
g32
sg17
F310.62941689812578
sg24
I0
sg35
g39
sg14
F310.6228986941278
sg16
g36
(g70
S'\x02\x00\x00\x00'
tRp1000
sg42
g43
sg46
g47
sg15
g88
sg22
F312.15689584892243
sg64
g226
sg62
g169
sg49
g50
sS'trials.thisN'
p1001
I83
sg19
I0
sg27
g36
(g38
S'\x00\x00\x00\x00\x00\x00\x1a@'
tRp1002
sg52
g53
sg23
S'2'
sg18
F311.85546975233592
sg33
g34
sg51
g11
sg20
S'1'
sg65
g36
(g77
S'\x00\x00\x00\x00\x00\x00\x00\x00'
tRp1003
sg44
g45
sg40
g41
sg25
F0.090429712319746614
sS'trials.thisIndex'
p1004
g36
(g80
S'\x1c\x00\x00\x00'
tRp1005
sg26
V5
sS'trials.thisRepN'
p1006
I0
sg66
Vfactory
p1007
sg63
V../experiment_stimuli/bw_bc_bl/Nonliving_Things/Buildings/factory_16.jpg
p1008
sg21
F0.28085334622301161
sS'trials.thisTrialN'
p1009
I83
sa(dp1010
g31
g32
sg17
F313.9851911466103
sg24
I0
sg35
g39
sg14
F313.98021060833707
sg16
g36
(g70
S'\x02\x00\x00\x00'
tRp1011
sg42
g43
sg46
g47
sg15
g88
sg22
F315.6645113627892
sg64
g350
sg62
g169
sg49
g50
sS'trials.thisN'
p1012
I84
sg19
I0
sg27
g36
(g38
S'\x00\x00\x00\x00\x00\x00\x1a@'
tRp1013
sg52
g53
sg23
S'2'
sg18
F315.22278758371249
sg33
g34
sg51
g11
sg20
S'1'
sg65
g36
(g77
S'\x00\x00\x00\x00\x00\x00\x00\x00'
tRp1014
sg44
g45
sg40
g41
sg25
F0.13050530385226011
sS'trials.thisIndex'
p1015
g36
(g80
S'$\x00\x00\x00'
tRp1016
sg26
V5
sS'trials.thisRepN'
p1017
I0
sg66
Vguitar
p1018
sg63
V../experiment_stimuli/bw_bc_bl/Nonliving_Things/Musical_Inst/guitar_3.jpg
p1019
sg21
F0.42115727323107421
sS'trials.thisTrialN'
p1020
I84
sa(dp1021
g31
g32
sg17
F317.53290147334337
sg24
I0
sg35
g39
sg14
F317.52791553316638
sg16
g36
(g70
S'\x01\x00\x00\x00'
tRp1022
sg42
g43
sg46
g47
sg15
g72
sg22
F319.13201842457056
sg64
g283
sg62
g169
sg49
g50
sS'trials.thisN'
p1023
I85
sg19
I1
sg27
g36
(g38
S'\x00\x00\x00\x00\x00\x00\x18@'
tRp1024
sg52
g53
sg23
S'2'
sg18
F318.76048604631796
sg33
g34
sg51
g11
sg20
S'1'
sg65
g36
(g77
S'\x00\x00\x00\x00\x00\x00\x00\x00'
tRp1025
sg44
g45
sg40
g41
sg25
F0.060351402498781681
sS'trials.thisIndex'
p1026
g36
(g80
S'B\x00\x00\x00'
tRp1027
sg26
V5
sS'trials.thisRepN'
p1028
I0
sg66
Vpot
p1029
sg63
V../experiment_stimuli/bw_bc_bl/Nonliving_Things/Kitchen_Uten/pot_2.jpg
p1030
sg21
F0.35099524771794677
sS'trials.thisTrialN'
p1031
I85
sa(dp1032
g31
g32
sg17
F320.93025199859403
sg24
I1
sg35
g39
sg14
F320.92529036989436
sg16
g36
(g70
S'\x02\x00\x00\x00'
tRp1033
sg42
g43
sg46
g47
sg15
g88
sg22
F322.20872591389343
sg64
g168
sg62
g169
sg49
g50
sS'trials.thisN'
p1034
I86
sg19
I1
sg27
g36
(g38
S'\x00\x00\x00\x00\x00\x00\x18@'
tRp1035
sg52
g53
sg23
S'1'
sg18
F322.15786416875198
sg33
g34
sg51
g11
sg20
S'2'
sg65
g36
(g77
S'\x00\x00\x00\x00\x00\x00\x00\x00'
tRp1036
sg44
g45
sg40
g41
sg25
F0.17060555308125913
sS'trials.thisIndex'
p1037
g36
(g80
S'@\x00\x00\x00'
tRp1038
sg26
V5
sS'trials.thisRepN'
p1039
I0
sg66
Vplane
p1040
sg63
V../experiment_stimuli/bw_bc_bl/Nonliving_Things/Vehicles/plane_11.jpg
p1041
sg21
F0.030291833449155092
sS'trials.thisTrialN'
p1042
I86
sa(dp1043
g31
g32
sg17
F324.11738604563288
sg24
I0
sg35
g39
sg14
F324.11221004812978
sg16
g36
(g70
S'\x01\x00\x00\x00'
tRp1044
sg42
g43
sg46
g47
sg15
g72
sg22
F326.00699347187765
sg64
g192
sg62
g169
sg49
g50
sS'trials.thisN'
p1045
I87
sg19
I1
sg27
g36
(g38
S'\x00\x00\x00\x00\x00\x00\x1a@'
tRp1046
sg52
g53
sg23
S'2'
sg18
F325.36484324000776
sg33
g34
sg51
g11
sg20
S'1'
sg65
g36
(g77
S'\x00\x00\x00\x00\x00\x00\x00\x00'
tRp1047
sg44
g45
sg40
g41
sg25
F0.15056021977216005
sS'trials.thisIndex'
p1048
g36
(g80
S'E\x00\x00\x00'
tRp1049
sg26
V5
sS'trials.thisRepN'
p1050
I0
sg66
Vrocking-chair
p1051
sg63
V../experiment_stimuli/bw_bc_bl/Nonliving_Things/Furniture/rocking-chair_9.jpg
p1052
sg21
F0.62159434985369444
sS'trials.thisTrialN'
p1053
I87
sa(dp1054
g31
g32
sg17
F327.90552735025994
sg24
I0
sg35
g39
sg14
F327.90046567772515
sg16
g36
(g70
S'\x01\x00\x00\x00'
tRp1055
sg42
g43
sg46
g47
sg15
g72
sg22
F329.5647158396896
sg64
g283
sg62
g169
sg49
g50
sS'trials.thisN'
p1056
I88
sg19
I1
sg27
g36
(g38
S'\x00\x00\x00\x00\x00\x00\x18@'
tRp1057
sg52
g53
sg23
S'2'
sg18
F329.14305214514025
sg33
g34
sg51
g11
sg20
S'1'
sg65
g36
(g77
S'\x00\x00\x00\x00\x00\x00\x00\x00'
tRp1058
sg44
g45
sg40
g41
sg25
F0.2006642990745604
sS'trials.thisIndex'
p1059
g36
(g80
S'M\x00\x00\x00'
tRp1060
sg26
V5
sS'trials.thisRepN'
p1061
I0
sg66
Vsmall-saucepan
p1062
sg63
V../experiment_stimuli/bw_bc_bl/Nonliving_Things/Kitchen_Uten/small-saucepan_9.jpg
p1063
sg21
F0.40111043606884778
sS'trials.thisTrialN'
p1064
I88
sa(dp1065
g31
g32
sg17
F331.50341395451687
sg24
I1
sg35
g39
sg14
F331.49826683988795
sg16
g36
(g70
S'\x02\x00\x00\x00'
tRp1066
sg42
g43
sg46
g47
sg15
g72
sg22
F332.8819432829041
sg64
g156
sg62
g74
sg49
g50
sS'trials.thisN'
p1067
I89
sg19
I1
sg27
g36
(g38
S'\x00\x00\x00\x00\x00\x00\x18@'
tRp1068
sg52
g53
sg23
S'1'
sg18
F332.73085015756078
sg33
g34
sg51
g11
sg20
S'2'
sg65
g36
(g77
S'\x00\x00\x00\x00\x00\x00\x00\x00'
tRp1069
sg44
g45
sg40
g41
sg25
F0.12048723339103162
sS'trials.thisIndex'
p1070
g36
(g80
S'O\x00\x00\x00'
tRp1071
sg26
V5
sS'trials.thisRepN'
p1072
I0
sg66
Vsparrow
p1073
sg63
V../experiment_stimuli/bw_bc_bl/Living_Things/Birds/sparrow_13.jpg
p1074
sg21
F0.13051081518642604
sS'trials.thisTrialN'
p1075
I89
sa(dp1076
g31
g32
sg17
F334.75040224590339
sg24
I0
sg35
g39
sg14
F334.74535028031096
sg16
g36
(g70
S'\x02\x00\x00\x00'
tRp1077
sg42
g43
sg46
g47
sg15
g88
sg22
F336.68016129662283
sg64
g192
sg62
g169
sg49
g50
sS'trials.thisN'
p1078
I90
sg19
I1
sg27
g36
(g38
S'\x00\x00\x00\x00\x00\x00\x1a@'
tRp1079
sg52
g53
sg23
S'3'
sg18
F335.99796526576392
sg33
g34
sg51
g11
sg20
S'2'
sg65
g36
(g77
S'\x00\x00\x00\x00\x00\x00\x00\x00'
tRp1080
sg44
g45
sg40
g41
sg25
F0.32091916329227388
sS'trials.thisIndex'
p1081
g36
(g80
S'\x05\x00\x00\x00'
tRp1082
sg26
V5
sS'trials.thisRepN'
p1083
I0
sg66
Vbed
p1084
sg63
V../experiment_stimuli/bw_bc_bl/Nonliving_Things/Furniture/bed_25.jpg
p1085
sg21
F0.6616611706558615
sS'trials.thisTrialN'
p1086
I90
sa(dp1087
g31
g32
sg17
F338.73912983178161
sg24
I1
sg35
g39
sg14
F338.73400020925328
sg16
g36
(g70
S'\x01\x00\x00\x00'
tRp1088
sg42
g43
sg46
g47
sg15
g88
sg22
F340.40827638166957
sg64
g156
sg62
g74
sg49
g50
sS'trials.thisN'
p1089
I91
sg19
I0
sg27
g36
(g38
S'\x00\x00\x00\x00\x00\x00\x18@'
tRp1090
sg52
g53
sg23
S'1'
sg18
F339.96658283146098
sg33
g34
sg51
g11
sg20
S'2'
sg65
g36
(g77
S'\x00\x00\x00\x00\x00\x00\x00\x00'
tRp1091
sg44
g45
sg40
g41
sg25
F0.060369785642251372
sS'trials.thisIndex'
p1092
g36
(g80
S'<\x00\x00\x00'
tRp1093
sg26
V5
sS'trials.thisRepN'
p1094
I0
sg66
Vpelican
p1095
sg63
V../experiment_stimuli/bw_bc_bl/Living_Things/Birds/pelican_24.jpg
p1096
sg21
F0.42113126209005713
sS'trials.thisTrialN'
p1097
I91
sa(dp1098
g31
g32
sg17
F342.2168913972564
sg24
I1
sg35
g39
sg14
F342.21156398835592
sg16
g36
(g70
S'\x01\x00\x00\x00'
tRp1099
sg42
g43
sg46
g47
sg15
g88
sg22
F343.84575049765408
sg64
g472
sg62
g74
sg49
g50
sS'trials.thisN'
p1100
I92
sg19
I1
sg27
g36
(g38
S'\x00\x00\x00\x00\x00\x00\x1a@'
tRp1101
sg52
g53
sg23
S'1'
sg18
F343.46418507141061
sg33
g34
sg51
g11
sg20
S'1'
sg65
g36
(g77
S'\x00\x00\x00\x00\x00\x00\x00\x00'
tRp1102
sg44
g45
sg40
g41
sg25
F0.25076575437560678
sS'trials.thisIndex'
p1103
g36
(g80
S'I\x00\x00\x00'
tRp1104
sg26
V5
sS'trials.thisRepN'
p1105
I0
sg66
Vscorpion
p1106
sg63
V../experiment_stimuli/bw_bc_bl/Living_Things/Insects/scorpion_23.jpg
p1107
sg21
F0.36101147648878396
sS'trials.thisTrialN'
p1108
I92
sa(dp1109
g31
g32
sg17
F345.83477010997012
sg24
I0
sg35
g39
sg14
F345.82942002476193
sg16
g36
(g70
S'\x02\x00\x00\x00'
tRp1110
sg42
g43
sg46
g47
sg15
g88
sg22
F347.66408366686665
sg64
g168
sg62
g169
sg49
g50
sS'trials.thisN'
p1111
I93
sg19
I1
sg27
g36
(g38
S'\x00\x00\x00\x00\x00\x00\x18@'
tRp1112
sg52
g53
sg23
S'3'
sg18
F347.12213908601552
sg33
g34
sg51
g11
sg20
S'2'
sg65
g36
(g77
S'\x00\x00\x00\x00\x00\x00\x00\x00'
tRp1113
sg44
g45
sg40
g41
sg25
F0.1004419750533998
sS'trials.thisIndex'
p1114
g36
(g80
S'[\x00\x00\x00'
tRp1115
sg26
V5
sS'trials.thisRepN'
p1116
I0
sg66
Vvan
p1117
sg63
V../experiment_stimuli/bw_bc_bl/Nonliving_Things/Vehicles/van_21.jpg
p1118
sg21
F0.52137886383570731
sS'trials.thisTrialN'
p1119
I93
sa(dp1120
g31
g32
sg17
F349.51263485103846
sg24
I0
sg35
g39
sg14
F349.50744635332376
sg16
g36
(g70
S'\x01\x00\x00\x00'
tRp1121
sg42
g43
sg46
g47
sg15
g72
sg22
F351.38216573768295
sg64
g226
sg62
g169
sg49
g50
sS'trials.thisN'
p1122
I94
sg19
I1
sg27
g36
(g38
S'\x00\x00\x00\x00\x00\x00\x18@'
tRp1123
sg52
g53
sg23
S'3'
sg18
F350.77007960877381
sg33
g34
sg51
g11
sg20
S'1'
sg65
g36
(g77
S'\x00\x00\x00\x00\x00\x00\x00\x00'
tRp1124
sg44
g45
sg40
g41
sg25
F0.12048246245831251
sS'trials.thisIndex'
p1125
g36
(g80
S')\x00\x00\x00'
tRp1126
sg26
V5
sS'trials.thisRepN'
p1127
I0
sg66
Vhouse
p1128
sg63
V../experiment_stimuli/bw_bc_bl/Nonliving_Things/Buildings/house_15.jpg
p1129
sg21
F0.59153299848549068
sS'trials.thisTrialN'
p1130
I94
sa(dp1131
g31
g32
sg17
F353.2408836146351
sg24
I0
sg35
g39
sg14
F353.23553008935414
sg16
g36
(g70
S'\x02\x00\x00\x00'
tRp1132
sg42
g43
sg46
g47
sg15
g72
sg22
F355.05012647388503
sg64
g156
sg62
g74
sg49
g50
sS'trials.thisN'
p1133
I95
sg19
I1
sg27
g36
(g38
S'\x00\x00\x00\x00\x00\x00\x18@'
tRp1134
sg52
g53
sg23
S'2'
sg18
F354.478143470129
sg33
g34
sg51
g11
sg20
S'2'
sg65
g36
(g77
S'\x00\x00\x00\x00\x00\x00\x00\x00'
tRp1135
sg44
g45
sg40
g41
sg25
F0.23073245142586529
sS'trials.thisIndex'
p1136
g36
(g80
S'U\x00\x00\x00'
tRp1137
sg26
V5
sS'trials.thisRepN'
p1138
I0
sg66
Vtoucan
p1139
sg63
V../experiment_stimuli/bw_bc_bl/Living_Things/Birds/toucan_11.jpg
p1140
sg21
F0.55143235437572002
sS'trials.thisTrialN'
p1141
I95
sasS'loops'
p1142
(lp1143
g1
(cpsychopy.data
TrialHandler
p1144
g3
NtRp1145
(dp1146
S'origin'
p1147
NsS'thisTrial'
p1148
(lp1149
sS'_exp'
p1150
I97313040
sg10
S'trials'
p1151
sg6
I-1
sS'thisRepN'
p1152
I1
sg28
I01
sg29
g30
sS'data'
p1153
g1
(cpsychopy.data
DataHandler
p1154
c__builtin__
dict
p1155
(dp1156
g20
cnumpy.core.multiarray
_reconstruct
p1157
(cnumpy
ndarray
p1158
(I0
tS'b'
tRp1159
(I1
(I96
I1
tg37
(S'O4'
I0
I1
tRp1160
(I3
S'|'
NNNI-1
I-1
I63
tbI00
(lp1161
S'2'
aS'1'
aS'1'
aS'2'
aS'2'
aS'2'
aS'2'
aS'1'
aS'2'
aS'1'
aS'2'
aS'1'
aS'1'
aS'2'
aS'1'
aS'2'
aS'1'
aS'2'
aS'2'
aS'2'
aS'2'
aS'2'
aS'2'
aS'1'
aS'1'
aS'1'
aS'2'
aS'1'
aS'1'
aS'1'
aS'1'
aS'1'
aS'1'
aS'1'
aS'2'
aS'2'
aS'1'
aS'2'
aS'2'
aS'2'
aS'2'
aS'1'
aS'2'
aS'1'
aS'2'
aS'2'
aS'2'
aS'2'
aS'2'
aS'1'
aS'2'
aS'1'
aS'2'
aS'2'
aS'1'
aS'2'
aS'1'
aS'2'
aS'2'
aS'2'
aS'2'
aS'2'
aS'2'
aS'2'
aS'2'
aS'2'
aS'1'
aS'2'
aS'1'
aS'1'
aS'2'
aS'2'
aS'1'
aS'1'
aS'1'
aS'2'
aS'1'
aS'1'
aS'1'
aS'2'
aS'2'
aS'1'
aS'2'
aS'2'
aS'2'
aS'2'
aS'1'
aS'1'
aS'1'
aS'1'
aS'2'
aS'2'
aS'1'
aS'1'
aS'1'
aS'2'
atbsg17
cnumpy.ma.core
_mareconstruct
p1162
(cnumpy.ma.core
MaskedArray
p1163
g1158
(I0
tp1164
S'b'
tRp1165
(I1
(I96
I1
tg37
(S'f4'
I0
I1
tRp1166
(I3
S'<'
NNNI-1
I-1
I0
tbI00
S".=\x8bC\xaf\xd1HC\x9f\xed\xaeB\xb0\x0e`B\x87l\x94C\r`\xa7CD^LC\xe0E}C\x94E\x0eCn\x1e[C`#\x8fC\x05\xad\x90C\xf8\xc8kC$\x89\x80C\xf4\xfbPB\xf3j\xfdBB\xe6\x15CZ\x98yC\xb3D\x8dCM+$B\xe3<vC\x07\x97\xc2B\x1f\x95\x9aB[\xc75C\xab7\x07C\xcal\x99C\xf3\x0e\x17B\xf4\x8e\xd9B\x91P\x9bC68\x89C\x02\xba^C\xcf\xf8\x8bBwT\x8eA\xd1-DC}\xcf\x11C\x1c\x9b\x97C\x1b\xfe\x9cCNi\x85CU\xdc\xeeAH-o@n\xb9lB\x9e\xc1\xaeC\xfb}$C\xef\x8c\xe8B|\xd6\x83C9\xb2gC\x8b\x1e1B\xf2\x00bC\xec\xfe\nC\xe6n\x84BVs2C\x9fN\xefBh9\x1dC$c\xcbB l\x06B\xdc\x12zBhb=C5&\x82Cq\xba'C\x80j\x19C\x9c^\xa9CC\xf1 C\xdds\xbbB\xe6}.C\x12w\xa0CNt\xa8B6\xc4\x9eCcqoC\x94d\xceA\x07\x0f\xa2C\xea\r+CM\x0f\xf6B\xa6\xca@C\xc3\x1b\xabC\xad\xbd\xd1B\xa2\xe5\xa1B\x97\xaf\x93B\xe8\xf3\xa3C\xa9\xd2SCp\xc0\xa5C6@_A\x14\x1cAB\xfb_\xf6@3\xfa\x95Ct/.A\xd5\x9e\xb0C\xb8\x9erC\x11I\x87C\xb3\xaa\x02C\x05\x0ePC\x10\x85\x92C\xda\xea\xacC\xc4\x1d\xe1B_\x9b9CX\xe2\xb0A\x16'WC"
S'\x00\x00\x00\x00\x00\x00\x00\x00\x00\x00\x00\x00\x00\x00\x00\x00\x00\x00\x00\x00\x00\x00\x00\x00\x00\x00\x00\x00\x00\x00\x00\x00\x00\x00\x00\x00\x00\x00\x00\x00\x00\x00\x00\x00\x00\x00\x00\x00\x00\x00\x00\x00\x00\x00\x00\x00\x00\x00\x00\x00\x00\x00\x00\x00\x00\x00\x00\x00\x00\x00\x00\x00\x00\x00\x00\x00\x00\x00\x00\x00\x00\x00\x00\x00\x00\x00\x00\x00\x00\x00\x00\x00\x00\x00\x00\x00'
NtbsS'ran'
p1167
g1162
(g1163
g1158
g1164
S'b'
tRp1168
(I1
(I96
I1
tg1166
I00
S'\x00\x00\x80?\x00\x00\x80?\x00\x00\x80?\x00\x00\x80?\x00\x00\x80?\x00\x00\x80?\x00\x00\x80?\x00\x00\x80?\x00\x00\x80?\x00\x00\x80?\x00\x00\x80?\x00\x00\x80?\x00\x00\x80?\x00\x00\x80?\x00\x00\x80?\x00\x00\x80?\x00\x00\x80?\x00\x00\x80?\x00\x00\x80?\x00\x00\x80?\x00\x00\x80?\x00\x00\x80?\x00\x00\x80?\x00\x00\x80?\x00\x00\x80?\x00\x00\x80?\x00\x00\x80?\x00\x00\x80?\x00\x00\x80?\x00\x00\x80?\x00\x00\x80?\x00\x00\x80?\x00\x00\x80?\x00\x00\x80?\x00\x00\x80?\x00\x00\x80?\x00\x00\x80?\x00\x00\x80?\x00\x00\x80?\x00\x00\x80?\x00\x00\x80?\x00\x00\x80?\x00\x00\x80?\x00\x00\x80?\x00\x00\x80?\x00\x00\x80?\x00\x00\x80?\x00\x00\x80?\x00\x00\x80?\x00\x00\x80?\x00\x00\x80?\x00\x00\x80?\x00\x00\x80?\x00\x00\x80?\x00\x00\x80?\x00\x00\x80?\x00\x00\x80?\x00\x00\x80?\x00\x00\x80?\x00\x00\x80?\x00\x00\x80?\x00\x00\x80?\x00\x00\x80?\x00\x00\x80?\x00\x00\x80?\x00\x00\x80?\x00\x00\x80?\x00\x00\x80?\x00\x00\x80?\x00\x00\x80?\x00\x00\x80?\x00\x00\x80?\x00\x00\x80?\x00\x00\x80?\x00\x00\x80?\x00\x00\x80?\x00\x00\x80?\x00\x00\x80?\x00\x00\x80?\x00\x00\x80?\x00\x00\x80?\x00\x00\x80?\x00\x00\x80?\x00\x00\x80?\x00\x00\x80?\x00\x00\x80?\x00\x00\x80?\x00\x00\x80?\x00\x00\x80?\x00\x00\x80?\x00\x00\x80?\x00\x00\x80?\x00\x00\x80?\x00\x00\x80?\x00\x00\x80?\x00\x00\x80?'
S'\x00\x00\x00\x00\x00\x00\x00\x00\x00\x00\x00\x00\x00\x00\x00\x00\x00\x00\x00\x00\x00\x00\x00\x00\x00\x00\x00\x00\x00\x00\x00\x00\x00\x00\x00\x00\x00\x00\x00\x00\x00\x00\x00\x00\x00\x00\x00\x00\x00\x00\x00\x00\x00\x00\x00\x00\x00\x00\x00\x00\x00\x00\x00\x00\x00\x00\x00\x00\x00\x00\x00\x00\x00\x00\x00\x00\x00\x00\x00\x00\x00\x00\x00\x00\x00\x00\x00\x00\x00\x00\x00\x00\x00\x00\x00\x00'
Ntbsg24
g1162
(g1163
g1158
g1164
S'b'
tRp1169
(I1
(I96
I1
tg1166
I00
S'\x00\x00\x00\x00\x00\x00\x00\x00\x00\x00\x80?\x00\x00\x80?\x00\x00\x80?\x00\x00\x00\x00\x00\x00\x00\x00\x00\x00\x00\x00\x00\x00\x00\x00\x00\x00\x00\x00\x00\x00\x80?\x00\x00\x00\x00\x00\x00\x00\x00\x00\x00\x80?\x00\x00\x00\x00\x00\x00\x00\x00\x00\x00\x80?\x00\x00\x00\x00\x00\x00\x00\x00\x00\x00\x80?\x00\x00\x80?\x00\x00\x00\x00\x00\x00\x00\x00\x00\x00\x80?\x00\x00\x00\x00\x00\x00\x00\x00\x00\x00\x80?\x00\x00\x00\x00\x00\x00\x00\x00\x00\x00\x00\x00\x00\x00\x00\x00\x00\x00\x00\x00\x00\x00\x80?\x00\x00\x00\x00\x00\x00\x00\x00\x00\x00\x00\x00\x00\x00\x00\x00\x00\x00\x80?\x00\x00\x00\x00\x00\x00\x00\x00\x00\x00\x80?\x00\x00\x00\x00\x00\x00\x80?\x00\x00\x00\x00\x00\x00\x80?\x00\x00\x80?\x00\x00\x00\x00\x00\x00\x80?\x00\x00\x80?\x00\x00\x80?\x00\x00\x80?\x00\x00\x00\x00\x00\x00\x00\x00\x00\x00\x80?\x00\x00\x00\x00\x00\x00\x00\x00\x00\x00\x00\x00\x00\x00\x80?\x00\x00\x80?\x00\x00\x00\x00\x00\x00\x80?\x00\x00\x00\x00\x00\x00\x00\x00\x00\x00\x00\x00\x00\x00\x80?\x00\x00\x80?\x00\x00\x00\x00\x00\x00\x80?\x00\x00\x00\x00\x00\x00\x00\x00\x00\x00\x80?\x00\x00\x80?\x00\x00\x00\x00\x00\x00\x80?\x00\x00\x80?\x00\x00\x80?\x00\x00\x00\x00\x00\x00\x00\x00\x00\x00\x00\x00\x00\x00\x80?\x00\x00\x00\x00\x00\x00\x00\x00\x00\x00\x80?\x00\x00\x80?\x00\x00\x80?\x00\x00\x00\x00\x00\x00\x00\x00\x00\x00\x80?\x00\x00\x80?\x00\x00\x00\x00\x00\x00\x00\x00\x00\x00\x00\x00\x00\x00\x00\x00\x00\x00\x00\x00\x00\x00\x00\x00\x00\x00\x80?'
S'\x00\x00\x00\x00\x00\x00\x00\x00\x00\x00\x00\x00\x00\x00\x00\x00\x00\x00\x00\x00\x00\x00\x00\x00\x00\x00\x00\x00\x00\x00\x00\x00\x00\x00\x00\x00\x00\x00\x00\x00\x00\x00\x00\x00\x00\x00\x00\x00\x00\x00\x00\x00\x00\x00\x00\x00\x00\x00\x00\x00\x00\x00\x00\x00\x00\x00\x00\x00\x00\x00\x00\x00\x00\x00\x00\x00\x00\x00\x00\x00\x00\x00\x00\x00\x00\x00\x00\x00\x00\x00\x00\x00\x00\x00\x00\x00'
Ntbsg14
g1162
(g1163
g1158
g1164
S'b'
tRp1170
(I1
(I96
I1
tg1166
I00
S'\x8b<\x8bCn\xd0HC\\\xea\xaeB\x97\t`B\xe5k\x94Ch_\xa7C\xa4\\LC\xa9D}CRD\x0eC+\x1d[C\x8d"\x8fC^\xac\x90C\xba\xc7kC\x81\x88\x80C\xf8\xf6PB\xf7g\xfdB\xba\xe4\x15C\x19\x97yC\x13D\x8dC\xb6%$B\x9f;vC\x06\x94\xc2B>\x92\x9aB\xd4\xc55C(6\x07C\x1el\x99C\xed\t\x17BT\x8c\xd9B\xbbO\x9bC\x947\x89C\xc7\xb8^C\xa0\xf5\x8bBXJ\x8eA\x91,DC\xf9\xcd\x11Cw\x9a\x97Cx\xfd\x9cC\xa9h\x85C\xee\xd1\xeeA\xe6\xcdm@\x85\xb4lB\xf4\xc0\xaeC5|$Cn\x8a\xe8B\xdd\xd5\x83C\xf8\xb0gCm\x181B\xb9\xffaCa\xfd\nCPl\x84B\x0er2C\xa0K\xefB*8\x1dC\x99`\xcbB\x12g\x06B\xd9\rzB\x1aa=C\x90%\x82C\xe3\xb8\'C>i\x19C\xf4]\xa9C\xfe\xef CTq\xbbB\xa7|.Cpv\xa0C\x02q\xa8B\x93\xc3\x9eC*poCtY\xceA]\x0e\xa2C\xa9\x0c+C\xd4\x0c\xf6Bf\xc9@C\x15\x1b\xabC,\xbb\xd1B\x1c\xe3\xa1B\x1f\xad\x93BB\xf3\xa3Cn\xd1SC\xc7\xbf\xa5C\xbb*_A\x16\x17AB\xfd7\xf6@\x90\xf9\x95C\xab\x19.A&\x9e\xb0Cs\x9drClH\x87Cb\xa9\x02C\xc6\x0cPCp\x84\x92C*\xea\xacC\xc5\x1a\xe1B\xe1\x999Ci\xd8\xb0A4%WC'
S'\x00\x00\x00\x00\x00\x00\x00\x00\x00\x00\x00\x00\x00\x00\x00\x00\x00\x00\x00\x00\x00\x00\x00\x00\x00\x00\x00\x00\x00\x00\x00\x00\x00\x00\x00\x00\x00\x00\x00\x00\x00\x00\x00\x00\x00\x00\x00\x00\x00\x00\x00\x00\x00\x00\x00\x00\x00\x00\x00\x00\x00\x00\x00\x00\x00\x00\x00\x00\x00\x00\x00\x00\x00\x00\x00\x00\x00\x00\x00\x00\x00\x00\x00\x00\x00\x00\x00\x00\x00\x00\x00\x00\x00\x00\x00\x00'
Ntbsg16
g1157
(g1158
(I0
tS'b'
tRp1171
(I1
(I96
I1
tg1160
I00
(lp1172
g901
ag670
ag338
ag237
ag956
ag1077
ag681
ag824
ag494
ag725
ag923
ag934
ag769
ag835
ag225
ag449
ag516
ag813
ag912
ag191
ag802
ag361
ag305
ag615
ag471
ag989
ag180
ag394
ag1000
ag890
ag736
ag282
ag122
ag659
ag505
ag978
ag1011
ag868
ag155
ag71
ag249
ag1121
ag560
ag416
ag857
ag758
ag203
ag747
ag483
ag271
ag604
ag427
ag538
ag372
ag167
ag260
ag637
ag846
ag571
ag527
ag1088
ag549
ag349
ag593
ag1033
ag327
ag1022
ag780
ag144
ag1044
ag582
ag438
ag648
ag1099
ag383
ag316
ag294
ag1055
ag703
ag1066
ag110
ag214
ag87
ag967
ag99
ag1132
ag791
ag879
ag460
ag692
ag945
ag1110
ag405
ag626
ag133
ag714
atbsg15
g1157
(g1158
(I0
tS'b'
tRp1173
(I1
(I96
I1
tg1160
I00
(lp1174
g88
ag88
ag72
ag72
ag72
ag88
ag88
ag72
ag88
ag72
ag88
ag72
ag72
ag88
ag72
ag88
ag88
ag88
ag88
ag72
ag88
ag72
ag88
ag72
ag88
ag72
ag72
ag88
ag88
ag72
ag88
ag72
ag72
ag88
ag72
ag88
ag88
ag72
ag88
ag72
ag72
ag72
ag72
ag88
ag72
ag88
ag88
ag88
ag72
ag72
ag88
ag88
ag72
ag72
ag72
ag72
ag88
ag72
ag72
ag72
ag88
ag72
ag88
ag72
ag88
ag72
ag72
ag88
ag88
ag72
ag88
ag72
ag88
ag88
ag72
ag88
ag88
ag72
ag88
ag72
ag88
ag72
ag88
ag88
ag72
ag72
ag72
ag72
ag88
ag72
ag72
ag88
ag72
ag72
ag88
ag72
atbsg22
g1162
(g1163
g1158
g1164
S'b'
tRp1175
(I1
(I96
I1
tg1166
I00
S'%O\x8cC.\x82JCf\xc3\xb1B\xa1JeBJ\x15\x95C\x10W\xa8Cz%NC2\x15\x7fC\xe7\x02\x10C\x04\xe6\\CF\xc4\x8fC{\x98\x91C\xd2\x9amC\r7\x81C\xbc\x9fXB{\x96\x00C\x8d7\x17C\xabU{CR5\x8eC\x02q)B\xe3\xc6wC\xed|\xc6BY8\x9eBz%7Cz%\tC\x0fe\x9aC\xd2\xbb\x1cB\x10G\xddB\x15\x14\x9cCUF\x8aC\xf7,`CP\xfd\x8fB\x033\x99AB\xeeFC\x1f\xca\x13CR|\x98C\x0f\xd5\x9dCx\\\x86C=V\xfdA\xa9Z\xb8@$\x1fsB\xeb\xb0\xafC\x83\xe3%CO\x87\xebB\x8f\x80\x84C\x1e\xadiC6\xad9B\x1bUcC\xfcn\x0cC\x8b\x9c\x87B]\xeb3C\x08]\xf2B\x87\x15\x1fC\x06%\xceB\xb7\x80\x0eBd\xb7\x80B\x7f\xf1>C\x0b\xef\x82C\x82*)C\xffU\x1bCB4\xaaC\xa9\x8a"C;\xe4\xbeB<v0C\xb8\x1a\xa1C\xd2D\xabB\xe6\x90\x9fC`\xd2pC\xfbY\xdfA\xe5\x00\xa3C/\xa2,C\x8d\xc7\xf9B\xccYBCB\xec\xabC,k\xd4BW\xc6\xa4BR\xdd\x96BI\xc8\xa4C9_UC\xe4p\xa6CZ\xfexA\xc4YIB\xbe\xe3\x11A\xd1\xa6\x96C\x0cyBAk\x86\xb1C\xdbhtC<<\x88Cee\x04C\x87\xf9QC\x1es\x93C\x01\xd5\xadCH\xf4\xe4B\xa5\x86;C\xcd\xd7\xbfA\x9fzXC'
S'\x00\x00\x00\x00\x00\x00\x00\x00\x00\x00\x00\x00\x00\x00\x00\x00\x00\x00\x00\x00\x00\x00\x00\x00\x00\x00\x00\x00\x00\x00\x00\x00\x00\x00\x00\x00\x00\x00\x00\x00\x00\x00\x00\x00\x00\x00\x00\x00\x00\x00\x00\x00\x00\x00\x00\x00\x00\x00\x00\x00\x00\x00\x00\x00\x00\x00\x00\x00\x00\x00\x00\x00\x00\x00\x00\x00\x00\x00\x00\x00\x00\x00\x00\x00\x00\x00\x00\x00\x00\x00\x00\x00\x00\x00\x00\x00'
Ntbsg26
g1157
(g1158
(I0
tS'b'
tRp1176
(I1
(I96
I1
tg1160
I00
(lp1177
g36
(g80
S'\x07\x00\x00\x00'
tRp1178
ag36
(g80
S'\x05\x00\x00\x00'
tRp1179
ag36
(g80
S'\x05\x00\x00\x00'
tRp1180
aI1
ag36
(g80
S'\x01\x00\x00\x00'
tRp1181
ag36
(g80
S'\x03\x00\x00\x00'
tRp1182
ag36
(g80
S'\x04\x00\x00\x00'
tRp1183
ag36
(g80
S'\x03\x00\x00\x00'
tRp1184
ag36
(g80
S'\x06\x00\x00\x00'
tRp1185
ag36
(g80
S'\x02\x00\x00\x00'
tRp1186
ag36
(g80
S'\x01\x00\x00\x00'
tRp1187
ag36
(g80
S'\x04\x00\x00\x00'
tRp1188
ag36
(g80
S'\x05\x00\x00\x00'
tRp1189
ag36
(g80
S'\x01\x00\x00\x00'
tRp1190
aI1
ag36
(g80
S'\x03\x00\x00\x00'
tRp1191
ag36
(g80
S'\x02\x00\x00\x00'
tRp1192
ag36
(g80
S'\x04\x00\x00\x00'
tRp1193
ag36
(g80
S'\x04\x00\x00\x00'
tRp1194
ag36
(g80
S'\x03\x00\x00\x00'
tRp1195
ag36
(g80
S'\x02\x00\x00\x00'
tRp1196
ag36
(g80
S'\x03\x00\x00\x00'
tRp1197
ag36
(g80
S'\x04\x00\x00\x00'
tRp1198
ag36
(g80
S'\x07\x00\x00\x00'
tRp1199
ag36
(g80
S'\x05\x00\x00\x00'
tRp1200
ag36
(g80
S'\x01\x00\x00\x00'
tRp1201
aI1
ag36
(g80
S'\x06\x00\x00\x00'
tRp1202
aI1
ag36
(g80
S'\x08\x00\x00\x00'
tRp1203
aI1
ag36
(g80
S'\x06\x00\x00\x00'
tRp1204
ag36
(g80
S'\x03\x00\x00\x00'
tRp1205
ag36
(g80
S'\x06\x00\x00\x00'
tRp1206
ag36
(g80
S'\x03\x00\x00\x00'
tRp1207
ag36
(g80
S'\x03\x00\x00\x00'
tRp1208
aI1
ag36
(g80
S'\x05\x00\x00\x00'
tRp1209
ag36
(g80
S'\x03\x00\x00\x00'
tRp1210
aS'5.0'
p1211
ag36
(g80
S'\x02\x00\x00\x00'
tRp1212
ag36
(g80
S'\x04\x00\x00\x00'
tRp1213
aI1
ag36
(g80
S'\x04\x00\x00\x00'
tRp1214
ag36
(g80
S'\x03\x00\x00\x00'
tRp1215
ag36
(g80
S'\x04\x00\x00\x00'
tRp1216
ag36
(g80
S'\x05\x00\x00\x00'
tRp1217
aI1
ag36
(g80
S'\x03\x00\x00\x00'
tRp1218
ag36
(g80
S'\x04\x00\x00\x00'
tRp1219
ag36
(g80
S'\x04\x00\x00\x00'
tRp1220
ag36
(g80
S'\x03\x00\x00\x00'
tRp1221
ag36
(g80
S'\x03\x00\x00\x00'
tRp1222
aI1
ag36
(g80
S'\x02\x00\x00\x00'
tRp1223
ag36
(g80
S'\x05\x00\x00\x00'
tRp1224
ag36
(g80
S'\x08\x00\x00\x00'
tRp1225
ag36
(g80
S'\x02\x00\x00\x00'
tRp1226
ag36
(g80
S'\x02\x00\x00\x00'
tRp1227
ag36
(g80
S'\x05\x00\x00\x00'
tRp1228
aI1
ag36
(g80
S'\x01\x00\x00\x00'
tRp1229
ag36
(g80
S'\x06\x00\x00\x00'
tRp1230
ag36
(g80
S'\x05\x00\x00\x00'
tRp1231
aI1
ag36
(g80
S'\x03\x00\x00\x00'
tRp1232
aI1
ag36
(g80
S'\x03\x00\x00\x00'
tRp1233
ag36
(g80
S'\x05\x00\x00\x00'
tRp1234
ag36
(g80
S'\x03\x00\x00\x00'
tRp1235
ag36
(g80
S'\x04\x00\x00\x00'
tRp1236
ag36
(g80
S'\x02\x00\x00\x00'
tRp1237
ag36
(g80
S'\x07\x00\x00\x00'
tRp1238
ag36
(g80
S'\x03\x00\x00\x00'
tRp1239
ag36
(g80
S'\x04\x00\x00\x00'
tRp1240
ag36
(g80
S'\x02\x00\x00\x00'
tRp1241
ag36
(g80
S'\x05\x00\x00\x00'
tRp1242
ag36
(g80
S'\x02\x00\x00\x00'
tRp1243
aI1
ag36
(g80
S'\x01\x00\x00\x00'
tRp1244
ag36
(g80
S'\x04\x00\x00\x00'
tRp1245
ag36
(g80
S'\x03\x00\x00\x00'
tRp1246
ag36
(g80
S'\x02\x00\x00\x00'
tRp1247
ag36
(g80
S'\x02\x00\x00\x00'
tRp1248
ag36
(g80
S'\x03\x00\x00\x00'
tRp1249
ag36
(g80
S'\x01\x00\x00\x00'
tRp1250
ag36
(g80
S'\x04\x00\x00\x00'
tRp1251
ag36
(g80
S'\x07\x00\x00\x00'
tRp1252
ag36
(g80
S'\x02\x00\x00\x00'
tRp1253
ag36
(g80
S'\x01\x00\x00\x00'
tRp1254
ag36
(g80
S'\x02\x00\x00\x00'
tRp1255
ag36
(g80
S'\x06\x00\x00\x00'
tRp1256
ag36
(g80
S'\x05\x00\x00\x00'
tRp1257
ag36
(g80
S'\n\x00\x00\x00'
tRp1258
ag36
(g80
S'\x06\x00\x00\x00'
tRp1259
aI1
atbsg21
g1162
(g1163
g1158
g1164
S'b'
tRp1260
(I1
(I96
I1
tg1166
I00
S"_\x01U?\xe7\\\xcd>f\xce\x05>\x0fMw=\x9d\x98v=\xa0b)?@V\x00?\x9a\x99\n?z\xe4\xe1>ny\x05?\xb0\x18\x909\x13\xbb\x0f?\x06\t\x08?\xb6?\xe2=\rd)?\xbe\x8f\x1c?l3w=\x8d&\xec>\x08\xfe\x19?\xc0?N=\xd7\xa7\x8a>g\x84.?\xd5\xfd\x07?\x82;w=\xb1A$?M\x84.?\xcb\xb1.>T\xbb\x0f?\x03\xcc\x8f>\xd3\xbdJ?#\x82M>\xe866?\xed4\xb9=6\xc0\xb8?'76?\x9b\x8a\xfb>\xed\xa1\xd7>\xb8\x8e\x1c?\xb5\x99\n?\x89Y;?\xc8\x95\xae>\xb5n\x17?N\x01\x1a>6\xc0W>\xec>w=\xb9\xa53?\xfe!Z?\xac\xa6\xa4=\xf7\xaf.>\x069\x9f>\xcf5C>|\x87\x85>em\x17?\x11\xc2\xf6=\xaf\x0bC?\xe0+\r?\xbdCl>\xf3-\x9f>\xf3\xf98>\xd8\xb0!?\x84\x9e\xd7>\x85\xb9\xb3>\xbe\xa1\xd7>t\x84.?\x94&\xf8<\x1b\xe7\x0f>\xa6\xb5\xb3>(\xb5\xcd=b\xf7T?\xcf \x1f?\xf5\x0b\x9a>#\xfe\x19?\xe0\x89v>\x7f\xd6\xb8>\xc1\xf8w=\x19\xf88>\xfa\x0f\x9a>Y^\xcd>\xbd\xf7\x99>\xa1\xa4\x05>br\xa9>\xdd\xbcJ?\x04q$>\xed/\xb9= \xe3\xd98\xac*\r?J\xe8\x02?Om\x17?\x13H\xf1>\t\xf3+? m\x17?\x16y\x05?E\xb1!?e\xdc\x14?\xabK\x12?\xe1\xe2\xa4="
S'\x00\x00\x00\x00\x00\x00\x00\x00\x00\x00\x00\x00\x00\x00\x00\x00\x00\x00\x00\x00\x00\x00\x00\x00\x00\x00\x00\x00\x00\x00\x00\x00\x00\x00\x00\x00\x00\x00\x00\x00\x00\x00\x00\x00\x00\x00\x00\x00\x00\x00\x00\x00\x00\x00\x00\x00\x00\x00\x00\x00\x00\x00\x00\x00\x00\x00\x00\x00\x00\x00\x00\x00\x00\x00\x00\x00\x00\x00\x00\x00\x00\x00\x00\x00\x00\x00\x00\x00\x00\x00\x00\x00\x00\x00\x00\x00'
NtbsS'order'
p1261
g1162
(g1163
g1158
g1164
S'b'
tRp1262
(I1
(I96
I1
tg1166
I00
S'\x00\x00\x94B\x00\x00TB\x00\x00\xb8A\x00\x00`A\x00\x00\x9eB\x00\x00\xb4B\x00\x00XB\x00\x00\x86B\x00\x00\x14B\x00\x00hB\x00\x00\x98B\x00\x00\x9aB\x00\x00xB\x00\x00\x88B\x00\x00PA\x00\x00\x04B\x00\x00\x1cB\x00\x00\x84B\x00\x00\x96B\x00\x00 A\x00\x00\x82B\x00\x00\xc8A\x00\x00\xa0A\x00\x00@B\x00\x00\x0cB\x00\x00\xa4B\x00\x00\x10A\x00\x00\xe0A\x00\x00\xa6B\x00\x00\x92B\x00\x00lB\x00\x00\x90A\x00\x00\x80@\x00\x00PB\x00\x00\x18B\x00\x00\xa2B\x00\x00\xa8B\x00\x00\x8eB\x00\x00\xe0@\x00\x00\x00\x00\x00\x00pA\x00\x00\xbcB\x00\x00,B\x00\x00\xf0A\x00\x00\x8cB\x00\x00tB\x00\x000A\x00\x00pB\x00\x00\x10B\x00\x00\x88A\x00\x00<B\x00\x00\xf8A\x00\x00$B\x00\x00\xd0A\x00\x00\x00A\x00\x00\x80A\x00\x00HB\x00\x00\x8aB\x00\x000B\x00\x00 B\x00\x00\xb6B\x00\x00(B\x00\x00\xc0A\x00\x008B\x00\x00\xacB\x00\x00\xb0A\x00\x00\xaaB\x00\x00|B\x00\x00\xc0@\x00\x00\xaeB\x00\x004B\x00\x00\x00B\x00\x00LB\x00\x00\xb8B\x00\x00\xd8A\x00\x00\xa8A\x00\x00\x98A\x00\x00\xb0B\x00\x00`B\x00\x00\xb2B\x00\x00@@\x00\x00@A\x00\x00\x80?\x00\x00\xa0B\x00\x00\x00@\x00\x00\xbeB\x00\x00\x80B\x00\x00\x90B\x00\x00\x08B\x00\x00\\B\x00\x00\x9cB\x00\x00\xbaB\x00\x00\xe8A\x00\x00DB\x00\x00\xa0@\x00\x00dB'
S'\x00\x00\x00\x00\x00\x00\x00\x00\x00\x00\x00\x00\x00\x00\x00\x00\x00\x00\x00\x00\x00\x00\x00\x00\x00\x00\x00\x00\x00\x00\x00\x00\x00\x00\x00\x00\x00\x00\x00\x00\x00\x00\x00\x00\x00\x00\x00\x00\x00\x00\x00\x00\x00\x00\x00\x00\x00\x00\x00\x00\x00\x00\x00\x00\x00\x00\x00\x00\x00\x00\x00\x00\x00\x00\x00\x00\x00\x00\x00\x00\x00\x00\x00\x00\x00\x00\x00\x00\x00\x00\x00\x00\x00\x00\x00\x00'
Ntbsg19
g1162
(g1163
g1158
g1164
S'b'
tRp1263
(I1
(I96
I1
tg1166
I00
S'\x00\x00\x80?\x00\x00\x80?\x00\x00\x80?\x00\x00\x00\x00\x00\x00\x80?\x00\x00\x80?\x00\x00\x80?\x00\x00\x80?\x00\x00\x80?\x00\x00\x80?\x00\x00\x00\x00\x00\x00\x80?\x00\x00\x80?\x00\x00\x00\x00\x00\x00\x80?\x00\x00\x80?\x00\x00\x80?\x00\x00\x80?\x00\x00\x80?\x00\x00\x00\x00\x00\x00\x00\x00\x00\x00\x80?\x00\x00\x80?\x00\x00\x00\x00\x00\x00\x80?\x00\x00\x80?\x00\x00\x80?\x00\x00\x80?\x00\x00\x00\x00\x00\x00\x80?\x00\x00\x00\x00\x00\x00\x80?\x00\x00\x00\x00\x00\x00\x80?\x00\x00\x80?\x00\x00\x80?\x00\x00\x00\x00\x00\x00\x00\x00\x00\x00\x00\x00\x00\x00\x80?\x00\x00\x80?\x00\x00\x80?\x00\x00\x80?\x00\x00\x80?\x00\x00\x80?\x00\x00\x00\x00\x00\x00\x80?\x00\x00\x80?\x00\x00\x80?\x00\x00\x00\x00\x00\x00\x00\x00\x00\x00\x80?\x00\x00\x80?\x00\x00\x00\x00\x00\x00\x80?\x00\x00\x80?\x00\x00\x80?\x00\x00\x80?\x00\x00\x00\x00\x00\x00\x80?\x00\x00\x00\x00\x00\x00\x80?\x00\x00\x80?\x00\x00\x80?\x00\x00\x80?\x00\x00\x80?\x00\x00\x80?\x00\x00\x00\x00\x00\x00\x80?\x00\x00\x80?\x00\x00\x00\x00\x00\x00\x00\x00\x00\x00\x00\x00\x00\x00\x80?\x00\x00\x00\x00\x00\x00\x00\x00\x00\x00\x00\x00\x00\x00\x80?\x00\x00\x00\x00\x00\x00\x80?\x00\x00\x00\x00\x00\x00\x80?\x00\x00\x00\x00\x00\x00\x80?\x00\x00\x80?\x00\x00\x80?\x00\x00\x80?\x00\x00\x80?\x00\x00\x00\x00\x00\x00\x80?\x00\x00\x80?\x00\x00\x80?\x00\x00\x80?\x00\x00\x80?\x00\x00\x80?\x00\x00\x80?'
S'\x00\x00\x00\x00\x00\x00\x00\x00\x00\x00\x00\x00\x00\x00\x00\x00\x00\x00\x00\x00\x00\x00\x00\x00\x00\x00\x00\x00\x00\x00\x00\x00\x00\x00\x00\x00\x00\x00\x00\x00\x00\x00\x00\x00\x00\x00\x00\x00\x00\x00\x00\x00\x00\x00\x00\x00\x00\x00\x00\x00\x00\x00\x00\x00\x00\x00\x00\x00\x00\x00\x00\x00\x00\x00\x00\x00\x00\x00\x00\x00\x00\x00\x00\x00\x00\x00\x00\x00\x00\x00\x00\x00\x00\x00\x00\x00'
Ntbsg27
g1157
(g1158
(I0
tS'b'
tRp1264
(I1
(I96
I1
tg1160
I00
(lp1265
g903
ag672
ag340
ag240
ag958
ag1079
ag683
ag826
ag496
ag727
ag925
ag936
ag771
ag837
ag228
ag451
ag518
ag815
ag914
ag194
ag804
ag363
ag307
ag617
ag474
ag991
ag182
ag396
ag1002
ag892
ag738
ag285
ag124
ag661
ag507
ag980
ag1013
ag870
ag158
ag76
ag251
ag1123
ag562
ag418
ag859
ag760
ag205
ag749
ag485
ag273
ag606
ag429
ag540
ag374
ag171
ag262
ag639
ag848
ag573
ag529
ag1090
ag551
ag352
ag595
ag1035
ag329
ag1024
ag782
ag146
ag1046
ag584
ag440
ag650
ag1101
ag385
ag318
ag296
ag1057
ag705
ag1068
ag113
ag216
ag90
ag969
ag101
ag1134
ag793
ag881
ag462
ag694
ag947
ag1112
ag407
ag628
ag135
ag716
atbsg23
g1157
(g1158
(I0
tS'b'
tRp1266
(I1
(I96
I1
tg1160
I00
(lp1267
S'3'
aS'2'
aS'1'
aS'1'
aS'1'
aS'3'
aS'3'
aS'3'
aS'3'
aS'3'
aS'1'
aS'3'
aS'3'
aS'1'
aS'2'
aS'2'
aS'1'
aS'2'
aS'3'
aS'1'
aS'1'
aS'3'
aS'3'
aS'1'
aS'3'
aS'3'
aS'1'
aS'2'
aS'2'
aS'2'
aS'2'
aS'2'
aS'1'
aS'2'
aS'2'
aS'3'
aS'2'
aS'1'
aS'2'
aS'3'
aS'1'
aS'3'
aS'1'
aS'2'
aS'1'
aS'1'
aS'3'
aS'1'
aS'1'
aS'1'
aS'1'
aS'2'
aS'3'
aS'1'
aS'3'
aS'2'
aS'2'
aS'1'
aS'1'
aS'3'
aS'1'
aS'2'
aS'3'
aS'2'
aS'1'
aS'1'
aS'2'
aS'1'
aS'3'
aS'2'
aS'1'
aS'1'
aS'2'
aS'1'
aS'1'
aS'1'
aS'2'
aS'2'
aS'2'
aS'1'
aS'2'
aS'3'
aS'1'
aS'1'
aS'1'
aS'2'
aS'3'
aS'1'
aS'1'
aS'2'
aS'2'
aS'3'
aS'2'
aS'3'
aS'2'
aS'1'
atbsg18
g1162
(g1163
g1158
g1164
S'b'
tRp1268
(I1
(I96
I1
tg1166
I00
S'\x03\xe2\x8bC;\x16JC\xf7u\xb1B\xc0\xf7dB\xf3\n\x95C\xbd\xff\xa7C\xe1\x9fMCU\x85~C\xb1\x8c\x0fCG[\\C\x9b\xc1\x8fC\xfdM\x91C\x87\rmCG&\x81C \xe5UBN\xe9\xffB\xd5"\x17CU\xdazC\xb1\xe5\x8dCd()B\xbbywC^\x15\xc5B\xb7\x18\x9dB\xc4\x107C\xf6{\x08C,\x0b\x9aC\x18\xf8\x1bB\x10\x1d\xdcB\x80\xed\x9bCT\xde\x89CS\xf4_C^\x86\x8eB\xacO\x98A\x7fwEC\xa5\x0e\x13C\xce:\x98C\x84\x9c\x9dC\x90\x0b\x86CM\xd7\xf8A\xbf\xf2\x9f@\xe8\xacqB\x92b\xafC\xbf\xb7%C\xea\x10\xebB3v\x84C5\xf4hC\xa5/6BD;cC\r>\x0cC\xc9\xf2\x86BL\xb53C\xf9\xcc\xf1B\xd6x\x1eC\xb0\xd7\xcdB\x82_\x0bB\x0b%\x7fB+\xb1>C\x9e\xc4\x82C\xff\xf6(C\x0c\xaf\x1aC\xb9\xfb\xa9C\x89+"C\x13\x02\xbeBv\xc2/C5\x14\xa1CW\xf2\xaaBXa\x9fCf\xb3pC\xe4\x87\xd8A\xb3\xae\xa2C\xe6O,C\x0b\x89\xf8B\xe7\x16BCj\xbb\xabC\xa6A\xd4BR_\xa4B\xba8\x96BP\x92\xa4C\xf8\x0cUC\x8c]\xa6C\x8f^sA\xc7\x19FB\xbb\xfd\x0eA\x9d\x98\x96Cl$BA4=\xb1C\xb0\xe0sC\xe4\xed\x87C~\xe7\x03CPHQC\xc5$\x93C\xa2\x8f\xadCa\xa6\xe3B\x83\xec:C[\x1b\xbbA\xbe`XC'
S'\x00\x00\x00\x00\x00\x00\x00\x00\x00\x00\x00\x00\x00\x00\x00\x00\x00\x00\x00\x00\x00\x00\x00\x00\x00\x00\x00\x00\x00\x00\x00\x00\x00\x00\x00\x00\x00\x00\x00\x00\x00\x00\x00\x00\x00\x00\x00\x00\x00\x00\x00\x00\x00\x00\x00\x00\x00\x00\x00\x00\x00\x00\x00\x00\x00\x00\x00\x00\x00\x00\x00\x00\x00\x00\x00\x00\x00\x00\x00\x00\x00\x00\x00\x00\x00\x00\x00\x00\x00\x00\x00\x00\x00\x00\x00\x00'
Ntbsg25
g1162
(g1163
g1158
g1164
S'b'
tRp1269
(I1
(I96
I1
tg1166
I00
S"\xd8\xf28>#\xc0\xf6=\xb8\xd8F@\xac\xbe\xf6=\x99)N=\x84O\xa4>\x8a\xaf.>Ah\x80>j5w=\x046\xb9=<\xa2\xa4=\xe97\xe2=\xe7\xb3\xcd=rP\x06>\xe3\xbe\xf6=4\x92\xae>w%\xec>p|M>\xae\xcd\xf6=\xbe\xf88>A\xc7\xa4=\xe076?C\xb8\xcd=s\xc68?\xb0=\xe2=\xcc\xb2\xcd=]\xbe\xf6=+\xf38>73\xb9=\xd76C>\x0b5\xb9=\xe2=\xe2=\xfa\x88\x9c?\xf1*\x1a>`\xf7\xbd>'\xe8\x0f>/\xa3\x05>\xc5<\xe2=\x8avM>\xab|M>P\xdd|9\x82\xbf\xf6=:\xb4\xcd=\xb0)\x1a>7\xa5\xa4=\xdc\xf8\xbd>\xf7\xca\xf6=P\x0f(@-\xc1\xcd=\x81\xcd\xe1>\xcb\xc0\xf6=E\xea\xe1=\xbb\xbc\xf6=\xe3Jw=\xe7^\xcd>F\xca\xf6=\x91:\xe2=\xcc*\x90=\x8c*\x1a>\x9d)\x1a>OFw=\xa9\xbbW>y6\xe2=\xd7Q\x80>9\xb3.>\xa3)\xb9=\x083w=a2w=U{M>u,\x1a>X\xcc\xf6=`\xaa\xa4=\x9f&\xb9=^d\x80>\x12\x00U?\xfb\xb1\xcd=\xa4\xbf\xf6=\xf1zM>\r\x1a%=\x03\xc2\xf6=\x0f\x8b\xfb>k\xaf.>c*\xf8<\x90\xb0.>\\3w=!El>\xf36\xb9=x@l>\xee\x91\x8a?\xc38\xe2=\xef\xbcW>\x86\xb4\xcd=8?w=p\xc3\xf6=\xc7R\xa4=<\xfcf?"
S'\x00\x00\x00\x00\x00\x00\x00\x00\x00\x00\x00\x00\x00\x00\x00\x00\x00\x00\x00\x00\x00\x00\x00\x00\x00\x00\x00\x00\x00\x00\x00\x00\x00\x00\x00\x00\x00\x00\x00\x00\x00\x00\x00\x00\x00\x00\x00\x00\x00\x00\x00\x00\x00\x00\x00\x00\x00\x00\x00\x00\x00\x00\x00\x00\x00\x00\x00\x00\x00\x00\x00\x00\x00\x00\x00\x00\x00\x00\x00\x00\x00\x00\x00\x00\x00\x00\x00\x00\x00\x00\x00\x00\x00\x00\x00\x00'
NtbstRp1270
(dp1271
S'isNumeric'
p1272
(dp1273
g23
I00
sg20
I00
sg17
I01
sg1167
I01
sg22
I01
sg24
I01
sg14
I01
sg18
I01
sg16
I00
sg19
I01
sg26
I00
sg27
I00
sg15
I00
sg21
I01
sg1261
I01
sg25
I01
ssg1151
g1145
sS'dataTypes'
p1274
(lp1275
g1167
ag1261
ag14
ag15
ag16
ag17
ag18
ag19
ag20
ag21
ag22
ag23
ag24
ag25
ag26
ag27
asS'dataShape'
p1276
(lp1277
I96
aI1
asbsS'method'
p1278
S'random'
p1279
sS'sequenceIndices'
p1280
g1157
(g1158
(I0
tS'b'
tRp1281
(I1
(I96
I1
tg80
I01
S'\'\x00\x00\x00R\x00\x00\x00T\x00\x00\x00P\x00\x00\x00 \x00\x00\x00^\x00\x00\x00D\x00\x00\x00&\x00\x00\x006\x00\x00\x00\x1a\x00\x00\x00\x13\x00\x00\x00.\x00\x00\x00Q\x00\x00\x00\x0e\x00\x00\x00\x03\x00\x00\x00(\x00\x00\x007\x00\x00\x001\x00\x00\x00\x1f\x00\x00\x00L\x00\x00\x00\x16\x00\x00\x00K\x00\x00\x00A\x00\x00\x00\x02\x00\x00\x00>\x00\x00\x00\x15\x00\x00\x005\x00\x00\x00J\x00\x00\x00\x1b\x00\x00\x00\\\x00\x00\x00+\x00\x00\x003\x00\x00\x00G\x00\x00\x00\x0f\x00\x00\x00X\x00\x00\x00\x18\x00\x00\x000\x00\x00\x00\x08\x00\x00\x00"\x00\x00\x00\x10\x00\x00\x00;\x00\x00\x004\x00\x00\x00=\x00\x00\x00*\x00\x00\x00:\x00\x00\x00F\x00\x00\x00?\x00\x00\x002\x00\x00\x00\x17\x00\x00\x00]\x00\x00\x008\x00\x00\x00H\x00\x00\x00!\x00\x00\x00\x01\x00\x00\x00\x06\x00\x00\x00Y\x00\x00\x00N\x00\x00\x00_\x00\x00\x00\t\x00\x00\x00\x1e\x00\x00\x00/\x00\x00\x00-\x00\x00\x00\x0c\x00\x00\x00C\x00\x00\x00V\x00\x00\x00\x14\x00\x00\x00\x11\x00\x00\x00\x07\x00\x00\x00\r\x00\x00\x009\x00\x00\x00,\x00\x00\x00%\x00\x00\x00W\x00\x00\x00\x1d\x00\x00\x00\x00\x00\x00\x00\x12\x00\x00\x00\n\x00\x00\x00\x0b\x00\x00\x00Z\x00\x00\x00\x04\x00\x00\x00S\x00\x00\x00#\x00\x00\x00\x19\x00\x00\x00\x1c\x00\x00\x00$\x00\x00\x00B\x00\x00\x00@\x00\x00\x00E\x00\x00\x00M\x00\x00\x00O\x00\x00\x00\x05\x00\x00\x00<\x00\x00\x00I\x00\x00\x00[\x00\x00\x00)\x00\x00\x00U\x00\x00\x00'
tbsS'finished'
p1282
I01
sS'nReps'
p1283
I1
sS'nRemaining'
p1284
I-1
sS'trialList'
p1285
(lp1286
g1
(cpsychopy.data
TrialType
p1287
g1155
(dp1288
g62
g169
sg63
g909
sg64
g192
sg65
g904
sg66
g908
stRp1289
ag1
(g1287
g1155
(dp1290
g62
g74
sg63
g678
sg64
g73
sg65
g673
sg66
g677
stRp1291
ag1
(g1287
g1155
(dp1292
g62
g169
sg63
g346
sg64
g192
sg65
g341
sg66
g345
stRp1293
ag1
(g1287
g1155
(dp1294
g62
g169
sg63
g246
sg64
g238
sg65
g241
sg66
g245
stRp1295
ag1
(g1287
g1155
(dp1296
g62
g74
sg63
g964
sg64
g156
sg65
g959
sg66
g963
stRp1297
ag1
(g1287
g1155
(dp1298
g62
g169
sg63
g1085
sg64
g192
sg65
g1080
sg66
g1084
stRp1299
ag1
(g1287
g1155
(dp1300
g62
g169
sg63
g689
sg64
g192
sg65
g684
sg66
g688
stRp1301
ag1
(g1287
g1155
(dp1302
g62
g169
sg63
g832
sg64
g168
sg65
g827
sg66
g831
stRp1303
ag1
(g1287
g1155
(dp1304
g62
g169
sg63
g502
sg64
g192
sg65
g497
sg66
g501
stRp1305
ag1
(g1287
g1155
(dp1306
g62
g169
sg63
g733
sg64
g168
sg65
g728
sg66
g732
stRp1307
ag1
(g1287
g1155
(dp1308
g62
g74
sg63
g931
sg64
g472
sg65
g926
sg66
g930
stRp1309
ag1
(g1287
g1155
(dp1310
g62
g169
sg63
g942
sg64
g168
sg65
g937
sg66
g941
stRp1311
ag1
(g1287
g1155
(dp1312
g62
g169
sg63
g777
sg64
g226
sg65
g772
sg66
g776
stRp1313
ag1
(g1287
g1155
(dp1314
g62
g74
sg63
g843
sg64
g73
sg65
g838
sg66
g842
stRp1315
ag1
(g1287
g1155
(dp1316
g62
g169
sg63
g234
sg64
g226
sg65
g229
sg66
g233
stRp1317
ag1
(g1287
g1155
(dp1318
g62
g169
sg63
g457
sg64
g192
sg65
g452
sg66
g456
stRp1319
ag1
(g1287
g1155
(dp1320
g62
g74
sg63
g524
sg64
g73
sg65
g519
sg66
g523
stRp1321
ag1
(g1287
g1155
(dp1322
g62
g169
sg63
g821
sg64
g226
sg65
g816
sg66
g820
stRp1323
ag1
(g1287
g1155
(dp1324
g62
g169
sg63
g920
sg64
g283
sg65
g915
sg66
g919
stRp1325
ag1
(g1287
g1155
(dp1326
g62
g169
sg63
g200
sg64
g192
sg65
g195
sg66
g199
stRp1327
ag1
(g1287
g1155
(dp1328
g62
g74
sg63
g810
sg64
g73
sg65
g805
sg66
g809
stRp1329
ag1
(g1287
g1155
(dp1330
g62
g74
sg63
g369
sg64
g111
sg65
g364
sg66
g368
stRp1331
ag1
(g1287
g1155
(dp1332
g62
g169
sg63
g313
sg64
g283
sg65
g308
sg66
g312
stRp1333
ag1
(g1287
g1155
(dp1334
g62
g74
sg63
g623
sg64
g111
sg65
g618
sg66
g622
stRp1335
ag1
(g1287
g1155
(dp1336
g62
g74
sg63
g480
sg64
g472
sg65
g475
sg66
g479
stRp1337
ag1
(g1287
g1155
(dp1338
g62
g169
sg63
g997
sg64
g350
sg65
g992
sg66
g996
stRp1339
ag1
(g1287
g1155
(dp1340
g62
g74
sg63
g188
sg64
g156
sg65
g183
sg66
g187
stRp1341
ag1
(g1287
g1155
(dp1342
g62
g74
sg63
g402
sg64
g73
sg65
g397
sg66
g401
stRp1343
ag1
(g1287
g1155
(dp1344
g62
g169
sg63
g1008
sg64
g226
sg65
g1003
sg66
g1007
stRp1345
ag1
(g1287
g1155
(dp1346
g62
g169
sg63
g898
sg64
g192
sg65
g893
sg66
g897
stRp1347
ag1
(g1287
g1155
(dp1348
g62
g169
sg63
g744
sg64
g283
sg65
g739
sg66
g743
stRp1349
ag1
(g1287
g1155
(dp1350
g62
g169
sg63
g291
sg64
g283
sg65
g286
sg66
g290
stRp1351
ag1
(g1287
g1155
(dp1352
g62
g74
sg63
g130
sg64
g73
sg65
g125
sg66
g129
stRp1353
ag1
(g1287
g1155
(dp1354
g62
g74
sg63
g667
sg64
g156
sg65
g662
sg66
g666
stRp1355
ag1
(g1287
g1155
(dp1356
g62
g74
sg63
g513
sg64
g156
sg65
g508
sg66
g512
stRp1357
ag1
(g1287
g1155
(dp1358
g62
g169
sg63
g986
sg64
g226
sg65
g981
sg66
g985
stRp1359
ag1
(g1287
g1155
(dp1360
g62
g169
sg63
g1019
sg64
g350
sg65
g1014
sg66
g1018
stRp1361
ag1
(g1287
g1155
(dp1362
g62
g169
sg63
g876
sg64
g238
sg65
g871
sg66
g875
stRp1363
ag1
(g1287
g1155
(dp1364
g62
g74
sg63
g164
sg64
g156
sg65
g159
sg66
g163
stRp1365
ag1
(g1287
g1155
(dp1366
g62
g74
sg63
g84
sg64
g73
sg65
g78
sg66
g83
stRp1367
ag1
(g1287
g1155
(dp1368
g62
g74
sg63
g257
sg64
g73
sg65
g252
sg66
g256
stRp1369
ag1
(g1287
g1155
(dp1370
g62
g169
sg63
g1129
sg64
g226
sg65
g1124
sg66
g1128
stRp1371
ag1
(g1287
g1155
(dp1372
g62
g74
sg63
g568
sg64
g156
sg65
g563
sg66
g567
stRp1373
ag1
(g1287
g1155
(dp1374
g62
g74
sg63
g424
sg64
g111
sg65
g419
sg66
g423
stRp1375
ag1
(g1287
g1155
(dp1376
g62
g74
sg63
g865
sg64
g156
sg65
g860
sg66
g864
stRp1377
ag1
(g1287
g1155
(dp1378
g62
g74
sg63
g766
sg64
g472
sg65
g761
sg66
g765
stRp1379
ag1
(g1287
g1155
(dp1380
g62
g169
sg63
g211
sg64
g192
sg65
g206
sg66
g210
stRp1381
ag1
(g1287
g1155
(dp1382
g62
g169
sg63
g755
sg64
g192
sg65
g750
sg66
g754
stRp1383
ag1
(g1287
g1155
(dp1384
g62
g74
sg63
g491
sg64
g73
sg65
g486
sg66
g490
stRp1385
ag1
(g1287
g1155
(dp1386
g62
g74
sg63
g279
sg64
g111
sg65
g274
sg66
g278
stRp1387
ag1
(g1287
g1155
(dp1388
g62
g74
sg63
g612
sg64
g73
sg65
g607
sg66
g611
stRp1389
ag1
(g1287
g1155
(dp1390
g62
g74
sg63
g435
sg64
g156
sg65
g430
sg66
g434
stRp1391
ag1
(g1287
g1155
(dp1392
g62
g74
sg63
g546
sg64
g111
sg65
g541
sg66
g545
stRp1393
ag1
(g1287
g1155
(dp1394
g62
g169
sg63
g380
sg64
g226
sg65
g375
sg66
g379
stRp1395
ag1
(g1287
g1155
(dp1396
g62
g169
sg63
g177
sg64
g168
sg65
g172
sg66
g176
stRp1397
ag1
(g1287
g1155
(dp1398
g62
g74
sg63
g268
sg64
g111
sg65
g263
sg66
g267
stRp1399
ag1
(g1287
g1155
(dp1400
g62
g74
sg63
g645
sg64
g156
sg65
g640
sg66
g644
stRp1401
ag1
(g1287
g1155
(dp1402
g62
g74
sg63
g854
sg64
g156
sg65
g849
sg66
g853
stRp1403
ag1
(g1287
g1155
(dp1404
g62
g169
sg63
g579
sg64
g226
sg65
g574
sg66
g578
stRp1405
ag1
(g1287
g1155
(dp1406
g62
g74
sg63
g535
sg64
g156
sg65
g530
sg66
g534
stRp1407
ag1
(g1287
g1155
(dp1408
g62
g74
sg63
g1096
sg64
g156
sg65
g1091
sg66
g1095
stRp1409
ag1
(g1287
g1155
(dp1410
g62
g74
sg63
g557
sg64
g156
sg65
g552
sg66
g556
stRp1411
ag1
(g1287
g1155
(dp1412
g62
g169
sg63
g358
sg64
g350
sg65
g353
sg66
g357
stRp1413
ag1
(g1287
g1155
(dp1414
g62
g74
sg63
g601
sg64
g156
sg65
g596
sg66
g600
stRp1415
ag1
(g1287
g1155
(dp1416
g62
g169
sg63
g1041
sg64
g168
sg65
g1036
sg66
g1040
stRp1417
ag1
(g1287
g1155
(dp1418
g62
g74
sg63
g335
sg64
g111
sg65
g330
sg66
g334
stRp1419
ag1
(g1287
g1155
(dp1420
g62
g169
sg63
g1030
sg64
g283
sg65
g1025
sg66
g1029
stRp1421
ag1
(g1287
g1155
(dp1422
g62
g74
sg63
g788
sg64
g156
sg65
g783
sg66
g787
stRp1423
ag1
(g1287
g1155
(dp1424
g62
g74
sg63
g152
sg64
g73
sg65
g147
sg66
g151
stRp1425
ag1
(g1287
g1155
(dp1426
g62
g169
sg63
g1052
sg64
g192
sg65
g1047
sg66
g1051
stRp1427
ag1
(g1287
g1155
(dp1428
g62
g74
sg63
g590
sg64
g156
sg65
g585
sg66
g589
stRp1429
ag1
(g1287
g1155
(dp1430
g62
g169
sg63
g446
sg64
g283
sg65
g441
sg66
g445
stRp1431
ag1
(g1287
g1155
(dp1432
g62
g169
sg63
g656
sg64
g350
sg65
g651
sg66
g655
stRp1433
ag1
(g1287
g1155
(dp1434
g62
g74
sg63
g1107
sg64
g472
sg65
g1102
sg66
g1106
stRp1435
ag1
(g1287
g1155
(dp1436
g62
g74
sg63
g391
sg64
g156
sg65
g386
sg66
g390
stRp1437
ag1
(g1287
g1155
(dp1438
g62
g74
sg63
g324
sg64
g111
sg65
g319
sg66
g323
stRp1439
ag1
(g1287
g1155
(dp1440
g62
g169
sg63
g302
sg64
g168
sg65
g297
sg66
g301
stRp1441
ag1
(g1287
g1155
(dp1442
g62
g169
sg63
g1063
sg64
g283
sg65
g1058
sg66
g1062
stRp1443
ag1
(g1287
g1155
(dp1444
g62
g169
sg63
g711
sg64
g192
sg65
g706
sg66
g710
stRp1445
ag1
(g1287
g1155
(dp1446
g62
g74
sg63
g1074
sg64
g156
sg65
g1069
sg66
g1073
stRp1447
ag1
(g1287
g1155
(dp1448
g62
g74
sg63
g119
sg64
g111
sg65
g114
sg66
g118
stRp1449
ag1
(g1287
g1155
(dp1450
g62
g169
sg63
g222
sg64
g192
sg65
g217
sg66
g221
stRp1451
ag1
(g1287
g1155
(dp1452
g62
g74
sg63
g96
sg64
g73
sg65
g91
sg66
g95
stRp1453
ag1
(g1287
g1155
(dp1454
g62
g169
sg63
g975
sg64
g283
sg65
g970
sg66
g974
stRp1455
ag1
(g1287
g1155
(dp1456
g62
g74
sg63
g107
sg64
g73
sg65
g102
sg66
g106
stRp1457
ag1
(g1287
g1155
(dp1458
g62
g74
sg63
g1140
sg64
g156
sg65
g1135
sg66
g1139
stRp1459
ag1
(g1287
g1155
(dp1460
g62
g169
sg63
g799
sg64
g168
sg65
g794
sg66
g798
stRp1461
ag1
(g1287
g1155
(dp1462
g62
g169
sg63
g887
sg64
g168
sg65
g882
sg66
g886
stRp1463
ag1
(g1287
g1155
(dp1464
g62
g169
sg63
g468
sg64
g350
sg65
g463
sg66
g467
stRp1465
ag1
(g1287
g1155
(dp1466
g62
g169
sg63
g700
sg64
g350
sg65
g695
sg66
g699
stRp1467
ag1
(g1287
g1155
(dp1468
g62
g74
sg63
g953
sg64
g73
sg65
g948
sg66
g952
stRp1469
ag1
(g1287
g1155
(dp1470
g62
g169
sg63
g1118
sg64
g168
sg65
g1113
sg66
g1117
stRp1471
ag1
(g1287
g1155
(dp1472
g62
g169
sg63
g413
sg64
g350
sg65
g408
sg66
g412
stRp1473
ag1
(g1287
g1155
(dp1474
g62
g169
sg63
g634
sg64
g192
sg65
g629
sg66
g633
stRp1475
ag1
(g1287
g1155
(dp1476
g62
g74
sg63
g141
sg64
g111
sg65
g136
sg66
g140
stRp1477
ag1
(g1287
g1155
(dp1478
g62
g74
sg63
g722
sg64
g73
sg65
g717
sg66
g721
stRp1479
asS'seed'
p1480
NsS'thisIndex'
p1481
g1137
sS'thisN'
p1482
I96
sS'thisTrialN'
p1483
I0
sS'nTotal'
p1484
I96
sS'_warnUseOfNext'
p1485
I01
sbasS'savePickle'
p1486
I00
sb.