ccopy_reg
_reconstructor
p1
(cpsychopy.data
ExperimentHandler
p2
c__builtin__
object
p3
NtRp4
(dp5
S'originPath'
p6
NsS'dataFileName'
p7
VC:\u005cDocuments and Settings\u005cExperimental user\u005cMy Documents\u005cconsciousness\u005cuncon_feat\u005cexperiment_scripts\u005cdata/lierni_Experiment_EEG_version_2019_may_23_1656
p8
sS'runtimeInfo'
p9
NsS'name'
p10
VExperiment_EEG_version
p11
sS'dataNames'
p12
(lp13
S'image_onset_time'
p14
aS'response_window'
p15
aS'correctAns'
p16
aS'probe_onset'
p17
aS'discrim_resptime'
p18
aS'response.corr'
p19
aS'response.keys'
p20
aS'response.rt'
p21
aS'visible_resptime'
p22
aS'visible.keys'
p23
aS'visible.corr'
p24
aS'visible.rt'
p25
aS'probeFrames'
p26
aS'jitter2'
p27
asS'autoLog'
p28
I01
sS'extraInfo'
p29
(dp30
Vn_square
p31
V32
p32
sVexperiment_color
p33
Vbw
p34
sS'frameRate'
p35
cnumpy.core.multiarray
scalar
p36
(cnumpy
dtype
p37
(S'f8'
I0
I1
tRp38
(I3
S'<'
NNNI-1
I-1
I0
tbS'\x8e!\x06\xd52\xf2X@'
tRp39
sS'date'
p40
V2019_may_23_1656
p41
sVsession
p42
V016
p43
sVimage_size
p44
V256
p45
sVpremask_dur
p46
V20
p47
sVprobeFrames
p48
V5
sVparticipant
p49
Vlierni
p50
sS'expName'
p51
g11
sVpostmask_dur
p52
V20
p53
ssS'loopsUnfinished'
p54
(lp55
sS'saveWideText'
p56
I00
sS'thisEntry'
p57
(dp58
sS'version'
p59
S''
sS'_paramNamesSoFar'
p60
(lp61
S'category'
p62
aS'probe_path'
p63
aS'subcategory'
p64
aS'fixation_duration'
p65
aS'label'
p66
asS'entries'
p67
(lp68
(dp69
g31
g32
sg17
F3.7413236026186496
sg24
I0
sg35
g39
sg14
F3.7207058416679502
sg16
g36
(g37
(S'i4'
I0
I1
tRp70
(I3
S'<'
NNNI-1
I-1
I0
tbS'\x01\x00\x00\x00'
tRp71
sg42
g43
sg46
g47
sg15
S'V_nV'
p72
sg22
F5.5055041229352355
sg64
VAnimals
p73
sg62
VLiving_Things
p74
sg49
g50
sS'trials.thisN'
p75
I0
sg19
I1
sg27
g36
(g38
S'\x00\x00\x00\x00\x00\x00\x1c@'
tRp76
sg52
g53
sg23
S'2'
sg18
F5.0034022158943117
sg33
g34
sg51
g11
sg20
S'1'
sg65
g36
(g37
(S'i8'
I0
I1
tRp77
(I3
S'<'
NNNI-1
I-1
I0
tbS'\x00\x00\x00\x00\x00\x00\x00\x00'
tRp78
sg44
g45
sg40
g41
sg25
F0.090427840361371636
sS'trials.thisIndex'
p79
g36
(g37
(S'i4'
I0
I1
tRp80
(I3
S'<'
NNNI-1
I-1
I0
tbS'0\x00\x00\x00'
tRp81
sg26
V5
sS'trials.thisRepN'
p82
I0
sg66
Vlioness
p83
sg63
V../experiment_stimuli/bw_bc_bl/Living_Things/Animals/lioness_17.jpg
p84
sg21
F0.47126282984390855
sS'trials.thisTrialN'
p85
I0
sa(dp86
g31
g32
sg17
F7.3335865733679384
sg24
I0
sg35
g39
sg14
F7.3285502169746906
sg16
g36
(g70
S'\x02\x00\x00\x00'
tRp87
sg42
g43
sg46
g47
sg15
S'nV_V'
p88
sg22
F9.0328959098551422
sg64
VBirds
p89
sg62
g74
sg49
g50
sS'trials.thisN'
p90
I1
sg19
I1
sg27
g36
(g38
S'\x00\x00\x00\x00\x00\x00\x18@'
tRp91
sg52
g53
sg23
S'3'
sg18
F8.5911953670438379
sg33
g34
sg51
g11
sg20
S'2'
sg65
g36
(g77
S'\x00\x00\x00\x00\x00\x00\x00\x00'
tRp92
sg44
g45
sg40
g41
sg25
F0.11047874856740236
sS'trials.thisIndex'
p93
g36
(g80
S';\x00\x00\x00'
tRp94
sg26
V5
sS'trials.thisRepN'
p95
I0
sg66
Vpartridge
p96
sg63
V../experiment_stimuli/bw_bc_bl/Living_Things/Birds/partridge_6.jpg
p97
sg21
F0.42113638599403203
sS'trials.thisTrialN'
p98
I1
sa(dp99
g31
g32
sg17
F10.881331136450171
sg24
I0
sg35
g39
sg14
F10.876258983742446
sg16
g36
(g70
S'\x02\x00\x00\x00'
tRp100
sg42
g43
sg46
g47
sg15
g88
sg22
F12.640734112355858
sg64
g89
sg62
g74
sg49
g50
sS'trials.thisN'
p101
I2
sg19
I0
sg27
g36
(g38
S'\x00\x00\x00\x00\x00\x00\x1e@'
tRp102
sg52
g53
sg23
S'2'
sg18
F12.108847684692591
sg33
g34
sg51
g11
sg20
S'1'
sg65
g36
(g77
S'\x00\x00\x00\x00\x00\x00\x00\x00'
tRp103
sg44
g45
sg40
g41
sg25
F0.060349387815222144
sS'trials.thisIndex'
p104
g36
(g80
S'3\x00\x00\x00'
tRp105
sg26
V5
sS'trials.thisRepN'
p106
I0
sg66
Vmagpie
p107
sg63
V../experiment_stimuli/bw_bc_bl/Living_Things/Birds/magpie_0.jpg
p108
sg21
F0.51133980811573565
sS'trials.thisTrialN'
p109
I2
sa(dp110
g31
g32
sg17
F14.439221494132653
sg24
I1
sg35
g39
sg14
F14.433994215680286
sg16
g36
(g70
S'\x02\x00\x00\x00'
tRp111
sg42
g43
sg46
g47
sg15
g72
sg22
F15.988022403325886
sg64
VFurniture
p112
sg62
VNonliving_Things
p113
sg49
g50
sS'trials.thisN'
p114
I3
sg19
I1
sg27
g36
(g38
S'\x00\x00\x00\x00\x00\x00 @'
tRp115
sg52
g53
sg23
S'1'
sg18
F15.666574454400688
sg33
g34
sg51
g11
sg20
S'2'
sg65
g36
(g77
S'\x00\x00\x00\x00\x00\x00\x00\x00'
tRp116
sg44
g45
sg40
g41
sg25
F0.090420851483941078
sS'trials.thisIndex'
p117
g36
(g80
S'\x05\x00\x00\x00'
tRp118
sg26
V5
sS'trials.thisRepN'
p119
I0
sg66
Vbed
p120
sg63
V../experiment_stimuli/bw_bc_bl/Nonliving_Things/Furniture/bed_13.jpg
p121
sg21
F0.30089293513447046
sS'trials.thisTrialN'
p122
I3
sa(dp123
g31
g32
sg17
F17.816078211180866
sg24
I0
sg35
g39
sg14
F17.81133506516926
sg16
g36
(g70
S'\x02\x00\x00\x00'
tRp124
sg42
g43
sg46
g47
sg15
g72
sg22
F19.425485966959968
sg64
g112
sg62
g113
sg49
g50
sS'trials.thisN'
p125
I4
sg19
I1
sg27
g36
(g38
S'\x00\x00\x00\x00\x00\x00\x1a@'
tRp126
sg52
g53
sg23
S'2'
sg18
F19.073985470691696
sg33
g34
sg51
g11
sg20
S'2'
sg65
g36
(g77
S'\x00\x00\x00\x00\x00\x00\x00\x00'
tRp127
sg44
g45
sg40
g41
sg25
F0.15054275724105537
sS'trials.thisIndex'
p128
g36
(g80
S'\x1d\x00\x00\x00'
tRp129
sg26
V5
sS'trials.thisRepN'
p130
I0
sg66
Vfilling-cabinet
p131
sg63
V../experiment_stimuli/bw_bc_bl/Nonliving_Things/Furniture/filling-cabinet_15.jpg
p132
sg21
F0.33095044828951359
sS'trials.thisTrialN'
p133
I4
sa(dp134
g31
g32
sg17
F21.313740344950929
sg24
I0
sg35
g39
sg14
F21.308942522853613
sg16
g36
(g70
S'\x01\x00\x00\x00'
tRp135
sg42
g43
sg46
g47
sg15
g72
sg22
F22.993072076700628
sg64
g89
sg62
g74
sg49
g50
sS'trials.thisN'
p136
I5
sg19
I1
sg27
g36
(g38
S'\x00\x00\x00\x00\x00\x00 @'
tRp137
sg52
g53
sg23
S'2'
sg18
F22.561562267830595
sg33
g34
sg51
g11
sg20
S'1'
sg65
g36
(g77
S'\x00\x00\x00\x00\x00\x00\x00\x00'
tRp138
sg44
g45
sg40
g41
sg25
F0.070370951201766729
sS'trials.thisIndex'
p139
g36
(g80
S'O\x00\x00\x00'
tRp140
sg26
V5
sS'trials.thisRepN'
p141
I0
sg66
Vsparrow
p142
sg63
V../experiment_stimuli/bw_bc_bl/Living_Things/Birds/sparrow_17.jpg
p143
sg21
F0.41095538530498743
sS'trials.thisTrialN'
p144
I5
sa(dp145
g31
g32
sg17
F24.801398659590632
sg24
I0
sg35
g39
sg14
F24.796525485115126
sg16
g36
(g70
S'\x01\x00\x00\x00'
tRp146
sg42
g43
sg46
g47
sg15
g72
sg22
F26.330513290595263
sg64
g73
sg62
g74
sg49
g50
sS'trials.thisN'
p147
I6
sg19
I1
sg27
g36
(g38
S'\x00\x00\x00\x00\x00\x00\x1e@'
tRp148
sg52
g53
sg23
S'2'
sg18
F26.039128242060542
sg33
g34
sg51
g11
sg20
S'1'
sg65
g36
(g77
S'\x00\x00\x00\x00\x00\x00\x00\x00'
tRp149
sg44
g45
sg40
g41
sg25
F0.08024336607195437
sS'trials.thisIndex'
p150
g36
(g80
S'(\x00\x00\x00'
tRp151
sg26
V5
sS'trials.thisRepN'
p152
I0
sg66
Vhorse
p153
sg63
V../experiment_stimuli/bw_bc_bl/Living_Things/Animals/horse_17.jpg
p154
sg21
F0.27084037289023399
sS'trials.thisTrialN'
p155
I6
sa(dp156
g31
g32
sg17
F28.149660147493705
sg24
I1
sg35
g39
sg14
F28.143797528697178
sg16
g36
(g70
S'\x01\x00\x00\x00'
tRp157
sg42
g43
sg46
g47
sg15
g88
sg22
F29.718090444570407
sg64
VVehicles
p158
sg62
g113
sg49
g50
sS'trials.thisN'
p159
I7
sg19
I0
sg27
g36
(g38
S'\x00\x00\x00\x00\x00\x00\x1c@'
tRp160
sg52
g53
sg23
S'1'
sg18
F29.376377639127895
sg33
g34
sg51
g11
sg20
S'2'
sg65
g36
(g77
S'\x00\x00\x00\x00\x00\x00\x00\x00'
tRp161
sg44
g45
sg40
g41
sg25
F0.060349575709551573
sS'trials.thisIndex'
p162
g36
(g80
S'L\x00\x00\x00'
tRp163
sg26
V5
sS'trials.thisRepN'
p164
I0
sg66
Vship
p165
sg63
V../experiment_stimuli/bw_bc_bl/Nonliving_Things/Vehicles/ship_15.jpg
p166
sg21
F0.32113993843086064
sS'trials.thisTrialN'
p167
I7
sa(dp168
g31
g32
sg17
F31.515885783592239
sg24
I0
sg35
g39
sg14
F31.511124464916065
sg16
g36
(g70
S'\x01\x00\x00\x00'
tRp169
sg42
g43
sg46
g47
sg15
g88
sg22
F33.055113427806646
sg64
VMusical_Inst
p170
sg62
g113
sg49
g50
sS'trials.thisN'
p171
I8
sg19
I0
sg27
g36
(g38
S'\x00\x00\x00\x00\x00\x00\x18@'
tRp172
sg52
g53
sg23
S'3'
sg18
F32.753719176631421
sg33
g34
sg51
g11
sg20
S'2'
sg65
g36
(g77
S'\x00\x00\x00\x00\x00\x00\x00\x00'
tRp173
sg44
g45
sg40
g41
sg25
F0.070371533511206508
sS'trials.thisIndex'
p174
g36
(g80
S'$\x00\x00\x00'
tRp175
sg26
V5
sS'trials.thisRepN'
p176
I0
sg66
Vguitar
p177
sg63
V../experiment_stimuli/bw_bc_bl/Nonliving_Things/Musical_Inst/guitar_13.jpg
p178
sg21
F0.28083953447639942
sS'trials.thisTrialN'
p179
I8
sa(dp180
g31
g32
sg17
F34.863134026527405
sg24
I0
sg35
g39
sg14
F34.858395496848971
sg16
g36
(g70
S'\x02\x00\x00\x00'
tRp181
sg42
g43
sg46
g47
sg15
g72
sg22
F36.61285596806556
sg64
VKitchen_Uten
p182
sg62
g113
sg49
g50
sS'trials.thisN'
p183
I9
sg19
I1
sg27
g36
(g38
S'\x00\x00\x00\x00\x00\x00\x18@'
tRp184
sg52
g53
sg23
S'3'
sg18
F36.090970769291744
sg33
g34
sg51
g11
sg20
S'2'
sg65
g36
(g77
S'\x00\x00\x00\x00\x00\x00\x00\x00'
tRp185
sg44
g45
sg40
g41
sg25
F0.11030954797752202
sS'trials.thisIndex'
p186
g36
(g80
S'\x12\x00\x00\x00'
tRp187
sg26
V5
sS'trials.thisRepN'
p188
I0
sg66
Vcoking-pot
p189
sg63
V../experiment_stimuli/bw_bc_bl/Nonliving_Things/Kitchen_Uten/coking-pot_0.jpg
p190
sg21
F0.50132889533415437
sS'trials.thisTrialN'
p191
I9
sa(dp192
g31
g32
sg17
F38.46228684601374
sg24
I0
sg35
g39
sg14
F38.456212508259341
sg16
g36
(g70
S'\x01\x00\x00\x00'
tRp193
sg42
g43
sg46
g47
sg15
g88
sg22
F40.210685257334262
sg64
g170
sg62
g113
sg49
g50
sS'trials.thisN'
p194
I10
sg19
I1
sg27
g36
(g38
S'\x00\x00\x00\x00\x00\x00\x18@'
tRp195
sg52
g53
sg23
S'2'
sg18
F39.688796769129112
sg33
g34
sg51
g11
sg20
S'1'
sg65
g36
(g77
S'\x00\x00\x00\x00\x00\x00\x00\x00'
tRp196
sg44
g45
sg40
g41
sg25
F0.050756239099428058
sS'trials.thisIndex'
p197
g36
(g80
S'X\x00\x00\x00'
tRp198
sg26
V5
sS'trials.thisRepN'
p199
I0
sg66
Vtrumpet
p200
sg63
V../experiment_stimuli/bw_bc_bl/Nonliving_Things/Musical_Inst/trumpet_10.jpg
p201
sg21
F0.50131807988509536
sS'trials.thisTrialN'
p202
I10
sa(dp203
g31
g32
sg17
F41.99865427496843
sg24
I1
sg35
g39
sg14
F41.993902204092592
sg16
g36
(g70
S'\x02\x00\x00\x00'
tRp204
sg42
g43
sg46
g47
sg15
g72
sg22
F43.547913888236508
sg64
g182
sg62
g113
sg49
g50
sS'trials.thisN'
p205
I11
sg19
I1
sg27
g36
(g38
S'\x00\x00\x00\x00\x00\x00 @'
tRp206
sg52
g53
sg23
S'1'
sg18
F43.226483795791864
sg33
g34
sg51
g11
sg20
S'2'
sg65
g36
(g77
S'\x00\x00\x00\x00\x00\x00\x00\x00'
tRp207
sg44
g45
sg40
g41
sg25
F0.080395303433761001
sS'trials.thisIndex'
p208
g36
(g80
S'\x16\x00\x00\x00'
tRp209
sg26
V5
sS'trials.thisRepN'
p210
I0
sg66
Vcup
p211
sg63
V../experiment_stimuli/bw_bc_bl/Nonliving_Things/Kitchen_Uten/cup_11.jpg
p212
sg21
F0.30088537139818072
sS'trials.thisTrialN'
p213
I11
sa(dp214
g31
g32
sg17
F45.366092002950609
sg24
I1
sg35
g39
sg14
F45.36122627207078
sg16
g36
(g70
S'\x01\x00\x00\x00'
tRp215
sg42
g43
sg46
g47
sg15
g72
sg22
F46.664543903432786
sg64
VMarine_creatures
p216
sg62
g74
sg49
g50
sS'trials.thisN'
p217
I12
sg19
I1
sg27
g36
(g38
S'\x00\x00\x00\x00\x00\x00\x1e@'
tRp218
sg52
g53
sg23
S'1'
sg18
F46.623869692906737
sg33
g34
sg51
g11
sg20
S'1'
sg65
g36
(g77
S'\x00\x00\x00\x00\x00\x00\x00\x00'
tRp219
sg44
g45
sg40
g41
sg25
F0.29087017616257071
sS'trials.thisIndex'
p220
g36
(g80
S'+\x00\x00\x00'
tRp221
sg26
V5
sS'trials.thisRepN'
p222
I0
sg66
Vkiller-whale
p223
sg63
V../experiment_stimuli/bw_bc_bl/Living_Things/Marine_creatures/killer-whale_17.jpg
p224
sg21
F0.02010955405421555
sS'trials.thisTrialN'
p225
I12
sa(dp226
g31
g32
sg17
F48.69343235809356
sg24
I0
sg35
g39
sg14
F48.688457703916356
sg16
g36
(g70
S'\x02\x00\x00\x00'
tRp227
sg42
g43
sg46
g47
sg15
g88
sg22
F50.342677148291841
sg64
VInsects
p228
sg62
g74
sg49
g50
sS'trials.thisN'
p229
I13
sg19
I0
sg27
g36
(g38
S'\x00\x00\x00\x00\x00\x00\x1a@'
tRp230
sg52
g53
sg23
S'2'
sg18
F49.961131958523765
sg33
g34
sg51
g11
sg20
S'1'
sg65
g36
(g77
S'\x00\x00\x00\x00\x00\x00\x00\x00'
tRp231
sg44
g45
sg40
g41
sg25
F0.060347612947225571
sS'trials.thisIndex'
p232
g36
(g80
S'I\x00\x00\x00'
tRp233
sg26
V5
sS'trials.thisRepN'
p234
I0
sg66
Vscorpion
p235
sg63
V../experiment_stimuli/bw_bc_bl/Living_Things/Insects/scorpion_2.jpg
p236
sg21
F0.36100893490947783
sS'trials.thisTrialN'
p237
I13
sa(dp238
g31
g32
sg17
F52.140883992658928
sg24
I0
sg35
g39
sg14
F52.135973894037306
sg16
g36
(g70
S'\x02\x00\x00\x00'
tRp239
sg42
g43
sg46
g47
sg15
g88
sg22
F54.100867652101442
sg64
g89
sg62
g74
sg49
g50
sS'trials.thisN'
p240
I14
sg19
I1
sg27
g36
(g38
S'\x00\x00\x00\x00\x00\x00\x18@'
tRp241
sg52
g53
sg23
S'3'
sg18
F53.398596100741997
sg33
g34
sg51
g11
sg20
S'2'
sg65
g36
(g77
S'\x00\x00\x00\x00\x00\x00\x00\x00'
tRp242
sg44
g45
sg40
g41
sg25
F0.12050405982881784
sS'trials.thisIndex'
p243
g36
(g80
S'F\x00\x00\x00'
tRp244
sg26
V5
sS'trials.thisRepN'
p245
I0
sg66
Vrooster
p246
sg63
V../experiment_stimuli/bw_bc_bl/Living_Things/Birds/rooster_15.jpg
p247
sg21
F0.68170896219089627
sS'trials.thisTrialN'
p248
I14
sa(dp249
g31
g32
sg17
F55.959220556542277
sg24
I1
sg35
g39
sg14
F55.95424874057062
sg16
g36
(g70
S'\x02\x00\x00\x00'
tRp250
sg42
g43
sg46
g47
sg15
g88
sg22
F57.45819614152424
sg64
g89
sg62
g74
sg49
g50
sS'trials.thisN'
p251
I15
sg19
I0
sg27
g36
(g38
S'\x00\x00\x00\x00\x00\x00\x18@'
tRp252
sg52
g53
sg23
S'1'
sg18
F57.186828422825783
sg33
g34
sg51
g11
sg20
S'1'
sg65
g36
(g77
S'\x00\x00\x00\x00\x00\x00\x00\x00'
tRp253
sg44
g45
sg40
g41
sg25
F0.15054776868782938
sS'trials.thisIndex'
p254
g36
(g80
S'U\x00\x00\x00'
tRp255
sg26
V5
sS'trials.thisRepN'
p256
I0
sg66
Vtoucan
p257
sg63
V../experiment_stimuli/bw_bc_bl/Living_Things/Birds/toucan_0.jpg
p258
sg21
F0.25079339719377458
sS'trials.thisTrialN'
p259
I15
sa(dp260
g31
g32
sg17
F59.346341724507511
sg24
I0
sg35
g39
sg14
F59.341608220944181
sg16
g36
(g70
S'\x01\x00\x00\x00'
tRp261
sg42
g43
sg46
g47
sg15
g88
sg22
F60.695045755011961
sg64
g112
sg62
g113
sg49
g50
sS'trials.thisN'
p262
I16
sg19
I0
sg27
g36
(g38
S'\x00\x00\x00\x00\x00\x00\x18@'
tRp263
sg52
g53
sg23
S'2'
sg18
F60.58421713905409
sg33
g34
sg51
g11
sg20
S'2'
sg65
g36
(g77
S'\x00\x00\x00\x00\x00\x00\x00\x00'
tRp264
sg44
g45
sg40
g41
sg25
F0.1906455704011023
sS'trials.thisIndex'
p265
g36
(g80
S']\x00\x00\x00'
tRp266
sg26
V5
sS'trials.thisRepN'
p267
I0
sg66
Vwardrobe
p268
sg63
V../experiment_stimuli/bw_bc_bl/Nonliving_Things/Furniture/wardrobe_6.jpg
p269
sg21
F0.090262944344431162
sS'trials.thisTrialN'
p270
I16
sa(dp271
g31
g32
sg17
F62.623584075132385
sg24
I0
sg35
g39
sg14
F62.61873024632223
sg16
g36
(g70
S'\x02\x00\x00\x00'
tRp272
sg42
g43
sg46
g47
sg15
g72
sg22
F64.313055386999622
sg64
VTools
p273
sg62
g113
sg49
g50
sS'trials.thisN'
p274
I17
sg19
I1
sg27
g36
(g38
S'\x00\x00\x00\x00\x00\x00\x1a@'
tRp275
sg52
g53
sg23
S'2'
sg18
F63.851313721621409
sg33
g34
sg51
g11
sg20
S'2'
sg65
g36
(g77
S'\x00\x00\x00\x00\x00\x00\x00\x00'
tRp276
sg44
g45
sg40
g41
sg25
F0.15054807346314192
sS'trials.thisIndex'
p277
g36
(g80
S'%\x00\x00\x00'
tRp278
sg26
V5
sS'trials.thisRepN'
p279
I0
sg66
Vhammer
p280
sg63
V../experiment_stimuli/bw_bc_bl/Nonliving_Things/Tools/hammer_18.jpg
p281
sg21
F0.44118580943904817
sS'trials.thisTrialN'
p282
I17
sa(dp283
g31
g32
sg17
F66.202106900513172
sg24
I1
sg35
g39
sg14
F66.19652681145817
sg16
g36
(g70
S'\x01\x00\x00\x00'
tRp284
sg42
g43
sg46
g47
sg15
g72
sg22
F67.670385169563815
sg64
g89
sg62
g74
sg49
g50
sS'trials.thisN'
p285
I18
sg19
I0
sg27
g36
(g38
S'\x00\x00\x00\x00\x00\x00\x1a@'
tRp286
sg52
g53
sg23
S'1'
sg18
F67.429091610247269
sg33
g34
sg51
g11
sg20
S'2'
sg65
g36
(g77
S'\x00\x00\x00\x00\x00\x00\x00\x00'
tRp287
sg44
g45
sg40
g41
sg25
F0.090429573552682996
sS'trials.thisIndex'
p288
g36
(g80
S'?\x00\x00\x00'
tRp289
sg26
V5
sS'trials.thisRepN'
p290
I0
sg66
Vpigeon
p291
sg63
V../experiment_stimuli/bw_bc_bl/Living_Things/Birds/pigeon_11.jpg
p292
sg21
F0.2207192073110491
sS'trials.thisTrialN'
p293
I18
sa(dp294
g31
g32
sg17
F69.499915726948529
sg24
I0
sg35
g39
sg14
F69.493696801364422
sg16
g36
(g70
S'\x02\x00\x00\x00'
tRp295
sg42
g43
sg46
g47
sg15
g72
sg22
F71.03767482819967
sg64
VBuildings
p296
sg62
g113
sg49
g50
sS'trials.thisN'
p297
I19
sg19
I0
sg27
g36
(g38
S'\x00\x00\x00\x00\x00\x00\x18@'
tRp298
sg52
g53
sg23
S'2'
sg18
F70.736285407794639
sg33
g34
sg51
g11
sg20
S'1'
sg65
g36
(g77
S'\x00\x00\x00\x00\x00\x00\x00\x00'
tRp299
sg44
g45
sg40
g41
sg25
F0.04030875745229423
sS'trials.thisIndex'
p300
g36
(g80
S'\x11\x00\x00\x00'
tRp301
sg26
V5
sS'trials.thisRepN'
p302
I0
sg66
Vchurch
p303
sg63
V../experiment_stimuli/bw_bc_bl/Nonliving_Things/Buildings/church_22.jpg
p304
sg21
F0.28083396656438708
sS'trials.thisTrialN'
p305
I19
sa(dp306
g31
g32
sg17
F72.815765618812293
sg24
I1
sg35
g39
sg14
F72.810889767948538
sg16
g36
(g70
S'\x02\x00\x00\x00'
tRp307
sg42
g43
sg46
g47
sg15
g88
sg22
F74.364909101976082
sg64
g216
sg62
g74
sg49
g50
sS'trials.thisN'
p308
I20
sg19
I1
sg27
g36
(g38
S'\x00\x00\x00\x00\x00\x00\x1c@'
tRp309
sg52
g53
sg23
S'1'
sg18
F74.043469250900671
sg33
g34
sg51
g11
sg20
S'2'
sg65
g36
(g77
S'\x00\x00\x00\x00\x00\x00\x00\x00'
tRp310
sg44
g45
sg40
g41
sg25
F0.13050498045049608
sS'trials.thisIndex'
p311
g36
(g80
S'^\x00\x00\x00'
tRp312
sg26
V5
sS'trials.thisRepN'
p313
I0
sg66
Vwhale
p314
sg63
V../experiment_stimuli/bw_bc_bl/Living_Things/Marine_creatures/whale_4.jpg
p315
sg21
F0.30088054807856679
sS'trials.thisTrialN'
p316
I20
sa(dp317
g31
g32
sg17
F76.233256103703752
sg24
I0
sg35
g39
sg14
F76.228318084264174
sg16
g36
(g70
S'\x02\x00\x00\x00'
tRp318
sg42
g43
sg46
g47
sg15
g72
sg22
F77.922652762616053
sg64
g158
sg62
g113
sg49
g50
sS'trials.thisN'
p319
I21
sg19
I1
sg27
g36
(g38
S'\x00\x00\x00\x00\x00\x00\x18@'
tRp320
sg52
g53
sg23
S'3'
sg18
F77.480945355258882
sg33
g34
sg51
g11
sg20
S'2'
sg65
g36
(g77
S'\x00\x00\x00\x00\x00\x00\x00\x00'
tRp321
sg44
g45
sg40
g41
sg25
F0.11046342900954187
sS'trials.thisIndex'
p322
g36
(g80
S'W\x00\x00\x00'
tRp323
sg26
V5
sS'trials.thisRepN'
p324
I0
sg66
Vtrain
p325
sg63
V../experiment_stimuli/bw_bc_bl/Nonliving_Things/Vehicles/train_3.jpg
p326
sg21
F0.4211492130998522
sS'trials.thisTrialN'
p327
I21
sa(dp328
g31
g32
sg17
F79.773557893699035
sg24
I1
sg35
g39
sg14
F79.766005825251341
sg16
g36
(g70
S'\x02\x00\x00\x00'
tRp329
sg42
g43
sg46
g47
sg15
g88
sg22
F81.219807072309777
sg64
g216
sg62
g74
sg49
g50
sS'trials.thisN'
p330
I22
sg19
I1
sg27
g36
(g38
S'\x00\x00\x00\x00\x00\x00\x1a@'
tRp331
sg52
g53
sg23
S'1'
sg18
F80.998588075162843
sg33
g34
sg51
g11
sg20
S'2'
sg65
g36
(g77
S'\x00\x00\x00\x00\x00\x00\x00\x00'
tRp332
sg44
g45
sg40
g41
sg25
F0.080234798369929194
sS'trials.thisIndex'
p333
g36
(g80
S'7\x00\x00\x00'
tRp334
sg26
V5
sS'trials.thisRepN'
p335
I0
sg66
Vnarwhal
p336
sg63
V../experiment_stimuli/bw_bc_bl/Living_Things/Marine_creatures/narwhal_12.jpg
p337
sg21
F0.20066105108708143
sS'trials.thisTrialN'
p338
I22
sa(dp339
g31
g32
sg17
F83.039545751176775
sg24
I0
sg35
g39
sg14
F83.033103407826275
sg16
g36
(g70
S'\x02\x00\x00\x00'
tRp340
sg42
g43
sg46
g47
sg15
g72
sg22
F84.737493626074865
sg64
g182
sg62
g113
sg49
g50
sS'trials.thisN'
p341
I23
sg19
I1
sg27
g36
(g38
S'\x00\x00\x00\x00\x00\x00\x18@'
tRp342
sg52
g53
sg23
S'3'
sg18
F84.295757422456518
sg33
g34
sg51
g11
sg20
S'2'
sg65
g36
(g77
S'\x00\x00\x00\x00\x00\x00\x00\x00'
tRp343
sg44
g45
sg40
g41
sg25
F0.090431716060265899
sS'trials.thisIndex'
p344
g36
(g80
S'S\x00\x00\x00'
tRp345
sg26
V5
sS'trials.thisRepN'
p346
I0
sg66
Vteapot
p347
sg63
V../experiment_stimuli/bw_bc_bl/Nonliving_Things/Kitchen_Uten/teapot_25.jpg
p348
sg21
F0.42115969420410693
sS'trials.thisTrialN'
p349
I23
sa(dp350
g31
g32
sg17
F86.565776017261669
sg24
I0
sg35
g39
sg14
F86.560774889774621
sg16
g36
(g70
S'\x02\x00\x00\x00'
tRp351
sg42
g43
sg46
g47
sg15
g72
sg22
F88.094753894722089
sg64
g158
sg62
g113
sg49
g50
sS'trials.thisN'
p352
I24
sg19
I0
sg27
g36
(g38
S'\x00\x00\x00\x00\x00\x00\x1a@'
tRp353
sg52
g53
sg23
S'2'
sg18
F87.793365835212171
sg33
g34
sg51
g11
sg20
S'1'
sg65
g36
(g77
S'\x00\x00\x00\x00\x00\x00\x00\x00'
tRp354
sg44
g45
sg40
g41
sg25
F0.12049960857257247
sS'trials.thisIndex'
p355
g36
(g80
S'\t\x00\x00\x00'
tRp356
sg26
V5
sS'trials.thisRepN'
p357
I0
sg66
Vbus
p358
sg63
V../experiment_stimuli/bw_bc_bl/Nonliving_Things/Vehicles/bus_21.jpg
p359
sg21
F0.28083670372143388
sS'trials.thisTrialN'
p360
I24
sa(dp361
g31
g32
sg17
F89.954573819180951
sg24
I1
sg35
g39
sg14
F89.948146080598235
sg16
g36
(g70
S'\x02\x00\x00\x00'
tRp362
sg42
g43
sg46
g47
sg15
g72
sg22
F91.442057914799079
sg64
g112
sg62
g113
sg49
g50
sS'trials.thisN'
p363
I25
sg19
I0
sg27
g36
(g38
S'\x00\x00\x00\x00\x00\x00 @'
tRp364
sg52
g53
sg23
S'1'
sg18
F91.180730766616762
sg33
g34
sg51
g11
sg20
S'1'
sg65
g36
(g77
S'\x00\x00\x00\x00\x00\x00\x00\x00'
tRp365
sg44
g45
sg40
g41
sg25
F0.34096042183227837
sS'trials.thisIndex'
p366
g36
(g80
S'\x00\x00\x00\x00'
tRp367
sg26
V5
sS'trials.thisRepN'
p368
I0
sg66
VChest-of-drawers
p369
sg63
V../experiment_stimuli/bw_bc_bl/Nonliving_Things/Furniture/Chest-of-drawers_23.jpg
p370
sg21
F0.2407532436773181
sS'trials.thisTrialN'
p371
I25
sa(dp372
g31
g32
sg17
F93.52076517068781
sg24
I1
sg35
g39
sg14
F93.515906676650047
sg16
g36
(g70
S'\x02\x00\x00\x00'
tRp373
sg42
g43
sg46
g47
sg15
g72
sg22
F94.8795138054993
sg64
g296
sg62
g113
sg49
g50
sS'trials.thisN'
p374
I26
sg19
I1
sg27
g36
(g38
S'\x00\x00\x00\x00\x00\x00\x18@'
tRp375
sg52
g53
sg23
S'1'
sg18
F94.769038605736569
sg33
g34
sg51
g11
sg20
S'2'
sg65
g36
(g77
S'\x00\x00\x00\x00\x00\x00\x00\x00'
tRp376
sg44
g45
sg40
g41
sg25
F0.13050512340851128
sS'trials.thisIndex'
p377
g36
(g80
S'\x0e\x00\x00\x00'
tRp378
sg26
V5
sS'trials.thisRepN'
p379
I0
sg66
Vcathedral
p380
sg63
V../experiment_stimuli/bw_bc_bl/Nonliving_Things/Buildings/cathedral_23.jpg
p381
sg21
F0.08039767574518919
sS'trials.thisTrialN'
p382
I26
sa(dp383
g31
g32
sg17
F96.748557522660121
sg24
I0
sg35
g39
sg14
F96.742911502253264
sg16
g36
(g70
S'\x02\x00\x00\x00'
tRp384
sg42
g43
sg46
g47
sg15
g88
sg22
F98.818054805509746
sg64
g228
sg62
g74
sg49
g50
sS'trials.thisN'
p385
I27
sg19
I1
sg27
g36
(g38
S'\x00\x00\x00\x00\x00\x00\x1a@'
tRp386
sg52
g53
sg23
S'3'
sg18
F98.015579095343128
sg33
g34
sg51
g11
sg20
S'2'
sg65
g36
(g77
S'\x00\x00\x00\x00\x00\x00\x00\x00'
tRp387
sg44
g45
sg40
g41
sg25
F0.020270401379093528
sS'trials.thisIndex'
p388
g36
(g80
S'\n\x00\x00\x00'
tRp389
sg26
V5
sS'trials.thisRepN'
p390
I0
sg66
Vbutterfly
p391
sg63
V../experiment_stimuli/bw_bc_bl/Living_Things/Insects/butterfly_24.jpg
p392
sg21
F0.78192775300703943
sS'trials.thisTrialN'
p393
I27
sa(dp394
g31
g32
sg17
F100.57615373958834
sg24
I0
sg35
g39
sg14
F100.57123765628785
sg16
g36
(g70
S'\x02\x00\x00\x00'
tRp395
sg42
g43
sg46
g47
sg15
g88
sg22
F102.42590352310799
sg64
g73
sg62
g74
sg49
g50
sS'trials.thisN'
p396
I28
sg19
I1
sg27
g36
(g38
S'\x00\x00\x00\x00\x00\x00\x1e@'
tRp397
sg52
g53
sg23
S'3'
sg18
F101.81383746536449
sg33
g34
sg51
g11
sg20
S'2'
sg65
g36
(g77
S'\x00\x00\x00\x00\x00\x00\x00\x00'
tRp398
sg44
g45
sg40
g41
sg25
F0.10043894499540329
sS'trials.thisIndex'
p399
g36
(g80
S'D\x00\x00\x00'
tRp400
sg26
V5
sS'trials.thisRepN'
p401
I0
sg66
Vrhino
p402
sg63
V../experiment_stimuli/bw_bc_bl/Living_Things/Animals/rhino_25.jpg
p403
sg21
F0.59151584096252918
sS'trials.thisTrialN'
p404
I28
sa(dp405
g31
g32
sg17
F104.26496890280396
sg24
I1
sg35
g39
sg14
F104.25926589057781
sg16
g36
(g70
S'\x01\x00\x00\x00'
tRp406
sg42
g43
sg46
g47
sg15
g72
sg22
F105.75313549628481
sg64
g89
sg62
g74
sg49
g50
sS'trials.thisN'
p407
I29
sg19
I0
sg27
g36
(g38
S'\x00\x00\x00\x00\x00\x00\x1a@'
tRp408
sg52
g53
sg23
S'1'
sg18
F105.49183046771213
sg33
g34
sg51
g11
sg20
S'2'
sg65
g36
(g77
S'\x00\x00\x00\x00\x00\x00\x00\x00'
tRp409
sg44
g45
sg40
g41
sg25
F0.090425144648179412
sS'trials.thisIndex'
p410
g36
(g80
S'8\x00\x00\x00'
tRp411
sg26
V5
sS'trials.thisRepN'
p412
I0
sg66
Vostrich
p413
sg63
V../experiment_stimuli/bw_bc_bl/Living_Things/Birds/ostrich_2.jpg
p414
sg21
F0.24075229652225971
sS'trials.thisTrialN'
p415
I29
sa(dp416
g31
g32
sg17
F107.58226860803552
sg24
I0
sg35
g39
sg14
F107.57645603013225
sg16
g36
(g70
S'\x01\x00\x00\x00'
tRp417
sg42
g43
sg46
g47
sg15
g88
sg22
F109.45120583847165
sg64
g112
sg62
g113
sg49
g50
sS'trials.thisN'
p418
I30
sg19
I1
sg27
g36
(g38
S'\x00\x00\x00\x00\x00\x00\x18@'
tRp419
sg52
g53
sg23
S'2'
sg18
F108.82908776728436
sg33
g34
sg51
g11
sg20
S'1'
sg65
g36
(g77
S'\x00\x00\x00\x00\x00\x00\x00\x00'
tRp420
sg44
g45
sg40
g41
sg25
F0.11046027881093323
sS'trials.thisIndex'
p421
g36
(g80
S'/\x00\x00\x00'
tRp422
sg26
V5
sS'trials.thisRepN'
p423
I0
sg66
Vlectern
p424
sg63
V../experiment_stimuli/bw_bc_bl/Nonliving_Things/Furniture/lectern_23.jpg
p425
sg21
F0.60156619665212929
sS'trials.thisTrialN'
p426
I30
sa(dp427
g31
g32
sg17
F111.29976661596447
sg24
I1
sg35
g39
sg14
F111.29454291285947
sg16
g36
(g70
S'\x02\x00\x00\x00'
tRp428
sg42
g43
sg46
g47
sg15
g88
sg22
F112.9988796019461
sg64
g228
sg62
g74
sg49
g50
sS'trials.thisN'
p429
I31
sg19
I1
sg27
g36
(g38
S'\x00\x00\x00\x00\x00\x00\x1a@'
tRp430
sg52
g53
sg23
S'1'
sg18
F112.5371482220944
sg33
g34
sg51
g11
sg20
S'2'
sg65
g36
(g77
S'\x00\x00\x00\x00\x00\x00\x00\x00'
tRp431
sg44
g45
sg40
g41
sg25
F0.17058240249752998
sS'trials.thisIndex'
p432
g36
(g80
S'-\x00\x00\x00'
tRp433
sg26
V5
sS'trials.thisRepN'
p434
I0
sg66
Vladybird
p435
sg63
V../experiment_stimuli/bw_bc_bl/Living_Things/Insects/ladybird_24.jpg
p436
sg21
F0.44118832400999963
sS'trials.thisTrialN'
p437
I31
sa(dp438
g31
g32
sg17
F114.90915740514174
sg24
I0
sg35
g39
sg14
F114.9023867843207
sg16
g36
(g70
S'\x02\x00\x00\x00'
tRp439
sg42
g43
sg46
g47
sg15
g88
sg22
F116.71697854856029
sg64
g216
sg62
g74
sg49
g50
sS'trials.thisN'
p440
I32
sg19
I0
sg27
g36
(g38
S'\x00\x00\x00\x00\x00\x00\x1a@'
tRp441
sg52
g53
sg23
S'2'
sg18
F116.15500917565078
sg33
g34
sg51
g11
sg20
S'1'
sg65
g36
(g77
S'\x00\x00\x00\x00\x00\x00\x00\x00'
tRp442
sg44
g45
sg40
g41
sg25
F0.060353417415171862
sS'trials.thisIndex'
p443
g36
(g80
S'\x17\x00\x00\x00'
tRp444
sg26
V5
sS'trials.thisRepN'
p445
I0
sg66
Vdolphin
p446
sg63
V../experiment_stimuli/bw_bc_bl/Living_Things/Marine_creatures/dolphin_3.jpg
p447
sg21
F0.54140445287339389
sS'trials.thisTrialN'
p448
I32
sa(dp449
g31
g32
sg17
F118.5150870825164
sg24
I0
sg35
g39
sg14
F118.51023349445313
sg16
g36
(g70
S'\x01\x00\x00\x00'
tRp450
sg42
g43
sg46
g47
sg15
g72
sg22
F120.28474638494663
sg64
g216
sg62
g74
sg49
g50
sS'trials.thisN'
p451
I33
sg19
I1
sg27
g36
(g38
S'\x00\x00\x00\x00\x00\x00\x18@'
tRp452
sg52
g53
sg23
S'2'
sg18
F119.75284007424489
sg33
g34
sg51
g11
sg20
S'1'
sg65
g36
(g77
S'\x00\x00\x00\x00\x00\x00\x00\x00'
tRp453
sg44
g45
sg40
g41
sg25
F0.040308595634996891
sS'trials.thisIndex'
p454
g36
(g80
S'1\x00\x00\x00'
tRp455
sg26
V5
sS'trials.thisRepN'
p456
I0
sg66
Vlobster
p457
sg63
V../experiment_stimuli/bw_bc_bl/Living_Things/Marine_creatures/lobster_24.jpg
p458
sg21
F0.51135556772351265
sS'trials.thisTrialN'
p459
I33
sa(dp460
g31
g32
sg17
F122.06284451740794
sg24
I1
sg35
g39
sg14
F122.05793966329657
sg16
g36
(g70
S'\x01\x00\x00\x00'
tRp461
sg42
g43
sg46
g47
sg15
g72
sg22
F123.64211086276919
sg64
g89
sg62
g74
sg49
g50
sS'trials.thisN'
p462
I34
sg19
I1
sg27
g36
(g38
S'\x00\x00\x00\x00\x00\x00\x18@'
tRp463
sg52
g53
sg23
S'1'
sg18
F123.29052368365228
sg33
g34
sg51
g11
sg20
S'1'
sg65
g36
(g77
S'\x00\x00\x00\x00\x00\x00\x00\x00'
tRp464
sg44
g45
sg40
g41
sg25
F0.85207381960935891
sS'trials.thisIndex'
p465
g36
(g80
S'=\x00\x00\x00'
tRp466
sg26
V5
sS'trials.thisRepN'
p467
I0
sg66
Vpenguin
p468
sg63
V../experiment_stimuli/bw_bc_bl/Living_Things/Birds/penguin_13.jpg
p469
sg21
F0.33102826331742108
sS'trials.thisTrialN'
p470
I34
sa(dp471
g31
g32
sg17
F126.23368874355219
sg24
I0
sg35
g39
sg14
F126.22700527170673
sg16
g36
(g70
S'\x01\x00\x00\x00'
tRp472
sg42
g43
sg46
g47
sg15
g88
sg22
F128.00150844827294
sg64
g112
sg62
g113
sg49
g50
sS'trials.thisN'
p473
I35
sg19
I1
sg27
g36
(g38
S'\x00\x00\x00\x00\x00\x00\x18@'
tRp474
sg52
g53
sg23
S'3'
sg18
F127.48966780863702
sg33
g34
sg51
g11
sg20
S'1'
sg65
g36
(g77
S'\x00\x00\x00\x00\x00\x00\x00\x00'
tRp475
sg44
g45
sg40
g41
sg25
F0.17059497442096472
sS'trials.thisIndex'
p476
g36
(g80
S'.\x00\x00\x00'
tRp477
sg26
V5
sS'trials.thisRepN'
p478
I0
sg66
Vlamp
p479
sg63
V../experiment_stimuli/bw_bc_bl/Nonliving_Things/Furniture/lamp_19.jpg
p480
sg21
F0.4912971593439579
sS'trials.thisTrialN'
p481
I35
sa(dp482
g31
g32
sg17
F129.9099008650519
sg24
I1
sg35
g39
sg14
F129.90500047313981
sg16
g36
(g70
S'\x01\x00\x00\x00'
tRp483
sg42
g43
sg46
g47
sg15
g72
sg22
F131.46904909610748
sg64
g89
sg62
g74
sg49
g50
sS'trials.thisN'
p484
I36
sg19
I0
sg27
g36
(g38
S'\x00\x00\x00\x00\x00\x00\x1a@'
tRp485
sg52
g53
sg23
S'1'
sg18
F131.13758167414926
sg33
g34
sg51
g11
sg20
S'2'
sg65
g36
(g77
S'\x00\x00\x00\x00\x00\x00\x00\x00'
tRp486
sg44
g45
sg40
g41
sg25
F0.030284833395853639
sS'trials.thisIndex'
p487
g36
(g80
S'C\x00\x00\x00'
tRp488
sg26
V5
sS'trials.thisRepN'
p489
I0
sg66
Vraven
p490
sg63
V../experiment_stimuli/bw_bc_bl/Living_Things/Birds/raven_20.jpg
p491
sg21
F0.31092352094128728
sS'trials.thisTrialN'
p492
I36
sa(dp493
g31
g32
sg17
F133.23717630747706
sg24
I0
sg35
g39
sg14
F133.23223154782318
sg16
g36
(g70
S'\x01\x00\x00\x00'
tRp494
sg42
g43
sg46
g47
sg15
g88
sg22
F134.96665505762212
sg64
g296
sg62
g113
sg49
g50
sS'trials.thisN'
p495
I37
sg19
I1
sg27
g36
(g38
S'\x00\x00\x00\x00\x00\x00\x1c@'
tRp496
sg52
g53
sg23
S'2'
sg18
F134.49489126168191
sg33
g34
sg51
g11
sg20
S'1'
sg65
g36
(g77
S'\x00\x00\x00\x00\x00\x00\x00\x00'
tRp497
sg44
g45
sg40
g41
sg25
F0.090414028381928802
sS'trials.thisIndex'
p498
g36
(g80
S':\x00\x00\x00'
tRp499
sg26
V5
sS'trials.thisRepN'
p500
I0
sg66
Vpalace
p501
sg63
V../experiment_stimuli/bw_bc_bl/Nonliving_Things/Buildings/palace_23.jpg
p502
sg21
F0.45121960551477969
sS'trials.thisTrialN'
p503
I37
sa(dp504
g31
g32
sg17
F136.79490731400438
sg24
I0
sg35
g39
sg14
F136.78999588848092
sg16
g36
(g70
S'\x02\x00\x00\x00'
tRp505
sg42
g43
sg46
g47
sg15
g72
sg22
F138.36406752932817
sg64
g112
sg62
g113
sg49
g50
sS'trials.thisN'
p506
I38
sg19
I0
sg27
g36
(g38
S'\x00\x00\x00\x00\x00\x00\x1a@'
tRp507
sg52
g53
sg23
S'2'
sg18
F138.0425914907828
sg33
g34
sg51
g11
sg20
S'1'
sg65
g36
(g77
S'\x00\x00\x00\x00\x00\x00\x00\x00'
tRp508
sg44
g45
sg40
g41
sg25
F0.10044516692869365
sS'trials.thisIndex'
p509
g36
(g80
S'\x06\x00\x00\x00'
tRp510
sg26
V5
sS'trials.thisRepN'
p511
I0
sg66
Vbedside-table
p512
sg63
V../experiment_stimuli/bw_bc_bl/Nonliving_Things/Furniture/bedside-table_19.jpg
p513
sg21
F0.30088316067121923
sS'trials.thisTrialN'
p514
I38
sa(dp515
g31
g32
sg17
F140.20328127918765
sg24
I0
sg35
g39
sg14
F140.19737569103017
sg16
g36
(g70
S'\x01\x00\x00\x00'
tRp516
sg42
g43
sg46
g47
sg15
g72
sg22
F142.06207078276202
sg64
g73
sg62
g74
sg49
g50
sS'trials.thisN'
p517
I39
sg19
I1
sg27
g36
(g38
S'\x00\x00\x00\x00\x00\x00\x18@'
tRp518
sg52
g53
sg23
S'2'
sg18
F141.43998791370541
sg33
g34
sg51
g11
sg20
S'1'
sg65
g36
(g77
S'\x00\x00\x00\x00\x00\x00\x00\x00'
tRp519
sg44
g45
sg40
g41
sg25
F0.090414047008380294
sS'trials.thisIndex'
p520
g36
(g80
S'\x14\x00\x00\x00'
tRp521
sg26
V5
sS'trials.thisRepN'
p522
I0
sg66
Vcow
p523
sg63
V../experiment_stimuli/bw_bc_bl/Living_Things/Animals/cow_3.jpg
p524
sg21
F0.60153801669366658
sS'trials.thisTrialN'
p525
I39
sa(dp526
g31
g32
sg17
F143.89119462412782
sg24
I1
sg35
g39
sg14
F143.88539220392704
sg16
g36
(g70
S'\x01\x00\x00\x00'
tRp527
sg42
g43
sg46
g47
sg15
g72
sg22
F145.34903546026908
sg64
g89
sg62
g74
sg49
g50
sS'trials.thisN'
p528
I40
sg19
I1
sg27
g36
(g38
S'\x00\x00\x00\x00\x00\x00 @'
tRp529
sg52
g53
sg23
S'1'
sg18
F145.1179822392296
sg33
g34
sg51
g11
sg20
S'1'
sg65
g36
(g77
S'\x00\x00\x00\x00\x00\x00\x00\x00'
tRp530
sg44
g45
sg40
g41
sg25
F0.27080685459077358
sS'trials.thisIndex'
p531
g36
(g80
S'"\x00\x00\x00'
tRp532
sg26
V5
sS'trials.thisRepN'
p533
I0
sg66
Vgoose
p534
sg63
V../experiment_stimuli/bw_bc_bl/Living_Things/Birds/goose_19.jpg
p535
sg21
F0.21051956759765744
sS'trials.thisTrialN'
p536
I40
sa(dp537
g31
g32
sg17
F147.35777741344646
sg24
I0
sg35
g39
sg14
F147.35293095302768
sg16
g36
(g70
S'\x01\x00\x00\x00'
tRp538
sg42
g43
sg46
g47
sg15
g88
sg22
F149.15751983039081
sg64
g158
sg62
g113
sg49
g50
sS'trials.thisN'
p539
I41
sg19
I1
sg27
g36
(g38
S'\x00\x00\x00\x00\x00\x00 @'
tRp540
sg52
g53
sg23
S'3'
sg18
F148.60555507009849
sg33
g34
sg51
g11
sg20
S'1'
sg65
g36
(g77
S'\x00\x00\x00\x00\x00\x00\x00\x00'
tRp541
sg44
g45
sg40
g41
sg25
F0.060350582702085376
sS'trials.thisIndex'
p542
g36
(g80
S'V\x00\x00\x00'
tRp543
sg26
V5
sS'trials.thisRepN'
p544
I0
sg66
Vtractor
p545
sg63
V../experiment_stimuli/bw_bc_bl/Nonliving_Things/Vehicles/tractor_14.jpg
p546
sg21
F0.53139906260184944
sS'trials.thisTrialN'
p547
I41
sa(dp548
g31
g32
sg17
F150.95665536471643
sg24
I1
sg35
g39
sg14
F150.95075011113659
sg16
g36
(g70
S'\x01\x00\x00\x00'
tRp549
sg42
g43
sg46
g47
sg15
g88
sg22
F152.48471006378531
sg64
g296
sg62
g113
sg49
g50
sS'trials.thisN'
p550
I42
sg19
I0
sg27
g36
(g38
S'\x00\x00\x00\x00\x00\x00\x1a@'
tRp551
sg52
g53
sg23
S'1'
sg18
F152.18333174078725
sg33
g34
sg51
g11
sg20
S'2'
sg65
g36
(g77
S'\x00\x00\x00\x00\x00\x00\x00\x00'
tRp552
sg44
g45
sg40
g41
sg25
F0.1103039316367358
sS'trials.thisIndex'
p553
g36
(g80
S')\x00\x00\x00'
tRp554
sg26
V5
sS'trials.thisRepN'
p555
I0
sg66
Vhouse
p556
sg63
V../experiment_stimuli/bw_bc_bl/Nonliving_Things/Buildings/house_22.jpg
p557
sg21
F0.28083238797262311
sS'trials.thisTrialN'
p558
I42
sa(dp559
g31
g32
sg17
F154.33506365749054
sg24
I0
sg35
g39
sg14
F154.32808977994137
sg16
g36
(g70
S'\x02\x00\x00\x00'
tRp560
sg42
g43
sg46
g47
sg15
g88
sg22
F156.12262957566418
sg64
g73
sg62
g74
sg49
g50
sS'trials.thisN'
p561
I43
sg19
I1
sg27
g36
(g38
S'\x00\x00\x00\x00\x00\x00\x18@'
tRp562
sg52
g53
sg23
S'3'
sg18
F155.59073896775953
sg33
g34
sg51
g11
sg20
S'2'
sg65
g36
(g77
S'\x00\x00\x00\x00\x00\x00\x00\x00'
tRp563
sg44
g45
sg40
g41
sg25
F0.11045695934444666
sS'trials.thisIndex'
p564
g36
(g80
S"'\x00\x00\x00"
tRp565
sg26
V5
sS'trials.thisRepN'
p566
I0
sg66
Vhippopotamus
p567
sg63
V../experiment_stimuli/bw_bc_bl/Living_Things/Animals/hippopotamus_15.jpg
p568
sg21
F0.5113401657436043
sS'trials.thisTrialN'
p569
I43
sa(dp570
g31
g32
sg17
F157.97085619252175
sg24
I1
sg35
g39
sg14
F157.96599744306877
sg16
g36
(g70
S'\x01\x00\x00\x00'
tRp571
sg42
g43
sg46
g47
sg15
g72
sg22
F159.32964396616444
sg64
g216
sg62
g74
sg49
g50
sS'trials.thisN'
p572
I44
sg19
I0
sg27
g36
(g38
S'\x00\x00\x00\x00\x00\x00\x18@'
tRp573
sg52
g53
sg23
S'1'
sg18
F159.19858489581384
sg33
g34
sg51
g11
sg20
S'2'
sg65
g36
(g77
S'\x00\x00\x00\x00\x00\x00\x00\x00'
tRp574
sg44
g45
sg40
g41
sg25
F0.0302922239061445
sS'trials.thisIndex'
p575
g36
(g80
S'K\x00\x00\x00'
tRp576
sg26
V5
sS'trials.thisRepN'
p577
I0
sg66
Vshark
p578
sg63
V../experiment_stimuli/bw_bc_bl/Living_Things/Marine_creatures/shark_2.jpg
p579
sg21
F0.11048235767520964
sS'trials.thisTrialN'
p580
I44
sa(dp581
g31
g32
sg17
F161.09771529491991
sg24
I0
sg35
g39
sg14
F161.09279524511658
sg16
g36
(g70
S'\x02\x00\x00\x00'
tRp582
sg42
g43
sg46
g47
sg15
g72
sg22
F162.90737405838445
sg64
g158
sg62
g113
sg49
g50
sS'trials.thisN'
p583
I45
sg19
I1
sg27
g36
(g38
S'\x00\x00\x00\x00\x00\x00\x1e@'
tRp584
sg52
g53
sg23
S'3'
sg18
F162.33540465962142
sg33
g34
sg51
g11
sg20
S'2'
sg65
g36
(g77
S'\x00\x00\x00\x00\x00\x00\x00\x00'
tRp585
sg44
g45
sg40
g41
sg25
F0.040328148286789656
sS'trials.thisIndex'
p586
g36
(g80
S'6\x00\x00\x00'
tRp587
sg26
V5
sS'trials.thisRepN'
p588
I0
sg66
Vmotorbike
p589
sg63
V../experiment_stimuli/bw_bc_bl/Nonliving_Things/Vehicles/motorbike_11.jpg
p590
sg21
F0.55142173427157104
sS'trials.thisTrialN'
p591
I45
sa(dp592
g31
g32
sg17
F164.68561527901329
sg24
I0
sg35
g39
sg14
F164.68060788465664
sg16
g36
(g70
S'\x01\x00\x00\x00'
tRp593
sg42
g43
sg46
g47
sg15
g88
sg22
F166.57532658404671
sg64
g170
sg62
g113
sg49
g50
sS'trials.thisN'
p594
I46
sg19
I1
sg27
g36
(g38
S'\x00\x00\x00\x00\x00\x00\x18@'
tRp595
sg52
g53
sg23
S'3'
sg18
F165.91317671746947
sg33
g34
sg51
g11
sg20
S'1'
sg65
g36
(g77
S'\x00\x00\x00\x00\x00\x00\x00\x00'
tRp596
sg44
g45
sg40
g41
sg25
F0.83203356526792049
sS'trials.thisIndex'
p597
g36
(g80
S'Y\x00\x00\x00'
tRp598
sg26
V5
sS'trials.thisRepN'
p599
I0
sg66
Vtuba
p600
sg63
V../experiment_stimuli/bw_bc_bl/Nonliving_Things/Musical_Inst/tuba_19.jpg
p601
sg21
F0.64160623634234071
sS'trials.thisTrialN'
p602
I46
sa(dp603
g31
g32
sg17
F169.14630392519757
sg24
I0
sg35
g39
sg14
F169.14029353787191
sg16
g36
(g70
S'\x02\x00\x00\x00'
tRp604
sg42
g43
sg46
g47
sg15
g72
sg22
F170.68428308330476
sg64
g296
sg62
g113
sg49
g50
sS'trials.thisN'
p605
I47
sg19
I0
sg27
g36
(g38
S'\x00\x00\x00\x00\x00\x00\x1c@'
tRp606
sg52
g53
sg23
S'2'
sg18
F170.37287443806417
sg33
g34
sg51
g11
sg20
S'1'
sg65
g36
(g77
S'\x00\x00\x00\x00\x00\x00\x00\x00'
tRp607
sg44
g45
sg40
g41
sg25
F0.090408814372494817
sS'trials.thisIndex'
p608
g36
(g80
S'\x0c\x00\x00\x00'
tRp609
sg26
V5
sS'trials.thisRepN'
p610
I0
sg66
Vcastle
p611
sg63
V../experiment_stimuli/bw_bc_bl/Nonliving_Things/Buildings/castle_8.jpg
p612
sg21
F0.29085563495755196
sS'trials.thisTrialN'
p613
I47
sa(dp614
g31
g32
sg17
F172.51252476847731
sg24
I1
sg35
g39
sg14
F172.50762087665498
sg16
g36
(g70
S'\x01\x00\x00\x00'
tRp615
sg42
g43
sg46
g47
sg15
g72
sg22
F173.87123223836534
sg64
g89
sg62
g74
sg49
g50
sS'trials.thisN'
p616
I48
sg19
I1
sg27
g36
(g38
S'\x00\x00\x00\x00\x00\x00\x18@'
tRp617
sg52
g53
sg23
S'1'
sg18
F173.74019642337225
sg33
g34
sg51
g11
sg20
S'1'
sg65
g36
(g77
S'\x00\x00\x00\x00\x00\x00\x00\x00'
tRp618
sg44
g45
sg40
g41
sg25
F0.30086951423436403
sS'trials.thisIndex'
p619
g36
(g80
S'\x1a\x00\x00\x00'
tRp620
sg26
V5
sS'trials.thisRepN'
p621
I0
sg66
Vduck
p622
sg63
V../experiment_stimuli/bw_bc_bl/Living_Things/Birds/duck_15.jpg
p623
sg21
F0.11047637625597417
sS'trials.thisTrialN'
p624
I48
sa(dp625
g31
g32
sg17
F175.91092142160051
sg24
I0
sg35
g39
sg14
F175.90499726613052
sg16
g36
(g70
S'\x01\x00\x00\x00'
tRp626
sg42
g43
sg46
g47
sg15
g72
sg22
F177.46906935865991
sg64
g216
sg62
g74
sg49
g50
sS'trials.thisN'
p627
I49
sg19
I0
sg27
g36
(g38
S'\x00\x00\x00\x00\x00\x00\x18@'
tRp628
sg52
g53
sg23
S'2'
sg18
F177.15762558230199
sg33
g34
sg51
g11
sg20
S'2'
sg65
g36
(g77
S'\x00\x00\x00\x00\x00\x00\x00\x00'
tRp629
sg44
g45
sg40
g41
sg25
F0.17058820743113756
sS'trials.thisIndex'
p630
g36
(g80
S'4\x00\x00\x00'
tRp631
sg26
V5
sS'trials.thisRepN'
p632
I0
sg66
Vmanatee
p633
sg63
V../experiment_stimuli/bw_bc_bl/Living_Things/Marine_creatures/manatee_0.jpg
p634
sg21
F0.29087576665915549
sS'trials.thisTrialN'
p635
I49
sa(dp636
g31
g32
sg17
F179.37872608052567
sg24
I1
sg35
g39
sg14
F179.37253013579175
sg16
g36
(g70
S'\x02\x00\x00\x00'
tRp637
sg42
g43
sg46
g47
sg15
g88
sg22
F181.06685094558634
sg64
g216
sg62
g74
sg49
g50
sS'trials.thisN'
p638
I50
sg19
I1
sg27
g36
(g38
S'\x00\x00\x00\x00\x00\x00\x1a@'
tRp639
sg52
g53
sg23
S'1'
sg18
F180.61513670813292
sg33
g34
sg51
g11
sg20
S'2'
sg65
g36
(g77
S'\x00\x00\x00\x00\x00\x00\x00\x00'
tRp640
sg44
g45
sg40
g41
sg25
F0.100439986679703
sS'trials.thisIndex'
p641
g36
(g80
S'A\x00\x00\x00'
tRp642
sg26
V5
sS'trials.thisRepN'
p643
I0
sg66
Vpomfret
p644
sg63
V../experiment_stimuli/bw_bc_bl/Living_Things/Marine_creatures/pomfret_17.jpg
p645
sg21
F0.43115819711238146
sS'trials.thisTrialN'
p646
I50
sa(dp647
g31
g32
sg17
F182.90516057680361
sg24
I1
sg35
g39
sg14
F182.90019851271063
sg16
g36
(g70
S'\x02\x00\x00\x00'
tRp648
sg42
g43
sg46
g47
sg15
g88
sg22
F184.57447886909358
sg64
g73
sg62
g74
sg49
g50
sS'trials.thisN'
p649
I51
sg19
I0
sg27
g36
(g38
S'\x00\x00\x00\x00\x00\x00\x18@'
tRp650
sg52
g53
sg23
S'1'
sg18
F184.15283253556117
sg33
g34
sg51
g11
sg20
S'1'
sg65
g36
(g77
S'\x00\x00\x00\x00\x00\x00\x00\x00'
tRp651
sg44
g45
sg40
g41
sg25
F0.44118395214900374
sS'trials.thisIndex'
p652
g36
(g80
S' \x00\x00\x00'
tRp653
sg26
V5
sS'trials.thisRepN'
p654
I0
sg66
Vgiraffe
p655
sg63
V../experiment_stimuli/bw_bc_bl/Living_Things/Animals/giraffe_17.jpg
p656
sg21
F0.40110413148067892
sS'trials.thisTrialN'
p657
I51
sa(dp658
g31
g32
sg17
F186.75356930773705
sg24
I0
sg35
g39
sg14
F186.74856772529893
sg16
g36
(g70
S'\x02\x00\x00\x00'
tRp659
sg42
g43
sg46
g47
sg15
g88
sg22
F188.70346738980152
sg64
g228
sg62
g74
sg49
g50
sS'trials.thisN'
p660
I52
sg19
I1
sg27
g36
(g38
S'\x00\x00\x00\x00\x00\x00\x1a@'
tRp661
sg52
g53
sg23
S'3'
sg18
F188.03125758073293
sg33
g34
sg51
g11
sg20
S'2'
sg65
g36
(g77
S'\x00\x00\x00\x00\x00\x00\x00\x00'
tRp662
sg44
g45
sg40
g41
sg25
F0.060351722175255418
sS'trials.thisIndex'
p663
g36
(g80
S'\x18\x00\x00\x00'
tRp664
sg26
V5
sS'trials.thisRepN'
p665
I0
sg66
Vdragonfly
p666
sg63
V../experiment_stimuli/bw_bc_bl/Living_Things/Insects/dragonfly_8.jpg
p667
sg21
F0.65164327644743025
sS'trials.thisTrialN'
p668
I52
sa(dp669
g31
g32
sg17
F190.50275216624141
sg24
I0
sg35
g39
sg14
F190.49671968142502
sg16
g36
(g70
S'\x01\x00\x00\x00'
tRp670
sg42
g43
sg46
g47
sg15
g72
sg22
F192.34135546255857
sg64
g89
sg62
g74
sg49
g50
sS'trials.thisN'
p671
I53
sg19
I0
sg27
g36
(g38
S'\x00\x00\x00\x00\x00\x00\x18@'
tRp672
sg52
g53
sg23
S'2'
sg18
F191.75936347083189
sg33
g34
sg51
g11
sg20
S'2'
sg65
g36
(g77
S'\x00\x00\x00\x00\x00\x00\x00\x00'
tRp673
sg44
g45
sg40
g41
sg25
F0.17058623372577131
sS'trials.thisIndex'
p674
g36
(g80
S'9\x00\x00\x00'
tRp675
sg26
V5
sS'trials.thisRepN'
p676
I0
sg66
Vowl
p677
sg63
V../experiment_stimuli/bw_bc_bl/Living_Things/Birds/owl_14.jpg
p678
sg21
F0.56144905695691705
sS'trials.thisTrialN'
p679
I53
sa(dp680
g31
g32
sg17
F194.24988678726368
sg24
I0
sg35
g39
sg14
F194.24486178439111
sg16
g36
(g70
S'\x02\x00\x00\x00'
tRp681
sg42
g43
sg46
g47
sg15
g88
sg22
F196.19979069265537
sg64
g89
sg62
g74
sg49
g50
sS'trials.thisN'
p682
I54
sg19
I1
sg27
g36
(g38
S'\x00\x00\x00\x00\x00\x00\x18@'
tRp683
sg52
g53
sg23
S'2'
sg18
F195.49749090103433
sg33
g34
sg51
g11
sg20
S'2'
sg65
g36
(g77
S'\x00\x00\x00\x00\x00\x00\x00\x00'
tRp684
sg44
g45
sg40
g41
sg25
F0.040352519834414124
sS'trials.thisIndex'
p685
g36
(g80
S'*\x00\x00\x00'
tRp686
sg26
V5
sS'trials.thisRepN'
p687
I0
sg66
Vhummingbird
p688
sg63
V../experiment_stimuli/bw_bc_bl/Living_Things/Birds/hummingbird_16.jpg
p689
sg21
F0.68172934581525624
sS'trials.thisTrialN'
p690
I54
sa(dp691
g31
g32
sg17
F197.97779416874982
sg24
I0
sg35
g39
sg14
F197.97297017020173
sg16
g36
(g70
S'\x01\x00\x00\x00'
tRp692
sg42
g43
sg46
g47
sg15
g88
sg22
F199.70720650628209
sg64
g112
sg62
g113
sg49
g50
sS'trials.thisN'
p693
I55
sg19
I1
sg27
g36
(g38
S'\x00\x00\x00\x00\x00\x00\x18@'
tRp694
sg52
g53
sg23
S'2'
sg18
F199.21557136322372
sg33
g34
sg51
g11
sg20
S'1'
sg65
g36
(g77
S'\x00\x00\x00\x00\x00\x00\x00\x00'
tRp695
sg44
g45
sg40
g41
sg25
F0.10043958015739918
sS'trials.thisIndex'
p696
g36
(g80
S'\x13\x00\x00\x00'
tRp697
sg26
V5
sS'trials.thisRepN'
p698
I0
sg66
Vcouch
p699
sg63
V../experiment_stimuli/bw_bc_bl/Nonliving_Things/Furniture/couch_8.jpg
p700
sg21
F0.47108939616009593
sS'trials.thisTrialN'
p701
I55
sa(dp702
g31
g32
sg17
F201.54686274612322
sg24
I1
sg35
g39
sg14
F201.5407325332053
sg16
g36
(g70
S'\x02\x00\x00\x00'
tRp703
sg42
g43
sg46
g47
sg15
g72
sg22
F202.99460295215249
sg64
g112
sg62
g113
sg49
g50
sS'trials.thisN'
p704
I56
sg19
I1
sg27
g36
(g38
S'\x00\x00\x00\x00\x00\x00\x1c@'
tRp705
sg52
g53
sg23
S'1'
sg18
F202.77330685826018
sg33
g34
sg51
g11
sg20
S'2'
sg65
g36
(g77
S'\x00\x00\x00\x00\x00\x00\x00\x00'
tRp706
sg44
g45
sg40
g41
sg25
F0.090408802963793278
sS'trials.thisIndex'
p707
g36
(g80
S'Q\x00\x00\x00'
tRp708
sg26
V5
sS'trials.thisRepN'
p709
I0
sg66
Vtable
p710
sg63
V../experiment_stimuli/bw_bc_bl/Nonliving_Things/Furniture/table_25.jpg
p711
sg21
F0.20075033558532596
sS'trials.thisTrialN'
p712
I56
sa(dp713
g31
g32
sg17
F204.82291100453585
sg24
I1
sg35
g39
sg14
F204.81787516735494
sg16
g36
(g70
S'\x02\x00\x00\x00'
tRp714
sg42
g43
sg46
g47
sg15
g72
sg22
F206.33178680506535
sg64
g296
sg62
g113
sg49
g50
sS'trials.thisN'
p715
I57
sg19
I1
sg27
g36
(g38
S'\x00\x00\x00\x00\x00\x00\x1c@'
tRp716
sg52
g53
sg23
S'1'
sg18
F206.06045589805581
sg33
g34
sg51
g11
sg20
S'2'
sg65
g36
(g77
S'\x00\x00\x00\x00\x00\x00\x00\x00'
tRp717
sg44
g45
sg40
g41
sg25
F0.10045495978556573
sS'trials.thisIndex'
p718
g36
(g80
S'#\x00\x00\x00'
tRp719
sg26
V5
sS'trials.thisRepN'
p720
I0
sg66
Vgranary
p721
sg63
V../experiment_stimuli/bw_bc_bl/Nonliving_Things/Buildings/granary_21.jpg
p722
sg21
F0.25077953631989658
sS'trials.thisTrialN'
p723
I57
sa(dp724
g31
g32
sg17
F208.16996346809901
sg24
I0
sg35
g39
sg14
F208.16512257908471
sg16
g36
(g70
S'\x01\x00\x00\x00'
tRp725
sg42
g43
sg46
g47
sg15
g72
sg22
F210.07994325761683
sg64
g216
sg62
g74
sg49
g50
sS'trials.thisN'
p726
I58
sg19
I1
sg27
g36
(g38
S'\x00\x00\x00\x00\x00\x00\x18@'
tRp727
sg52
g53
sg23
S'2'
sg18
F209.41775235766545
sg33
g34
sg51
g11
sg20
S'1'
sg65
g36
(g77
S'\x00\x00\x00\x00\x00\x00\x00\x00'
tRp728
sg44
g45
sg40
g41
sg25
F0.040304475231096148
sS'trials.thisIndex'
p729
g36
(g80
S'P\x00\x00\x00'
tRp730
sg26
V5
sS'trials.thisRepN'
p731
I0
sg66
Vsperm-whale
p732
sg63
V../experiment_stimuli/bw_bc_bl/Living_Things/Marine_creatures/sperm-whale_23.jpg
p733
sg21
F0.64163772435858846
sS'trials.thisTrialN'
p734
I58
sa(dp735
g31
g32
sg17
F211.85799622884952
sg24
I0
sg35
g39
sg14
F211.85314379865304
sg16
g36
(g70
S'\x02\x00\x00\x00'
tRp736
sg42
g43
sg46
g47
sg15
g72
sg22
F213.65771891316399
sg64
g170
sg62
g113
sg49
g50
sS'trials.thisN'
p737
I59
sg19
I1
sg27
g36
(g38
S'\x00\x00\x00\x00\x00\x00\x1a@'
tRp738
sg52
g53
sg23
S'2'
sg18
F213.09574623568915
sg33
g34
sg51
g11
sg20
S'2'
sg65
g36
(g77
S'\x00\x00\x00\x00\x00\x00\x00\x00'
tRp739
sg44
g45
sg40
g41
sg25
F0.16056769667193294
sS'trials.thisIndex'
p740
g36
(g80
S'\x19\x00\x00\x00'
tRp741
sg26
V5
sS'trials.thisRepN'
p742
I0
sg66
Vdrum
p743
sg63
V../experiment_stimuli/bw_bc_bl/Nonliving_Things/Musical_Inst/drum_14.jpg
p744
sg21
F0.5414049681276083
sS'trials.thisTrialN'
p745
I59
sa(dp746
g31
g32
sg17
F215.55625333590433
sg24
I0
sg35
g39
sg14
F215.55118170171045
sg16
g36
(g70
S'\x02\x00\x00\x00'
tRp747
sg42
g43
sg46
g47
sg15
g72
sg22
F217.12524724146351
sg64
g112
sg62
g113
sg49
g50
sS'trials.thisN'
p748
I60
sg19
I1
sg27
g36
(g38
S'\x00\x00\x00\x00\x00\x00\x1a@'
tRp749
sg52
g53
sg23
S'3'
sg18
F216.78376424475573
sg33
g34
sg51
g11
sg20
S'2'
sg65
g36
(g77
S'\x00\x00\x00\x00\x00\x00\x00\x00'
tRp750
sg44
g45
sg40
g41
sg25
F0.090420362772420049
sS'trials.thisIndex'
p751
g36
(g80
S'E\x00\x00\x00'
tRp752
sg26
V5
sS'trials.thisRepN'
p753
I0
sg66
Vrocking-chair
p754
sg63
V../experiment_stimuli/bw_bc_bl/Nonliving_Things/Furniture/rocking-chair_20.jpg
p755
sg21
F0.31090362602844834
sS'trials.thisTrialN'
p756
I60
sa(dp757
g31
g32
sg17
F218.95605738600716
sg24
I1
sg35
g39
sg14
F218.94856194476597
sg16
g36
(g70
S'\x02\x00\x00\x00'
tRp758
sg42
g43
sg46
g47
sg15
g72
sg22
F220.47238191845827
sg64
g296
sg62
g113
sg49
g50
sS'trials.thisN'
p759
I61
sg19
I1
sg27
g36
(g38
S'\x00\x00\x00\x00\x00\x00\x1a@'
tRp760
sg52
g53
sg23
S'1'
sg18
F220.18115585204214
sg33
g34
sg51
g11
sg20
S'2'
sg65
g36
(g77
S'\x00\x00\x00\x00\x00\x00\x00\x00'
tRp761
sg44
g45
sg40
g41
sg25
F0.070375619689002633
sS'trials.thisIndex'
p762
g36
(g80
S'\x1c\x00\x00\x00'
tRp763
sg26
V5
sS'trials.thisRepN'
p764
I0
sg66
Vfactory
p765
sg63
V../experiment_stimuli/bw_bc_bl/Nonliving_Things/Buildings/factory_2.jpg
p766
sg21
F0.27066135290078819
sS'trials.thisTrialN'
p767
I61
sa(dp768
g31
g32
sg17
F222.28088063793257
sg24
I0
sg35
g39
sg14
F222.27579470723867
sg16
g36
(g70
S'\x02\x00\x00\x00'
tRp769
sg42
g43
sg46
g47
sg15
g88
sg22
F224.06031066155992
sg64
g89
sg62
g74
sg49
g50
sS'trials.thisN'
p770
I62
sg19
I1
sg27
g36
(g38
S'\x00\x00\x00\x00\x00\x00\x18@'
tRp771
sg52
g53
sg23
S'3'
sg18
F223.53844511299394
sg33
g34
sg51
g11
sg20
S'2'
sg65
g36
(g77
S'\x00\x00\x00\x00\x00\x00\x00\x00'
tRp772
sg44
g45
sg40
g41
sg25
F0.11047420743852854
sS'trials.thisIndex'
p773
g36
(g80
S'\x04\x00\x00\x00'
tRp774
sg26
V5
sS'trials.thisRepN'
p775
I0
sg66
Vbarn-owl
p776
sg63
V../experiment_stimuli/bw_bc_bl/Living_Things/Birds/barn-owl_3.jpg
p777
sg21
F0.5013201585970819
sS'trials.thisTrialN'
p778
I62
sa(dp779
g31
g32
sg17
F225.90869670081884
sg24
I1
sg35
g39
sg14
F225.90369640430436
sg16
g36
(g70
S'\x01\x00\x00\x00'
tRp780
sg42
g43
sg46
g47
sg15
g88
sg22
F227.29735082108527
sg64
g112
sg62
g113
sg49
g50
sS'trials.thisN'
p781
I63
sg19
I0
sg27
g36
(g38
S'\x00\x00\x00\x00\x00\x00\x1c@'
tRp782
sg52
g53
sg23
S'1'
sg18
F227.13626969559118
sg33
g34
sg51
g11
sg20
S'2'
sg65
g36
(g77
S'\x00\x00\x00\x00\x00\x00\x00\x00'
tRp783
sg44
g45
sg40
g41
sg25
F0.15057743759825826
sS'trials.thisIndex'
p784
g36
(g80
S'\x0f\x00\x00\x00'
tRp785
sg26
V5
sS'trials.thisRepN'
p786
I0
sg66
Vchair
p787
sg63
V../experiment_stimuli/bw_bc_bl/Nonliving_Things/Furniture/chair_18.jpg
p788
sg21
F0.14053748338483274
sS'trials.thisTrialN'
p789
I63
sa(dp790
g31
g32
sg17
F229.1857374117244
sg24
I0
sg35
g39
sg14
F229.18080832832493
sg16
g36
(g70
S'\x02\x00\x00\x00'
tRp791
sg42
g43
sg46
g47
sg15
g72
sg22
F230.68472314323299
sg64
g182
sg62
g113
sg49
g50
sS'trials.thisN'
p792
I64
sg19
I0
sg27
g36
(g38
S'\x00\x00\x00\x00\x00\x00\x18@'
tRp793
sg52
g53
sg23
S'2'
sg18
F230.42341972375289
sg33
g34
sg51
g11
sg20
S'1'
sg65
g36
(g77
S'\x00\x00\x00\x00\x00\x00\x00\x00'
tRp794
sg44
g45
sg40
g41
sg25
F0.090409671189263463
sS'trials.thisIndex'
p795
g36
(g80
S'M\x00\x00\x00'
tRp796
sg26
V5
sS'trials.thisRepN'
p797
I0
sg66
Vsmall-saucepan
p798
sg63
V../experiment_stimuli/bw_bc_bl/Nonliving_Things/Kitchen_Uten/small-saucepan_11.jpg
p799
sg21
F0.2407533903606236
sS'trials.thisTrialN'
p800
I64
sa(dp801
g31
g32
sg17
F232.51419197977521
sg24
I0
sg35
g39
sg14
F232.50804464309476
sg16
g36
(g70
S'\x01\x00\x00\x00'
tRp802
sg42
g43
sg46
g47
sg15
g88
sg22
F233.89167654560879
sg64
g112
sg62
g113
sg49
g50
sS'trials.thisN'
p803
I65
sg19
I1
sg27
g36
(g38
S'\x00\x00\x00\x00\x00\x00\x1e@'
tRp804
sg52
g53
sg23
S'2'
sg18
F233.74062971654348
sg33
g34
sg51
g11
sg20
S'1'
sg65
g36
(g77
S'\x00\x00\x00\x00\x00\x00\x00\x00'
tRp805
sg44
g45
sg40
g41
sg25
F0.10044211032800376
sS'trials.thisIndex'
p806
g36
(g80
S'N\x00\x00\x00'
tRp807
sg26
V5
sS'trials.thisRepN'
p808
I0
sg66
Vsofa
p809
sg63
V../experiment_stimuli/bw_bc_bl/Nonliving_Things/Furniture/sofa_1.jpg
p810
sg21
F0.12048534979112446
sS'trials.thisTrialN'
p811
I65
sa(dp812
g31
g32
sg17
F235.7300449127797
sg24
I0
sg35
g39
sg14
F235.72503331536427
sg16
g36
(g70
S'\x01\x00\x00\x00'
tRp813
sg42
g43
sg46
g47
sg15
g88
sg22
F237.58972945972346
sg64
g170
sg62
g113
sg49
g50
sS'trials.thisN'
p814
I66
sg19
I1
sg27
g36
(g38
S'\x00\x00\x00\x00\x00\x00\x1a@'
tRp815
sg52
g53
sg23
S'3'
sg18
F236.96765106054954
sg33
g34
sg51
g11
sg20
S'1'
sg65
g36
(g77
S'\x00\x00\x00\x00\x00\x00\x00\x00'
tRp816
sg44
g45
sg40
g41
sg25
F0.17059680493548512
sS'trials.thisIndex'
p817
g36
(g80
S'>\x00\x00\x00'
tRp818
sg26
V5
sS'trials.thisRepN'
p819
I0
sg66
Vpiano
p820
sg63
V../experiment_stimuli/bw_bc_bl/Nonliving_Things/Musical_Inst/piano__6.jpg
p821
sg21
F0.60154221206903458
sS'trials.thisTrialN'
p822
I66
sa(dp823
g31
g32
sg17
F239.4983550386969
sg24
I0
sg35
g39
sg14
F239.4932354958728
sg16
g36
(g70
S'\x02\x00\x00\x00'
tRp824
sg42
g43
sg46
g47
sg15
g88
sg22
F240.90696553839371
sg64
g73
sg62
g74
sg49
g50
sS'trials.thisN'
p825
I67
sg19
I0
sg27
g36
(g38
S'\x00\x00\x00\x00\x00\x00\x18@'
tRp826
sg52
g53
sg23
S'2'
sg18
F240.72581448615529
sg33
g34
sg51
g11
sg20
S'1'
sg65
g36
(g77
S'\x00\x00\x00\x00\x00\x00\x00\x00'
tRp827
sg44
g45
sg40
g41
sg25
F0.12048326688818634
sS'trials.thisIndex'
p828
g36
(g80
S'\x10\x00\x00\x00'
tRp829
sg26
V5
sS'trials.thisRepN'
p830
I0
sg66
Vcheetah
p831
sg63
V../experiment_stimuli/bw_bc_bl/Living_Things/Animals/cheetah_4.jpg
p832
sg21
F0.16057258355431259
sS'trials.thisTrialN'
p833
I67
sa(dp834
g31
g32
sg17
F242.76664211158641
sg24
I0
sg35
g39
sg14
F242.76032469468191
sg16
g36
(g70
S'\x01\x00\x00\x00'
tRp835
sg42
g43
sg46
g47
sg15
g72
sg22
F244.14382883580402
sg64
g73
sg62
g74
sg49
g50
sS'trials.thisN'
p836
I68
sg19
I0
sg27
g36
(g38
S'\x00\x00\x00\x00\x00\x00\x18@'
tRp837
sg52
g53
sg23
S'2'
sg18
F244.00293997768313
sg33
g34
sg51
g11
sg20
S'2'
sg65
g36
(g77
S'\x00\x00\x00\x00\x00\x00\x00\x00'
tRp838
sg44
g45
sg40
g41
sg25
F0.18060860875993967
sS'trials.thisIndex'
p839
g36
(g80
S'\x01\x00\x00\x00'
tRp840
sg26
V5
sS'trials.thisRepN'
p841
I0
sg66
Varmadillo
p842
sg63
V../experiment_stimuli/bw_bc_bl/Living_Things/Animals/armadillo_24.jpg
p843
sg21
F0.12033765623345971
sS'trials.thisTrialN'
p844
I68
sa(dp845
g31
g32
sg17
F246.06244047847576
sg24
I1
sg35
g39
sg14
F246.05749712465331
sg16
g36
(g70
S'\x02\x00\x00\x00'
tRp846
sg42
g43
sg46
g47
sg15
g72
sg22
F247.64157262630761
sg64
g182
sg62
g113
sg49
g50
sS'trials.thisN'
p847
I69
sg19
I0
sg27
g36
(g38
S'\x00\x00\x00\x00\x00\x00\x1a@'
tRp848
sg52
g53
sg23
S'1'
sg18
F247.2900829911232
sg33
g34
sg51
g11
sg20
S'1'
sg65
g36
(g77
S'\x00\x00\x00\x00\x00\x00\x00\x00'
tRp849
sg44
g45
sg40
g41
sg25
F0.16057085827924311
sS'trials.thisIndex'
p850
g36
(g80
S'G\x00\x00\x00'
tRp851
sg26
V5
sS'trials.thisRepN'
p852
I0
sg66
Vsaucepan
p853
sg63
V../experiment_stimuli/bw_bc_bl/Nonliving_Things/Kitchen_Uten/saucepan_15.jpg
p854
sg21
F0.33094253507442772
sS'trials.thisTrialN'
p855
I69
sa(dp856
g31
g32
sg17
F249.54022825392894
sg24
I0
sg35
g39
sg14
F249.53505515540019
sg16
g36
(g70
S'\x02\x00\x00\x00'
tRp857
sg42
g43
sg46
g47
sg15
g72
sg22
F251.22936629620381
sg64
g170
sg62
g113
sg49
g50
sS'trials.thisN'
p858
I70
sg19
I1
sg27
g36
(g38
S'\x00\x00\x00\x00\x00\x00\x18@'
tRp859
sg52
g53
sg23
S'3'
sg18
F250.79770940658636
sg33
g34
sg51
g11
sg20
S'2'
sg65
g36
(g77
S'\x00\x00\x00\x00\x00\x00\x00\x00'
tRp860
sg44
g45
sg40
g41
sg25
F0.080395724391564727
sS'trials.thisIndex'
p861
g36
(g80
S'H\x00\x00\x00'
tRp862
sg26
V5
sS'trials.thisRepN'
p863
I0
sg66
Vsaxophone
p864
sg63
V../experiment_stimuli/bw_bc_bl/Nonliving_Things/Musical_Inst/saxophone_14.jpg
p865
sg21
F0.41112422477453947
sS'trials.thisTrialN'
p866
I70
sa(dp867
g31
g32
sg17
F253.04908677609637
sg24
I0
sg35
g39
sg14
F253.04267984582111
sg16
g36
(g70
S'\x01\x00\x00\x00'
tRp868
sg42
g43
sg46
g47
sg15
g72
sg22
F254.76706715743057
sg64
g89
sg62
g74
sg49
g50
sS'trials.thisN'
p869
I71
sg19
I1
sg27
g36
(g38
S'\x00\x00\x00\x00\x00\x00\x18@'
tRp870
sg52
g53
sg23
S'2'
sg18
F254.27526586595923
sg33
g34
sg51
g11
sg20
S'1'
sg65
g36
(g77
S'\x00\x00\x00\x00\x00\x00\x00\x00'
tRp871
sg44
g45
sg40
g41
sg25
F0.10043974942527711
sS'trials.thisIndex'
p872
g36
(g80
S'<\x00\x00\x00'
tRp873
sg26
V5
sS'trials.thisRepN'
p874
I0
sg66
Vpelican
p875
sg63
V../experiment_stimuli/bw_bc_bl/Living_Things/Birds/pelican_10.jpg
p876
sg21
F0.47124978085048497
sS'trials.thisTrialN'
p877
I71
sa(dp878
g31
g32
sg17
F256.60537313041277
sg24
I0
sg35
g39
sg14
F256.60041835205629
sg16
g36
(g70
S'\x01\x00\x00\x00'
tRp879
sg42
g43
sg46
g47
sg15
g88
sg22
F259.18670957931317
sg64
g182
sg62
g113
sg49
g50
sS'trials.thisN'
p880
I72
sg19
I1
sg27
g36
(g38
S'\x00\x00\x00\x00\x00\x00\x18@'
tRp881
sg52
g53
sg23
S'3'
sg18
F257.84302201843821
sg33
g34
sg51
g11
sg20
S'1'
sg65
g36
(g77
S'\x00\x00\x00\x00\x00\x00\x00\x00'
tRp882
sg44
g45
sg40
g41
sg25
F0.49128828337416053
sS'trials.thisIndex'
p883
g36
(g80
S'\x1f\x00\x00\x00'
tRp884
sg26
V5
sS'trials.thisRepN'
p885
I0
sg66
Vfrying-pan
p886
sg63
V../experiment_stimuli/bw_bc_bl/Nonliving_Things/Kitchen_Uten/frying-pan_9.jpg
p887
sg21
F1.3231204305775464
sS'trials.thisTrialN'
p888
I72
sa(dp889
g31
g32
sg17
F261.41587227443233
sg24
I1
sg35
g39
sg14
F261.41087551182136
sg16
g36
(g70
S'\x02\x00\x00\x00'
tRp890
sg42
g43
sg46
g47
sg15
g72
sg22
F262.76473315991461
sg64
g158
sg62
g113
sg49
g50
sS'trials.thisN'
p891
I73
sg19
I1
sg27
g36
(g38
S'\x00\x00\x00\x00\x00\x00\x18@'
tRp892
sg52
g53
sg23
S'1'
sg18
F262.64346393430606
sg33
g34
sg51
g11
sg20
S'2'
sg65
g36
(g77
S'\x00\x00\x00\x00\x00\x00\x00\x00'
tRp893
sg44
g45
sg40
g41
sg25
F0.1204969584941864
sS'trials.thisIndex'
p894
g36
(g80
S'[\x00\x00\x00'
tRp895
sg26
V5
sS'trials.thisRepN'
p896
I0
sg66
Vvan
p897
sg63
V../experiment_stimuli/bw_bc_bl/Nonliving_Things/Vehicles/van_14.jpg
p898
sg21
F0.10044682817533612
sS'trials.thisTrialN'
p899
I73
sa(dp900
g31
g32
sg17
F264.62432313640602
sg24
I1
sg35
g39
sg14
F264.6178566692397
sg16
g36
(g70
S'\x01\x00\x00\x00'
tRp901
sg42
g43
sg46
g47
sg15
g88
sg22
F266.392349624075
sg64
g112
sg62
g113
sg49
g50
sS'trials.thisN'
p902
I74
sg19
I1
sg27
g36
(g38
S'\x00\x00\x00\x00\x00\x00\x18@'
tRp903
sg52
g53
sg23
S'1'
sg18
F265.88049892103299
sg33
g34
sg51
g11
sg20
S'1'
sg65
g36
(g77
S'\x00\x00\x00\x00\x00\x00\x00\x00'
tRp904
sg44
g45
sg40
g41
sg25
F0.26078271982260048
sS'trials.thisIndex'
p905
g36
(g80
S'\x02\x00\x00\x00'
tRp906
sg26
V5
sS'trials.thisRepN'
p907
I0
sg66
Varmchair
p908
sg63
V../experiment_stimuli/bw_bc_bl/Nonliving_Things/Furniture/armchair_10.jpg
p909
sg21
F0.49129393021576107
sS'trials.thisTrialN'
p910
I74
sa(dp911
g31
g32
sg17
F268.39104942441918
sg24
I0
sg35
g39
sg14
F268.38603389868513
sg16
g36
(g70
S'\x02\x00\x00\x00'
tRp912
sg42
g43
sg46
g47
sg15
g88
sg22
F270.08018953446299
sg64
g73
sg62
g74
sg49
g50
sS'trials.thisN'
p913
I75
sg19
I1
sg27
g36
(g38
S'\x00\x00\x00\x00\x00\x00\x18@'
tRp914
sg52
g53
sg23
S'2'
sg18
F269.65870389412157
sg33
g34
sg51
g11
sg20
S'2'
sg65
g36
(g77
S'\x00\x00\x00\x00\x00\x00\x00\x00'
tRp915
sg44
g45
sg40
g41
sg25
F0.13052226603031158
sS'trials.thisIndex'
p916
g36
(g80
S'R\x00\x00\x00'
tRp917
sg26
V5
sS'trials.thisRepN'
p918
I0
sg66
Vtapir
p919
sg63
V../experiment_stimuli/bw_bc_bl/Living_Things/Animals/tapir_8.jpg
p920
sg21
F0.40093832556158304
sS'trials.thisTrialN'
p921
I75
sa(dp922
g31
g32
sg17
F271.95037578418851
sg24
I0
sg35
g39
sg14
F271.94376837508753
sg16
g36
(g70
S'\x02\x00\x00\x00'
tRp923
sg42
g43
sg46
g47
sg15
g88
sg22
F273.88862610072829
sg64
g73
sg62
g74
sg49
g50
sS'trials.thisN'
p924
I76
sg19
I1
sg27
g36
(g38
S'\x00\x00\x00\x00\x00\x00\x1c@'
tRp925
sg52
g53
sg23
S'3'
sg18
F273.20642052148469
sg33
g34
sg51
g11
sg20
S'2'
sg65
g36
(g77
S'\x00\x00\x00\x00\x00\x00\x00\x00'
tRp926
sg44
g45
sg40
g41
sg25
F0.12048184592276812
sS'trials.thisIndex'
p927
g36
(g80
S'_\x00\x00\x00'
tRp928
sg26
V5
sS'trials.thisRepN'
p929
I0
sg66
Vzebra
p930
sg63
V../experiment_stimuli/bw_bc_bl/Living_Things/Animals/zebra_20.jpg
p931
sg21
F0.66165921557694674
sS'trials.thisTrialN'
p932
I76
sa(dp933
g31
g32
sg17
F275.74717497220263
sg24
I0
sg35
g39
sg14
F275.74202307593077
sg16
g36
(g70
S'\x02\x00\x00\x00'
tRp934
sg42
g43
sg46
g47
sg15
g88
sg22
F277.23595090629533
sg64
g73
sg62
g74
sg49
g50
sS'trials.thisN'
p935
I77
sg19
I0
sg27
g36
(g38
S'\x00\x00\x00\x00\x00\x00\x1a@'
tRp936
sg52
g53
sg23
S'2'
sg18
F276.99465585825965
sg33
g34
sg51
g11
sg20
S'1'
sg65
g36
(g77
S'\x00\x00\x00\x00\x00\x00\x00\x00'
tRp937
sg44
g45
sg40
g41
sg25
F0.070369781693443656
sS'trials.thisIndex'
p938
g36
(g80
S'T\x00\x00\x00'
tRp939
sg26
V5
sS'trials.thisRepN'
p940
I0
sg66
Vtiger
p941
sg63
V../experiment_stimuli/bw_bc_bl/Living_Things/Animals/tiger_3.jpg
p942
sg21
F0.22072430909611285
sS'trials.thisTrialN'
p943
I77
sa(dp944
g31
g32
sg17
F279.04595440882258
sg24
I1
sg35
g39
sg14
F279.03920014505275
sg16
g36
(g70
S'\x01\x00\x00\x00'
tRp945
sg42
g43
sg46
g47
sg15
g72
sg22
F280.51306760846637
sg64
g73
sg62
g74
sg49
g50
sS'trials.thisN'
p946
I78
sg19
I0
sg27
g36
(g38
S'\x00\x00\x00\x00\x00\x00\x1e@'
tRp947
sg52
g53
sg23
S'1'
sg18
F280.27177488361485
sg33
g34
sg51
g11
sg20
S'2'
sg65
g36
(g77
S'\x00\x00\x00\x00\x00\x00\x00\x00'
tRp948
sg44
g45
sg40
g41
sg25
F0.10043826838955283
sS'trials.thisIndex'
p949
g36
(g80
S'\r\x00\x00\x00'
tRp950
sg26
V5
sS'trials.thisRepN'
p951
I0
sg66
Vcat
p952
sg63
V../experiment_stimuli/bw_bc_bl/Living_Things/Animals/cat_5.jpg
p953
sg21
F0.22071854933165014
sS'trials.thisTrialN'
p954
I78
sa(dp955
g31
g32
sg17
F282.35167477279902
sg24
I0
sg35
g39
sg14
F282.34639581106603
sg16
g36
(g70
S'\x01\x00\x00\x00'
tRp956
sg42
g43
sg46
g47
sg15
g88
sg22
F284.03070591483265
sg64
g296
sg62
g113
sg49
g50
sS'trials.thisN'
p957
I79
sg19
I0
sg27
g36
(g38
S'\x00\x00\x00\x00\x00\x00\x1c@'
tRp958
sg52
g53
sg23
S'3'
sg18
F283.58898970298469
sg33
g34
sg51
g11
sg20
S'2'
sg65
g36
(g77
S'\x00\x00\x00\x00\x00\x00\x00\x00'
tRp959
sg44
g45
sg40
g41
sg25
F0.020260863704606891
sS'trials.thisIndex'
p960
g36
(g80
S'5\x00\x00\x00'
tRp961
sg26
V5
sS'trials.thisRepN'
p962
I0
sg66
Vmill
p963
sg63
V../experiment_stimuli/bw_bc_bl/Nonliving_Things/Buildings/mill_20.jpg
p964
sg21
F0.42114548338577151
sS'trials.thisTrialN'
p965
I79
sa(dp966
g31
g32
sg17
F285.80059297289699
sg24
I0
sg35
g39
sg14
F285.79387546796352
sg16
g36
(g70
S'\x02\x00\x00\x00'
tRp967
sg42
g43
sg46
g47
sg15
g72
sg22
F287.7287619416602
sg64
g158
sg62
g113
sg49
g50
sS'trials.thisN'
p968
I80
sg19
I1
sg27
g36
(g38
S'\x00\x00\x00\x00\x00\x00\x18@'
tRp969
sg52
g53
sg23
S'3'
sg18
F287.03648412670009
sg33
g34
sg51
g11
sg20
S'2'
sg65
g36
(g77
S'\x00\x00\x00\x00\x00\x00\x00\x00'
tRp970
sg44
g45
sg40
g41
sg25
F0.060356684494763613
sS'trials.thisIndex'
p971
g36
(g80
S'\x0b\x00\x00\x00'
tRp972
sg26
V5
sS'trials.thisRepN'
p973
I0
sg66
Vcar
p974
sg63
V../experiment_stimuli/bw_bc_bl/Nonliving_Things/Vehicles/car_14.jpg
p975
sg21
F0.671706632245332
sS'trials.thisTrialN'
p976
I80
sa(dp977
g31
g32
sg17
F289.52872772328556
sg24
I1
sg35
g39
sg14
F289.52198406076059
sg16
g36
(g70
S'\x01\x00\x00\x00'
tRp978
sg42
g43
sg46
g47
sg15
g72
sg22
F291.01588161336258
sg64
g73
sg62
g74
sg49
g50
sS'trials.thisN'
p979
I81
sg19
I0
sg27
g36
(g38
S'\x00\x00\x00\x00\x00\x00\x1c@'
tRp980
sg52
g53
sg23
S'1'
sg18
F290.75456888205372
sg33
g34
sg51
g11
sg20
S'2'
sg65
g36
(g77
S'\x00\x00\x00\x00\x00\x00\x00\x00'
tRp981
sg44
g45
sg40
g41
sg25
F0.070371725363656878
sS'trials.thisIndex'
p982
g36
(g80
S'\x1b\x00\x00\x00'
tRp983
sg26
V5
sS'trials.thisRepN'
p984
I0
sg66
Velephant
p985
sg63
V../experiment_stimuli/bw_bc_bl/Living_Things/Animals/elephant_2.jpg
p986
sg21
F0.24076350312680006
sS'trials.thisTrialN'
p987
I81
sa(dp988
g31
g32
sg17
F292.82441934337839
sg24
I0
sg35
g39
sg14
F292.8191545882728
sg16
g36
(g70
S'\x02\x00\x00\x00'
tRp989
sg42
g43
sg46
g47
sg15
g88
sg22
F294.21282828692347
sg64
g89
sg62
g74
sg49
g50
sS'trials.thisN'
p990
I82
sg19
I0
sg27
g36
(g38
S'\x00\x00\x00\x00\x00\x00\x18@'
tRp991
sg52
g53
sg23
S'2'
sg18
F294.07178073539399
sg33
g34
sg51
g11
sg20
S'1'
sg65
g36
(g77
S'\x00\x00\x00\x00\x00\x00\x00\x00'
tRp992
sg44
g45
sg40
g41
sg25
F0.080391408875584602
sS'trials.thisIndex'
p993
g36
(g80
S'J\x00\x00\x00'
tRp994
sg26
V5
sS'trials.thisRepN'
p995
I0
sg66
Vseagull
p996
sg63
V../experiment_stimuli/bw_bc_bl/Living_Things/Birds/seagull_19.jpg
p997
sg21
F0.12048973701894283
sS'trials.thisTrialN'
p998
I82
sa(dp999
g31
g32
sg17
F296.03147389111109
sg24
I0
sg35
g39
sg14
F296.02611891925335
sg16
g36
(g70
S'\x01\x00\x00\x00'
tRp1000
sg42
g43
sg46
g47
sg15
g72
sg22
F297.75051916670054
sg64
g89
sg62
g74
sg49
g50
sS'trials.thisN'
p1001
I83
sg19
I0
sg27
g36
(g38
S'\x00\x00\x00\x00\x00\x00\x1e@'
tRp1002
sg52
g53
sg23
S'2'
sg18
F297.26872554025613
sg33
g34
sg51
g11
sg20
S'2'
sg65
g36
(g77
S'\x00\x00\x00\x00\x00\x00\x00\x00'
tRp1003
sg44
g45
sg40
g41
sg25
F0.34080930706113577
sS'trials.thisIndex'
p1004
g36
(g80
S'!\x00\x00\x00'
tRp1005
sg26
V5
sS'trials.thisRepN'
p1006
I0
sg66
Vgoldfinch
p1007
sg63
V../experiment_stimuli/bw_bc_bl/Living_Things/Birds/goldfinch_13.jpg
p1008
sg21
F0.46122475899755955
sS'trials.thisTrialN'
p1009
I83
sa(dp1010
g31
g32
sg17
F299.82976508396678
sg24
I1
sg35
g39
sg14
F299.82438058243133
sg16
g36
(g70
S'\x01\x00\x00\x00'
tRp1011
sg42
g43
sg46
g47
sg15
g88
sg22
F301.13786133890972
sg64
g273
sg62
g113
sg49
g50
sS'trials.thisN'
p1012
I84
sg19
I1
sg27
g36
(g38
S'\x00\x00\x00\x00\x00\x00\x1c@'
tRp1013
sg52
g53
sg23
S'1'
sg18
F301.05696365935728
sg33
g34
sg51
g11
sg20
S'1'
sg65
g36
(g77
S'\x00\x00\x00\x00\x00\x00\x00\x00'
tRp1014
sg44
g45
sg40
g41
sg25
F0.1705918803345412
sS'trials.thisIndex'
p1015
g36
(g80
S'\x03\x00\x00\x00'
tRp1016
sg26
V5
sS'trials.thisRepN'
p1017
I0
sg66
Vaxe
p1018
sg63
V../experiment_stimuli/bw_bc_bl/Nonliving_Things/Tools/axe_26.jpg
p1019
sg21
F0.060355586698278785
sS'trials.thisTrialN'
p1020
I84
sa(dp1021
g31
g32
sg17
F303.05677366163582
sg24
I0
sg35
g39
sg14
F303.05138937034644
sg16
g36
(g70
S'\x01\x00\x00\x00'
tRp1022
sg42
g43
sg46
g47
sg15
g72
sg22
F304.85596786090173
sg64
g89
sg62
g74
sg49
g50
sS'trials.thisN'
p1023
I85
sg19
I1
sg27
g36
(g38
S'\x00\x00\x00\x00\x00\x00\x18@'
tRp1024
sg52
g53
sg23
S'3'
sg18
F304.30402211891487
sg33
g34
sg51
g11
sg20
S'1'
sg65
g36
(g77
S'\x00\x00\x00\x00\x00\x00\x00\x00'
tRp1025
sg44
g45
sg40
g41
sg25
F0.18061362789012492
sS'trials.thisIndex'
p1026
g36
(g80
S'&\x00\x00\x00'
tRp1027
sg26
V5
sS'trials.thisRepN'
p1028
I0
sg66
Vhen
p1029
sg63
V../experiment_stimuli/bw_bc_bl/Living_Things/Birds/hen_26.jpg
p1030
sg21
F0.53138922806829214
sS'trials.thisTrialN'
p1031
I85
sa(dp1032
g31
g32
sg17
F306.77476756088436
sg24
I0
sg35
g39
sg14
F306.76947688520886
sg16
g36
(g70
S'\x02\x00\x00\x00'
tRp1033
sg42
g43
sg46
g47
sg15
g88
sg22
F308.31348382518627
sg64
g89
sg62
g74
sg49
g50
sS'trials.thisN'
p1034
I86
sg19
I0
sg27
g36
(g38
S'\x00\x00\x00\x00\x00\x00\x18@'
tRp1035
sg52
g53
sg23
S'2'
sg18
F308.00206133793108
sg33
g34
sg51
g11
sg20
S'1'
sg65
g36
(g77
S'\x00\x00\x00\x00\x00\x00\x00\x00'
tRp1036
sg44
g45
sg40
g41
sg25
F0.080407961271703243
sS'trials.thisIndex'
p1037
g36
(g80
S',\x00\x00\x00'
tRp1038
sg26
V5
sS'trials.thisRepN'
p1039
I0
sg66
Vkiwi
p1040
sg63
V../experiment_stimuli/bw_bc_bl/Living_Things/Birds/kiwi_5.jpg
p1041
sg21
F0.29085621796548367
sS'trials.thisTrialN'
p1042
I86
sa(dp1043
g31
g32
sg17
F310.13216261309572
sg24
I1
sg35
g39
sg14
F310.12677774694748
sg16
g36
(g70
S'\x02\x00\x00\x00'
tRp1044
sg42
g43
sg46
g47
sg15
g72
sg22
F311.48035128647462
sg64
g112
sg62
g113
sg49
g50
sS'trials.thisN'
p1045
I87
sg19
I1
sg27
g36
(g38
S'\x00\x00\x00\x00\x00\x00\x1a@'
tRp1046
sg52
g53
sg23
S'1'
sg18
F311.35936410585418
sg33
g34
sg51
g11
sg20
S'2'
sg65
g36
(g77
S'\x00\x00\x00\x00\x00\x00\x00\x00'
tRp1047
sg44
g45
sg40
g41
sg25
F0.11030479217879474
sS'trials.thisIndex'
p1048
g36
(g80
S'\x08\x00\x00\x00'
tRp1049
sg26
V5
sS'trials.thisRepN'
p1050
I0
sg66
Vbookcase
p1051
sg63
V../experiment_stimuli/bw_bc_bl/Nonliving_Things/Furniture/bookcase_22.jpg
p1052
sg21
F0.10044939583167434
sS'trials.thisTrialN'
p1053
I87
sa(dp1054
g31
g32
sg17
F313.32908837730065
sg24
I1
sg35
g39
sg14
F313.3237271537073
sg16
g36
(g70
S'\x02\x00\x00\x00'
tRp1055
sg42
g43
sg46
g47
sg15
g72
sg22
F314.86771737970412
sg64
g182
sg62
g113
sg49
g50
sS'trials.thisN'
p1056
I88
sg19
I0
sg27
g36
(g38
S'\x00\x00\x00\x00\x00\x00\x1a@'
tRp1057
sg52
g53
sg23
S'1'
sg18
F314.56633256422356
sg33
g34
sg51
g11
sg20
S'1'
sg65
g36
(g77
S'\x00\x00\x00\x00\x00\x00\x00\x00'
tRp1058
sg44
g45
sg40
g41
sg25
F0.17058071470819414
sS'trials.thisIndex'
p1059
g36
(g80
S'\x1e\x00\x00\x00'
tRp1060
sg26
V5
sS'trials.thisRepN'
p1061
I0
sg66
Vfondue
p1062
sg63
V../experiment_stimuli/bw_bc_bl/Nonliving_Things/Kitchen_Uten/fondue_9.jpg
p1063
sg21
F0.28083863575011492
sS'trials.thisTrialN'
p1064
I88
sa(dp1065
g31
g32
sg17
F316.77674689260311
sg24
I0
sg35
g39
sg14
F316.77121873525903
sg16
g36
(g70
S'\x01\x00\x00\x00'
tRp1066
sg42
g43
sg46
g47
sg15
g72
sg22
F318.49561509536579
sg64
g216
sg62
g74
sg49
g50
sS'trials.thisN'
p1067
I89
sg19
I1
sg27
g36
(g38
S'\x00\x00\x00\x00\x00\x00\x1a@'
tRp1068
sg52
g53
sg23
S'3'
sg18
F318.03386833239347
sg33
g34
sg51
g11
sg20
S'1'
sg65
g36
(g77
S'\x00\x00\x00\x00\x00\x00\x00\x00'
tRp1069
sg44
g45
sg40
g41
sg25
F0.15054527996107936
sS'trials.thisIndex'
p1070
g36
(g80
S'\x15\x00\x00\x00'
tRp1071
sg26
V5
sS'trials.thisRepN'
p1072
I0
sg66
Vcrab
p1073
sg63
V../experiment_stimuli/bw_bc_bl/Living_Things/Marine_creatures/crab_0.jpg
p1074
sg21
F0.44119820767082274
sS'trials.thisTrialN'
p1075
I89
sa(dp1076
g31
g32
sg17
F320.3845243442338
sg24
I0
sg35
g39
sg14
F320.37906305049546
sg16
g36
(g70
S'\x02\x00\x00\x00'
tRp1077
sg42
g43
sg46
g47
sg15
g88
sg22
F321.79276432632469
sg64
g73
sg62
g74
sg49
g50
sS'trials.thisN'
p1078
I90
sg19
I0
sg27
g36
(g38
S'\x00\x00\x00\x00\x00\x00\x18@'
tRp1079
sg52
g53
sg23
S'2'
sg18
F321.62168023525737
sg33
g34
sg51
g11
sg20
S'1'
sg65
g36
(g77
S'\x00\x00\x00\x00\x00\x00\x00\x00'
tRp1080
sg44
g45
sg40
g41
sg25
F0.11030943924561143
sS'trials.thisIndex'
p1081
g36
(g80
S'Z\x00\x00\x00'
tRp1082
sg26
V5
sS'trials.thisRepN'
p1083
I0
sg66
Vturtle
p1084
sg63
V../experiment_stimuli/bw_bc_bl/Living_Things/Animals/turtle_8.jpg
p1085
sg21
F0.15055360714904964
sS'trials.thisTrialN'
p1086
I90
sa(dp1087
g31
g32
sg17
F323.64161778776906
sg24
I1
sg35
g39
sg14
F323.63613655441441
sg16
g36
(g70
S'\x01\x00\x00\x00'
tRp1088
sg42
g43
sg46
g47
sg15
g88
sg22
F325.12002199073322
sg64
g182
sg62
g113
sg49
g50
sS'trials.thisN'
p1089
I91
sg19
I0
sg27
g36
(g38
S'\x00\x00\x00\x00\x00\x00\x1c@'
tRp1090
sg52
g53
sg23
S'1'
sg18
F324.86872730404139
sg33
g34
sg51
g11
sg20
S'2'
sg65
g36
(g77
S'\x00\x00\x00\x00\x00\x00\x00\x00'
tRp1091
sg44
g45
sg40
g41
sg25
F0.090418276377022266
sS'trials.thisIndex'
p1092
g36
(g80
S'B\x00\x00\x00'
tRp1093
sg26
V5
sS'trials.thisRepN'
p1094
I0
sg66
Vpot
p1095
sg63
V../experiment_stimuli/bw_bc_bl/Nonliving_Things/Kitchen_Uten/pot_1.jpg
p1096
sg21
F0.2307449399959296
sS'trials.thisTrialN'
p1097
I91
sa(dp1098
g31
g32
sg17
F326.95052381278947
sg24
I0
sg35
g39
sg14
F326.94333089725114
sg16
g36
(g70
S'\x02\x00\x00\x00'
tRp1099
sg42
g43
sg46
g47
sg15
g72
sg22
F328.54730896698311
sg64
g158
sg62
g113
sg49
g50
sS'trials.thisN'
p1100
I92
sg19
I1
sg27
g36
(g38
S'\x00\x00\x00\x00\x00\x00 @'
tRp1101
sg52
g53
sg23
S'2'
sg18
F328.19596067559905
sg33
g34
sg51
g11
sg20
S'2'
sg65
g36
(g77
S'\x00\x00\x00\x00\x00\x00\x00\x00'
tRp1102
sg44
g45
sg40
g41
sg25
F0.15054376539774239
sS'trials.thisIndex'
p1103
g36
(g80
S'@\x00\x00\x00'
tRp1104
sg26
V5
sS'trials.thisRepN'
p1105
I0
sg66
Vplane
p1106
sg63
V../experiment_stimuli/bw_bc_bl/Nonliving_Things/Vehicles/plane_20.jpg
p1107
sg21
F0.33078239415772259
sS'trials.thisTrialN'
p1108
I92
sa(dp1109
g31
g32
sg17
F330.43650864367373
sg24
I1
sg35
g39
sg14
F330.43092476157472
sg16
g36
(g70
S'\x01\x00\x00\x00'
tRp1110
sg42
g43
sg46
g47
sg15
g72
sg22
F331.74443195783533
sg64
g73
sg62
g74
sg49
g50
sS'trials.thisN'
p1111
I93
sg19
I0
sg27
g36
(g38
S'\x00\x00\x00\x00\x00\x00\x1a@'
tRp1112
sg52
g53
sg23
S'1'
sg18
F331.66349503025413
sg33
g34
sg51
g11
sg20
S'2'
sg65
g36
(g77
S'\x00\x00\x00\x00\x00\x00\x00\x00'
tRp1113
sg44
g45
sg40
g41
sg25
F0.080235662870109081
sS'trials.thisIndex'
p1114
g36
(g80
S'2\x00\x00\x00'
tRp1115
sg26
V5
sS'trials.thisRepN'
p1116
I0
sg66
Vlynx
p1117
sg63
V../experiment_stimuli/bw_bc_bl/Living_Things/Animals/lynx_17.jpg
p1118
sg21
F0.060360255651175976
sS'trials.thisTrialN'
p1119
I93
sa(dp1120
g31
g32
sg17
F333.5632589654997
sg24
I0
sg35
g39
sg14
F333.55771449604072
sg16
g36
(g70
S'\x01\x00\x00\x00'
tRp1121
sg42
g43
sg46
g47
sg15
g88
sg22
F335.43242467753589
sg64
g158
sg62
g113
sg49
g50
sS'trials.thisN'
p1122
I94
sg19
I1
sg27
g36
(g38
S'\x00\x00\x00\x00\x00\x00\x1c@'
tRp1123
sg52
g53
sg23
S'2'
sg18
F334.8203663979657
sg33
g34
sg51
g11
sg20
S'1'
sg65
g36
(g77
S'\x00\x00\x00\x00\x00\x00\x00\x00'
tRp1124
sg44
g45
sg40
g41
sg25
F0.070394134614616632
sS'trials.thisIndex'
p1125
g36
(g80
S'\x07\x00\x00\x00'
tRp1126
sg26
V5
sS'trials.thisRepN'
p1127
I0
sg66
Vboat
p1128
sg63
V../experiment_stimuli/bw_bc_bl/Nonliving_Things/Vehicles/boat_11.jpg
p1129
sg21
F0.5915210023522377
sS'trials.thisTrialN'
p1130
I94
sa(dp1131
g31
g32
sg17
F337.24128344864585
sg24
I0
sg35
g39
sg14
F337.23570258868858
sg16
g36
(g70
S'\x02\x00\x00\x00'
tRp1132
sg42
g43
sg46
g47
sg15
g72
sg22
F338.93001049291342
sg64
g170
sg62
g113
sg49
g50
sS'trials.thisN'
p1133
I95
sg19
I1
sg27
g36
(g38
S'\x00\x00\x00\x00\x00\x00\x18@'
tRp1134
sg52
g53
sg23
S'3'
sg18
F338.48833170183934
sg33
g34
sg51
g11
sg20
S'2'
sg65
g36
(g77
S'\x00\x00\x00\x00\x00\x00\x00\x00'
tRp1135
sg44
g45
sg40
g41
sg25
F0.14052335591986775
sS'trials.thisIndex'
p1136
g36
(g80
S'\\\x00\x00\x00'
tRp1137
sg26
V5
sS'trials.thisRepN'
p1138
I0
sg66
Vviolin
p1139
sg63
V../experiment_stimuli/bw_bc_bl/Nonliving_Things/Musical_Inst/violin_8.jpg
p1140
sg21
F0.42113988590426743
sS'trials.thisTrialN'
p1141
I95
sasS'loops'
p1142
(lp1143
g1
(cpsychopy.data
TrialHandler
p1144
g3
NtRp1145
(dp1146
S'origin'
p1147
NsS'thisTrial'
p1148
(lp1149
sS'_exp'
p1150
I97292560
sg10
S'trials'
p1151
sg6
I-1
sS'thisRepN'
p1152
I1
sg28
I01
sg29
g30
sS'data'
p1153
g1
(cpsychopy.data
DataHandler
p1154
c__builtin__
dict
p1155
(dp1156
g20
cnumpy.core.multiarray
_reconstruct
p1157
(cnumpy
ndarray
p1158
(I0
tS'b'
tRp1159
(I1
(I96
I1
tg37
(S'O4'
I0
I1
tRp1160
(I3
S'|'
NNNI-1
I-1
I63
tbI00
(lp1161
S'1'
aS'2'
aS'1'
aS'1'
aS'2'
aS'2'
aS'1'
aS'1'
aS'2'
aS'1'
aS'2'
aS'2'
aS'1'
aS'2'
aS'2'
aS'2'
aS'1'
aS'1'
aS'2'
aS'1'
aS'1'
aS'1'
aS'2'
aS'1'
aS'2'
aS'2'
aS'1'
aS'2'
aS'2'
aS'2'
aS'1'
aS'1'
aS'1'
aS'2'
aS'1'
aS'2'
aS'2'
aS'2'
aS'1'
aS'2'
aS'1'
aS'2'
aS'2'
aS'1'
aS'1'
aS'2'
aS'1'
aS'1'
aS'1'
aS'1'
aS'2'
aS'1'
aS'2'
aS'2'
aS'2'
aS'2'
aS'2'
aS'2'
aS'1'
aS'2'
aS'1'
aS'1'
aS'1'
aS'2'
aS'2'
aS'2'
aS'2'
aS'2'
aS'2'
aS'2'
aS'2'
aS'1'
aS'2'
aS'1'
aS'1'
aS'2'
aS'2'
aS'1'
aS'1'
aS'1'
aS'1'
aS'2'
aS'2'
aS'2'
aS'1'
aS'1'
aS'1'
aS'2'
aS'1'
aS'1'
aS'1'
aS'2'
aS'2'
aS'2'
aS'2'
aS'2'
atbsg17
cnumpy.ma.core
_mareconstruct
p1162
(cnumpy.ma.core
MaskedArray
p1163
g1158
(I0
tp1164
S'b'
tRp1165
(I1
(I96
I1
tg37
(S'f4'
I0
I1
tRp1166
(I3
S'<'
NNNI-1
I-1
I0
tbI00
S"\xbe\xe8\xb3BC\xc4rC\xeaO\x84C6\xea\x95C\xe8G^C\r\x07gA\x7f\xcb\x08C\x19\xc8\xa6C\xeb\x10\x9bC\xad!\xadBC\x7f\xc1Bz\xe6\x8eCt%)C\xe2\x85\x8bC\xa2\n\xbbB\xa0\xe8aC\x94\x7foC\xf5\xff\x8aB\xd9s\x0bBQ\xfaEC\n4\x0cClc\x9eC\x9f\xfe'B}\xd1\xe5B\xea\xc0:C\xa6\xdbSC5\x83,C\xad\xc3\x90C\xc0\xf4ZCT\x87\x8eA \xaa\x9cC}M\x80C\xb9\xe76C\x07\x04\x94C%\xe4\x0fC\xaa\xd2LC\x89 \xfcA\x8d~zBD\x87\x97C\xc7U\x1aCDi\xc6A\xe7\xf4\x16C\xf9?BC\xe1v5B,c\x99C{\x99\xdeB\xa6w\xfcB\x1f*\xd7B\xd9qo@\xb9\x07\xedB\xe07\xa5C\xef\x19.A2\xe9/C\x04-\x8dC\x04\x19!C\x10\x8c\x9fB\xaa\x87\xd0B\xb4\x80>C\xb8<\x05C\xbe\xac\xea@\x91\x0c}C- \xf4B\xe4\xbakC{g\x84B\xaby\xa3C\xf4`3C!\xd2\xa1C\xef\xe8\x01C\xfe&\xc9Bg\x8eWCD\x90PB\xfc\x0fvCL\x8ayC\x13\xc6BB\x87i\x92C\x8a\xf8\x1dC\x812\xe1A\x8c/eC\xa2\x83hC\x8a\x82\xaaA\x83+PC\xff\x8bIC\x0e2\x86C?\x14\xa6B\xa3\xdf\x89C>\xd6_B\x97[\x13Cmw\x98Bb\xd9\x19B\x84\xaf$C81\xa0C;\xb5\x82C\xe2\x9e\xa8C\xa7bmB\xac\xa1\x91B\xa6\xf9\x87C"
S'\x00\x00\x00\x00\x00\x00\x00\x00\x00\x00\x00\x00\x00\x00\x00\x00\x00\x00\x00\x00\x00\x00\x00\x00\x00\x00\x00\x00\x00\x00\x00\x00\x00\x00\x00\x00\x00\x00\x00\x00\x00\x00\x00\x00\x00\x00\x00\x00\x00\x00\x00\x00\x00\x00\x00\x00\x00\x00\x00\x00\x00\x00\x00\x00\x00\x00\x00\x00\x00\x00\x00\x00\x00\x00\x00\x00\x00\x00\x00\x00\x00\x00\x00\x00\x00\x00\x00\x00\x00\x00\x00\x00\x00\x00\x00\x00'
NtbsS'ran'
p1167
g1162
(g1163
g1158
g1164
S'b'
tRp1168
(I1
(I96
I1
tg1166
I00
S'\x00\x00\x80?\x00\x00\x80?\x00\x00\x80?\x00\x00\x80?\x00\x00\x80?\x00\x00\x80?\x00\x00\x80?\x00\x00\x80?\x00\x00\x80?\x00\x00\x80?\x00\x00\x80?\x00\x00\x80?\x00\x00\x80?\x00\x00\x80?\x00\x00\x80?\x00\x00\x80?\x00\x00\x80?\x00\x00\x80?\x00\x00\x80?\x00\x00\x80?\x00\x00\x80?\x00\x00\x80?\x00\x00\x80?\x00\x00\x80?\x00\x00\x80?\x00\x00\x80?\x00\x00\x80?\x00\x00\x80?\x00\x00\x80?\x00\x00\x80?\x00\x00\x80?\x00\x00\x80?\x00\x00\x80?\x00\x00\x80?\x00\x00\x80?\x00\x00\x80?\x00\x00\x80?\x00\x00\x80?\x00\x00\x80?\x00\x00\x80?\x00\x00\x80?\x00\x00\x80?\x00\x00\x80?\x00\x00\x80?\x00\x00\x80?\x00\x00\x80?\x00\x00\x80?\x00\x00\x80?\x00\x00\x80?\x00\x00\x80?\x00\x00\x80?\x00\x00\x80?\x00\x00\x80?\x00\x00\x80?\x00\x00\x80?\x00\x00\x80?\x00\x00\x80?\x00\x00\x80?\x00\x00\x80?\x00\x00\x80?\x00\x00\x80?\x00\x00\x80?\x00\x00\x80?\x00\x00\x80?\x00\x00\x80?\x00\x00\x80?\x00\x00\x80?\x00\x00\x80?\x00\x00\x80?\x00\x00\x80?\x00\x00\x80?\x00\x00\x80?\x00\x00\x80?\x00\x00\x80?\x00\x00\x80?\x00\x00\x80?\x00\x00\x80?\x00\x00\x80?\x00\x00\x80?\x00\x00\x80?\x00\x00\x80?\x00\x00\x80?\x00\x00\x80?\x00\x00\x80?\x00\x00\x80?\x00\x00\x80?\x00\x00\x80?\x00\x00\x80?\x00\x00\x80?\x00\x00\x80?\x00\x00\x80?\x00\x00\x80?\x00\x00\x80?\x00\x00\x80?\x00\x00\x80?\x00\x00\x80?'
S'\x00\x00\x00\x00\x00\x00\x00\x00\x00\x00\x00\x00\x00\x00\x00\x00\x00\x00\x00\x00\x00\x00\x00\x00\x00\x00\x00\x00\x00\x00\x00\x00\x00\x00\x00\x00\x00\x00\x00\x00\x00\x00\x00\x00\x00\x00\x00\x00\x00\x00\x00\x00\x00\x00\x00\x00\x00\x00\x00\x00\x00\x00\x00\x00\x00\x00\x00\x00\x00\x00\x00\x00\x00\x00\x00\x00\x00\x00\x00\x00\x00\x00\x00\x00\x00\x00\x00\x00\x00\x00\x00\x00\x00\x00\x00\x00'
Ntbsg24
g1162
(g1163
g1158
g1164
S'b'
tRp1169
(I1
(I96
I1
tg1166
I00
S'\x00\x00\x80?\x00\x00\x00\x00\x00\x00\x80?\x00\x00\x80?\x00\x00\x00\x00\x00\x00\x80?\x00\x00\x00\x00\x00\x00\x00\x00\x00\x00\x80?\x00\x00\x00\x00\x00\x00\x00\x00\x00\x00\x00\x00\x00\x00\x00\x00\x00\x00\x80?\x00\x00\x80?\x00\x00\x80?\x00\x00\x00\x00\x00\x00\x00\x00\x00\x00\x00\x00\x00\x00\x00\x00\x00\x00\x00\x00\x00\x00\x00\x00\x00\x00\x80?\x00\x00\x00\x00\x00\x00\x00\x00\x00\x00\x00\x00\x00\x00\x80?\x00\x00\x80?\x00\x00\x80?\x00\x00\x00\x00\x00\x00\x80?\x00\x00\x00\x00\x00\x00\x80?\x00\x00\x00\x00\x00\x00\x80?\x00\x00\x80?\x00\x00\x00\x00\x00\x00\x00\x00\x00\x00\x00\x00\x00\x00\x00\x00\x00\x00\x00\x00\x00\x00\x80?\x00\x00\x00\x00\x00\x00\x80?\x00\x00\x00\x00\x00\x00\x80?\x00\x00\x00\x00\x00\x00\x00\x00\x00\x00\x00\x00\x00\x00\x00\x00\x00\x00\x80?\x00\x00\x00\x00\x00\x00\x00\x00\x00\x00\x00\x00\x00\x00\x00\x00\x00\x00\x80?\x00\x00\x80?\x00\x00\x00\x00\x00\x00\x00\x00\x00\x00\x00\x00\x00\x00\x00\x00\x00\x00\x80?\x00\x00\x00\x00\x00\x00\x80?\x00\x00\x00\x00\x00\x00\x80?\x00\x00\x80?\x00\x00\x80?\x00\x00\x00\x00\x00\x00\x00\x00\x00\x00\x00\x00\x00\x00\x80?\x00\x00\x00\x00\x00\x00\x00\x00\x00\x00\x00\x00\x00\x00\x80?\x00\x00\x80?\x00\x00\x00\x00\x00\x00\x00\x00\x00\x00\x00\x00\x00\x00\x00\x00\x00\x00\x80?\x00\x00\x00\x00\x00\x00\x00\x00\x00\x00\x00\x00\x00\x00\x80?\x00\x00\x00\x00\x00\x00\x00\x00\x00\x00\x00\x00\x00\x00\x00\x00\x00\x00\x00\x00\x00\x00\x80?\x00\x00\x00\x00\x00\x00\x00\x00\x00\x00\x80?\x00\x00\x00\x00'
S'\x00\x00\x00\x00\x00\x00\x00\x00\x00\x00\x00\x00\x00\x00\x00\x00\x00\x00\x00\x00\x00\x00\x00\x00\x00\x00\x00\x00\x00\x00\x00\x00\x00\x00\x00\x00\x00\x00\x00\x00\x00\x00\x00\x00\x00\x00\x00\x00\x00\x00\x00\x00\x00\x00\x00\x00\x00\x00\x00\x00\x00\x00\x00\x00\x00\x00\x00\x00\x00\x00\x00\x00\x00\x00\x00\x00\x00\x00\x00\x00\x00\x00\x00\x00\x00\x00\x00\x00\x00\x00\x00\x00\x00\x00\x00\x00'
Ntbsg14
g1162
(g1163
g1158
g1164
S'b'
tRp1170
(I1
(I96
I1
tg1166
I00
S"s\xe5\xb3B\xa5\xc2rC\x16O\x84C\x85\xe9\x95C\x9aF^C\xa4\xf1fA=\xca\x08Cc\xc7\xa6C:\x10\x9bC\x1e\x1f\xadB_|\xc1B\x9e\xe5\x8eC\xea#)C\x05\x85\x8bC%\x08\xbbBY\xe7aCE~oC\xc6\xfc\x8aB\xffn\x0bB\x15\xf9EC\x872\x0cC\xb7b\x9eC\xc1\xf9'B\x06\xce\xe5B\xa2\xbf:Ch\xdaSC\xf3\x81,C\xd0\xc2\x90C\xd5\xf2ZC\x9d}\x8eAp\xa9\x9cC\xdbL\x80Cs\xe66CX\x03\x94C\xa9\xe2\x0fC`\xd1LC\xc8\x16\xfcA\x94yzB\x94\x86\x97C\xfeS\x1aCI_\xc6Ad\xf3\x16C\xaf>BC\xe5q5B~b\x99C\xce\x96\xdeB:t\xfcB%'\xd7B\x0b n@=\x05\xedB)7\xa5C(\x05.A\xae\xe7/CW,\x8dC\xc1\x17!C2\x88\x9fB\xbe\x84\xd0B)\x7f>Ct;\x05C|\x83\xea@\xed\n}C\xaa\x1d\xf4B\x9c\xb9kC\x9fd\x84B\xbfx\xa3C^_3Cm\xd1\xa1C\xae\xe7\x01Cy$\xc9B\x1a\x8dWC=\x8bPB\xb8\x0evC\xf9\x88yC\xfb\xc0BB\xdah\x92CL\xf7\x1dC\x7f&\xe1AI.eC\x0f\x82hC\xb7x\xaaAE*PCm\x8aICj1\x86C\xf3\x10\xa6B\xfb\xde\x89C'\xd1_BZZ\x13C\xe6t\x98B)\xd3\x19B<\xae$C\x850\xa0C\x98\xb4\x82C,\x9e\xa8C\xcf]mB-\x9f\x91B\xcd\xf8\x87C"
S'\x00\x00\x00\x00\x00\x00\x00\x00\x00\x00\x00\x00\x00\x00\x00\x00\x00\x00\x00\x00\x00\x00\x00\x00\x00\x00\x00\x00\x00\x00\x00\x00\x00\x00\x00\x00\x00\x00\x00\x00\x00\x00\x00\x00\x00\x00\x00\x00\x00\x00\x00\x00\x00\x00\x00\x00\x00\x00\x00\x00\x00\x00\x00\x00\x00\x00\x00\x00\x00\x00\x00\x00\x00\x00\x00\x00\x00\x00\x00\x00\x00\x00\x00\x00\x00\x00\x00\x00\x00\x00\x00\x00\x00\x00\x00\x00'
Ntbsg16
g1157
(g1158
(I0
tS'b'
tRp1171
(I1
(I96
I1
tg1160
I00
(lp1172
g362
ag835
ag901
ag1011
ag769
ag111
ag505
ag1121
ag1044
ag351
ag384
ag967
ag604
ag945
ag373
ag780
ag824
ag295
ag181
ag692
ag516
ag1066
ag204
ag439
ag659
ag736
ag615
ag978
ag758
ag124
ag1055
ag879
ag648
ag1000
ag527
ag714
ag169
ag272
ag1022
ag560
ag146
ag549
ag681
ag215
ag1033
ag428
ag472
ag417
ag71
ag450
ag1110
ag100
ag626
ag956
ag582
ag329
ag406
ag670
ag494
ag87
ag868
ag461
ag813
ag284
ag1099
ag637
ag1088
ag483
ag395
ag747
ag239
ag846
ag857
ag227
ag989
ag571
ag157
ag791
ag802
ag135
ag725
ag703
ag912
ag340
ag934
ag250
ag538
ag318
ag193
ag593
ag1077
ag890
ag1132
ag261
ag307
ag923
atbsg15
g1157
(g1158
(I0
tS'b'
tRp1173
(I1
(I96
I1
tg1160
I00
(lp1174
g72
ag72
ag88
ag88
ag88
ag72
ag72
ag88
ag72
ag72
ag88
ag72
ag72
ag72
ag72
ag88
ag88
ag72
ag72
ag88
ag72
ag72
ag72
ag88
ag88
ag72
ag72
ag72
ag72
ag72
ag72
ag88
ag88
ag72
ag72
ag72
ag88
ag72
ag72
ag88
ag72
ag88
ag88
ag72
ag88
ag88
ag88
ag88
ag72
ag72
ag72
ag88
ag72
ag88
ag72
ag88
ag72
ag72
ag88
ag88
ag72
ag72
ag88
ag72
ag72
ag88
ag88
ag72
ag88
ag72
ag88
ag72
ag72
ag88
ag88
ag72
ag88
ag72
ag88
ag72
ag72
ag72
ag88
ag72
ag88
ag88
ag88
ag72
ag88
ag88
ag88
ag72
ag72
ag88
ag88
ag88
atbsg22
g1162
(g1163
g1158
g1164
S'b'
tRp1175
(I1
(I96
I1
tg1166
I00
S'U\xe2\xb6B\xd2$tC92\x85C\xa5\x91\x96Cq\x0f`C\xf1\xce\x7fA4]\nCZ\xb7\xa7C|\xbd\x9bC\x840\xb0B\xd8\xa2\xc5BH\xdd\x8fC-\xaf*C\xacA\x8cCP\xc2\xbdB\x1fLcC/\xe8pCJ\x13\x8eB\x91s\x12B\x0b\xb5GC\xe4\x0f\x0eCp?\x9fC\x101.B\x18o\xe9B\x16\xb4<C`\xa8UC\t\xdf-C\x08\x82\x91C\xeex\\Ceg\x9bA\x11o\x9dC\xe6\x97\x81C\x11\x938C\x11\xe0\x94CZY\x11C\xf0TNCp8\x04BI\xa0\x80B\x90m\x98Ce\x1f\x1cC\xe4\xa4\xd2A\x16|\x18C%3DC~\xa8:B (\x9aCm\xff\xe1Bc\x00\x00C\x04\xe7\xdaB\x17-\xb0@\xca\x91\xf0BJ\xdf\xa5Cr@JA\x15x1C\xee\x03\x8eCJ\xe8"C\x8bp\xa2B\x9b\x81\xd3BcW@Cw\xf7\x06C\xbe\x86\x10A_\xc4~C\xc3H\xf7B\xf9\x96mC=W\x87B\x0eF\xa4C\x1d\x115C]\x8f\xa2C\x14x\x03C\x10\xda\xccB\x10 YCJgXB>\xa4wC\xb8:{C\xe7^IB>\x1b\x93CdT\x1fC\xa6\xbe\xedAJ\xaffCE\xe4iC\xd0\xf1\xb7Aw\x14RC\x9e\xfeJCD\n\x87C\x99y\xa9B4\x9e\x8aC1\xd5eBS(\x15Cf\xd8\x9bB\xbe\xd7 BI\x93&Cy\xe5\xa0C\xe3a\x83C\x0bw\xa9C\xba\xc7rB\xd5\xba\x94B\xbf\xf1\x88C'
S'\x00\x00\x00\x00\x00\x00\x00\x00\x00\x00\x00\x00\x00\x00\x00\x00\x00\x00\x00\x00\x00\x00\x00\x00\x00\x00\x00\x00\x00\x00\x00\x00\x00\x00\x00\x00\x00\x00\x00\x00\x00\x00\x00\x00\x00\x00\x00\x00\x00\x00\x00\x00\x00\x00\x00\x00\x00\x00\x00\x00\x00\x00\x00\x00\x00\x00\x00\x00\x00\x00\x00\x00\x00\x00\x00\x00\x00\x00\x00\x00\x00\x00\x00\x00\x00\x00\x00\x00\x00\x00\x00\x00\x00\x00\x00\x00'
Ntbsg26
g1157
(g1158
(I0
tS'b'
tRp1176
(I1
(I96
I1
tg1160
I00
(lp1177
I1
aI1
ag36
(g80
S'\x04\x00\x00\x00'
tRp1178
ag36
(g80
S'\x01\x00\x00\x00'
tRp1179
ag36
(g80
S'\x04\x00\x00\x00'
tRp1180
aI1
ag36
(g80
S'\x03\x00\x00\x00'
tRp1181
ag36
(g80
S'\x04\x00\x00\x00'
tRp1182
aI1
ag36
(g80
S'\x01\x00\x00\x00'
tRp1183
ag36
(g80
S'\x05\x00\x00\x00'
tRp1184
aI1
aI1
ag36
(g80
S'\x01\x00\x00\x00'
tRp1185
ag36
(g80
S'\x03\x00\x00\x00'
tRp1186
ag36
(g80
S'\x01\x00\x00\x00'
tRp1187
aI1
ag36
(g80
S'\x02\x00\x00\x00'
tRp1188
aI1
ag36
(g80
S'\x02\x00\x00\x00'
tRp1189
ag36
(g80
S'\x02\x00\x00\x00'
tRp1190
ag36
(g80
S'\x04\x00\x00\x00'
tRp1191
aI1
ag36
(g80
S'\x03\x00\x00\x00'
tRp1192
ag36
(g80
S'\x06\x00\x00\x00'
tRp1193
ag36
(g80
S'\x02\x00\x00\x00'
tRp1194
aI1
aI1
aI1
ag36
(g80
S'\x04\x00\x00\x00'
tRp1195
ag36
(g80
S'\x02\x00\x00\x00'
tRp1196
aI1
ag36
(g80
S'\x03\x00\x00\x00'
tRp1197
ag36
(g80
S'\x02\x00\x00\x00'
tRp1198
ag36
(g80
S'\x01\x00\x00\x00'
tRp1199
ag36
(g80
S'\x02\x00\x00\x00'
tRp1200
ag36
(g80
S'\x02\x00\x00\x00'
tRp1201
ag36
(g80
S'\x01\x00\x00\x00'
tRp1202
ag36
(g80
S'\x03\x00\x00\x00'
tRp1203
ag36
(g80
S'\x04\x00\x00\x00'
tRp1204
ag36
(g80
S'\x02\x00\x00\x00'
tRp1205
ag36
(g80
S'\x01\x00\x00\x00'
tRp1206
ag36
(g80
S'\x03\x00\x00\x00'
tRp1207
ag36
(g80
S'\x04\x00\x00\x00'
tRp1208
aI1
ag36
(g80
S'\x02\x00\x00\x00'
tRp1209
ag36
(g80
S'\x04\x00\x00\x00'
tRp1210
ag36
(g80
S'\x03\x00\x00\x00'
tRp1211
aS'5.0'
p1212
ag36
(g80
S'\x02\x00\x00\x00'
tRp1213
ag36
(g80
S'\x01\x00\x00\x00'
tRp1214
ag36
(g80
S'\x01\x00\x00\x00'
tRp1215
ag36
(g80
S'\x03\x00\x00\x00'
tRp1216
ag36
(g80
S'\x02\x00\x00\x00'
tRp1217
ag36
(g80
S'\x02\x00\x00\x00'
tRp1218
ag36
(g80
S'\x01\x00\x00\x00'
tRp1219
aI1
ag36
(g80
S'\x04\x00\x00\x00'
tRp1220
ag36
(g80
S'\x04\x00\x00\x00'
tRp1221
aS'4.0'
p1222
ag36
(g80
S'\x01\x00\x00\x00'
tRp1223
ag36
(g80
S'\x01\x00\x00\x00'
tRp1224
aI1
aI1
ag36
(g80
S'\x02\x00\x00\x00'
tRp1225
ag36
(g80
S'\x02\x00\x00\x00'
tRp1226
ag36
(g80
S'\x01\x00\x00\x00'
tRp1227
ag36
(g80
S'\x01\x00\x00\x00'
tRp1228
ag36
(g80
S'\x02\x00\x00\x00'
tRp1229
ag36
(g80
S'\x01\x00\x00\x00'
tRp1230
ag36
(g80
S'\x04\x00\x00\x00'
tRp1231
aI1
ag36
(g80
S'\x04\x00\x00\x00'
tRp1232
ag36
(g80
S'\x05\x00\x00\x00'
tRp1233
ag36
(g80
S'\x03\x00\x00\x00'
tRp1234
ag36
(g80
S'\x01\x00\x00\x00'
tRp1235
ag36
(g80
S'\x01\x00\x00\x00'
tRp1236
ag36
(g80
S'\x02\x00\x00\x00'
tRp1237
ag36
(g80
S'\x01\x00\x00\x00'
tRp1238
ag36
(g80
S'\x03\x00\x00\x00'
tRp1239
ag36
(g80
S'\x03\x00\x00\x00'
tRp1240
ag36
(g80
S'\x01\x00\x00\x00'
tRp1241
ag36
(g80
S'\x05\x00\x00\x00'
tRp1242
ag36
(g80
S'\x04\x00\x00\x00'
tRp1243
ag36
(g80
S'\x02\x00\x00\x00'
tRp1244
ag36
(g80
S'\x01\x00\x00\x00'
tRp1245
ag36
(g80
S'\x03\x00\x00\x00'
tRp1246
ag36
(g80
S'\x03\x00\x00\x00'
tRp1247
aI1
aI1
ag36
(g80
S'\x02\x00\x00\x00'
tRp1248
aI1
ag36
(g80
S'\x03\x00\x00\x00'
tRp1249
ag36
(g80
S'\x02\x00\x00\x00'
tRp1250
ag36
(g80
S'\x01\x00\x00\x00'
tRp1251
ag36
(g80
S'\x04\x00\x00\x00'
tRp1252
atbsg21
g1162
(g1163
g1158
g1164
S'b'
tRp1253
(I1
(I96
I1
tg1166
I00
S'\x05\x88v>\x97s\xf6=\xe1\x8a\xfb>k7w=\x85V\x00?\xa4\x0e\x9a>\\\r\x9a>\xecm\x17?j\xb8\xcd=\xd4\xc9\x8f>k,H?\xf7\xf4+?\x08\xeb\x94>\x0b\x04b>\x89\xa7\xa4=\x0f\xe9\x0f>$m$>x\xc9\x8f>\x17W\x00?\xa12\xf1>e\xfe\x19?\xbb\xe4\xe1>\xa6\r\x9a>{\x99\n?\x18\xd2&?\x84\x99\n?pA\xe2=\xb5\x8av> \x94\x8a>Vr\xa9>\x15\xca\x8f>\x03\\\xa9?\x85]\xcd>\xa7%\xec>q\x92W>-f\x80>3\xca\x8f>\x1b\xe3\xe1> \t\x08?0\xe7\x02?\x97\xab\x8a>C\xc9\x8f>\xd0\x85.?\xcb\xbc\xa4<\x1b\xeb\x94>p\xe3\xe1>M\x8b\xfb>>\x00\x1a?]I\xf1>3\xe8\x02?Q<w=*\xe7\x02?\xab\xed\x94>a\xa0\xd7>\xfa)\r?\x17zM>\xc5\x87v> \xbb\x0f?B\x06\xe7>0\x9f\xd7>\xa7G\xf1>\x89|\xa9>\xac\xfe\x19?7\x04b>O\\\xa9>\xc4\xc0\xdc>gHl>^1\x9f>\x95m\x17?\xc3.\x9f>{\x84.?Mq\xa9>\xe0~\xd2>*\xd6\xb8>S\xc3\xf6=\x93D\xe2=tl\xa4>\x0f\x88v>\x06\xc1\xf6=\xbfh\xd2>_B$?\x7f\x91M>\xcaG\xcd>>\xa2\xd7>\x8e\x05b>\xfeg\x80>\xc5\t\x08?\xdf\xa0\xd7>bV\x00?N@$?\xba*\x1a>\x11\xb7\xcd=\xa6\x9f\xd7>\xc7\xdb\xb8=\x04\r\x9a>\x80b)?'
S'\x00\x00\x00\x00\x00\x00\x00\x00\x00\x00\x00\x00\x00\x00\x00\x00\x00\x00\x00\x00\x00\x00\x00\x00\x00\x00\x00\x00\x00\x00\x00\x00\x00\x00\x00\x00\x00\x00\x00\x00\x00\x00\x00\x00\x00\x00\x00\x00\x00\x00\x00\x00\x00\x00\x00\x00\x00\x00\x00\x00\x00\x00\x00\x00\x00\x00\x00\x00\x00\x00\x00\x00\x00\x00\x00\x00\x00\x00\x00\x00\x00\x00\x00\x00\x00\x00\x00\x00\x00\x00\x00\x00\x00\x00\x00\x00'
NtbsS'order'
p1254
g1162
(g1163
g1158
g1164
S'b'
tRp1255
(I1
(I96
I1
tg1166
I00
S'\x00\x00\xc8A\x00\x00\x88B\x00\x00\x94B\x00\x00\xa8B\x00\x00xB\x00\x00@@\x00\x00\x18B\x00\x00\xbcB\x00\x00\xaeB\x00\x00\xc0A\x00\x00\xd8A\x00\x00\xa0B\x00\x00<B\x00\x00\x9cB\x00\x00\xd0A\x00\x00|B\x00\x00\x86B\x00\x00\x98A\x00\x00\x10A\x00\x00\\B\x00\x00\x1cB\x00\x00\xb2B\x00\x000A\x00\x00\x00B\x00\x00PB\x00\x00lB\x00\x00@B\x00\x00\xa2B\x00\x00tB\x00\x00\x80@\x00\x00\xb0B\x00\x00\x90B\x00\x00LB\x00\x00\xa6B\x00\x00 B\x00\x00dB\x00\x00\x00A\x00\x00\x88A\x00\x00\xaaB\x00\x00,B\x00\x00\xc0@\x00\x00(B\x00\x00XB\x00\x00@A\x00\x00\xacB\x00\x00\xf8A\x00\x00\x0cB\x00\x00\xf0A\x00\x00\x00\x00\x00\x00\x04B\x00\x00\xbaB\x00\x00\x00@\x00\x00DB\x00\x00\x9eB\x00\x004B\x00\x00\xb0A\x00\x00\xe8A\x00\x00TB\x00\x00\x14B\x00\x00\x80?\x00\x00\x8eB\x00\x00\x08B\x00\x00\x84B\x00\x00\x90A\x00\x00\xb8B\x00\x00HB\x00\x00\xb6B\x00\x00\x10B\x00\x00\xe0A\x00\x00pB\x00\x00`A\x00\x00\x8aB\x00\x00\x8cB\x00\x00PA\x00\x00\xa4B\x00\x000B\x00\x00\xe0@\x00\x00\x80B\x00\x00\x82B\x00\x00\xa0@\x00\x00hB\x00\x00`B\x00\x00\x96B\x00\x00\xb8A\x00\x00\x9aB\x00\x00pA\x00\x00$B\x00\x00\xa8A\x00\x00 A\x00\x008B\x00\x00\xb4B\x00\x00\x92B\x00\x00\xbeB\x00\x00\x80A\x00\x00\xa0A\x00\x00\x98B'
S'\x00\x00\x00\x00\x00\x00\x00\x00\x00\x00\x00\x00\x00\x00\x00\x00\x00\x00\x00\x00\x00\x00\x00\x00\x00\x00\x00\x00\x00\x00\x00\x00\x00\x00\x00\x00\x00\x00\x00\x00\x00\x00\x00\x00\x00\x00\x00\x00\x00\x00\x00\x00\x00\x00\x00\x00\x00\x00\x00\x00\x00\x00\x00\x00\x00\x00\x00\x00\x00\x00\x00\x00\x00\x00\x00\x00\x00\x00\x00\x00\x00\x00\x00\x00\x00\x00\x00\x00\x00\x00\x00\x00\x00\x00\x00\x00'
Ntbsg19
g1162
(g1163
g1158
g1164
S'b'
tRp1256
(I1
(I96
I1
tg1166
I00
S'\x00\x00\x00\x00\x00\x00\x00\x00\x00\x00\x80?\x00\x00\x80?\x00\x00\x80?\x00\x00\x80?\x00\x00\x00\x00\x00\x00\x80?\x00\x00\x80?\x00\x00\x00\x00\x00\x00\x80?\x00\x00\x80?\x00\x00\x00\x00\x00\x00\x00\x00\x00\x00\x80?\x00\x00\x00\x00\x00\x00\x00\x00\x00\x00\x00\x00\x00\x00\x80?\x00\x00\x80?\x00\x00\x80?\x00\x00\x80?\x00\x00\x80?\x00\x00\x00\x00\x00\x00\x80?\x00\x00\x80?\x00\x00\x80?\x00\x00\x00\x00\x00\x00\x80?\x00\x00\x80?\x00\x00\x00\x00\x00\x00\x80?\x00\x00\x00\x00\x00\x00\x00\x00\x00\x00\x80?\x00\x00\x80?\x00\x00\x00\x00\x00\x00\x80?\x00\x00\x80?\x00\x00\x80?\x00\x00\x80?\x00\x00\x00\x00\x00\x00\x80?\x00\x00\x80?\x00\x00\x00\x00\x00\x00\x80?\x00\x00\x80?\x00\x00\x80?\x00\x00\x80?\x00\x00\x80?\x00\x00\x00\x00\x00\x00\x00\x00\x00\x00\x00\x00\x00\x00\x00\x00\x00\x00\x80?\x00\x00\x80?\x00\x00\x00\x00\x00\x00\x00\x00\x00\x00\x80?\x00\x00\x80?\x00\x00\x80?\x00\x00\x80?\x00\x00\x80?\x00\x00\x00\x00\x00\x00\x80?\x00\x00\x80?\x00\x00\x00\x00\x00\x00\x00\x00\x00\x00\x80?\x00\x00\x80?\x00\x00\x80?\x00\x00\x00\x00\x00\x00\x80?\x00\x00\x00\x00\x00\x00\x00\x00\x00\x00\x00\x00\x00\x00\x00\x00\x00\x00\x00\x00\x00\x00\x80?\x00\x00\x80?\x00\x00\x80?\x00\x00\x80?\x00\x00\x80?\x00\x00\x80?\x00\x00\x00\x00\x00\x00\x00\x00\x00\x00\x80?\x00\x00\x80?\x00\x00\x80?\x00\x00\x80?\x00\x00\x00\x00\x00\x00\x80?\x00\x00\x80?\x00\x00\x00\x00\x00\x00\x80?\x00\x00\x80?'
S'\x00\x00\x00\x00\x00\x00\x00\x00\x00\x00\x00\x00\x00\x00\x00\x00\x00\x00\x00\x00\x00\x00\x00\x00\x00\x00\x00\x00\x00\x00\x00\x00\x00\x00\x00\x00\x00\x00\x00\x00\x00\x00\x00\x00\x00\x00\x00\x00\x00\x00\x00\x00\x00\x00\x00\x00\x00\x00\x00\x00\x00\x00\x00\x00\x00\x00\x00\x00\x00\x00\x00\x00\x00\x00\x00\x00\x00\x00\x00\x00\x00\x00\x00\x00\x00\x00\x00\x00\x00\x00\x00\x00\x00\x00\x00\x00'
Ntbsg27
g1157
(g1158
(I0
tS'b'
tRp1257
(I1
(I96
I1
tg1160
I00
(lp1258
g364
ag837
ag903
ag1013
ag771
ag115
ag507
ag1123
ag1046
ag353
ag386
ag969
ag606
ag947
ag375
ag782
ag826
ag298
ag184
ag694
ag518
ag1068
ag206
ag441
ag661
ag738
ag617
ag980
ag760
ag126
ag1057
ag881
ag650
ag1002
ag529
ag716
ag172
ag275
ag1024
ag562
ag148
ag551
ag683
ag218
ag1035
ag430
ag474
ag419
ag76
ag452
ag1112
ag102
ag628
ag958
ag584
ag331
ag408
ag672
ag496
ag91
ag870
ag463
ag815
ag286
ag1101
ag639
ag1090
ag485
ag397
ag749
ag241
ag848
ag859
ag230
ag991
ag573
ag160
ag793
ag804
ag137
ag727
ag705
ag914
ag342
ag936
ag252
ag540
ag320
ag195
ag595
ag1079
ag892
ag1134
ag263
ag309
ag925
atbsg23
g1157
(g1158
(I0
tS'b'
tRp1259
(I1
(I96
I1
tg1160
I00
(lp1260
S'1'
aS'2'
aS'1'
aS'1'
aS'3'
aS'1'
aS'2'
aS'2'
aS'1'
aS'2'
aS'3'
aS'3'
aS'2'
aS'1'
aS'1'
aS'1'
aS'2'
aS'2'
aS'3'
aS'2'
aS'2'
aS'3'
aS'1'
aS'2'
aS'3'
aS'2'
aS'1'
aS'1'
aS'1'
aS'2'
aS'1'
aS'3'
aS'1'
aS'2'
aS'1'
aS'1'
aS'3'
aS'2'
aS'3'
aS'3'
aS'2'
aS'1'
aS'2'
aS'1'
aS'2'
aS'1'
aS'3'
aS'2'
aS'2'
aS'2'
aS'1'
aS'2'
aS'2'
aS'3'
aS'3'
aS'1'
aS'1'
aS'2'
aS'2'
aS'3'
aS'2'
aS'1'
aS'3'
aS'1'
aS'2'
aS'1'
aS'1'
aS'1'
aS'3'
aS'3'
aS'3'
aS'1'
aS'3'
aS'2'
aS'2'
aS'1'
aS'1'
aS'2'
aS'2'
aS'2'
aS'2'
aS'1'
aS'2'
aS'3'
aS'2'
aS'1'
aS'3'
aS'3'
aS'2'
aS'3'
aS'2'
aS'1'
aS'3'
aS'2'
aS'1'
aS'3'
atbsg18
g1162
(g1163
g1158
g1164
S'b'
tRp1261
(I1
(I96
I1
tg1166
I00
S'\x89\\\xb6B\xc1\x00tC\xb4\xf0\x84CK\x87\x96C\xd8\x89_CJ\xaazA\xe7\n\nC\x02i\xa7C\x00\xae\x9bC4\x96\xafB\xfa\x07\xc4B\xac\x84\x8fCu_*C\xca"\x8cC\xbf\x89\xbdB\xe3"cC\xcf\xb9pC\xfax\x8dB\']\x10B07GC\xa3p\rCV\x04\x9fC\xeb\xe7,B]O\xe8B\x00\x08<C\x83\x18UC~\xbd-C\x96`\x91C`.\\C\x86\x97\x98A~H\x9dC\xe8\xeb\x80C \'8Cf\xa2\x94C4\x1e\x11Cz\x0fNC\xcf\x03\x03B\xbfg\x7fB\xea&\x98C;\x97\x1bC"P\xd0A\xef.\x18C\\\x7fCC\xd8~:BD\x00\x9aC\x05\x13\xe1B\xb6\xfa\xfeB~\xa8\xd9B\xdf\x1b\xa0@t\x81\xefB\xed\xd4\xa5C\xd7\xbdAAZ(1Cd\xcb\x8dC\xddU"CG\xff\xa1B\xd1\xfb\xd2Bf\xc2?C\xb1~\x06C\x89u\tAxF~C\xc0\x94\xf6B\xb8\xf7lC\xb2\xdb\x86B\x15\x19\xa4Cz\x9d4C2o\xa2C9#\x03C\xaf\xa0\xcbB\xa5\xc8XC*\x98UBCJwC7\xcczC3\xd8GB0\t\x93C\xd62\x1fC\xd2\x02\xebAelfC\x9a\xbdiC\x14~\xb4A\xf2jQC\xf7\xc5JCP\xd4\x86Cn\x97\xa8BQ\x7f\x8aCP\xbfdB\x06\x9b\x14C>\xf6\x9aBT\xc1\x1eB\xc6\xe9%C\x93\xcf\xa0C]R\x83C\x82>\xa9C=VrBB\x16\x94Bl\x9a\x88C'
S'\x00\x00\x00\x00\x00\x00\x00\x00\x00\x00\x00\x00\x00\x00\x00\x00\x00\x00\x00\x00\x00\x00\x00\x00\x00\x00\x00\x00\x00\x00\x00\x00\x00\x00\x00\x00\x00\x00\x00\x00\x00\x00\x00\x00\x00\x00\x00\x00\x00\x00\x00\x00\x00\x00\x00\x00\x00\x00\x00\x00\x00\x00\x00\x00\x00\x00\x00\x00\x00\x00\x00\x00\x00\x00\x00\x00\x00\x00\x00\x00\x00\x00\x00\x00\x00\x00\x00\x00\x00\x00\x00\x00\x00\x00\x00\x00'
Ntbsg25
g1162
(g1163
g1158
g1164
S'b'
tRp1262
(I1
(I96
I1
tg1166
I00
S"]\x92\xae>w\xf18>P\x85\x85>\xa3\xaf.>M@\xe2=\x91.\xb9=2\xb6\xcd=\xcd*\x90={\xe7\xe1=\x80\xc8\xf6=\x1d\x0e\xa6<\x928w=B(\xb9=\x94\xb2\xcd=#\xa3\x05>\xf90\x1a>\xee\xbf\xf6=\xcc\x1a%=\xf9\xe9\xe1=D\xb3\xcd=\x00+\xb9=\x8b(\x1a>K\xa6\xa4=%5w=^3w=\xdck$>\x92\x0b\x9a>\r\x1f\x90=\x18!\x90=\xe1'\x1a>\xb6\xac.>#\x8a\xfb>\xdd\xe2\xe1>\x8f~\xae>2\xa7\x8a>T\xbb\xcd=\xf3\x1e\x90=F)\x1a>\xc7\xf28>B7\xe2=\xa2V\xa4=\x07\xe7\xe1=\xafH%=\xf0\xec\x94>\xee\xac\xa4='\xad.>s\xb0.>\x009\xe2=;2\xb9=\xa0\x1a%=\x98R\xa4=\xeb0w=\xad\xae.>\x1c\xfa\xa5<!/%=$R\xa4=\xd10\xb9=(\xae.>\xfd*\xb9=\xafB\xe2=[\xb3\xcd=\x83!Z?\xee\xb0.>$3\xb9=%(\x1a>{\xb3\xcd=8-\xb9=\xe6\x17\xf8<\xef\xb2\xcd=P.\xb9=\xd5\xca\xf6=\xb0l$>\x83\xa6\xa4=\x0f/w=@\xa4\xa4=f'\xf8<\x1e1w=\xb5(\xb9=\x98\xb4\xcd=\xa5\x1e\x90=N\x16%=@(\xb9=\xa1\xa7\x05>C4\xb9=\x08\x1e\x90=2)\x1a>,2w=\xa6:\xe2=\xc6\xe5O='\x00U?\xea\xe9\xe1=\x1c\xc7\xf6=[\xe5\x0f>\x988C>\x19\xa3\x05>0\xbf\xf6="
S'\x00\x00\x00\x00\x00\x00\x00\x00\x00\x00\x00\x00\x00\x00\x00\x00\x00\x00\x00\x00\x00\x00\x00\x00\x00\x00\x00\x00\x00\x00\x00\x00\x00\x00\x00\x00\x00\x00\x00\x00\x00\x00\x00\x00\x00\x00\x00\x00\x00\x00\x00\x00\x00\x00\x00\x00\x00\x00\x00\x00\x00\x00\x00\x00\x00\x00\x00\x00\x00\x00\x00\x00\x00\x00\x00\x00\x00\x00\x00\x00\x00\x00\x00\x00\x00\x00\x00\x00\x00\x00\x00\x00\x00\x00\x00\x00'
NtbstRp1263
(dp1264
S'isNumeric'
p1265
(dp1266
g23
I00
sg20
I00
sg17
I01
sg1167
I01
sg22
I01
sg24
I01
sg14
I01
sg18
I01
sg16
I00
sg19
I01
sg26
I00
sg27
I00
sg15
I00
sg21
I01
sg1254
I01
sg25
I01
ssg1151
g1145
sS'dataTypes'
p1267
(lp1268
g1167
ag1254
ag14
ag15
ag16
ag17
ag18
ag19
ag20
ag21
ag22
ag23
ag24
ag25
ag26
ag27
asS'dataShape'
p1269
(lp1270
I96
aI1
asbsS'method'
p1271
S'random'
p1272
sS'sequenceIndices'
p1273
g1157
(g1158
(I0
tS'b'
tRp1274
(I1
(I96
I1
tg80
I01
S'0\x00\x00\x00;\x00\x00\x003\x00\x00\x00\x05\x00\x00\x00\x1d\x00\x00\x00O\x00\x00\x00(\x00\x00\x00L\x00\x00\x00$\x00\x00\x00\x12\x00\x00\x00X\x00\x00\x00\x16\x00\x00\x00+\x00\x00\x00I\x00\x00\x00F\x00\x00\x00U\x00\x00\x00]\x00\x00\x00%\x00\x00\x00?\x00\x00\x00\x11\x00\x00\x00^\x00\x00\x00W\x00\x00\x007\x00\x00\x00S\x00\x00\x00\t\x00\x00\x00\x00\x00\x00\x00\x0e\x00\x00\x00\n\x00\x00\x00D\x00\x00\x008\x00\x00\x00/\x00\x00\x00-\x00\x00\x00\x17\x00\x00\x001\x00\x00\x00=\x00\x00\x00.\x00\x00\x00C\x00\x00\x00:\x00\x00\x00\x06\x00\x00\x00\x14\x00\x00\x00"\x00\x00\x00V\x00\x00\x00)\x00\x00\x00\'\x00\x00\x00K\x00\x00\x006\x00\x00\x00Y\x00\x00\x00\x0c\x00\x00\x00\x1a\x00\x00\x004\x00\x00\x00A\x00\x00\x00 \x00\x00\x00\x18\x00\x00\x009\x00\x00\x00*\x00\x00\x00\x13\x00\x00\x00Q\x00\x00\x00#\x00\x00\x00P\x00\x00\x00\x19\x00\x00\x00E\x00\x00\x00\x1c\x00\x00\x00\x04\x00\x00\x00\x0f\x00\x00\x00M\x00\x00\x00N\x00\x00\x00>\x00\x00\x00\x10\x00\x00\x00\x01\x00\x00\x00G\x00\x00\x00H\x00\x00\x00<\x00\x00\x00\x1f\x00\x00\x00[\x00\x00\x00\x02\x00\x00\x00R\x00\x00\x00_\x00\x00\x00T\x00\x00\x00\r\x00\x00\x005\x00\x00\x00\x0b\x00\x00\x00\x1b\x00\x00\x00J\x00\x00\x00!\x00\x00\x00\x03\x00\x00\x00&\x00\x00\x00,\x00\x00\x00\x08\x00\x00\x00\x1e\x00\x00\x00\x15\x00\x00\x00Z\x00\x00\x00B\x00\x00\x00@\x00\x00\x002\x00\x00\x00\x07\x00\x00\x00\\\x00\x00\x00'
tbsS'finished'
p1275
I01
sS'nReps'
p1276
I1
sS'nRemaining'
p1277
I-1
sS'trialList'
p1278
(lp1279
g1
(cpsychopy.data
TrialType
p1280
g1155
(dp1281
g62
g113
sg63
g370
sg64
g112
sg65
g365
sg66
g369
stRp1282
ag1
(g1280
g1155
(dp1283
g62
g74
sg63
g843
sg64
g73
sg65
g838
sg66
g842
stRp1284
ag1
(g1280
g1155
(dp1285
g62
g113
sg63
g909
sg64
g112
sg65
g904
sg66
g908
stRp1286
ag1
(g1280
g1155
(dp1287
g62
g113
sg63
g1019
sg64
g273
sg65
g1014
sg66
g1018
stRp1288
ag1
(g1280
g1155
(dp1289
g62
g74
sg63
g777
sg64
g89
sg65
g772
sg66
g776
stRp1290
ag1
(g1280
g1155
(dp1291
g62
g113
sg63
g121
sg64
g112
sg65
g116
sg66
g120
stRp1292
ag1
(g1280
g1155
(dp1293
g62
g113
sg63
g513
sg64
g112
sg65
g508
sg66
g512
stRp1294
ag1
(g1280
g1155
(dp1295
g62
g113
sg63
g1129
sg64
g158
sg65
g1124
sg66
g1128
stRp1296
ag1
(g1280
g1155
(dp1297
g62
g113
sg63
g1052
sg64
g112
sg65
g1047
sg66
g1051
stRp1298
ag1
(g1280
g1155
(dp1299
g62
g113
sg63
g359
sg64
g158
sg65
g354
sg66
g358
stRp1300
ag1
(g1280
g1155
(dp1301
g62
g74
sg63
g392
sg64
g228
sg65
g387
sg66
g391
stRp1302
ag1
(g1280
g1155
(dp1303
g62
g113
sg63
g975
sg64
g158
sg65
g970
sg66
g974
stRp1304
ag1
(g1280
g1155
(dp1305
g62
g113
sg63
g612
sg64
g296
sg65
g607
sg66
g611
stRp1306
ag1
(g1280
g1155
(dp1307
g62
g74
sg63
g953
sg64
g73
sg65
g948
sg66
g952
stRp1308
ag1
(g1280
g1155
(dp1309
g62
g113
sg63
g381
sg64
g296
sg65
g376
sg66
g380
stRp1310
ag1
(g1280
g1155
(dp1311
g62
g113
sg63
g788
sg64
g112
sg65
g783
sg66
g787
stRp1312
ag1
(g1280
g1155
(dp1313
g62
g74
sg63
g832
sg64
g73
sg65
g827
sg66
g831
stRp1314
ag1
(g1280
g1155
(dp1315
g62
g113
sg63
g304
sg64
g296
sg65
g299
sg66
g303
stRp1316
ag1
(g1280
g1155
(dp1317
g62
g113
sg63
g190
sg64
g182
sg65
g185
sg66
g189
stRp1318
ag1
(g1280
g1155
(dp1319
g62
g113
sg63
g700
sg64
g112
sg65
g695
sg66
g699
stRp1320
ag1
(g1280
g1155
(dp1321
g62
g74
sg63
g524
sg64
g73
sg65
g519
sg66
g523
stRp1322
ag1
(g1280
g1155
(dp1323
g62
g74
sg63
g1074
sg64
g216
sg65
g1069
sg66
g1073
stRp1324
ag1
(g1280
g1155
(dp1325
g62
g113
sg63
g212
sg64
g182
sg65
g207
sg66
g211
stRp1326
ag1
(g1280
g1155
(dp1327
g62
g74
sg63
g447
sg64
g216
sg65
g442
sg66
g446
stRp1328
ag1
(g1280
g1155
(dp1329
g62
g74
sg63
g667
sg64
g228
sg65
g662
sg66
g666
stRp1330
ag1
(g1280
g1155
(dp1331
g62
g113
sg63
g744
sg64
g170
sg65
g739
sg66
g743
stRp1332
ag1
(g1280
g1155
(dp1333
g62
g74
sg63
g623
sg64
g89
sg65
g618
sg66
g622
stRp1334
ag1
(g1280
g1155
(dp1335
g62
g74
sg63
g986
sg64
g73
sg65
g981
sg66
g985
stRp1336
ag1
(g1280
g1155
(dp1337
g62
g113
sg63
g766
sg64
g296
sg65
g761
sg66
g765
stRp1338
ag1
(g1280
g1155
(dp1339
g62
g113
sg63
g132
sg64
g112
sg65
g127
sg66
g131
stRp1340
ag1
(g1280
g1155
(dp1341
g62
g113
sg63
g1063
sg64
g182
sg65
g1058
sg66
g1062
stRp1342
ag1
(g1280
g1155
(dp1343
g62
g113
sg63
g887
sg64
g182
sg65
g882
sg66
g886
stRp1344
ag1
(g1280
g1155
(dp1345
g62
g74
sg63
g656
sg64
g73
sg65
g651
sg66
g655
stRp1346
ag1
(g1280
g1155
(dp1347
g62
g74
sg63
g1008
sg64
g89
sg65
g1003
sg66
g1007
stRp1348
ag1
(g1280
g1155
(dp1349
g62
g74
sg63
g535
sg64
g89
sg65
g530
sg66
g534
stRp1350
ag1
(g1280
g1155
(dp1351
g62
g113
sg63
g722
sg64
g296
sg65
g717
sg66
g721
stRp1352
ag1
(g1280
g1155
(dp1353
g62
g113
sg63
g178
sg64
g170
sg65
g173
sg66
g177
stRp1354
ag1
(g1280
g1155
(dp1355
g62
g113
sg63
g281
sg64
g273
sg65
g276
sg66
g280
stRp1356
ag1
(g1280
g1155
(dp1357
g62
g74
sg63
g1030
sg64
g89
sg65
g1025
sg66
g1029
stRp1358
ag1
(g1280
g1155
(dp1359
g62
g74
sg63
g568
sg64
g73
sg65
g563
sg66
g567
stRp1360
ag1
(g1280
g1155
(dp1361
g62
g74
sg63
g154
sg64
g73
sg65
g149
sg66
g153
stRp1362
ag1
(g1280
g1155
(dp1363
g62
g113
sg63
g557
sg64
g296
sg65
g552
sg66
g556
stRp1364
ag1
(g1280
g1155
(dp1365
g62
g74
sg63
g689
sg64
g89
sg65
g684
sg66
g688
stRp1366
ag1
(g1280
g1155
(dp1367
g62
g74
sg63
g224
sg64
g216
sg65
g219
sg66
g223
stRp1368
ag1
(g1280
g1155
(dp1369
g62
g74
sg63
g1041
sg64
g89
sg65
g1036
sg66
g1040
stRp1370
ag1
(g1280
g1155
(dp1371
g62
g74
sg63
g436
sg64
g228
sg65
g431
sg66
g435
stRp1372
ag1
(g1280
g1155
(dp1373
g62
g113
sg63
g480
sg64
g112
sg65
g475
sg66
g479
stRp1374
ag1
(g1280
g1155
(dp1375
g62
g113
sg63
g425
sg64
g112
sg65
g420
sg66
g424
stRp1376
ag1
(g1280
g1155
(dp1377
g62
g74
sg63
g84
sg64
g73
sg65
g78
sg66
g83
stRp1378
ag1
(g1280
g1155
(dp1379
g62
g74
sg63
g458
sg64
g216
sg65
g453
sg66
g457
stRp1380
ag1
(g1280
g1155
(dp1381
g62
g74
sg63
g1118
sg64
g73
sg65
g1113
sg66
g1117
stRp1382
ag1
(g1280
g1155
(dp1383
g62
g74
sg63
g108
sg64
g89
sg65
g103
sg66
g107
stRp1384
ag1
(g1280
g1155
(dp1385
g62
g74
sg63
g634
sg64
g216
sg65
g629
sg66
g633
stRp1386
ag1
(g1280
g1155
(dp1387
g62
g113
sg63
g964
sg64
g296
sg65
g959
sg66
g963
stRp1388
ag1
(g1280
g1155
(dp1389
g62
g113
sg63
g590
sg64
g158
sg65
g585
sg66
g589
stRp1390
ag1
(g1280
g1155
(dp1391
g62
g74
sg63
g337
sg64
g216
sg65
g332
sg66
g336
stRp1392
ag1
(g1280
g1155
(dp1393
g62
g74
sg63
g414
sg64
g89
sg65
g409
sg66
g413
stRp1394
ag1
(g1280
g1155
(dp1395
g62
g74
sg63
g678
sg64
g89
sg65
g673
sg66
g677
stRp1396
ag1
(g1280
g1155
(dp1397
g62
g113
sg63
g502
sg64
g296
sg65
g497
sg66
g501
stRp1398
ag1
(g1280
g1155
(dp1399
g62
g74
sg63
g97
sg64
g89
sg65
g92
sg66
g96
stRp1400
ag1
(g1280
g1155
(dp1401
g62
g74
sg63
g876
sg64
g89
sg65
g871
sg66
g875
stRp1402
ag1
(g1280
g1155
(dp1403
g62
g74
sg63
g469
sg64
g89
sg65
g464
sg66
g468
stRp1404
ag1
(g1280
g1155
(dp1405
g62
g113
sg63
g821
sg64
g170
sg65
g816
sg66
g820
stRp1406
ag1
(g1280
g1155
(dp1407
g62
g74
sg63
g292
sg64
g89
sg65
g287
sg66
g291
stRp1408
ag1
(g1280
g1155
(dp1409
g62
g113
sg63
g1107
sg64
g158
sg65
g1102
sg66
g1106
stRp1410
ag1
(g1280
g1155
(dp1411
g62
g74
sg63
g645
sg64
g216
sg65
g640
sg66
g644
stRp1412
ag1
(g1280
g1155
(dp1413
g62
g113
sg63
g1096
sg64
g182
sg65
g1091
sg66
g1095
stRp1414
ag1
(g1280
g1155
(dp1415
g62
g74
sg63
g491
sg64
g89
sg65
g486
sg66
g490
stRp1416
ag1
(g1280
g1155
(dp1417
g62
g74
sg63
g403
sg64
g73
sg65
g398
sg66
g402
stRp1418
ag1
(g1280
g1155
(dp1419
g62
g113
sg63
g755
sg64
g112
sg65
g750
sg66
g754
stRp1420
ag1
(g1280
g1155
(dp1421
g62
g74
sg63
g247
sg64
g89
sg65
g242
sg66
g246
stRp1422
ag1
(g1280
g1155
(dp1423
g62
g113
sg63
g854
sg64
g182
sg65
g849
sg66
g853
stRp1424
ag1
(g1280
g1155
(dp1425
g62
g113
sg63
g865
sg64
g170
sg65
g860
sg66
g864
stRp1426
ag1
(g1280
g1155
(dp1427
g62
g74
sg63
g236
sg64
g228
sg65
g231
sg66
g235
stRp1428
ag1
(g1280
g1155
(dp1429
g62
g74
sg63
g997
sg64
g89
sg65
g992
sg66
g996
stRp1430
ag1
(g1280
g1155
(dp1431
g62
g74
sg63
g579
sg64
g216
sg65
g574
sg66
g578
stRp1432
ag1
(g1280
g1155
(dp1433
g62
g113
sg63
g166
sg64
g158
sg65
g161
sg66
g165
stRp1434
ag1
(g1280
g1155
(dp1435
g62
g113
sg63
g799
sg64
g182
sg65
g794
sg66
g798
stRp1436
ag1
(g1280
g1155
(dp1437
g62
g113
sg63
g810
sg64
g112
sg65
g805
sg66
g809
stRp1438
ag1
(g1280
g1155
(dp1439
g62
g74
sg63
g143
sg64
g89
sg65
g138
sg66
g142
stRp1440
ag1
(g1280
g1155
(dp1441
g62
g74
sg63
g733
sg64
g216
sg65
g728
sg66
g732
stRp1442
ag1
(g1280
g1155
(dp1443
g62
g113
sg63
g711
sg64
g112
sg65
g706
sg66
g710
stRp1444
ag1
(g1280
g1155
(dp1445
g62
g74
sg63
g920
sg64
g73
sg65
g915
sg66
g919
stRp1446
ag1
(g1280
g1155
(dp1447
g62
g113
sg63
g348
sg64
g182
sg65
g343
sg66
g347
stRp1448
ag1
(g1280
g1155
(dp1449
g62
g74
sg63
g942
sg64
g73
sg65
g937
sg66
g941
stRp1450
ag1
(g1280
g1155
(dp1451
g62
g74
sg63
g258
sg64
g89
sg65
g253
sg66
g257
stRp1452
ag1
(g1280
g1155
(dp1453
g62
g113
sg63
g546
sg64
g158
sg65
g541
sg66
g545
stRp1454
ag1
(g1280
g1155
(dp1455
g62
g113
sg63
g326
sg64
g158
sg65
g321
sg66
g325
stRp1456
ag1
(g1280
g1155
(dp1457
g62
g113
sg63
g201
sg64
g170
sg65
g196
sg66
g200
stRp1458
ag1
(g1280
g1155
(dp1459
g62
g113
sg63
g601
sg64
g170
sg65
g596
sg66
g600
stRp1460
ag1
(g1280
g1155
(dp1461
g62
g74
sg63
g1085
sg64
g73
sg65
g1080
sg66
g1084
stRp1462
ag1
(g1280
g1155
(dp1463
g62
g113
sg63
g898
sg64
g158
sg65
g893
sg66
g897
stRp1464
ag1
(g1280
g1155
(dp1465
g62
g113
sg63
g1140
sg64
g170
sg65
g1135
sg66
g1139
stRp1466
ag1
(g1280
g1155
(dp1467
g62
g113
sg63
g269
sg64
g112
sg65
g264
sg66
g268
stRp1468
ag1
(g1280
g1155
(dp1469
g62
g74
sg63
g315
sg64
g216
sg65
g310
sg66
g314
stRp1470
ag1
(g1280
g1155
(dp1471
g62
g74
sg63
g931
sg64
g73
sg65
g926
sg66
g930
stRp1472
asS'seed'
p1473
NsS'thisIndex'
p1474
g1137
sS'thisN'
p1475
I96
sS'thisTrialN'
p1476
I0
sS'nTotal'
p1477
I96
sS'_warnUseOfNext'
p1478
I01
sbasS'savePickle'
p1479
I00
sb.