ccopy_reg
_reconstructor
p1
(cpsychopy.data
ExperimentHandler
p2
c__builtin__
object
p3
NtRp4
(dp5
S'originPath'
p6
NsS'dataFileName'
p7
VC:\u005cDocuments and Settings\u005cExperimental user\u005cMy Documents\u005cconsciousness\u005cuncon_feat\u005cexperiment_scripts\u005cdata/xabi_Experiment_EEG_version_2019_may_20_1606
p8
sS'runtimeInfo'
p9
NsS'name'
p10
VExperiment_EEG_version
p11
sS'dataNames'
p12
(lp13
S'image_onset_time'
p14
aS'response_window'
p15
aS'correctAns'
p16
aS'probe_onset'
p17
aS'discrim_resptime'
p18
aS'response.corr'
p19
aS'response.keys'
p20
aS'response.rt'
p21
aS'visible_resptime'
p22
aS'visible.keys'
p23
aS'visible.corr'
p24
aS'visible.rt'
p25
aS'probeFrames'
p26
aS'jitter2'
p27
asS'autoLog'
p28
I01
sS'extraInfo'
p29
(dp30
Vn_square
p31
V32
p32
sVexperiment_color
p33
Vbw
p34
sS'frameRate'
p35
cnumpy.core.multiarray
scalar
p36
(cnumpy
dtype
p37
(S'f8'
I0
I1
tRp38
(I3
S'<'
NNNI-1
I-1
I0
tbS'\xa8\x0e\x8a\x10h\xf2X@'
tRp39
sS'date'
p40
V2019_may_20_1606
p41
sVsession
p42
V012
p43
sVimage_size
p44
V256
p45
sVpremask_dur
p46
V20
p47
sVprobeFrames
p48
V5
sVparticipant
p49
Vxabi
p50
sS'expName'
p51
g11
sVpostmask_dur
p52
V20
p53
ssS'loopsUnfinished'
p54
(lp55
sS'saveWideText'
p56
I00
sS'thisEntry'
p57
(dp58
sS'version'
p59
S''
sS'_paramNamesSoFar'
p60
(lp61
S'category'
p62
aS'probe_path'
p63
aS'subcategory'
p64
aS'fixation_duration'
p65
aS'label'
p66
asS'entries'
p67
(lp68
(dp69
g31
g32
sg17
F3.737936372985132
sg24
I1
sg35
g39
sg14
F3.716330524883233
sg16
g36
(g37
(S'i4'
I0
I1
tRp70
(I3
S'<'
NNNI-1
I-1
I0
tbS'\x02\x00\x00\x00'
tRp71
sg42
g43
sg46
g47
sg15
S'V_nV'
p72
sg22
F5.6615028962260112
sg64
VFurniture
p73
sg62
VNonliving_Things
p74
sg49
g50
sS'trials.thisN'
p75
I0
sg19
I0
sg27
g36
(g38
S'\x00\x00\x00\x00\x00\x00\x1c@'
tRp76
sg52
g53
sg23
S'1'
sg18
F4.9990184140624478
sg33
g34
sg51
g11
sg20
S'1'
sg65
g36
(g37
(S'i8'
I0
I1
tRp77
(I3
S'<'
NNNI-1
I-1
I0
tbS'\x00\x00\x00\x00\x00\x00\x00\x00'
tRp78
sg44
g45
sg40
g41
sg25
F0.20050150051247329
sS'trials.thisIndex'
p79
g36
(g37
(S'i4'
I0
I1
tRp80
(I3
S'<'
NNNI-1
I-1
I0
tbS'\x06\x00\x00\x00'
tRp81
sg26
V5
sS'trials.thisRepN'
p82
I0
sg66
Vbedside-table
p83
sg63
V../experiment_stimuli/bw_bc_bl/Nonliving_Things/Furniture/bedside-table_12.jpg
p84
sg21
F0.63159761228598654
sS'trials.thisTrialN'
p85
I0
sa(dp86
g31
g32
sg17
F7.5997506412677467
sg24
I0
sg35
g39
sg14
F7.594760867068544
sg16
g36
(g70
S'\x01\x00\x00\x00'
tRp87
sg42
g43
sg46
g47
sg15
g72
sg22
F9.3291590539738536
sg64
VAnimals
p88
sg62
VLiving_Things
p89
sg49
g50
sS'trials.thisN'
p90
I1
sg19
I1
sg27
g36
(g38
S'\x00\x00\x00\x00\x00\x00\x18@'
tRp91
sg52
g53
sg23
S'2'
sg18
F8.8974942099303007
sg33
g34
sg51
g11
sg20
S'1'
sg65
g36
(g77
S'\x00\x00\x00\x00\x00\x00\x00\x00'
tRp92
sg44
g45
sg40
g41
sg25
F0.23071939137298614
sS'trials.thisIndex'
p93
g36
(g80
S'2\x00\x00\x00'
tRp94
sg26
V5
sS'trials.thisRepN'
p95
I0
sg66
Vlynx
p96
sg63
V../experiment_stimuli/bw_bc_bl/Living_Things/Animals/lynx_3.jpg
p97
sg21
F0.41111548454500735
sS'trials.thisTrialN'
p98
I1
sa(dp99
g31
g32
sg17
F11.297749315504916
sg24
I0
sg35
g39
sg14
F11.292799522052519
sg16
g36
(g70
S'\x01\x00\x00\x00'
tRp100
sg42
g43
sg46
g47
sg15
S'nV_V'
p101
sg22
F13.438134015654214
sg64
g73
sg62
g74
sg49
g50
sS'trials.thisN'
p102
I2
sg19
I1
sg27
g36
(g38
S'\x00\x00\x00\x00\x00\x00\x1a@'
tRp103
sg52
g53
sg23
S'3'
sg18
F12.585515117272735
sg33
g34
sg51
g11
sg20
S'1'
sg65
g36
(g77
S'\x00\x00\x00\x00\x00\x00\x00\x00'
tRp104
sg44
g45
sg40
g41
sg25
F0.26078924257308245
sS'trials.thisIndex'
p105
g36
(g80
S'\x05\x00\x00\x00'
tRp106
sg26
V5
sS'trials.thisRepN'
p107
I0
sg66
Vbed
p108
sg63
V../experiment_stimuli/bw_bc_bl/Nonliving_Things/Furniture/bed_21.jpg
p109
sg21
F0.83205181697849184
sS'trials.thisTrialN'
p110
I2
sa(dp111
g31
g32
sg17
F15.437538651400246
sg24
I0
sg35
g39
sg14
F15.431794185191393
sg16
g36
(g70
S'\x02\x00\x00\x00'
tRp112
sg42
g43
sg46
g47
sg15
g101
sg22
F17.657290323870257
sg64
VBirds
p113
sg62
g89
sg49
g50
sS'trials.thisN'
p114
I3
sg19
I1
sg27
g36
(g38
S'\x00\x00\x00\x00\x00\x00\x1c@'
tRp115
sg52
g53
sg23
S'2'
sg18
F16.704464308102615
sg33
g34
sg51
g11
sg20
S'2'
sg65
g36
(g77
S'\x00\x00\x00\x00\x00\x00\x00\x00'
tRp116
sg44
g45
sg40
g41
sg25
F0.23071876738686115
sS'trials.thisIndex'
p117
g36
(g80
S'\x04\x00\x00\x00'
tRp118
sg26
V5
sS'trials.thisRepN'
p119
I0
sg66
Vbarn-owl
p120
sg63
V../experiment_stimuli/bw_bc_bl/Living_Things/Birds/barn-owl_26.jpg
p121
sg21
F0.93226882140152156
sS'trials.thisTrialN'
p122
I3
sa(dp123
g31
g32
sg17
F19.62569143017754
sg24
I1
sg35
g39
sg14
F19.620904115610756
sg16
g36
(g70
S'\x01\x00\x00\x00'
tRp124
sg42
g43
sg46
g47
sg15
g101
sg22
F21.435484861023724
sg64
VBuildings
p125
sg62
g74
sg49
g50
sS'trials.thisN'
p126
I4
sg19
I1
sg27
g36
(g38
S'\x00\x00\x00\x00\x00\x00 @'
tRp127
sg52
g53
sg23
S'1'
sg18
F20.883550897240639
sg33
g34
sg51
g11
sg20
S'1'
sg65
g36
(g77
S'\x00\x00\x00\x00\x00\x00\x00\x00'
tRp128
sg44
g45
sg40
g41
sg25
F0.19065196136943996
sS'trials.thisIndex'
p129
g36
(g80
S'\x1c\x00\x00\x00'
tRp130
sg26
V5
sS'trials.thisRepN'
p131
I0
sg66
Vfactory
p132
sg63
V../experiment_stimuli/bw_bc_bl/Nonliving_Things/Buildings/factory_3.jpg
p133
sg21
F0.53137966804206371
sS'trials.thisTrialN'
p134
I4
sa(dp135
g31
g32
sg17
F23.363776571815833
sg24
I0
sg35
g39
sg14
F23.359030215186067
sg16
g36
(g70
S'\x01\x00\x00\x00'
tRp136
sg42
g43
sg46
g47
sg15
g101
sg22
F25.123514490318485
sg64
g73
sg62
g74
sg49
g50
sS'trials.thisN'
p137
I5
sg19
I1
sg27
g36
(g38
S'\x00\x00\x00\x00\x00\x00\x1a@'
tRp138
sg52
g53
sg23
S'3'
sg18
F24.641718010534532
sg33
g34
sg51
g11
sg20
S'1'
sg65
g36
(g77
S'\x00\x00\x00\x00\x00\x00\x00\x00'
tRp139
sg44
g45
sg40
g41
sg25
F0.20067123137414455
sS'trials.thisIndex'
p140
g36
(g80
S'\x02\x00\x00\x00'
tRp141
sg26
V5
sS'trials.thisRepN'
p142
I0
sg66
Varmchair
p143
sg63
V../experiment_stimuli/bw_bc_bl/Nonliving_Things/Furniture/armchair_22.jpg
p144
sg21
F0.4612486760597676
sS'trials.thisTrialN'
p145
I5
sa(dp146
g31
g32
sg17
F27.062433071550913
sg24
I1
sg35
g39
sg14
F27.057057005702518
sg16
g36
(g70
S'\x02\x00\x00\x00'
tRp147
sg42
g43
sg46
g47
sg15
g72
sg22
F29.052035983419046
sg64
g125
sg62
g74
sg49
g50
sS'trials.thisN'
p148
I6
sg19
I1
sg27
g36
(g38
S'\x00\x00\x00\x00\x00\x00\x1a@'
tRp149
sg52
g53
sg23
S'1'
sg18
F28.319713862380013
sg33
g34
sg51
g11
sg20
S'2'
sg65
g36
(g77
S'\x00\x00\x00\x00\x00\x00\x00\x00'
tRp150
sg44
g45
sg40
g41
sg25
F0.2106721221935004
sS'trials.thisIndex'
p151
g36
(g80
S')\x00\x00\x00'
tRp152
sg26
V5
sS'trials.thisRepN'
p153
I0
sg66
Vhouse
p154
sg63
V../experiment_stimuli/bw_bc_bl/Nonliving_Things/Buildings/house_5.jpg
p155
sg21
F0.71176935918629169
sS'trials.thisTrialN'
p156
I6
sa(dp157
g31
g32
sg17
F31.002729147789069
sg24
I1
sg35
g39
sg14
F30.995628651930019
sg16
g36
(g70
S'\x01\x00\x00\x00'
tRp158
sg42
g43
sg46
g47
sg15
g101
sg22
F34.19306609290652
sg64
VVehicles
p159
sg62
g74
sg49
g50
sS'trials.thisN'
p160
I7
sg19
I1
sg27
g36
(g38
S'\x00\x00\x00\x00\x00\x00\x1e@'
tRp161
sg52
g53
sg23
S'1'
sg18
F32.288336770026945
sg33
g34
sg51
g11
sg20
S'1'
sg65
g36
(g77
S'\x00\x00\x00\x00\x00\x00\x00\x00'
tRp162
sg44
g45
sg40
g41
sg25
F0.19063403666950762
sS'trials.thisIndex'
p163
g36
(g80
S'@\x00\x00\x00'
tRp164
sg26
V5
sS'trials.thisRepN'
p165
I0
sg66
Vplane
p166
sg63
V../experiment_stimuli/bw_bc_bl/Nonliving_Things/Vehicles/plane_9.jpg
p167
sg21
F1.8841612079413608
sS'trials.thisTrialN'
p168
I7
sa(dp169
g31
g32
sg17
F36.122310361475684
sg24
I0
sg35
g39
sg14
F36.116776572540402
sg16
g36
(g70
S'\x02\x00\x00\x00'
tRp170
sg42
g43
sg46
g47
sg15
g72
sg22
F38.422406202997081
sg64
g125
sg62
g74
sg49
g50
sS'trials.thisN'
p171
I8
sg19
I1
sg27
g36
(g38
S'\x00\x00\x00\x00\x00\x00\x18@'
tRp172
sg52
g53
sg23
S'2'
sg18
F37.429515478899702
sg33
g34
sg51
g11
sg20
S'2'
sg65
g36
(g77
S'\x00\x00\x00\x00\x00\x00\x00\x00'
tRp173
sg44
g45
sg40
g41
sg25
F0.20065671671181917
sS'trials.thisIndex'
p174
g36
(g80
S':\x00\x00\x00'
tRp175
sg26
V5
sS'trials.thisRepN'
p176
I0
sg66
Vpalace
p177
sg63
V../experiment_stimuli/bw_bc_bl/Nonliving_Things/Buildings/palace_8.jpg
p178
sg21
F0.97233812732156366
sS'trials.thisTrialN'
p179
I8
sa(dp180
g31
g32
sg17
F40.360848084208556
sg24
I0
sg35
g39
sg14
F40.355974518810399
sg16
g36
(g70
S'\x01\x00\x00\x00'
tRp181
sg42
g43
sg46
g47
sg15
g101
sg22
F42.200648953556083
sg64
VMusical_Inst
p182
sg62
g74
sg49
g50
sS'trials.thisN'
p183
I9
sg19
I1
sg27
g36
(g38
S'\x00\x00\x00\x00\x00\x00\x18@'
tRp184
sg52
g53
sg23
S'3'
sg18
F41.658714906778187
sg33
g34
sg51
g11
sg20
S'1'
sg65
g36
(g77
S'\x00\x00\x00\x00\x00\x00\x00\x00'
tRp185
sg44
g45
sg40
g41
sg25
F0.19062651810236275
sS'trials.thisIndex'
p186
g36
(g80
S'\\\x00\x00\x00'
tRp187
sg26
V5
sS'trials.thisRepN'
p188
I0
sg66
Vviolin
p189
sg63
V../experiment_stimuli/bw_bc_bl/Nonliving_Things/Musical_Inst/violin_25.jpg
p190
sg21
F0.52137877722270787
sS'trials.thisTrialN'
p191
I9
sa(dp192
g31
g32
sg17
F44.129165063495748
sg24
I0
sg35
g39
sg14
F44.124165135202929
sg16
g36
(g70
S'\x02\x00\x00\x00'
tRp193
sg42
g43
sg46
g47
sg15
g72
sg22
F45.998880880419165
sg64
g182
sg62
g74
sg49
g50
sS'trials.thisN'
p194
I10
sg19
I1
sg27
g36
(g38
S'\x00\x00\x00\x00\x00\x00\x18@'
tRp195
sg52
g53
sg23
S'3'
sg18
F45.396831577876583
sg33
g34
sg51
g11
sg20
S'2'
sg65
g36
(g77
S'\x00\x00\x00\x00\x00\x00\x00\x00'
tRp196
sg44
g45
sg40
g41
sg25
F0.22068742185365409
sS'trials.thisIndex'
p197
g36
(g80
S'Y\x00\x00\x00'
tRp198
sg26
V5
sS'trials.thisRepN'
p199
I0
sg66
Vtuba
p200
sg63
V../experiment_stimuli/bw_bc_bl/Nonliving_Things/Musical_Inst/tuba_1.jpg
p201
sg21
F0.58148859697394073
sS'trials.thisTrialN'
p202
I10
sa(dp203
g31
g32
sg17
F47.957364268018864
sg24
I1
sg35
g39
sg14
F47.952484417008236
sg16
g36
(g70
S'\x02\x00\x00\x00'
tRp204
sg42
g43
sg46
g47
sg15
g101
sg22
F49.73703675030265
sg64
g113
sg62
g89
sg49
g50
sS'trials.thisN'
p205
I11
sg19
I1
sg27
g36
(g38
S'\x00\x00\x00\x00\x00\x00\x18@'
tRp206
sg52
g53
sg23
S'1'
sg18
F49.19510429748334
sg33
g34
sg51
g11
sg20
S'2'
sg65
g36
(g77
S'\x00\x00\x00\x00\x00\x00\x00\x00'
tRp207
sg44
g45
sg40
g41
sg25
F0.16058709868229926
sS'trials.thisIndex'
p208
g36
(g80
S',\x00\x00\x00'
tRp209
sg26
V5
sS'trials.thisRepN'
p210
I0
sg66
Vkiwi
p211
sg63
V../experiment_stimuli/bw_bc_bl/Living_Things/Birds/kiwi_24.jpg
p212
sg21
F0.52137601433787495
sS'trials.thisTrialN'
p213
I11
sa(dp214
g31
g32
sg17
F51.635365642141551
sg24
I1
sg35
g39
sg14
F51.630483836284839
sg16
g36
(g70
S'\x01\x00\x00\x00'
tRp215
sg42
g43
sg46
g47
sg15
g72
sg22
F53.685615952592343
sg64
g113
sg62
g89
sg49
g50
sS'trials.thisN'
p216
I12
sg19
I1
sg27
g36
(g38
S'\x00\x00\x00\x00\x00\x00\x1c@'
tRp217
sg52
g53
sg23
S'1'
sg18
F52.883113990887068
sg33
g34
sg51
g11
sg20
S'1'
sg65
g36
(g77
S'\x00\x00\x00\x00\x00\x00\x00\x00'
tRp218
sg44
g45
sg40
g41
sg25
F0.25075870554428548
sS'trials.thisIndex'
p219
g36
(g80
S'=\x00\x00\x00'
tRp220
sg26
V5
sS'trials.thisRepN'
p221
I0
sg66
Vpenguin
p222
sg63
V../experiment_stimuli/bw_bc_bl/Living_Things/Birds/penguin_3.jpg
p223
sg21
F0.78194189164787531
sS'trials.thisTrialN'
p224
I12
sa(dp225
g31
g32
sg17
F55.674310114118271
sg24
I1
sg35
g39
sg14
F55.66926338581834
sg16
g36
(g70
S'\x01\x00\x00\x00'
tRp226
sg42
g43
sg46
g47
sg15
g72
sg22
F57.48384295462165
sg64
g113
sg62
g89
sg49
g50
sS'trials.thisN'
p227
I13
sg19
I1
sg27
g36
(g38
S'\x00\x00\x00\x00\x00\x00\x1a@'
tRp228
sg52
g53
sg23
S'1'
sg18
F56.931906581041403
sg33
g34
sg51
g11
sg20
S'1'
sg65
g36
(g77
S'\x00\x00\x00\x00\x00\x00\x00\x00'
tRp229
sg44
g45
sg40
g41
sg25
F0.20065672032069415
sS'trials.thisIndex'
p230
g36
(g80
S'F\x00\x00\x00'
tRp231
sg26
V5
sS'trials.thisRepN'
p232
I0
sg66
Vrooster
p233
sg63
V../experiment_stimuli/bw_bc_bl/Living_Things/Birds/rooster_17.jpg
p234
sg21
F0.53137695766054094
sS'trials.thisTrialN'
p235
I13
sa(dp236
g31
g32
sg17
F59.423678695573471
sg24
I1
sg35
g39
sg14
F59.417409913614392
sg16
g36
(g70
S'\x01\x00\x00\x00'
tRp237
sg42
g43
sg46
g47
sg15
g101
sg22
F61.33220952085685
sg64
g73
sg62
g74
sg49
g50
sS'trials.thisN'
p238
I14
sg19
I1
sg27
g36
(g38
S'\x00\x00\x00\x00\x00\x00\x18@'
tRp239
sg52
g53
sg23
S'1'
sg18
F60.690080465050414
sg33
g34
sg51
g11
sg20
S'1'
sg65
g36
(g77
S'\x00\x00\x00\x00\x00\x00\x00\x00'
tRp240
sg44
g45
sg40
g41
sg25
F0.23071767680812627
sS'trials.thisIndex'
p241
g36
(g80
S'\x08\x00\x00\x00'
tRp242
sg26
V5
sS'trials.thisRepN'
p243
I0
sg66
Vbookcase
p244
sg63
V../experiment_stimuli/bw_bc_bl/Nonliving_Things/Furniture/bookcase_10.jpg
p245
sg21
F0.62157548905815929
sS'trials.thisTrialN'
p246
I14
sa(dp247
g31
g32
sg17
F63.300757482182235
sg24
I0
sg35
g39
sg14
F63.295847372035496
sg16
g36
(g70
S'\x02\x00\x00\x00'
tRp248
sg42
g43
sg46
g47
sg15
g72
sg22
F65.160541952587664
sg64
g125
sg62
g74
sg49
g50
sS'trials.thisN'
p249
I15
sg19
I1
sg27
g36
(g38
S'\x00\x00\x00\x00\x00\x00\x1e@'
tRp250
sg52
g53
sg23
S'3'
sg18
F64.578530224156566
sg33
g34
sg51
g11
sg20
S'2'
sg65
g36
(g77
S'\x00\x00\x00\x00\x00\x00\x00\x00'
tRp251
sg44
g45
sg40
g41
sg25
F0.18061573267914355
sS'trials.thisIndex'
p252
g36
(g80
S'\x11\x00\x00\x00'
tRp253
sg26
V5
sS'trials.thisRepN'
p254
I0
sg66
Vchurch
p255
sg63
V../experiment_stimuli/bw_bc_bl/Nonliving_Things/Buildings/church_2.jpg
p256
sg21
F0.56144389556720853
sS'trials.thisTrialN'
p257
I15
sa(dp258
g31
g32
sg17
F67.078957436373457
sg24
I0
sg35
g39
sg14
F67.07405049202498
sg16
g36
(g70
S'\x01\x00\x00\x00'
tRp259
sg42
g43
sg46
g47
sg15
g72
sg22
F68.858564021298662
sg64
VInsects
p260
sg62
g89
sg49
g50
sS'trials.thisN'
p261
I16
sg19
I1
sg27
g36
(g38
S'\x00\x00\x00\x00\x00\x00\x18@'
tRp262
sg52
g53
sg23
S'3'
sg18
F68.3367655207403
sg33
g34
sg51
g11
sg20
S'1'
sg65
g36
(g77
S'\x00\x00\x00\x00\x00\x00\x00\x00'
tRp263
sg44
g45
sg40
g41
sg25
F0.260793317691423
sS'trials.thisIndex'
p264
g36
(g80
S'\n\x00\x00\x00'
tRp265
sg26
V5
sS'trials.thisRepN'
p266
I0
sg66
Vbutterfly
p267
sg63
V../experiment_stimuli/bw_bc_bl/Living_Things/Insects/butterfly_10.jpg
p268
sg21
F0.50131622247863561
sS'trials.thisTrialN'
p269
I16
sa(dp270
g31
g32
sg17
F70.857885865261778
sg24
I1
sg35
g39
sg14
F70.852271111449227
sg16
g36
(g70
S'\x01\x00\x00\x00'
tRp271
sg42
g43
sg46
g47
sg15
g101
sg22
F72.686899175168946
sg64
VKitchen_Uten
p272
sg62
g74
sg49
g50
sS'trials.thisN'
p273
I17
sg19
I1
sg27
g36
(g38
S'\x00\x00\x00\x00\x00\x00\x18@'
tRp274
sg52
g53
sg23
S'1'
sg18
F72.094867729116231
sg33
g34
sg51
g11
sg20
S'1'
sg65
g36
(g77
S'\x00\x00\x00\x00\x00\x00\x00\x00'
tRp275
sg44
g45
sg40
g41
sg25
F0.26078498305287212
sS'trials.thisIndex'
p276
g36
(g80
S'S\x00\x00\x00'
tRp277
sg26
V5
sS'trials.thisRepN'
p278
I0
sg66
Vteapot
p279
sg63
V../experiment_stimuli/bw_bc_bl/Nonliving_Things/Kitchen_Uten/teapot_19.jpg
p280
sg21
F0.57146936806384474
sS'trials.thisTrialN'
p281
I17
sa(dp282
g31
g32
sg17
F74.685392718645744
sg24
I0
sg35
g39
sg14
F74.680589381838217
sg16
g36
(g70
S'\x02\x00\x00\x00'
tRp283
sg42
g43
sg46
g47
sg15
g101
sg22
F76.425023004063405
sg64
g113
sg62
g89
sg49
g50
sS'trials.thisN'
p284
I18
sg19
I1
sg27
g36
(g38
S'\x00\x00\x00\x00\x00\x00\x18@'
tRp285
sg52
g53
sg23
S'2'
sg18
F75.933212908566929
sg33
g34
sg51
g11
sg20
S'2'
sg65
g36
(g77
S'\x00\x00\x00\x00\x00\x00\x00\x00'
tRp286
sg44
g45
sg40
g41
sg25
F0.23074404872022569
sS'trials.thisIndex'
p287
g36
(g80
S'"\x00\x00\x00'
tRp288
sg26
V5
sS'trials.thisRepN'
p289
I0
sg66
Vgoose
p290
sg63
V../experiment_stimuli/bw_bc_bl/Living_Things/Birds/goose_15.jpg
p291
sg21
F0.47125066805165261
sS'trials.thisTrialN'
p292
I18
sa(dp293
g31
g32
sg17
F78.393555172486231
sg24
I1
sg35
g39
sg14
F78.388641889556311
sg16
g36
(g70
S'\x02\x00\x00\x00'
tRp294
sg42
g43
sg46
g47
sg15
g72
sg22
F80.433736157021485
sg64
VTools
p295
sg62
g74
sg49
g50
sS'trials.thisN'
p296
I19
sg19
I1
sg27
g36
(g38
S'\x00\x00\x00\x00\x00\x00\x18@'
tRp297
sg52
g53
sg23
S'1'
sg18
F79.631253187661059
sg33
g34
sg51
g11
sg20
S'2'
sg65
g36
(g77
S'\x00\x00\x00\x00\x00\x00\x00\x00'
tRp298
sg44
g45
sg40
g41
sg25
F0.17060926696285605
sS'trials.thisIndex'
p299
g36
(g80
S'%\x00\x00\x00'
tRp300
sg26
V5
sS'trials.thisRepN'
p301
I0
sg66
Vhammer
p302
sg63
V../experiment_stimuli/bw_bc_bl/Nonliving_Things/Tools/hammer_2.jpg
p303
sg21
F0.78192351956386119
sS'trials.thisTrialN'
p304
I19
sa(dp305
g31
g32
sg17
F82.342100540641695
sg24
I0
sg35
g39
sg14
F82.3372371441219
sg16
g36
(g70
S'\x01\x00\x00\x00'
tRp306
sg42
g43
sg46
g47
sg15
g72
sg22
F84.332211622153409
sg64
g88
sg62
g89
sg49
g50
sS'trials.thisN'
p307
I20
sg19
I1
sg27
g36
(g38
S'\x00\x00\x00\x00\x00\x00\x18@'
tRp308
sg52
g53
sg23
S'2'
sg18
F83.599878301844001
sg33
g34
sg51
g11
sg20
S'1'
sg65
g36
(g77
S'\x00\x00\x00\x00\x00\x00\x00\x00'
tRp309
sg44
g45
sg40
g41
sg25
F0.19063183385878801
sS'trials.thisIndex'
p310
g36
(g80
S'R\x00\x00\x00'
tRp311
sg26
V5
sS'trials.thisRepN'
p312
I0
sg66
Vtapir
p313
sg63
V../experiment_stimuli/bw_bc_bl/Living_Things/Animals/tapir_11.jpg
p314
sg21
F0.71176146459765732
sS'trials.thisTrialN'
p315
I20
sa(dp316
g31
g32
sg17
F86.260630139266141
sg24
I1
sg35
g39
sg14
F86.25577050994616
sg16
g36
(g70
S'\x02\x00\x00\x00'
tRp317
sg42
g43
sg46
g47
sg15
g101
sg22
F88.060304553480819
sg64
g113
sg62
g89
sg49
g50
sS'trials.thisN'
p318
I21
sg19
I1
sg27
g36
(g38
S'\x00\x00\x00\x00\x00\x00\x18@'
tRp319
sg52
g53
sg23
S'1'
sg18
F87.50837376981508
sg33
g34
sg51
g11
sg20
S'2'
sg65
g36
(g77
S'\x00\x00\x00\x00\x00\x00\x00\x00'
tRp320
sg44
g45
sg40
g41
sg25
F0.23071795143187046
sS'trials.thisIndex'
p321
g36
(g80
S'?\x00\x00\x00'
tRp322
sg26
V5
sS'trials.thisRepN'
p323
I0
sg66
Vpigeon
p324
sg63
V../experiment_stimuli/bw_bc_bl/Living_Things/Birds/pigeon_10.jpg
p325
sg21
F0.53137265692930669
sS'trials.thisTrialN'
p326
I21
sa(dp327
g31
g32
sg17
F90.029743077117018
sg24
I1
sg35
g39
sg14
F90.023940168088302
sg16
g36
(g70
S'\x01\x00\x00\x00'
tRp328
sg42
g43
sg46
g47
sg15
g72
sg22
F92.229375744354911
sg64
g113
sg62
g89
sg49
g50
sS'trials.thisN'
p329
I22
sg19
I1
sg27
g36
(g38
S'\x00\x00\x00\x00\x00\x00\x18@'
tRp330
sg52
g53
sg23
S'1'
sg18
F91.30663482809905
sg33
g34
sg51
g11
sg20
S'1'
sg65
g36
(g77
S'\x00\x00\x00\x00\x00\x00\x00\x00'
tRp331
sg44
g45
sg40
g41
sg25
F0.23071218456607312
sS'trials.thisIndex'
p332
g36
(g80
S'!\x00\x00\x00'
tRp333
sg26
V5
sS'trials.thisRepN'
p334
I0
sg66
Vgoldfinch
p335
sg63
V../experiment_stimuli/bw_bc_bl/Living_Things/Birds/goldfinch_18.jpg
p336
sg21
F0.90218213200569153
sS'trials.thisTrialN'
p337
I22
sa(dp338
g31
g32
sg17
F94.198790772468783
sg24
I0
sg35
g39
sg14
F94.193016926757991
sg16
g36
(g70
S'\x02\x00\x00\x00'
tRp339
sg42
g43
sg46
g47
sg15
g72
sg22
F95.95732905366458
sg64
g159
sg62
g74
sg49
g50
sS'trials.thisN'
p340
I23
sg19
I1
sg27
g36
(g38
S'\x00\x00\x00\x00\x00\x00\x1e@'
tRp341
sg52
g53
sg23
S'3'
sg18
F95.495747949928045
sg33
g34
sg51
g11
sg20
S'2'
sg65
g36
(g77
S'\x00\x00\x00\x00\x00\x00\x00\x00'
tRp342
sg44
g45
sg40
g41
sg25
F0.21068034355994314
sS'trials.thisIndex'
p343
g36
(g80
S'[\x00\x00\x00'
tRp344
sg26
V5
sS'trials.thisRepN'
p345
I0
sg66
Vvan
p346
sg63
V../experiment_stimuli/bw_bc_bl/Nonliving_Things/Vehicles/van_2.jpg
p347
sg21
F0.43100620328914374
sS'trials.thisTrialN'
p348
I23
sa(dp349
g31
g32
sg17
F97.906149339047261
sg24
I1
sg35
g39
sg14
F97.901063829427585
sg16
g36
(g70
S'\x01\x00\x00\x00'
tRp350
sg42
g43
sg46
g47
sg15
g72
sg22
F100.0163207272999
sg64
g260
sg62
g89
sg49
g50
sS'trials.thisN'
p351
I24
sg19
I1
sg27
g36
(g38
S'\x00\x00\x00\x00\x00\x00\x18@'
tRp352
sg52
g53
sg23
S'1'
sg18
F99.183756139595062
sg33
g34
sg51
g11
sg20
S'1'
sg65
g36
(g77
S'\x00\x00\x00\x00\x00\x00\x00\x00'
tRp353
sg44
g45
sg40
g41
sg25
F0.23071612790226936
sS'trials.thisIndex'
p354
g36
(g80
S'-\x00\x00\x00'
tRp355
sg26
V5
sS'trials.thisRepN'
p356
I0
sg66
Vladybird
p357
sg63
V../experiment_stimuli/bw_bc_bl/Living_Things/Insects/ladybird_14.jpg
p358
sg21
F0.8119922922924161
sS'trials.thisTrialN'
p359
I24
sa(dp360
g31
g32
sg17
F101.98635981767438
sg24
I0
sg35
g39
sg14
F101.97992957930546
sg16
g36
(g70
S'\x02\x00\x00\x00'
tRp361
sg42
g43
sg46
g47
sg15
g72
sg22
F103.74441281298641
sg64
g73
sg62
g74
sg49
g50
sS'trials.thisN'
p362
I25
sg19
I1
sg27
g36
(g38
S'\x00\x00\x00\x00\x00\x00\x1a@'
tRp363
sg52
g53
sg23
S'3'
sg18
F103.29268587636761
sg33
g34
sg51
g11
sg20
S'2'
sg65
g36
(g77
S'\x00\x00\x00\x00\x00\x00\x00\x00'
tRp364
sg44
g45
sg40
g41
sg25
F0.16056409140583128
sS'trials.thisIndex'
p365
g36
(g80
S'\x1d\x00\x00\x00'
tRp366
sg26
V5
sS'trials.thisRepN'
p367
I0
sg66
Vfilling-cabinet
p368
sg63
V../experiment_stimuli/bw_bc_bl/Nonliving_Things/Furniture/filling-cabinet_13.jpg
p369
sg21
F0.43116100563202053
sS'trials.thisTrialN'
p370
I25
sa(dp371
g31
g32
sg17
F105.64274493779521
sg24
I0
sg35
g39
sg14
F105.6378865938168
sg16
g36
(g70
S'\x01\x00\x00\x00'
tRp372
sg42
g43
sg46
g47
sg15
g101
sg22
F107.57274136890192
sg64
g159
sg62
g74
sg49
g50
sS'trials.thisN'
p373
I26
sg19
I1
sg27
g36
(g38
S'\x00\x00\x00\x00\x00\x00\x1e@'
tRp374
sg52
g53
sg23
S'3'
sg18
F106.93059729470406
sg33
g34
sg51
g11
sg20
S'1'
sg65
g36
(g77
S'\x00\x00\x00\x00\x00\x00\x00\x00'
tRp375
sg44
g45
sg40
g41
sg25
F0.28083280508872122
sS'trials.thisIndex'
p376
g36
(g80
S'V\x00\x00\x00'
tRp377
sg26
V5
sS'trials.thisRepN'
p378
I0
sg66
Vtractor
p379
sg63
V../experiment_stimuli/bw_bc_bl/Nonliving_Things/Vehicles/tractor_11.jpg
p380
sg21
F0.61156956828199327
sS'trials.thisTrialN'
p381
I26
sa(dp382
g31
g32
sg17
F109.59148603992071
sg24
I1
sg35
g39
sg14
F109.58647226972971
sg16
g36
(g70
S'\x01\x00\x00\x00'
tRp383
sg42
g43
sg46
g47
sg15
g72
sg22
F111.53133997658733
sg64
g113
sg62
g89
sg49
g50
sS'trials.thisN'
p384
I27
sg19
I0
sg27
g36
(g38
S'\x00\x00\x00\x00\x00\x00\x1a@'
tRp385
sg52
g53
sg23
S'1'
sg18
F110.85913425020408
sg33
g34
sg51
g11
sg20
S'2'
sg65
g36
(g77
S'\x00\x00\x00\x00\x00\x00\x00\x00'
tRp386
sg44
g45
sg40
g41
sg25
F0.20065305870957673
sS'trials.thisIndex'
p387
g36
(g80
S'U\x00\x00\x00'
tRp388
sg26
V5
sS'trials.thisRepN'
p389
I0
sg66
Vtoucan
p390
sg63
V../experiment_stimuli/bw_bc_bl/Living_Things/Birds/toucan_17.jpg
p391
sg21
F0.65163883287459612
sS'trials.thisTrialN'
p392
I27
sa(dp393
g31
g32
sg17
F113.46976181294303
sg24
I0
sg35
g39
sg14
F113.46489937533624
sg16
g36
(g70
S'\x02\x00\x00\x00'
tRp394
sg42
g43
sg46
g47
sg15
g101
sg22
F115.56009100412484
sg64
g113
sg62
g89
sg49
g50
sS'trials.thisN'
p395
I28
sg19
I1
sg27
g36
(g38
S'\x00\x00\x00\x00\x00\x00\x18@'
tRp396
sg52
g53
sg23
S'3'
sg18
F114.76763614662923
sg33
g34
sg51
g11
sg20
S'2'
sg65
g36
(g77
S'\x00\x00\x00\x00\x00\x00\x00\x00'
tRp397
sg44
g45
sg40
g41
sg25
F0.29085410886909813
sS'trials.thisIndex'
p398
g36
(g80
S'\x1a\x00\x00\x00'
tRp399
sg26
V5
sS'trials.thisRepN'
p400
I0
sg66
Vduck
p401
sg63
V../experiment_stimuli/bw_bc_bl/Living_Things/Birds/duck_18.jpg
p402
sg21
F0.77190073474776
sS'trials.thisTrialN'
p403
I28
sa(dp404
g31
g32
sg17
F117.59037047228776
sg24
I0
sg35
g39
sg14
F117.58386000560131
sg16
g36
(g70
S'\x02\x00\x00\x00'
tRp405
sg42
g43
sg46
g47
sg15
g101
sg22
F119.54877181642223
sg64
VMarine_creatures
p406
sg62
g89
sg49
g50
sS'trials.thisN'
p407
I29
sg19
I1
sg27
g36
(g38
S'\x00\x00\x00\x00\x00\x00\x18@'
tRp408
sg52
g53
sg23
S'2'
sg18
F118.86655203043483
sg33
g34
sg51
g11
sg20
S'2'
sg65
g36
(g77
S'\x00\x00\x00\x00\x00\x00\x00\x00'
tRp409
sg44
g45
sg40
g41
sg25
F0.29087757470551878
sS'trials.thisIndex'
p410
g36
(g80
S'4\x00\x00\x00'
tRp411
sg26
V5
sS'trials.thisRepN'
p412
I0
sg66
Vmanatee
p413
sg63
V../experiment_stimuli/bw_bc_bl/Living_Things/Marine_creatures/manatee_19.jpg
p414
sg21
F0.66166138870175928
sS'trials.thisTrialN'
p415
I29
sa(dp416
g31
g32
sg17
F121.57755376084242
sg24
I1
sg35
g39
sg14
F121.57252129551489
sg16
g36
(g70
S'\x02\x00\x00\x00'
tRp417
sg42
g43
sg46
g47
sg15
g72
sg22
F123.46730089257471
sg64
g159
sg62
g74
sg49
g50
sS'trials.thisN'
p418
I30
sg19
I1
sg27
g36
(g38
S'\x00\x00\x00\x00\x00\x00\x1a@'
tRp419
sg52
g53
sg23
S'1'
sg18
F122.84519141120836
sg33
g34
sg51
g11
sg20
S'2'
sg65
g36
(g77
S'\x00\x00\x00\x00\x00\x00\x00\x00'
tRp420
sg44
g45
sg40
g41
sg25
F0.2506119521567598
sS'trials.thisIndex'
p421
g36
(g80
S'W\x00\x00\x00'
tRp422
sg26
V5
sS'trials.thisRepN'
p423
I0
sg66
Vtrain
p424
sg63
V../experiment_stimuli/bw_bc_bl/Nonliving_Things/Vehicles/train_8.jpg
p425
sg21
F0.60154721199069172
sS'trials.thisTrialN'
p426
I30
sa(dp427
g31
g32
sg17
F125.45578669628594
sg24
I0
sg35
g39
sg14
F125.45095030334778
sg16
g36
(g70
S'\x01\x00\x00\x00'
tRp428
sg42
g43
sg46
g47
sg15
g72
sg22
F127.31547528831288
sg64
g88
sg62
g89
sg49
g50
sS'trials.thisN'
p429
I31
sg19
I1
sg27
g36
(g38
S'\x00\x00\x00\x00\x00\x00\x1a@'
tRp430
sg52
g53
sg23
S'3'
sg18
F126.75369111576583
sg33
g34
sg51
g11
sg20
S'1'
sg65
g36
(g77
S'\x00\x00\x00\x00\x00\x00\x00\x00'
tRp431
sg44
g45
sg40
g41
sg25
F0.85207535338122398
sS'trials.thisIndex'
p432
g36
(g80
S'\x1b\x00\x00\x00'
tRp433
sg26
V5
sS'trials.thisRepN'
p434
I0
sg66
Velephant
p435
sg63
V../experiment_stimuli/bw_bc_bl/Living_Things/Animals/elephant_14.jpg
p436
sg21
F0.54124335024971515
sS'trials.thisTrialN'
p437
I31
sa(dp438
g31
g32
sg17
F129.90664292674046
sg24
I1
sg35
g39
sg14
F129.90062806592323
sg16
g36
(g70
S'\x01\x00\x00\x00'
tRp439
sg42
g43
sg46
g47
sg15
g72
sg22
F131.82545887527522
sg64
g260
sg62
g89
sg49
g50
sS'trials.thisN'
p440
I32
sg19
I0
sg27
g36
(g38
S'\x00\x00\x00\x00\x00\x00\x18@'
tRp441
sg52
g53
sg23
S'1'
sg18
F131.17329608742148
sg33
g34
sg51
g11
sg20
S'2'
sg65
g36
(g77
S'\x00\x00\x00\x00\x00\x00\x00\x00'
tRp442
sg44
g45
sg40
g41
sg25
F0.90218133106827736
sS'trials.thisIndex'
p443
g36
(g80
S'I\x00\x00\x00'
tRp444
sg26
V5
sS'trials.thisRepN'
p445
I0
sg66
Vscorpion
p446
sg63
V../experiment_stimuli/bw_bc_bl/Living_Things/Insects/scorpion_16.jpg
p447
sg21
F0.6316034923074767
sS'trials.thisTrialN'
p448
I32
sa(dp449
g31
g32
sg17
F134.46535827813204
sg24
I0
sg35
g39
sg14
F134.46053873456549
sg16
g36
(g70
S'\x01\x00\x00\x00'
tRp450
sg42
g43
sg46
g47
sg15
g101
sg22
F136.245044704061
sg64
g182
sg62
g74
sg49
g50
sS'trials.thisN'
p451
I33
sg19
I1
sg27
g36
(g38
S'\x00\x00\x00\x00\x00\x00\x1c@'
tRp452
sg52
g53
sg23
S'3'
sg18
F135.75325382244773
sg33
g34
sg51
g11
sg20
S'1'
sg65
g36
(g77
S'\x00\x00\x00\x00\x00\x00\x00\x00'
tRp453
sg44
g45
sg40
g41
sg25
F0.26078062609303743
sS'trials.thisIndex'
p454
g36
(g80
S'\x19\x00\x00\x00'
tRp455
sg26
V5
sS'trials.thisRepN'
p456
I0
sg66
Vdrum
p457
sg63
V../experiment_stimuli/bw_bc_bl/Nonliving_Things/Musical_Inst/drum_19.jpg
p458
sg21
F0.47124288266059011
sS'trials.thisTrialN'
p459
I33
sa(dp460
g31
g32
sg17
F138.24471778748557
sg24
I0
sg35
g39
sg14
F138.23875987669453
sg16
g36
(g70
S'\x01\x00\x00\x00'
tRp461
sg42
g43
sg46
g47
sg15
g101
sg22
F142.41847628750838
sg64
g73
sg62
g74
sg49
g50
sS'trials.thisN'
p462
I34
sg19
I1
sg27
g36
(g38
S'\x00\x00\x00\x00\x00\x00\x18@'
tRp463
sg52
g53
sg23
S'3'
sg18
F139.51142288697883
sg33
g34
sg51
g11
sg20
S'1'
sg65
g36
(g77
S'\x00\x00\x00\x00\x00\x00\x00\x00'
tRp464
sg44
g45
sg40
g41
sg25
F0.51133069954812527
sS'trials.thisIndex'
p465
g36
(g80
S'Q\x00\x00\x00'
tRp466
sg26
V5
sS'trials.thisRepN'
p467
I0
sg66
Vtable
p468
sg63
V../experiment_stimuli/bw_bc_bl/Nonliving_Things/Furniture/table_10.jpg
p469
sg21
F2.8865026683779433
sS'trials.thisTrialN'
p470
I34
sa(dp471
g31
g32
sg17
F144.66769779310562
sg24
I0
sg35
g39
sg14
F144.66272504127119
sg16
g36
(g70
S'\x02\x00\x00\x00'
tRp472
sg42
g43
sg46
g47
sg15
g101
sg22
F146.80802167824004
sg64
g113
sg62
g89
sg49
g50
sS'trials.thisN'
p473
I35
sg19
I1
sg27
g36
(g38
S'\x00\x00\x00\x00\x00\x00\x18@'
tRp474
sg52
g53
sg23
S'2'
sg18
F145.91534051147755
sg33
g34
sg51
g11
sg20
S'2'
sg65
g36
(g77
S'\x00\x00\x00\x00\x00\x00\x00\x00'
tRp475
sg44
g45
sg40
g41
sg25
F0.29086423676926643
sS'trials.thisIndex'
p476
g36
(g80
S'<\x00\x00\x00'
tRp477
sg26
V5
sS'trials.thisRepN'
p478
I0
sg66
Vpelican
p479
sg63
V../experiment_stimuli/bw_bc_bl/Living_Things/Birds/pelican_0.jpg
p480
sg21
F0.87212542712222785
sS'trials.thisTrialN'
p481
I35
sa(dp482
g31
g32
sg17
F148.83773552649654
sg24
I1
sg35
g39
sg14
F148.83180645399261
sg16
g36
(g70
S'\x01\x00\x00\x00'
tRp483
sg42
g43
sg46
g47
sg15
g72
sg22
F150.85681751649827
sg64
g406
sg62
g89
sg49
g50
sS'trials.thisN'
p484
I36
sg19
I0
sg27
g36
(g38
S'\x00\x00\x00\x00\x00\x00\x1e@'
tRp485
sg52
g53
sg23
S'1'
sg18
F150.07438549643848
sg33
g34
sg51
g11
sg20
S'2'
sg65
g36
(g77
S'\x00\x00\x00\x00\x00\x00\x00\x00'
tRp486
sg44
g45
sg40
g41
sg25
F0.26080514455679804
sS'trials.thisIndex'
p487
g36
(g80
S'\x15\x00\x00\x00'
tRp488
sg26
V5
sS'trials.thisRepN'
p489
I0
sg66
Vcrab
p490
sg63
V../experiment_stimuli/bw_bc_bl/Living_Things/Marine_creatures/crab_26.jpg
p491
sg21
F0.76188683288637549
sS'trials.thisTrialN'
p492
I36
sa(dp493
g31
g32
sg17
F152.85742176300846
sg24
I0
sg35
g39
sg14
F152.85051537363324
sg16
g36
(g70
S'\x01\x00\x00\x00'
tRp494
sg42
g43
sg46
g47
sg15
g101
sg22
F156.13833860284649
sg64
g73
sg62
g74
sg49
g50
sS'trials.thisN'
p495
I37
sg19
I1
sg27
g36
(g38
S'\x00\x00\x00\x00\x00\x00\x18@'
tRp496
sg52
g53
sg23
S'3'
sg18
F154.12319359811954
sg33
g34
sg51
g11
sg20
S'1'
sg65
g36
(g77
S'\x00\x00\x00\x00\x00\x00\x00\x00'
tRp497
sg44
g45
sg40
g41
sg25
F0.46124210860580206
sS'trials.thisIndex'
p498
g36
(g80
S'E\x00\x00\x00'
tRp499
sg26
V5
sS'trials.thisRepN'
p500
I0
sg66
Vrocking-chair
p501
sg63
V../experiment_stimuli/bw_bc_bl/Nonliving_Things/Furniture/rocking-chair_19.jpg
p502
sg21
F1.9945642128586769
sS'trials.thisTrialN'
p503
I37
sa(dp504
g31
g32
sg17
F158.33736134611536
sg24
I1
sg35
g39
sg14
F158.33243467984721
sg16
g36
(g70
S'\x02\x00\x00\x00'
tRp505
sg42
g43
sg46
g47
sg15
g72
sg22
F160.71824816195294
sg64
g73
sg62
g74
sg49
g50
sS'trials.thisN'
p506
I38
sg19
I1
sg27
g36
(g38
S'\x00\x00\x00\x00\x00\x00\x18@'
tRp507
sg52
g53
sg23
S'1'
sg18
F159.57504010584671
sg33
g34
sg51
g11
sg20
S'2'
sg65
g36
(g77
S'\x00\x00\x00\x00\x00\x00\x00\x00'
tRp508
sg44
g45
sg40
g41
sg25
F0.37102087796665728
sS'trials.thisIndex'
p509
g36
(g80
S'\x00\x00\x00\x00'
tRp510
sg26
V5
sS'trials.thisRepN'
p511
I0
sg66
VChest-of-drawers
p512
sg63
V../experiment_stimuli/bw_bc_bl/Nonliving_Things/Furniture/Chest-of-drawers_8.jpg
p513
sg21
F1.122666948242113
sS'trials.thisTrialN'
p514
I38
sa(dp515
g31
g32
sg17
F162.82734889222775
sg24
I1
sg35
g39
sg14
F162.82226354803424
sg16
g36
(g70
S'\x01\x00\x00\x00'
tRp516
sg42
g43
sg46
g47
sg15
g72
sg22
F164.77706780785229
sg64
g113
sg62
g89
sg49
g50
sS'trials.thisN'
p517
I39
sg19
I1
sg27
g36
(g38
S'\x00\x00\x00\x00\x00\x00\x1a@'
tRp518
sg52
g53
sg23
S'1'
sg18
F164.0748186170822
sg33
g34
sg51
g11
sg20
S'1'
sg65
g36
(g77
S'\x00\x00\x00\x00\x00\x00\x00\x00'
tRp519
sg44
g45
sg40
g41
sg25
F0.25076693890150636
sS'trials.thisIndex'
p520
g36
(g80
S'3\x00\x00\x00'
tRp521
sg26
V5
sS'trials.thisRepN'
p522
I0
sg66
Vmagpie
p523
sg63
V../experiment_stimuli/bw_bc_bl/Living_Things/Birds/magpie_26.jpg
p524
sg21
F0.68170630862005055
sS'trials.thisTrialN'
p525
I39
sa(dp526
g31
g32
sg17
F166.76581767143216
sg24
I0
sg35
g39
sg14
F166.76075391331688
sg16
g36
(g70
S'\x02\x00\x00\x00'
tRp527
sg42
g43
sg46
g47
sg15
g101
sg22
F168.85596156481188
sg64
g88
sg62
g89
sg49
g50
sS'trials.thisN'
p528
I40
sg19
I1
sg27
g36
(g38
S'\x00\x00\x00\x00\x00\x00\x1a@'
tRp529
sg52
g53
sg23
S'2'
sg18
F168.04344502452295
sg33
g34
sg51
g11
sg20
S'2'
sg65
g36
(g77
S'\x00\x00\x00\x00\x00\x00\x00\x00'
tRp530
sg44
g45
sg40
g41
sg25
F0.20067209249828011
sS'trials.thisIndex'
p531
g36
(g80
S' \x00\x00\x00'
tRp532
sg26
V5
sS'trials.thisRepN'
p533
I0
sg66
Vgiraffe
p534
sg63
V../experiment_stimuli/bw_bc_bl/Living_Things/Animals/giraffe_0.jpg
p535
sg21
F0.79196039866656065
sS'trials.thisTrialN'
p536
I40
sa(dp537
g31
g32
sg17
F170.79531404201407
sg24
I0
sg35
g39
sg14
F170.7895171927521
sg16
g36
(g70
S'\x02\x00\x00\x00'
tRp538
sg42
g43
sg46
g47
sg15
g101
sg22
F172.51389266247861
sg64
g88
sg62
g89
sg49
g50
sS'trials.thisN'
p539
I41
sg19
I1
sg27
g36
(g38
S'\x00\x00\x00\x00\x00\x00\x18@'
tRp540
sg52
g53
sg23
S'2'
sg18
F172.06219746626448
sg33
g34
sg51
g11
sg20
S'2'
sg65
g36
(g77
S'\x00\x00\x00\x00\x00\x00\x00\x00'
tRp541
sg44
g45
sg40
g41
sg25
F0.2307185378158465
sS'trials.thisIndex'
p542
g36
(g80
S'D\x00\x00\x00'
tRp543
sg26
V5
sS'trials.thisRepN'
p544
I0
sg66
Vrhino
p545
sg63
V../experiment_stimuli/bw_bc_bl/Living_Things/Animals/rhino_1.jpg
p546
sg21
F0.43116531730629504
sS'trials.thisTrialN'
p547
I41
sa(dp548
g31
g32
sg17
F174.48255408834666
sg24
I0
sg35
g39
sg14
F174.47753073577769
sg16
g36
(g70
S'\x01\x00\x00\x00'
tRp549
sg42
g43
sg46
g47
sg15
g101
sg22
F176.21194196038414
sg64
g73
sg62
g74
sg49
g50
sS'trials.thisN'
p550
I42
sg19
I1
sg27
g36
(g38
S'\x00\x00\x00\x00\x00\x00\x18@'
tRp551
sg52
g53
sg23
S'2'
sg18
F175.74019058130216
sg33
g34
sg51
g11
sg20
S'1'
sg65
g36
(g77
S'\x00\x00\x00\x00\x00\x00\x00\x00'
tRp552
sg44
g45
sg40
g41
sg25
F0.22069831693079323
sS'trials.thisIndex'
p553
g36
(g80
S']\x00\x00\x00'
tRp554
sg26
V5
sS'trials.thisRepN'
p555
I0
sg66
Vwardrobe
p556
sg63
V../experiment_stimuli/bw_bc_bl/Nonliving_Things/Furniture/wardrobe_9.jpg
p557
sg21
F0.44118154619354755
sS'trials.thisTrialN'
p558
I42
sa(dp559
g31
g32
sg17
F178.17052307957783
sg24
I1
sg35
g39
sg14
F178.16554954566527
sg16
g36
(g70
S'\x02\x00\x00\x00'
tRp560
sg42
g43
sg46
g47
sg15
g72
sg22
F180.0302293029381
sg64
g182
sg62
g74
sg49
g50
sS'trials.thisN'
p561
I43
sg19
I1
sg27
g36
(g38
S'\x00\x00\x00\x00\x00\x00\x1c@'
tRp562
sg52
g53
sg23
S'1'
sg18
F179.41817262885161
sg33
g34
sg51
g11
sg20
S'2'
sg65
g36
(g77
S'\x00\x00\x00\x00\x00\x00\x00\x00'
tRp563
sg44
g45
sg40
g41
sg25
F0.18063210870604962
sS'trials.thisIndex'
p564
g36
(g80
S'>\x00\x00\x00'
tRp565
sg26
V5
sS'trials.thisRepN'
p566
I0
sg66
Vpiano
p567
sg63
V../experiment_stimuli/bw_bc_bl/Nonliving_Things/Musical_Inst/piano__10.jpg
p568
sg21
F0.5915098445257172
sS'trials.thisTrialN'
p569
I43
sa(dp570
g31
g32
sg17
F181.94867516611703
sg24
I0
sg35
g39
sg14
F181.9437625563005
sg16
g36
(g70
S'\x02\x00\x00\x00'
tRp571
sg42
g43
sg46
g47
sg15
g101
sg22
F183.6881834306987
sg64
g88
sg62
g89
sg49
g50
sS'trials.thisN'
p572
I44
sg19
I1
sg27
g36
(g38
S'\x00\x00\x00\x00\x00\x00\x1a@'
tRp573
sg52
g53
sg23
S'2'
sg18
F183.22645343793556
sg33
g34
sg51
g11
sg20
S'2'
sg65
g36
(g77
S'\x00\x00\x00\x00\x00\x00\x00\x00'
tRp574
sg44
g45
sg40
g41
sg25
F0.21067657286766917
sS'trials.thisIndex'
p575
g36
(g80
S'\x10\x00\x00\x00'
tRp576
sg26
V5
sS'trials.thisRepN'
p577
I0
sg66
Vcheetah
p578
sg63
V../experiment_stimuli/bw_bc_bl/Living_Things/Animals/cheetah_0.jpg
p579
sg21
F0.44118565146345645
sS'trials.thisTrialN'
p580
I44
sa(dp581
g31
g32
sg17
F185.63680183526594
sg24
I1
sg35
g39
sg14
F185.63178117433563
sg16
g36
(g70
S'\x01\x00\x00\x00'
tRp582
sg42
g43
sg46
g47
sg15
g101
sg22
F187.51650229503866
sg64
g272
sg62
g74
sg49
g50
sS'trials.thisN'
p583
I45
sg19
I1
sg27
g36
(g38
S'\x00\x00\x00\x00\x00\x00\x18@'
tRp584
sg52
g53
sg23
S'1'
sg18
F186.90445315826219
sg33
g34
sg51
g11
sg20
S'1'
sg65
g36
(g77
S'\x00\x00\x00\x00\x00\x00\x00\x00'
tRp585
sg44
g45
sg40
g41
sg25
F0.19063536403700709
sS'trials.thisIndex'
p586
g36
(g80
S'M\x00\x00\x00'
tRp587
sg26
V5
sS'trials.thisRepN'
p588
I0
sg66
Vsmall-saucepan
p589
sg63
V../experiment_stimuli/bw_bc_bl/Nonliving_Things/Kitchen_Uten/small-saucepan_4.jpg
p590
sg21
F0.59151326538994908
sS'trials.thisTrialN'
p591
I45
sa(dp592
g31
g32
sg17
F189.44609602086712
sg24
I0
sg35
g39
sg14
F189.44007468642667
sg16
g36
(g70
S'\x01\x00\x00\x00'
tRp593
sg42
g43
sg46
g47
sg15
g72
sg22
F191.62546983547509
sg64
g88
sg62
g89
sg49
g50
sS'trials.thisN'
p594
I46
sg19
I1
sg27
g36
(g38
S'\x00\x00\x00\x00\x00\x00\x18@'
tRp595
sg52
g53
sg23
S'2'
sg18
F190.74279466469306
sg33
g34
sg51
g11
sg20
S'1'
sg65
g36
(g77
S'\x00\x00\x00\x00\x00\x00\x00\x00'
tRp596
sg44
g45
sg40
g41
sg25
F0.65164077270310372
sS'trials.thisIndex'
p597
g36
(g80
S'\x14\x00\x00\x00'
tRp598
sg26
V5
sS'trials.thisRepN'
p599
I0
sg66
Vcow
p600
sg63
V../experiment_stimuli/bw_bc_bl/Living_Things/Animals/cow_23.jpg
p601
sg21
F0.86211280361749232
sS'trials.thisTrialN'
p602
I46
sa(dp603
g31
g32
sg17
F194.01483385276515
sg24
I0
sg35
g39
sg14
F194.01000022666994
sg16
g36
(g70
S'\x01\x00\x00\x00'
tRp604
sg42
g43
sg46
g47
sg15
g72
sg22
F196.04505959677044
sg64
g113
sg62
g89
sg49
g50
sS'trials.thisN'
p605
I47
sg19
I1
sg27
g36
(g38
S'\x00\x00\x00\x00\x00\x00\x1a@'
tRp606
sg52
g53
sg23
S'2'
sg18
F195.31274500943255
sg33
g34
sg51
g11
sg20
S'1'
sg65
g36
(g77
S'\x00\x00\x00\x00\x00\x00\x00\x00'
tRp607
sg44
g45
sg40
g41
sg25
F0.23072278196923435
sS'trials.thisIndex'
p608
g36
(g80
S'9\x00\x00\x00'
tRp609
sg26
V5
sS'trials.thisRepN'
p610
I0
sg66
Vowl
p611
sg63
V../experiment_stimuli/bw_bc_bl/Living_Things/Birds/owl_6.jpg
p612
sg21
F0.71177585900295526
sS'trials.thisTrialN'
p613
I47
sa(dp614
g31
g32
sg17
F198.01360637368634
sg24
I0
sg35
g39
sg14
F198.00868627522141
sg16
g36
(g70
S'\x01\x00\x00\x00'
tRp615
sg42
g43
sg46
g47
sg15
g72
sg22
F199.73310925951228
sg64
g406
sg62
g89
sg49
g50
sS'trials.thisN'
p616
I48
sg19
I1
sg27
g36
(g38
S'\x00\x00\x00\x00\x00\x00\x1a@'
tRp617
sg52
g53
sg23
S'2'
sg18
F199.29138427739963
sg33
g34
sg51
g11
sg20
S'1'
sg65
g36
(g77
S'\x00\x00\x00\x00\x00\x00\x00\x00'
tRp618
sg44
g45
sg40
g41
sg25
F0.2407411162275821
sS'trials.thisIndex'
p619
g36
(g80
S'7\x00\x00\x00'
tRp620
sg26
V5
sS'trials.thisRepN'
p621
I0
sg66
Vnarwhal
p622
sg63
V../experiment_stimuli/bw_bc_bl/Living_Things/Marine_creatures/narwhal_19.jpg
p623
sg21
F0.42116520891431719
sS'trials.thisTrialN'
p624
I48
sa(dp625
g31
g32
sg17
F201.71163190866355
sg24
I0
sg35
g39
sg14
F201.70673070463818
sg16
g36
(g70
S'\x01\x00\x00\x00'
tRp626
sg42
g43
sg46
g47
sg15
g101
sg22
F203.6414209442446
sg64
g182
sg62
g74
sg49
g50
sS'trials.thisN'
p627
I49
sg19
I1
sg27
g36
(g38
S'\x00\x00\x00\x00\x00\x00\x18@'
tRp628
sg52
g53
sg23
S'3'
sg18
F202.97939685406163
sg33
g34
sg51
g11
sg20
S'1'
sg65
g36
(g77
S'\x00\x00\x00\x00\x00\x00\x00\x00'
tRp629
sg44
g45
sg40
g41
sg25
F0.23057094996329397
sS'trials.thisIndex'
p630
g36
(g80
S'$\x00\x00\x00'
tRp631
sg26
V5
sS'trials.thisRepN'
p632
I0
sg66
Vguitar
p633
sg63
V../experiment_stimuli/bw_bc_bl/Nonliving_Things/Musical_Inst/guitar_15.jpg
p634
sg21
F0.64146937313489616
sS'trials.thisTrialN'
p635
I49
sa(dp636
g31
g32
sg17
F205.61223877931479
sg24
I1
sg35
g39
sg14
F205.60520388395526
sg16
g36
(g70
S'\x02\x00\x00\x00'
tRp637
sg42
g43
sg46
g47
sg15
g72
sg22
F207.53001652832609
sg64
g159
sg62
g74
sg49
g50
sS'trials.thisN'
p638
I50
sg19
I0
sg27
g36
(g38
S'\x00\x00\x00\x00\x00\x00\x18@'
tRp639
sg52
g53
sg23
S'1'
sg18
F206.84780423843767
sg33
g34
sg51
g11
sg20
S'1'
sg65
g36
(g77
S'\x00\x00\x00\x00\x00\x00\x00\x00'
tRp640
sg44
g45
sg40
g41
sg25
F0.21067721187137067
sS'trials.thisIndex'
p641
g36
(g80
S'\x07\x00\x00\x00'
tRp642
sg26
V5
sS'trials.thisRepN'
p643
I0
sg66
Vboat
p644
sg63
V../experiment_stimuli/bw_bc_bl/Nonliving_Things/Vehicles/boat_15.jpg
p645
sg21
F0.66166128742042929
sS'trials.thisTrialN'
p646
I50
sa(dp647
g31
g32
sg17
F209.47845006699208
sg24
I1
sg35
g39
sg14
F209.47361111768987
sg16
g36
(g70
S'\x01\x00\x00\x00'
tRp648
sg42
g43
sg46
g47
sg15
g72
sg22
F211.16793052561115
sg64
g406
sg62
g89
sg49
g50
sS'trials.thisN'
p649
I51
sg19
I1
sg27
g36
(g38
S'\x00\x00\x00\x00\x00\x00\x18@'
tRp650
sg52
g53
sg23
S'1'
sg18
F210.74628842878155
sg33
g34
sg51
g11
sg20
S'1'
sg65
g36
(g77
S'\x00\x00\x00\x00\x00\x00\x00\x00'
tRp651
sg44
g45
sg40
g41
sg25
F0.21068706538062543
sS'trials.thisIndex'
p652
g36
(g80
S'\x17\x00\x00\x00'
tRp653
sg26
V5
sS'trials.thisRepN'
p654
I0
sg66
Vdolphin
p655
sg63
V../experiment_stimuli/bw_bc_bl/Living_Things/Marine_creatures/dolphin_2.jpg
p656
sg21
F0.40109714295249432
sS'trials.thisTrialN'
p657
I51
sa(dp658
g31
g32
sg17
F213.11749999178573
sg24
I0
sg35
g39
sg14
F213.11153581051622
sg16
g36
(g70
S'\x02\x00\x00\x00'
tRp659
sg42
g43
sg46
g47
sg15
g72
sg22
F215.29690201254562
sg64
g159
sg62
g74
sg49
g50
sS'trials.thisN'
p660
I52
sg19
I1
sg27
g36
(g38
S'\x00\x00\x00\x00\x00\x00\x18@'
tRp661
sg52
g53
sg23
S'2'
sg18
F214.40423267660663
sg33
g34
sg51
g11
sg20
S'2'
sg65
g36
(g77
S'\x00\x00\x00\x00\x00\x00\x00\x00'
tRp662
sg44
g45
sg40
g41
sg25
F0.24077279993798584
sS'trials.thisIndex'
p663
g36
(g80
S'L\x00\x00\x00'
tRp664
sg26
V5
sS'trials.thisRepN'
p665
I0
sg66
Vship
p666
sg63
V../experiment_stimuli/bw_bc_bl/Nonliving_Things/Vehicles/ship_4.jpg
p667
sg21
F0.87211950996425003
sS'trials.thisTrialN'
p668
I52
sa(dp669
g31
g32
sg17
F217.27544609783217
sg24
I0
sg35
g39
sg14
F217.27056066051591
sg16
g36
(g70
S'\x01\x00\x00\x00'
tRp670
sg42
g43
sg46
g47
sg15
g72
sg22
F219.13527178566437
sg64
g113
sg62
g89
sg49
g50
sS'trials.thisN'
p671
I53
sg19
I1
sg27
g36
(g38
S'\x00\x00\x00\x00\x00\x00\x1a@'
tRp672
sg52
g53
sg23
S'2'
sg18
F218.55325051594991
sg33
g34
sg51
g11
sg20
S'1'
sg65
g36
(g77
S'\x00\x00\x00\x00\x00\x00\x00\x00'
tRp673
sg44
g45
sg40
g41
sg25
F0.17060057178605348
sS'trials.thisIndex'
p674
g36
(g80
S'&\x00\x00\x00'
tRp675
sg26
V5
sS'trials.thisRepN'
p676
I0
sg66
Vhen
p677
sg63
V../experiment_stimuli/bw_bc_bl/Living_Things/Birds/hen_14.jpg
p678
sg21
F0.56144753063563257
sS'trials.thisTrialN'
p679
I53
sa(dp680
g31
g32
sg17
F221.04365764255635
sg24
I0
sg35
g39
sg14
F221.03875278809574
sg16
g36
(g70
S'\x02\x00\x00\x00'
tRp681
sg42
g43
sg46
g47
sg15
g72
sg22
F222.77319476776756
sg64
g159
sg62
g74
sg49
g50
sS'trials.thisN'
p682
I54
sg19
I1
sg27
g36
(g38
S'\x00\x00\x00\x00\x00\x00\x18@'
tRp683
sg52
g53
sg23
S'3'
sg18
F222.31142464058939
sg33
g34
sg51
g11
sg20
S'2'
sg65
g36
(g77
S'\x00\x00\x00\x00\x00\x00\x00\x00'
tRp684
sg44
g45
sg40
g41
sg25
F0.18060778582002968
sS'trials.thisIndex'
p685
g36
(g80
S'\t\x00\x00\x00'
tRp686
sg26
V5
sS'trials.thisRepN'
p687
I0
sg66
Vbus
p688
sg63
V../experiment_stimuli/bw_bc_bl/Nonliving_Things/Vehicles/bus_25.jpg
p689
sg21
F0.44120570027735084
sS'trials.thisTrialN'
p690
I54
sa(dp691
g31
g32
sg17
F224.69150936219376
sg24
I1
sg35
g39
sg14
F224.68669361562934
sg16
g36
(g70
S'\x01\x00\x00\x00'
tRp692
sg42
g43
sg46
g47
sg15
g72
sg22
F226.42109410720877
sg64
g406
sg62
g89
sg49
g50
sS'trials.thisN'
p693
I55
sg19
I0
sg27
g36
(g38
S'\x00\x00\x00\x00\x00\x00\x18@'
tRp694
sg52
g53
sg23
S'1'
sg18
F225.93932369467802
sg33
g34
sg51
g11
sg20
S'2'
sg65
g36
(g77
S'\x00\x00\x00\x00\x00\x00\x00\x00'
tRp695
sg44
g45
sg40
g41
sg25
F0.21067783993203193
sS'trials.thisIndex'
p696
g36
(g80
S'+\x00\x00\x00'
tRp697
sg26
V5
sS'trials.thisRepN'
p698
I0
sg66
Vkiller-whale
p699
sg63
V../experiment_stimuli/bw_bc_bl/Living_Things/Marine_creatures/killer-whale_26.jpg
p700
sg21
F0.46122773282695562
sS'trials.thisTrialN'
p701
I55
sa(dp702
g31
g32
sg17
F228.37075979006477
sg24
I0
sg35
g39
sg14
F228.36468492972199
sg16
g36
(g70
S'\x02\x00\x00\x00'
tRp703
sg42
g43
sg46
g47
sg15
g101
sg22
F230.11916536325589
sg64
g88
sg62
g89
sg49
g50
sS'trials.thisN'
p704
I56
sg19
I1
sg27
g36
(g38
S'\x00\x00\x00\x00\x00\x00\x18@'
tRp705
sg52
g53
sg23
S'2'
sg18
F229.6473701010691
sg33
g34
sg51
g11
sg20
S'2'
sg65
g36
(g77
S'\x00\x00\x00\x00\x00\x00\x00\x00'
tRp706
sg44
g45
sg40
g41
sg25
F0.20067129901144654
sS'trials.thisIndex'
p707
g36
(g80
S'0\x00\x00\x00'
tRp708
sg26
V5
sS'trials.thisRepN'
p709
I0
sg66
Vlioness
p710
sg63
V../experiment_stimuli/bw_bc_bl/Living_Things/Animals/lioness_11.jpg
p711
sg21
F0.45122404163703322
sS'trials.thisTrialN'
p712
I56
sa(dp713
g31
g32
sg17
F232.06006412650459
sg24
I0
sg35
g39
sg14
F232.05269683757797
sg16
g36
(g70
S'\x01\x00\x00\x00'
tRp714
sg42
g43
sg46
g47
sg15
g101
sg22
F233.88734423927963
sg64
g272
sg62
g74
sg49
g50
sS'trials.thisN'
p715
I57
sg19
I1
sg27
g36
(g38
S'\x00\x00\x00\x00\x00\x00 @'
tRp716
sg52
g53
sg23
S'3'
sg18
F233.3253663101932
sg33
g34
sg51
g11
sg20
S'1'
sg65
g36
(g77
S'\x00\x00\x00\x00\x00\x00\x00\x00'
tRp717
sg44
g45
sg40
g41
sg25
F0.28067491657566279
sS'trials.thisIndex'
p718
g36
(g80
S'G\x00\x00\x00'
tRp719
sg26
V5
sS'trials.thisRepN'
p720
I0
sg66
Vsaucepan
p721
sg63
V../experiment_stimuli/bw_bc_bl/Nonliving_Things/Kitchen_Uten/saucepan_7.jpg
p722
sg21
F0.54140867479145527
sS'trials.thisTrialN'
p723
I57
sa(dp724
g31
g32
sg17
F235.9058732627891
sg24
I1
sg35
g39
sg14
F235.90107538818847
sg16
g36
(g70
S'\x02\x00\x00\x00'
tRp725
sg42
g43
sg46
g47
sg15
g72
sg22
F237.93613152124453
sg64
g73
sg62
g74
sg49
g50
sS'trials.thisN'
p726
I58
sg19
I0
sg27
g36
(g38
S'\x00\x00\x00\x00\x00\x00\x1a@'
tRp727
sg52
g53
sg23
S'1'
sg18
F237.14366774272639
sg33
g34
sg51
g11
sg20
S'1'
sg65
g36
(g77
S'\x00\x00\x00\x00\x00\x00\x00\x00'
tRp728
sg44
g45
sg40
g41
sg25
F0.20050620369147509
sS'trials.thisIndex'
p729
g36
(g80
S'.\x00\x00\x00'
tRp730
sg26
V5
sS'trials.thisRepN'
p731
I0
sg66
Vlamp
p732
sg63
V../experiment_stimuli/bw_bc_bl/Nonliving_Things/Furniture/lamp_12.jpg
p733
sg21
F0.77190159575548023
sS'trials.thisTrialN'
p734
I58
sa(dp735
g31
g32
sg17
F239.87461203348357
sg24
I1
sg35
g39
sg14
F239.86969226971269
sg16
g36
(g70
S'\x02\x00\x00\x00'
tRp736
sg42
g43
sg46
g47
sg15
g72
sg22
F241.51391265797429
sg64
g125
sg62
g74
sg49
g50
sS'trials.thisN'
p737
I59
sg19
I0
sg27
g36
(g38
S'\x00\x00\x00\x00\x00\x00\x1a@'
tRp738
sg52
g53
sg23
S'1'
sg18
F241.14237332879566
sg33
g34
sg51
g11
sg20
S'1'
sg65
g36
(g77
S'\x00\x00\x00\x00\x00\x00\x00\x00'
tRp739
sg44
g45
sg40
g41
sg25
F0.23072118440177292
sS'trials.thisIndex'
p740
g36
(g80
S'5\x00\x00\x00'
tRp741
sg26
V5
sS'trials.thisRepN'
p742
I0
sg66
Vmill
p743
sg63
V../experiment_stimuli/bw_bc_bl/Nonliving_Things/Buildings/mill_21.jpg
p744
sg21
F0.35099096572957933
sS'trials.thisTrialN'
p745
I59
sa(dp746
g31
g32
sg17
F243.48230987705756
sg24
I0
sg35
g39
sg14
F243.47752866020892
sg16
g36
(g70
S'\x02\x00\x00\x00'
tRp747
sg42
g43
sg46
g47
sg15
g101
sg22
F245.46248540550005
sg64
g88
sg62
g89
sg49
g50
sS'trials.thisN'
p748
I60
sg19
I1
sg27
g36
(g38
S'\x00\x00\x00\x00\x00\x00\x18@'
tRp749
sg52
g53
sg23
S'2'
sg18
F244.77024558617268
sg33
g34
sg51
g11
sg20
S'2'
sg65
g36
(g77
S'\x00\x00\x00\x00\x00\x00\x00\x00'
tRp750
sg44
g45
sg40
g41
sg25
F0.25076034863013774
sS'trials.thisIndex'
p751
g36
(g80
S"'\x00\x00\x00"
tRp752
sg26
V5
sS'trials.thisRepN'
p753
I0
sg66
Vhippopotamus
p754
sg63
V../experiment_stimuli/bw_bc_bl/Living_Things/Animals/hippopotamus_5.jpg
p755
sg21
F0.67168689914979041
sS'trials.thisTrialN'
p756
I60
sa(dp757
g31
g32
sg17
F247.45235274184961
sg24
I0
sg35
g39
sg14
F247.44616285699885
sg16
g36
(g70
S'\x01\x00\x00\x00'
tRp758
sg42
g43
sg46
g47
sg15
g101
sg22
F249.73178620252293
sg64
g159
sg62
g74
sg49
g50
sS'trials.thisN'
p759
I61
sg19
I1
sg27
g36
(g38
S'\x00\x00\x00\x00\x00\x00\x18@'
tRp760
sg52
g53
sg23
S'3'
sg18
F248.71883478073869
sg33
g34
sg51
g11
sg20
S'1'
sg65
g36
(g77
S'\x00\x00\x00\x00\x00\x00\x00\x00'
tRp761
sg44
g45
sg40
g41
sg25
F0.24073887558188289
sS'trials.thisIndex'
p762
g36
(g80
S'\x0b\x00\x00\x00'
tRp763
sg26
V5
sS'trials.thisRepN'
p764
I0
sg66
Vcar
p765
sg63
V../experiment_stimuli/bw_bc_bl/Nonliving_Things/Vehicles/car_16.jpg
p766
sg21
F0.99240033619571477
sS'trials.thisTrialN'
p767
I61
sa(dp768
g31
g32
sg17
F251.71031697187573
sg24
I0
sg35
g39
sg14
F251.70541946706362
sg16
g36
(g70
S'\x02\x00\x00\x00'
tRp769
sg42
g43
sg46
g47
sg15
g101
sg22
F253.64010956021957
sg64
g260
sg62
g89
sg49
g50
sS'trials.thisN'
p770
I62
sg19
I1
sg27
g36
(g38
S'\x00\x00\x00\x00\x00\x00\x1a@'
tRp771
sg52
g53
sg23
S'2'
sg18
F252.95805251633283
sg33
g34
sg51
g11
sg20
S'2'
sg65
g36
(g77
S'\x00\x00\x00\x00\x00\x00\x00\x00'
tRp772
sg44
g45
sg40
g41
sg25
F0.16056755010504276
sS'trials.thisIndex'
p773
g36
(g80
S'\x18\x00\x00\x00'
tRp774
sg26
V5
sS'trials.thisRepN'
p775
I0
sg66
Vdragonfly
p776
sg63
V../experiment_stimuli/bw_bc_bl/Living_Things/Insects/dragonfly_5.jpg
p777
sg21
F0.66150519927032292
sS'trials.thisTrialN'
p778
I62
sa(dp779
g31
g32
sg17
F255.53853079257533
sg24
I1
sg35
g39
sg14
F255.53373738797382
sg16
g36
(g70
S'\x02\x00\x00\x00'
tRp780
sg42
g43
sg46
g47
sg15
g101
sg22
F257.38841440877877
sg64
g88
sg62
g89
sg49
g50
sS'trials.thisN'
p781
I63
sg19
I1
sg27
g36
(g38
S'\x00\x00\x00\x00\x00\x00\x18@'
tRp782
sg52
g53
sg23
S'1'
sg18
F256.77640217007138
sg33
g34
sg51
g11
sg20
S'2'
sg65
g36
(g77
S'\x00\x00\x00\x00\x00\x00\x00\x00'
tRp783
sg44
g45
sg40
g41
sg25
F0.2005075344350189
sS'trials.thisIndex'
p784
g36
(g80
S'\r\x00\x00\x00'
tRp785
sg26
V5
sS'trials.thisRepN'
p786
I0
sg66
Vcat
p787
sg63
V../experiment_stimuli/bw_bc_bl/Living_Things/Animals/cat_7.jpg
p788
sg21
F0.59150764509104192
sS'trials.thisTrialN'
p789
I63
sa(dp790
g31
g32
sg17
F259.32678793394007
sg24
I1
sg35
g39
sg14
F259.32197307457682
sg16
g36
(g70
S'\x01\x00\x00\x00'
tRp791
sg42
g43
sg46
g47
sg15
g72
sg22
F261.33699662983418
sg64
g406
sg62
g89
sg49
g50
sS'trials.thisN'
p792
I64
sg19
I0
sg27
g36
(g38
S'\x00\x00\x00\x00\x00\x00\x18@'
tRp793
sg52
g53
sg23
S'1'
sg18
F260.58462390874047
sg33
g34
sg51
g11
sg20
S'2'
sg65
g36
(g77
S'\x00\x00\x00\x00\x00\x00\x00\x00'
tRp794
sg44
g45
sg40
g41
sg25
F0.1806127552408725
sS'trials.thisIndex'
p795
g36
(g80
S'K\x00\x00\x00'
tRp796
sg26
V5
sS'trials.thisRepN'
p797
I0
sg66
Vshark
p798
sg63
V../experiment_stimuli/bw_bc_bl/Living_Things/Marine_creatures/shark_7.jpg
p799
sg21
F0.73181005322840065
sS'trials.thisTrialN'
p800
I64
sa(dp801
g31
g32
sg17
F263.25537909159902
sg24
I0
sg35
g39
sg14
F263.2505212102551
sg16
g36
(g70
S'\x01\x00\x00\x00'
tRp802
sg42
g43
sg46
g47
sg15
g101
sg22
F265.35572115832474
sg64
g73
sg62
g74
sg49
g50
sS'trials.thisN'
p803
I65
sg19
I1
sg27
g36
(g38
S'\x00\x00\x00\x00\x00\x00\x1a@'
tRp804
sg52
g53
sg23
S'3'
sg18
F264.53321088140365
sg33
g34
sg51
g11
sg20
S'1'
sg65
g36
(g77
S'\x00\x00\x00\x00\x00\x00\x00\x00'
tRp805
sg44
g45
sg40
g41
sg25
F0.20065525418613106
sS'trials.thisIndex'
p806
g36
(g80
S'/\x00\x00\x00'
tRp807
sg26
V5
sS'trials.thisRepN'
p808
I0
sg66
Vlectern
p809
sg63
V../experiment_stimuli/bw_bc_bl/Nonliving_Things/Furniture/lectern_20.jpg
p810
sg21
F0.79194444371387362
sS'trials.thisTrialN'
p811
I65
sa(dp812
g31
g32
sg17
F267.29414206603542
sg24
I0
sg35
g39
sg14
F267.28929874079768
sg16
g36
(g70
S'\x02\x00\x00\x00'
tRp813
sg42
g43
sg46
g47
sg15
g72
sg22
F269.21412574581336
sg64
g295
sg62
g74
sg49
g50
sS'trials.thisN'
p814
I66
sg19
I1
sg27
g36
(g38
S'\x00\x00\x00\x00\x00\x00\x1c@'
tRp815
sg52
g53
sg23
S'3'
sg18
F268.55194504524115
sg33
g34
sg51
g11
sg20
S'2'
sg65
g36
(g77
S'\x00\x00\x00\x00\x00\x00\x00\x00'
tRp816
sg44
g45
sg40
g41
sg25
F0.24075885664205998
sS'trials.thisIndex'
p817
g36
(g80
S'\x03\x00\x00\x00'
tRp818
sg26
V5
sS'trials.thisRepN'
p819
I0
sg66
Vaxe
p820
sg63
V../experiment_stimuli/bw_bc_bl/Nonliving_Things/Tools/axe_23.jpg
p821
sg21
F0.64161669823806733
sS'trials.thisTrialN'
p822
I66
sa(dp823
g31
g32
sg17
F271.19256307685282
sg24
I1
sg35
g39
sg14
F271.1877821306698
sg16
g36
(g70
S'\x02\x00\x00\x00'
tRp824
sg42
g43
sg46
g47
sg15
g72
sg22
F273.12263743171934
sg64
g272
sg62
g74
sg49
g50
sS'trials.thisN'
p825
I67
sg19
I1
sg27
g36
(g38
S'\x00\x00\x00\x00\x00\x00\x18@'
tRp826
sg52
g53
sg23
S'1'
sg18
F272.43038020690437
sg33
g34
sg51
g11
sg20
S'2'
sg65
g36
(g77
S'\x00\x00\x00\x00\x00\x00\x00\x00'
tRp827
sg44
g45
sg40
g41
sg25
F0.21068526082672179
sS'trials.thisIndex'
p828
g36
(g80
S'\x1e\x00\x00\x00'
tRp829
sg26
V5
sS'trials.thisRepN'
p830
I0
sg66
Vfondue
p831
sg63
V../experiment_stimuli/bw_bc_bl/Nonliving_Things/Kitchen_Uten/fondue_10.jpg
p832
sg21
F0.67171072599012405
sS'trials.thisTrialN'
p833
I67
sa(dp834
g31
g32
sg17
F275.07110065803863
sg24
I0
sg35
g39
sg14
F275.0662092397688
sg16
g36
(g70
S'\x01\x00\x00\x00'
tRp835
sg42
g43
sg46
g47
sg15
g72
sg22
F277.15138314384967
sg64
g88
sg62
g89
sg49
g50
sS'trials.thisN'
p836
I68
sg19
I1
sg27
g36
(g38
S'\x00\x00\x00\x00\x00\x00\x1e@'
tRp837
sg52
g53
sg23
S'2'
sg18
F276.33887351315934
sg33
g34
sg51
g11
sg20
S'1'
sg65
g36
(g77
S'\x00\x00\x00\x00\x00\x00\x00\x00'
tRp838
sg44
g45
sg40
g41
sg25
F0.21067649801261723
sS'trials.thisIndex'
p839
g36
(g80
S'_\x00\x00\x00'
tRp840
sg26
V5
sS'trials.thisRepN'
p841
I0
sg66
Vzebra
p842
sg63
V../experiment_stimuli/bw_bc_bl/Living_Things/Animals/zebra_9.jpg
p843
sg21
F0.79195028205867857
sS'trials.thisTrialN'
p844
I68
sa(dp845
g31
g32
sg17
F279.10260022163857
sg24
I0
sg35
g39
sg14
F279.0949955113465
sg16
g36
(g70
S'\x01\x00\x00\x00'
tRp846
sg42
g43
sg46
g47
sg15
g101
sg22
F282.68341167981271
sg64
g125
sg62
g74
sg49
g50
sS'trials.thisN'
p847
I69
sg19
I1
sg27
g36
(g38
S'\x00\x00\x00\x00\x00\x00\x18@'
tRp848
sg52
g53
sg23
S'3'
sg18
F280.36763175507076
sg33
g34
sg51
g11
sg20
S'1'
sg65
g36
(g77
S'\x00\x00\x00\x00\x00\x00\x00\x00'
tRp849
sg44
g45
sg40
g41
sg25
F0.24074200727045536
sS'trials.thisIndex'
p850
g36
(g80
S'#\x00\x00\x00'
tRp851
sg26
V5
sS'trials.thisRepN'
p852
I0
sg66
Vgranary
p853
sg63
V../experiment_stimuli/bw_bc_bl/Nonliving_Things/Buildings/granary_20.jpg
p854
sg21
F2.2952178017003462
sS'trials.thisTrialN'
p855
I69
sa(dp856
g31
g32
sg17
F284.66189239360392
sg24
I0
sg35
g39
sg14
F284.65707100043073
sg16
g36
(g70
S'\x02\x00\x00\x00'
tRp857
sg42
g43
sg46
g47
sg15
g101
sg22
F287.47381440876052
sg64
g406
sg62
g89
sg49
g50
sS'trials.thisN'
p858
I70
sg19
I1
sg27
g36
(g38
S'\x00\x00\x00\x00\x00\x00\x1a@'
tRp859
sg52
g53
sg23
S'2'
sg18
F285.89965695305727
sg33
g34
sg51
g11
sg20
S'2'
sg65
g36
(g77
S'\x00\x00\x00\x00\x00\x00\x00\x00'
tRp860
sg44
g45
sg40
g41
sg25
F0.22070230531971902
sS'trials.thisIndex'
p861
g36
(g80
S'^\x00\x00\x00'
tRp862
sg26
V5
sS'trials.thisRepN'
p863
I0
sg66
Vwhale
p864
sg63
V../experiment_stimuli/bw_bc_bl/Living_Things/Marine_creatures/whale_11.jpg
p865
sg21
F1.5536001524887979
sS'trials.thisTrialN'
p866
I70
sa(dp867
g31
g32
sg17
F289.43228739011101
sg24
I1
sg35
g39
sg14
F289.42742371931672
sg16
g36
(g70
S'\x01\x00\x00\x00'
tRp868
sg42
g43
sg46
g47
sg15
g72
sg22
F291.2720723352395
sg64
g113
sg62
g89
sg49
g50
sS'trials.thisN'
p869
I71
sg19
I1
sg27
g36
(g38
S'\x00\x00\x00\x00\x00\x00\x18@'
tRp870
sg52
g53
sg23
S'1'
sg18
F290.67002994986251
sg33
g34
sg51
g11
sg20
S'1'
sg65
g36
(g77
S'\x00\x00\x00\x00\x00\x00\x00\x00'
tRp871
sg44
g45
sg40
g41
sg25
F0.42113664140924811
sS'trials.thisIndex'
p872
g36
(g80
S';\x00\x00\x00'
tRp873
sg26
V5
sS'trials.thisRepN'
p874
I0
sg66
Vpartridge
p875
sg63
V../experiment_stimuli/bw_bc_bl/Living_Things/Birds/partridge_25.jpg
p876
sg21
F0.58149114227853715
sS'trials.thisTrialN'
p877
I71
sa(dp878
g31
g32
sg17
F293.43110576760955
sg24
I1
sg35
g39
sg14
F293.42612356471363
sg16
g36
(g70
S'\x01\x00\x00\x00'
tRp879
sg42
g43
sg46
g47
sg15
g101
sg22
F295.82202321814839
sg64
g182
sg62
g74
sg49
g50
sS'trials.thisN'
p880
I72
sg19
I1
sg27
g36
(g38
S'\x00\x00\x00\x00\x00\x00\x18@'
tRp881
sg52
g53
sg23
S'1'
sg18
F294.6687218855368
sg33
g34
sg51
g11
sg20
S'1'
sg65
g36
(g77
S'\x00\x00\x00\x00\x00\x00\x00\x00'
tRp882
sg44
g45
sg40
g41
sg25
F0.29084741708356887
sS'trials.thisIndex'
p883
g36
(g80
S'H\x00\x00\x00'
tRp884
sg26
V5
sS'trials.thisRepN'
p885
I0
sg66
Vsaxophone
p886
sg63
V../experiment_stimuli/bw_bc_bl/Nonliving_Things/Musical_Inst/saxophone_0.jpg
p887
sg21
F1.1326902142027393
sS'trials.thisTrialN'
p888
I72
sa(dp889
g31
g32
sg17
F297.85062930034474
sg24
I1
sg35
g39
sg14
F297.84572624310385
sg16
g36
(g70
S'\x02\x00\x00\x00'
tRp890
sg42
g43
sg46
g47
sg15
g101
sg22
F299.5298696650425
sg64
g113
sg62
g89
sg49
g50
sS'trials.thisN'
p891
I73
sg19
I0
sg27
g36
(g38
S'\x00\x00\x00\x00\x00\x00\x1a@'
tRp892
sg52
g53
sg23
S'1'
sg18
F299.10839330626186
sg33
g34
sg51
g11
sg20
S'1'
sg65
g36
(g77
S'\x00\x00\x00\x00\x00\x00\x00\x00'
tRp893
sg44
g45
sg40
g41
sg25
F0.18063364620320499
sS'trials.thisIndex'
p894
g36
(g80
S'*\x00\x00\x00'
tRp895
sg26
V5
sS'trials.thisRepN'
p896
I0
sg66
Vhummingbird
p897
sg63
V../experiment_stimuli/bw_bc_bl/Living_Things/Birds/hummingbird_17.jpg
p898
sg21
F0.4009385472163558
sS'trials.thisTrialN'
p899
I73
sa(dp900
g31
g32
sg17
F301.44983563397545
sg24
I1
sg35
g39
sg14
F301.44354895350989
sg16
g36
(g70
S'\x02\x00\x00\x00'
tRp901
sg42
g43
sg46
g47
sg15
g101
sg22
F303.31826273282059
sg64
g406
sg62
g89
sg49
g50
sS'trials.thisN'
p902
I74
sg19
I1
sg27
g36
(g38
S'\x00\x00\x00\x00\x00\x00\x1c@'
tRp903
sg52
g53
sg23
S'1'
sg18
F302.73626242484897
sg33
g34
sg51
g11
sg20
S'2'
sg65
g36
(g77
S'\x00\x00\x00\x00\x00\x00\x00\x00'
tRp904
sg44
g45
sg40
g41
sg25
F0.34096030134242028
sS'trials.thisIndex'
p905
g36
(g80
S'1\x00\x00\x00'
tRp906
sg26
V5
sS'trials.thisRepN'
p907
I0
sg66
Vlobster
p908
sg63
V../experiment_stimuli/bw_bc_bl/Living_Things/Marine_creatures/lobster_23.jpg
p909
sg21
F0.5614406360546127
sS'trials.thisTrialN'
p910
I74
sa(dp911
g31
g32
sg17
F305.39689548953902
sg24
I0
sg35
g39
sg14
F305.39212958072312
sg16
g36
(g70
S'\x02\x00\x00\x00'
tRp912
sg42
g43
sg46
g47
sg15
g101
sg22
F307.14657989400439
sg64
g113
sg62
g89
sg49
g50
sS'trials.thisN'
p913
I75
sg19
I1
sg27
g36
(g38
S'\x00\x00\x00\x00\x00\x00\x18@'
tRp914
sg52
g53
sg23
S'3'
sg18
F306.71490958740469
sg33
g34
sg51
g11
sg20
S'2'
sg65
g36
(g77
S'\x00\x00\x00\x00\x00\x00\x00\x00'
tRp915
sg44
g45
sg40
g41
sg25
F0.19064233743119985
sS'trials.thisIndex'
p916
g36
(g80
S'J\x00\x00\x00'
tRp917
sg26
V5
sS'trials.thisRepN'
p918
I0
sg66
Vseagull
p919
sg63
V../experiment_stimuli/bw_bc_bl/Living_Things/Birds/seagull_22.jpg
p920
sg21
F0.41112630756106228
sS'trials.thisTrialN'
p921
I75
sa(dp922
g31
g32
sg17
F309.07505812484305
sg24
I0
sg35
g39
sg14
F309.07012334989849
sg16
g36
(g70
S'\x01\x00\x00\x00'
tRp923
sg42
g43
sg46
g47
sg15
g101
sg22
F311.14529570902232
sg64
g182
sg62
g74
sg49
g50
sS'trials.thisN'
p924
I76
sg19
I1
sg27
g36
(g38
S'\x00\x00\x00\x00\x00\x00\x1c@'
tRp925
sg52
g53
sg23
S'2'
sg18
F310.3628399715526
sg33
g34
sg51
g11
sg20
S'1'
sg65
g36
(g77
S'\x00\x00\x00\x00\x00\x00\x00\x00'
tRp926
sg44
g45
sg40
g41
sg25
F0.23071389528922737
sS'trials.thisIndex'
p927
g36
(g80
S'X\x00\x00\x00'
tRp928
sg26
V5
sS'trials.thisRepN'
p929
I0
sg66
Vtrumpet
p930
sg63
V../experiment_stimuli/bw_bc_bl/Nonliving_Things/Musical_Inst/trumpet_4.jpg
p931
sg21
F0.76190167886670679
sS'trials.thisTrialN'
p932
I76
sa(dp933
g31
g32
sg17
F313.11381939251442
sg24
I0
sg35
g39
sg14
F313.10894690232817
sg16
g36
(g70
S'\x02\x00\x00\x00'
tRp934
sg42
g43
sg46
g47
sg15
g101
sg22
F315.02371054410469
sg64
g113
sg62
g89
sg49
g50
sS'trials.thisN'
p935
I77
sg19
I1
sg27
g36
(g38
S'\x00\x00\x00\x00\x00\x00\x18@'
tRp936
sg52
g53
sg23
S'3'
sg18
F314.39160199137405
sg33
g34
sg51
g11
sg20
S'2'
sg65
g36
(g77
S'\x00\x00\x00\x00\x00\x00\x00\x00'
tRp937
sg44
g45
sg40
g41
sg25
F0.1705905117560178
sS'trials.thisIndex'
p938
g36
(g80
S'O\x00\x00\x00'
tRp939
sg26
V5
sS'trials.thisRepN'
p940
I0
sg66
Vsparrow
p941
sg63
V../experiment_stimuli/bw_bc_bl/Living_Things/Birds/sparrow_6.jpg
p942
sg21
F0.61157004989217967
sS'trials.thisTrialN'
p943
I77
sa(dp944
g31
g32
sg17
F316.93209417513572
sg24
I0
sg35
g39
sg14
F316.92720837693196
sg16
g36
(g70
S'\x02\x00\x00\x00'
tRp945
sg42
g43
sg46
g47
sg15
g72
sg22
F318.66162297746632
sg64
g73
sg62
g74
sg49
g50
sS'trials.thisN'
p946
I78
sg19
I1
sg27
g36
(g38
S'\x00\x00\x00\x00\x00\x00\x1e@'
tRp947
sg52
g53
sg23
S'2'
sg18
F318.19987688725814
sg33
g34
sg51
g11
sg20
S'2'
sg65
g36
(g77
S'\x00\x00\x00\x00\x00\x00\x00\x00'
tRp948
sg44
g45
sg40
g41
sg25
F0.22069510247092694
sS'trials.thisIndex'
p949
g36
(g80
S'N\x00\x00\x00'
tRp950
sg26
V5
sS'trials.thisRepN'
p951
I0
sg66
Vsofa
p952
sg63
V../experiment_stimuli/bw_bc_bl/Nonliving_Things/Furniture/sofa_21.jpg
p953
sg21
F0.44120265881065279
sS'trials.thisTrialN'
p954
I78
sa(dp955
g31
g32
sg17
F320.62002333987039
sg24
I1
sg35
g39
sg14
F320.61522817937657
sg16
g36
(g70
S'\x02\x00\x00\x00'
tRp956
sg42
g43
sg46
g47
sg15
g72
sg22
F322.48992557148449
sg64
g125
sg62
g74
sg49
g50
sS'trials.thisN'
p957
I79
sg19
I1
sg27
g36
(g38
S'\x00\x00\x00\x00\x00\x00\x18@'
tRp958
sg52
g53
sg23
S'1'
sg18
F321.86785188259091
sg33
g34
sg51
g11
sg20
S'2'
sg65
g36
(g77
S'\x00\x00\x00\x00\x00\x00\x00\x00'
tRp959
sg44
g45
sg40
g41
sg25
F0.25076323573011905
sS'trials.thisIndex'
p960
g36
(g80
S'\x0e\x00\x00\x00'
tRp961
sg26
V5
sS'trials.thisRepN'
p962
I0
sg66
Vcathedral
p963
sg63
V../experiment_stimuli/bw_bc_bl/Nonliving_Things/Buildings/cathedral_6.jpg
p964
sg21
F0.60153228347189724
sS'trials.thisTrialN'
p965
I79
sa(dp966
g31
g32
sg17
F324.47852411388885
sg24
I1
sg35
g39
sg14
F324.47360927483533
sg16
g36
(g70
S'\x02\x00\x00\x00'
tRp967
sg42
g43
sg46
g47
sg15
g72
sg22
F326.58885148877744
sg64
g272
sg62
g74
sg49
g50
sS'trials.thisN'
p968
I80
sg19
I0
sg27
g36
(g38
S'\x00\x00\x00\x00\x00\x00\x18@'
tRp969
sg52
g53
sg23
S'1'
sg18
F325.74628505576402
sg33
g34
sg51
g11
sg20
S'1'
sg65
g36
(g77
S'\x00\x00\x00\x00\x00\x00\x00\x00'
tRp970
sg44
g45
sg40
g41
sg25
F0.23072636837605387
sS'trials.thisIndex'
p971
g36
(g80
S'\x12\x00\x00\x00'
tRp972
sg26
V5
sS'trials.thisRepN'
p973
I0
sg66
Vcoking-pot
p974
sg63
V../experiment_stimuli/bw_bc_bl/Nonliving_Things/Kitchen_Uten/coking-pot_9.jpg
p975
sg21
F0.82202017877716571
sS'trials.thisTrialN'
p976
I80
sa(dp977
g31
g32
sg17
F328.5572604034096
sg24
I1
sg35
g39
sg14
F328.55248023127206
sg16
g36
(g70
S'\x01\x00\x00\x00'
tRp978
sg42
g43
sg46
g47
sg15
g72
sg22
F330.35688094981015
sg64
g88
sg62
g89
sg49
g50
sS'trials.thisN'
p979
I81
sg19
I1
sg27
g36
(g38
S'\x00\x00\x00\x00\x00\x00\x1a@'
tRp980
sg52
g53
sg23
S'1'
sg18
F329.84519989800174
sg33
g34
sg51
g11
sg20
S'1'
sg65
g36
(g77
S'\x00\x00\x00\x00\x00\x00\x00\x00'
tRp981
sg44
g45
sg40
g41
sg25
F0.21067825704813004
sS'trials.thisIndex'
p982
g36
(g80
S'Z\x00\x00\x00'
tRp983
sg26
V5
sS'trials.thisRepN'
p984
I0
sg66
Vturtle
p985
sg63
V../experiment_stimuli/bw_bc_bl/Living_Things/Animals/turtle_4.jpg
p986
sg21
F0.49113171454519033
sS'trials.thisTrialN'
p987
I81
sa(dp988
g31
g32
sg17
F332.30547505011782
sg24
I0
sg35
g39
sg14
F332.30062996561173
sg16
g36
(g70
S'\x01\x00\x00\x00'
tRp989
sg42
g43
sg46
g47
sg15
g101
sg22
F334.25554022786673
sg64
g125
sg62
g74
sg49
g50
sS'trials.thisN'
p990
I82
sg19
I1
sg27
g36
(g38
S'\x00\x00\x00\x00\x00\x00\x18@'
tRp991
sg52
g53
sg23
S'3'
sg18
F333.62340985995252
sg33
g34
sg51
g11
sg20
S'1'
sg65
g36
(g77
S'\x00\x00\x00\x00\x00\x00\x00\x00'
tRp992
sg44
g45
sg40
g41
sg25
F0.2607824532315135
sS'trials.thisIndex'
p993
g36
(g80
S'\x0c\x00\x00\x00'
tRp994
sg26
V5
sS'trials.thisRepN'
p995
I0
sg66
Vcastle
p996
sg63
V../experiment_stimuli/bw_bc_bl/Nonliving_Things/Buildings/castle_1.jpg
p997
sg21
F0.61156990693416446
sS'trials.thisTrialN'
p998
I82
sa(dp999
g31
g32
sg17
F336.25393284054007
sg24
I1
sg35
g39
sg14
F336.24921827297658
sg16
g36
(g70
S'\x01\x00\x00\x00'
tRp1000
sg42
g43
sg46
g47
sg15
g72
sg22
F339.17620407987852
sg64
g406
sg62
g89
sg49
g50
sS'trials.thisN'
p1001
I83
sg19
I1
sg27
g36
(g38
S'\x00\x00\x00\x00\x00\x00 @'
tRp1002
sg52
g53
sg23
S'1'
sg18
F337.5519495747285
sg33
g34
sg51
g11
sg20
S'1'
sg65
g36
(g77
S'\x00\x00\x00\x00\x00\x00\x00\x00'
tRp1003
sg44
g45
sg40
g41
sg25
F0.25075702182948589
sS'trials.thisIndex'
p1004
g36
(g80
S'P\x00\x00\x00'
tRp1005
sg26
V5
sS'trials.thisRepN'
p1006
I0
sg66
Vsperm-whale
p1007
sg63
V../experiment_stimuli/bw_bc_bl/Living_Things/Marine_creatures/sperm-whale_18.jpg
p1008
sg21
F1.6037141792476177
sS'trials.thisTrialN'
p1009
I83
sa(dp1010
g31
g32
sg17
F341.16478101001121
sg24
I0
sg35
g39
sg14
F341.15988622687291
sg16
g36
(g70
S'\x02\x00\x00\x00'
tRp1011
sg42
g43
sg46
g47
sg15
g101
sg22
F343.67598665866535
sg64
g88
sg62
g89
sg49
g50
sS'trials.thisN'
p1012
I84
sg19
I1
sg27
g36
(g38
S'\x00\x00\x00\x00\x00\x00\x18@'
tRp1013
sg52
g53
sg23
S'3'
sg18
F342.49366340693086
sg33
g34
sg51
g11
sg20
S'2'
sg65
g36
(g77
S'\x00\x00\x00\x00\x00\x00\x00\x00'
tRp1014
sg44
g45
sg40
g41
sg25
F0.2307165153324604
sS'trials.thisIndex'
p1015
g36
(g80
S'\x01\x00\x00\x00'
tRp1016
sg26
V5
sS'trials.thisRepN'
p1017
I0
sg66
Varmadillo
p1018
sg63
V../experiment_stimuli/bw_bc_bl/Living_Things/Animals/armadillo_8.jpg
p1019
sg21
F1.162755633238703
sS'trials.thisTrialN'
p1020
I84
sa(dp1021
g31
g32
sg17
F345.64450018445496
sg24
I0
sg35
g39
sg14
F345.63962410390377
sg16
g36
(g70
S'\x01\x00\x00\x00'
tRp1022
sg42
g43
sg46
g47
sg15
g101
sg22
F347.57449115300551
sg64
g272
sg62
g74
sg49
g50
sS'trials.thisN'
p1023
I85
sg19
I1
sg27
g36
(g38
S'\x00\x00\x00\x00\x00\x00\x18@'
tRp1024
sg52
g53
sg23
S'3'
sg18
F346.94236017996445
sg33
g34
sg51
g11
sg20
S'1'
sg65
g36
(g77
S'\x00\x00\x00\x00\x00\x00\x00\x00'
tRp1025
sg44
g45
sg40
g41
sg25
F0.2607859643176198
sS'trials.thisIndex'
p1026
g36
(g80
S'B\x00\x00\x00'
tRp1027
sg26
V5
sS'trials.thisRepN'
p1028
I0
sg66
Vpot
p1029
sg63
V../experiment_stimuli/bw_bc_bl/Nonliving_Things/Kitchen_Uten/pot_7.jpg
p1030
sg21
F0.61157365888357162
sS'trials.thisTrialN'
p1031
I85
sa(dp1032
g31
g32
sg17
F349.57307436096016
sg24
I0
sg35
g39
sg14
F349.56816605920903
sg16
g36
(g70
S'\x01\x00\x00\x00'
tRp1033
sg42
g43
sg46
g47
sg15
g101
sg22
F351.38274850777816
sg64
g73
sg62
g74
sg49
g50
sS'trials.thisN'
p1034
I86
sg19
I1
sg27
g36
(g38
S'\x00\x00\x00\x00\x00\x00\x18@'
tRp1035
sg52
g53
sg23
S'3'
sg18
F350.85085867054295
sg33
g34
sg51
g11
sg20
S'1'
sg65
g36
(g77
S'\x00\x00\x00\x00\x00\x00\x00\x00'
tRp1036
sg44
g45
sg40
g41
sg25
F0.21070766658522189
sS'trials.thisIndex'
p1037
g36
(g80
S'\x0f\x00\x00\x00'
tRp1038
sg26
V5
sS'trials.thisRepN'
p1039
I0
sg66
Vchair
p1040
sg63
V../experiment_stimuli/bw_bc_bl/Nonliving_Things/Furniture/chair_14.jpg
p1041
sg21
F0.51133218826726079
sS'trials.thisTrialN'
p1042
I86
sa(dp1043
g31
g32
sg17
F353.33425178844482
sg24
I0
sg35
g39
sg14
F353.32633887208067
sg16
g36
(g70
S'\x01\x00\x00\x00'
tRp1044
sg42
g43
sg46
g47
sg15
g72
sg22
F355.48151958547533
sg64
g113
sg62
g89
sg49
g50
sS'trials.thisN'
p1045
I87
sg19
I1
sg27
g36
(g38
S'\x00\x00\x00\x00\x00\x00\x1c@'
tRp1046
sg52
g53
sg23
S'2'
sg18
F354.57896817312576
sg33
g34
sg51
g11
sg20
S'1'
sg65
g36
(g77
S'\x00\x00\x00\x00\x00\x00\x00\x00'
tRp1047
sg44
g45
sg40
g41
sg25
F0.21068018570076674
sS'trials.thisIndex'
p1048
g36
(g80
S'8\x00\x00\x00'
tRp1049
sg26
V5
sS'trials.thisRepN'
p1050
I0
sg66
Vostrich
p1051
sg63
V../experiment_stimuli/bw_bc_bl/Living_Things/Birds/ostrich_11.jpg
p1052
sg21
F0.88198259030468762
sS'trials.thisTrialN'
p1053
I87
sa(dp1054
g31
g32
sg17
F357.42996884218883
sg24
I0
sg35
g39
sg14
F357.42524445126764
sg16
g36
(g70
S'\x01\x00\x00\x00'
tRp1055
sg42
g43
sg46
g47
sg15
g101
sg22
F359.26992267172318
sg64
g272
sg62
g74
sg49
g50
sS'trials.thisN'
p1056
I88
sg19
I1
sg27
g36
(g38
S'\x00\x00\x00\x00\x00\x00\x18@'
tRp1057
sg52
g53
sg23
S'2'
sg18
F358.66785447113216
sg33
g34
sg51
g11
sg20
S'1'
sg65
g36
(g77
S'\x00\x00\x00\x00\x00\x00\x00\x00'
tRp1058
sg44
g45
sg40
g41
sg25
F0.23072285356465727
sS'trials.thisIndex'
p1059
g36
(g80
S'\x1f\x00\x00\x00'
tRp1060
sg26
V5
sS'trials.thisRepN'
p1061
I0
sg66
Vfrying-pan
p1062
sg63
V../experiment_stimuli/bw_bc_bl/Nonliving_Things/Kitchen_Uten/frying-pan_25.jpg
p1063
sg21
F0.58151293499395251
sS'trials.thisTrialN'
p1064
I88
sa(dp1065
g31
g32
sg17
F361.23836204817053
sg24
I1
sg35
g39
sg14
F361.23354700079653
sg16
g36
(g70
S'\x02\x00\x00\x00'
tRp1066
sg42
g43
sg46
g47
sg15
g72
sg22
F363.06815411383286
sg64
g73
sg62
g74
sg49
g50
sS'trials.thisN'
p1067
I89
sg19
I1
sg27
g36
(g38
S'\x00\x00\x00\x00\x00\x00\x1a@'
tRp1068
sg52
g53
sg23
S'1'
sg18
F362.46611381473485
sg33
g34
sg51
g11
sg20
S'2'
sg65
g36
(g77
S'\x00\x00\x00\x00\x00\x00\x00\x00'
tRp1069
sg44
g45
sg40
g41
sg25
F0.20065225416328758
sS'trials.thisIndex'
p1070
g36
(g80
S'\x13\x00\x00\x00'
tRp1071
sg26
V5
sS'trials.thisRepN'
p1072
I0
sg66
Vcouch
p1073
sg63
V../experiment_stimuli/bw_bc_bl/Nonliving_Things/Furniture/couch_7.jpg
p1074
sg21
F0.58148881513625383
sS'trials.thisTrialN'
p1075
I89
sa(dp1076
g31
g32
sg17
F365.00655638263561
sg24
I1
sg35
g39
sg14
F365.00172180170193
sg16
g36
(g70
S'\x01\x00\x00\x00'
tRp1077
sg42
g43
sg46
g47
sg15
g72
sg22
F366.85623237409163
sg64
g406
sg62
g89
sg49
g50
sS'trials.thisN'
p1078
I90
sg19
I0
sg27
g36
(g38
S'\x00\x00\x00\x00\x00\x00\x18@'
tRp1079
sg52
g53
sg23
S'1'
sg18
F366.25434561062139
sg33
g34
sg51
g11
sg20
S'2'
sg65
g36
(g77
S'\x00\x00\x00\x00\x00\x00\x00\x00'
tRp1080
sg44
g45
sg40
g41
sg25
F0.18061225942801684
sS'trials.thisIndex'
p1081
g36
(g80
S'A\x00\x00\x00'
tRp1082
sg26
V5
sS'trials.thisRepN'
p1083
I0
sg66
Vpomfret
p1084
sg63
V../experiment_stimuli/bw_bc_bl/Living_Things/Marine_creatures/pomfret_7.jpg
p1085
sg21
F0.58133271196857095
sS'trials.thisTrialN'
p1086
I90
sa(dp1087
g31
g32
sg17
F368.77480423520319
sg24
I0
sg35
g39
sg14
F368.76990834332537
sg16
g36
(g70
S'\x02\x00\x00\x00'
tRp1088
sg42
g43
sg46
g47
sg15
g72
sg22
F370.69473575428128
sg64
g272
sg62
g74
sg49
g50
sS'trials.thisN'
p1089
I91
sg19
I1
sg27
g36
(g38
S'\x00\x00\x00\x00\x00\x00\x18@'
tRp1090
sg52
g53
sg23
S'2'
sg18
F370.07264476490673
sg33
g34
sg51
g11
sg20
S'2'
sg65
g36
(g77
S'\x00\x00\x00\x00\x00\x00\x00\x00'
tRp1091
sg44
g45
sg40
g41
sg25
F0.21067609207239002
sS'trials.thisIndex'
p1092
g36
(g80
S'\x16\x00\x00\x00'
tRp1093
sg26
V5
sS'trials.thisRepN'
p1094
I0
sg66
Vcup
p1095
sg63
V../experiment_stimuli/bw_bc_bl/Nonliving_Things/Kitchen_Uten/cup_6.jpg
p1096
sg21
F0.60154739604331553
sS'trials.thisTrialN'
p1097
I91
sa(dp1098
g31
g32
sg17
F372.64313524088357
sg24
I1
sg35
g39
sg14
F372.63831961841788
sg16
g36
(g70
S'\x01\x00\x00\x00'
tRp1099
sg42
g43
sg46
g47
sg15
g72
sg22
F374.44289683434181
sg64
g88
sg62
g89
sg49
g50
sS'trials.thisN'
p1100
I92
sg19
I1
sg27
g36
(g38
S'\x00\x00\x00\x00\x00\x00\x18@'
tRp1101
sg52
g53
sg23
S'1'
sg18
F373.9109902450582
sg33
g34
sg51
g11
sg20
S'1'
sg65
g36
(g77
S'\x00\x00\x00\x00\x00\x00\x00\x00'
tRp1102
sg44
g45
sg40
g41
sg25
F0.23074512043967843
sS'trials.thisIndex'
p1103
g36
(g80
S'T\x00\x00\x00'
tRp1104
sg26
V5
sS'trials.thisRepN'
p1105
I0
sg66
Vtiger
p1106
sg63
V../experiment_stimuli/bw_bc_bl/Living_Things/Animals/tiger_10.jpg
p1107
sg21
F0.51133951137308031
sS'trials.thisTrialN'
p1108
I92
sa(dp1109
g31
g32
sg17
F376.41131754184607
sg24
I0
sg35
g39
sg14
F376.40650692302734
sg16
g36
(g70
S'\x02\x00\x00\x00'
tRp1110
sg42
g43
sg46
g47
sg15
g101
sg22
F378.43155636475421
sg64
g88
sg62
g89
sg49
g50
sS'trials.thisN'
p1111
I93
sg19
I1
sg27
g36
(g38
S'\x00\x00\x00\x00\x00\x00\x1e@'
tRp1112
sg52
g53
sg23
S'2'
sg18
F377.68920259398874
sg33
g34
sg51
g11
sg20
S'2'
sg65
g36
(g77
S'\x00\x00\x00\x00\x00\x00\x00\x00'
tRp1113
sg44
g45
sg40
g41
sg25
F0.20065323554445058
sS'trials.thisIndex'
p1114
g36
(g80
S'(\x00\x00\x00'
tRp1115
sg26
V5
sS'trials.thisRepN'
p1116
I0
sg66
Vhorse
p1117
sg63
V../experiment_stimuli/bw_bc_bl/Living_Things/Animals/horse_16.jpg
p1118
sg21
F0.72179222281556576
sS'trials.thisTrialN'
p1119
I93
sa(dp1120
g31
g32
sg17
F380.36995751329232
sg24
I0
sg35
g39
sg14
F380.36511869577225
sg16
g36
(g70
S'\x01\x00\x00\x00'
tRp1121
sg42
g43
sg46
g47
sg15
g101
sg22
F382.29997007956263
sg64
g159
sg62
g74
sg49
g50
sS'trials.thisN'
p1122
I94
sg19
I1
sg27
g36
(g38
S'\x00\x00\x00\x00\x00\x00\x18@'
tRp1123
sg52
g53
sg23
S'2'
sg18
F381.64784089673776
sg33
g34
sg51
g11
sg20
S'1'
sg65
g36
(g77
S'\x00\x00\x00\x00\x00\x00\x00\x00'
tRp1124
sg44
g45
sg40
g41
sg25
F0.19062835653312504
sS'trials.thisIndex'
p1125
g36
(g80
S'6\x00\x00\x00'
tRp1126
sg26
V5
sS'trials.thisRepN'
p1127
I0
sg66
Vmotorbike
p1128
sg63
V../experiment_stimuli/bw_bc_bl/Nonliving_Things/Vehicles/motorbike_26.jpg
p1129
sg21
F0.63159590191207826
sS'trials.thisTrialN'
p1130
I94
sa(dp1131
g31
g32
sg17
F384.22823193366639
sg24
I0
sg35
g39
sg14
F384.22350682481192
sg16
g36
(g70
S'\x01\x00\x00\x00'
tRp1132
sg42
g43
sg46
g47
sg15
g72
sg22
F386.01805048913229
sg64
g113
sg62
g89
sg49
g50
sS'trials.thisN'
p1133
I95
sg19
I1
sg27
g36
(g38
S'\x00\x00\x00\x00\x00\x00\x18@'
tRp1134
sg52
g53
sg23
S'2'
sg18
F385.49617767741438
sg33
g34
sg51
g11
sg20
S'1'
sg65
g36
(g77
S'\x00\x00\x00\x00\x00\x00\x00\x00'
tRp1135
sg44
g45
sg40
g41
sg25
F0.1906389839714393
sS'trials.thisIndex'
p1136
g36
(g80
S'C\x00\x00\x00'
tRp1137
sg26
V5
sS'trials.thisRepN'
p1138
I0
sg66
Vraven
p1139
sg63
V../experiment_stimuli/bw_bc_bl/Living_Things/Birds/raven_17.jpg
p1140
sg21
F0.50131780141964555
sS'trials.thisTrialN'
p1141
I95
sasS'loops'
p1142
(lp1143
g1
(cpsychopy.data
TrialHandler
p1144
g3
NtRp1145
(dp1146
S'origin'
p1147
NsS'thisTrial'
p1148
(lp1149
sS'_exp'
p1150
I97317136
sg10
S'trials'
p1151
sg6
I-1
sS'thisRepN'
p1152
I1
sg28
I01
sg29
g30
sS'data'
p1153
g1
(cpsychopy.data
DataHandler
p1154
c__builtin__
dict
p1155
(dp1156
g20
cnumpy.core.multiarray
_reconstruct
p1157
(cnumpy
ndarray
p1158
(I0
tS'b'
tRp1159
(I1
(I96
I1
tg37
(S'O4'
I0
I1
tRp1160
(I3
S'|'
NNNI-1
I-1
I63
tbI00
(lp1161
S'2'
aS'2'
aS'1'
aS'2'
aS'2'
aS'1'
aS'1'
aS'1'
aS'1'
aS'2'
aS'1'
aS'1'
aS'1'
aS'2'
aS'2'
aS'1'
aS'2'
aS'2'
aS'1'
aS'2'
aS'1'
aS'2'
aS'2'
aS'1'
aS'2'
aS'1'
aS'2'
aS'1'
aS'1'
aS'2'
aS'2'
aS'1'
aS'2'
aS'1'
aS'2'
aS'1'
aS'1'
aS'2'
aS'1'
aS'2'
aS'2'
aS'2'
aS'1'
aS'2'
aS'2'
aS'1'
aS'1'
aS'1'
aS'2'
aS'2'
aS'1'
aS'1'
aS'2'
aS'1'
aS'1'
aS'1'
aS'1'
aS'1'
aS'2'
aS'1'
aS'2'
aS'1'
aS'2'
aS'2'
aS'1'
aS'2'
aS'1'
aS'1'
aS'2'
aS'1'
aS'1'
aS'1'
aS'1'
aS'2'
aS'2'
aS'2'
aS'2'
aS'1'
aS'2'
aS'2'
aS'1'
aS'1'
aS'1'
aS'1'
aS'1'
aS'2'
aS'1'
aS'2'
aS'1'
aS'2'
aS'1'
aS'2'
aS'1'
aS'1'
aS'2'
aS'1'
atbsg17
cnumpy.ma.core
_mareconstruct
p1162
(cnumpy.ma.core
MaskedArray
p1163
g1158
(I0
tp1164
S'b'
tRp1165
(I1
(I96
I1
tg37
(S'f4'
I0
I1
tRp1166
(I3
S'<'
NNNI-1
I-1
I0
tbI00
S']V\x1eC\x18\x95\xaaC\x04\xe9\xbaA\xa6\xa5\x85C)\x00wA\x95\xc34AY:o@\xbc\x9cMC\xd9\xb1mB-\x0b]Cm(\x86B\xcdswC\x1a\'\xa6C\xdd\x89\x7fC]O\xa0C[\xc9\xaeC\xdc\xf25C\xfa3}B@=\xa2C\x83\x9e\xb4C3r=Cv\xd6\x14C-c\xb8C|zQC\xd7\xb5{C"w\x06C\x85\xf0\xe2B]\xe9\xfaBk\x01\x9dA\x04\xf9\xcbB\xa6\x98\x87C\t\xb7\xb2C\r\xc4&C:\x0f\xb4B\xec^\x95B"\x8d\x8bC.\xb6IC\x80\xc9\x9cB\x84FYCy{sC\xa64\xbcC\xdd\x7f\xd8A\xe1\xec\x94C\x07\xb1`CW\xd4?B\xf3\xcf\xc3B\xe7\xe7kC\xb0\xa0\x83C\xea^dC\x94\xb9\x96C(1\xf3@\xcd\xd3"CE.\xebB\xe7\xdfoC[/\xbeC|\x03FC\xc9\xaa\xb0C\xcc\x03BC?}\x10BU\xb7\x90C\xee\xaa\x10C\x9d\x8aNB\xa7+2Cq\x85\xacB\x97\x05\xf8A\xd7\x80\xb6C\x7f\xd2\xacC7\x1d\xc0C\x9a\xcb*C\x80\xdb\x18C~\xb2^B`\x0fhC.\xb7\x92C\x1a\xe8\x01C\xcd\xb2\x98C\xd4\xa9\x81C\x14\x1eUC\x05\xa39COw\x9eC\x92\x8e\x9cC\x81 \xa8C\xa6>\nC(\xaf\xa4B=\xb7\x8dBRR\xbaC\xd7.\xdbB\x16I\xd3B\xb5\'\xf3B\x9c\x89\x9aCD\x840BTG\xa4C\xc8e\xbcB\x82q!B\x89{.C\xb9T\x8eC\x1a\x89\x89C'
S'\x00\x00\x00\x00\x00\x00\x00\x00\x00\x00\x00\x00\x00\x00\x00\x00\x00\x00\x00\x00\x00\x00\x00\x00\x00\x00\x00\x00\x00\x00\x00\x00\x00\x00\x00\x00\x00\x00\x00\x00\x00\x00\x00\x00\x00\x00\x00\x00\x00\x00\x00\x00\x00\x00\x00\x00\x00\x00\x00\x00\x00\x00\x00\x00\x00\x00\x00\x00\x00\x00\x00\x00\x00\x00\x00\x00\x00\x00\x00\x00\x00\x00\x00\x00\x00\x00\x00\x00\x00\x00\x00\x00\x00\x00\x00\x00'
NtbsS'ran'
p1167
g1162
(g1163
g1158
g1164
S'b'
tRp1168
(I1
(I96
I1
tg1166
I00
S'\x00\x00\x80?\x00\x00\x80?\x00\x00\x80?\x00\x00\x80?\x00\x00\x80?\x00\x00\x80?\x00\x00\x80?\x00\x00\x80?\x00\x00\x80?\x00\x00\x80?\x00\x00\x80?\x00\x00\x80?\x00\x00\x80?\x00\x00\x80?\x00\x00\x80?\x00\x00\x80?\x00\x00\x80?\x00\x00\x80?\x00\x00\x80?\x00\x00\x80?\x00\x00\x80?\x00\x00\x80?\x00\x00\x80?\x00\x00\x80?\x00\x00\x80?\x00\x00\x80?\x00\x00\x80?\x00\x00\x80?\x00\x00\x80?\x00\x00\x80?\x00\x00\x80?\x00\x00\x80?\x00\x00\x80?\x00\x00\x80?\x00\x00\x80?\x00\x00\x80?\x00\x00\x80?\x00\x00\x80?\x00\x00\x80?\x00\x00\x80?\x00\x00\x80?\x00\x00\x80?\x00\x00\x80?\x00\x00\x80?\x00\x00\x80?\x00\x00\x80?\x00\x00\x80?\x00\x00\x80?\x00\x00\x80?\x00\x00\x80?\x00\x00\x80?\x00\x00\x80?\x00\x00\x80?\x00\x00\x80?\x00\x00\x80?\x00\x00\x80?\x00\x00\x80?\x00\x00\x80?\x00\x00\x80?\x00\x00\x80?\x00\x00\x80?\x00\x00\x80?\x00\x00\x80?\x00\x00\x80?\x00\x00\x80?\x00\x00\x80?\x00\x00\x80?\x00\x00\x80?\x00\x00\x80?\x00\x00\x80?\x00\x00\x80?\x00\x00\x80?\x00\x00\x80?\x00\x00\x80?\x00\x00\x80?\x00\x00\x80?\x00\x00\x80?\x00\x00\x80?\x00\x00\x80?\x00\x00\x80?\x00\x00\x80?\x00\x00\x80?\x00\x00\x80?\x00\x00\x80?\x00\x00\x80?\x00\x00\x80?\x00\x00\x80?\x00\x00\x80?\x00\x00\x80?\x00\x00\x80?\x00\x00\x80?\x00\x00\x80?\x00\x00\x80?\x00\x00\x80?\x00\x00\x80?\x00\x00\x80?'
S'\x00\x00\x00\x00\x00\x00\x00\x00\x00\x00\x00\x00\x00\x00\x00\x00\x00\x00\x00\x00\x00\x00\x00\x00\x00\x00\x00\x00\x00\x00\x00\x00\x00\x00\x00\x00\x00\x00\x00\x00\x00\x00\x00\x00\x00\x00\x00\x00\x00\x00\x00\x00\x00\x00\x00\x00\x00\x00\x00\x00\x00\x00\x00\x00\x00\x00\x00\x00\x00\x00\x00\x00\x00\x00\x00\x00\x00\x00\x00\x00\x00\x00\x00\x00\x00\x00\x00\x00\x00\x00\x00\x00\x00\x00\x00\x00'
Ntbsg24
g1162
(g1163
g1158
g1164
S'b'
tRp1169
(I1
(I96
I1
tg1166
I00
S'\x00\x00\x80?\x00\x00\x00\x00\x00\x00\x00\x00\x00\x00\x00\x00\x00\x00\x00\x00\x00\x00\x00\x00\x00\x00\x80?\x00\x00\x80?\x00\x00\x80?\x00\x00\x00\x00\x00\x00\x00\x00\x00\x00\x00\x00\x00\x00\x00\x00\x00\x00\x80?\x00\x00\x80?\x00\x00\x00\x00\x00\x00\x00\x00\x00\x00\x00\x00\x00\x00\x80?\x00\x00\x80?\x00\x00\x00\x00\x00\x00\x80?\x00\x00\x00\x00\x00\x00\x80?\x00\x00\x00\x00\x00\x00\x00\x00\x00\x00\x00\x00\x00\x00\x00\x00\x00\x00\x80?\x00\x00\x00\x00\x00\x00\x80?\x00\x00\x00\x00\x00\x00\x00\x00\x00\x00\x80?\x00\x00\x00\x00\x00\x00\x00\x00\x00\x00\x00\x00\x00\x00\x80?\x00\x00\x00\x00\x00\x00\x00\x00\x00\x00\x00\x00\x00\x00\x80?\x00\x00\x80?\x00\x00\x80?\x00\x00\x80?\x00\x00\x80?\x00\x00\x80?\x00\x00\x00\x00\x00\x00\x00\x00\x00\x00\x80?\x00\x00\x00\x00\x00\x00\x80?\x00\x00\x00\x00\x00\x00\x80?\x00\x00\x00\x00\x00\x00\x00\x00\x00\x00\x00\x00\x00\x00\x00\x00\x00\x00\x00\x00\x00\x00\x80?\x00\x00\x00\x00\x00\x00\x80?\x00\x00\x80?\x00\x00\x80?\x00\x00\x80?\x00\x00\x80?\x00\x00\x00\x00\x00\x00\x00\x00\x00\x00\x00\x00\x00\x00\x00\x00\x00\x00\x80?\x00\x00\x00\x00\x00\x00\x80?\x00\x00\x80?\x00\x00\x00\x00\x00\x00\x80?\x00\x00\x00\x00\x00\x00\x80?\x00\x00\x00\x00\x00\x00\x00\x00\x00\x00\x80?\x00\x00\x00\x00\x00\x00\x00\x00\x00\x00\x80?\x00\x00\x80?\x00\x00\x80?\x00\x00\x00\x00\x00\x00\x80?\x00\x00\x00\x00\x00\x00\x00\x00\x00\x00\x80?\x00\x00\x00\x00\x00\x00\x00\x00\x00\x00\x00\x00\x00\x00\x00\x00\x00\x00\x00\x00'
S'\x00\x00\x00\x00\x00\x00\x00\x00\x00\x00\x00\x00\x00\x00\x00\x00\x00\x00\x00\x00\x00\x00\x00\x00\x00\x00\x00\x00\x00\x00\x00\x00\x00\x00\x00\x00\x00\x00\x00\x00\x00\x00\x00\x00\x00\x00\x00\x00\x00\x00\x00\x00\x00\x00\x00\x00\x00\x00\x00\x00\x00\x00\x00\x00\x00\x00\x00\x00\x00\x00\x00\x00\x00\x00\x00\x00\x00\x00\x00\x00\x00\x00\x00\x00\x00\x00\x00\x00\x00\x00\x00\x00\x00\x00\x00\x00'
Ntbsg14
g1162
(g1163
g1158
g1164
S'b'
tRp1170
(I1
(I96
I1
tg1166
I00
S'\x1aU\x1eCw\x94\xaaCK\xdf\xbaA\x08\xa5\x85C\xa1\xe8vAO\xaf4A\\\xd8m@\xef\x9aMCn\xabmB\xec\t]C\xea%\x86B8rwC{&\xa6C\xa3\x88\x7fC\xc0N\xa0C\xba\xc8\xaeC\x9a\xf15C\xf3.}B\x9f<\xa2C\xe5\x9d\xb4C\xa9p=C\xf1\xd4\x14C\x8cb\xb8C?yQC\x96\xb4{C\xe6u\x06C\x07\xee\xe2B\xe3\xe6\xfaB\x9d\xf7\x9cA\xb9\xf5\xcbB\t\x98\x87Cn\xb6\xb2C\xc1\xc2&CB\x0c\xb4Bv\\\x95B)\x8c\x8bC\xec\xb4IC\xfc\xc6\x9cBCEYC?zsC\x084\xbcC\xdat\xd8AA\xec\x94C\xcb\xaf`CX\xcf?BX\xcd\xc3B\xad\xe6kC\x11\xa0\x83C\\]dC\xc6\xb8\x96CH\x08\xf3@\x80\xd2"C\xf0*\xebB\xa4\xdeoC\xbc.\xbeC9\x02FC\xc5\xa9\xb0C\x8f\x02BC\x94w\x10B\xb6\xb6\x90C\xa8\xa9\x10C\x9e\x85NBa*2C\xf4\x82\xacB\x0c\xf7\xf7A8\x80\xb6C\xdf\xd1\xacC\x9c\x1c\xc0C\x1e\xca*C\xbb\xd9\x18CS\xad^B~\rhC\x8b\xb6\x92C\x90\xe6\x01C1\xb2\x98C6\xa9\x81C\x8e\x1cUC\xbc\xa19C\xafv\x9eC\xf2\x8d\x9cC\xe6\x1f\xa8C\x1f=\nC\xaa\xac\xa4B]\xb4\x8dB\xb4Q\xbaCF,\xdbB\x99F\xd3B"%\xf3B\xfa\x88\x9aC%\x7f0B\xb8F\xa4C\xd3b\xbcB\x85l!B?z.C\x1bT\x8eCz\x88\x89C'
S'\x00\x00\x00\x00\x00\x00\x00\x00\x00\x00\x00\x00\x00\x00\x00\x00\x00\x00\x00\x00\x00\x00\x00\x00\x00\x00\x00\x00\x00\x00\x00\x00\x00\x00\x00\x00\x00\x00\x00\x00\x00\x00\x00\x00\x00\x00\x00\x00\x00\x00\x00\x00\x00\x00\x00\x00\x00\x00\x00\x00\x00\x00\x00\x00\x00\x00\x00\x00\x00\x00\x00\x00\x00\x00\x00\x00\x00\x00\x00\x00\x00\x00\x00\x00\x00\x00\x00\x00\x00\x00\x00\x00\x00\x00\x00\x00'
Ntbsg16
g1157
(g1158
(I0
tS'b'
tRp1171
(I1
(I96
I1
tg1160
I00
(lp1172
g505
ag1011
ag136
ag813
ag112
ag100
ag71
ag637
ag237
ag681
ag259
ag758
ag989
ag780
ag956
ag1033
ag571
ag248
ag967
ag1066
ag593
ag483
ag1088
ag648
ag769
ag450
ag394
ag428
ag124
ag361
ag824
ag1055
ag527
ag328
ag283
ag846
ag626
ag294
ag670
ag747
ag1110
ag147
ag890
ag692
ag204
ag350
ag725
ag802
ag703
ag901
ag87
ag516
ag405
ag736
ag1121
ag615
ag1044
ag604
ag170
ag868
ag472
ag215
ag560
ag317
ag158
ag1077
ag1022
ag1132
ag538
ag494
ag226
ag714
ag879
ag439
ag912
ag791
ag659
ag582
ag945
ag934
ag1000
ag461
ag306
ag271
ag1099
ag383
ag372
ag417
ag923
ag193
ag978
ag339
ag181
ag549
ag857
ag835
atbsg15
g1157
(g1158
(I0
tS'b'
tRp1173
(I1
(I96
I1
tg1160
I00
(lp1174
g72
ag101
ag101
ag72
ag101
ag101
ag72
ag72
ag101
ag72
ag72
ag101
ag101
ag101
ag72
ag101
ag101
ag72
ag72
ag72
ag72
ag72
ag72
ag72
ag101
ag101
ag101
ag72
ag101
ag72
ag72
ag101
ag101
ag72
ag101
ag101
ag101
ag72
ag72
ag101
ag101
ag72
ag101
ag72
ag101
ag72
ag72
ag101
ag101
ag101
ag72
ag72
ag101
ag72
ag101
ag72
ag72
ag72
ag72
ag72
ag101
ag72
ag72
ag101
ag101
ag72
ag101
ag72
ag101
ag101
ag72
ag101
ag101
ag72
ag101
ag72
ag72
ag101
ag72
ag101
ag72
ag101
ag72
ag101
ag72
ag72
ag101
ag72
ag101
ag72
ag72
ag72
ag101
ag101
ag101
ag72
atbsg22
g1162
(g1163
g1158
g1164
S'b'
tRp1175
(I1
(I96
I1
tg1166
I00
S'\xdf\xb7 C\x87\xd6\xabC\xf5\xfc\xc8Ah\x9b\x86C!B\x8dA\x99\x02WA\x08+\xb5@\xaf\x87OC/TuB\xf0\xc5^C\x96\xb7\x89BV\xbbyC\xb6 \xa7C\xb8\xb1\x80C\xb6>\xa1C\xfe\xb0\xafC-\xb07C3R\x82B_K\xa3C\xb9\x88\xb5C\x1f\xa0?CX\xdb\x16C\xedX\xb9C\xfd*SC\xde\xa3}C\xbb>\x08C\xc4\x1e\xe7B\x86\xa1\xfeB\xdf{\xabA$}\xcfB\xb3\x8f\x88C\x8d\xa2\xb3C \xdb(Cqu\xb8B\x9d\xd9\x98BzW\x8dC4\xa4KC\x13\xde\xa0B\xa1"[CevuC=7\xbdC\x92j\xe8A\xd3\xc3\x95C\xcdkbC\xba\xf2FB[\x08\xc8B\xa6\xefmC\x88\xad\x84C\x82\x1efC\xbd\xa8\x97C<D\x15A\xee\xc6$C\xf9\x18\xefB\x90\x83qCe&\xbfC\xad\xbbGC\xa2\xbd\xb1C\x89\x0bDC\x8b\xb0\x19B\xd3\xa2\x91C\xdb\xce\x12C\x12\xbeVB\xbd\x074C\xe0\x1e\xb0B\xb3\xc5\x08B\x99m\xb7C\x89\xc9\xadCO\x02\xc1C\x8e\x83,Cj#\x1cCu\xefeB)\xe3iC8\xe9\x93CQ\xd3\x03C\xc3\x92\x99C#\xab\x82C\x02LWC9\x84;C\xb0T\x9fC\t\x83\x9dC\x8e\x96\xa9C!k\x0eC\x18\xaa\xa8B\xb1_\x91B\xb18\xbbC\x0c\x10\xdfB>%\xd7BB\xef\xf6B\x99\x92\x9bC\xdb\xfe7B\xae-\xa5C\'\xea\xbfBw\xcd(BB60C\xa6\xbc\x8fCa\x93\x8aC'
S'\x00\x00\x00\x00\x00\x00\x00\x00\x00\x00\x00\x00\x00\x00\x00\x00\x00\x00\x00\x00\x00\x00\x00\x00\x00\x00\x00\x00\x00\x00\x00\x00\x00\x00\x00\x00\x00\x00\x00\x00\x00\x00\x00\x00\x00\x00\x00\x00\x00\x00\x00\x00\x00\x00\x00\x00\x00\x00\x00\x00\x00\x00\x00\x00\x00\x00\x00\x00\x00\x00\x00\x00\x00\x00\x00\x00\x00\x00\x00\x00\x00\x00\x00\x00\x00\x00\x00\x00\x00\x00\x00\x00\x00\x00\x00\x00'
Ntbsg26
g1157
(g1158
(I0
tS'b'
tRp1176
(I1
(I96
I1
tg1160
I00
(lp1177
g36
(g80
S'\x02\x00\x00\x00'
tRp1178
ag36
(g80
S'\x0b\x00\x00\x00'
tRp1179
ag36
(g80
S'\x06\x00\x00\x00'
tRp1180
ag36
(g80
S'\x04\x00\x00\x00'
tRp1181
ag36
(g80
S'\x05\x00\x00\x00'
tRp1182
ag36
(g80
S'\x07\x00\x00\x00'
tRp1183
aS'5.0'
p1184
ag36
(g80
S'\x02\x00\x00\x00'
tRp1185
ag36
(g80
S'\x05\x00\x00\x00'
tRp1186
ag36
(g80
S'\x05\x00\x00\x00'
tRp1187
ag36
(g80
S'\x04\x00\x00\x00'
tRp1188
ag36
(g80
S'\x05\x00\x00\x00'
tRp1189
ag36
(g80
S'\n\x00\x00\x00'
tRp1190
ag36
(g80
S'\x02\x00\x00\x00'
tRp1191
ag36
(g80
S'\x03\x00\x00\x00'
tRp1192
ag36
(g80
S'\x06\x00\x00\x00'
tRp1193
ag36
(g80
S'\x06\x00\x00\x00'
tRp1194
ag36
(g80
S'\x06\x00\x00\x00'
tRp1195
ag36
(g80
S'\x05\x00\x00\x00'
tRp1196
ag36
(g80
S'\x01\x00\x00\x00'
tRp1197
ag36
(g80
S'\x08\x00\x00\x00'
tRp1198
ag36
(g80
S'\x02\x00\x00\x00'
tRp1199
ag36
(g80
S'\x06\x00\x00\x00'
tRp1200
ag36
(g80
S'\x05\x00\x00\x00'
tRp1201
ag36
(g80
S'\x03\x00\x00\x00'
tRp1202
ag36
(g80
S'\x07\x00\x00\x00'
tRp1203
ag36
(g80
S'\x08\x00\x00\x00'
tRp1204
ag36
(g80
S'\x08\x00\x00\x00'
tRp1205
ag36
(g80
S'\x04\x00\x00\x00'
tRp1206
ag36
(g80
S'\t\x00\x00\x00'
tRp1207
ag36
(g80
S'\x02\x00\x00\x00'
tRp1208
ag36
(g80
S'\x02\x00\x00\x00'
tRp1209
ag36
(g80
S'\x06\x00\x00\x00'
tRp1210
ag36
(g80
S'\x06\x00\x00\x00'
tRp1211
ag36
(g80
S'\x03\x00\x00\x00'
tRp1212
ag36
(g80
S'\x04\x00\x00\x00'
tRp1213
ag36
(g80
S'\x05\x00\x00\x00'
tRp1214
ag36
(g80
S'\x02\x00\x00\x00'
tRp1215
ag36
(g80
S'\x06\x00\x00\x00'
tRp1216
ag36
(g80
S'\x06\x00\x00\x00'
tRp1217
ag36
(g80
S'\x06\x00\x00\x00'
tRp1218
ag36
(g80
S'\x04\x00\x00\x00'
tRp1219
ag36
(g80
S'\x04\x00\x00\x00'
tRp1220
ag36
(g80
S'\x03\x00\x00\x00'
tRp1221
ag36
(g80
S'\x02\x00\x00\x00'
tRp1222
ag36
(g80
S'\x06\x00\x00\x00'
tRp1223
ag36
(g80
S'\x02\x00\x00\x00'
tRp1224
ag36
(g80
S'\x06\x00\x00\x00'
tRp1225
ag36
(g80
S'\x06\x00\x00\x00'
tRp1226
ag36
(g80
S'\x07\x00\x00\x00'
tRp1227
ag36
(g80
S'\x08\x00\x00\x00'
tRp1228
ag36
(g80
S'\x03\x00\x00\x00'
tRp1229
ag36
(g80
S'\x06\x00\x00\x00'
tRp1230
ag36
(g80
S'\x04\x00\x00\x00'
tRp1231
ag36
(g80
S'\x05\x00\x00\x00'
tRp1232
ag36
(g80
S'\x06\x00\x00\x00'
tRp1233
ag36
(g80
S'\x03\x00\x00\x00'
tRp1234
ag36
(g80
S'\x07\x00\x00\x00'
tRp1235
ag36
(g80
S'\t\x00\x00\x00'
tRp1236
ag36
(g80
S'\x01\x00\x00\x00'
tRp1237
ag36
(g80
S'\x03\x00\x00\x00'
tRp1238
ag36
(g80
S'\x03\x00\x00\x00'
tRp1239
ag36
(g80
S'\x03\x00\x00\x00'
tRp1240
ag36
(g80
S'\x03\x00\x00\x00'
tRp1241
ag36
(g80
S'\x07\x00\x00\x00'
tRp1242
ag36
(g80
S'\x03\x00\x00\x00'
tRp1243
ag36
(g80
S'\x08\x00\x00\x00'
tRp1244
ag36
(g80
S'\x04\x00\x00\x00'
tRp1245
ag36
(g80
S'\x05\x00\x00\x00'
tRp1246
ag36
(g80
S'\x05\x00\x00\x00'
tRp1247
ag36
(g80
S'\x04\x00\x00\x00'
tRp1248
ag36
(g80
S'\x05\x00\x00\x00'
tRp1249
ag36
(g80
S'\x02\x00\x00\x00'
tRp1250
ag36
(g80
S'\x05\x00\x00\x00'
tRp1251
ag36
(g80
S'\t\x00\x00\x00'
tRp1252
ag36
(g80
S'\x04\x00\x00\x00'
tRp1253
ag36
(g80
S'\x07\x00\x00\x00'
tRp1254
ag36
(g80
S'\x05\x00\x00\x00'
tRp1255
ag36
(g80
S'\x04\x00\x00\x00'
tRp1256
ag36
(g80
S'\x06\x00\x00\x00'
tRp1257
ag36
(g80
S'\x08\x00\x00\x00'
tRp1258
ag36
(g80
S'\x05\x00\x00\x00'
tRp1259
ag36
(g80
S'\x04\x00\x00\x00'
tRp1260
ag36
(g80
S'\x02\x00\x00\x00'
tRp1261
ag36
(g80
S'\x05\x00\x00\x00'
tRp1262
ag36
(g80
S'\x05\x00\x00\x00'
tRp1263
ag36
(g80
S'\x07\x00\x00\x00'
tRp1264
ag36
(g80
S'\x05\x00\x00\x00'
tRp1265
ag36
(g80
S'\x07\x00\x00\x00'
tRp1266
ag36
(g80
S'\x05\x00\x00\x00'
tRp1267
ag36
(g80
S'\x07\x00\x00\x00'
tRp1268
ag36
(g80
S'\x08\x00\x00\x00'
tRp1269
ag36
(g80
S'\x08\x00\x00\x00'
tRp1270
ag36
(g80
S'\x04\x00\x00\x00'
tRp1271
ag36
(g80
S'\x02\x00\x00\x00'
tRp1272
ag36
(g80
S'\x05\x00\x00\x00'
tRp1273
atbsg21
g1162
(g1163
g1158
g1164
S'b'
tRp1274
(I1
(I96
I1
tg1166
I00
S"\x8d\xb3\x8f?-\xd5\x94?\xc9(\xec>\xfe@$?+\xa9n?Y\x01U?b\xb0!?\xa2b)?\x92\x1f\x1f?\xb7\xe5\xe1>CV\x00?\xf3\r~?\xd8\x8f\x1c?\x0cm\x17?\x05\xfe\x19?\xab\xe6\x02?\x16\xe3\xe1>\xca\xba\x0f?\xeaoR?s\xdc\x14?m\xb3\\?\x04\x0bC?\x03\xff\x19?\x9b\\\xcd>hX)?\xbfF\xf1>I\x9bE?\xed\x8e\n?\x7f\x08\x08?#\xc1\xdc><\xf5+?\x08\xde\x14?\xeb\xbdJ?h\xf5f?\xc4G\xf1>\xd9\xe4\x12@V7$?$,H?\x06\xbb\x0f?\xac\xf3+?`\xc78?\x8466?\xd1G\xcd>\x0b&\xec>\xe6x\x05?\xba\xdeO?X\x9bE?\xdf\xbcJ?\xd6\x06\xe7>\x93\xba\x0f?\xbb}\xd2>N\x84.?\xa4b)?\x16\xb5\xb3>E\xb0!?\xf7\xa2\xd7>\x9c\xc9a?\xf166?'\xebx?\x9a\xdc\x14?\x9dC_?X-H?0m\x17?\n\x08\x08?2,\xf1?8\xd2\x14?\x17\x90\x1c?]V\x00?\xb3\xc1\xdc>\xe1M\xff?R\x08\x08?\xc2\x99\n?\xfe\xfb\x90?\xc4\xb0!?&\x7f\xd2>\xe7W;?9C_?jm\x17?Q\xe5\xe1>\xdb\x8f\x1c?\x82F\xcd?v\xbc8@\x0066?\xd1K\x12?%\xe7\x02?\xcd\xd1&?\xd3\x8f\x1c?\x00\xff\x19?\xfd\x0bC?p\xdc\x14?\x9eu\xfb>\xd8\xac\xdc>\x14y\x05?\x8c\xe2\xe1>_\xdc\xc6?A\xbdJ?"
S'\x00\x00\x00\x00\x00\x00\x00\x00\x00\x00\x00\x00\x00\x00\x00\x00\x00\x00\x00\x00\x00\x00\x00\x00\x00\x00\x00\x00\x00\x00\x00\x00\x00\x00\x00\x00\x00\x00\x00\x00\x00\x00\x00\x00\x00\x00\x00\x00\x00\x00\x00\x00\x00\x00\x00\x00\x00\x00\x00\x00\x00\x00\x00\x00\x00\x00\x00\x00\x00\x00\x00\x00\x00\x00\x00\x00\x00\x00\x00\x00\x00\x00\x00\x00\x00\x00\x00\x00\x00\x00\x00\x00\x00\x00\x00\x00'
NtbsS'order'
p1275
g1162
(g1163
g1158
g1164
S'b'
tRp1276
(I1
(I96
I1
tg1166
I00
S'\x00\x00\x18B\x00\x00\xa8B\x00\x00\xa0@\x00\x00\x84B\x00\x00@@\x00\x00\x00@\x00\x00\x00\x00\x00\x00HB\x00\x00`A\x00\x00XB\x00\x00\x80A\x00\x00tB\x00\x00\xa4B\x00\x00|B\x00\x00\x9eB\x00\x00\xacB\x00\x000B\x00\x00pA\x00\x00\xa0B\x00\x00\xb2B\x00\x008B\x00\x00\x10B\x00\x00\xb6B\x00\x00LB\x00\x00xB\x00\x00\x04B\x00\x00\xe0A\x00\x00\xf8A\x00\x00\x80@\x00\x00\xc8A\x00\x00\x86B\x00\x00\xb0B\x00\x00 B\x00\x00\xb0A\x00\x00\x90A\x00\x00\x8aB\x00\x00DB\x00\x00\x98A\x00\x00TB\x00\x00pB\x00\x00\xbaB\x00\x00\xc0@\x00\x00\x92B\x00\x00\\B\x00\x000A\x00\x00\xc0A\x00\x00hB\x00\x00\x82B\x00\x00`B\x00\x00\x94B\x00\x00\x80?\x00\x00\x1cB\x00\x00\xe8A\x00\x00lB\x00\x00\xbcB\x00\x00@B\x00\x00\xaeB\x00\x00<B\x00\x00\x00A\x00\x00\x8eB\x00\x00\x0cB\x00\x00@A\x00\x00,B\x00\x00\xa8A\x00\x00\xe0@\x00\x00\xb4B\x00\x00\xaaB\x00\x00\xbeB\x00\x00$B\x00\x00\x14B\x00\x00PA\x00\x00dB\x00\x00\x90B\x00\x00\x00B\x00\x00\x96B\x00\x00\x80B\x00\x00PB\x00\x004B\x00\x00\x9cB\x00\x00\x9aB\x00\x00\xa6B\x00\x00\x08B\x00\x00\xa0A\x00\x00\x88A\x00\x00\xb8B\x00\x00\xd8A\x00\x00\xd0A\x00\x00\xf0A\x00\x00\x98B\x00\x00 A\x00\x00\xa2B\x00\x00\xb8A\x00\x00\x10A\x00\x00(B\x00\x00\x8cB\x00\x00\x88B'
S'\x00\x00\x00\x00\x00\x00\x00\x00\x00\x00\x00\x00\x00\x00\x00\x00\x00\x00\x00\x00\x00\x00\x00\x00\x00\x00\x00\x00\x00\x00\x00\x00\x00\x00\x00\x00\x00\x00\x00\x00\x00\x00\x00\x00\x00\x00\x00\x00\x00\x00\x00\x00\x00\x00\x00\x00\x00\x00\x00\x00\x00\x00\x00\x00\x00\x00\x00\x00\x00\x00\x00\x00\x00\x00\x00\x00\x00\x00\x00\x00\x00\x00\x00\x00\x00\x00\x00\x00\x00\x00\x00\x00\x00\x00\x00\x00'
Ntbsg19
g1162
(g1163
g1158
g1164
S'b'
tRp1277
(I1
(I96
I1
tg1166
I00
S'\x00\x00\x80?\x00\x00\x80?\x00\x00\x80?\x00\x00\x80?\x00\x00\x80?\x00\x00\x80?\x00\x00\x00\x00\x00\x00\x00\x00\x00\x00\x80?\x00\x00\x80?\x00\x00\x80?\x00\x00\x80?\x00\x00\x80?\x00\x00\x80?\x00\x00\x80?\x00\x00\x80?\x00\x00\x80?\x00\x00\x80?\x00\x00\x00\x00\x00\x00\x80?\x00\x00\x80?\x00\x00\x00\x00\x00\x00\x80?\x00\x00\x80?\x00\x00\x80?\x00\x00\x80?\x00\x00\x80?\x00\x00\x80?\x00\x00\x80?\x00\x00\x80?\x00\x00\x80?\x00\x00\x80?\x00\x00\x80?\x00\x00\x80?\x00\x00\x80?\x00\x00\x80?\x00\x00\x80?\x00\x00\x80?\x00\x00\x80?\x00\x00\x80?\x00\x00\x80?\x00\x00\x80?\x00\x00\x00\x00\x00\x00\x00\x00\x00\x00\x80?\x00\x00\x80?\x00\x00\x00\x00\x00\x00\x80?\x00\x00\x80?\x00\x00\x80?\x00\x00\x80?\x00\x00\x80?\x00\x00\x80?\x00\x00\x00\x00\x00\x00\x80?\x00\x00\x80?\x00\x00\x80?\x00\x00\x80?\x00\x00\x80?\x00\x00\x80?\x00\x00\x80?\x00\x00\x80?\x00\x00\x80?\x00\x00\x80?\x00\x00\x80?\x00\x00\x00\x00\x00\x00\x80?\x00\x00\x80?\x00\x00\x80?\x00\x00\x80?\x00\x00\x80?\x00\x00\x80?\x00\x00\x80?\x00\x00\x00\x00\x00\x00\x80?\x00\x00\x00\x00\x00\x00\x80?\x00\x00\x80?\x00\x00\x80?\x00\x00\x80?\x00\x00\x80?\x00\x00\x80?\x00\x00\x80?\x00\x00\x80?\x00\x00\x80?\x00\x00\x00\x00\x00\x00\x80?\x00\x00\x80?\x00\x00\x80?\x00\x00\x80?\x00\x00\x80?\x00\x00\x80?\x00\x00\x80?\x00\x00\x80?\x00\x00\x80?\x00\x00\x80?'
S'\x00\x00\x00\x00\x00\x00\x00\x00\x00\x00\x00\x00\x00\x00\x00\x00\x00\x00\x00\x00\x00\x00\x00\x00\x00\x00\x00\x00\x00\x00\x00\x00\x00\x00\x00\x00\x00\x00\x00\x00\x00\x00\x00\x00\x00\x00\x00\x00\x00\x00\x00\x00\x00\x00\x00\x00\x00\x00\x00\x00\x00\x00\x00\x00\x00\x00\x00\x00\x00\x00\x00\x00\x00\x00\x00\x00\x00\x00\x00\x00\x00\x00\x00\x00\x00\x00\x00\x00\x00\x00\x00\x00\x00\x00\x00\x00'
Ntbsg27
g1157
(g1158
(I0
tS'b'
tRp1278
(I1
(I96
I1
tg1160
I00
(lp1279
g507
ag1013
ag138
ag815
ag115
ag103
ag76
ag639
ag239
ag683
ag262
ag760
ag991
ag782
ag958
ag1035
ag573
ag250
ag969
ag1068
ag595
ag485
ag1090
ag650
ag771
ag452
ag396
ag430
ag127
ag363
ag826
ag1057
ag529
ag330
ag285
ag848
ag628
ag297
ag672
ag749
ag1112
ag149
ag892
ag694
ag206
ag352
ag727
ag804
ag705
ag903
ag91
ag518
ag408
ag738
ag1123
ag617
ag1046
ag606
ag172
ag870
ag474
ag217
ag562
ag319
ag161
ag1079
ag1024
ag1134
ag540
ag496
ag228
ag716
ag881
ag441
ag914
ag793
ag661
ag584
ag947
ag936
ag1002
ag463
ag308
ag274
ag1101
ag385
ag374
ag419
ag925
ag195
ag980
ag341
ag184
ag551
ag859
ag837
atbsg23
g1157
(g1158
(I0
tS'b'
tRp1280
(I1
(I96
I1
tg1160
I00
(lp1281
S'1'
aS'3'
aS'3'
aS'3'
aS'2'
aS'3'
aS'1'
aS'1'
aS'1'
aS'3'
aS'3'
aS'3'
aS'3'
aS'1'
aS'1'
aS'3'
aS'2'
aS'3'
aS'1'
aS'1'
aS'2'
aS'1'
aS'2'
aS'1'
aS'2'
aS'3'
aS'3'
aS'3'
aS'1'
aS'3'
aS'1'
aS'2'
aS'2'
aS'1'
aS'2'
aS'3'
aS'3'
aS'1'
aS'2'
aS'2'
aS'2'
aS'1'
aS'1'
aS'1'
aS'1'
aS'1'
aS'1'
aS'3'
aS'2'
aS'1'
aS'2'
aS'1'
aS'2'
aS'1'
aS'2'
aS'2'
aS'2'
aS'2'
aS'2'
aS'1'
aS'2'
aS'1'
aS'1'
aS'1'
aS'1'
aS'1'
aS'3'
aS'2'
aS'2'
aS'3'
aS'1'
aS'3'
aS'1'
aS'1'
aS'3'
aS'1'
aS'2'
aS'1'
aS'2'
aS'3'
aS'1'
aS'3'
aS'2'
aS'1'
aS'1'
aS'1'
aS'3'
aS'1'
aS'2'
aS'3'
aS'1'
aS'3'
aS'3'
aS'2'
aS'2'
aS'2'
atbsg18
g1162
(g1163
g1158
g1164
S'b'
tRp1282
(I1
(I96
I1
tg1166
I00
S'6\x93\x1fC0?\xabC="\xc5A\xa6F\x86C\xbe\xa2\x85AE^IA\xf5\xf7\x9f@\n\xd9NC\xa4\xc2rB\xbaO^Cm\xac\x88B\x06\xb8xC\xcc\xcf\xa6Cac\x80C\x16\xef\xa0C\xe9l\xafC\xf997C5(\x81B\x86\xdf\xa2C\xaa;\xb5C(\xbe>C\x0b\x13\x16CL\t\xb9C\r\xbfRCC\xf5|C\xd5\xc0\x07C\x08\x89\xe5B\xe4\x81\xfdB\x83\x11\xa7A\xdb\x95\xceB\x177\x88C|U\xb3C\x1f\x0b(C\xff\x9c\xb6B\xce\xdd\x97B\x0f/\x8cC\xba\xfaJC4C\x9fB\xa2\x8dZC/\xc5tC8\xd8\xbcC\xc6\x8e\xe2A\xe0\x8d\x95Cx\xf0aC\xc9\xc7DB\x15^\xc6B\xc7$mC@D\x84C\xba\xa5eC>^\x97C#\\\x0eA\'\x13$C\xad\xbb\xedBs$qC\xec\xd2\xbeC\x98JGC\x1cJ\xb1C\x10PCC\xd3\xb7\x15B\xc4U\x91CT\xea\x11CO\x88SB\rk3CJ\x04\xafBB\'\x01B\x8e \xb7C\x9fx\xadC\x83\xbf\xc0C\xec\x0f,C\x8a\x1f\x1aCF\xbacBKSiC\x99U\x93C],\x03C\x82[\x99C\xd5J\x82C|gVC\x8a\xe7:C\x96\x19\x9fC 2\x9dC\xa6\xc6\xa8C\xed\x82\x0bC#3\xa7B\x930\x90B\x9b\xf4\xbaC\xe0\xb7\xddBw\xdc\xd5B\xbd\xb0\xf5Br.\x9bC[\x965B0\xec\xa4C\xd3\xfd\xbeB\x86\xa2&B}\xbd/C(\xf3\x8eC`+\x8aC'
S'\x00\x00\x00\x00\x00\x00\x00\x00\x00\x00\x00\x00\x00\x00\x00\x00\x00\x00\x00\x00\x00\x00\x00\x00\x00\x00\x00\x00\x00\x00\x00\x00\x00\x00\x00\x00\x00\x00\x00\x00\x00\x00\x00\x00\x00\x00\x00\x00\x00\x00\x00\x00\x00\x00\x00\x00\x00\x00\x00\x00\x00\x00\x00\x00\x00\x00\x00\x00\x00\x00\x00\x00\x00\x00\x00\x00\x00\x00\x00\x00\x00\x00\x00\x00\x00\x00\x00\x00\x00\x00\x00\x00\x00\x00\x00\x00'
Ntbsg25
g1162
(g1163
g1158
g1164
S'b'
tRp1283
(I1
(I96
I1
tg1166
I00
S"s\xf6\xbd>\xf3@l>\xc2|M>}\x89v>\x8aAl>+\x86\x85>DPM>\xc4\xbbW>AAl>?\xf18>\xb4\x86\x85>@\x84v>G\x85\x85>\xd9QM>\nd\x80>\xc0\xc3W>\x99\xbbW>U\xf38>\x88Cl>\xc9wM>\xee\xd1&?@\x88\x85>y\xbbW>Z\xbeW>\xd2k$>\n\x85\x85>\xd4\xea\x94>\x9c!Z?E:C>\xeaj$>\xe1\xbdW>\x9dBl>\xfc|M>\xd1?l>+Hl>\x13\x85v>\xcb\x1al>2\xb4.>\xeb\xb1.>\xa9c\x80>\x0bxM>o\xbaW>\x07\xf88>\xef\xbbW>\xf2p$>\xd9@l>\x80QM>\x92xM>\xc7|M>Y\x92\xae>\xb4Al>\x86d\x80>\xe8\xed\x94>-Bl>\x144C>\xd7\x84v>\x8c\xbcW>\x98Bl>\xf4xM>9\x9f\xd7>(\xec\x94>rc\x80>\xa0\xf78>TAl>\x925C>l\xf28>\xbd\x85\x85>\xde6C>{Al>\xed'\xec>\xf5xM>\x9f\xb4\x8f>\xf4\xe9\x94>[\xf5f?\xbf7C>\x8d\xf28>%\x8dv>\xeb5C>\xe6\xfda>G\xaf.>9c\x80>\x92\xe6\x02?\xfe4C>\x9c\x85\x85>sHl>\xffwM>Q\xc9\x8f>6P\x80>C@l>\xe2\xfba>\n\xbcW>\x97\xbcW>\x993C>\xbd\xfea>\xc9\xffa>\x94\xbbW>"
S'\x00\x00\x00\x00\x00\x00\x00\x00\x00\x00\x00\x00\x00\x00\x00\x00\x00\x00\x00\x00\x00\x00\x00\x00\x00\x00\x00\x00\x00\x00\x00\x00\x00\x00\x00\x00\x00\x00\x00\x00\x00\x00\x00\x00\x00\x00\x00\x00\x00\x00\x00\x00\x00\x00\x00\x00\x00\x00\x00\x00\x00\x00\x00\x00\x00\x00\x00\x00\x00\x00\x00\x00\x00\x00\x00\x00\x00\x00\x00\x00\x00\x00\x00\x00\x00\x00\x00\x00\x00\x00\x00\x00\x00\x00\x00\x00'
NtbstRp1284
(dp1285
S'isNumeric'
p1286
(dp1287
g23
I00
sg20
I00
sg17
I01
sg1167
I01
sg22
I01
sg24
I01
sg14
I01
sg18
I01
sg16
I00
sg19
I01
sg26
I00
sg27
I00
sg15
I00
sg21
I01
sg1275
I01
sg25
I01
ssg1151
g1145
sS'dataTypes'
p1288
(lp1289
g1167
ag1275
ag14
ag15
ag16
ag17
ag18
ag19
ag20
ag21
ag22
ag23
ag24
ag25
ag26
ag27
asS'dataShape'
p1290
(lp1291
I96
aI1
asbsS'method'
p1292
S'random'
p1293
sS'sequenceIndices'
p1294
g1157
(g1158
(I0
tS'b'
tRp1295
(I1
(I96
I1
tg80
I01
S'\x06\x00\x00\x002\x00\x00\x00\x05\x00\x00\x00\x04\x00\x00\x00\x1c\x00\x00\x00\x02\x00\x00\x00)\x00\x00\x00@\x00\x00\x00:\x00\x00\x00\\\x00\x00\x00Y\x00\x00\x00,\x00\x00\x00=\x00\x00\x00F\x00\x00\x00\x08\x00\x00\x00\x11\x00\x00\x00\n\x00\x00\x00S\x00\x00\x00"\x00\x00\x00%\x00\x00\x00R\x00\x00\x00?\x00\x00\x00!\x00\x00\x00[\x00\x00\x00-\x00\x00\x00\x1d\x00\x00\x00V\x00\x00\x00U\x00\x00\x00\x1a\x00\x00\x004\x00\x00\x00W\x00\x00\x00\x1b\x00\x00\x00I\x00\x00\x00\x19\x00\x00\x00Q\x00\x00\x00<\x00\x00\x00\x15\x00\x00\x00E\x00\x00\x00\x00\x00\x00\x003\x00\x00\x00 \x00\x00\x00D\x00\x00\x00]\x00\x00\x00>\x00\x00\x00\x10\x00\x00\x00M\x00\x00\x00\x14\x00\x00\x009\x00\x00\x007\x00\x00\x00$\x00\x00\x00\x07\x00\x00\x00\x17\x00\x00\x00L\x00\x00\x00&\x00\x00\x00\t\x00\x00\x00+\x00\x00\x000\x00\x00\x00G\x00\x00\x00.\x00\x00\x005\x00\x00\x00\'\x00\x00\x00\x0b\x00\x00\x00\x18\x00\x00\x00\r\x00\x00\x00K\x00\x00\x00/\x00\x00\x00\x03\x00\x00\x00\x1e\x00\x00\x00_\x00\x00\x00#\x00\x00\x00^\x00\x00\x00;\x00\x00\x00H\x00\x00\x00*\x00\x00\x001\x00\x00\x00J\x00\x00\x00X\x00\x00\x00O\x00\x00\x00N\x00\x00\x00\x0e\x00\x00\x00\x12\x00\x00\x00Z\x00\x00\x00\x0c\x00\x00\x00P\x00\x00\x00\x01\x00\x00\x00B\x00\x00\x00\x0f\x00\x00\x008\x00\x00\x00\x1f\x00\x00\x00\x13\x00\x00\x00A\x00\x00\x00\x16\x00\x00\x00T\x00\x00\x00(\x00\x00\x006\x00\x00\x00C\x00\x00\x00'
tbsS'finished'
p1296
I01
sS'nReps'
p1297
I1
sS'nRemaining'
p1298
I-1
sS'trialList'
p1299
(lp1300
g1
(cpsychopy.data
TrialType
p1301
g1155
(dp1302
g62
g74
sg63
g513
sg64
g73
sg65
g508
sg66
g512
stRp1303
ag1
(g1301
g1155
(dp1304
g62
g89
sg63
g1019
sg64
g88
sg65
g1014
sg66
g1018
stRp1305
ag1
(g1301
g1155
(dp1306
g62
g74
sg63
g144
sg64
g73
sg65
g139
sg66
g143
stRp1307
ag1
(g1301
g1155
(dp1308
g62
g74
sg63
g821
sg64
g295
sg65
g816
sg66
g820
stRp1309
ag1
(g1301
g1155
(dp1310
g62
g89
sg63
g121
sg64
g113
sg65
g116
sg66
g120
stRp1311
ag1
(g1301
g1155
(dp1312
g62
g74
sg63
g109
sg64
g73
sg65
g104
sg66
g108
stRp1313
ag1
(g1301
g1155
(dp1314
g62
g74
sg63
g84
sg64
g73
sg65
g78
sg66
g83
stRp1315
ag1
(g1301
g1155
(dp1316
g62
g74
sg63
g645
sg64
g159
sg65
g640
sg66
g644
stRp1317
ag1
(g1301
g1155
(dp1318
g62
g74
sg63
g245
sg64
g73
sg65
g240
sg66
g244
stRp1319
ag1
(g1301
g1155
(dp1320
g62
g74
sg63
g689
sg64
g159
sg65
g684
sg66
g688
stRp1321
ag1
(g1301
g1155
(dp1322
g62
g89
sg63
g268
sg64
g260
sg65
g263
sg66
g267
stRp1323
ag1
(g1301
g1155
(dp1324
g62
g74
sg63
g766
sg64
g159
sg65
g761
sg66
g765
stRp1325
ag1
(g1301
g1155
(dp1326
g62
g74
sg63
g997
sg64
g125
sg65
g992
sg66
g996
stRp1327
ag1
(g1301
g1155
(dp1328
g62
g89
sg63
g788
sg64
g88
sg65
g783
sg66
g787
stRp1329
ag1
(g1301
g1155
(dp1330
g62
g74
sg63
g964
sg64
g125
sg65
g959
sg66
g963
stRp1331
ag1
(g1301
g1155
(dp1332
g62
g74
sg63
g1041
sg64
g73
sg65
g1036
sg66
g1040
stRp1333
ag1
(g1301
g1155
(dp1334
g62
g89
sg63
g579
sg64
g88
sg65
g574
sg66
g578
stRp1335
ag1
(g1301
g1155
(dp1336
g62
g74
sg63
g256
sg64
g125
sg65
g251
sg66
g255
stRp1337
ag1
(g1301
g1155
(dp1338
g62
g74
sg63
g975
sg64
g272
sg65
g970
sg66
g974
stRp1339
ag1
(g1301
g1155
(dp1340
g62
g74
sg63
g1074
sg64
g73
sg65
g1069
sg66
g1073
stRp1341
ag1
(g1301
g1155
(dp1342
g62
g89
sg63
g601
sg64
g88
sg65
g596
sg66
g600
stRp1343
ag1
(g1301
g1155
(dp1344
g62
g89
sg63
g491
sg64
g406
sg65
g486
sg66
g490
stRp1345
ag1
(g1301
g1155
(dp1346
g62
g74
sg63
g1096
sg64
g272
sg65
g1091
sg66
g1095
stRp1347
ag1
(g1301
g1155
(dp1348
g62
g89
sg63
g656
sg64
g406
sg65
g651
sg66
g655
stRp1349
ag1
(g1301
g1155
(dp1350
g62
g89
sg63
g777
sg64
g260
sg65
g772
sg66
g776
stRp1351
ag1
(g1301
g1155
(dp1352
g62
g74
sg63
g458
sg64
g182
sg65
g453
sg66
g457
stRp1353
ag1
(g1301
g1155
(dp1354
g62
g89
sg63
g402
sg64
g113
sg65
g397
sg66
g401
stRp1355
ag1
(g1301
g1155
(dp1356
g62
g89
sg63
g436
sg64
g88
sg65
g431
sg66
g435
stRp1357
ag1
(g1301
g1155
(dp1358
g62
g74
sg63
g133
sg64
g125
sg65
g128
sg66
g132
stRp1359
ag1
(g1301
g1155
(dp1360
g62
g74
sg63
g369
sg64
g73
sg65
g364
sg66
g368
stRp1361
ag1
(g1301
g1155
(dp1362
g62
g74
sg63
g832
sg64
g272
sg65
g827
sg66
g831
stRp1363
ag1
(g1301
g1155
(dp1364
g62
g74
sg63
g1063
sg64
g272
sg65
g1058
sg66
g1062
stRp1365
ag1
(g1301
g1155
(dp1366
g62
g89
sg63
g535
sg64
g88
sg65
g530
sg66
g534
stRp1367
ag1
(g1301
g1155
(dp1368
g62
g89
sg63
g336
sg64
g113
sg65
g331
sg66
g335
stRp1369
ag1
(g1301
g1155
(dp1370
g62
g89
sg63
g291
sg64
g113
sg65
g286
sg66
g290
stRp1371
ag1
(g1301
g1155
(dp1372
g62
g74
sg63
g854
sg64
g125
sg65
g849
sg66
g853
stRp1373
ag1
(g1301
g1155
(dp1374
g62
g74
sg63
g634
sg64
g182
sg65
g629
sg66
g633
stRp1375
ag1
(g1301
g1155
(dp1376
g62
g74
sg63
g303
sg64
g295
sg65
g298
sg66
g302
stRp1377
ag1
(g1301
g1155
(dp1378
g62
g89
sg63
g678
sg64
g113
sg65
g673
sg66
g677
stRp1379
ag1
(g1301
g1155
(dp1380
g62
g89
sg63
g755
sg64
g88
sg65
g750
sg66
g754
stRp1381
ag1
(g1301
g1155
(dp1382
g62
g89
sg63
g1118
sg64
g88
sg65
g1113
sg66
g1117
stRp1383
ag1
(g1301
g1155
(dp1384
g62
g74
sg63
g155
sg64
g125
sg65
g150
sg66
g154
stRp1385
ag1
(g1301
g1155
(dp1386
g62
g89
sg63
g898
sg64
g113
sg65
g893
sg66
g897
stRp1387
ag1
(g1301
g1155
(dp1388
g62
g89
sg63
g700
sg64
g406
sg65
g695
sg66
g699
stRp1389
ag1
(g1301
g1155
(dp1390
g62
g89
sg63
g212
sg64
g113
sg65
g207
sg66
g211
stRp1391
ag1
(g1301
g1155
(dp1392
g62
g89
sg63
g358
sg64
g260
sg65
g353
sg66
g357
stRp1393
ag1
(g1301
g1155
(dp1394
g62
g74
sg63
g733
sg64
g73
sg65
g728
sg66
g732
stRp1395
ag1
(g1301
g1155
(dp1396
g62
g74
sg63
g810
sg64
g73
sg65
g805
sg66
g809
stRp1397
ag1
(g1301
g1155
(dp1398
g62
g89
sg63
g711
sg64
g88
sg65
g706
sg66
g710
stRp1399
ag1
(g1301
g1155
(dp1400
g62
g89
sg63
g909
sg64
g406
sg65
g904
sg66
g908
stRp1401
ag1
(g1301
g1155
(dp1402
g62
g89
sg63
g97
sg64
g88
sg65
g92
sg66
g96
stRp1403
ag1
(g1301
g1155
(dp1404
g62
g89
sg63
g524
sg64
g113
sg65
g519
sg66
g523
stRp1405
ag1
(g1301
g1155
(dp1406
g62
g89
sg63
g414
sg64
g406
sg65
g409
sg66
g413
stRp1407
ag1
(g1301
g1155
(dp1408
g62
g74
sg63
g744
sg64
g125
sg65
g739
sg66
g743
stRp1409
ag1
(g1301
g1155
(dp1410
g62
g74
sg63
g1129
sg64
g159
sg65
g1124
sg66
g1128
stRp1411
ag1
(g1301
g1155
(dp1412
g62
g89
sg63
g623
sg64
g406
sg65
g618
sg66
g622
stRp1413
ag1
(g1301
g1155
(dp1414
g62
g89
sg63
g1052
sg64
g113
sg65
g1047
sg66
g1051
stRp1415
ag1
(g1301
g1155
(dp1416
g62
g89
sg63
g612
sg64
g113
sg65
g607
sg66
g611
stRp1417
ag1
(g1301
g1155
(dp1418
g62
g74
sg63
g178
sg64
g125
sg65
g173
sg66
g177
stRp1419
ag1
(g1301
g1155
(dp1420
g62
g89
sg63
g876
sg64
g113
sg65
g871
sg66
g875
stRp1421
ag1
(g1301
g1155
(dp1422
g62
g89
sg63
g480
sg64
g113
sg65
g475
sg66
g479
stRp1423
ag1
(g1301
g1155
(dp1424
g62
g89
sg63
g223
sg64
g113
sg65
g218
sg66
g222
stRp1425
ag1
(g1301
g1155
(dp1426
g62
g74
sg63
g568
sg64
g182
sg65
g563
sg66
g567
stRp1427
ag1
(g1301
g1155
(dp1428
g62
g89
sg63
g325
sg64
g113
sg65
g320
sg66
g324
stRp1429
ag1
(g1301
g1155
(dp1430
g62
g74
sg63
g167
sg64
g159
sg65
g162
sg66
g166
stRp1431
ag1
(g1301
g1155
(dp1432
g62
g89
sg63
g1085
sg64
g406
sg65
g1080
sg66
g1084
stRp1433
ag1
(g1301
g1155
(dp1434
g62
g74
sg63
g1030
sg64
g272
sg65
g1025
sg66
g1029
stRp1435
ag1
(g1301
g1155
(dp1436
g62
g89
sg63
g1140
sg64
g113
sg65
g1135
sg66
g1139
stRp1437
ag1
(g1301
g1155
(dp1438
g62
g89
sg63
g546
sg64
g88
sg65
g541
sg66
g545
stRp1439
ag1
(g1301
g1155
(dp1440
g62
g74
sg63
g502
sg64
g73
sg65
g497
sg66
g501
stRp1441
ag1
(g1301
g1155
(dp1442
g62
g89
sg63
g234
sg64
g113
sg65
g229
sg66
g233
stRp1443
ag1
(g1301
g1155
(dp1444
g62
g74
sg63
g722
sg64
g272
sg65
g717
sg66
g721
stRp1445
ag1
(g1301
g1155
(dp1446
g62
g74
sg63
g887
sg64
g182
sg65
g882
sg66
g886
stRp1447
ag1
(g1301
g1155
(dp1448
g62
g89
sg63
g447
sg64
g260
sg65
g442
sg66
g446
stRp1449
ag1
(g1301
g1155
(dp1450
g62
g89
sg63
g920
sg64
g113
sg65
g915
sg66
g919
stRp1451
ag1
(g1301
g1155
(dp1452
g62
g89
sg63
g799
sg64
g406
sg65
g794
sg66
g798
stRp1453
ag1
(g1301
g1155
(dp1454
g62
g74
sg63
g667
sg64
g159
sg65
g662
sg66
g666
stRp1455
ag1
(g1301
g1155
(dp1456
g62
g74
sg63
g590
sg64
g272
sg65
g585
sg66
g589
stRp1457
ag1
(g1301
g1155
(dp1458
g62
g74
sg63
g953
sg64
g73
sg65
g948
sg66
g952
stRp1459
ag1
(g1301
g1155
(dp1460
g62
g89
sg63
g942
sg64
g113
sg65
g937
sg66
g941
stRp1461
ag1
(g1301
g1155
(dp1462
g62
g89
sg63
g1008
sg64
g406
sg65
g1003
sg66
g1007
stRp1463
ag1
(g1301
g1155
(dp1464
g62
g74
sg63
g469
sg64
g73
sg65
g464
sg66
g468
stRp1465
ag1
(g1301
g1155
(dp1466
g62
g89
sg63
g314
sg64
g88
sg65
g309
sg66
g313
stRp1467
ag1
(g1301
g1155
(dp1468
g62
g74
sg63
g280
sg64
g272
sg65
g275
sg66
g279
stRp1469
ag1
(g1301
g1155
(dp1470
g62
g89
sg63
g1107
sg64
g88
sg65
g1102
sg66
g1106
stRp1471
ag1
(g1301
g1155
(dp1472
g62
g89
sg63
g391
sg64
g113
sg65
g386
sg66
g390
stRp1473
ag1
(g1301
g1155
(dp1474
g62
g74
sg63
g380
sg64
g159
sg65
g375
sg66
g379
stRp1475
ag1
(g1301
g1155
(dp1476
g62
g74
sg63
g425
sg64
g159
sg65
g420
sg66
g424
stRp1477
ag1
(g1301
g1155
(dp1478
g62
g74
sg63
g931
sg64
g182
sg65
g926
sg66
g930
stRp1479
ag1
(g1301
g1155
(dp1480
g62
g74
sg63
g201
sg64
g182
sg65
g196
sg66
g200
stRp1481
ag1
(g1301
g1155
(dp1482
g62
g89
sg63
g986
sg64
g88
sg65
g981
sg66
g985
stRp1483
ag1
(g1301
g1155
(dp1484
g62
g74
sg63
g347
sg64
g159
sg65
g342
sg66
g346
stRp1485
ag1
(g1301
g1155
(dp1486
g62
g74
sg63
g190
sg64
g182
sg65
g185
sg66
g189
stRp1487
ag1
(g1301
g1155
(dp1488
g62
g74
sg63
g557
sg64
g73
sg65
g552
sg66
g556
stRp1489
ag1
(g1301
g1155
(dp1490
g62
g89
sg63
g865
sg64
g406
sg65
g860
sg66
g864
stRp1491
ag1
(g1301
g1155
(dp1492
g62
g89
sg63
g843
sg64
g88
sg65
g838
sg66
g842
stRp1493
asS'seed'
p1494
NsS'thisIndex'
p1495
g1137
sS'thisN'
p1496
I96
sS'thisTrialN'
p1497
I0
sS'nTotal'
p1498
I96
sS'_warnUseOfNext'
p1499
I01
sbasS'savePickle'
p1500
I00
sb.