ccopy_reg
_reconstructor
p1
(cpsychopy.data
ExperimentHandler
p2
c__builtin__
object
p3
NtRp4
(dp5
S'originPath'
p6
NsS'dataFileName'
p7
VC:\u005cDocuments and Settings\u005cExperimental user\u005cMy Documents\u005cconsciousness\u005cuncon_feat\u005cexperiment_scripts\u005cdata/xabi_Experiment_EEG_version_2019_may_20_1558
p8
sS'runtimeInfo'
p9
NsS'name'
p10
VExperiment_EEG_version
p11
sS'dataNames'
p12
(lp13
S'image_onset_time'
p14
aS'response_window'
p15
aS'correctAns'
p16
aS'probe_onset'
p17
aS'discrim_resptime'
p18
aS'response.corr'
p19
aS'response.keys'
p20
aS'response.rt'
p21
aS'visible_resptime'
p22
aS'visible.keys'
p23
aS'visible.corr'
p24
aS'visible.rt'
p25
aS'probeFrames'
p26
aS'jitter2'
p27
asS'autoLog'
p28
I01
sS'extraInfo'
p29
(dp30
Vn_square
p31
V32
p32
sVexperiment_color
p33
Vbw
p34
sS'frameRate'
p35
cnumpy.core.multiarray
scalar
p36
(cnumpy
dtype
p37
(S'f8'
I0
I1
tRp38
(I3
S'<'
NNNI-1
I-1
I0
tbS'\x17$\x84S\x0e\xccX@'
tRp39
sS'date'
p40
V2019_may_20_1558
p41
sVsession
p42
V011
p43
sVimage_size
p44
V256
p45
sVpremask_dur
p46
V20
p47
sVprobeFrames
p48
V5
sVparticipant
p49
Vxabi
p50
sS'expName'
p51
g11
sVpostmask_dur
p52
V20
p53
ssS'loopsUnfinished'
p54
(lp55
sS'saveWideText'
p56
I00
sS'thisEntry'
p57
(dp58
sS'version'
p59
S''
sS'_paramNamesSoFar'
p60
(lp61
S'category'
p62
aS'probe_path'
p63
aS'subcategory'
p64
aS'fixation_duration'
p65
aS'label'
p66
asS'entries'
p67
(lp68
(dp69
g31
g32
sg17
F3.7391731450334191
sg24
I0
sg35
g39
sg14
F3.7175982660846785
sg16
g36
(g37
(S'i4'
I0
I1
tRp70
(I3
S'<'
NNNI-1
I-1
I0
tbS'\x02\x00\x00\x00'
tRp71
sg42
g43
sg46
g47
sg15
S'nV_V'
p72
sg22
F5.5823972997022793
sg64
VAnimals
p73
sg62
VLiving_Things
p74
sg49
g50
sS'trials.thisN'
p75
I0
sg19
I1
sg27
g36
(g38
S'\x00\x00\x00\x00\x00\x00\x18@'
tRp76
sg52
g53
sg23
S'2'
sg18
F5.0002803658135235
sg33
g34
sg51
g11
sg20
S'2'
sg65
g36
(g37
(S'i8'
I0
I1
tRp77
(I3
S'<'
NNNI-1
I-1
I0
tbS'\x00\x00\x00\x00\x00\x00\x00\x00'
tRp78
sg44
g45
sg40
g41
sg25
F0.21066962950862944
sS'trials.thisIndex'
p79
g36
(g37
(S'i4'
I0
I1
tRp80
(I3
S'<'
NNNI-1
I-1
I0
tbS'D\x00\x00\x00'
tRp81
sg26
V5
sS'trials.thisRepN'
p82
I0
sg66
Vrhino
p83
sg63
V../experiment_stimuli/bw_bc_bl/Living_Things/Animals/rhino_18.jpg
p84
sg21
F0.55124055652413517
sS'trials.thisTrialN'
p85
I0
sa(dp86
g31
g32
sg17
F7.5309098791331053
sg24
I0
sg35
g39
sg14
F7.5258699965197593
sg16
g36
(g70
S'\x01\x00\x00\x00'
tRp87
sg42
g43
sg46
g47
sg15
g72
sg22
F9.4807756383670494
sg64
VFurniture
p88
sg62
VNonliving_Things
p89
sg49
g50
sS'trials.thisN'
p90
I1
sg19
I1
sg27
g36
(g38
S'\x00\x00\x00\x00\x00\x00\x18@'
tRp91
sg52
g53
sg23
S'2'
sg18
F8.7885195224080235
sg33
g34
sg51
g11
sg20
S'1'
sg65
g36
(g77
S'\x00\x00\x00\x00\x00\x00\x00\x00'
tRp92
sg44
g45
sg40
g41
sg25
F0.2507650553015992
sS'trials.thisIndex'
p93
g36
(g80
S'/\x00\x00\x00'
tRp94
sg26
V5
sS'trials.thisRepN'
p95
I0
sg66
Vlectern
p96
sg63
V../experiment_stimuli/bw_bc_bl/Nonliving_Things/Furniture/lectern_7.jpg
p97
sg21
F0.67169956071302295
sS'trials.thisTrialN'
p98
I1
sa(dp99
g31
g32
sg17
F11.469974706415087
sg24
I1
sg35
g39
sg14
F11.464425703161396
sg16
g36
(g70
S'\x01\x00\x00\x00'
tRp100
sg42
g43
sg46
g47
sg15
g72
sg22
F13.078564447001554
sg64
VVehicles
p101
sg62
g89
sg49
g50
sS'trials.thisN'
p102
I2
sg19
I1
sg27
g36
(g38
S'\x00\x00\x00\x00\x00\x00 @'
tRp103
sg52
g53
sg23
S'1'
sg18
F12.717055789777078
sg33
g34
sg51
g11
sg20
S'1'
sg65
g36
(g77
S'\x00\x00\x00\x00\x00\x00\x00\x00'
tRp104
sg44
g45
sg40
g41
sg25
F0.18060723296366632
sS'trials.thisIndex'
p105
g36
(g80
S'L\x00\x00\x00'
tRp106
sg26
V5
sS'trials.thisRepN'
p107
I0
sg66
Vship
p108
sg63
V../experiment_stimuli/bw_bc_bl/Nonliving_Things/Vehicles/ship_11.jpg
p109
sg21
F0.34096403780858964
sS'trials.thisTrialN'
p110
I2
sa(dp111
g31
g32
sg17
F14.997000235249288
sg24
I1
sg35
g39
sg14
F14.992101211566478
sg16
g36
(g70
S'\x01\x00\x00\x00'
tRp112
sg42
g43
sg46
g47
sg15
S'V_nV'
p113
sg22
F16.956847915542312
sg64
VBirds
p114
sg62
g74
sg49
g50
sS'trials.thisN'
p115
I3
sg19
I1
sg27
g36
(g38
S'\x00\x00\x00\x00\x00\x00\x18@'
tRp116
sg52
g53
sg23
S'1'
sg18
F16.254743895493448
sg33
g34
sg51
g11
sg20
S'1'
sg65
g36
(g77
S'\x00\x00\x00\x00\x00\x00\x00\x00'
tRp117
sg44
g45
sg40
g41
sg25
F0.21068005042616278
sS'trials.thisIndex'
p118
g36
(g80
S'J\x00\x00\x00'
tRp119
sg26
V5
sS'trials.thisRepN'
p120
I0
sg66
Vseagull
p121
sg63
V../experiment_stimuli/bw_bc_bl/Living_Things/Birds/seagull_23.jpg
p122
sg21
F0.68155395705252886
sS'trials.thisTrialN'
p123
I3
sa(dp124
g31
g32
sg17
F18.905646881554276
sg24
I0
sg35
g39
sg14
F18.900590303703211
sg16
g36
(g70
S'\x01\x00\x00\x00'
tRp125
sg42
g43
sg46
g47
sg15
g72
sg22
F20.965736874146387
sg64
VBuildings
p126
sg62
g89
sg49
g50
sS'trials.thisN'
p127
I4
sg19
I1
sg27
g36
(g38
S'\x00\x00\x00\x00\x00\x00\x18@'
tRp128
sg52
g53
sg23
S'2'
sg18
F20.183282061479986
sg33
g34
sg51
g11
sg20
S'1'
sg65
g36
(g77
S'\x00\x00\x00\x00\x00\x00\x00\x00'
tRp129
sg44
g45
sg40
g41
sg25
F0.22068904596380889
sS'trials.thisIndex'
p130
g36
(g80
S'\x0c\x00\x00\x00'
tRp131
sg26
V5
sS'trials.thisRepN'
p132
I0
sg66
Vcastle
p133
sg63
V../experiment_stimuli/bw_bc_bl/Nonliving_Things/Buildings/castle_2.jpg
p134
sg21
F0.76189151708967984
sS'trials.thisTrialN'
p135
I4
sa(dp136
g31
g32
sg17
F22.924254870275036
sg24
I0
sg35
g39
sg14
F22.919331376906484
sg16
g36
(g70
S'\x02\x00\x00\x00'
tRp137
sg42
g43
sg46
g47
sg15
g72
sg22
F24.763959632138722
sg64
g114
sg62
g74
sg49
g50
sS'trials.thisN'
p138
I5
sg19
I1
sg27
g36
(g38
S'\x00\x00\x00\x00\x00\x00\x18@'
tRp139
sg52
g53
sg23
S'3'
sg18
F24.191997470101342
sg33
g34
sg51
g11
sg20
S'2'
sg65
g36
(g77
S'\x00\x00\x00\x00\x00\x00\x00\x00'
tRp140
sg44
g45
sg40
g41
sg25
F0.17058940650895238
sS'trials.thisIndex'
p141
g36
(g80
S'C\x00\x00\x00'
tRp142
sg26
V5
sS'trials.thisRepN'
p143
I0
sg66
Vraven
p144
sg63
V../experiment_stimuli/bw_bc_bl/Living_Things/Birds/raven_10.jpg
p145
sg21
F0.55141955043654889
sS'trials.thisTrialN'
p146
I5
sa(dp147
g31
g32
sg17
F26.672838497092016
sg24
I1
sg35
g39
sg14
F26.667475765454583
sg16
g36
(g70
S'\x01\x00\x00\x00'
tRp148
sg42
g43
sg46
g47
sg15
g72
sg22
F28.452002099482343
sg64
g88
sg62
g89
sg49
g50
sS'trials.thisN'
p149
I6
sg19
I1
sg27
g36
(g38
S'\x00\x00\x00\x00\x00\x00\x18@'
tRp150
sg52
g53
sg23
S'1'
sg18
F27.920102078001946
sg33
g34
sg51
g11
sg20
S'1'
sg65
g36
(g77
S'\x00\x00\x00\x00\x00\x00\x00\x00'
tRp151
sg44
g45
sg40
g41
sg25
F0.20065440842881799
sS'trials.thisIndex'
p152
g36
(g80
S'\x00\x00\x00\x00'
tRp153
sg26
V5
sS'trials.thisRepN'
p154
I0
sg66
VChest-of-drawers
p155
sg63
V../experiment_stimuli/bw_bc_bl/Nonliving_Things/Furniture/Chest-of-drawers_5.jpg
p156
sg21
F0.51133683486841619
sS'trials.thisTrialN'
p157
I6
sa(dp158
g31
g32
sg17
F30.390740296221338
sg24
I0
sg35
g39
sg14
F30.385562738752924
sg16
g36
(g70
S'\x02\x00\x00\x00'
tRp159
sg42
g43
sg46
g47
sg15
g113
sg22
F32.480803626473062
sg64
VTools
p160
sg62
g89
sg49
g50
sS'trials.thisN'
p161
I7
sg19
I1
sg27
g36
(g38
S'\x00\x00\x00\x00\x00\x00\x18@'
tRp162
sg52
g53
sg23
S'2'
sg18
F31.658228316809982
sg33
g34
sg51
g11
sg20
S'2'
sg65
g36
(g77
S'\x00\x00\x00\x00\x00\x00\x00\x00'
tRp163
sg44
g45
sg40
g41
sg25
F0.20066443842370063
sS'trials.thisIndex'
p164
g36
(g80
S'\x03\x00\x00\x00'
tRp165
sg26
V5
sS'trials.thisRepN'
p166
I0
sg66
Vaxe
p167
sg63
V../experiment_stimuli/bw_bc_bl/Nonliving_Things/Tools/axe_13.jpg
p168
sg21
F0.80200050270650536
sS'trials.thisTrialN'
p169
I7
sa(dp170
g31
g32
sg17
F34.419266376062296
sg24
I1
sg35
g39
sg14
F34.41431391669903
sg16
g36
(g70
S'\x02\x00\x00\x00'
tRp171
sg42
g43
sg46
g47
sg15
g113
sg22
F36.66985865146853
sg64
g88
sg62
g89
sg49
g50
sS'trials.thisN'
p172
I8
sg19
I1
sg27
g36
(g38
S'\x00\x00\x00\x00\x00\x00\x18@'
tRp173
sg52
g53
sg23
S'1'
sg18
F35.676964638172649
sg33
g34
sg51
g11
sg20
S'2'
sg65
g36
(g77
S'\x00\x00\x00\x00\x00\x00\x00\x00'
tRp174
sg44
g45
sg40
g41
sg25
F0.18061457120347768
sS'trials.thisIndex'
p175
g36
(g80
S'\x0f\x00\x00\x00'
tRp176
sg26
V5
sS'trials.thisRepN'
p177
I0
sg66
Vchair
p178
sg63
V../experiment_stimuli/bw_bc_bl/Nonliving_Things/Furniture/chair_15.jpg
p179
sg21
F0.97233613126445562
sS'trials.thisTrialN'
p180
I8
sa(dp181
g31
g32
sg17
F38.588193460134789
sg24
I1
sg35
g39
sg14
F38.583374747191556
sg16
g36
(g70
S'\x02\x00\x00\x00'
tRp182
sg42
g43
sg46
g47
sg15
g72
sg22
F40.548289880855009
sg64
g73
sg62
g74
sg49
g50
sS'trials.thisN'
p183
I9
sg19
I1
sg27
g36
(g38
S'\x00\x00\x00\x00\x00\x00\x1e@'
tRp184
sg52
g53
sg23
S'1'
sg18
F39.866069625248201
sg33
g34
sg51
g11
sg20
S'2'
sg65
g36
(g77
S'\x00\x00\x00\x00\x00\x00\x00\x00'
tRp185
sg44
g45
sg40
g41
sg25
F0.2106727120699361
sS'trials.thisIndex'
p186
g36
(g80
S'Z\x00\x00\x00'
tRp187
sg26
V5
sS'trials.thisRepN'
p188
I0
sg66
Vturtle
p189
sg63
V../experiment_stimuli/bw_bc_bl/Living_Things/Animals/turtle_1.jpg
p190
sg21
F0.6616664226166904
sS'trials.thisTrialN'
p191
I9
sa(dp192
g31
g32
sg17
F42.496798862470314
sg24
I0
sg35
g39
sg14
F42.491874008206651
sg16
g36
(g70
S'\x01\x00\x00\x00'
tRp193
sg42
g43
sg46
g47
sg15
g72
sg22
F45.248484608484432
sg64
g88
sg62
g89
sg49
g50
sS'trials.thisN'
p194
I10
sg19
I1
sg27
g36
(g38
S'\x00\x00\x00\x00\x00\x00\x18@'
tRp195
sg52
g53
sg23
S'3'
sg18
F43.794608411262743
sg33
g34
sg51
g11
sg20
S'1'
sg65
g36
(g77
S'\x00\x00\x00\x00\x00\x00\x00\x00'
tRp196
sg44
g45
sg40
g41
sg25
F0.21069126820657402
sS'trials.thisIndex'
p197
g36
(g80
S'Q\x00\x00\x00'
tRp198
sg26
V5
sS'trials.thisRepN'
p199
I0
sg66
Vtable
p200
sg63
V../experiment_stimuli/bw_bc_bl/Nonliving_Things/Furniture/table_3.jpg
p201
sg21
F1.4333388708764687
sS'trials.thisTrialN'
p202
I10
sa(dp203
g31
g32
sg17
F47.198080450296402
sg24
I0
sg35
g39
sg14
F47.192094194120727
sg16
g36
(g70
S'\x01\x00\x00\x00'
tRp204
sg42
g43
sg46
g47
sg15
g113
sg22
F49.126928292447701
sg64
g114
sg62
g74
sg49
g50
sS'trials.thisN'
p205
I11
sg19
I1
sg27
g36
(g38
S'\x00\x00\x00\x00\x00\x00\x1a@'
tRp206
sg52
g53
sg23
S'2'
sg18
F48.474793842528015
sg33
g34
sg51
g11
sg20
S'1'
sg65
g36
(g77
S'\x00\x00\x00\x00\x00\x00\x00\x00'
tRp207
sg44
g45
sg40
g41
sg25
F0.23057578806765378
sS'trials.thisIndex'
p208
g36
(g80
S'!\x00\x00\x00'
tRp209
sg26
V5
sS'trials.thisRepN'
p210
I0
sg66
Vgoldfinch
p211
sg63
V../experiment_stimuli/bw_bc_bl/Living_Things/Birds/goldfinch_20.jpg
p212
sg21
F0.6315928683616221
sS'trials.thisTrialN'
p213
I11
sa(dp214
g31
g32
sg17
F51.095510103274137
sg24
I0
sg35
g39
sg14
F51.090567106497474
sg16
g36
(g70
S'\x01\x00\x00\x00'
tRp215
sg42
g43
sg46
g47
sg15
g113
sg22
F52.985324933077209
sg64
g73
sg62
g74
sg49
g50
sS'trials.thisN'
p216
I12
sg19
I1
sg27
g36
(g38
S'\x00\x00\x00\x00\x00\x00\x1c@'
tRp217
sg52
g53
sg23
S'2'
sg18
F52.363241639221087
sg33
g34
sg51
g11
sg20
S'1'
sg65
g36
(g77
S'\x00\x00\x00\x00\x00\x00\x00\x00'
tRp218
sg44
g45
sg40
g41
sg25
F0.24073817639146
sS'trials.thisIndex'
p219
g36
(g80
S'\x10\x00\x00\x00'
tRp220
sg26
V5
sS'trials.thisRepN'
p221
I0
sg66
Vcheetah
p222
sg63
V../experiment_stimuli/bw_bc_bl/Living_Things/Animals/cheetah_8.jpg
p223
sg21
F0.60154268576297909
sS'trials.thisTrialN'
p224
I12
sa(dp225
g31
g32
sg17
F54.964499253430404
sg24
I1
sg35
g39
sg14
F54.958976712427102
sg16
g36
(g70
S'\x02\x00\x00\x00'
tRp226
sg42
g43
sg46
g47
sg15
g72
sg22
F56.853714539320208
sg64
g114
sg62
g74
sg49
g50
sS'trials.thisN'
p227
I13
sg19
I1
sg27
g36
(g38
S'\x00\x00\x00\x00\x00\x00\x18@'
tRp228
sg52
g53
sg23
S'1'
sg18
F56.221620986470953
sg33
g34
sg51
g11
sg20
S'2'
sg65
g36
(g77
S'\x00\x00\x00\x00\x00\x00\x00\x00'
tRp229
sg44
g45
sg40
g41
sg25
F0.19061685260385275
sS'trials.thisIndex'
p230
g36
(g80
S',\x00\x00\x00'
tRp231
sg26
V5
sS'trials.thisRepN'
p232
I0
sg66
Vkiwi
p233
sg63
V../experiment_stimuli/bw_bc_bl/Living_Things/Birds/kiwi_22.jpg
p234
sg21
F0.61154941108543426
sS'trials.thisTrialN'
p235
I13
sa(dp236
g31
g32
sg17
F58.782189431949519
sg24
I0
sg35
g39
sg14
F58.777275216649286
sg16
g36
(g70
S'\x01\x00\x00\x00'
tRp237
sg42
g43
sg46
g47
sg15
g113
sg22
F60.712112589506432
sg64
VMarine_creatures
p238
sg62
g74
sg49
g50
sS'trials.thisN'
p239
I14
sg19
I1
sg27
g36
(g38
S'\x00\x00\x00\x00\x00\x00\x18@'
tRp240
sg52
g53
sg23
S'2'
sg18
F60.059967090724967
sg33
g34
sg51
g11
sg20
S'1'
sg65
g36
(g77
S'\x00\x00\x00\x00\x00\x00\x00\x00'
tRp241
sg44
g45
sg40
g41
sg25
F0.25078158138785511
sS'trials.thisIndex'
p242
g36
(g80
S'7\x00\x00\x00'
tRp243
sg26
V5
sS'trials.thisRepN'
p244
I0
sg66
Vnarwhal
p245
sg63
V../experiment_stimuli/bw_bc_bl/Living_Things/Marine_creatures/narwhal_4.jpg
p246
sg21
F0.63160527031868696
sS'trials.thisTrialN'
p247
I14
sa(dp248
g31
g32
sg17
F62.700581009848975
sg24
I0
sg35
g39
sg14
F62.69579354103189
sg16
g36
(g70
S'\x01\x00\x00\x00'
tRp249
sg42
g43
sg46
g47
sg15
g72
sg22
F64.700826825923286
sg64
g88
sg62
g89
sg49
g50
sS'trials.thisN'
p250
I15
sg19
I1
sg27
g36
(g38
S'\x00\x00\x00\x00\x00\x00\x18@'
tRp251
sg52
g53
sg23
S'2'
sg18
F63.968483250122517
sg33
g34
sg51
g11
sg20
S'1'
sg65
g36
(g77
S'\x00\x00\x00\x00\x00\x00\x00\x00'
tRp252
sg44
g45
sg40
g41
sg25
F0.2307239513611421
sS'trials.thisIndex'
p253
g36
(g80
S'\x05\x00\x00\x00'
tRp254
sg26
V5
sS'trials.thisRepN'
p255
I0
sg66
Vbed
p256
sg63
V../experiment_stimuli/bw_bc_bl/Nonliving_Things/Furniture/bed_10.jpg
p257
sg21
F0.71177270100452006
sS'trials.thisTrialN'
p258
I15
sa(dp259
g31
g32
sg17
F66.669326442177407
sg24
I1
sg35
g39
sg14
F66.664418824599124
sg16
g36
(g70
S'\x01\x00\x00\x00'
tRp260
sg42
g43
sg46
g47
sg15
g113
sg22
F68.549002872081473
sg64
g238
sg62
g74
sg49
g50
sS'trials.thisN'
p261
I16
sg19
I1
sg27
g36
(g38
S'\x00\x00\x00\x00\x00\x00\x18@'
tRp262
sg52
g53
sg23
S'1'
sg18
F67.927075707470067
sg33
g34
sg51
g11
sg20
S'1'
sg65
g36
(g77
S'\x00\x00\x00\x00\x00\x00\x00\x00'
tRp263
sg44
g45
sg40
g41
sg25
F0.2207540679955855
sS'trials.thisIndex'
p264
g36
(g80
S'1\x00\x00\x00'
tRp265
sg26
V5
sS'trials.thisRepN'
p266
I0
sg66
Vlobster
p267
sg63
V../experiment_stimuli/bw_bc_bl/Living_Things/Marine_creatures/lobster_22.jpg
p268
sg21
F0.60137059434782714
sS'trials.thisTrialN'
p269
I16
sa(dp270
g31
g32
sg17
F70.50761464133393
sg24
I0
sg35
g39
sg14
F70.502765721874312
sg16
g36
(g70
S'\x02\x00\x00\x00'
tRp271
sg42
g43
sg46
g47
sg15
g113
sg22
F72.437631207169034
sg64
g101
sg62
g89
sg49
g50
sS'trials.thisN'
p272
I17
sg19
I1
sg27
g36
(g38
S'\x00\x00\x00\x00\x00\x00\x1a@'
tRp273
sg52
g53
sg23
S'3'
sg18
F71.775433525443077
sg33
g34
sg51
g11
sg20
S'2'
sg65
g36
(g77
S'\x00\x00\x00\x00\x00\x00\x00\x00'
tRp274
sg44
g45
sg40
g41
sg25
F0.18060809397138655
sS'trials.thisIndex'
p275
g36
(g80
S'V\x00\x00\x00'
tRp276
sg26
V5
sS'trials.thisRepN'
p277
I0
sg66
Vtractor
p278
sg63
V../experiment_stimuli/bw_bc_bl/Nonliving_Things/Vehicles/tractor_18.jpg
p279
sg21
F0.64162807399407029
sS'trials.thisTrialN'
p280
I17
sa(dp281
g31
g32
sg17
F74.358002573135309
sg24
I0
sg35
g39
sg14
F74.35113003605511
sg16
g36
(g70
S'\x02\x00\x00\x00'
tRp282
sg42
g43
sg46
g47
sg15
g113
sg22
F76.977494836086407
sg64
VKitchen_Uten
p283
sg62
g89
sg49
g50
sS'trials.thisN'
p284
I18
sg19
I1
sg27
g36
(g38
S'\x00\x00\x00\x00\x00\x00\x1a@'
tRp285
sg52
g53
sg23
S'3'
sg18
F75.603755532647483
sg33
g34
sg51
g11
sg20
S'2'
sg65
g36
(g77
S'\x00\x00\x00\x00\x00\x00\x00\x00'
tRp286
sg44
g45
sg40
g41
sg25
F0.20064690848812461
sS'trials.thisIndex'
p287
g36
(g80
S'\x1f\x00\x00\x00'
tRp288
sg26
V5
sS'trials.thisRepN'
p289
I0
sg66
Vfrying-pan
p290
sg63
V../experiment_stimuli/bw_bc_bl/Nonliving_Things/Kitchen_Uten/frying-pan_16.jpg
p291
sg21
F1.3531826991820708
sS'trials.thisTrialN'
p292
I18
sa(dp293
g31
g32
sg17
F78.917320513515733
sg24
I1
sg35
g39
sg14
F78.911041836487129
sg16
g36
(g70
S'\x02\x00\x00\x00'
tRp294
sg42
g43
sg46
g47
sg15
g72
sg22
F80.735655528726056
sg64
g114
sg62
g74
sg49
g50
sS'trials.thisN'
p295
I19
sg19
I1
sg27
g36
(g38
S'\x00\x00\x00\x00\x00\x00\x1c@'
tRp296
sg52
g53
sg23
S'1'
sg18
F80.143628311809152
sg33
g34
sg51
g11
sg20
S'2'
sg65
g36
(g77
S'\x00\x00\x00\x00\x00\x00\x00\x00'
tRp297
sg44
g45
sg40
g41
sg25
F0.18063718383200467
sS'trials.thisIndex'
p298
g36
(g80
S'?\x00\x00\x00'
tRp299
sg26
V5
sS'trials.thisRepN'
p300
I0
sg66
Vpigeon
p301
sg63
V../experiment_stimuli/bw_bc_bl/Living_Things/Birds/pigeon_12.jpg
p302
sg21
F0.57146010512951761
sS'trials.thisTrialN'
p303
I19
sa(dp304
g31
g32
sg17
F82.654074433608912
sg24
I1
sg35
g39
sg14
F82.649174079182558
sg16
g36
(g70
S'\x02\x00\x00\x00'
tRp305
sg42
g43
sg46
g47
sg15
g113
sg22
F84.51384146057535
sg64
g160
sg62
g89
sg49
g50
sS'trials.thisN'
p306
I20
sg19
I1
sg27
g36
(g38
S'\x00\x00\x00\x00\x00\x00\x1a@'
tRp307
sg52
g53
sg23
S'1'
sg18
F83.911818936001509
sg33
g34
sg51
g11
sg20
S'2'
sg65
g36
(g77
S'\x00\x00\x00\x00\x00\x00\x00\x00'
tRp308
sg44
g45
sg40
g41
sg25
F0.17058383510448039
sS'trials.thisIndex'
p309
g36
(g80
S'%\x00\x00\x00'
tRp310
sg26
V5
sS'trials.thisRepN'
p311
I0
sg66
Vhammer
p312
sg63
V../experiment_stimuli/bw_bc_bl/Nonliving_Things/Tools/hammer_15.jpg
p313
sg21
F0.58148767973762006
sS'trials.thisTrialN'
p314
I20
sa(dp315
g31
g32
sg17
F86.42294046911411
sg24
I0
sg35
g39
sg14
F86.417367274407297
sg16
g36
(g70
S'\x02\x00\x00\x00'
tRp316
sg42
g43
sg46
g47
sg15
g113
sg22
F88.402304538758472
sg64
g283
sg62
g89
sg49
g50
sS'trials.thisN'
p317
I21
sg19
I1
sg27
g36
(g38
S'\x00\x00\x00\x00\x00\x00\x1a@'
tRp318
sg52
g53
sg23
S'3'
sg18
F87.710077174357139
sg33
g34
sg51
g11
sg20
S'2'
sg65
g36
(g77
S'\x00\x00\x00\x00\x00\x00\x00\x00'
tRp319
sg44
g45
sg40
g41
sg25
F0.18061321787536144
sS'trials.thisIndex'
p320
g36
(g80
S'B\x00\x00\x00'
tRp321
sg26
V5
sS'trials.thisRepN'
p322
I0
sg66
Vpot
p323
sg63
V../experiment_stimuli/bw_bc_bl/Nonliving_Things/Kitchen_Uten/pot_9.jpg
p324
sg21
F0.67168367013800889
sS'trials.thisTrialN'
p325
I21
sa(dp326
g31
g32
sg17
F90.32065720425453
sg24
I0
sg35
g39
sg14
F90.315834062872455
sg16
g36
(g70
S'\x01\x00\x00\x00'
tRp327
sg42
g43
sg46
g47
sg15
g72
sg22
F92.180513996980153
sg64
g88
sg62
g89
sg49
g50
sS'trials.thisN'
p328
I22
sg19
I1
sg27
g36
(g38
S'\x00\x00\x00\x00\x00\x00\x1c@'
tRp329
sg52
g53
sg23
S'2'
sg18
F91.588506761123426
sg33
g34
sg51
g11
sg20
S'1'
sg65
g36
(g77
S'\x00\x00\x00\x00\x00\x00\x00\x00'
tRp330
sg44
g45
sg40
g41
sg25
F0.23072159802541137
sS'trials.thisIndex'
p331
g36
(g80
S'N\x00\x00\x00'
tRp332
sg26
V5
sS'trials.thisRepN'
p333
I0
sg66
Vsofa
p334
sg63
V../experiment_stimuli/bw_bc_bl/Nonliving_Things/Furniture/sofa_11.jpg
p335
sg21
F0.57146869890857488
sS'trials.thisTrialN'
p336
I22
sa(dp337
g31
g32
sg17
F94.149137630243786
sg24
I1
sg35
g39
sg14
F94.144155517336912
sg16
g36
(g70
S'\x02\x00\x00\x00'
tRp338
sg42
g43
sg46
g47
sg15
g72
sg22
F95.978810637141578
sg64
g114
sg62
g74
sg49
g50
sS'trials.thisN'
p339
I23
sg19
I1
sg27
g36
(g38
S'\x00\x00\x00\x00\x00\x00 @'
tRp340
sg52
g53
sg23
S'1'
sg18
F95.406803896767087
sg33
g34
sg51
g11
sg20
S'2'
sg65
g36
(g77
S'\x00\x00\x00\x00\x00\x00\x00\x00'
tRp341
sg44
g45
sg40
g41
sg25
F0.25077852874528617
sS'trials.thisIndex'
p342
g36
(g80
S'F\x00\x00\x00'
tRp343
sg26
V5
sS'trials.thisRepN'
p344
I0
sg66
Vrooster
p345
sg63
V../experiment_stimuli/bw_bc_bl/Living_Things/Birds/rooster_22.jpg
p346
sg21
F0.55143334332387894
sS'trials.thisTrialN'
p347
I23
sa(dp348
g31
g32
sg17
F97.967509896378033
sg24
I0
sg35
g39
sg14
F97.96246152149979
sg16
g36
(g70
S'\x02\x00\x00\x00'
tRp349
sg42
g43
sg46
g47
sg15
g113
sg22
F100.44851357513107
sg64
g283
sg62
g89
sg49
g50
sS'trials.thisN'
p350
I24
sg19
I1
sg27
g36
(g38
S'\x00\x00\x00\x00\x00\x00\x18@'
tRp351
sg52
g53
sg23
S'2'
sg18
F99.235129727050662
sg33
g34
sg51
g11
sg20
S'2'
sg65
g36
(g77
S'\x00\x00\x00\x00\x00\x00\x00\x00'
tRp352
sg44
g45
sg40
g41
sg25
F0.23071966180577874
sS'trials.thisIndex'
p353
g36
(g80
S'\x16\x00\x00\x00'
tRp354
sg26
V5
sS'trials.thisRepN'
p355
I0
sg66
Vcup
p356
sg63
V../experiment_stimuli/bw_bc_bl/Nonliving_Things/Kitchen_Uten/cup_15.jpg
p357
sg21
F1.1928188793826848
sS'trials.thisTrialN'
p358
I24
sa(dp359
g31
g32
sg17
F102.4178241235204
sg24
I1
sg35
g39
sg14
F102.4121359793935
sg16
g36
(g70
S'\x01\x00\x00\x00'
tRp360
sg42
g43
sg46
g47
sg15
g72
sg22
F104.16660401457921
sg64
g126
sg62
g89
sg49
g50
sS'trials.thisN'
p361
I25
sg19
I1
sg27
g36
(g38
S'\x00\x00\x00\x00\x00\x00\x18@'
tRp362
sg52
g53
sg23
S'1'
sg18
F103.67479210684542
sg33
g34
sg51
g11
sg20
S'1'
sg65
g36
(g77
S'\x00\x00\x00\x00\x00\x00\x00\x00'
tRp363
sg44
g45
sg40
g41
sg25
F0.20066051371395588
sS'trials.thisIndex'
p364
g36
(g80
S'\x0e\x00\x00\x00'
tRp365
sg26
V5
sS'trials.thisRepN'
p366
I0
sg66
Vcathedral
p367
sg63
V../experiment_stimuli/bw_bc_bl/Nonliving_Things/Buildings/cathedral_11.jpg
p368
sg21
F0.47125662676990032
sS'trials.thisTrialN'
p369
I25
sa(dp370
g31
g32
sg17
F106.10505646711681
sg24
I0
sg35
g39
sg14
F106.10015005257446
sg16
g36
(g70
S'\x01\x00\x00\x00'
tRp371
sg42
g43
sg46
g47
sg15
g72
sg22
F107.98490406014025
sg64
VMusical_Inst
p372
sg62
g89
sg49
g50
sS'trials.thisN'
p373
I26
sg19
I1
sg27
g36
(g38
S'\x00\x00\x00\x00\x00\x00\x18@'
tRp374
sg52
g53
sg23
S'2'
sg18
F107.39286996750161
sg33
g34
sg51
g11
sg20
S'1'
sg65
g36
(g77
S'\x00\x00\x00\x00\x00\x00\x00\x00'
tRp375
sg44
g45
sg40
g41
sg25
F0.18060648860409856
sS'trials.thisIndex'
p376
g36
(g80
S'\\\x00\x00\x00'
tRp377
sg26
V5
sS'trials.thisRepN'
p378
I0
sg66
Vviolin
p379
sg63
V../experiment_stimuli/bw_bc_bl/Nonliving_Things/Musical_Inst/violin_15.jpg
p380
sg21
F0.56145875994116068
sS'trials.thisTrialN'
p381
I26
sa(dp382
g31
g32
sg17
F109.90347573719919
sg24
I0
sg35
g39
sg14
F109.89840594911948
sg16
g36
(g70
S'\x02\x00\x00\x00'
tRp383
sg42
g43
sg46
g47
sg15
g113
sg22
F111.91344365454279
sg64
g372
sg62
g89
sg49
g50
sS'trials.thisN'
p384
I27
sg19
I1
sg27
g36
(g38
S'\x00\x00\x00\x00\x00\x00 @'
tRp385
sg52
g53
sg23
S'2'
sg18
F111.18109962763265
sg33
g34
sg51
g11
sg20
S'2'
sg65
g36
(g77
S'\x00\x00\x00\x00\x00\x00\x00\x00'
tRp386
sg44
g45
sg40
g41
sg25
F0.20065094949677587
sS'trials.thisIndex'
p387
g36
(g80
S'>\x00\x00\x00'
tRp388
sg26
V5
sS'trials.thisRepN'
p389
I0
sg66
Vpiano
p390
sg63
V../experiment_stimuli/bw_bc_bl/Nonliving_Things/Musical_Inst/piano__4.jpg
p391
sg21
F0.71179707662668079
sS'trials.thisTrialN'
p392
I27
sa(dp393
g31
g32
sg17
F113.85262200643774
sg24
I0
sg35
g39
sg14
F113.84701927111018
sg16
g36
(g70
S'\x01\x00\x00\x00'
tRp394
sg42
g43
sg46
g47
sg15
g72
sg22
F115.7417340943357
sg64
g283
sg62
g89
sg49
g50
sS'trials.thisN'
p395
I28
sg19
I1
sg27
g36
(g38
S'\x00\x00\x00\x00\x00\x00\x18@'
tRp396
sg52
g53
sg23
S'2'
sg18
F115.11965768772643
sg33
g34
sg51
g11
sg20
S'1'
sg65
g36
(g77
S'\x00\x00\x00\x00\x00\x00\x00\x00'
tRp397
sg44
g45
sg40
g41
sg25
F0.33095836895518005
sS'trials.thisIndex'
p398
g36
(g80
S'G\x00\x00\x00'
tRp399
sg26
V5
sS'trials.thisRepN'
p400
I0
sg66
Vsaucepan
p401
sg63
V../experiment_stimuli/bw_bc_bl/Nonliving_Things/Kitchen_Uten/saucepan_13.jpg
p402
sg21
F0.60153359163086861
sS'trials.thisTrialN'
p403
I28
sa(dp404
g31
g32
sg17
F117.81151103484444
sg24
I1
sg35
g39
sg14
F117.80559669458307
sg16
g36
(g70
S'\x02\x00\x00\x00'
tRp405
sg42
g43
sg46
g47
sg15
g72
sg22
F119.76050814846531
sg64
VInsects
p406
sg62
g74
sg49
g50
sS'trials.thisN'
p407
I29
sg19
I0
sg27
g36
(g38
S'\x00\x00\x00\x00\x00\x00\x18@'
tRp408
sg52
g53
sg23
S'1'
sg18
F119.06825387862045
sg33
g34
sg51
g11
sg20
S'1'
sg65
g36
(g77
S'\x00\x00\x00\x00\x00\x00\x00\x00'
tRp409
sg44
g45
sg40
g41
sg25
F0.23072202294133604
sS'trials.thisIndex'
p410
g36
(g80
S'I\x00\x00\x00'
tRp411
sg26
V5
sS'trials.thisRepN'
p412
I0
sg66
Vscorpion
p413
sg63
V../experiment_stimuli/bw_bc_bl/Living_Things/Insects/scorpion_11.jpg
p414
sg21
F0.6716980003984645
sS'trials.thisTrialN'
p415
I29
sa(dp416
g31
g32
sg17
F121.72892910800874
sg24
I0
sg35
g39
sg14
F121.72412239492405
sg16
g36
(g70
S'\x02\x00\x00\x00'
tRp417
sg42
g43
sg46
g47
sg15
g72
sg22
F123.9496058083605
sg64
g238
sg62
g74
sg49
g50
sS'trials.thisN'
p418
I30
sg19
I1
sg27
g36
(g38
S'\x00\x00\x00\x00\x00\x00\x1c@'
tRp419
sg52
g53
sg23
S'2'
sg18
F123.01683107332792
sg33
g34
sg51
g11
sg20
S'2'
sg65
g36
(g77
S'\x00\x00\x00\x00\x00\x00\x00\x00'
tRp420
sg44
g45
sg40
g41
sg25
F0.31089267937932163
sS'trials.thisIndex'
p421
g36
(g80
S'K\x00\x00\x00'
tRp422
sg26
V5
sS'trials.thisRepN'
p423
I0
sg66
Vshark
p424
sg63
V../experiment_stimuli/bw_bc_bl/Living_Things/Marine_creatures/shark_24.jpg
p425
sg21
F0.9122104620328173
sS'trials.thisTrialN'
p426
I30
sa(dp427
g31
g32
sg17
F125.99915295199025
sg24
I0
sg35
g39
sg14
F125.9933978052577
sg16
g36
(g70
S'\x02\x00\x00\x00'
tRp428
sg42
g43
sg46
g47
sg15
g72
sg22
F131.21539168758318
sg64
g73
sg62
g74
sg49
g50
sS'trials.thisN'
p429
I31
sg19
I1
sg27
g36
(g38
S'\x00\x00\x00\x00\x00\x00\x18@'
tRp430
sg52
g53
sg23
S'2'
sg18
F127.27608557057101
sg33
g34
sg51
g11
sg20
S'2'
sg65
g36
(g77
S'\x00\x00\x00\x00\x00\x00\x00\x00'
tRp431
sg44
g45
sg40
g41
sg25
F0.40108849282842129
sS'trials.thisIndex'
p432
g36
(g80
S"'\x00\x00\x00"
tRp433
sg26
V5
sS'trials.thisRepN'
p434
I0
sg66
Vhippopotamus
p435
sg63
V../experiment_stimuli/bw_bc_bl/Living_Things/Animals/hippopotamus_12.jpg
p436
sg21
F3.9187466104049236
sS'trials.thisTrialN'
p437
I31
sa(dp438
g31
g32
sg17
F133.35619758034591
sg24
I0
sg35
g39
sg14
F133.34939400863368
sg16
g36
(g70
S'\x02\x00\x00\x00'
tRp439
sg42
g43
sg46
g47
sg15
g72
sg22
F136.75743054272607
sg64
g114
sg62
g74
sg49
g50
sS'trials.thisN'
p440
I32
sg19
I1
sg27
g36
(g38
S'\x00\x00\x00\x00\x00\x00\x18@'
tRp441
sg52
g53
sg23
S'3'
sg18
F134.62206848885398
sg33
g34
sg51
g11
sg20
S'2'
sg65
g36
(g77
S'\x00\x00\x00\x00\x00\x00\x00\x00'
tRp442
sg44
g45
sg40
g41
sg25
F1.0124188951449469
sS'trials.thisIndex'
p443
g36
(g80
S'<\x00\x00\x00'
tRp444
sg26
V5
sS'trials.thisRepN'
p445
I0
sg66
Vpelican
p446
sg63
V../experiment_stimuli/bw_bc_bl/Living_Things/Birds/pelican_2.jpg
p447
sg21
F2.1148214680142701
sS'trials.thisTrialN'
p448
I32
sa(dp449
g31
g32
sg17
F139.50782367913052
sg24
I1
sg35
g39
sg14
F139.50276267644949
sg16
g36
(g70
S'\x01\x00\x00\x00'
tRp450
sg42
g43
sg46
g47
sg15
g72
sg22
F141.46768635895569
sg64
g372
sg62
g89
sg49
g50
sS'trials.thisN'
p451
I33
sg19
I1
sg27
g36
(g38
S'\x00\x00\x00\x00\x00\x00\x1a@'
tRp452
sg52
g53
sg23
S'1'
sg18
F140.75539328181185
sg33
g34
sg51
g11
sg20
S'1'
sg65
g36
(g77
S'\x00\x00\x00\x00\x00\x00\x00\x00'
tRp453
sg44
g45
sg40
g41
sg25
F0.26081474195234478
sS'trials.thisIndex'
p454
g36
(g80
S'X\x00\x00\x00'
tRp455
sg26
V5
sS'trials.thisRepN'
p456
I0
sg66
Vtrumpet
p457
sg63
V../experiment_stimuli/bw_bc_bl/Nonliving_Things/Musical_Inst/trumpet_3.jpg
p458
sg21
F0.69172413856722414
sS'trials.thisTrialN'
p459
I33
sa(dp460
g31
g32
sg17
F143.46625539800152
sg24
I0
sg35
g39
sg14
F143.46136950200889
sg16
g36
(g70
S'\x02\x00\x00\x00'
tRp461
sg42
g43
sg46
g47
sg15
g72
sg22
F145.2459223465994
sg64
g238
sg62
g74
sg49
g50
sS'trials.thisN'
p462
I34
sg19
I1
sg27
g36
(g38
S'\x00\x00\x00\x00\x00\x00\x18@'
tRp463
sg52
g53
sg23
S'2'
sg18
F144.74405915057287
sg33
g34
sg51
g11
sg20
S'2'
sg65
g36
(g77
S'\x00\x00\x00\x00\x00\x00\x00\x00'
tRp464
sg44
g45
sg40
g41
sg25
F0.18060987954959273
sS'trials.thisIndex'
p465
g36
(g80
S'P\x00\x00\x00'
tRp466
sg26
V5
sS'trials.thisRepN'
p467
I0
sg66
Vsperm-whale
p468
sg63
V../experiment_stimuli/bw_bc_bl/Living_Things/Marine_creatures/sperm-whale_20.jpg
p469
sg21
F0.48128893028479069
sS'trials.thisTrialN'
p470
I34
sa(dp471
g31
g32
sg17
F147.16625153273344
sg24
I1
sg35
g39
sg14
F147.15941112302244
sg16
g36
(g70
S'\x02\x00\x00\x00'
tRp472
sg42
g43
sg46
g47
sg15
g72
sg22
F149.02409982378595
sg64
g73
sg62
g74
sg49
g50
sS'trials.thisN'
p473
I35
sg19
I1
sg27
g36
(g38
S'\x00\x00\x00\x00\x00\x00\x1a@'
tRp474
sg52
g53
sg23
S'1'
sg18
F148.43207776115742
sg33
g34
sg51
g11
sg20
S'2'
sg65
g36
(g77
S'\x00\x00\x00\x00\x00\x00\x00\x00'
tRp475
sg44
g45
sg40
g41
sg25
F0.22069768887013197
sS'trials.thisIndex'
p476
g36
(g80
S'\r\x00\x00\x00'
tRp477
sg26
V5
sS'trials.thisRepN'
p478
I0
sg66
Vcat
p479
sg63
V../experiment_stimuli/bw_bc_bl/Living_Things/Animals/cat_4.jpg
p480
sg21
F0.5714786050375551
sS'trials.thisTrialN'
p481
I35
sa(dp482
g31
g32
sg17
F150.98266993206926
sg24
I0
sg35
g39
sg14
F150.97771053330507
sg16
g36
(g70
S'\x01\x00\x00\x00'
tRp483
sg42
g43
sg46
g47
sg15
g113
sg22
F152.96266283874866
sg64
g73
sg62
g74
sg49
g50
sS'trials.thisN'
p484
I36
sg19
I1
sg27
g36
(g38
S'\x00\x00\x00\x00\x00\x00\x1e@'
tRp485
sg52
g53
sg23
S'2'
sg18
F152.27042257215362
sg33
g34
sg51
g11
sg20
S'1'
sg65
g36
(g77
S'\x00\x00\x00\x00\x00\x00\x00\x00'
tRp486
sg44
g45
sg40
g41
sg25
F0.22054290911182761
sS'trials.thisIndex'
p487
g36
(g80
S'(\x00\x00\x00'
tRp488
sg26
V5
sS'trials.thisRepN'
p489
I0
sg66
Vhorse
p490
sg63
V../experiment_stimuli/bw_bc_bl/Living_Things/Animals/horse_10.jpg
p491
sg21
F0.67168979032430798
sS'trials.thisTrialN'
p492
I36
sa(dp493
g31
g32
sg17
F154.92124972504098
sg24
I0
sg35
g39
sg14
F154.91627389763016
sg16
g36
(g70
S'\x01\x00\x00\x00'
tRp494
sg42
g43
sg46
g47
sg15
g72
sg22
F157.07158953789622
sg64
g283
sg62
g89
sg49
g50
sS'trials.thisN'
p495
I37
sg19
I1
sg27
g36
(g38
S'\x00\x00\x00\x00\x00\x00\x1a@'
tRp496
sg52
g53
sg23
S'2'
sg18
F156.19896331697237
sg33
g34
sg51
g11
sg20
S'1'
sg65
g36
(g77
S'\x00\x00\x00\x00\x00\x00\x00\x00'
tRp497
sg44
g45
sg40
g41
sg25
F0.7017460927600041
sS'trials.thisIndex'
p498
g36
(g80
S'\x12\x00\x00\x00'
tRp499
sg26
V5
sS'trials.thisRepN'
p500
I0
sg66
Vcoking-pot
p501
sg63
V../experiment_stimuli/bw_bc_bl/Nonliving_Things/Kitchen_Uten/coking-pot_21.jpg
p502
sg21
F0.85208014666568488
sS'trials.thisTrialN'
p503
I37
sa(dp504
g31
g32
sg17
F159.51321586687118
sg24
I0
sg35
g39
sg14
F159.50624872616027
sg16
g36
(g70
S'\x01\x00\x00\x00'
tRp505
sg42
g43
sg46
g47
sg15
g113
sg22
F161.46113057888579
sg64
g114
sg62
g74
sg49
g50
sS'trials.thisN'
p506
I38
sg19
I1
sg27
g36
(g38
S'\x00\x00\x00\x00\x00\x00\x1a@'
tRp507
sg52
g53
sg23
S'2'
sg18
F160.77892643178347
sg33
g34
sg51
g11
sg20
S'1'
sg65
g36
(g77
S'\x00\x00\x00\x00\x00\x00\x00\x00'
tRp508
sg44
g45
sg40
g41
sg25
F0.2307300865650177
sS'trials.thisIndex'
p509
g36
(g80
S'8\x00\x00\x00'
tRp510
sg26
V5
sS'trials.thisRepN'
p511
I0
sg66
Vostrich
p512
sg63
V../experiment_stimuli/bw_bc_bl/Living_Things/Birds/ostrich_24.jpg
p513
sg21
F0.66166318964678794
sS'trials.thisTrialN'
p514
I38
sa(dp515
g31
g32
sg17
F163.42984571109992
sg24
I0
sg35
g39
sg14
F163.42478267441038
sg16
g36
(g70
S'\x02\x00\x00\x00'
tRp516
sg42
g43
sg46
g47
sg15
g72
sg22
F165.34959244658239
sg64
g238
sg62
g74
sg49
g50
sS'trials.thisN'
p517
I39
sg19
I1
sg27
g36
(g38
S'\x00\x00\x00\x00\x00\x00\x1c@'
tRp518
sg52
g53
sg23
S'2'
sg18
F164.68741412193049
sg33
g34
sg51
g11
sg20
S'2'
sg65
g36
(g77
S'\x00\x00\x00\x00\x00\x00\x00\x00'
tRp519
sg44
g45
sg40
g41
sg25
F0.19062412355560809
sS'trials.thisIndex'
p520
g36
(g80
S'\x15\x00\x00\x00'
tRp521
sg26
V5
sS'trials.thisRepN'
p522
I0
sg66
Vcrab
p523
sg63
V../experiment_stimuli/bw_bc_bl/Living_Things/Marine_creatures/crab_20.jpg
p524
sg21
F0.64161802909802645
sS'trials.thisTrialN'
p525
I39
sa(dp526
g31
g32
sg17
F167.27802672318649
sg24
I1
sg35
g39
sg14
F167.27313666930422
sg16
g36
(g70
S'\x01\x00\x00\x00'
tRp527
sg42
g43
sg46
g47
sg15
g113
sg22
F169.27812037954573
sg64
g238
sg62
g74
sg49
g50
sS'trials.thisN'
p528
I40
sg19
I1
sg27
g36
(g38
S'\x00\x00\x00\x00\x00\x00\x1a@'
tRp529
sg52
g53
sg23
S'1'
sg18
F168.52575897413772
sg33
g34
sg51
g11
sg20
S'1'
sg65
g36
(g77
S'\x00\x00\x00\x00\x00\x00\x00\x00'
tRp530
sg44
g45
sg40
g41
sg25
F0.20065386709757149
sS'trials.thisIndex'
p531
g36
(g80
S'+\x00\x00\x00'
tRp532
sg26
V5
sS'trials.thisRepN'
p533
I0
sg66
Vkiller-whale
p534
sg63
V../experiment_stimuli/bw_bc_bl/Living_Things/Marine_creatures/killer-whale_7.jpg
p535
sg21
F0.73181778995785862
sS'trials.thisTrialN'
p536
I40
sa(dp537
g31
g32
sg17
F171.21663901943248
sg24
I1
sg35
g39
sg14
F171.21170267276466
sg16
g36
(g70
S'\x01\x00\x00\x00'
tRp538
sg42
g43
sg46
g47
sg15
g113
sg22
F172.93607339065056
sg64
g114
sg62
g74
sg49
g50
sS'trials.thisN'
p539
I41
sg19
I1
sg27
g36
(g38
S'\x00\x00\x00\x00\x00\x00\x1a@'
tRp540
sg52
g53
sg23
S'1'
sg18
F172.47434961621184
sg33
g34
sg51
g11
sg20
S'1'
sg65
g36
(g77
S'\x00\x00\x00\x00\x00\x00\x00\x00'
tRp541
sg44
g45
sg40
g41
sg25
F0.18062911240849644
sS'trials.thisIndex'
p542
g36
(g80
S'*\x00\x00\x00'
tRp543
sg26
V5
sS'trials.thisRepN'
p544
I0
sg66
Vhummingbird
p545
sg63
V../experiment_stimuli/bw_bc_bl/Living_Things/Birds/hummingbird_25.jpg
p546
sg21
F0.44118498975876719
sS'trials.thisTrialN'
p547
I41
sa(dp548
g31
g32
sg17
F174.85644707235042
sg24
I1
sg35
g39
sg14
F174.84960185457021
sg16
g36
(g70
S'\x01\x00\x00\x00'
tRp549
sg42
g43
sg46
g47
sg15
g72
sg22
F176.76439012365881
sg64
g283
sg62
g89
sg49
g50
sS'trials.thisN'
p550
I42
sg19
I1
sg27
g36
(g38
S'\x00\x00\x00\x00\x00\x00\x1a@'
tRp551
sg52
g53
sg23
S'1'
sg18
F176.1222778345691
sg33
g34
sg51
g11
sg20
S'1'
sg65
g36
(g77
S'\x00\x00\x00\x00\x00\x00\x00\x00'
tRp552
sg44
g45
sg40
g41
sg25
F0.21067116688936949
sS'trials.thisIndex'
p553
g36
(g80
S'S\x00\x00\x00'
tRp554
sg26
V5
sS'trials.thisRepN'
p555
I0
sg66
Vteapot
p556
sg63
V../experiment_stimuli/bw_bc_bl/Nonliving_Things/Kitchen_Uten/teapot_9.jpg
p557
sg21
F0.62157407950144261
sS'trials.thisTrialN'
p558
I42
sa(dp559
g31
g32
sg17
F178.71303009940311
sg24
I0
sg35
g39
sg14
F178.70799664163496
sg16
g36
(g70
S'\x01\x00\x00\x00'
tRp560
sg42
g43
sg46
g47
sg15
g113
sg22
F180.93346113408916
sg64
g73
sg62
g74
sg49
g50
sS'trials.thisN'
p561
I43
sg19
I1
sg27
g36
(g38
S'\x00\x00\x00\x00\x00\x00\x18@'
tRp562
sg52
g53
sg23
S'2'
sg18
F180.01074763084762
sg33
g34
sg51
g11
sg20
S'1'
sg65
g36
(g77
S'\x00\x00\x00\x00\x00\x00\x00\x00'
tRp563
sg44
g45
sg40
g41
sg25
F0.23072052281349897
sS'trials.thisIndex'
p564
g36
(g80
S'\x01\x00\x00\x00'
tRp565
sg26
V5
sS'trials.thisRepN'
p566
I0
sg66
Varmadillo
p567
sg63
V../experiment_stimuli/bw_bc_bl/Living_Things/Animals/armadillo_5.jpg
p568
sg21
F0.90218880458269268
sS'trials.thisTrialN'
p569
I43
sa(dp570
g31
g32
sg17
F182.90299604402389
sg24
I0
sg35
g39
sg14
F182.89709906082135
sg16
g36
(g70
S'\x01\x00\x00\x00'
tRp571
sg42
g43
sg46
g47
sg15
g72
sg22
F184.82191047957167
sg64
g101
sg62
g89
sg49
g50
sS'trials.thisN'
p572
I44
sg19
I1
sg27
g36
(g38
S'\x00\x00\x00\x00\x00\x00\x18@'
tRp573
sg52
g53
sg23
S'3'
sg18
F184.18981048709247
sg33
g34
sg51
g11
sg20
S'1'
sg65
g36
(g77
S'\x00\x00\x00\x00\x00\x00\x00\x00'
tRp574
sg44
g45
sg40
g41
sg25
F0.23071801161859185
sS'trials.thisIndex'
p575
g36
(g80
S'\x0b\x00\x00\x00'
tRp576
sg26
V5
sS'trials.thisRepN'
p577
I0
sg66
Vcar
p578
sg63
V../experiment_stimuli/bw_bc_bl/Nonliving_Things/Vehicles/car_21.jpg
p579
sg21
F0.61155588820111006
sS'trials.thisTrialN'
p580
I44
sa(dp581
g31
g32
sg17
F186.79045430966653
sg24
I1
sg35
g39
sg14
F186.78555638727266
sg16
g36
(g70
S'\x02\x00\x00\x00'
tRp582
sg42
g43
sg46
g47
sg15
g113
sg22
F188.77067814883776
sg64
g88
sg62
g89
sg49
g50
sS'trials.thisN'
p583
I45
sg19
I1
sg27
g36
(g38
S'\x00\x00\x00\x00\x00\x00\x18@'
tRp584
sg52
g53
sg23
S'1'
sg18
F188.04820402211044
sg33
g34
sg51
g11
sg20
S'2'
sg65
g36
(g77
S'\x00\x00\x00\x00\x00\x00\x00\x00'
tRp585
sg44
g45
sg40
g41
sg25
F0.19064919836819172
sS'trials.thisIndex'
p586
g36
(g80
S'\x13\x00\x00\x00'
tRp587
sg26
V5
sS'trials.thisRepN'
p588
I0
sg66
Vcouch
p589
sg63
V../experiment_stimuli/bw_bc_bl/Nonliving_Things/Furniture/couch_13.jpg
p590
sg21
F0.70191843970678747
sS'trials.thisTrialN'
p591
I45
sa(dp592
g31
g32
sg17
F190.69915398524608
sg24
I0
sg35
g39
sg14
F190.6940505055245
sg16
g36
(g70
S'\x02\x00\x00\x00'
tRp593
sg42
g43
sg46
g47
sg15
g72
sg22
F192.83933204505593
sg64
g73
sg62
g74
sg49
g50
sS'trials.thisN'
p594
I46
sg19
I1
sg27
g36
(g38
S'\x00\x00\x00\x00\x00\x00\x1c@'
tRp595
sg52
g53
sg23
S'2'
sg18
F191.97674433095381
sg33
g34
sg51
g11
sg20
S'2'
sg65
g36
(g77
S'\x00\x00\x00\x00\x00\x00\x00\x00'
tRp596
sg44
g45
sg40
g41
sg25
F0.21067677228711545
sS'trials.thisIndex'
p597
g36
(g80
S'_\x00\x00\x00'
tRp598
sg26
V5
sS'trials.thisRepN'
p599
I0
sg66
Vzebra
p600
sg63
V../experiment_stimuli/bw_bc_bl/Living_Things/Animals/zebra_15.jpg
p601
sg21
F0.84205567371100187
sS'trials.thisTrialN'
p602
I46
sa(dp603
g31
g32
sg17
F194.7900365178939
sg24
I1
sg35
g39
sg14
F194.7829621641431
sg16
g36
(g70
S'\x01\x00\x00\x00'
tRp604
sg42
g43
sg46
g47
sg15
g113
sg22
F197.11864228907507
sg64
g73
sg62
g74
sg49
g50
sS'trials.thisN'
p605
I47
sg19
I1
sg27
g36
(g38
S'\x00\x00\x00\x00\x00\x00\x18@'
tRp606
sg52
g53
sg23
S'1'
sg18
F196.05560713738669
sg33
g34
sg51
g11
sg20
S'1'
sg65
g36
(g77
S'\x00\x00\x00\x00\x00\x00\x00\x00'
tRp607
sg44
g45
sg40
g41
sg25
F0.21067811059765518
sS'trials.thisIndex'
p608
g36
(g80
S'T\x00\x00\x00'
tRp609
sg26
V5
sS'trials.thisRepN'
p610
I0
sg66
Vtiger
p611
sg63
V../experiment_stimuli/bw_bc_bl/Living_Things/Animals/tiger_4.jpg
p612
sg21
F1.0424932127352804
sS'trials.thisTrialN'
p613
I47
sa(dp614
g31
g32
sg17
F199.06717275152914
sg24
I0
sg35
g39
sg14
F199.06227265635971
sg16
g36
(g70
S'\x02\x00\x00\x00'
tRp615
sg42
g43
sg46
g47
sg15
g72
sg22
F201.22757606697269
sg64
g114
sg62
g74
sg49
g50
sS'trials.thisN'
p616
I48
sg19
I1
sg27
g36
(g38
S'\x00\x00\x00\x00\x00\x00\x1c@'
tRp617
sg52
g53
sg23
S'2'
sg18
F200.34493847459089
sg33
g34
sg51
g11
sg20
S'2'
sg65
g36
(g77
S'\x00\x00\x00\x00\x00\x00\x00\x00'
tRp618
sg44
g45
sg40
g41
sg25
F0.18060818035155535
sS'trials.thisIndex'
p619
g36
(g80
S'=\x00\x00\x00'
tRp620
sg26
V5
sS'trials.thisRepN'
p621
I0
sg66
Vpenguin
p622
sg63
V../experiment_stimuli/bw_bc_bl/Living_Things/Birds/penguin_23.jpg
p623
sg21
F0.862087995512411
sS'trials.thisTrialN'
p624
I48
sa(dp625
g31
g32
sg17
F203.14597150590271
sg24
I1
sg35
g39
sg14
F203.14111344411504
sg16
g36
(g70
S'\x01\x00\x00\x00'
tRp626
sg42
g43
sg46
g47
sg15
g113
sg22
F204.99579733691644
sg64
g238
sg62
g74
sg49
g50
sS'trials.thisN'
p627
I49
sg19
I0
sg27
g36
(g38
S'\x00\x00\x00\x00\x00\x00\x1c@'
tRp628
sg52
g53
sg23
S'1'
sg18
F204.41377930389717
sg33
g34
sg51
g11
sg20
S'2'
sg65
g36
(g77
S'\x00\x00\x00\x00\x00\x00\x00\x00'
tRp629
sg44
g45
sg40
g41
sg25
F0.18060989060904831
sS'trials.thisIndex'
p630
g36
(g80
S'A\x00\x00\x00'
tRp631
sg26
V5
sS'trials.thisRepN'
p632
I0
sg66
Vpomfret
p633
sg63
V../experiment_stimuli/bw_bc_bl/Living_Things/Marine_creatures/pomfret_5.jpg
p634
sg21
F0.56145766226109117
sS'trials.thisTrialN'
p635
I49
sa(dp636
g31
g32
sg17
F206.91428170341533
sg24
I0
sg35
g39
sg14
F206.90930511301849
sg16
g36
(g70
S'\x02\x00\x00\x00'
tRp637
sg42
g43
sg46
g47
sg15
g72
sg22
F209.15465142996982
sg64
g73
sg62
g74
sg49
g50
sS'trials.thisN'
p638
I50
sg19
I1
sg27
g36
(g38
S'\x00\x00\x00\x00\x00\x00\x1e@'
tRp639
sg52
g53
sg23
S'3'
sg18
F208.21203632454854
sg33
g34
sg51
g11
sg20
S'2'
sg65
g36
(g77
S'\x00\x00\x00\x00\x00\x00\x00\x00'
tRp640
sg44
g45
sg40
g41
sg25
F0.24074011226184666
sS'trials.thisIndex'
p641
g36
(g80
S' \x00\x00\x00'
tRp642
sg26
V5
sS'trials.thisRepN'
p643
I0
sg66
Vgiraffe
p644
sg63
V../experiment_stimuli/bw_bc_bl/Living_Things/Animals/giraffe_26.jpg
p645
sg21
F0.92207511025480926
sS'trials.thisTrialN'
p646
I50
sa(dp647
g31
g32
sg17
F211.13349854096305
sg24
I1
sg35
g39
sg14
F211.12847678223625
sg16
g36
(g70
S'\x01\x00\x00\x00'
tRp648
sg42
g43
sg46
g47
sg15
g72
sg22
F212.93305075005628
sg64
g283
sg62
g89
sg49
g50
sS'trials.thisN'
p649
I51
sg19
I1
sg27
g36
(g38
S'\x00\x00\x00\x00\x00\x00\x1e@'
tRp650
sg52
g53
sg23
S'1'
sg18
F212.4011456083972
sg33
g34
sg51
g11
sg20
S'1'
sg65
g36
(g77
S'\x00\x00\x00\x00\x00\x00\x00\x00'
tRp651
sg44
g45
sg40
g41
sg25
F0.1704384651966393
sS'trials.thisIndex'
p652
g36
(g80
S'M\x00\x00\x00'
tRp653
sg26
V5
sS'trials.thisRepN'
p654
I0
sg66
Vsmall-saucepan
p655
sg63
V../experiment_stimuli/bw_bc_bl/Nonliving_Things/Kitchen_Uten/small-saucepan_3.jpg
p656
sg21
F0.51134301512502134
sS'trials.thisTrialN'
p657
I51
sa(dp658
g31
g32
sg17
F214.8414452309953
sg24
I0
sg35
g39
sg14
F214.83653299661819
sg16
g36
(g70
S'\x01\x00\x00\x00'
tRp659
sg42
g43
sg46
g47
sg15
g72
sg22
F216.6310579017736
sg64
g88
sg62
g89
sg49
g50
sS'trials.thisN'
p660
I52
sg19
I1
sg27
g36
(g38
S'\x00\x00\x00\x00\x00\x00\x18@'
tRp661
sg52
g53
sg23
S'2'
sg18
F216.11922793474514
sg33
g34
sg51
g11
sg20
S'1'
sg65
g36
(g77
S'\x00\x00\x00\x00\x00\x00\x00\x00'
tRp662
sg44
g45
sg40
g41
sg25
F0.2607880545547232
sS'trials.thisIndex'
p663
g36
(g80
S'\x06\x00\x00\x00'
tRp664
sg26
V5
sS'trials.thisRepN'
p665
I0
sg66
Vbedside-table
p666
sg63
V../experiment_stimuli/bw_bc_bl/Nonliving_Things/Furniture/bedside-table_5.jpg
p667
sg21
F0.49129038141109049
sS'trials.thisTrialN'
p668
I52
sa(dp669
g31
g32
sg17
F218.62971647700761
sg24
I1
sg35
g39
sg14
F218.62479372438975
sg16
g36
(g70
S'\x02\x00\x00\x00'
tRp670
sg42
g43
sg46
g47
sg15
g113
sg22
F221.01061005215161
sg64
g283
sg62
g89
sg49
g50
sS'trials.thisN'
p671
I53
sg19
I1
sg27
g36
(g38
S'\x00\x00\x00\x00\x00\x00\x1e@'
tRp672
sg52
g53
sg23
S'1'
sg18
F219.89743785152677
sg33
g34
sg51
g11
sg20
S'2'
sg65
g36
(g77
S'\x00\x00\x00\x00\x00\x00\x00\x00'
tRp673
sg44
g45
sg40
g41
sg25
F0.18060593225527555
sS'trials.thisIndex'
p674
g36
(g80
S'\x1e\x00\x00\x00'
tRp675
sg26
V5
sS'trials.thisRepN'
p676
I0
sg66
Vfondue
p677
sg63
V../experiment_stimuli/bw_bc_bl/Nonliving_Things/Kitchen_Uten/fondue_14.jpg
p678
sg21
F1.0926048220135272
sS'trials.thisTrialN'
p679
I53
sa(dp680
g31
g32
sg17
F222.92913454584777
sg24
I1
sg35
g39
sg14
F222.92412546719424
sg16
g36
(g70
S'\x02\x00\x00\x00'
tRp681
sg42
g43
sg46
g47
sg15
g113
sg22
F224.78883120894898
sg64
g126
sg62
g89
sg49
g50
sS'trials.thisN'
p682
I54
sg19
I1
sg27
g36
(g38
S'\x00\x00\x00\x00\x00\x00\x18@'
tRp683
sg52
g53
sg23
S'1'
sg18
F224.20680855587125
sg33
g34
sg51
g11
sg20
S'2'
sg65
g36
(g77
S'\x00\x00\x00\x00\x00\x00\x00\x00'
tRp684
sg44
g45
sg40
g41
sg25
F0.18061182682868093
sS'trials.thisIndex'
p685
g36
(g80
S'5\x00\x00\x00'
tRp686
sg26
V5
sS'trials.thisRepN'
p687
I0
sg66
Vmill
p688
sg63
V../experiment_stimuli/bw_bc_bl/Nonliving_Things/Buildings/mill_17.jpg
p689
sg21
F0.56146251538302749
sS'trials.thisTrialN'
p690
I54
sa(dp691
g31
g32
sg17
F226.70824865985196
sg24
I0
sg35
g39
sg14
F226.7023331806995
sg16
g36
(g70
S'\x01\x00\x00\x00'
tRp692
sg42
g43
sg46
g47
sg15
g72
sg22
F228.52692578302231
sg64
g372
sg62
g89
sg49
g50
sS'trials.thisN'
p693
I55
sg19
I1
sg27
g36
(g38
S'\x00\x00\x00\x00\x00\x00\x1c@'
tRp694
sg52
g53
sg23
S'3'
sg18
F228.01509286114015
sg33
g34
sg51
g11
sg20
S'1'
sg65
g36
(g77
S'\x00\x00\x00\x00\x00\x00\x00\x00'
tRp695
sg44
g45
sg40
g41
sg25
F0.20064971293322742
sS'trials.thisIndex'
p696
g36
(g80
S'\x19\x00\x00\x00'
tRp697
sg26
V5
sS'trials.thisRepN'
p698
I0
sg66
Vdrum
p699
sg63
V../experiment_stimuli/bw_bc_bl/Nonliving_Things/Musical_Inst/drum_15.jpg
p700
sg21
F0.49129174591507763
sS'trials.thisTrialN'
p701
I55
sa(dp702
g31
g32
sg17
F230.46554256044328
sg24
I0
sg35
g39
sg14
F230.46050794085022
sg16
g36
(g70
S'\x02\x00\x00\x00'
tRp703
sg42
g43
sg46
g47
sg15
g113
sg22
F232.92649283073843
sg64
g126
sg62
g89
sg49
g50
sS'trials.thisN'
p704
I56
sg19
I1
sg27
g36
(g38
S'\x00\x00\x00\x00\x00\x00\x1c@'
tRp705
sg52
g53
sg23
S'3'
sg18
F231.76323908823542
sg33
g34
sg51
g11
sg20
S'2'
sg65
g36
(g77
S'\x00\x00\x00\x00\x00\x00\x00\x00'
tRp706
sg44
g45
sg40
g41
sg25
F0.23074625537265092
sS'trials.thisIndex'
p707
g36
(g80
S'\x11\x00\x00\x00'
tRp708
sg26
V5
sS'trials.thisRepN'
p709
I0
sg66
Vchurch
p710
sg63
V../experiment_stimuli/bw_bc_bl/Nonliving_Things/Buildings/church_18.jpg
p711
sg21
F1.1427076647523791
sS'trials.thisTrialN'
p712
I56
sa(dp713
g31
g32
sg17
F234.89488565933425
sg24
I0
sg35
g39
sg14
F234.89013135898858
sg16
g36
(g70
S'\x02\x00\x00\x00'
tRp714
sg42
g43
sg46
g47
sg15
g113
sg22
F236.78511270869058
sg64
g101
sg62
g89
sg49
g50
sS'trials.thisN'
p715
I57
sg19
I1
sg27
g36
(g38
S'\x00\x00\x00\x00\x00\x00\x18@'
tRp716
sg52
g53
sg23
S'2'
sg18
F236.16279786929954
sg33
g34
sg51
g11
sg20
S'2'
sg65
g36
(g77
S'\x00\x00\x00\x00\x00\x00\x00\x00'
tRp717
sg44
g45
sg40
g41
sg25
F0.060335425543598831
sS'trials.thisIndex'
p718
g36
(g80
S'\t\x00\x00\x00'
tRp719
sg26
V5
sS'trials.thisRepN'
p720
I0
sg66
Vbus
p721
sg63
V../experiment_stimuli/bw_bc_bl/Nonliving_Things/Vehicles/bus_10.jpg
p722
sg21
F0.60174579918384552
sS'trials.thisTrialN'
p723
I57
sa(dp724
g31
g32
sg17
F238.58286253723782
sg24
I1
sg35
g39
sg14
F238.57815309334546
sg16
g36
(g70
S'\x02\x00\x00\x00'
tRp725
sg42
g43
sg46
g47
sg15
g113
sg22
F240.61322519613896
sg64
g88
sg62
g89
sg49
g50
sS'trials.thisN'
p726
I58
sg19
I1
sg27
g36
(g38
S'\x00\x00\x00\x00\x00\x00\x1a@'
tRp727
sg52
g53
sg23
S'1'
sg18
F239.83076967287343
sg33
g34
sg51
g11
sg20
S'2'
sg65
g36
(g77
S'\x00\x00\x00\x00\x00\x00\x00\x00'
tRp728
sg44
g45
sg40
g41
sg25
F0.19063763821031898
sS'trials.thisIndex'
p729
g36
(g80
S'.\x00\x00\x00'
tRp730
sg26
V5
sS'trials.thisRepN'
p731
I0
sg66
Vlamp
p732
sg63
V../experiment_stimuli/bw_bc_bl/Nonliving_Things/Furniture/lamp_11.jpg
p733
sg21
F0.76189661840908229
sS'trials.thisTrialN'
p734
I58
sa(dp735
g31
g32
sg17
F242.54157902672887
sg24
I1
sg35
g39
sg14
F242.53675135516096
sg16
g36
(g70
S'\x01\x00\x00\x00'
tRp736
sg42
g43
sg46
g47
sg15
g113
sg22
F244.46159802156035
sg64
g114
sg62
g74
sg49
g50
sS'trials.thisN'
p737
I59
sg19
I1
sg27
g36
(g38
S'\x00\x00\x00\x00\x00\x00\x18@'
tRp738
sg52
g53
sg23
S'1'
sg18
F243.80942877149209
sg33
g34
sg51
g11
sg20
S'1'
sg65
g36
(g77
S'\x00\x00\x00\x00\x00\x00\x00\x00'
tRp739
sg44
g45
sg40
g41
sg25
F0.23072169569786638
sS'trials.thisIndex'
p740
g36
(g80
S'3\x00\x00\x00'
tRp741
sg26
V5
sS'trials.thisRepN'
p742
I0
sg66
Vmagpie
p743
sg63
V../experiment_stimuli/bw_bc_bl/Living_Things/Birds/magpie_25.jpg
p744
sg21
F0.63160110847093165
sS'trials.thisTrialN'
p745
I59
sa(dp746
g31
g32
sg17
F246.43246272800025
sg24
I0
sg35
g39
sg14
F246.42520941479597
sg16
g36
(g70
S'\x01\x00\x00\x00'
tRp747
sg42
g43
sg46
g47
sg15
g72
sg22
F248.46025630750228
sg64
g88
sg62
g89
sg49
g50
sS'trials.thisN'
p748
I60
sg19
I1
sg27
g36
(g38
S'\x00\x00\x00\x00\x00\x00\x1a@'
tRp749
sg52
g53
sg23
S'3'
sg18
F247.7379617721308
sg33
g34
sg51
g11
sg20
S'1'
sg65
g36
(g77
S'\x00\x00\x00\x00\x00\x00\x00\x00'
tRp750
sg44
g45
sg40
g41
sg25
F0.26077939663082361
sS'trials.thisIndex'
p751
g36
(g80
S'\x02\x00\x00\x00'
tRp752
sg26
V5
sS'trials.thisRepN'
p753
I0
sg66
Varmchair
p754
sg63
V../experiment_stimuli/bw_bc_bl/Nonliving_Things/Furniture/armchair_15.jpg
p755
sg21
F0.70175105903763324
sS'trials.thisTrialN'
p756
I60
sa(dp757
g31
g32
sg17
F250.45884115435183
sg24
I0
sg35
g39
sg14
F250.45398464507889
sg16
g36
(g70
S'\x01\x00\x00\x00'
tRp758
sg42
g43
sg46
g47
sg15
g72
sg22
F252.53915818070527
sg64
g101
sg62
g89
sg49
g50
sS'trials.thisN'
p759
I61
sg19
I1
sg27
g36
(g38
S'\x00\x00\x00\x00\x00\x00\x1a@'
tRp760
sg52
g53
sg23
S'2'
sg18
F251.73665906861424
sg33
g34
sg51
g11
sg20
S'1'
sg65
g36
(g77
S'\x00\x00\x00\x00\x00\x00\x00\x00'
tRp761
sg44
g45
sg40
g41
sg25
F0.2307171318680048
sS'trials.thisIndex'
p762
g36
(g80
S'W\x00\x00\x00'
tRp763
sg26
V5
sS'trials.thisRepN'
p764
I0
sg66
Vtrain
p765
sg63
V../experiment_stimuli/bw_bc_bl/Nonliving_Things/Vehicles/train_18.jpg
p766
sg21
F0.7819394365651533
sS'trials.thisTrialN'
p767
I61
sa(dp768
g31
g32
sg17
F254.50760313996579
sg24
I0
sg35
g39
sg14
F254.50276975054294
sg16
g36
(g70
S'\x01\x00\x00\x00'
tRp769
sg42
g43
sg46
g47
sg15
g113
sg22
F256.91851979237981
sg64
g73
sg62
g74
sg49
g50
sS'trials.thisN'
p770
I62
sg19
I1
sg27
g36
(g38
S'\x00\x00\x00\x00\x00\x00\x18@'
tRp771
sg52
g53
sg23
S'2'
sg18
F255.77543399774004
sg33
g34
sg51
g11
sg20
S'1'
sg65
g36
(g77
S'\x00\x00\x00\x00\x00\x00\x00\x00'
tRp772
sg44
g45
sg40
g41
sg25
F0.30089054047130048
sS'trials.thisIndex'
p773
g36
(g80
S'\x14\x00\x00\x00'
tRp774
sg26
V5
sS'trials.thisRepN'
p775
I0
sg66
Vcow
p776
sg63
V../experiment_stimuli/bw_bc_bl/Living_Things/Animals/cow_22.jpg
p777
sg21
F1.1225144352065399
sS'trials.thisTrialN'
p778
I62
sa(dp779
g31
g32
sg17
F258.95729639101774
sg24
I1
sg35
g39
sg14
F258.95244580274448
sg16
g36
(g70
S'\x01\x00\x00\x00'
tRp780
sg42
g43
sg46
g47
sg15
g113
sg22
F260.74683567939792
sg64
g238
sg62
g74
sg49
g50
sS'trials.thisN'
p781
I63
sg19
I1
sg27
g36
(g38
S'\x00\x00\x00\x00\x00\x00\x1a@'
tRp782
sg52
g53
sg23
S'1'
sg18
F260.21508778003044
sg33
g34
sg51
g11
sg20
S'1'
sg65
g36
(g77
S'\x00\x00\x00\x00\x00\x00\x00\x00'
tRp783
sg44
g45
sg40
g41
sg25
F0.22069520386867225
sS'trials.thisIndex'
p784
g36
(g80
S'\x17\x00\x00\x00'
tRp785
sg26
V5
sS'trials.thisRepN'
p786
I0
sg66
Vdolphin
p787
sg63
V../experiment_stimuli/bw_bc_bl/Living_Things/Marine_creatures/dolphin_21.jpg
p788
sg21
F0.51118535932619125
sS'trials.thisTrialN'
p789
I63
sa(dp790
g31
g32
sg17
F262.70534983742982
sg24
I0
sg35
g39
sg14
F262.70061879605055
sg16
g36
(g70
S'\x02\x00\x00\x00'
tRp791
sg42
g43
sg46
g47
sg15
g113
sg22
F264.69555099634454
sg64
g101
sg62
g89
sg49
g50
sS'trials.thisN'
p792
I64
sg19
I1
sg27
g36
(g38
S'\x00\x00\x00\x00\x00\x00\x18@'
tRp793
sg52
g53
sg23
S'2'
sg18
F263.99330459861085
sg33
g34
sg51
g11
sg20
S'2'
sg65
g36
(g77
S'\x00\x00\x00\x00\x00\x00\x00\x00'
tRp794
sg44
g45
sg40
g41
sg25
F0.18062593950890005
sS'trials.thisIndex'
p795
g36
(g80
S'\x07\x00\x00\x00'
tRp796
sg26
V5
sS'trials.thisRepN'
p797
I0
sg66
Vboat
p798
sg63
V../experiment_stimuli/bw_bc_bl/Nonliving_Things/Vehicles/boat_1.jpg
p799
sg21
F0.68170840234961361
sS'trials.thisTrialN'
p800
I64
sa(dp801
g31
g32
sg17
F266.6139768109424
sg24
I0
sg35
g39
sg14
F266.60909191484097
sg16
g36
(g70
S'\x02\x00\x00\x00'
tRp802
sg42
g43
sg46
g47
sg15
g72
sg22
F268.75437737163156
sg64
g114
sg62
g74
sg49
g50
sS'trials.thisN'
p803
I65
sg19
I1
sg27
g36
(g38
S'\x00\x00\x00\x00\x00\x00\x1c@'
tRp804
sg52
g53
sg23
S'2'
sg18
F267.89177820261102
sg33
g34
sg51
g11
sg20
S'2'
sg65
g36
(g77
S'\x00\x00\x00\x00\x00\x00\x00\x00'
tRp805
sg44
g45
sg40
g41
sg25
F0.33094748947769403
sS'trials.thisIndex'
p806
g36
(g80
S'9\x00\x00\x00'
tRp807
sg26
V5
sS'trials.thisRepN'
p808
I0
sg66
Vowl
p809
sg63
V../experiment_stimuli/bw_bc_bl/Living_Things/Birds/owl_22.jpg
p810
sg21
F0.83203340379986912
sS'trials.thisTrialN'
p811
I65
sa(dp812
g31
g32
sg17
F270.82307146652602
sg24
I0
sg35
g39
sg14
F270.81823408475611
sg16
g36
(g70
S'\x02\x00\x00\x00'
tRp813
sg42
g43
sg46
g47
sg15
g72
sg22
F272.97356288239826
sg64
g73
sg62
g74
sg49
g50
sS'trials.thisN'
p814
I66
sg19
I1
sg27
g36
(g38
S'\x00\x00\x00\x00\x00\x00\x18@'
tRp815
sg52
g53
sg23
S'3'
sg18
F272.09090569627006
sg33
g34
sg51
g11
sg20
S'2'
sg65
g36
(g77
S'\x00\x00\x00\x00\x00\x00\x00\x00'
tRp816
sg44
g45
sg40
g41
sg25
F0.26077888568397611
sS'trials.thisIndex'
p817
g36
(g80
S'\x1b\x00\x00\x00'
tRp818
sg26
V5
sS'trials.thisRepN'
p819
I0
sg66
Velephant
p820
sg63
V../experiment_stimuli/bw_bc_bl/Living_Things/Animals/elephant_25.jpg
p821
sg21
F0.86211289023049176
sS'trials.thisTrialN'
p822
I66
sa(dp823
g31
g32
sg17
F274.97206229483709
sg24
I1
sg35
g39
sg14
F274.96727541205473
sg16
g36
(g70
S'\x02\x00\x00\x00'
tRp824
sg42
g43
sg46
g47
sg15
g72
sg22
F277.07248776603956
sg64
g406
sg62
g74
sg49
g50
sS'trials.thisN'
p825
I67
sg19
I1
sg27
g36
(g38
S'\x00\x00\x00\x00\x00\x00\x1a@'
tRp826
sg52
g53
sg23
S'1'
sg18
F276.21988498407882
sg33
g34
sg51
g11
sg20
S'2'
sg65
g36
(g77
S'\x00\x00\x00\x00\x00\x00\x00\x00'
tRp827
sg44
g45
sg40
g41
sg25
F0.18060761247761548
sS'trials.thisIndex'
p828
g36
(g80
S'-\x00\x00\x00'
tRp829
sg26
V5
sS'trials.thisRepN'
p830
I0
sg66
Vladybird
p831
sg63
V../experiment_stimuli/bw_bc_bl/Living_Things/Insects/ladybird_8.jpg
p832
sg21
F0.83204007253516465
sS'trials.thisTrialN'
p833
I67
sa(dp834
g31
g32
sg17
F278.99066871218383
sg24
I0
sg35
g39
sg14
F278.98599488439504
sg16
g36
(g70
S'\x02\x00\x00\x00'
tRp835
sg42
g43
sg46
g47
sg15
g72
sg22
F280.77050292154308
sg64
g238
sg62
g74
sg49
g50
sS'trials.thisN'
p836
I68
sg19
I1
sg27
g36
(g38
S'\x00\x00\x00\x00\x00\x00\x18@'
tRp837
sg52
g53
sg23
S'2'
sg18
F280.25865931960288
sg33
g34
sg51
g11
sg20
S'2'
sg65
g36
(g77
S'\x00\x00\x00\x00\x00\x00\x00\x00'
tRp838
sg44
g45
sg40
g41
sg25
F0.2808219405123964
sS'trials.thisIndex'
p839
g36
(g80
S'4\x00\x00\x00'
tRp840
sg26
V5
sS'trials.thisRepN'
p841
I0
sg66
Vmanatee
p842
sg63
V../experiment_stimuli/bw_bc_bl/Living_Things/Marine_creatures/manatee_26.jpg
p843
sg21
F0.49129548273049295
sS'trials.thisTrialN'
p844
I68
sa(dp845
g31
g32
sg17
F282.78916889440734
sg24
I0
sg35
g39
sg14
F282.78424726217054
sg16
g36
(g70
S'\x02\x00\x00\x00'
tRp846
sg42
g43
sg46
g47
sg15
g72
sg22
F284.64892987639178
sg64
g406
sg62
g74
sg49
g50
sS'trials.thisN'
p847
I69
sg19
I1
sg27
g36
(g38
S'\x00\x00\x00\x00\x00\x00\x18@'
tRp848
sg52
g53
sg23
S'3'
sg18
F284.04689611145295
sg33
g34
sg51
g11
sg20
S'2'
sg65
g36
(g77
S'\x00\x00\x00\x00\x00\x00\x00\x00'
tRp849
sg44
g45
sg40
g41
sg25
F0.21068700519390404
sS'trials.thisIndex'
p850
g36
(g80
S'\n\x00\x00\x00'
tRp851
sg26
V5
sS'trials.thisRepN'
p852
I0
sg66
Vbutterfly
p853
sg63
V../experiment_stimuli/bw_bc_bl/Living_Things/Insects/butterfly_15.jpg
p854
sg21
F0.58148084883578122
sS'trials.thisTrialN'
p855
I69
sa(dp856
g31
g32
sg17
F286.59744020388462
sg24
I1
sg35
g39
sg14
F286.59252762398683
sg16
g36
(g70
S'\x02\x00\x00\x00'
tRp857
sg42
g43
sg46
g47
sg15
g72
sg22
F288.30691399623174
sg64
g114
sg62
g74
sg49
g50
sS'trials.thisN'
p858
I70
sg19
I1
sg27
g36
(g38
S'\x00\x00\x00\x00\x00\x00\x18@'
tRp859
sg52
g53
sg23
S'1'
sg18
F287.82510959915817
sg33
g34
sg51
g11
sg20
S'2'
sg65
g36
(g77
S'\x00\x00\x00\x00\x00\x00\x00\x00'
tRp860
sg44
g45
sg40
g41
sg25
F0.21067580231465399
sS'trials.thisIndex'
p861
g36
(g80
S'&\x00\x00\x00'
tRp862
sg26
V5
sS'trials.thisRepN'
p863
I0
sg66
Vhen
p864
sg63
V../experiment_stimuli/bw_bc_bl/Living_Things/Birds/hen_16.jpg
p865
sg21
F0.4612501235678792
sS'trials.thisTrialN'
p866
I70
sa(dp867
g31
g32
sg17
F290.25527548370883
sg24
I1
sg35
g39
sg14
F290.25048018747475
sg16
g36
(g70
S'\x02\x00\x00\x00'
tRp868
sg42
g43
sg46
g47
sg15
g113
sg22
F292.80668272566982
sg64
g126
sg62
g89
sg49
g50
sS'trials.thisN'
p869
I71
sg19
I0
sg27
g36
(g38
S'\x00\x00\x00\x00\x00\x00\x1a@'
tRp870
sg52
g53
sg23
S'1'
sg18
F291.50310569920111
sg33
g34
sg51
g11
sg20
S'1'
sg65
g36
(g77
S'\x00\x00\x00\x00\x00\x00\x00\x00'
tRp871
sg44
g45
sg40
g41
sg25
F0.20050683163572103
sS'trials.thisIndex'
p872
g36
(g80
S'\x1c\x00\x00\x00'
tRp873
sg26
V5
sS'trials.thisRepN'
p874
I0
sg66
Vfactory
p875
sg63
V../experiment_stimuli/bw_bc_bl/Nonliving_Things/Buildings/factory_26.jpg
p876
sg21
F1.2830141928279772
sS'trials.thisTrialN'
p877
I71
sa(dp878
g31
g32
sg17
F294.74511206964962
sg24
I0
sg35
g39
sg14
F294.74024122208357
sg16
g36
(g70
S'\x02\x00\x00\x00'
tRp879
sg42
g43
sg46
g47
sg15
g113
sg22
F296.50473056850024
sg64
g88
sg62
g89
sg49
g50
sS'trials.thisN'
p880
I72
sg19
I1
sg27
g36
(g38
S'\x00\x00\x00\x00\x00\x00\x1a@'
tRp881
sg52
g53
sg23
S'2'
sg18
F296.02293902484234
sg33
g34
sg51
g11
sg20
S'2'
sg65
g36
(g77
S'\x00\x00\x00\x00\x00\x00\x00\x00'
tRp882
sg44
g45
sg40
g41
sg25
F0.28083933482412249
sS'trials.thisIndex'
p883
g36
(g80
S'\x08\x00\x00\x00'
tRp884
sg26
V5
sS'trials.thisRepN'
p885
I0
sg66
Vbookcase
p886
sg63
V../experiment_stimuli/bw_bc_bl/Nonliving_Things/Furniture/bookcase_3.jpg
p887
sg21
F0.46124260872602463
sS'trials.thisTrialN'
p888
I72
sa(dp889
g31
g32
sg17
F298.52341749239713
sg24
I0
sg35
g39
sg14
F298.51846252183896
sg16
g36
(g70
S'\x02\x00\x00\x00'
tRp890
sg42
g43
sg46
g47
sg15
g113
sg22
F300.38314480928238
sg64
g101
sg62
g89
sg49
g50
sS'trials.thisN'
p891
I73
sg19
I1
sg27
g36
(g38
S'\x00\x00\x00\x00\x00\x00\x18@'
tRp892
sg52
g53
sg23
S'2'
sg18
F299.79112917894963
sg33
g34
sg51
g11
sg20
S'2'
sg65
g36
(g77
S'\x00\x00\x00\x00\x00\x00\x00\x00'
tRp893
sg44
g45
sg40
g41
sg25
F0.38105010311119258
sS'trials.thisIndex'
p894
g36
(g80
S'6\x00\x00\x00'
tRp895
sg26
V5
sS'trials.thisRepN'
p896
I0
sg66
Vmotorbike
p897
sg63
V../experiment_stimuli/bw_bc_bl/Nonliving_Things/Vehicles/motorbike_17.jpg
p898
sg21
F0.57146851485595107
sS'trials.thisTrialN'
p899
I73
sa(dp900
g31
g32
sg17
F302.50193016428966
sg24
I1
sg35
g39
sg14
F302.49710122228134
sg16
g36
(g70
S'\x01\x00\x00\x00'
tRp901
sg42
g43
sg46
g47
sg15
g72
sg22
F304.35177357390057
sg64
g126
sg62
g89
sg49
g50
sS'trials.thisN'
p902
I74
sg19
I0
sg27
g36
(g38
S'\x00\x00\x00\x00\x00\x00\x1a@'
tRp903
sg52
g53
sg23
S'1'
sg18
F303.75975347007625
sg33
g34
sg51
g11
sg20
S'2'
sg65
g36
(g77
S'\x00\x00\x00\x00\x00\x00\x00\x00'
tRp904
sg44
g45
sg40
g41
sg25
F0.26078329130541533
sS'trials.thisIndex'
p905
g36
(g80
S':\x00\x00\x00'
tRp906
sg26
V5
sS'trials.thisRepN'
p907
I0
sg66
Vpalace
p908
sg63
V../experiment_stimuli/bw_bc_bl/Nonliving_Things/Buildings/palace_4.jpg
p909
sg21
F0.571470518829301
sS'trials.thisTrialN'
p910
I74
sa(dp911
g31
g32
sg17
F306.35040337545797
sg24
I0
sg35
g39
sg14
F306.34547168284189
sg16
g36
(g70
S'\x01\x00\x00\x00'
tRp912
sg42
g43
sg46
g47
sg15
g113
sg22
F308.41058445710223
sg64
g114
sg62
g74
sg49
g50
sS'trials.thisN'
p913
I75
sg19
I1
sg27
g36
(g38
S'\x00\x00\x00\x00\x00\x00\x18@'
tRp914
sg52
g53
sg23
S'3'
sg18
F307.63817980478052
sg33
g34
sg51
g11
sg20
S'1'
sg65
g36
(g77
S'\x00\x00\x00\x00\x00\x00\x00\x00'
tRp915
sg44
g45
sg40
g41
sg25
F0.28082259080838412
sS'trials.thisIndex'
p916
g36
(g80
S'O\x00\x00\x00'
tRp917
sg26
V5
sS'trials.thisRepN'
p918
I0
sg66
Vsparrow
p919
sg63
V../experiment_stimuli/bw_bc_bl/Living_Things/Birds/sparrow_1.jpg
p920
sg21
F0.75185331865213811
sS'trials.thisTrialN'
p921
I75
sa(dp922
g31
g32
sg17
F310.43059090699535
sg24
I1
sg35
g39
sg14
F310.4243369064061
sg16
g36
(g70
S'\x02\x00\x00\x00'
tRp923
sg42
g43
sg46
g47
sg15
g72
sg22
F312.67989061493427
sg64
g73
sg62
g74
sg49
g50
sS'trials.thisN'
p924
I76
sg19
I1
sg27
g36
(g38
S'\x00\x00\x00\x00\x00\x00\x18@'
tRp925
sg52
g53
sg23
S'1'
sg18
F311.68699575553183
sg33
g34
sg51
g11
sg20
S'2'
sg65
g36
(g77
S'\x00\x00\x00\x00\x00\x00\x00\x00'
tRp926
sg44
g45
sg40
g41
sg25
F0.35098212771117687
sS'trials.thisIndex'
p927
g36
(g80
S'0\x00\x00\x00'
tRp928
sg26
V5
sS'trials.thisRepN'
p929
I0
sg66
Vlioness
p930
sg63
V../experiment_stimuli/bw_bc_bl/Living_Things/Animals/lioness_9.jpg
p931
sg21
F0.97233127767685801
sS'trials.thisTrialN'
p932
I76
sa(dp933
g31
g32
sg17
F314.76869052322581
sg24
I1
sg35
g39
sg14
F314.76380249194335
sg16
g36
(g70
S'\x01\x00\x00\x00'
tRp934
sg42
g43
sg46
g47
sg15
g72
sg22
F316.64850189466961
sg64
g101
sg62
g89
sg49
g50
sS'trials.thisN'
p935
I77
sg19
I1
sg27
g36
(g38
S'\x00\x00\x00\x00\x00\x00\x1a@'
tRp936
sg52
g53
sg23
S'1'
sg18
F316.04646771622356
sg33
g34
sg51
g11
sg20
S'1'
sg65
g36
(g77
S'\x00\x00\x00\x00\x00\x00\x00\x00'
tRp937
sg44
g45
sg40
g41
sg25
F0.40111106750555336
sS'trials.thisIndex'
p938
g36
(g80
S'@\x00\x00\x00'
tRp939
sg26
V5
sS'trials.thisRepN'
p940
I0
sg66
Vplane
p941
sg63
V../experiment_stimuli/bw_bc_bl/Nonliving_Things/Vehicles/plane_7.jpg
p942
sg21
F0.58148792781867087
sS'trials.thisTrialN'
p943
I77
sa(dp944
g31
g32
sg17
F318.78730029391591
sg24
I0
sg35
g39
sg14
F318.78250646789093
sg16
g36
(g70
S'\x01\x00\x00\x00'
tRp945
sg42
g43
sg46
g47
sg15
g113
sg22
F320.94784336676821
sg64
g114
sg62
g74
sg49
g50
sS'trials.thisN'
p946
I78
sg19
I1
sg27
g36
(g38
S'\x00\x00\x00\x00\x00\x00\x1a@'
tRp947
sg52
g53
sg23
S'2'
sg18
F320.07522075879388
sg33
g34
sg51
g11
sg20
S'1'
sg65
g36
(g77
S'\x00\x00\x00\x00\x00\x00\x00\x00'
tRp948
sg44
g45
sg40
g41
sg25
F0.40109894738998264
sS'trials.thisIndex'
p949
g36
(g80
S'U\x00\x00\x00'
tRp950
sg26
V5
sS'trials.thisRepN'
p951
I0
sg66
Vtoucan
p952
sg63
V../experiment_stimuli/bw_bc_bl/Living_Things/Birds/toucan_16.jpg
p953
sg21
F0.85208511620294303
sS'trials.thisTrialN'
p954
I78
sa(dp955
g31
g32
sg17
F323.08659959002398
sg24
I0
sg35
g39
sg14
F323.08185671060346
sg16
g36
(g70
S'\x02\x00\x00\x00'
tRp956
sg42
g43
sg46
g47
sg15
g113
sg22
F324.89643681328744
sg64
g88
sg62
g89
sg49
g50
sS'trials.thisN'
p957
I79
sg19
I1
sg27
g36
(g38
S'\x00\x00\x00\x00\x00\x00 @'
tRp958
sg52
g53
sg23
S'3'
sg18
F324.36454655101988
sg33
g34
sg51
g11
sg20
S'2'
sg65
g36
(g77
S'\x00\x00\x00\x00\x00\x00\x00\x00'
tRp959
sg44
g45
sg40
g41
sg25
F0.20065238955430686
sS'trials.thisIndex'
p960
g36
(g80
S']\x00\x00\x00'
tRp961
sg26
V5
sS'trials.thisRepN'
p962
I0
sg66
Vwardrobe
p963
sg63
V../experiment_stimuli/bw_bc_bl/Nonliving_Things/Furniture/wardrobe_14.jpg
p964
sg21
F0.51133765082340688
sS'trials.thisTrialN'
p965
I79
sa(dp966
g31
g32
sg17
F326.83499908016529
sg24
I0
sg35
g39
sg14
F326.83000254270155
sg16
g36
(g70
S'\x02\x00\x00\x00'
tRp967
sg42
g43
sg46
g47
sg15
g113
sg22
F328.53432849864475
sg64
g372
sg62
g89
sg49
g50
sS'trials.thisN'
p968
I80
sg19
I1
sg27
g36
(g38
S'\x00\x00\x00\x00\x00\x00\x1e@'
tRp969
sg52
g53
sg23
S'3'
sg18
F328.09264912141953
sg33
g34
sg51
g11
sg20
S'2'
sg65
g36
(g77
S'\x00\x00\x00\x00\x00\x00\x00\x00'
tRp970
sg44
g45
sg40
g41
sg25
F0.17057419219054282
sS'trials.thisIndex'
p971
g36
(g80
S'Y\x00\x00\x00'
tRp972
sg26
V5
sS'trials.thisRepN'
p973
I0
sg66
Vtuba
p974
sg63
V../experiment_stimuli/bw_bc_bl/Nonliving_Things/Musical_Inst/tuba_2.jpg
p975
sg21
F0.42113217571750283
sS'trials.thisTrialN'
p976
I80
sa(dp977
g31
g32
sg17
F330.44267808552831
sg24
I1
sg35
g39
sg14
F330.43785265833139
sg16
g36
(g70
S'\x02\x00\x00\x00'
tRp978
sg42
g43
sg46
g47
sg15
g72
sg22
F332.32257598207798
sg64
g73
sg62
g74
sg49
g50
sS'trials.thisN'
p979
I81
sg19
I1
sg27
g36
(g38
S'\x00\x00\x00\x00\x00\x00\x18@'
tRp980
sg52
g53
sg23
S'1'
sg18
F331.68046167434659
sg33
g34
sg51
g11
sg20
S'2'
sg65
g36
(g77
S'\x00\x00\x00\x00\x00\x00\x00\x00'
tRp981
sg44
g45
sg40
g41
sg25
F0.27080279833171517
sS'trials.thisIndex'
p982
g36
(g80
S'2\x00\x00\x00'
tRp983
sg26
V5
sS'trials.thisRepN'
p984
I0
sg66
Vlynx
p985
sg63
V../experiment_stimuli/bw_bc_bl/Living_Things/Animals/lynx_22.jpg
p986
sg21
F0.62157436879351735
sS'trials.thisTrialN'
p987
I81
sa(dp988
g31
g32
sg17
F334.33117471216246
sg24
I1
sg35
g39
sg14
F334.32629917294253
sg16
g36
(g70
S'\x01\x00\x00\x00'
tRp989
sg42
g43
sg46
g47
sg15
g72
sg22
F336.83238181984052
sg64
g126
sg62
g89
sg49
g50
sS'trials.thisN'
p990
I82
sg19
I1
sg27
g36
(g38
S'\x00\x00\x00\x00\x00\x00\x1a@'
tRp991
sg52
g53
sg23
S'1'
sg18
F335.58895585674327
sg33
g34
sg51
g11
sg20
S'1'
sg65
g36
(g77
S'\x00\x00\x00\x00\x00\x00\x00\x00'
tRp992
sg44
g45
sg40
g41
sg25
F0.25076257775072008
sS'trials.thisIndex'
p993
g36
(g80
S')\x00\x00\x00'
tRp994
sg26
V5
sS'trials.thisRepN'
p995
I0
sg66
Vhouse
p996
sg63
V../experiment_stimuli/bw_bc_bl/Nonliving_Things/Buildings/house_2.jpg
p997
sg21
F1.2228835502173752
sS'trials.thisTrialN'
p998
I82
sa(dp999
g31
g32
sg17
F338.82084914646111
sg24
I0
sg35
g39
sg14
F338.8160607413156
sg16
g36
(g70
S'\x02\x00\x00\x00'
tRp1000
sg42
g43
sg46
g47
sg15
g72
sg22
F340.55045768409036
sg64
g238
sg62
g74
sg49
g50
sS'trials.thisN'
p1001
I83
sg19
I1
sg27
g36
(g38
S'\x00\x00\x00\x00\x00\x00\x18@'
tRp1002
sg52
g53
sg23
S'2'
sg18
F340.09875159291551
sg33
g34
sg51
g11
sg20
S'2'
sg65
g36
(g77
S'\x00\x00\x00\x00\x00\x00\x00\x00'
tRp1003
sg44
g45
sg40
g41
sg25
F0.22069616650696844
sS'trials.thisIndex'
p1004
g36
(g80
S'^\x00\x00\x00'
tRp1005
sg26
V5
sS'trials.thisRepN'
p1006
I0
sg66
Vwhale
p1007
sg63
V../experiment_stimuli/bw_bc_bl/Living_Things/Marine_creatures/whale_20.jpg
p1008
sg21
F0.43116459588054568
sS'trials.thisTrialN'
p1009
I83
sa(dp1010
g31
g32
sg17
F342.50884330226108
sg24
I1
sg35
g39
sg14
F342.50407699099742
sg16
g36
(g70
S'\x02\x00\x00\x00'
tRp1011
sg42
g43
sg46
g47
sg15
g72
sg22
F344.26854384504259
sg64
g114
sg62
g74
sg49
g50
sS'trials.thisN'
p1012
I84
sg19
I1
sg27
g36
(g38
S'\x00\x00\x00\x00\x00\x00\x18@'
tRp1013
sg52
g53
sg23
S'1'
sg18
F343.77675847103819
sg33
g34
sg51
g11
sg20
S'2'
sg65
g36
(g77
S'\x00\x00\x00\x00\x00\x00\x00\x00'
tRp1014
sg44
g45
sg40
g41
sg25
F0.23073722573462874
sS'trials.thisIndex'
p1015
g36
(g80
S'\x04\x00\x00\x00'
tRp1016
sg26
V5
sS'trials.thisRepN'
p1017
I0
sg66
Vbarn-owl
p1018
sg63
V../experiment_stimuli/bw_bc_bl/Living_Things/Birds/barn-owl_16.jpg
p1019
sg21
F0.47120091726537794
sS'trials.thisTrialN'
p1020
I84
sa(dp1021
g31
g32
sg17
F346.23702578118537
sg24
I0
sg35
g39
sg14
F346.23218681290746
sg16
g36
(g70
S'\x02\x00\x00\x00'
tRp1022
sg42
g43
sg46
g47
sg15
g72
sg22
F348.22716996748932
sg64
g406
sg62
g74
sg49
g50
sS'trials.thisN'
p1023
I85
sg19
I1
sg27
g36
(g38
S'\x00\x00\x00\x00\x00\x00\x1a@'
tRp1024
sg52
g53
sg23
S'3'
sg18
F347.52489667176269
sg33
g34
sg51
g11
sg20
S'2'
sg65
g36
(g77
S'\x00\x00\x00\x00\x00\x00\x00\x00'
tRp1025
sg44
g45
sg40
g41
sg25
F0.30087102937977761
sS'trials.thisIndex'
p1026
g36
(g80
S'\x18\x00\x00\x00'
tRp1027
sg26
V5
sS'trials.thisRepN'
p1028
I0
sg66
Vdragonfly
p1029
sg63
V../experiment_stimuli/bw_bc_bl/Living_Things/Insects/dragonfly_1.jpg
p1030
sg21
F0.68170714273583144
sS'trials.thisTrialN'
p1031
I85
sa(dp1032
g31
g32
sg17
F350.2656960207969
sg24
I1
sg35
g39
sg14
F350.2609499610262
sg16
g36
(g70
S'\x01\x00\x00\x00'
tRp1033
sg42
g43
sg46
g47
sg15
g72
sg22
F352.28600710548926
sg64
g88
sg62
g89
sg49
g50
sS'trials.thisN'
p1034
I86
sg19
I1
sg27
g36
(g38
S'\x00\x00\x00\x00\x00\x00\x1e@'
tRp1035
sg52
g53
sg23
S'1'
sg18
F351.53360997873824
sg33
g34
sg51
g11
sg20
S'1'
sg65
g36
(g77
S'\x00\x00\x00\x00\x00\x00\x00\x00'
tRp1036
sg44
g45
sg40
g41
sg25
F0.28083291789516807
sS'trials.thisIndex'
p1037
g36
(g80
S'\x1d\x00\x00\x00'
tRp1038
sg26
V5
sS'trials.thisRepN'
p1039
I0
sg66
Vfilling-cabinet
p1040
sg63
V../experiment_stimuli/bw_bc_bl/Nonliving_Things/Furniture/filling-cabinet_6.jpg
p1041
sg21
F0.73183034616522491
sS'trials.thisTrialN'
p1042
I86
sa(dp1043
g31
g32
sg17
F354.30448332964443
sg24
I0
sg35
g39
sg14
F354.2997217096854
sg16
g36
(g70
S'\x01\x00\x00\x00'
tRp1044
sg42
g43
sg46
g47
sg15
g113
sg22
F356.33481698506512
sg64
g114
sg62
g74
sg49
g50
sS'trials.thisN'
p1045
I87
sg19
I1
sg27
g36
(g38
S'\x00\x00\x00\x00\x00\x00 @'
tRp1046
sg52
g53
sg23
S'3'
sg18
F355.58241065545008
sg33
g34
sg51
g11
sg20
S'1'
sg65
g36
(g77
S'\x00\x00\x00\x00\x00\x00\x00\x00'
tRp1047
sg44
g45
sg40
g41
sg25
F0.31090715632308275
sS'trials.thisIndex'
p1048
g36
(g80
S'"\x00\x00\x00'
tRp1049
sg26
V5
sS'trials.thisRepN'
p1050
I0
sg66
Vgoose
p1051
sg63
V../experiment_stimuli/bw_bc_bl/Living_Things/Birds/goose_17.jpg
p1052
sg21
F0.73182622948661447
sS'trials.thisTrialN'
p1053
I87
sa(dp1054
g31
g32
sg17
F358.38347533333581
sg24
I1
sg35
g39
sg14
F358.37858850101475
sg16
g36
(g70
S'\x02\x00\x00\x00'
tRp1055
sg42
g43
sg46
g47
sg15
g72
sg22
F360.24328207760118
sg64
g114
sg62
g74
sg49
g50
sS'trials.thisN'
p1056
I88
sg19
I1
sg27
g36
(g38
S'\x00\x00\x00\x00\x00\x00\x1a@'
tRp1057
sg52
g53
sg23
S'1'
sg18
F359.63121514406521
sg33
g34
sg51
g11
sg20
S'2'
sg65
g36
(g77
S'\x00\x00\x00\x00\x00\x00\x00\x00'
tRp1058
sg44
g45
sg40
g41
sg25
F0.26078467117622495
sS'trials.thisIndex'
p1059
g36
(g80
S';\x00\x00\x00'
tRp1060
sg26
V5
sS'trials.thisRepN'
p1061
I0
sg66
Vpartridge
p1062
sg63
V../experiment_stimuli/bw_bc_bl/Living_Things/Birds/partridge_4.jpg
p1063
sg21
F0.59150679945014417
sS'trials.thisTrialN'
p1064
I88
sa(dp1065
g31
g32
sg17
F362.24192849907558
sg24
I0
sg35
g39
sg14
F362.23697638197336
sg16
g36
(g70
S'\x02\x00\x00\x00'
tRp1066
sg42
g43
sg46
g47
sg15
g113
sg22
F364.18168299703393
sg64
g126
sg62
g89
sg49
g50
sS'trials.thisN'
p1067
I89
sg19
I1
sg27
g36
(g38
S'\x00\x00\x00\x00\x00\x00\x1a@'
tRp1068
sg52
g53
sg23
S'3'
sg18
F363.51966692926362
sg33
g34
sg51
g11
sg20
S'2'
sg65
g36
(g77
S'\x00\x00\x00\x00\x00\x00\x00\x00'
tRp1069
sg44
g45
sg40
g41
sg25
F0.26078268233686686
sS'trials.thisIndex'
p1070
g36
(g80
S'#\x00\x00\x00'
tRp1071
sg26
V5
sS'trials.thisRepN'
p1072
I0
sg66
Vgranary
p1073
sg63
V../experiment_stimuli/bw_bc_bl/Nonliving_Things/Buildings/granary_3.jpg
p1074
sg21
F0.64146008004900068
sS'trials.thisTrialN'
p1075
I89
sa(dp1076
g31
g32
sg17
F366.18050985201262
sg24
I0
sg35
g39
sg14
F366.17553997575305
sg16
g36
(g70
S'\x01\x00\x00\x00'
tRp1077
sg42
g43
sg46
g47
sg15
g72
sg22
F368.05025214608759
sg64
g88
sg62
g89
sg49
g50
sS'trials.thisN'
p1078
I90
sg19
I1
sg27
g36
(g38
S'\x00\x00\x00\x00\x00\x00\x18@'
tRp1079
sg52
g53
sg23
S'3'
sg18
F367.43818709580228
sg33
g34
sg51
g11
sg20
S'1'
sg65
g36
(g77
S'\x00\x00\x00\x00\x00\x00\x00\x00'
tRp1080
sg44
g45
sg40
g41
sg25
F0.25076391641050577
sS'trials.thisIndex'
p1081
g36
(g80
S'E\x00\x00\x00'
tRp1082
sg26
V5
sS'trials.thisRepN'
p1083
I0
sg66
Vrocking-chair
p1084
sg63
V../experiment_stimuli/bw_bc_bl/Nonliving_Things/Furniture/rocking-chair_16.jpg
p1085
sg21
F0.59151369007304311
sS'trials.thisTrialN'
p1086
I90
sa(dp1087
g31
g32
sg17
F370.03877972345799
sg24
I0
sg35
g39
sg14
F370.03392419160809
sg16
g36
(g70
S'\x02\x00\x00\x00'
tRp1088
sg42
g43
sg46
g47
sg15
g113
sg22
F372.17924955743365
sg64
g101
sg62
g89
sg49
g50
sS'trials.thisN'
p1089
I91
sg19
I0
sg27
g36
(g38
S'\x00\x00\x00\x00\x00\x00\x18@'
tRp1090
sg52
g53
sg23
S'2'
sg18
F371.27653041447047
sg33
g34
sg51
g11
sg20
S'1'
sg65
g36
(g77
S'\x00\x00\x00\x00\x00\x00\x00\x00'
tRp1091
sg44
g45
sg40
g41
sg25
F0.23072522948496044
sS'trials.thisIndex'
p1092
g36
(g80
S'[\x00\x00\x00'
tRp1093
sg26
V5
sS'trials.thisRepN'
p1094
I0
sg66
Vvan
p1095
sg63
V../experiment_stimuli/bw_bc_bl/Nonliving_Things/Vehicles/van_9.jpg
p1096
sg21
F0.88213934772647917
sS'trials.thisTrialN'
p1097
I91
sa(dp1098
g31
g32
sg17
F374.14764014550019
sg24
I1
sg35
g39
sg14
F374.14285399205983
sg16
g36
(g70
S'\x02\x00\x00\x00'
tRp1099
sg42
g43
sg46
g47
sg15
g113
sg22
F376.51866832410451
sg64
g372
sg62
g89
sg49
g50
sS'trials.thisN'
p1100
I92
sg19
I0
sg27
g36
(g38
S'\x00\x00\x00\x00\x00\x00\x1c@'
tRp1101
sg52
g53
sg23
S'1'
sg18
F375.37544133199845
sg33
g34
sg51
g11
sg20
S'1'
sg65
g36
(g77
S'\x00\x00\x00\x00\x00\x00\x00\x00'
tRp1102
sg44
g45
sg40
g41
sg25
F0.20065629528835416
sS'trials.thisIndex'
p1103
g36
(g80
S'$\x00\x00\x00'
tRp1104
sg26
V5
sS'trials.thisRepN'
p1105
I0
sg66
Vguitar
p1106
sg63
V../experiment_stimuli/bw_bc_bl/Nonliving_Things/Musical_Inst/guitar_7.jpg
p1107
sg21
F1.1226636660285294
sS'trials.thisTrialN'
p1108
I92
sa(dp1109
g31
g32
sg17
F378.45726557157468
sg24
I1
sg35
g39
sg14
F378.45222459500656
sg16
g36
(g70
S'\x02\x00\x00\x00'
tRp1110
sg42
g43
sg46
g47
sg15
g113
sg22
F380.15657454309985
sg64
g372
sg62
g89
sg49
g50
sS'trials.thisN'
p1111
I93
sg19
I0
sg27
g36
(g38
S'\x00\x00\x00\x00\x00\x00 @'
tRp1112
sg52
g53
sg23
S'1'
sg18
F379.70485475682653
sg33
g34
sg51
g11
sg20
S'1'
sg65
g36
(g77
S'\x00\x00\x00\x00\x00\x00\x00\x00'
tRp1113
sg44
g45
sg40
g41
sg25
F0.23071333486586809
sS'trials.thisIndex'
p1114
g36
(g80
S'H\x00\x00\x00'
tRp1115
sg26
V5
sS'trials.thisRepN'
p1116
I0
sg66
Vsaxophone
p1117
sg63
V../experiment_stimuli/bw_bc_bl/Nonliving_Things/Musical_Inst/saxophone_24.jpg
p1118
sg21
F0.43116359203122556
sS'trials.thisTrialN'
p1119
I93
sa(dp1120
g31
g32
sg17
F382.12498031137511
sg24
I0
sg35
g39
sg14
F382.12019285361748
sg16
g36
(g70
S'\x01\x00\x00\x00'
tRp1121
sg42
g43
sg46
g47
sg15
g113
sg22
F383.94481789518613
sg64
g73
sg62
g74
sg49
g50
sS'trials.thisN'
p1122
I94
sg19
I1
sg27
g36
(g38
S'\x00\x00\x00\x00\x00\x00 @'
tRp1123
sg52
g53
sg23
S'3'
sg18
F383.40289044950623
sg33
g34
sg51
g11
sg20
S'1'
sg65
g36
(g77
S'\x00\x00\x00\x00\x00\x00\x00\x00'
tRp1124
sg44
g45
sg40
g41
sg25
F0.29085343598853797
sS'trials.thisIndex'
p1125
g36
(g80
S'R\x00\x00\x00'
tRp1126
sg26
V5
sS'trials.thisRepN'
p1127
I0
sg66
Vtapir
p1128
sg63
V../experiment_stimuli/bw_bc_bl/Living_Things/Animals/tapir_23.jpg
p1129
sg21
F0.52136188664007932
sS'trials.thisTrialN'
p1130
I94
sa(dp1131
g31
g32
sg17
F385.97341344412416
sg24
I0
sg35
g39
sg14
F385.9685701901326
sg16
g36
(g70
S'\x01\x00\x00\x00'
tRp1132
sg42
g43
sg46
g47
sg15
g113
sg22
F387.97358702018391
sg64
g114
sg62
g74
sg49
g50
sS'trials.thisN'
p1133
I95
sg19
I1
sg27
g36
(g38
S'\x00\x00\x00\x00\x00\x00 @'
tRp1134
sg52
g53
sg23
S'2'
sg18
F387.22119489335455
sg33
g34
sg51
g11
sg20
S'1'
sg65
g36
(g77
S'\x00\x00\x00\x00\x00\x00\x00\x00'
tRp1135
sg44
g45
sg40
g41
sg25
F0.21067390765529126
sS'trials.thisIndex'
p1136
g36
(g80
S'\x1a\x00\x00\x00'
tRp1137
sg26
V5
sS'trials.thisRepN'
p1138
I0
sg66
Vduck
p1139
sg63
V../experiment_stimuli/bw_bc_bl/Living_Things/Birds/duck_8.jpg
p1140
sg21
F0.73183962027542293
sS'trials.thisTrialN'
p1141
I95
sasS'loops'
p1142
(lp1143
g1
(cpsychopy.data
TrialHandler
p1144
g3
NtRp1145
(dp1146
S'origin'
p1147
NsS'thisTrial'
p1148
(lp1149
sS'_exp'
p1150
I97313040
sg10
S'trials'
p1151
sg6
I-1
sS'thisRepN'
p1152
I1
sg28
I01
sg29
g30
sS'data'
p1153
g1
(cpsychopy.data
DataHandler
p1154
c__builtin__
dict
p1155
(dp1156
g20
cnumpy.core.multiarray
_reconstruct
p1157
(cnumpy
ndarray
p1158
(I0
tS'b'
tRp1159
(I1
(I96
I1
tg37
(S'O4'
I0
I1
tRp1160
(I3
S'|'
NNNI-1
I-1
I63
tbI00
(lp1161
S'1'
aS'1'
aS'1'
aS'2'
aS'2'
aS'1'
aS'1'
aS'2'
aS'2'
aS'2'
aS'2'
aS'1'
aS'1'
aS'2'
aS'1'
aS'2'
aS'1'
aS'2'
aS'1'
aS'2'
aS'1'
aS'2'
aS'2'
aS'1'
aS'2'
aS'1'
aS'1'
aS'2'
aS'1'
aS'1'
aS'2'
aS'2'
aS'2'
aS'1'
aS'1'
aS'2'
aS'1'
aS'2'
aS'2'
aS'2'
aS'1'
aS'1'
aS'1'
aS'1'
aS'2'
aS'2'
aS'2'
aS'1'
aS'2'
aS'1'
aS'2'
aS'1'
aS'2'
aS'2'
aS'2'
aS'1'
aS'1'
aS'2'
aS'2'
aS'2'
aS'2'
aS'2'
aS'2'
aS'2'
aS'1'
aS'2'
aS'2'
aS'2'
aS'2'
aS'1'
aS'2'
aS'1'
aS'1'
aS'1'
aS'1'
aS'2'
aS'1'
aS'1'
aS'1'
aS'1'
aS'2'
aS'1'
aS'1'
aS'1'
aS'1'
aS'1'
aS'2'
aS'1'
aS'1'
aS'2'
aS'2'
aS'1'
aS'1'
aS'2'
aS'2'
aS'2'
atbsg17
cnumpy.ma.core
_mareconstruct
p1162
(cnumpy.ma.core
MaskedArray
p1163
g1158
(I0
tp1164
S'b'
tRp1165
(I1
(I96
I1
tg37
(S'f4'
I0
I1
tRp1166
(I3
S'<'
NNNI-1
I-1
I0
tbI00
S'\xf9a\xd5A\x89\xb62C\xb6nvC< \xf3A"A\xabCe\xcdzBi\xd7VCIZ\x83C`_\x93C\x17\xe5jC\x03e\x8dC+\xe76C\xc4>\x97A\x8f*\x13C\xed\xd5\xccBT\xad\tB\xcdaLB.wfC\xd7\xeb\x1aC[\xca:C\xf2\x81~C\nn#C]\xef\xc3B\x89z\x81CW\x1e\xadCP\xb5bC\x99\xfc\xc0CZi\x87C\xad \x91C\x02"\xafC5\xa1ZCL\xb7\x94B\x0e\xeaNC\xd6\xca<B\xf9&\xb1C\xf8\x1e\xb5C\xe6\x12\xbbC\xe3N\xa5ByL\x8fC\x91\xff\xfbB\x90\xfb\x16Cd*\xa7Cv7+C-G\'C\xa6\xdb[Bm|\x89C6\x95nC7\xfd\xf0@\x1e7\x9bC\xb2V\x85B\xaa8\xa5C\xa5\x8arC\xce~\x8bC\xdc\xed^C\xffB\x95C\xf6 kBb\x83\x1fC\x97N\x85C?@\x97C\x161\xb3C0[\x05C2\x11GC\x94\xce\xdbB\xab\xd5\x9dBdb\x9dC^%KC\x8c\xd8\xacB\xe0d\xb7A\x9dNo@\x1b\x17\xb7C\\L\xbcB\x8b\xb4\xe3B\x88:\xbdC~\x9f\xebB\xb7\xf3oA6u\xf3B\x04\x857A-"SC-\xa4\xb4B\xda,\x99C]w\x0fC\xb9\xfc)B\xff\x0f\xbfC@\xdb.C@\xcaBC\xc6d\x9fC\xe6\x03\x8dBwuzC\x01\x82\x0bC\xe1j\xa3COZ\x1aB\xf7\x04\xb9C\xca5\xd4B\x16\x8b\xa1C\x12i\xa9C\xfc\xb2>C'
S'\x00\x00\x00\x00\x00\x00\x00\x00\x00\x00\x00\x00\x00\x00\x00\x00\x00\x00\x00\x00\x00\x00\x00\x00\x00\x00\x00\x00\x00\x00\x00\x00\x00\x00\x00\x00\x00\x00\x00\x00\x00\x00\x00\x00\x00\x00\x00\x00\x00\x00\x00\x00\x00\x00\x00\x00\x00\x00\x00\x00\x00\x00\x00\x00\x00\x00\x00\x00\x00\x00\x00\x00\x00\x00\x00\x00\x00\x00\x00\x00\x00\x00\x00\x00\x00\x00\x00\x00\x00\x00\x00\x00\x00\x00\x00\x00'
NtbsS'ran'
p1167
g1162
(g1163
g1158
g1164
S'b'
tRp1168
(I1
(I96
I1
tg1166
I00
S'\x00\x00\x80?\x00\x00\x80?\x00\x00\x80?\x00\x00\x80?\x00\x00\x80?\x00\x00\x80?\x00\x00\x80?\x00\x00\x80?\x00\x00\x80?\x00\x00\x80?\x00\x00\x80?\x00\x00\x80?\x00\x00\x80?\x00\x00\x80?\x00\x00\x80?\x00\x00\x80?\x00\x00\x80?\x00\x00\x80?\x00\x00\x80?\x00\x00\x80?\x00\x00\x80?\x00\x00\x80?\x00\x00\x80?\x00\x00\x80?\x00\x00\x80?\x00\x00\x80?\x00\x00\x80?\x00\x00\x80?\x00\x00\x80?\x00\x00\x80?\x00\x00\x80?\x00\x00\x80?\x00\x00\x80?\x00\x00\x80?\x00\x00\x80?\x00\x00\x80?\x00\x00\x80?\x00\x00\x80?\x00\x00\x80?\x00\x00\x80?\x00\x00\x80?\x00\x00\x80?\x00\x00\x80?\x00\x00\x80?\x00\x00\x80?\x00\x00\x80?\x00\x00\x80?\x00\x00\x80?\x00\x00\x80?\x00\x00\x80?\x00\x00\x80?\x00\x00\x80?\x00\x00\x80?\x00\x00\x80?\x00\x00\x80?\x00\x00\x80?\x00\x00\x80?\x00\x00\x80?\x00\x00\x80?\x00\x00\x80?\x00\x00\x80?\x00\x00\x80?\x00\x00\x80?\x00\x00\x80?\x00\x00\x80?\x00\x00\x80?\x00\x00\x80?\x00\x00\x80?\x00\x00\x80?\x00\x00\x80?\x00\x00\x80?\x00\x00\x80?\x00\x00\x80?\x00\x00\x80?\x00\x00\x80?\x00\x00\x80?\x00\x00\x80?\x00\x00\x80?\x00\x00\x80?\x00\x00\x80?\x00\x00\x80?\x00\x00\x80?\x00\x00\x80?\x00\x00\x80?\x00\x00\x80?\x00\x00\x80?\x00\x00\x80?\x00\x00\x80?\x00\x00\x80?\x00\x00\x80?\x00\x00\x80?\x00\x00\x80?\x00\x00\x80?\x00\x00\x80?\x00\x00\x80?\x00\x00\x80?'
S'\x00\x00\x00\x00\x00\x00\x00\x00\x00\x00\x00\x00\x00\x00\x00\x00\x00\x00\x00\x00\x00\x00\x00\x00\x00\x00\x00\x00\x00\x00\x00\x00\x00\x00\x00\x00\x00\x00\x00\x00\x00\x00\x00\x00\x00\x00\x00\x00\x00\x00\x00\x00\x00\x00\x00\x00\x00\x00\x00\x00\x00\x00\x00\x00\x00\x00\x00\x00\x00\x00\x00\x00\x00\x00\x00\x00\x00\x00\x00\x00\x00\x00\x00\x00\x00\x00\x00\x00\x00\x00\x00\x00\x00\x00\x00\x00'
Ntbsg24
g1162
(g1163
g1158
g1164
S'b'
tRp1169
(I1
(I96
I1
tg1166
I00
S'\x00\x00\x80?\x00\x00\x00\x00\x00\x00\x00\x00\x00\x00\x00\x00\x00\x00\x80?\x00\x00\x00\x00\x00\x00\x00\x00\x00\x00\x00\x00\x00\x00\x00\x00\x00\x00\x00\x00\x00\x00\x00\x00\x00\x00\x00\x00\x00\x00\x00\x00\x00\x00\x80?\x00\x00\x80?\x00\x00\x80?\x00\x00\x00\x00\x00\x00\x00\x00\x00\x00\x00\x00\x00\x00\x80?\x00\x00\x00\x00\x00\x00\x00\x00\x00\x00\x00\x00\x00\x00\x80?\x00\x00\x00\x00\x00\x00\x00\x00\x00\x00\x00\x00\x00\x00\x00\x00\x00\x00\x80?\x00\x00\x80?\x00\x00\x80?\x00\x00\x00\x00\x00\x00\x00\x00\x00\x00\x00\x00\x00\x00\x00\x00\x00\x00\x00\x00\x00\x00\x80?\x00\x00\x80?\x00\x00\x80?\x00\x00\x00\x00\x00\x00\x00\x00\x00\x00\x80?\x00\x00\x80?\x00\x00\x80?\x00\x00\x80?\x00\x00\x80?\x00\x00\x80?\x00\x00\x00\x00\x00\x00\x80?\x00\x00\x80?\x00\x00\x80?\x00\x00\x80?\x00\x00\x00\x00\x00\x00\x80?\x00\x00\x00\x00\x00\x00\x00\x00\x00\x00\x00\x00\x00\x00\x00\x00\x00\x00\x80?\x00\x00\x80?\x00\x00\x00\x00\x00\x00\x00\x00\x00\x00\x00\x00\x00\x00\x80?\x00\x00\x80?\x00\x00\x80?\x00\x00\x00\x00\x00\x00\x00\x00\x00\x00\x00\x00\x00\x00\x00\x00\x00\x00\x80?\x00\x00\x00\x00\x00\x00\x80?\x00\x00\x80?\x00\x00\x80?\x00\x00\x00\x00\x00\x00\x80?\x00\x00\x80?\x00\x00\x00\x00\x00\x00\x00\x00\x00\x00\x00\x00\x00\x00\x00\x00\x00\x00\x00\x00\x00\x00\x80?\x00\x00\x80?\x00\x00\x00\x00\x00\x00\x00\x00\x00\x00\x00\x00\x00\x00\x80?\x00\x00\x00\x00\x00\x00\x80?\x00\x00\x00\x00\x00\x00\x00\x00\x00\x00\x00\x00\x00\x00\x00\x00\x00\x00\x00\x00'
S'\x00\x00\x00\x00\x00\x00\x00\x00\x00\x00\x00\x00\x00\x00\x00\x00\x00\x00\x00\x00\x00\x00\x00\x00\x00\x00\x00\x00\x00\x00\x00\x00\x00\x00\x00\x00\x00\x00\x00\x00\x00\x00\x00\x00\x00\x00\x00\x00\x00\x00\x00\x00\x00\x00\x00\x00\x00\x00\x00\x00\x00\x00\x00\x00\x00\x00\x00\x00\x00\x00\x00\x00\x00\x00\x00\x00\x00\x00\x00\x00\x00\x00\x00\x00\x00\x00\x00\x00\x00\x00\x00\x00\x00\x00\x00\x00'
Ntbsg14
g1162
(g1163
g1158
g1164
S'b'
tRp1170
(I1
(I96
I1
tg1166
I00
S"\xfeV\xd5A?\xb52C\xdblvC\xa2\x15\xf3A\x86@\xabC~\xc8zB'\xd6VC\xaeY\x83C\xc0^\x93C\xe0\xe3jCbd\x8dC\xa8\xe56Ci4\x97A\xcf(\x13C\x03\xd3\xccBB\xa8\tB\xbe\\LB\xe4ufC\x91\xea\x1aC\x1a\xc9:C\xb6\x80~C\xbfl#C\xc8\xec\xc3B\xeay\x81C\xb8\x1d\xadC\xcc\xb3bC\xfa\xfb\xc0C\xbch\x87C\x10 \x91Cg!\xafC\xf2\x9fZC\xc7\xb3\x94B\xc8\xe8NC\xb4\xc4<B]&\xb1CU\x1e\xb5CI\x12\xbbCaL\xa5B\xd8K\x8fC\x9f\xfc\xfbBK\xfa\x16C\xc4)\xa7C26+C\xecE'C\xfe\xd5[B\xd0{\x89C\x02\x94nC\xed\xd3\xf0@Q6\x9bC/T\x85B\x0c8\xa5Ci\x89rC5~\x8bC\x93\xec^C]B\x95C\xee\x1bkB\x9a\x81\x1fC\xf7M\x85C\xa1?\x97Cv0\xb3CrY\x05C\xf1\x0fGC\xfc\xcb\xdbBt\xd2\x9dB\xc4a\x9dC $KC\xb1\xd5\xacB\xcaZ\xb7A!\xedm@x\x16\xb7C\xcfI\xbcB\xad\xb1\xe3B\xe29\xbdCw\x9c\xebB\xa6\xdfoA\xc0r\xf3BJn7A\xe4 SC\xb5\xa1\xb4B8,\x99C\x1cv\x0fC\xae\xf7)Bb\x0f\xbfC\x80\xd9.Cp\xc8BC)d\x9fCk\x01\x8dB8tzC\xb5\x80\x0bC>j\xa3C`U\x1aBX\x04\xb9CG3\xd4Bz\x8a\xa1Cuh\xa9C\xad\xb1>C"
S'\x00\x00\x00\x00\x00\x00\x00\x00\x00\x00\x00\x00\x00\x00\x00\x00\x00\x00\x00\x00\x00\x00\x00\x00\x00\x00\x00\x00\x00\x00\x00\x00\x00\x00\x00\x00\x00\x00\x00\x00\x00\x00\x00\x00\x00\x00\x00\x00\x00\x00\x00\x00\x00\x00\x00\x00\x00\x00\x00\x00\x00\x00\x00\x00\x00\x00\x00\x00\x00\x00\x00\x00\x00\x00\x00\x00\x00\x00\x00\x00\x00\x00\x00\x00\x00\x00\x00\x00\x00\x00\x00\x00\x00\x00\x00\x00'
Ntbsg16
g1157
(g1158
(I0
tS'b'
tRp1171
(I1
(I96
I1
tg1160
I00
(lp1172
g148
ag560
ag747
ag159
ag1011
ag249
ag659
ag791
ag879
ag714
ag846
ag571
ag125
ag472
ag360
ag171
ag215
ag703
ag494
ag582
ag769
ag516
ag349
ag780
ag1022
ag692
ag1132
ag813
ag868
ag1033
ag670
ag282
ag637
ag204
ag1044
ag1066
ag1099
ag305
ag857
ag428
ag483
ag989
ag538
ag527
ag226
ag824
ag725
ag87
ag923
ag260
ag978
ag736
ag835
ag681
ag890
ag237
ag505
ag802
ag901
ag1055
ag439
ag615
ag383
ag294
ag934
ag626
ag316
ag137
ag71
ag1077
ag338
ag394
ag1110
ag405
ag112
ag417
ag100
ag648
ag327
ag912
ag461
ag193
ag1121
ag549
ag604
ag945
ag271
ag758
ag450
ag967
ag182
ag1088
ag371
ag956
ag1000
ag593
atbsg15
g1157
(g1158
(I0
tS'b'
tRp1173
(I1
(I96
I1
tg1160
I00
(lp1174
g72
ag113
ag72
ag113
ag72
ag72
ag72
ag113
ag113
ag113
ag72
ag72
ag72
ag72
ag72
ag113
ag113
ag113
ag72
ag113
ag113
ag72
ag113
ag113
ag72
ag72
ag113
ag72
ag113
ag72
ag113
ag113
ag72
ag113
ag113
ag113
ag113
ag113
ag72
ag72
ag113
ag72
ag113
ag113
ag72
ag72
ag113
ag72
ag72
ag113
ag72
ag113
ag72
ag113
ag113
ag113
ag113
ag72
ag72
ag72
ag72
ag72
ag113
ag72
ag72
ag113
ag113
ag72
ag72
ag72
ag72
ag72
ag113
ag72
ag113
ag72
ag72
ag72
ag72
ag113
ag72
ag72
ag113
ag72
ag113
ag113
ag113
ag72
ag72
ag113
ag72
ag113
ag72
ag113
ag72
ag72
atbsg22
g1162
(g1163
g1158
g1164
S'b'
tRp1175
(I1
(I96
I1
tg1166
I00
S'\xb3\x9d\xe3A\xf7\xee4C\xd3uxCX\xec\x01B`"\xacC\xd3f\x81B\x8d\xa1XC\x08Y\x84C\x9b@\x94C\xfd\xc8lC\x10S\x8eCi\xd28C\xd4\xb9\xa7A+\x06\x15CMU\xd0B\xef\xad\x12B\xf9\xf0SB/\xedhCT\x12\x1dCK\xc5<C\x92u\x80C\x7fY%C\xa4\xe5\xc8B\x98_\x82C\x14\x1d\xaeC\xe5\x86dC\x9e\xfc\xc1C\x9e|\x88CAg\x92C\x9c$\xb0C\xb7\x02]Cz\xf4\x99B\x97\'QC\xf9\x81DB\xdb*\xb2CA\x17\xb6CdB\xbcC\x16\x07\xa9BI\'\x90C$7\x03Cq\xf6\x18C\x8bj\xa8C\xa3\xef,C3G)C4jcBG\x89\x8aC\xfc\x9cpCB\xb1\x17A\x07W\x9cC\x17\x19\x89BJ)\xa6C+vtC\xa0b\x8cC\xf1\xc9`C\x0b1\x96C4\xd9rB\rv!C\x8f`\x86C\x07-\x98C$\x1f\xb4C\xe7\xc1\x08CB:IC\xaf\xd3\xdfB\xa8x\xa1B\x02S\x9eC\xed\xfeLC\xfb\xcd\xb0B\x97\x1c\xc6A\x00\xa3\xb2@o\x06\xb8C\'\xf5\xbfB\xc5{\xe7B\x0b\x14\xbeCa\x85\xefB\xa0\xa7\x87A3\xe6\xf7B\xcdAQA\xdc\xeeTCl\\\xb8B\x8e4\x9aC\xf5>\x11Cs\xfe4B\xf0\xf8\xbfC\xaf\xc30C_\x1eECSy\xa0C\x11\xe0\x90B\x06\x8a|C\xbaw\rCeD\xa4Cs1"B\xf2\x16\xbaCE\xf8\xd7B\xber\xa2CuF\xaaC\xde\xd6@C'
S'\x00\x00\x00\x00\x00\x00\x00\x00\x00\x00\x00\x00\x00\x00\x00\x00\x00\x00\x00\x00\x00\x00\x00\x00\x00\x00\x00\x00\x00\x00\x00\x00\x00\x00\x00\x00\x00\x00\x00\x00\x00\x00\x00\x00\x00\x00\x00\x00\x00\x00\x00\x00\x00\x00\x00\x00\x00\x00\x00\x00\x00\x00\x00\x00\x00\x00\x00\x00\x00\x00\x00\x00\x00\x00\x00\x00\x00\x00\x00\x00\x00\x00\x00\x00\x00\x00\x00\x00\x00\x00\x00\x00\x00\x00\x00\x00'
Ntbsg26
g1157
(g1158
(I0
tS'b'
tRp1176
(I1
(I96
I1
tg1160
I00
(lp1177
g36
(g80
S'\x03\x00\x00\x00'
tRp1178
ag36
(g80
S'\x08\x00\x00\x00'
tRp1179
ag36
(g80
S'\x08\x00\x00\x00'
tRp1180
ag36
(g80
S'\x05\x00\x00\x00'
tRp1181
ag36
(g80
S'\x05\x00\x00\x00'
tRp1182
ag36
(g80
S'\x05\x00\x00\x00'
tRp1183
ag36
(g80
S'\x06\x00\x00\x00'
tRp1184
ag36
(g80
S'\x07\x00\x00\x00'
tRp1185
ag36
(g80
S'\x06\x00\x00\x00'
tRp1186
ag36
(g80
S'\x04\x00\x00\x00'
tRp1187
ag36
(g80
S'\x04\x00\x00\x00'
tRp1188
ag36
(g80
S'\x07\x00\x00\x00'
tRp1189
ag36
(g80
S'\x06\x00\x00\x00'
tRp1190
ag36
(g80
S'\x05\x00\x00\x00'
tRp1191
ag36
(g80
S'\x04\x00\x00\x00'
tRp1192
ag36
(g80
S'\x04\x00\x00\x00'
tRp1193
ag36
(g80
S'\x05\x00\x00\x00'
tRp1194
ag36
(g80
S'\x07\x00\x00\x00'
tRp1195
ag36
(g80
S'\x06\x00\x00\x00'
tRp1196
ag36
(g80
S'\x04\x00\x00\x00'
tRp1197
ag36
(g80
S'\x05\x00\x00\x00'
tRp1198
ag36
(g80
S'\x04\x00\x00\x00'
tRp1199
ag36
(g80
S'\x05\x00\x00\x00'
tRp1200
ag36
(g80
S'\x04\x00\x00\x00'
tRp1201
ag36
(g80
S'\x07\x00\x00\x00'
tRp1202
ag36
(g80
S'\t\x00\x00\x00'
tRp1203
ag36
(g80
S'\x03\x00\x00\x00'
tRp1204
ag36
(g80
S'\x05\x00\x00\x00'
tRp1205
ag36
(g80
S'\x03\x00\x00\x00'
tRp1206
ag36
(g80
S'\x05\x00\x00\x00'
tRp1207
ag36
(g80
S'\x05\x00\x00\x00'
tRp1208
ag36
(g80
S'\x03\x00\x00\x00'
tRp1209
ag36
(g80
S'\x08\x00\x00\x00'
tRp1210
ag36
(g80
S'\x06\x00\x00\x00'
tRp1211
ag36
(g80
S'\x06\x00\x00\x00'
tRp1212
ag36
(g80
S'\x06\x00\x00\x00'
tRp1213
ag36
(g80
S'\x01\x00\x00\x00'
tRp1214
ag36
(g80
S'\x04\x00\x00\x00'
tRp1215
ag36
(g80
S'\x01\x00\x00\x00'
tRp1216
ag36
(g80
S'\x06\x00\x00\x00'
tRp1217
ag36
(g80
S'\x07\x00\x00\x00'
tRp1218
ag36
(g80
S'\x04\x00\x00\x00'
tRp1219
ag36
(g80
S'\x04\x00\x00\x00'
tRp1220
ag36
(g80
S'\x03\x00\x00\x00'
tRp1221
ag36
(g80
S'\x04\x00\x00\x00'
tRp1222
ag36
(g80
S'\x03\x00\x00\x00'
tRp1223
ag36
(g80
S'\x03\x00\x00\x00'
tRp1224
aS'4.0'
p1225
ag36
(g80
S'\x04\x00\x00\x00'
tRp1226
ag36
(g80
S'\x04\x00\x00\x00'
tRp1227
ag36
(g80
S'\x02\x00\x00\x00'
tRp1228
ag36
(g80
S'\x05\x00\x00\x00'
tRp1229
ag36
(g80
S'\x05\x00\x00\x00'
tRp1230
ag36
(g80
S'\x06\x00\x00\x00'
tRp1231
ag36
(g80
S'\x05\x00\x00\x00'
tRp1232
ag36
(g80
S'\x06\x00\x00\x00'
tRp1233
ag36
(g80
S'\x05\x00\x00\x00'
tRp1234
ag36
(g80
S'\x06\x00\x00\x00'
tRp1235
ag36
(g80
S'\x04\x00\x00\x00'
tRp1236
ag36
(g80
S'\x03\x00\x00\x00'
tRp1237
ag36
(g80
S'\x05\x00\x00\x00'
tRp1238
ag36
(g80
S'\x06\x00\x00\x00'
tRp1239
ag36
(g80
S'\x06\x00\x00\x00'
tRp1240
aI1
ag36
(g80
S'\x06\x00\x00\x00'
tRp1241
ag36
(g80
S'\x05\x00\x00\x00'
tRp1242
ag36
(g80
S'\x07\x00\x00\x00'
tRp1243
ag36
(g80
S'\x05\x00\x00\x00'
tRp1244
aS'5.0'
p1245
ag36
(g80
S'\x04\x00\x00\x00'
tRp1246
ag36
(g80
S'\x04\x00\x00\x00'
tRp1247
ag36
(g80
S'\x05\x00\x00\x00'
tRp1248
ag36
(g80
S'\x03\x00\x00\x00'
tRp1249
ag36
(g80
S'\x04\x00\x00\x00'
tRp1250
ag36
(g80
S'\x04\x00\x00\x00'
tRp1251
ag36
(g80
S'\x07\x00\x00\x00'
tRp1252
aS'3.0'
p1253
ag36
(g80
S'\x05\x00\x00\x00'
tRp1254
ag36
(g80
S'\x05\x00\x00\x00'
tRp1255
ag36
(g80
S'\x07\x00\x00\x00'
tRp1256
ag36
(g80
S'\x06\x00\x00\x00'
tRp1257
ag36
(g80
S'\x08\x00\x00\x00'
tRp1258
ag36
(g80
S'\x06\x00\x00\x00'
tRp1259
ag36
(g80
S'\x05\x00\x00\x00'
tRp1260
ag36
(g80
S'\x05\x00\x00\x00'
tRp1261
ag36
(g80
S'\x07\x00\x00\x00'
tRp1262
ag36
(g80
S'\x05\x00\x00\x00'
tRp1263
ag36
(g80
S'\x06\x00\x00\x00'
tRp1264
ag36
(g80
S'\x03\x00\x00\x00'
tRp1265
ag36
(g80
S'\x04\x00\x00\x00'
tRp1266
ag36
(g80
S'\x06\x00\x00\x00'
tRp1267
ag36
(g80
S'\x02\x00\x00\x00'
tRp1268
ag36
(g80
S'\x07\x00\x00\x00'
tRp1269
ag36
(g80
S'\x06\x00\x00\x00'
tRp1270
ag36
(g80
S'\x06\x00\x00\x00'
tRp1271
ag36
(g80
S'\x06\x00\x00\x00'
tRp1272
atbsg21
g1162
(g1163
g1158
g1164
S'b'
tRp1273
(I1
(I96
I1
tg1166
I00
S'\xf9\xe6\x02?\xd8\xf5f?\xf5\xa53?\xe8OM??A\xf1>\xbc66?j\x8a\xfb>q\x84.?\xfe\'\xec>\x03\x0c\x1a?\xee\xdb\x14?\xed\x8e\x1c?S\x0bC?lL\x12?\x8cH\xf1>\x05\xebx?\xb4\xfe\x19??D\x92?\xed!Z?\xed\xb03?\x8e\xae\x8f?\x14A$?J\xae\x98?\x0b\xdd\x02?\\\x84.?\x97\x8a\xfb>\xd7Y;?n\xb3\\?\xcf9\xa4?<Y;?z\xda\x8b?\x175\xad?\x1d\rl?\x12\xb0!?\xf7X;?\xba6$?q\xb3\x8f?`\xdc\x14?\xfa(\xec>\xbf\xccz@\xdd\xf3+?s\x87\x9c?\x00\xe3\xe1>iX;?\x81\x8e\x1c?\x94\x00U?\xa8\x0bC?\x81\xf4+?\xb4\xeax?l\xf3\x19?\x7f\x1f\x1f?\x9c\xb0!?\x15\x8b\xfb>\x02\xbc\x0f?\xc3K\x12?\xe2\xb0!?\xc2b)?$\x00U?\xe4K\x12?\xfdl\x17?<Y\x07@\xcd\xb1\\?U86?6K\x12?e\xdc\x14?\xb0\xbb\x0f?v\xf3+?\xd5)\r?\x1a\x1e\r?qm\x17?\xbc*\r?\x1b\xfe\x19?y\xc1\xdc>f\xf4+?Rz.?\xa0\x86i?\xd7\x92\xae>`\xe7\x02?\xc6K\x12?vy@?\x81k\xf6>\xa6w\xb7?\xf9w\x05?{\x1f\x1f?kp\x85?@"Z?\xbdA$?/-H?\xd5\x141?\xa3\x9e\xd7>\xf8b)?\xe2\xd3a?\xc3\xbb\x0f?\x06\xe7\x02?\x9b\xc1\xdc>\xf6\x90W?'
S'\x00\x00\x00\x00\x00\x00\x00\x00\x00\x00\x00\x00\x00\x00\x00\x00\x00\x00\x00\x00\x00\x00\x00\x00\x00\x00\x00\x00\x00\x00\x00\x00\x00\x00\x00\x00\x00\x00\x00\x00\x00\x00\x00\x00\x00\x00\x00\x00\x00\x00\x00\x00\x00\x00\x00\x00\x00\x00\x00\x00\x00\x00\x00\x00\x00\x00\x00\x00\x00\x00\x00\x00\x00\x00\x00\x00\x00\x00\x00\x00\x00\x00\x00\x00\x00\x00\x00\x00\x00\x00\x00\x00\x00\x00\x00\x00'
NtbsS'order'
p1274
g1162
(g1163
g1158
g1164
S'b'
tRp1275
(I1
(I96
I1
tg1166
I00
S'\x00\x00\xc0@\x00\x00,B\x00\x00pB\x00\x00\xe0@\x00\x00\xa8B\x00\x00pA\x00\x00PB\x00\x00\x80B\x00\x00\x90B\x00\x00dB\x00\x00\x8aB\x00\x000B\x00\x00\x80@\x00\x00\x0cB\x00\x00\xc8A\x00\x00\x00A\x00\x00@A\x00\x00`B\x00\x00\x14B\x00\x004B\x00\x00xB\x00\x00\x1cB\x00\x00\xc0A\x00\x00|B\x00\x00\xaaB\x00\x00\\B\x00\x00\xbeB\x00\x00\x84B\x00\x00\x8eB\x00\x00\xacB\x00\x00TB\x00\x00\x90A\x00\x00HB\x00\x000A\x00\x00\xaeB\x00\x00\xb2B\x00\x00\xb8B\x00\x00\xa0A\x00\x00\x8cB\x00\x00\xf8A\x00\x00\x10B\x00\x00\xa4B\x00\x00$B\x00\x00 B\x00\x00PA\x00\x00\x86B\x00\x00hB\x00\x00\x80?\x00\x00\x98B\x00\x00\x80A\x00\x00\xa2B\x00\x00lB\x00\x00\x88B\x00\x00XB\x00\x00\x92B\x00\x00`A\x00\x00\x18B\x00\x00\x82B\x00\x00\x94B\x00\x00\xb0B\x00\x00\x00B\x00\x00@B\x00\x00\xd8A\x00\x00\x98A\x00\x00\x9aB\x00\x00DB\x00\x00\xa8A\x00\x00\xa0@\x00\x00\x00\x00\x00\x00\xb4B\x00\x00\xb8A\x00\x00\xe0A\x00\x00\xbaB\x00\x00\xe8A\x00\x00@@\x00\x00\xf0A\x00\x00\x00@\x00\x00LB\x00\x00\xb0A\x00\x00\x96B\x00\x00\x08B\x00\x00 A\x00\x00\xbcB\x00\x00(B\x00\x00<B\x00\x00\x9cB\x00\x00\x88A\x00\x00tB\x00\x00\x04B\x00\x00\xa0B\x00\x00\x10A\x00\x00\xb6B\x00\x00\xd0A\x00\x00\x9eB\x00\x00\xa6B\x00\x008B'
S'\x00\x00\x00\x00\x00\x00\x00\x00\x00\x00\x00\x00\x00\x00\x00\x00\x00\x00\x00\x00\x00\x00\x00\x00\x00\x00\x00\x00\x00\x00\x00\x00\x00\x00\x00\x00\x00\x00\x00\x00\x00\x00\x00\x00\x00\x00\x00\x00\x00\x00\x00\x00\x00\x00\x00\x00\x00\x00\x00\x00\x00\x00\x00\x00\x00\x00\x00\x00\x00\x00\x00\x00\x00\x00\x00\x00\x00\x00\x00\x00\x00\x00\x00\x00\x00\x00\x00\x00\x00\x00\x00\x00\x00\x00\x00\x00'
Ntbsg19
g1162
(g1163
g1158
g1164
S'b'
tRp1276
(I1
(I96
I1
tg1166
I00
S'\x00\x00\x80?\x00\x00\x80?\x00\x00\x80?\x00\x00\x80?\x00\x00\x80?\x00\x00\x80?\x00\x00\x80?\x00\x00\x80?\x00\x00\x80?\x00\x00\x80?\x00\x00\x80?\x00\x00\x80?\x00\x00\x80?\x00\x00\x80?\x00\x00\x80?\x00\x00\x80?\x00\x00\x80?\x00\x00\x80?\x00\x00\x80?\x00\x00\x80?\x00\x00\x80?\x00\x00\x80?\x00\x00\x80?\x00\x00\x80?\x00\x00\x80?\x00\x00\x80?\x00\x00\x80?\x00\x00\x80?\x00\x00\x00\x00\x00\x00\x80?\x00\x00\x80?\x00\x00\x80?\x00\x00\x80?\x00\x00\x80?\x00\x00\x80?\x00\x00\x80?\x00\x00\x00\x00\x00\x00\x80?\x00\x00\x80?\x00\x00\x80?\x00\x00\x80?\x00\x00\x80?\x00\x00\x80?\x00\x00\x80?\x00\x00\x80?\x00\x00\x80?\x00\x00\x80?\x00\x00\x80?\x00\x00\x80?\x00\x00\x80?\x00\x00\x80?\x00\x00\x80?\x00\x00\x80?\x00\x00\x80?\x00\x00\x80?\x00\x00\x80?\x00\x00\x80?\x00\x00\x80?\x00\x00\x00\x00\x00\x00\x80?\x00\x00\x80?\x00\x00\x80?\x00\x00\x80?\x00\x00\x80?\x00\x00\x80?\x00\x00\x00\x00\x00\x00\x80?\x00\x00\x80?\x00\x00\x80?\x00\x00\x80?\x00\x00\x80?\x00\x00\x80?\x00\x00\x00\x00\x00\x00\x00\x00\x00\x00\x80?\x00\x00\x80?\x00\x00\x80?\x00\x00\x80?\x00\x00\x80?\x00\x00\x80?\x00\x00\x80?\x00\x00\x80?\x00\x00\x80?\x00\x00\x80?\x00\x00\x80?\x00\x00\x80?\x00\x00\x80?\x00\x00\x80?\x00\x00\x80?\x00\x00\x80?\x00\x00\x80?\x00\x00\x00\x00\x00\x00\x80?\x00\x00\x80?\x00\x00\x80?\x00\x00\x80?'
S'\x00\x00\x00\x00\x00\x00\x00\x00\x00\x00\x00\x00\x00\x00\x00\x00\x00\x00\x00\x00\x00\x00\x00\x00\x00\x00\x00\x00\x00\x00\x00\x00\x00\x00\x00\x00\x00\x00\x00\x00\x00\x00\x00\x00\x00\x00\x00\x00\x00\x00\x00\x00\x00\x00\x00\x00\x00\x00\x00\x00\x00\x00\x00\x00\x00\x00\x00\x00\x00\x00\x00\x00\x00\x00\x00\x00\x00\x00\x00\x00\x00\x00\x00\x00\x00\x00\x00\x00\x00\x00\x00\x00\x00\x00\x00\x00'
Ntbsg27
g1157
(g1158
(I0
tS'b'
tRp1277
(I1
(I96
I1
tg1160
I00
(lp1278
g150
ag562
ag749
ag162
ag1013
ag251
ag661
ag793
ag881
ag716
ag848
ag573
ag128
ag474
ag362
ag173
ag217
ag705
ag496
ag584
ag771
ag518
ag351
ag782
ag1024
ag694
ag1134
ag815
ag870
ag1035
ag672
ag285
ag639
ag206
ag1046
ag1068
ag1101
ag307
ag859
ag430
ag485
ag991
ag540
ag529
ag228
ag826
ag727
ag91
ag925
ag262
ag980
ag738
ag837
ag683
ag892
ag240
ag507
ag804
ag903
ag1057
ag441
ag617
ag385
ag296
ag936
ag628
ag318
ag139
ag76
ag1079
ag340
ag396
ag1112
ag408
ag116
ag419
ag103
ag650
ag329
ag914
ag463
ag195
ag1123
ag551
ag606
ag947
ag273
ag760
ag452
ag969
ag184
ag1090
ag374
ag958
ag1002
ag595
atbsg23
g1157
(g1158
(I0
tS'b'
tRp1279
(I1
(I96
I1
tg1160
I00
(lp1280
S'1'
aS'2'
aS'3'
aS'2'
aS'1'
aS'2'
aS'2'
aS'2'
aS'2'
aS'2'
aS'3'
aS'3'
aS'2'
aS'1'
aS'1'
aS'1'
aS'2'
aS'3'
aS'2'
aS'1'
aS'2'
aS'2'
aS'2'
aS'1'
aS'3'
aS'3'
aS'2'
aS'3'
aS'1'
aS'1'
aS'1'
aS'3'
aS'3'
aS'2'
aS'3'
aS'3'
aS'1'
aS'1'
aS'1'
aS'2'
aS'2'
aS'1'
aS'1'
aS'1'
aS'1'
aS'1'
aS'1'
aS'2'
aS'1'
aS'1'
aS'1'
aS'1'
aS'2'
aS'1'
aS'2'
aS'2'
aS'2'
aS'2'
aS'1'
aS'1'
aS'3'
aS'2'
aS'2'
aS'1'
aS'1'
aS'1'
aS'3'
aS'3'
aS'2'
aS'3'
aS'1'
aS'2'
aS'1'
aS'1'
aS'1'
aS'2'
aS'1'
aS'1'
aS'2'
aS'3'
aS'2'
aS'3'
aS'3'
aS'1'
aS'1'
aS'2'
aS'3'
aS'2'
aS'1'
aS'3'
aS'1'
aS'2'
aS'2'
aS'3'
aS'2'
aS'2'
atbsg18
g1162
(g1163
g1158
g1164
S'b'
tRp1281
(I1
(I96
I1
tg1166
I00
S'^\\\xdfA\xc0\x024C\xeb\xbcwC\rD\xfdAm\xe3\xabC\xba\xdf\x7fB\x86\x1eXC%\xff\x83C\xf0\x02\x94C\xad)lC\x01\x06\x8eC\x9708C]w\xa1A\x9dn\x14C~Y\xcfB6\xb5\x0eB\xf6sQBd\xc3gC\xef2\x1cCW\x0c<C\x83\xc6\x7fC\xfa\xaf$Ccx\xc6B\x88\x1b\x82C0\xc3\xadC\xdd\x03dCP\x9c\xc1C\xa3\x0b\x88Cf\xc0\x91CM\xc4\xafC\xbe\xe5[C\x1f5\x97BH6PC0\xe6AB\x8c\xca\xb1C\x84\xc2\xb5C\x0e\xb0\xbbC\xda\xd2\xa7B\x9d\xe9\x8fC[\x8d\xfeB:E\x18Cc\xcb\xa7Coy,C\x98\x86(C\xf1\xe2`B%\x1c\x8aC\xad\xd4oC\xc7\x9d\x0cA\xef\xd7\x9bC\xaa\xda\x87B\x19\xd7\xa5C7\xcfsC\x1c!\x8cC\xf14`CD\xe5\x95Ch=pBh\xc7 C&\xf2\x85C@\xe1\x97C\xcc\xd0\xb3C@\x9f\x06CNXHC\xb9\\\xdeB\x8aI\xa0B\xf3\x05\x9eC\xediLC\x8fk\xafB6\x89\xc1AL\x02\xa0@\x17\xb8\xb7CI\xd0\xbeBD=\xe6B9\xda\xbdC\xf2"\xeeB\xb7\t\x82A\x9e\x08\xf6B\x0fyKA\xb1fTCQ-\xb7B\xb0\xd1\x99C{\xbe\x10C\xae-/B\x92\xb3\xbfCN\x1f0C<\x0eDC\xa1\t\xa0C\x06\x8d\x8fB\x96\xbc{Ca\xc1\x0cC\xdc\x0b\xa4C\xdbv\x1fBe\xa3\xb9C&\xc9\xd6B\xa9.\xa2C\xa4\x0c\xaaC\x0c\xfa?C'
S'\x00\x00\x00\x00\x00\x00\x00\x00\x00\x00\x00\x00\x00\x00\x00\x00\x00\x00\x00\x00\x00\x00\x00\x00\x00\x00\x00\x00\x00\x00\x00\x00\x00\x00\x00\x00\x00\x00\x00\x00\x00\x00\x00\x00\x00\x00\x00\x00\x00\x00\x00\x00\x00\x00\x00\x00\x00\x00\x00\x00\x00\x00\x00\x00\x00\x00\x00\x00\x00\x00\x00\x00\x00\x00\x00\x00\x00\x00\x00\x00\x00\x00\x00\x00\x00\x00\x00\x00\x00\x00\x00\x00\x00\x00\x00\x00'
Ntbsg25
g1162
(g1163
g1158
g1164
S'b'
tRp1282
(I1
(I96
I1
tg1166
I00
S'YxM>\x00Bl>\xe1\x84\x85>\xfbzM>aFl>\xe6Bl>\x03\x86\x85>\x02\xf68>,\xca\x8f>G"w=V\xbeW>XAl>O\xfca>\x93\xfea>\xf3yM>\x07\xf38>\x12\x84v>\xbfHl>\xa2\xa53?\x8b9C>S\x0e\x9a>\xf82C>\xc6Al>\xec\xfda>\xc4\x0b\x9a>\x1ewM>\xe7\xbaW>\xcf\x84\x85>\xaaQM>U\xc9\x8f>\xc3\xf08>bvM>\x93\x84v>\x0f\x1cl>9/\x9f>O\x85\x85>\xd8xM>\x87\xad.>f\xbbW>y[\xcd>\x00\xd6a>\xf4c\x80>\xd7\xf68>5xM>\x101C>4\xf18>\x836C>Gd\x80>\xee\xb3\xb3>[\rb>\xaa\xa6\x8a>OBl>\xe5\xc7\x8f>O\xf28>\x00\x19\xc3>rf\x80>\x82Dl>\xf3q\xa9>c\x85\x85>\x92\x85\x85>\xf1\x96\x81?Z\xf18>qwM>\xf4\xf88>n^\xcd>\xcd\xf18>\xac\xf28>\xfd\xae.>\xc8\xb9W>!d\x80>\x0bf\x80>`s\xa9>\x1e@l>eBl>\x83\xbcW>S-\x9f>\x1a\xf18>l\x87.>HBl>\xfb\xc7\x8f>\xcc\xf18>t\xbfW>\xbe\xea\x94>/\xbaW>\x01\xbcW>\xd7\\\xcd>T\xf18>\x1dAl>\x83\x89\x85>\x00\xab.>\x96\xbaW><Cl>\xe8\xf08>\xd2wM>-\xfea>\xa7\xbbW>'
S'\x00\x00\x00\x00\x00\x00\x00\x00\x00\x00\x00\x00\x00\x00\x00\x00\x00\x00\x00\x00\x00\x00\x00\x00\x00\x00\x00\x00\x00\x00\x00\x00\x00\x00\x00\x00\x00\x00\x00\x00\x00\x00\x00\x00\x00\x00\x00\x00\x00\x00\x00\x00\x00\x00\x00\x00\x00\x00\x00\x00\x00\x00\x00\x00\x00\x00\x00\x00\x00\x00\x00\x00\x00\x00\x00\x00\x00\x00\x00\x00\x00\x00\x00\x00\x00\x00\x00\x00\x00\x00\x00\x00\x00\x00\x00\x00'
NtbstRp1283
(dp1284
S'isNumeric'
p1285
(dp1286
g23
I00
sg20
I00
sg17
I01
sg1167
I01
sg22
I01
sg24
I01
sg14
I01
sg18
I01
sg16
I00
sg19
I01
sg26
I00
sg27
I00
sg15
I00
sg21
I01
sg1274
I01
sg25
I01
ssg1151
g1145
sS'dataTypes'
p1287
(lp1288
g1167
ag1274
ag14
ag15
ag16
ag17
ag18
ag19
ag20
ag21
ag22
ag23
ag24
ag25
ag26
ag27
asS'dataShape'
p1289
(lp1290
I96
aI1
asbsS'method'
p1291
S'random'
p1292
sS'sequenceIndices'
p1293
g1157
(g1158
(I0
tS'b'
tRp1294
(I1
(I96
I1
tg80
I01
S'D\x00\x00\x00/\x00\x00\x00L\x00\x00\x00J\x00\x00\x00\x0c\x00\x00\x00C\x00\x00\x00\x00\x00\x00\x00\x03\x00\x00\x00\x0f\x00\x00\x00Z\x00\x00\x00Q\x00\x00\x00!\x00\x00\x00\x10\x00\x00\x00,\x00\x00\x007\x00\x00\x00\x05\x00\x00\x001\x00\x00\x00V\x00\x00\x00\x1f\x00\x00\x00?\x00\x00\x00%\x00\x00\x00B\x00\x00\x00N\x00\x00\x00F\x00\x00\x00\x16\x00\x00\x00\x0e\x00\x00\x00\\\x00\x00\x00>\x00\x00\x00G\x00\x00\x00I\x00\x00\x00K\x00\x00\x00\'\x00\x00\x00<\x00\x00\x00X\x00\x00\x00P\x00\x00\x00\r\x00\x00\x00(\x00\x00\x00\x12\x00\x00\x008\x00\x00\x00\x15\x00\x00\x00+\x00\x00\x00*\x00\x00\x00S\x00\x00\x00\x01\x00\x00\x00\x0b\x00\x00\x00\x13\x00\x00\x00_\x00\x00\x00T\x00\x00\x00=\x00\x00\x00A\x00\x00\x00 \x00\x00\x00M\x00\x00\x00\x06\x00\x00\x00\x1e\x00\x00\x005\x00\x00\x00\x19\x00\x00\x00\x11\x00\x00\x00\t\x00\x00\x00.\x00\x00\x003\x00\x00\x00\x02\x00\x00\x00W\x00\x00\x00\x14\x00\x00\x00\x17\x00\x00\x00\x07\x00\x00\x009\x00\x00\x00\x1b\x00\x00\x00-\x00\x00\x004\x00\x00\x00\n\x00\x00\x00&\x00\x00\x00\x1c\x00\x00\x00\x08\x00\x00\x006\x00\x00\x00:\x00\x00\x00O\x00\x00\x000\x00\x00\x00@\x00\x00\x00U\x00\x00\x00]\x00\x00\x00Y\x00\x00\x002\x00\x00\x00)\x00\x00\x00^\x00\x00\x00\x04\x00\x00\x00\x18\x00\x00\x00\x1d\x00\x00\x00"\x00\x00\x00;\x00\x00\x00#\x00\x00\x00E\x00\x00\x00[\x00\x00\x00$\x00\x00\x00H\x00\x00\x00R\x00\x00\x00\x1a\x00\x00\x00'
tbsS'finished'
p1295
I01
sS'nReps'
p1296
I1
sS'nRemaining'
p1297
I-1
sS'trialList'
p1298
(lp1299
g1
(cpsychopy.data
TrialType
p1300
g1155
(dp1301
g62
g89
sg63
g156
sg64
g88
sg65
g151
sg66
g155
stRp1302
ag1
(g1300
g1155
(dp1303
g62
g74
sg63
g568
sg64
g73
sg65
g563
sg66
g567
stRp1304
ag1
(g1300
g1155
(dp1305
g62
g89
sg63
g755
sg64
g88
sg65
g750
sg66
g754
stRp1306
ag1
(g1300
g1155
(dp1307
g62
g89
sg63
g168
sg64
g160
sg65
g163
sg66
g167
stRp1308
ag1
(g1300
g1155
(dp1309
g62
g74
sg63
g1019
sg64
g114
sg65
g1014
sg66
g1018
stRp1310
ag1
(g1300
g1155
(dp1311
g62
g89
sg63
g257
sg64
g88
sg65
g252
sg66
g256
stRp1312
ag1
(g1300
g1155
(dp1313
g62
g89
sg63
g667
sg64
g88
sg65
g662
sg66
g666
stRp1314
ag1
(g1300
g1155
(dp1315
g62
g89
sg63
g799
sg64
g101
sg65
g794
sg66
g798
stRp1316
ag1
(g1300
g1155
(dp1317
g62
g89
sg63
g887
sg64
g88
sg65
g882
sg66
g886
stRp1318
ag1
(g1300
g1155
(dp1319
g62
g89
sg63
g722
sg64
g101
sg65
g717
sg66
g721
stRp1320
ag1
(g1300
g1155
(dp1321
g62
g74
sg63
g854
sg64
g406
sg65
g849
sg66
g853
stRp1322
ag1
(g1300
g1155
(dp1323
g62
g89
sg63
g579
sg64
g101
sg65
g574
sg66
g578
stRp1324
ag1
(g1300
g1155
(dp1325
g62
g89
sg63
g134
sg64
g126
sg65
g129
sg66
g133
stRp1326
ag1
(g1300
g1155
(dp1327
g62
g74
sg63
g480
sg64
g73
sg65
g475
sg66
g479
stRp1328
ag1
(g1300
g1155
(dp1329
g62
g89
sg63
g368
sg64
g126
sg65
g363
sg66
g367
stRp1330
ag1
(g1300
g1155
(dp1331
g62
g89
sg63
g179
sg64
g88
sg65
g174
sg66
g178
stRp1332
ag1
(g1300
g1155
(dp1333
g62
g74
sg63
g223
sg64
g73
sg65
g218
sg66
g222
stRp1334
ag1
(g1300
g1155
(dp1335
g62
g89
sg63
g711
sg64
g126
sg65
g706
sg66
g710
stRp1336
ag1
(g1300
g1155
(dp1337
g62
g89
sg63
g502
sg64
g283
sg65
g497
sg66
g501
stRp1338
ag1
(g1300
g1155
(dp1339
g62
g89
sg63
g590
sg64
g88
sg65
g585
sg66
g589
stRp1340
ag1
(g1300
g1155
(dp1341
g62
g74
sg63
g777
sg64
g73
sg65
g772
sg66
g776
stRp1342
ag1
(g1300
g1155
(dp1343
g62
g74
sg63
g524
sg64
g238
sg65
g519
sg66
g523
stRp1344
ag1
(g1300
g1155
(dp1345
g62
g89
sg63
g357
sg64
g283
sg65
g352
sg66
g356
stRp1346
ag1
(g1300
g1155
(dp1347
g62
g74
sg63
g788
sg64
g238
sg65
g783
sg66
g787
stRp1348
ag1
(g1300
g1155
(dp1349
g62
g74
sg63
g1030
sg64
g406
sg65
g1025
sg66
g1029
stRp1350
ag1
(g1300
g1155
(dp1351
g62
g89
sg63
g700
sg64
g372
sg65
g695
sg66
g699
stRp1352
ag1
(g1300
g1155
(dp1353
g62
g74
sg63
g1140
sg64
g114
sg65
g1135
sg66
g1139
stRp1354
ag1
(g1300
g1155
(dp1355
g62
g74
sg63
g821
sg64
g73
sg65
g816
sg66
g820
stRp1356
ag1
(g1300
g1155
(dp1357
g62
g89
sg63
g876
sg64
g126
sg65
g871
sg66
g875
stRp1358
ag1
(g1300
g1155
(dp1359
g62
g89
sg63
g1041
sg64
g88
sg65
g1036
sg66
g1040
stRp1360
ag1
(g1300
g1155
(dp1361
g62
g89
sg63
g678
sg64
g283
sg65
g673
sg66
g677
stRp1362
ag1
(g1300
g1155
(dp1363
g62
g89
sg63
g291
sg64
g283
sg65
g286
sg66
g290
stRp1364
ag1
(g1300
g1155
(dp1365
g62
g74
sg63
g645
sg64
g73
sg65
g640
sg66
g644
stRp1366
ag1
(g1300
g1155
(dp1367
g62
g74
sg63
g212
sg64
g114
sg65
g207
sg66
g211
stRp1368
ag1
(g1300
g1155
(dp1369
g62
g74
sg63
g1052
sg64
g114
sg65
g1047
sg66
g1051
stRp1370
ag1
(g1300
g1155
(dp1371
g62
g89
sg63
g1074
sg64
g126
sg65
g1069
sg66
g1073
stRp1372
ag1
(g1300
g1155
(dp1373
g62
g89
sg63
g1107
sg64
g372
sg65
g1102
sg66
g1106
stRp1374
ag1
(g1300
g1155
(dp1375
g62
g89
sg63
g313
sg64
g160
sg65
g308
sg66
g312
stRp1376
ag1
(g1300
g1155
(dp1377
g62
g74
sg63
g865
sg64
g114
sg65
g860
sg66
g864
stRp1378
ag1
(g1300
g1155
(dp1379
g62
g74
sg63
g436
sg64
g73
sg65
g431
sg66
g435
stRp1380
ag1
(g1300
g1155
(dp1381
g62
g74
sg63
g491
sg64
g73
sg65
g486
sg66
g490
stRp1382
ag1
(g1300
g1155
(dp1383
g62
g89
sg63
g997
sg64
g126
sg65
g992
sg66
g996
stRp1384
ag1
(g1300
g1155
(dp1385
g62
g74
sg63
g546
sg64
g114
sg65
g541
sg66
g545
stRp1386
ag1
(g1300
g1155
(dp1387
g62
g74
sg63
g535
sg64
g238
sg65
g530
sg66
g534
stRp1388
ag1
(g1300
g1155
(dp1389
g62
g74
sg63
g234
sg64
g114
sg65
g229
sg66
g233
stRp1390
ag1
(g1300
g1155
(dp1391
g62
g74
sg63
g832
sg64
g406
sg65
g827
sg66
g831
stRp1392
ag1
(g1300
g1155
(dp1393
g62
g89
sg63
g733
sg64
g88
sg65
g728
sg66
g732
stRp1394
ag1
(g1300
g1155
(dp1395
g62
g89
sg63
g97
sg64
g88
sg65
g92
sg66
g96
stRp1396
ag1
(g1300
g1155
(dp1397
g62
g74
sg63
g931
sg64
g73
sg65
g926
sg66
g930
stRp1398
ag1
(g1300
g1155
(dp1399
g62
g74
sg63
g268
sg64
g238
sg65
g263
sg66
g267
stRp1400
ag1
(g1300
g1155
(dp1401
g62
g74
sg63
g986
sg64
g73
sg65
g981
sg66
g985
stRp1402
ag1
(g1300
g1155
(dp1403
g62
g74
sg63
g744
sg64
g114
sg65
g739
sg66
g743
stRp1404
ag1
(g1300
g1155
(dp1405
g62
g74
sg63
g843
sg64
g238
sg65
g838
sg66
g842
stRp1406
ag1
(g1300
g1155
(dp1407
g62
g89
sg63
g689
sg64
g126
sg65
g684
sg66
g688
stRp1408
ag1
(g1300
g1155
(dp1409
g62
g89
sg63
g898
sg64
g101
sg65
g893
sg66
g897
stRp1410
ag1
(g1300
g1155
(dp1411
g62
g74
sg63
g246
sg64
g238
sg65
g241
sg66
g245
stRp1412
ag1
(g1300
g1155
(dp1413
g62
g74
sg63
g513
sg64
g114
sg65
g508
sg66
g512
stRp1414
ag1
(g1300
g1155
(dp1415
g62
g74
sg63
g810
sg64
g114
sg65
g805
sg66
g809
stRp1416
ag1
(g1300
g1155
(dp1417
g62
g89
sg63
g909
sg64
g126
sg65
g904
sg66
g908
stRp1418
ag1
(g1300
g1155
(dp1419
g62
g74
sg63
g1063
sg64
g114
sg65
g1058
sg66
g1062
stRp1420
ag1
(g1300
g1155
(dp1421
g62
g74
sg63
g447
sg64
g114
sg65
g442
sg66
g446
stRp1422
ag1
(g1300
g1155
(dp1423
g62
g74
sg63
g623
sg64
g114
sg65
g618
sg66
g622
stRp1424
ag1
(g1300
g1155
(dp1425
g62
g89
sg63
g391
sg64
g372
sg65
g386
sg66
g390
stRp1426
ag1
(g1300
g1155
(dp1427
g62
g74
sg63
g302
sg64
g114
sg65
g297
sg66
g301
stRp1428
ag1
(g1300
g1155
(dp1429
g62
g89
sg63
g942
sg64
g101
sg65
g937
sg66
g941
stRp1430
ag1
(g1300
g1155
(dp1431
g62
g74
sg63
g634
sg64
g238
sg65
g629
sg66
g633
stRp1432
ag1
(g1300
g1155
(dp1433
g62
g89
sg63
g324
sg64
g283
sg65
g319
sg66
g323
stRp1434
ag1
(g1300
g1155
(dp1435
g62
g74
sg63
g145
sg64
g114
sg65
g140
sg66
g144
stRp1436
ag1
(g1300
g1155
(dp1437
g62
g74
sg63
g84
sg64
g73
sg65
g78
sg66
g83
stRp1438
ag1
(g1300
g1155
(dp1439
g62
g89
sg63
g1085
sg64
g88
sg65
g1080
sg66
g1084
stRp1440
ag1
(g1300
g1155
(dp1441
g62
g74
sg63
g346
sg64
g114
sg65
g341
sg66
g345
stRp1442
ag1
(g1300
g1155
(dp1443
g62
g89
sg63
g402
sg64
g283
sg65
g397
sg66
g401
stRp1444
ag1
(g1300
g1155
(dp1445
g62
g89
sg63
g1118
sg64
g372
sg65
g1113
sg66
g1117
stRp1446
ag1
(g1300
g1155
(dp1447
g62
g74
sg63
g414
sg64
g406
sg65
g409
sg66
g413
stRp1448
ag1
(g1300
g1155
(dp1449
g62
g74
sg63
g122
sg64
g114
sg65
g117
sg66
g121
stRp1450
ag1
(g1300
g1155
(dp1451
g62
g74
sg63
g425
sg64
g238
sg65
g420
sg66
g424
stRp1452
ag1
(g1300
g1155
(dp1453
g62
g89
sg63
g109
sg64
g101
sg65
g104
sg66
g108
stRp1454
ag1
(g1300
g1155
(dp1455
g62
g89
sg63
g656
sg64
g283
sg65
g651
sg66
g655
stRp1456
ag1
(g1300
g1155
(dp1457
g62
g89
sg63
g335
sg64
g88
sg65
g330
sg66
g334
stRp1458
ag1
(g1300
g1155
(dp1459
g62
g74
sg63
g920
sg64
g114
sg65
g915
sg66
g919
stRp1460
ag1
(g1300
g1155
(dp1461
g62
g74
sg63
g469
sg64
g238
sg65
g464
sg66
g468
stRp1462
ag1
(g1300
g1155
(dp1463
g62
g89
sg63
g201
sg64
g88
sg65
g196
sg66
g200
stRp1464
ag1
(g1300
g1155
(dp1465
g62
g74
sg63
g1129
sg64
g73
sg65
g1124
sg66
g1128
stRp1466
ag1
(g1300
g1155
(dp1467
g62
g89
sg63
g557
sg64
g283
sg65
g552
sg66
g556
stRp1468
ag1
(g1300
g1155
(dp1469
g62
g74
sg63
g612
sg64
g73
sg65
g607
sg66
g611
stRp1470
ag1
(g1300
g1155
(dp1471
g62
g74
sg63
g953
sg64
g114
sg65
g948
sg66
g952
stRp1472
ag1
(g1300
g1155
(dp1473
g62
g89
sg63
g279
sg64
g101
sg65
g274
sg66
g278
stRp1474
ag1
(g1300
g1155
(dp1475
g62
g89
sg63
g766
sg64
g101
sg65
g761
sg66
g765
stRp1476
ag1
(g1300
g1155
(dp1477
g62
g89
sg63
g458
sg64
g372
sg65
g453
sg66
g457
stRp1478
ag1
(g1300
g1155
(dp1479
g62
g89
sg63
g975
sg64
g372
sg65
g970
sg66
g974
stRp1480
ag1
(g1300
g1155
(dp1481
g62
g74
sg63
g190
sg64
g73
sg65
g185
sg66
g189
stRp1482
ag1
(g1300
g1155
(dp1483
g62
g89
sg63
g1096
sg64
g101
sg65
g1091
sg66
g1095
stRp1484
ag1
(g1300
g1155
(dp1485
g62
g89
sg63
g380
sg64
g372
sg65
g375
sg66
g379
stRp1486
ag1
(g1300
g1155
(dp1487
g62
g89
sg63
g964
sg64
g88
sg65
g959
sg66
g963
stRp1488
ag1
(g1300
g1155
(dp1489
g62
g74
sg63
g1008
sg64
g238
sg65
g1003
sg66
g1007
stRp1490
ag1
(g1300
g1155
(dp1491
g62
g74
sg63
g601
sg64
g73
sg65
g596
sg66
g600
stRp1492
asS'seed'
p1493
NsS'thisIndex'
p1494
g1137
sS'thisN'
p1495
I96
sS'thisTrialN'
p1496
I0
sS'nTotal'
p1497
I96
sS'_warnUseOfNext'
p1498
I01
sbasS'savePickle'
p1499
I00
sb.