ccopy_reg
_reconstructor
p1
(cpsychopy.data
ExperimentHandler
p2
c__builtin__
object
p3
NtRp4
(dp5
S'originPath'
p6
NsS'dataFileName'
p7
VC:\u005cDocuments and Settings\u005cExperimental user\u005cMy Documents\u005cconsciousness\u005cuncon_feat\u005cexperiment_scripts\u005cdata/pedro_Experiment_EEG_version_2019_may_15_1020
p8
sS'runtimeInfo'
p9
NsS'name'
p10
VExperiment_EEG_version
p11
sS'dataNames'
p12
(lp13
S'image_onset_time'
p14
aS'response_window'
p15
aS'correctAns'
p16
aS'probe_onset'
p17
aS'discrim_resptime'
p18
aS'response.corr'
p19
aS'response.keys'
p20
aS'response.rt'
p21
aS'visible_resptime'
p22
aS'visible.keys'
p23
aS'visible.corr'
p24
aS'visible.rt'
p25
aS'probeFrames'
p26
aS'jitter2'
p27
asS'autoLog'
p28
I01
sS'extraInfo'
p29
(dp30
Vn_square
p31
V32
p32
sVexperiment_color
p33
Vbw
p34
sS'frameRate'
p35
cnumpy.core.multiarray
scalar
p36
(cnumpy
dtype
p37
(S'f8'
I0
I1
tRp38
(I3
S'<'
NNNI-1
I-1
I0
tbS'\xff\x1aOX\x1b\xf2X@'
tRp39
sS'date'
p40
V2019_may_15_1020
p41
sVsession
p42
V013
p43
sVimage_size
p44
V256
p45
sVpremask_dur
p46
V20
p47
sVprobeFrames
p48
V5
sVparticipant
p49
Vpedro
p50
sS'expName'
p51
g11
sVpostmask_dur
p52
V20
p53
ssS'loopsUnfinished'
p54
(lp55
sS'saveWideText'
p56
I00
sS'thisEntry'
p57
(dp58
sS'version'
p59
S''
sS'_paramNamesSoFar'
p60
(lp61
S'category'
p62
aS'probe_path'
p63
aS'subcategory'
p64
aS'fixation_duration'
p65
aS'label'
p66
asS'entries'
p67
(lp68
(dp69
g31
g32
sg17
F3.736599963507615
sg24
I0
sg35
g39
sg14
F3.7145753694931045
sg16
g36
(g37
(S'i4'
I0
I1
tRp70
(I3
S'<'
NNNI-1
I-1
I0
tbS'\x02\x00\x00\x00'
tRp71
sg42
g43
sg46
g47
sg15
S'V_nV'
p72
sg22
F5.7499042767449282
sg64
VFurniture
p73
sg62
VNonliving_Things
p74
sg49
g50
sS'trials.thisN'
p75
I0
sg19
I1
sg27
g36
(g38
S'\x00\x00\x00\x00\x00\x00\x1c@'
tRp76
sg52
g53
sg23
S'2'
sg18
F4.9972749051521532
sg33
g34
sg51
g11
sg20
S'2'
sg65
g36
(g37
(S'i8'
I0
I1
tRp77
(I3
S'<'
NNNI-1
I-1
I0
tbS'\x00\x00\x00\x00\x00\x00\x00\x00'
tRp78
sg44
g45
sg40
g41
sg25
F0.24074554070830345
sS'trials.thisIndex'
p79
g36
(g37
(S'i4'
I0
I1
tRp80
(I3
S'<'
NNNI-1
I-1
I0
tbS'/\x00\x00\x00'
tRp81
sg26
V5
sS'trials.thisRepN'
p82
I0
sg66
Vlectern
p83
sg63
V../experiment_stimuli/bw_bc_bl/Nonliving_Things/Furniture/lectern_3.jpg
p84
sg21
F0.7217990200733766
sS'trials.thisTrialN'
p85
I0
sa(dp86
g31
g32
sg17
F7.7281580088310875
sg24
I1
sg35
g39
sg14
F7.7232894849730656
sg16
g36
(g70
S'\x01\x00\x00\x00'
tRp87
sg42
g43
sg46
g47
sg15
S'nV_V'
p88
sg22
F9.5779743251041509
sg64
g73
sg62
g74
sg49
g50
sS'trials.thisN'
p89
I1
sg19
I1
sg27
g36
(g38
S'\x00\x00\x00\x00\x00\x00\x1e@'
tRp90
sg52
g53
sg23
S'1'
sg18
F8.9859509355737828
sg33
g34
sg51
g11
sg20
S'1'
sg65
g36
(g77
S'\x00\x00\x00\x00\x00\x00\x00\x00'
tRp91
sg44
g45
sg40
g41
sg25
F0.18061311257770285
sS'trials.thisIndex'
p92
g36
(g80
S'\x06\x00\x00\x00'
tRp93
sg26
V5
sS'trials.thisRepN'
p94
I0
sg66
Vbedside-table
p95
sg63
V../experiment_stimuli/bw_bc_bl/Nonliving_Things/Furniture/bedside-table_2.jpg
p96
sg21
F0.57147152238758281
sS'trials.thisTrialN'
p97
I1
sa(dp98
g31
g32
sg17
F11.496403605735395
sg24
I1
sg35
g39
sg14
F11.491479473654181
sg16
g36
(g70
S'\x02\x00\x00\x00'
tRp99
sg42
g43
sg46
g47
sg15
g72
sg22
F13.436363883083686
sg64
g73
sg62
g74
sg49
g50
sS'trials.thisN'
p100
I2
sg19
I1
sg27
g36
(g38
S'\x00\x00\x00\x00\x00\x00\x1a@'
tRp101
sg52
g53
sg23
S'1'
sg18
F12.774172133591492
sg33
g34
sg51
g11
sg20
S'2'
sg65
g36
(g77
S'\x00\x00\x00\x00\x00\x00\x00\x00'
tRp102
sg44
g45
sg40
g41
sg25
F0.13052383746253327
sS'trials.thisIndex'
p103
g36
(g80
S'\x08\x00\x00\x00'
tRp104
sg26
V5
sS'trials.thisRepN'
p105
I0
sg66
Vbookcase
p106
sg63
V../experiment_stimuli/bw_bc_bl/Nonliving_Things/Furniture/bookcase_23.jpg
p107
sg21
F0.64164162665838376
sS'trials.thisTrialN'
p108
I2
sa(dp109
g31
g32
sg17
F15.305147010076325
sg24
I0
sg35
g39
sg14
F15.299768410448451
sg16
g36
(g70
S'\x02\x00\x00\x00'
tRp110
sg42
g43
sg46
g47
sg15
g88
sg22
F17.244609790446702
sg64
VMarine_creatures
p111
sg62
VLiving_Things
p112
sg49
g50
sS'trials.thisN'
p113
I3
sg19
I1
sg27
g36
(g38
S'\x00\x00\x00\x00\x00\x00 @'
tRp114
sg52
g53
sg23
S'3'
sg18
F16.612517418339849
sg33
g34
sg51
g11
sg20
S'2'
sg65
g36
(g77
S'\x00\x00\x00\x00\x00\x00\x00\x00'
tRp115
sg44
g45
sg40
g41
sg25
F0.31089220917783678
sS'trials.thisIndex'
p116
g36
(g80
S'K\x00\x00\x00'
tRp117
sg26
V5
sS'trials.thisRepN'
p118
I0
sg66
Vshark
p119
sg63
V../experiment_stimuli/bw_bc_bl/Living_Things/Marine_creatures/shark_0.jpg
p120
sg21
F0.61155537696322426
sS'trials.thisTrialN'
p121
I3
sa(dp122
g31
g32
sg17
F19.293277882505208
sg24
I0
sg35
g39
sg14
F19.288423734367825
sg16
g36
(g70
S'\x02\x00\x00\x00'
tRp123
sg42
g43
sg46
g47
sg15
g72
sg22
F21.323474769771565
sg64
VMusical_Inst
p124
sg62
g74
sg49
g50
sS'trials.thisN'
p125
I4
sg19
I1
sg27
g36
(g38
S'\x00\x00\x00\x00\x00\x00\x1a@'
tRp126
sg52
g53
sg23
S'2'
sg18
F20.581148885830771
sg33
g34
sg51
g11
sg20
S'2'
sg65
g36
(g77
S'\x00\x00\x00\x00\x00\x00\x00\x00'
tRp127
sg44
g45
sg40
g41
sg25
F0.2006578104919754
sS'trials.thisIndex'
p128
g36
(g80
S'\x19\x00\x00\x00'
tRp129
sg26
V5
sS'trials.thisRepN'
p130
I0
sg66
Vdrum
p131
sg63
V../experiment_stimuli/bw_bc_bl/Nonliving_Things/Musical_Inst/drum_6.jpg
p132
sg21
F0.72179471189156175
sS'trials.thisTrialN'
p133
I4
sa(dp134
g31
g32
sg17
F23.262571562547237
sg24
I0
sg35
g39
sg14
F23.257050562824588
sg16
g36
(g70
S'\x01\x00\x00\x00'
tRp135
sg42
g43
sg46
g47
sg15
g88
sg22
F25.452468004776165
sg64
VKitchen_Uten
p136
sg62
g74
sg49
g50
sS'trials.thisN'
p137
I5
sg19
I1
sg27
g36
(g38
S'\x00\x00\x00\x00\x00\x00\x18@'
tRp138
sg52
g53
sg23
S'3'
sg18
F24.539744222769514
sg33
g34
sg51
g11
sg20
S'1'
sg65
g36
(g77
S'\x00\x00\x00\x00\x00\x00\x00\x00'
tRp139
sg44
g45
sg40
g41
sg25
F0.20050403469940647
sS'trials.thisIndex'
p140
g36
(g80
S'\x12\x00\x00\x00'
tRp141
sg26
V5
sS'trials.thisRepN'
p142
I0
sg66
Vcoking-pot
p143
sg63
V../experiment_stimuli/bw_bc_bl/Nonliving_Things/Kitchen_Uten/coking-pot_15.jpg
p144
sg21
F0.89216897822916508
sS'trials.thisTrialN'
p145
I5
sa(dp146
g31
g32
sg17
F27.39087759325048
sg24
I1
sg35
g39
sg14
F27.386026268184651
sg16
g36
(g70
S'\x01\x00\x00\x00'
tRp147
sg42
g43
sg46
g47
sg15
g88
sg22
F29.280810316035058
sg64
g136
sg62
g74
sg49
g50
sS'trials.thisN'
p148
I6
sg19
I0
sg27
g36
(g38
S'\x00\x00\x00\x00\x00\x00\x18@'
tRp149
sg52
g53
sg23
S'1'
sg18
F28.638654700655024
sg33
g34
sg51
g11
sg20
S'2'
sg65
g36
(g77
S'\x00\x00\x00\x00\x00\x00\x00\x00'
tRp150
sg44
g45
sg40
g41
sg25
F0.16056571941589937
sS'trials.thisIndex'
p151
g36
(g80
S'B\x00\x00\x00'
tRp152
sg26
V5
sS'trials.thisRepN'
p153
I0
sg66
Vpot
p154
sg63
V../experiment_stimuli/bw_bc_bl/Nonliving_Things/Kitchen_Uten/pot_14.jpg
p155
sg21
F0.62158141378313303
sS'trials.thisTrialN'
p156
I6
sa(dp157
g31
g32
sg17
F31.179066272976343
sg24
I0
sg35
g39
sg14
F31.174263473483734
sg16
g36
(g70
S'\x01\x00\x00\x00'
tRp158
sg42
g43
sg46
g47
sg15
g88
sg22
F33.95092497067526
sg64
g136
sg62
g74
sg49
g50
sS'trials.thisN'
p159
I7
sg19
I1
sg27
g36
(g38
S'\x00\x00\x00\x00\x00\x00\x1e@'
tRp160
sg52
g53
sg23
S'2'
sg18
F32.446927859622519
sg33
g34
sg51
g11
sg20
S'1'
sg65
g36
(g77
S'\x00\x00\x00\x00\x00\x00\x00\x00'
tRp161
sg44
g45
sg40
g41
sg25
F0.24076233746018261
sS'trials.thisIndex'
p162
g36
(g80
S'M\x00\x00\x00'
tRp163
sg26
V5
sS'trials.thisRepN'
p164
I0
sg66
Vsmall-saucepan
p165
sg63
V../experiment_stimuli/bw_bc_bl/Nonliving_Things/Kitchen_Uten/small-saucepan_25.jpg
p166
sg21
F1.4834524313919246
sS'trials.thisTrialN'
p167
I7
sa(dp168
g31
g32
sg17
F35.929459014558233
sg24
I0
sg35
g39
sg14
F35.924592629540712
sg16
g36
(g70
S'\x02\x00\x00\x00'
tRp169
sg42
g43
sg46
g47
sg15
g88
sg22
F38.290365056367591
sg64
VBirds
p170
sg62
g112
sg49
g50
sS'trials.thisN'
p171
I8
sg19
I1
sg27
g36
(g38
S'\x00\x00\x00\x00\x00\x00\x18@'
tRp172
sg52
g53
sg23
S'2'
sg18
F37.187234253389761
sg33
g34
sg51
g11
sg20
S'2'
sg65
g36
(g77
S'\x00\x00\x00\x00\x00\x00\x00\x00'
tRp173
sg44
g45
sg40
g41
sg25
F0.29084892483660951
sS'trials.thisIndex'
p174
g36
(g80
S'&\x00\x00\x00'
tRp175
sg26
V5
sS'trials.thisRepN'
p176
I0
sg66
Vhen
p177
sg63
V../experiment_stimuli/bw_bc_bl/Living_Things/Birds/hen_1.jpg
p178
sg21
F1.0825795974815264
sS'trials.thisTrialN'
p179
I8
sa(dp180
g31
g32
sg17
F40.318983582023066
sg24
I1
sg35
g39
sg14
F40.314130670565646
sg16
g36
(g70
S'\x02\x00\x00\x00'
tRp181
sg42
g43
sg46
g47
sg15
g88
sg22
F42.138761877373327
sg64
VAnimals
p182
sg62
g112
sg49
g50
sS'trials.thisN'
p183
I9
sg19
I0
sg27
g36
(g38
S'\x00\x00\x00\x00\x00\x00\x18@'
tRp184
sg52
g53
sg23
S'1'
sg18
F41.566755795152858
sg33
g34
sg51
g11
sg20
S'1'
sg65
g36
(g77
S'\x00\x00\x00\x00\x00\x00\x00\x00'
tRp185
sg44
g45
sg40
g41
sg25
F0.15056871221167967
sS'trials.thisIndex'
p186
g36
(g80
S'\x14\x00\x00\x00'
tRp187
sg26
V5
sS'trials.thisRepN'
p188
I0
sg66
Vcow
p189
sg63
V../experiment_stimuli/bw_bc_bl/Living_Things/Animals/cow_8.jpg
p190
sg21
F0.55143383948598057
sS'trials.thisTrialN'
p191
I9
sa(dp192
g31
g32
sg17
F44.027173313661478
sg24
I0
sg35
g39
sg14
F44.022189791081473
sg16
g36
(g70
S'\x02\x00\x00\x00'
tRp193
sg42
g43
sg46
g47
sg15
g88
sg22
F46.197549828502815
sg64
g170
sg62
g112
sg49
g50
sS'trials.thisN'
p194
I10
sg19
I1
sg27
g36
(g38
S'\x00\x00\x00\x00\x00\x00\x18@'
tRp195
sg52
g53
sg23
S'2'
sg18
F45.304882943688426
sg33
g34
sg51
g11
sg20
S'2'
sg65
g36
(g77
S'\x00\x00\x00\x00\x00\x00\x00\x00'
tRp196
sg44
g45
sg40
g41
sg25
F0.18063050688942894
sS'trials.thisIndex'
p197
g36
(g80
S'!\x00\x00\x00'
tRp198
sg26
V5
sS'trials.thisRepN'
p199
I0
sg66
Vgoldfinch
p200
sg63
V../experiment_stimuli/bw_bc_bl/Living_Things/Birds/goldfinch_0.jpg
p201
sg21
F0.87212735193315893
sS'trials.thisTrialN'
p202
I10
sa(dp203
g31
g32
sg17
F48.115913207817357
sg24
I1
sg35
g39
sg14
F48.111081833427306
sg16
g36
(g70
S'\x02\x00\x00\x00'
tRp204
sg42
g43
sg46
g47
sg15
g72
sg22
F50.246349591470789
sg64
g124
sg62
g74
sg49
g50
sS'trials.thisN'
p205
I11
sg19
I0
sg27
g36
(g38
S'\x00\x00\x00\x00\x00\x00\x18@'
tRp206
sg52
g53
sg23
S'1'
sg18
F49.3837421258213
sg33
g34
sg51
g11
sg20
S'1'
sg65
g36
(g77
S'\x00\x00\x00\x00\x00\x00\x00\x00'
tRp207
sg44
g45
sg40
g41
sg25
F0.17059239145601168
sS'trials.thisIndex'
p208
g36
(g80
S'>\x00\x00\x00'
tRp209
sg26
V5
sS'trials.thisRepN'
p210
I0
sg66
Vpiano
p211
sg63
V../experiment_stimuli/bw_bc_bl/Nonliving_Things/Musical_Inst/piano__11.jpg
p212
sg21
F0.84206053079105914
sS'trials.thisTrialN'
p213
I11
sa(dp214
g31
g32
sg17
F52.155433930747677
sg24
I0
sg35
g39
sg14
F52.149854593561031
sg16
g36
(g70
S'\x01\x00\x00\x00'
tRp215
sg42
g43
sg46
g47
sg15
g88
sg22
F54.325245912361424
sg64
g73
sg62
g74
sg49
g50
sS'trials.thisN'
p216
I12
sg19
I1
sg27
g36
(g38
S'\x00\x00\x00\x00\x00\x00\x18@'
tRp217
sg52
g53
sg23
S'3'
sg18
F53.452600662014447
sg33
g34
sg51
g11
sg20
S'1'
sg65
g36
(g77
S'\x00\x00\x00\x00\x00\x00\x00\x00'
tRp218
sg44
g45
sg40
g41
sg25
F0.31074104201979935
sS'trials.thisIndex'
p219
g36
(g80
S'Q\x00\x00\x00'
tRp220
sg26
V5
sS'trials.thisRepN'
p221
I0
sg66
Vtable
p222
sg63
V../experiment_stimuli/bw_bc_bl/Nonliving_Things/Furniture/table_5.jpg
p223
sg21
F0.85207615431863815
sS'trials.thisTrialN'
p224
I12
sa(dp225
g31
g32
sg17
F56.373983198951464
sg24
I0
sg35
g39
sg14
F56.369027608656324
sg16
g36
(g70
S'\x01\x00\x00\x00'
tRp226
sg42
g43
sg46
g47
sg15
g72
sg22
F58.464228748634923
sg64
VInsects
p227
sg62
g112
sg49
g50
sS'trials.thisN'
p228
I13
sg19
I1
sg27
g36
(g38
S'\x00\x00\x00\x00\x00\x00\x1a@'
tRp229
sg52
g53
sg23
S'2'
sg18
F57.641696705424692
sg33
g34
sg51
g11
sg20
S'1'
sg65
g36
(g77
S'\x00\x00\x00\x00\x00\x00\x00\x00'
tRp230
sg44
g45
sg40
g41
sg25
F0.24075098423054442
sS'trials.thisIndex'
p231
g36
(g80
S'I\x00\x00\x00'
tRp232
sg26
V5
sS'trials.thisRepN'
p233
I0
sg66
Vscorpion
p234
sg63
V../experiment_stimuli/bw_bc_bl/Living_Things/Insects/scorpion_25.jpg
p235
sg21
F0.80196026660269126
sS'trials.thisTrialN'
p236
I13
sa(dp237
g31
g32
sg17
F60.442686278722249
sg24
I1
sg35
g39
sg14
F60.437872028327547
sg16
g36
(g70
S'\x02\x00\x00\x00'
tRp238
sg42
g43
sg46
g47
sg15
g88
sg22
F62.513036778604146
sg64
g111
sg62
g112
sg49
g50
sS'trials.thisN'
p239
I14
sg19
I1
sg27
g36
(g38
S'\x00\x00\x00\x00\x00\x00\x1a@'
tRp240
sg52
g53
sg23
S'1'
sg18
F61.700530524074566
sg33
g34
sg51
g11
sg20
S'2'
sg65
g36
(g77
S'\x00\x00\x00\x00\x00\x00\x00\x00'
tRp241
sg44
g45
sg40
g41
sg25
F0.18061196617782116
sS'trials.thisIndex'
p242
g36
(g80
S'A\x00\x00\x00'
tRp243
sg26
V5
sS'trials.thisRepN'
p244
I0
sg66
Vpomfret
p245
sg63
V../experiment_stimuli/bw_bc_bl/Living_Things/Marine_creatures/pomfret_23.jpg
p246
sg21
F0.7919502520817332
sS'trials.thisTrialN'
p247
I14
sa(dp248
g31
g32
sg17
F64.431427292816807
sg24
I0
sg35
g39
sg14
F64.426544479501899
sg16
g36
(g70
S'\x01\x00\x00\x00'
tRp249
sg42
g43
sg46
g47
sg15
g88
sg22
F67.092969577992335
sg64
VVehicles
p250
sg62
g74
sg49
g50
sS'trials.thisN'
p251
I15
sg19
I1
sg27
g36
(g38
S'\x00\x00\x00\x00\x00\x00\x18@'
tRp252
sg52
g53
sg23
S'3'
sg18
F65.709237188508268
sg33
g34
sg51
g11
sg20
S'1'
sg65
g36
(g77
S'\x00\x00\x00\x00\x00\x00\x00\x00'
tRp253
sg44
g45
sg40
g41
sg25
F0.37087796308333054
sS'trials.thisIndex'
p254
g36
(g80
S'[\x00\x00\x00'
tRp255
sg26
V5
sS'trials.thisRepN'
p256
I0
sg66
Vvan
p257
sg63
V../experiment_stimuli/bw_bc_bl/Nonliving_Things/Vehicles/van_12.jpg
p258
sg21
F1.3631886836374179
sS'trials.thisTrialN'
p259
I15
sa(dp260
g31
g32
sg17
F69.201876600738615
sg24
I1
sg35
g39
sg14
F69.196910292375833
sg16
g36
(g70
S'\x02\x00\x00\x00'
tRp261
sg42
g43
sg46
g47
sg15
g88
sg22
F72.233985729166307
sg64
g170
sg62
g112
sg49
g50
sS'trials.thisN'
p262
I16
sg19
I0
sg27
g36
(g38
S'\x00\x00\x00\x00\x00\x00\x18@'
tRp263
sg52
g53
sg23
S'1'
sg18
F70.44954631512519
sg33
g34
sg51
g11
sg20
S'1'
sg65
g36
(g77
S'\x00\x00\x00\x00\x00\x00\x00\x00'
tRp264
sg44
g45
sg40
g41
sg25
F0.18063111987430602
sS'trials.thisIndex'
p265
g36
(g80
S'?\x00\x00\x00'
tRp266
sg26
V5
sS'trials.thisRepN'
p267
I0
sg66
Vpigeon
p268
sg63
V../experiment_stimuli/bw_bc_bl/Living_Things/Birds/pigeon_16.jpg
p269
sg21
F1.7639011478750035
sS'trials.thisTrialN'
p270
I16
sa(dp271
g31
g32
sg17
F74.153906702704262
sg24
I0
sg35
g39
sg14
F74.147675385989714
sg16
g36
(g70
S'\x01\x00\x00\x00'
tRp272
sg42
g43
sg46
g47
sg15
g88
sg22
F76.303006653673947
sg64
g73
sg62
g74
sg49
g50
sS'trials.thisN'
p273
I17
sg19
I1
sg27
g36
(g38
S'\x00\x00\x00\x00\x00\x00\x18@'
tRp274
sg52
g53
sg23
S'2'
sg18
F75.420345396443736
sg33
g34
sg51
g11
sg20
S'1'
sg65
g36
(g77
S'\x00\x00\x00\x00\x00\x00\x00\x00'
tRp275
sg44
g45
sg40
g41
sg25
F0.19063176610507071
sS'trials.thisIndex'
p276
g36
(g80
S'.\x00\x00\x00'
tRp277
sg26
V5
sS'trials.thisRepN'
p278
I0
sg66
Vlamp
p279
sg63
V../experiment_stimuli/bw_bc_bl/Nonliving_Things/Furniture/lamp_24.jpg
p280
sg21
F0.8621004088781774
sS'trials.thisTrialN'
p281
I17
sa(dp282
g31
g32
sg17
F78.232154562778305
sg24
I0
sg35
g39
sg14
F78.226542519289069
sg16
g36
(g70
S'\x02\x00\x00\x00'
tRp283
sg42
g43
sg46
g47
sg15
g88
sg22
F80.963165672554169
sg64
g182
sg62
g112
sg49
g50
sS'trials.thisN'
p284
I18
sg19
I1
sg27
g36
(g38
S'\x00\x00\x00\x00\x00\x00\x1a@'
tRp285
sg52
g53
sg23
S'2'
sg18
F79.489188380073756
sg33
g34
sg51
g11
sg20
S'2'
sg65
g36
(g77
S'\x00\x00\x00\x00\x00\x00\x00\x00'
tRp286
sg44
g45
sg40
g41
sg25
F0.54140027641551569
sS'trials.thisIndex'
p287
g36
(g80
S"'\x00\x00\x00"
tRp288
sg26
V5
sS'trials.thisRepN'
p289
I0
sg66
Vhippopotamus
p290
sg63
V../experiment_stimuli/bw_bc_bl/Living_Things/Animals/hippopotamus_3.jpg
p291
sg21
F1.4534017003024928
sS'trials.thisTrialN'
p292
I18
sa(dp293
g31
g32
sg17
F83.242230950156227
sg24
I0
sg35
g39
sg14
F83.237430913664866
sg16
g36
(g70
S'\x02\x00\x00\x00'
tRp294
sg42
g43
sg46
g47
sg15
g88
sg22
F85.663365899876226
sg64
g182
sg62
g112
sg49
g50
sS'trials.thisN'
p295
I19
sg19
I1
sg27
g36
(g38
S'\x00\x00\x00\x00\x00\x00 @'
tRp296
sg52
g53
sg23
S'2'
sg18
F84.490057432791218
sg33
g34
sg51
g11
sg20
S'2'
sg65
g36
(g77
S'\x00\x00\x00\x00\x00\x00\x00\x00'
tRp297
sg44
g45
sg40
g41
sg25
F0.25076330697629601
sS'trials.thisIndex'
p298
g36
(g80
S'\x1b\x00\x00\x00'
tRp299
sg26
V5
sS'trials.thisRepN'
p300
I0
sg66
Velephant
p301
sg63
V../experiment_stimuli/bw_bc_bl/Living_Things/Animals/elephant_6.jpg
p302
sg21
F1.1527570285252295
sS'trials.thisTrialN'
p303
I19
sa(dp304
g31
g32
sg17
F87.652003013587091
sg24
I1
sg35
g39
sg14
F87.647015058901161
sg16
g36
(g70
S'\x01\x00\x00\x00'
tRp305
sg42
g43
sg46
g47
sg15
g88
sg22
F90.052905937249307
sg64
g136
sg62
g74
sg49
g50
sS'trials.thisN'
p306
I20
sg19
I0
sg27
g36
(g38
S'\x00\x00\x00\x00\x00\x00\x1a@'
tRp307
sg52
g53
sg23
S'1'
sg18
F88.889631371595897
sg33
g34
sg51
g11
sg20
S'2'
sg65
g36
(g77
S'\x00\x00\x00\x00\x00\x00\x00\x00'
tRp308
sg44
g45
sg40
g41
sg25
F0.16041398438392207
sS'trials.thisIndex'
p309
g36
(g80
S'\x16\x00\x00\x00'
tRp310
sg26
V5
sS'trials.thisRepN'
p311
I0
sg66
Vcup
p312
sg63
V../experiment_stimuli/bw_bc_bl/Nonliving_Things/Kitchen_Uten/cup_23.jpg
p313
sg21
F1.1427206946536899
sS'trials.thisTrialN'
p314
I20
sa(dp315
g31
g32
sg17
F91.951262234710157
sg24
I0
sg35
g39
sg14
F91.946368023054674
sg16
g36
(g70
S'\x02\x00\x00\x00'
tRp316
sg42
g43
sg46
g47
sg15
g88
sg22
F93.911280360131059
sg64
g170
sg62
g112
sg49
g50
sS'trials.thisN'
p317
I21
sg19
I1
sg27
g36
(g38
S'\x00\x00\x00\x00\x00\x00 @'
tRp318
sg52
g53
sg23
S'2'
sg18
F93.219035432033706
sg33
g34
sg51
g11
sg20
S'2'
sg65
g36
(g77
S'\x00\x00\x00\x00\x00\x00\x00\x00'
tRp319
sg44
g45
sg40
g41
sg25
F0.27065262763062492
sS'trials.thisIndex'
p320
g36
(g80
S'=\x00\x00\x00'
tRp321
sg26
V5
sS'trials.thisRepN'
p322
I0
sg66
Vpenguin
p323
sg63
V../experiment_stimuli/bw_bc_bl/Living_Things/Birds/penguin_17.jpg
p324
sg21
F0.67168223368935287
sS'trials.thisTrialN'
p325
I21
sa(dp326
g31
g32
sg17
F95.921462089696433
sg24
I1
sg35
g39
sg14
F95.91499632911291
sg16
g36
(g70
S'\x02\x00\x00\x00'
tRp327
sg42
g43
sg46
g47
sg15
g72
sg22
F98.15047787752701
sg64
g73
sg62
g74
sg49
g50
sS'trials.thisN'
p328
I22
sg19
I1
sg27
g36
(g38
S'\x00\x00\x00\x00\x00\x00\x18@'
tRp329
sg52
g53
sg23
S'1'
sg18
F97.177639107219875
sg33
g34
sg51
g11
sg20
S'2'
sg65
g36
(g77
S'\x00\x00\x00\x00\x00\x00\x00\x00'
tRp330
sg44
g45
sg40
g41
sg25
F0.17060016217874363
sS'trials.thisIndex'
p331
g36
(g80
S'\x13\x00\x00\x00'
tRp332
sg26
V5
sS'trials.thisRepN'
p333
I0
sg66
Vcouch
p334
sg63
V../experiment_stimuli/bw_bc_bl/Nonliving_Things/Furniture/couch_19.jpg
p335
sg21
F0.95229866239242256
sS'trials.thisTrialN'
p336
I22
sa(dp337
g31
g32
sg17
F100.06064825027715
sg24
I1
sg35
g39
sg14
F100.05398975167191
sg16
g36
(g70
S'\x01\x00\x00\x00'
tRp338
sg42
g43
sg46
g47
sg15
g88
sg22
F102.28950670559425
sg64
VBuildings
p339
sg62
g74
sg49
g50
sS'trials.thisN'
p340
I23
sg19
I1
sg27
g36
(g38
S'\x00\x00\x00\x00\x00\x00\x18@'
tRp341
sg52
g53
sg23
S'1'
sg18
F101.32665763434488
sg33
g34
sg51
g11
sg20
S'1'
sg65
g36
(g77
S'\x00\x00\x00\x00\x00\x00\x00\x00'
tRp342
sg44
g45
sg40
g41
sg25
F0.25076666788663715
sS'trials.thisIndex'
p343
g36
(g80
S':\x00\x00\x00'
tRp344
sg26
V5
sS'trials.thisRepN'
p345
I0
sg66
Vpalace
p346
sg63
V../experiment_stimuli/bw_bc_bl/Nonliving_Things/Buildings/palace_25.jpg
p347
sg21
F0.94229668925981969
sS'trials.thisTrialN'
p348
I23
sa(dp349
g31
g32
sg17
F104.27808913582703
sg24
I0
sg35
g39
sg14
F104.27315863507101
sg16
g36
(g70
S'\x01\x00\x00\x00'
tRp350
sg42
g43
sg46
g47
sg15
g72
sg22
F106.47863092902116
sg64
g170
sg62
g112
sg49
g50
sS'trials.thisN'
p351
I24
sg19
I1
sg27
g36
(g38
S'\x00\x00\x00\x00\x00\x00\x1a@'
tRp352
sg52
g53
sg23
S'2'
sg18
F105.57589800789719
sg33
g34
sg51
g11
sg20
S'1'
sg65
g36
(g77
S'\x00\x00\x00\x00\x00\x00\x00\x00'
tRp353
sg44
g45
sg40
g41
sg25
F0.20066517486702651
sS'trials.thisIndex'
p354
g36
(g80
S'\x04\x00\x00\x00'
tRp355
sg26
V5
sS'trials.thisRepN'
p356
I0
sg66
Vbarn-owl
p357
sg63
V../experiment_stimuli/bw_bc_bl/Living_Things/Birds/barn-owl_12.jpg
p358
sg21
F0.88215666334144771
sS'trials.thisTrialN'
p359
I24
sa(dp360
g31
g32
sg17
F108.41703572450206
sg24
I0
sg35
g39
sg14
F108.41215980937704
sg16
g36
(g70
S'\x01\x00\x00\x00'
tRp361
sg42
g43
sg46
g47
sg15
g72
sg22
F110.47730799665442
sg64
g170
sg62
g112
sg49
g50
sS'trials.thisN'
p362
I25
sg19
I1
sg27
g36
(g38
S'\x00\x00\x00\x00\x00\x00\x1a@'
tRp363
sg52
g53
sg23
S'2'
sg18
F109.70487204409437
sg33
g34
sg51
g11
sg20
S'1'
sg65
g36
(g77
S'\x00\x00\x00\x00\x00\x00\x00\x00'
tRp364
sg44
g45
sg40
g41
sg25
F0.18062104843556881
sS'trials.thisIndex'
p365
g36
(g80
S'U\x00\x00\x00'
tRp366
sg26
V5
sS'trials.thisRepN'
p367
I0
sg66
Vtoucan
p368
sg63
V../experiment_stimuli/bw_bc_bl/Living_Things/Birds/toucan_20.jpg
p369
sg21
F0.75187095388537273
sS'trials.thisTrialN'
p370
I25
sa(dp371
g31
g32
sg17
F112.39565731212497
sg24
I0
sg35
g39
sg14
F112.39081370516215
sg16
g36
(g70
S'\x01\x00\x00\x00'
tRp372
sg42
g43
sg46
g47
sg15
g72
sg22
F114.50604153575841
sg64
g182
sg62
g112
sg49
g50
sS'trials.thisN'
p373
I26
sg19
I1
sg27
g36
(g38
S'\x00\x00\x00\x00\x00\x00\x18@'
tRp374
sg52
g53
sg23
S'2'
sg18
F113.67350338376127
sg33
g34
sg51
g11
sg20
S'1'
sg65
g36
(g77
S'\x00\x00\x00\x00\x00\x00\x00\x00'
tRp375
sg44
g45
sg40
g41
sg25
F0.20065793831599876
sS'trials.thisIndex'
p376
g36
(g80
S'\x01\x00\x00\x00'
tRp377
sg26
V5
sS'trials.thisRepN'
p378
I0
sg66
Varmadillo
p379
sg63
V../experiment_stimuli/bw_bc_bl/Living_Things/Animals/armadillo_14.jpg
p380
sg21
F0.80197424773359671
sS'trials.thisTrialN'
p381
I26
sa(dp382
g31
g32
sg17
F116.44436249393038
sg24
I0
sg35
g39
sg14
F116.4396056526457
sg16
g36
(g70
S'\x02\x00\x00\x00'
tRp383
sg42
g43
sg46
g47
sg15
g72
sg22
F118.97580883017508
sg64
g136
sg62
g74
sg49
g50
sS'trials.thisN'
p384
I27
sg19
I1
sg27
g36
(g38
S'\x00\x00\x00\x00\x00\x00\x1a@'
tRp385
sg52
g53
sg23
S'3'
sg18
F117.71228409116156
sg33
g34
sg51
g11
sg20
S'2'
sg65
g36
(g77
S'\x00\x00\x00\x00\x00\x00\x00\x00'
tRp386
sg44
g45
sg40
g41
sg25
F0.17058928619371727
sS'trials.thisIndex'
p387
g36
(g80
S'\x1f\x00\x00\x00'
tRp388
sg26
V5
sS'trials.thisRepN'
p389
I0
sg66
Vfrying-pan
p390
sg63
V../experiment_stimuli/bw_bc_bl/Nonliving_Things/Kitchen_Uten/frying-pan_26.jpg
p391
sg21
F1.2429656388703734
sS'trials.thisTrialN'
p392
I27
sa(dp393
g31
g32
sg17
F120.88412214681739
sg24
I0
sg35
g39
sg14
F120.87926812615478
sg16
g36
(g70
S'\x01\x00\x00\x00'
tRp394
sg42
g43
sg46
g47
sg15
g72
sg22
F122.76383480546065
sg64
g111
sg62
g112
sg49
g50
sS'trials.thisN'
p395
I28
sg19
I1
sg27
g36
(g38
S'\x00\x00\x00\x00\x00\x00\x18@'
tRp396
sg52
g53
sg23
S'2'
sg18
F122.13188237871509
sg33
g34
sg51
g11
sg20
S'1'
sg65
g36
(g77
S'\x00\x00\x00\x00\x00\x00\x00\x00'
tRp397
sg44
g45
sg40
g41
sg25
F0.1605701629887335
sS'trials.thisIndex'
p398
g36
(g80
S'7\x00\x00\x00'
tRp399
sg26
V5
sS'trials.thisRepN'
p400
I0
sg66
Vnarwhal
p401
sg63
V../experiment_stimuli/bw_bc_bl/Living_Things/Marine_creatures/narwhal_22.jpg
p402
sg21
F0.61139348091091961
sS'trials.thisTrialN'
p403
I28
sa(dp404
g31
g32
sg17
F124.66337211243808
sg24
I0
sg35
g39
sg14
F124.65749532089103
sg16
g36
(g70
S'\x02\x00\x00\x00'
tRp405
sg42
g43
sg46
g47
sg15
g72
sg22
F126.58230582234683
sg64
g124
sg62
g74
sg49
g50
sS'trials.thisN'
p406
I29
sg19
I1
sg27
g36
(g38
S'\x00\x00\x00\x00\x00\x00\x1c@'
tRp407
sg52
g53
sg23
S'2'
sg18
F125.90008763031801
sg33
g34
sg51
g11
sg20
S'2'
sg65
g36
(g77
S'\x00\x00\x00\x00\x00\x00\x00\x00'
tRp408
sg44
g45
sg40
g41
sg25
F0.23072903003776446
sS'trials.thisIndex'
p409
g36
(g80
S'Y\x00\x00\x00'
tRp410
sg26
V5
sS'trials.thisRepN'
p411
I0
sg66
Vtuba
p412
sg63
V../experiment_stimuli/bw_bc_bl/Nonliving_Things/Musical_Inst/tuba_26.jpg
p413
sg21
F0.66166930587496608
sS'trials.thisTrialN'
p414
I29
sa(dp415
g31
g32
sg17
F128.55073169880779
sg24
I1
sg35
g39
sg14
F128.54592741065426
sg16
g36
(g70
S'\x02\x00\x00\x00'
tRp416
sg42
g43
sg46
g47
sg15
g72
sg22
F131.61337476584595
sg64
g73
sg62
g74
sg49
g50
sS'trials.thisN'
p417
I30
sg19
I0
sg27
g36
(g38
S'\x00\x00\x00\x00\x00\x00\x18@'
tRp418
sg52
g53
sg23
S'1'
sg18
F129.77851095009828
sg33
g34
sg51
g11
sg20
S'1'
sg65
g36
(g77
S'\x00\x00\x00\x00\x00\x00\x00\x00'
tRp419
sg44
g45
sg40
g41
sg25
F0.55141916690627113
sS'trials.thisIndex'
p420
g36
(g80
S'\x00\x00\x00\x00'
tRp421
sg26
V5
sS'trials.thisRepN'
p422
I0
sg66
VChest-of-drawers
p423
sg63
V../experiment_stimuli/bw_bc_bl/Nonliving_Things/Furniture/Chest-of-drawers_25.jpg
p424
sg21
F1.814312256872654
sS'trials.thisTrialN'
p425
I30
sa(dp426
g31
g32
sg17
F133.90263781079557
sg24
I0
sg35
g39
sg14
F133.89755680871895
sg16
g36
(g70
S'\x02\x00\x00\x00'
tRp427
sg42
g43
sg46
g47
sg15
g72
sg22
F136.07294704840751
sg64
g250
sg62
g74
sg49
g50
sS'trials.thisN'
p428
I31
sg19
I1
sg27
g36
(g38
S'\x00\x00\x00\x00\x00\x00\x1a@'
tRp429
sg52
g53
sg23
S'2'
sg18
F135.15019704191945
sg33
g34
sg51
g11
sg20
S'2'
sg65
g36
(g77
S'\x00\x00\x00\x00\x00\x00\x00\x00'
tRp430
sg44
g45
sg40
g41
sg25
F0.20066173881059512
sS'trials.thisIndex'
p431
g36
(g80
S'6\x00\x00\x00'
tRp432
sg26
V5
sS'trials.thisRepN'
p433
I0
sg66
Vmotorbike
p434
sg63
V../experiment_stimuli/bw_bc_bl/Nonliving_Things/Vehicles/motorbike_8.jpg
p435
sg21
F0.90219397749751806
sS'trials.thisTrialN'
p436
I31
sa(dp437
g31
g32
sg17
F138.01146345882444
sg24
I1
sg35
g39
sg14
F138.00650153384777
sg16
g36
(g70
S'\x02\x00\x00\x00'
tRp438
sg42
g43
sg46
g47
sg15
g72
sg22
F140.1517991067376
sg64
g124
sg62
g74
sg49
g50
sS'trials.thisN'
p439
I32
sg19
I1
sg27
g36
(g38
S'\x00\x00\x00\x00\x00\x00\x18@'
tRp440
sg52
g53
sg23
S'1'
sg18
F139.2491046662326
sg33
g34
sg51
g11
sg20
S'2'
sg65
g36
(g77
S'\x00\x00\x00\x00\x00\x00\x00\x00'
tRp441
sg44
g45
sg40
g41
sg25
F0.150552689563483
sS'trials.thisIndex'
p442
g36
(g80
S'$\x00\x00\x00'
tRp443
sg26
V5
sS'trials.thisRepN'
p444
I0
sg66
Vguitar
p445
sg63
V../experiment_stimuli/bw_bc_bl/Nonliving_Things/Musical_Inst/guitar_12.jpg
p446
sg21
F0.88214553927537054
sS'trials.thisTrialN'
p447
I32
sa(dp448
g31
g32
sg17
F142.04033801844344
sg24
I1
sg35
g39
sg14
F142.0352494676481
sg16
g36
(g70
S'\x01\x00\x00\x00'
tRp449
sg42
g43
sg46
g47
sg15
g88
sg22
F144.05029663525056
sg64
g339
sg62
g74
sg49
g50
sS'trials.thisN'
p450
I33
sg19
I1
sg27
g36
(g38
S'\x00\x00\x00\x00\x00\x00\x1e@'
tRp451
sg52
g53
sg23
S'1'
sg18
F143.29790814738953
sg33
g34
sg51
g11
sg20
S'1'
sg65
g36
(g77
S'\x00\x00\x00\x00\x00\x00\x00\x00'
tRp452
sg44
g45
sg40
g41
sg25
F0.19062675110762939
sS'trials.thisIndex'
p453
g36
(g80
S'\x0e\x00\x00\x00'
tRp454
sg26
V5
sS'trials.thisRepN'
p455
I0
sg66
Vcathedral
p456
sg63
V../experiment_stimuli/bw_bc_bl/Nonliving_Things/Buildings/cathedral_0.jpg
p457
sg21
F0.73183963174233213
sS'trials.thisTrialN'
p458
I33
sa(dp459
g31
g32
sg17
F145.97911826719064
sg24
I0
sg35
g39
sg14
F145.97381604992552
sg16
g36
(g70
S'\x02\x00\x00\x00'
tRp460
sg42
g43
sg46
g47
sg15
g88
sg22
F148.66032598103629
sg64
g227
sg62
g112
sg49
g50
sS'trials.thisN'
p461
I34
sg19
I1
sg27
g36
(g38
S'\x00\x00\x00\x00\x00\x00\x18@'
tRp462
sg52
g53
sg23
S'3'
sg18
F147.26652072439902
sg33
g34
sg51
g11
sg20
S'2'
sg65
g36
(g77
S'\x00\x00\x00\x00\x00\x00\x00\x00'
tRp463
sg44
g45
sg40
g41
sg25
F0.51132883492391557
sS'trials.thisIndex'
p464
g36
(g80
S'\x18\x00\x00\x00'
tRp465
sg26
V5
sS'trials.thisRepN'
p466
I0
sg66
Vdragonfly
p467
sg63
V../experiment_stimuli/bw_bc_bl/Living_Things/Insects/dragonfly_19.jpg
p468
sg21
F1.373235231556464
sS'trials.thisTrialN'
p469
I34
sa(dp470
g31
g32
sg17
F150.90944383788155
sg24
I0
sg35
g39
sg14
F150.90455950936303
sg16
g36
(g70
S'\x02\x00\x00\x00'
tRp471
sg42
g43
sg46
g47
sg15
g72
sg22
F153.41061969037401
sg64
g136
sg62
g74
sg49
g50
sS'trials.thisN'
p472
I35
sg19
I1
sg27
g36
(g38
S'\x00\x00\x00\x00\x00\x00 @'
tRp473
sg52
g53
sg23
S'3'
sg18
F152.17719759151805
sg33
g34
sg51
g11
sg20
S'2'
sg65
g36
(g77
S'\x00\x00\x00\x00\x00\x00\x00\x00'
tRp474
sg44
g45
sg40
g41
sg25
F0.37105286284349859
sS'trials.thisIndex'
p475
g36
(g80
S'G\x00\x00\x00'
tRp476
sg26
V5
sS'trials.thisRepN'
p477
I0
sg66
Vsaucepan
p478
sg63
V../experiment_stimuli/bw_bc_bl/Nonliving_Things/Kitchen_Uten/saucepan_10.jpg
p479
sg21
F1.2128633893444203
sS'trials.thisTrialN'
p480
I35
sa(dp481
g31
g32
sg17
F155.51946586405393
sg24
I1
sg35
g39
sg14
F155.51455310021993
sg16
g36
(g70
S'\x02\x00\x00\x00'
tRp482
sg42
g43
sg46
g47
sg15
g72
sg22
F158.29124616837362
sg64
g124
sg62
g74
sg49
g50
sS'trials.thisN'
p483
I36
sg19
I1
sg27
g36
(g38
S'\x00\x00\x00\x00\x00\x00\x1a@'
tRp484
sg52
g53
sg23
S'1'
sg18
F156.75715869123815
sg33
g34
sg51
g11
sg20
S'2'
sg65
g36
(g77
S'\x00\x00\x00\x00\x00\x00\x00\x00'
tRp485
sg44
g45
sg40
g41
sg25
F0.13050274754641578
sS'trials.thisIndex'
p486
g36
(g80
S'H\x00\x00\x00'
tRp487
sg26
V5
sS'trials.thisRepN'
p488
I0
sg66
Vsaxophone
p489
sg63
V../experiment_stimuli/bw_bc_bl/Nonliving_Things/Musical_Inst/saxophone_25.jpg
p490
sg21
F1.513541053107474
sS'trials.thisTrialN'
p491
I36
sa(dp492
g31
g32
sg17
F160.16045817994745
sg24
I1
sg35
g39
sg14
F160.15463707933668
sg16
g36
(g70
S'\x01\x00\x00\x00'
tRp493
sg42
g43
sg46
g47
sg15
g72
sg22
F163.05159296648344
sg64
g170
sg62
g112
sg49
g50
sS'trials.thisN'
p494
I37
sg19
I0
sg27
g36
(g38
S'\x00\x00\x00\x00\x00\x00\x1c@'
tRp495
sg52
g53
sg23
S'1'
sg18
F161.40728113206569
sg33
g34
sg51
g11
sg20
S'2'
sg65
g36
(g77
S'\x00\x00\x00\x00\x00\x00\x00\x00'
tRp496
sg44
g45
sg40
g41
sg25
F0.20068013347918168
sS'trials.thisIndex'
p497
g36
(g80
S';\x00\x00\x00'
tRp498
sg26
V5
sS'trials.thisRepN'
p499
I0
sg66
Vpartridge
p500
sg63
V../experiment_stimuli/bw_bc_bl/Living_Things/Birds/partridge_0.jpg
p501
sg21
F1.6237764743855223
sS'trials.thisTrialN'
p502
I37
sa(dp503
g31
g32
sg17
F164.99000819789944
sg24
I0
sg35
g39
sg14
F164.98513813625323
sg16
g36
(g70
S'\x02\x00\x00\x00'
tRp504
sg42
g43
sg46
g47
sg15
g88
sg22
F167.40103441267274
sg64
g111
sg62
g112
sg49
g50
sS'trials.thisN'
p505
I38
sg19
I1
sg27
g36
(g38
S'\x00\x00\x00\x00\x00\x00\x1a@'
tRp506
sg52
g53
sg23
S'3'
sg18
F166.25786661915481
sg33
g34
sg51
g11
sg20
S'2'
sg65
g36
(g77
S'\x00\x00\x00\x00\x00\x00\x00\x00'
tRp507
sg44
g45
sg40
g41
sg25
F0.21067749802023172
sS'trials.thisIndex'
p508
g36
(g80
S'\x15\x00\x00\x00'
tRp509
sg26
V5
sS'trials.thisRepN'
p510
I0
sg66
Vcrab
p511
sg63
V../experiment_stimuli/bw_bc_bl/Living_Things/Marine_creatures/crab_2.jpg
p512
sg21
F1.1226683015702292
sS'trials.thisTrialN'
p513
I38
sa(dp514
g31
g32
sg17
F169.35050013998989
sg24
I1
sg35
g39
sg14
F169.34462258510757
sg16
g36
(g70
S'\x01\x00\x00\x00'
tRp515
sg42
g43
sg46
g47
sg15
g88
sg22
F173.10344470437849
sg64
g339
sg62
g74
sg49
g50
sS'trials.thisN'
p516
I39
sg19
I1
sg27
g36
(g38
S'\x00\x00\x00\x00\x00\x00\x18@'
tRp517
sg52
g53
sg23
S'1'
sg18
F170.5972454501316
sg33
g34
sg51
g11
sg20
S'1'
sg65
g36
(g77
S'\x00\x00\x00\x00\x00\x00\x00\x00'
tRp518
sg44
g45
sg40
g41
sg25
F0.18061260494869202
sS'trials.thisIndex'
p519
g36
(g80
S'\x11\x00\x00\x00'
tRp520
sg26
V5
sS'trials.thisRepN'
p521
I0
sg66
Vchurch
p522
sg63
V../experiment_stimuli/bw_bc_bl/Nonliving_Things/Buildings/church_15.jpg
p523
sg21
F2.4856370334746316
sS'trials.thisTrialN'
p524
I39
sa(dp525
g31
g32
sg17
F175.02191271376796
sg24
I1
sg35
g39
sg14
F175.01695670204936
sg16
g36
(g70
S'\x02\x00\x00\x00'
tRp526
sg42
g43
sg46
g47
sg15
g88
sg22
F177.15223147900542
sg64
g182
sg62
g112
sg49
g50
sS'trials.thisN'
p527
I40
sg19
I1
sg27
g36
(g38
S'\x00\x00\x00\x00\x00\x00\x1a@'
tRp528
sg52
g53
sg23
S'1'
sg18
F176.28962194168707
sg33
g34
sg51
g11
sg20
S'2'
sg65
g36
(g77
S'\x00\x00\x00\x00\x00\x00\x00\x00'
tRp529
sg44
g45
sg40
g41
sg25
F0.62141702877124771
sS'trials.thisIndex'
p530
g36
(g80
S' \x00\x00\x00'
tRp531
sg26
V5
sS'trials.thisRepN'
p532
I0
sg66
Vgiraffe
p533
sg63
V../experiment_stimuli/bw_bc_bl/Living_Things/Animals/giraffe_6.jpg
p534
sg21
F0.84205689537338912
sS'trials.thisTrialN'
p535
I40
sa(dp536
g31
g32
sg17
F179.51154157693963
sg24
I0
sg35
g39
sg14
F179.50670958991395
sg16
g36
(g70
S'\x02\x00\x00\x00'
tRp537
sg42
g43
sg46
g47
sg15
g72
sg22
F181.9024196746177
sg64
g73
sg62
g74
sg49
g50
sS'trials.thisN'
p538
I41
sg19
I1
sg27
g36
(g38
S'\x00\x00\x00\x00\x00\x00\x1e@'
tRp539
sg52
g53
sg23
S'2'
sg18
F180.78940828383202
sg33
g34
sg51
g11
sg20
S'2'
sg65
g36
(g77
S'\x00\x00\x00\x00\x00\x00\x00\x00'
tRp540
sg44
g45
sg40
g41
sg25
F1.4634014514740556
sS'trials.thisIndex'
p541
g36
(g80
S'N\x00\x00\x00'
tRp542
sg26
V5
sS'trials.thisRepN'
p543
I0
sg66
Vsofa
p544
sg63
V../experiment_stimuli/bw_bc_bl/Nonliving_Things/Furniture/sofa_9.jpg
p545
sg21
F1.0924461214453913
sS'trials.thisTrialN'
p546
I41
sa(dp547
g31
g32
sg17
F185.10379285225645
sg24
I1
sg35
g39
sg14
F185.0988694455009
sg16
g36
(g70
S'\x02\x00\x00\x00'
tRp548
sg42
g43
sg46
g47
sg15
g72
sg22
F187.88558891497087
sg64
g250
sg62
g74
sg49
g50
sS'trials.thisN'
p549
I42
sg19
I1
sg27
g36
(g38
S'\x00\x00\x00\x00\x00\x00\x1a@'
tRp550
sg52
g53
sg23
S'1'
sg18
F186.37153120007133
sg33
g34
sg51
g11
sg20
S'2'
sg65
g36
(g77
S'\x00\x00\x00\x00\x00\x00\x00\x00'
tRp551
sg44
g45
sg40
g41
sg25
F0.17058955336688086
sS'trials.thisIndex'
p552
g36
(g80
S'@\x00\x00\x00'
tRp553
sg26
V5
sS'trials.thisRepN'
p554
I0
sg66
Vplane
p555
sg63
V../experiment_stimuli/bw_bc_bl/Nonliving_Things/Vehicles/plane_5.jpg
p556
sg21
F1.4934906259877607
sS'trials.thisTrialN'
p557
I42
sa(dp558
g31
g32
sg17
F189.79402762081008
sg24
I0
sg35
g39
sg14
F189.78908078582026
sg16
g36
(g70
S'\x01\x00\x00\x00'
tRp559
sg42
g43
sg46
g47
sg15
g88
sg22
F192.66597547155106
sg64
g339
sg62
g74
sg49
g50
sS'trials.thisN'
p560
I43
sg19
I1
sg27
g36
(g38
S'\x00\x00\x00\x00\x00\x00\x18@'
tRp561
sg52
g53
sg23
S'2'
sg18
F191.07175110385288
sg33
g34
sg51
g11
sg20
S'1'
sg65
g36
(g77
S'\x00\x00\x00\x00\x00\x00\x00\x00'
tRp562
sg44
g45
sg40
g41
sg25
F0.59135733539005741
sS'trials.thisIndex'
p563
g36
(g80
S'#\x00\x00\x00'
tRp564
sg26
V5
sS'trials.thisRepN'
p565
I0
sg66
Vgranary
p566
sg63
V../experiment_stimuli/bw_bc_bl/Nonliving_Things/Buildings/granary_24.jpg
p567
sg21
F1.5736549966968596
sS'trials.thisTrialN'
p568
I43
sa(dp569
g31
g32
sg17
F194.99734397715656
sg24
I1
sg35
g39
sg14
F194.99037091556238
sg16
g36
(g70
S'\x02\x00\x00\x00'
tRp570
sg42
g43
sg46
g47
sg15
g72
sg22
F197.67685321549652
sg64
g339
sg62
g74
sg49
g50
sS'trials.thisN'
p571
I44
sg19
I1
sg27
g36
(g38
S'\x00\x00\x00\x00\x00\x00\x1a@'
tRp572
sg52
g53
sg23
S'1'
sg18
F196.26303780934541
sg33
g34
sg51
g11
sg20
S'2'
sg65
g36
(g77
S'\x00\x00\x00\x00\x00\x00\x00\x00'
tRp573
sg44
g45
sg40
g41
sg25
F0.6817225786508061
sS'trials.thisIndex'
p574
g36
(g80
S'\x0c\x00\x00\x00'
tRp575
sg26
V5
sS'trials.thisRepN'
p576
I0
sg66
Vcastle
p577
sg63
V../experiment_stimuli/bw_bc_bl/Nonliving_Things/Buildings/castle_10.jpg
p578
sg21
F1.3932561928522773
sS'trials.thisTrialN'
p579
I44
sa(dp580
g31
g32
sg17
F200.09648049867246
sg24
I1
sg35
g39
sg14
F200.09146373235853
sg16
g36
(g70
S'\x01\x00\x00\x00'
tRp581
sg42
g43
sg46
g47
sg15
g72
sg22
F202.4873064768035
sg64
g170
sg62
g112
sg49
g50
sS'trials.thisN'
p582
I45
sg19
I1
sg27
g36
(g38
S'\x00\x00\x00\x00\x00\x00\x18@'
tRp583
sg52
g53
sg23
S'1'
sg18
F201.39419106027344
sg33
g34
sg51
g11
sg20
S'1'
sg65
g36
(g77
S'\x00\x00\x00\x00\x00\x00\x00\x00'
tRp584
sg44
g45
sg40
g41
sg25
F0.25078498729271814
sS'trials.thisIndex'
p585
g36
(g80
S'J\x00\x00\x00'
tRp586
sg26
V5
sS'trials.thisRepN'
p587
I0
sg66
Vseagull
p588
sg63
V../experiment_stimuli/bw_bc_bl/Living_Things/Birds/seagull_14.jpg
p589
sg21
F1.0725642708712257
sS'trials.thisTrialN'
p590
I45
sa(dp591
g31
g32
sg17
F204.47589740675176
sg24
I0
sg35
g39
sg14
F204.47097433084855
sg16
g36
(g70
S'\x01\x00\x00\x00'
tRp592
sg42
g43
sg46
g47
sg15
g88
sg22
F206.53611291642301
sg64
g250
sg62
g74
sg49
g50
sS'trials.thisN'
p593
I46
sg19
I1
sg27
g36
(g38
S'\x00\x00\x00\x00\x00\x00\x18@'
tRp594
sg52
g53
sg23
S'3'
sg18
F205.78373287961585
sg33
g34
sg51
g11
sg20
S'1'
sg65
g36
(g77
S'\x00\x00\x00\x00\x00\x00\x00\x00'
tRp595
sg44
g45
sg40
g41
sg25
F0.17060270713409409
sS'trials.thisIndex'
p596
g36
(g80
S'\t\x00\x00\x00'
tRp597
sg26
V5
sS'trials.thisRepN'
p598
I0
sg66
Vbus
p599
sg63
V../experiment_stimuli/bw_bc_bl/Nonliving_Things/Vehicles/bus_22.jpg
p600
sg21
F0.73182098183315247
sS'trials.thisTrialN'
p601
I46
sa(dp602
g31
g32
sg17
F208.44435302715283
sg24
I0
sg35
g39
sg14
F208.43960944883293
sg16
g36
(g70
S'\x02\x00\x00\x00'
tRp603
sg42
g43
sg46
g47
sg15
g72
sg22
F210.7452788266819
sg64
g250
sg62
g74
sg49
g50
sS'trials.thisN'
p604
I47
sg19
I1
sg27
g36
(g38
S'\x00\x00\x00\x00\x00\x00\x1a@'
tRp605
sg52
g53
sg23
S'2'
sg18
F209.72229372157017
sg33
g34
sg51
g11
sg20
S'2'
sg65
g36
(g77
S'\x00\x00\x00\x00\x00\x00\x00\x00'
tRp606
sg44
g45
sg40
g41
sg25
F0.15055478765862063
sS'trials.thisIndex'
p607
g36
(g80
S'\x07\x00\x00\x00'
tRp608
sg26
V5
sS'trials.thisRepN'
p609
I0
sg66
Vboat
p610
sg63
V../experiment_stimuli/bw_bc_bl/Nonliving_Things/Vehicles/boat_6.jpg
p611
sg21
F1.0024198393221013
sS'trials.thisTrialN'
p612
I47
sa(dp613
g31
g32
sg17
F212.63491807208629
sg24
I0
sg35
g39
sg14
F212.62871098448522
sg16
g36
(g70
S'\x01\x00\x00\x00'
tRp614
sg42
g43
sg46
g47
sg15
g88
sg22
F214.64374251355184
sg64
g124
sg62
g74
sg49
g50
sS'trials.thisN'
p615
I48
sg19
I1
sg27
g36
(g38
S'\x00\x00\x00\x00\x00\x00 @'
tRp616
sg52
g53
sg23
S'3'
sg18
F213.90140567877097
sg33
g34
sg51
g11
sg20
S'1'
sg65
g36
(g77
S'\x00\x00\x00\x00\x00\x00\x00\x00'
tRp617
sg44
g45
sg40
g41
sg25
F0.14053320535458624
sS'trials.thisIndex'
p618
g36
(g80
S'\\\x00\x00\x00'
tRp619
sg26
V5
sS'trials.thisRepN'
p620
I0
sg66
Vviolin
p621
sg63
V../experiment_stimuli/bw_bc_bl/Nonliving_Things/Musical_Inst/violin_24.jpg
p622
sg21
F0.72180286573711783
sS'trials.thisTrialN'
p623
I48
sa(dp624
g31
g32
sg17
F216.52341210114537
sg24
I1
sg35
g39
sg14
F216.51716102921637
sg16
g36
(g70
S'\x01\x00\x00\x00'
tRp625
sg42
g43
sg46
g47
sg15
g72
sg22
F218.86292131408118
sg64
g182
sg62
g112
sg49
g50
sS'trials.thisN'
p626
I49
sg19
I1
sg27
g36
(g38
S'\x00\x00\x00\x00\x00\x00\x1c@'
tRp627
sg52
g53
sg23
S'1'
sg18
F217.76979096181458
sg33
g34
sg51
g11
sg20
S'1'
sg65
g36
(g77
S'\x00\x00\x00\x00\x00\x00\x00\x00'
tRp628
sg44
g45
sg40
g41
sg25
F0.34095597808482125
sS'trials.thisIndex'
p629
g36
(g80
S'(\x00\x00\x00'
tRp630
sg26
V5
sS'trials.thisRepN'
p631
I0
sg66
Vhorse
p632
sg63
V../experiment_stimuli/bw_bc_bl/Living_Things/Animals/horse_11.jpg
p633
sg21
F1.0725608688080683
sS'trials.thisTrialN'
p634
I49
sa(dp635
g31
g32
sg17
F220.94154425896704
sg24
I1
sg35
g39
sg14
F220.93677113216836
sg16
g36
(g70
S'\x02\x00\x00\x00'
tRp636
sg42
g43
sg46
g47
sg15
g72
sg22
F223.57300931710051
sg64
g73
sg62
g74
sg49
g50
sS'trials.thisN'
p637
I50
sg19
I1
sg27
g36
(g38
S'\x00\x00\x00\x00\x00\x00\x18@'
tRp638
sg52
g53
sg23
S'1'
sg18
F222.19942813529633
sg33
g34
sg51
g11
sg20
S'2'
sg65
g36
(g77
S'\x00\x00\x00\x00\x00\x00\x00\x00'
tRp639
sg44
g45
sg40
g41
sg25
F0.29085755627602339
sS'trials.thisIndex'
p640
g36
(g80
S'\x02\x00\x00\x00'
tRp641
sg26
V5
sS'trials.thisRepN'
p642
I0
sg66
Varmchair
p643
sg63
V../experiment_stimuli/bw_bc_bl/Nonliving_Things/Furniture/armchair_1.jpg
p644
sg21
F1.353004461096134
sS'trials.thisTrialN'
p645
I50
sa(dp646
g31
g32
sg17
F225.60200044285739
sg24
I1
sg35
g39
sg14
F225.59689994092332
sg16
g36
(g70
S'\x02\x00\x00\x00'
tRp647
sg42
g43
sg46
g47
sg15
g88
sg22
F228.80453463434242
sg64
g170
sg62
g112
sg49
g50
sS'trials.thisN'
p648
I51
sg19
I0
sg27
g36
(g38
S'\x00\x00\x00\x00\x00\x00\x18@'
tRp649
sg52
g53
sg23
S'1'
sg18
F226.8896154158283
sg33
g34
sg51
g11
sg20
S'1'
sg65
g36
(g77
S'\x00\x00\x00\x00\x00\x00\x00\x00'
tRp650
sg44
g45
sg40
g41
sg25
F0.20066139294067398
sS'trials.thisIndex'
p651
g36
(g80
S'*\x00\x00\x00'
tRp652
sg26
V5
sS'trials.thisRepN'
p653
I0
sg66
Vhummingbird
p654
sg63
V../experiment_stimuli/bw_bc_bl/Living_Things/Birds/hummingbird_6.jpg
p655
sg21
F1.8943487611832097
sS'trials.thisTrialN'
p656
I51
sa(dp657
g31
g32
sg17
F230.74422337737633
sg24
I0
sg35
g39
sg14
F230.7380831570481
sg16
g36
(g70
S'\x01\x00\x00\x00'
tRp658
sg42
g43
sg46
g47
sg15
g88
sg22
F232.96340344892815
sg64
VTools
p659
sg62
g74
sg49
g50
sS'trials.thisN'
p660
I52
sg19
I1
sg27
g36
(g38
S'\x00\x00\x00\x00\x00\x00\x18@'
tRp661
sg52
g53
sg23
S'3'
sg18
F232.0508321574307
sg33
g34
sg51
g11
sg20
S'1'
sg65
g36
(g77
S'\x00\x00\x00\x00\x00\x00\x00\x00'
tRp662
sg44
g45
sg40
g41
sg25
F0.18063730018911883
sS'trials.thisIndex'
p663
g36
(g80
S'\x03\x00\x00\x00'
tRp664
sg26
V5
sS'trials.thisRepN'
p665
I0
sg66
Vaxe
p666
sg63
V../experiment_stimuli/bw_bc_bl/Nonliving_Things/Tools/axe_19.jpg
p667
sg21
F0.88198450399795547
sS'trials.thisTrialN'
p668
I52
sa(dp669
g31
g32
sg17
F234.88428329594899
sg24
I0
sg35
g39
sg14
F234.87707645935006
sg16
g36
(g70
S'\x01\x00\x00\x00'
tRp670
sg42
g43
sg46
g47
sg15
g72
sg22
F237.27292360225692
sg64
g182
sg62
g112
sg49
g50
sS'trials.thisN'
p671
I53
sg19
I1
sg27
g36
(g38
S'\x00\x00\x00\x00\x00\x00\x1e@'
tRp672
sg52
g53
sg23
S'2'
sg18
F236.16979341185652
sg33
g34
sg51
g11
sg20
S'1'
sg65
g36
(g77
S'\x00\x00\x00\x00\x00\x00\x00\x00'
tRp673
sg44
g45
sg40
g41
sg25
F0.15055408049374819
sS'trials.thisIndex'
p674
g36
(g80
S'Z\x00\x00\x00'
tRp675
sg26
V5
sS'trials.thisRepN'
p676
I0
sg66
Vturtle
p677
sg63
V../experiment_stimuli/bw_bc_bl/Living_Things/Animals/turtle_5.jpg
p678
sg21
F1.0825778943253681
sS'trials.thisTrialN'
p679
I53
sa(dp680
g31
g32
sg17
F239.1625149686588
sg24
I1
sg35
g39
sg14
F239.15638199273963
sg16
g36
(g70
S'\x01\x00\x00\x00'
tRp681
sg42
g43
sg46
g47
sg15
g88
sg22
F242.27381911716657
sg64
g73
sg62
g74
sg49
g50
sS'trials.thisN'
p682
I54
sg19
I1
sg27
g36
(g38
S'\x00\x00\x00\x00\x00\x00\x1a@'
tRp683
sg52
g53
sg23
S'1'
sg18
F240.43906990840333
sg33
g34
sg51
g11
sg20
S'1'
sg65
g36
(g77
S'\x00\x00\x00\x00\x00\x00\x00\x00'
tRp684
sg44
g45
sg40
g41
sg25
F0.51133885374292731
sS'trials.thisIndex'
p685
g36
(g80
S'\x1d\x00\x00\x00'
tRp686
sg26
V5
sS'trials.thisRepN'
p687
I0
sg66
Vfilling-cabinet
p688
sg63
V../experiment_stimuli/bw_bc_bl/Nonliving_Things/Furniture/filling-cabinet_23.jpg
p689
sg21
F1.8141688192263246
sS'trials.thisTrialN'
p690
I54
sa(dp691
g31
g32
sg17
F244.52317474863958
sg24
I0
sg35
g39
sg14
F244.51803670590743
sg16
g36
(g70
S'\x01\x00\x00\x00'
tRp692
sg42
g43
sg46
g47
sg15
g88
sg22
F246.86377247585915
sg64
g136
sg62
g74
sg49
g50
sS'trials.thisN'
p693
I55
sg19
I1
sg27
g36
(g38
S'\x00\x00\x00\x00\x00\x00\x18@'
tRp694
sg52
g53
sg23
S'2'
sg18
F245.81074729759712
sg33
g34
sg51
g11
sg20
S'1'
sg65
g36
(g77
S'\x00\x00\x00\x00\x00\x00\x00\x00'
tRp695
sg44
g45
sg40
g41
sg25
F0.17060810193652287
sS'trials.thisIndex'
p696
g36
(g80
S'S\x00\x00\x00'
tRp697
sg26
V5
sS'trials.thisRepN'
p698
I0
sg66
Vteapot
p699
sg63
V../experiment_stimuli/bw_bc_bl/Nonliving_Things/Kitchen_Uten/teapot_12.jpg
p700
sg21
F1.0324640821781941
sS'trials.thisTrialN'
p701
I55
sa(dp702
g31
g32
sg17
F248.77238272421528
sg24
I0
sg35
g39
sg14
F248.76727841777029
sg16
g36
(g70
S'\x01\x00\x00\x00'
tRp703
sg42
g43
sg46
g47
sg15
g72
sg22
F250.85245052882237
sg64
g182
sg62
g112
sg49
g50
sS'trials.thisN'
p704
I56
sg19
I1
sg27
g36
(g38
S'\x00\x00\x00\x00\x00\x00\x18@'
tRp705
sg52
g53
sg23
S'3'
sg18
F250.0499679238419
sg33
g34
sg51
g11
sg20
S'1'
sg65
g36
(g77
S'\x00\x00\x00\x00\x00\x00\x00\x00'
tRp706
sg44
g45
sg40
g41
sg25
F0.21068849030416459
sS'trials.thisIndex'
p707
g36
(g80
S'_\x00\x00\x00'
tRp708
sg26
V5
sS'trials.thisRepN'
p709
I0
sg66
Vzebra
p710
sg63
V../experiment_stimuli/bw_bc_bl/Living_Things/Animals/zebra_12.jpg
p711
sg21
F0.77190483990125358
sS'trials.thisTrialN'
p712
I56
sa(dp713
g31
g32
sg17
F252.80206934380112
sg24
I1
sg35
g39
sg14
F252.79603136295918
sg16
g36
(g70
S'\x02\x00\x00\x00'
tRp714
sg42
g43
sg46
g47
sg15
g88
sg22
F254.97144694812596
sg64
g111
sg62
g112
sg49
g50
sS'trials.thisN'
p715
I57
sg19
I0
sg27
g36
(g38
S'\x00\x00\x00\x00\x00\x00\x18@'
tRp716
sg52
g53
sg23
S'1'
sg18
F254.0586784639745
sg33
g34
sg51
g11
sg20
S'1'
sg65
g36
(g77
S'\x00\x00\x00\x00\x00\x00\x00\x00'
tRp717
sg44
g45
sg40
g41
sg25
F0.37104732869192958
sS'trials.thisIndex'
p718
g36
(g80
S'+\x00\x00\x00'
tRp719
sg26
V5
sS'trials.thisRepN'
p720
I0
sg66
Vkiller-whale
p721
sg63
V../experiment_stimuli/bw_bc_bl/Living_Things/Marine_creatures/killer-whale_4.jpg
p722
sg21
F0.89219673763727769
sS'trials.thisTrialN'
p723
I57
sa(dp724
g31
g32
sg17
F257.08019052969757
sg24
I1
sg35
g39
sg14
F257.07533419714309
sg16
g36
(g70
S'\x01\x00\x00\x00'
tRp725
sg42
g43
sg46
g47
sg15
g72
sg22
F260.66380283847684
sg64
g182
sg62
g112
sg49
g50
sS'trials.thisN'
p726
I58
sg19
I1
sg27
g36
(g38
S'\x00\x00\x00\x00\x00\x00\x1a@'
tRp727
sg52
g53
sg23
S'1'
sg18
F258.35803900734754
sg33
g34
sg51
g11
sg20
S'1'
sg65
g36
(g77
S'\x00\x00\x00\x00\x00\x00\x00\x00'
tRp728
sg44
g45
sg40
g41
sg25
F0.66166837711352855
sS'trials.thisIndex'
p729
g36
(g80
S'R\x00\x00\x00'
tRp730
sg26
V5
sS'trials.thisRepN'
p731
I0
sg66
Vtapir
p732
sg63
V../experiment_stimuli/bw_bc_bl/Living_Things/Animals/tapir_7.jpg
p733
sg21
F2.2852204676601104
sS'trials.thisTrialN'
p734
I58
sa(dp735
g31
g32
sg17
F263.0634104423807
sg24
I1
sg35
g39
sg14
F263.05836424400331
sg16
g36
(g70
S'\x02\x00\x00\x00'
tRp736
sg42
g43
sg46
g47
sg15
g88
sg22
F265.87527242791839
sg64
g170
sg62
g112
sg49
g50
sS'trials.thisN'
p737
I59
sg19
I0
sg27
g36
(g38
S'\x00\x00\x00\x00\x00\x00\x18@'
tRp738
sg52
g53
sg23
S'1'
sg18
F264.36107401974732
sg33
g34
sg51
g11
sg20
S'1'
sg65
g36
(g77
S'\x00\x00\x00\x00\x00\x00\x00\x00'
tRp739
sg44
g45
sg40
g41
sg25
F0.16056643729098141
sS'trials.thisIndex'
p740
g36
(g80
S'<\x00\x00\x00'
tRp741
sg26
V5
sS'trials.thisRepN'
p742
I0
sg66
Vpelican
p743
sg63
V../experiment_stimuli/bw_bc_bl/Living_Things/Birds/pelican_19.jpg
p744
sg21
F1.4936307442840189
sS'trials.thisTrialN'
p745
I59
sa(dp746
g31
g32
sg17
F267.77465089509496
sg24
I0
sg35
g39
sg14
F267.76858156098751
sg16
g36
(g70
S'\x01\x00\x00\x00'
tRp747
sg42
g43
sg46
g47
sg15
g88
sg22
F270.08425000612624
sg64
g136
sg62
g74
sg49
g50
sS'trials.thisN'
p748
I60
sg19
I1
sg27
g36
(g38
S'\x00\x00\x00\x00\x00\x00\x18@'
tRp749
sg52
g53
sg23
S'2'
sg18
F269.10138356342213
sg33
g34
sg51
g11
sg20
S'1'
sg65
g36
(g77
S'\x00\x00\x00\x00\x00\x00\x00\x00'
tRp750
sg44
g45
sg40
g41
sg25
F0.37104177242144942
sS'trials.thisIndex'
p751
g36
(g80
S'\x1e\x00\x00\x00'
tRp752
sg26
V5
sS'trials.thisRepN'
p753
I0
sg66
Vfondue
p754
sg63
V../experiment_stimuli/bw_bc_bl/Nonliving_Things/Kitchen_Uten/fondue_26.jpg
p755
sg21
F0.96231660165358335
sS'trials.thisTrialN'
p756
I60
sa(dp757
g31
g32
sg17
F272.19330730853835
sg24
I1
sg35
g39
sg14
F272.18819690449163
sg16
g36
(g70
S'\x01\x00\x00\x00'
tRp758
sg42
g43
sg46
g47
sg15
g88
sg22
F275.16532868094509
sg64
g73
sg62
g74
sg49
g50
sS'trials.thisN'
p759
I61
sg19
I0
sg27
g36
(g38
S'\x00\x00\x00\x00\x00\x00\x1e@'
tRp760
sg52
g53
sg23
S'1'
sg18
F273.52099901222391
sg33
g34
sg51
g11
sg20
S'2'
sg65
g36
(g77
S'\x00\x00\x00\x00\x00\x00\x00\x00'
tRp761
sg44
g45
sg40
g41
sg25
F0.19065018295077607
sS'trials.thisIndex'
p762
g36
(g80
S'\x0f\x00\x00\x00'
tRp763
sg26
V5
sS'trials.thisRepN'
p764
I0
sg66
Vchair
p765
sg63
V../experiment_stimuli/bw_bc_bl/Nonliving_Things/Furniture/chair_10.jpg
p766
sg21
F1.6237721020588651
sS'trials.thisTrialN'
p767
I61
sa(dp768
g31
g32
sg17
F277.09366580465576
sg24
I0
sg35
g39
sg14
F277.08884874620708
sg16
g36
(g70
S'\x01\x00\x00\x00'
tRp769
sg42
g43
sg46
g47
sg15
g88
sg22
F279.78533718100516
sg64
g250
sg62
g74
sg49
g50
sS'trials.thisN'
p770
I62
sg19
I1
sg27
g36
(g38
S'\x00\x00\x00\x00\x00\x00\x18@'
tRp771
sg52
g53
sg23
S'3'
sg18
F278.42163965856889
sg33
g34
sg51
g11
sg20
S'1'
sg65
g36
(g77
S'\x00\x00\x00\x00\x00\x00\x00\x00'
tRp772
sg44
g45
sg40
g41
sg25
F0.71179670427227393
sS'trials.thisIndex'
p773
g36
(g80
S'W\x00\x00\x00'
tRp774
sg26
V5
sS'trials.thisRepN'
p775
I0
sg66
Vtrain
p776
sg63
V../experiment_stimuli/bw_bc_bl/Nonliving_Things/Vehicles/train_0.jpg
p777
sg21
F1.3431464483146556
sS'trials.thisTrialN'
p778
I62
sa(dp779
g31
g32
sg17
F282.23490586993285
sg24
I1
sg35
g39
sg14
F282.23001827474218
sg16
g36
(g70
S'\x02\x00\x00\x00'
tRp780
sg42
g43
sg46
g47
sg15
g72
sg22
F284.48557524237549
sg64
g659
sg62
g74
sg49
g50
sS'trials.thisN'
p781
I63
sg19
I0
sg27
g36
(g38
S'\x00\x00\x00\x00\x00\x00\x18@'
tRp782
sg52
g53
sg23
S'1'
sg18
F283.54278331960086
sg33
g34
sg51
g11
sg20
S'1'
sg65
g36
(g77
S'\x00\x00\x00\x00\x00\x00\x00\x00'
tRp783
sg44
g45
sg40
g41
sg25
F0.1706084213219583
sS'trials.thisIndex'
p784
g36
(g80
S'%\x00\x00\x00'
tRp785
sg26
V5
sS'trials.thisRepN'
p786
I0
sg66
Vhammer
p787
sg63
V../experiment_stimuli/bw_bc_bl/Nonliving_Things/Tools/hammer_13.jpg
p788
sg21
F0.92223200277658179
sS'trials.thisTrialN'
p789
I63
sa(dp790
g31
g32
sg17
F286.39379536453635
sg24
I0
sg35
g39
sg14
F286.38905910943868
sg16
g36
(g70
S'\x02\x00\x00\x00'
tRp791
sg42
g43
sg46
g47
sg15
g72
sg22
F288.414115874446
sg64
g339
sg62
g74
sg49
g50
sS'trials.thisN'
p792
I64
sg19
I1
sg27
g36
(g38
S'\x00\x00\x00\x00\x00\x00\x18@'
tRp793
sg52
g53
sg23
S'3'
sg18
F287.70181541761849
sg33
g34
sg51
g11
sg20
S'2'
sg65
g36
(g77
S'\x00\x00\x00\x00\x00\x00\x00\x00'
tRp794
sg44
g45
sg40
g41
sg25
F0.1806334019638598
sS'trials.thisIndex'
p795
g36
(g80
S')\x00\x00\x00'
tRp796
sg26
V5
sS'trials.thisRepN'
p797
I0
sg66
Vhouse
p798
sg63
V../experiment_stimuli/bw_bc_bl/Nonliving_Things/Buildings/house_6.jpg
p799
sg21
F0.69173376244725659
sS'trials.thisTrialN'
p800
I64
sa(dp801
g31
g32
sg17
F290.33235610515112
sg24
I1
sg35
g39
sg14
F290.32761910179397
sg16
g36
(g70
S'\x02\x00\x00\x00'
tRp802
sg42
g43
sg46
g47
sg15
g88
sg22
F292.64329669321887
sg64
g182
sg62
g112
sg49
g50
sS'trials.thisN'
p803
I65
sg19
I1
sg27
g36
(g38
S'\x00\x00\x00\x00\x00\x00\x1e@'
tRp804
sg52
g53
sg23
S'1'
sg18
F291.61031641939189
sg33
g34
sg51
g11
sg20
S'2'
sg65
g36
(g77
S'\x00\x00\x00\x00\x00\x00\x00\x00'
tRp805
sg44
g45
sg40
g41
sg25
F0.17058100417489186
sS'trials.thisIndex'
p806
g36
(g80
S'D\x00\x00\x00'
tRp807
sg26
V5
sS'trials.thisRepN'
p808
I0
sg66
Vrhino
p809
sg63
V../experiment_stimuli/bw_bc_bl/Living_Things/Animals/rhino_17.jpg
p810
sg21
F1.0024069823557511
sS'trials.thisTrialN'
p811
I65
sa(dp812
g31
g32
sg17
F294.55265184456948
sg24
I0
sg35
g39
sg14
F294.54679266177118
sg16
g36
(g70
S'\x02\x00\x00\x00'
tRp813
sg42
g43
sg46
g47
sg15
g88
sg22
F297.0328554410371
sg64
g170
sg62
g112
sg49
g50
sS'trials.thisN'
p814
I66
sg19
I1
sg27
g36
(g38
S'\x00\x00\x00\x00\x00\x00\x1a@'
tRp815
sg52
g53
sg23
S'3'
sg18
F295.8695793375955
sg33
g34
sg51
g11
sg20
S'2'
sg65
g36
(g77
S'\x00\x00\x00\x00\x00\x00\x00\x00'
tRp816
sg44
g45
sg40
g41
sg25
F0.40109110897174105
sS'trials.thisIndex'
p817
g36
(g80
S'\x1a\x00\x00\x00'
tRp818
sg26
V5
sS'trials.thisRepN'
p819
I0
sg66
Vduck
p820
sg63
V../experiment_stimuli/bw_bc_bl/Living_Things/Birds/duck_1.jpg
p821
sg21
F1.1427393445628695
sS'trials.thisTrialN'
p822
I66
sa(dp823
g31
g32
sg17
F299.17175252665766
sg24
I1
sg35
g39
sg14
F299.16685129253892
sg16
g36
(g70
S'\x02\x00\x00\x00'
tRp824
sg42
g43
sg46
g47
sg15
g88
sg22
F302.76532785821473
sg64
g111
sg62
g112
sg49
g50
sS'trials.thisN'
p825
I67
sg19
I0
sg27
g36
(g38
S'\x00\x00\x00\x00\x00\x00\x1e@'
tRp826
sg52
g53
sg23
S'1'
sg18
F300.46957378200023
sg33
g34
sg51
g11
sg20
S'1'
sg65
g36
(g77
S'\x00\x00\x00\x00\x00\x00\x00\x00'
tRp827
sg44
g45
sg40
g41
sg25
F0.36100728850578889
sS'trials.thisIndex'
p828
g36
(g80
S'1\x00\x00\x00'
tRp829
sg26
V5
sS'trials.thisRepN'
p830
I0
sg66
Vlobster
p831
sg63
V../experiment_stimuli/bw_bc_bl/Living_Things/Marine_creatures/lobster_15.jpg
p832
sg21
F2.2751902689924464
sS'trials.thisTrialN'
p833
I67
sa(dp834
g31
g32
sg17
F304.86537807551213
sg24
I0
sg35
g39
sg14
F304.85920958133647
sg16
g36
(g70
S'\x01\x00\x00\x00'
tRp835
sg42
g43
sg46
g47
sg15
g72
sg22
F308.34746353403898
sg64
g170
sg62
g112
sg49
g50
sS'trials.thisN'
p836
I68
sg19
I1
sg27
g36
(g38
S'\x00\x00\x00\x00\x00\x00\x18@'
tRp837
sg52
g53
sg23
S'2'
sg18
F306.19201288057957
sg33
g34
sg51
g11
sg20
S'1'
sg65
g36
(g77
S'\x00\x00\x00\x00\x00\x00\x00\x00'
tRp838
sg44
g45
sg40
g41
sg25
F0.84206004958832636
sS'trials.thisIndex'
p839
g36
(g80
S'O\x00\x00\x00'
tRp840
sg26
V5
sS'trials.thisRepN'
p841
I0
sg66
Vsparrow
p842
sg63
V../experiment_stimuli/bw_bc_bl/Living_Things/Birds/sparrow_3.jpg
p843
sg21
F2.1348878988646902
sS'trials.thisTrialN'
p844
I68
sa(dp845
g31
g32
sg17
F310.92720342997927
sg24
I0
sg35
g39
sg14
F310.92239589372184
sg16
g36
(g70
S'\x02\x00\x00\x00'
tRp846
sg42
g43
sg46
g47
sg15
g72
sg22
F316.1444435872836
sg64
g250
sg62
g74
sg49
g50
sS'trials.thisN'
p847
I69
sg19
I1
sg27
g36
(g38
S'\x00\x00\x00\x00\x00\x00\x18@'
tRp848
sg52
g53
sg23
S'3'
sg18
F312.24517091200687
sg33
g34
sg51
g11
sg20
S'2'
sg65
g36
(g77
S'\x00\x00\x00\x00\x00\x00\x00\x00'
tRp849
sg44
g45
sg40
g41
sg25
F0.42113861133111641
sS'trials.thisIndex'
p850
g36
(g80
S'V\x00\x00\x00'
tRp851
sg26
V5
sS'trials.thisRepN'
p852
I0
sg66
Vtractor
p853
sg63
V../experiment_stimuli/bw_bc_bl/Nonliving_Things/Vehicles/tractor_13.jpg
p854
sg21
F3.8786630832473747
sS'trials.thisTrialN'
p855
I69
sa(dp856
g31
g32
sg17
F318.30326341761975
sg24
I1
sg35
g39
sg14
F318.29843043064466
sg16
g36
(g70
S'\x02\x00\x00\x00'
tRp857
sg42
g43
sg46
g47
sg15
g88
sg22
F320.62413791997824
sg64
g182
sg62
g112
sg49
g50
sS'trials.thisN'
p858
I70
sg19
I0
sg27
g36
(g38
S'\x00\x00\x00\x00\x00\x00\x18@'
tRp859
sg52
g53
sg23
S'1'
sg18
F319.59114198869793
sg33
g34
sg51
g11
sg20
S'1'
sg65
g36
(g77
S'\x00\x00\x00\x00\x00\x00\x00\x00'
tRp860
sg44
g45
sg40
g41
sg25
F0.16056983929593116
sS'trials.thisIndex'
p861
g36
(g80
S'2\x00\x00\x00'
tRp862
sg26
V5
sS'trials.thisRepN'
p863
I0
sg66
Vlynx
p864
sg63
V../experiment_stimuli/bw_bc_bl/Living_Things/Animals/lynx_25.jpg
p865
sg21
F1.0124231546651572
sS'trials.thisTrialN'
p866
I70
sa(dp867
g31
g32
sg17
F322.52245982689783
sg24
I1
sg35
g39
sg14
F322.5176029043505
sg16
g36
(g70
S'\x02\x00\x00\x00'
tRp868
sg42
g43
sg46
g47
sg15
g88
sg22
F325.98576868610689
sg64
g227
sg62
g112
sg49
g50
sS'trials.thisN'
p869
I71
sg19
I1
sg27
g36
(g38
S'\x00\x00\x00\x00\x00\x00\x18@'
tRp870
sg52
g53
sg23
S'1'
sg18
F323.82034758903319
sg33
g34
sg51
g11
sg20
S'2'
sg65
g36
(g77
S'\x00\x00\x00\x00\x00\x00\x00\x00'
tRp871
sg44
g45
sg40
g41
sg25
F0.18061865027993917
sS'trials.thisIndex'
p872
g36
(g80
S'-\x00\x00\x00'
tRp873
sg26
V5
sS'trials.thisRepN'
p874
I0
sg66
Vladybird
p875
sg63
V../experiment_stimuli/bw_bc_bl/Living_Things/Insects/ladybird_19.jpg
p876
sg21
F2.1448933946667239
sS'trials.thisTrialN'
p877
I71
sa(dp878
g31
g32
sg17
F327.90563822037075
sg24
I1
sg35
g39
sg14
F327.89929954067338
sg16
g36
(g70
S'\x01\x00\x00\x00'
tRp879
sg42
g43
sg46
g47
sg15
g88
sg22
F330.19493081409018
sg64
g124
sg62
g74
sg49
g50
sS'trials.thisN'
p880
I72
sg19
I0
sg27
g36
(g38
S'\x00\x00\x00\x00\x00\x00\x18@'
tRp881
sg52
g53
sg23
S'1'
sg18
F329.23210638517048
sg33
g34
sg51
g11
sg20
S'2'
sg65
g36
(g77
S'\x00\x00\x00\x00\x00\x00\x00\x00'
tRp882
sg44
g45
sg40
g41
sg25
F0.15055443783057854
sS'trials.thisIndex'
p883
g36
(g80
S'X\x00\x00\x00'
tRp884
sg26
V5
sS'trials.thisRepN'
p885
I0
sg66
Vtrumpet
p886
sg63
V../experiment_stimuli/bw_bc_bl/Nonliving_Things/Musical_Inst/trumpet_13.jpg
p887
sg21
F0.94227291870629415
sS'trials.thisTrialN'
p888
I72
sa(dp889
g31
g32
sg17
F332.08325911982683
sg24
I0
sg35
g39
sg14
F332.07838870119303
sg16
g36
(g70
S'\x01\x00\x00\x00'
tRp890
sg42
g43
sg46
g47
sg15
g88
sg22
F334.75484874221729
sg64
g73
sg62
g74
sg49
g50
sS'trials.thisN'
p891
I73
sg19
I1
sg27
g36
(g38
S'\x00\x00\x00\x00\x00\x00\x1a@'
tRp892
sg52
g53
sg23
S'3'
sg18
F333.4412644233671
sg33
g34
sg51
g11
sg20
S'1'
sg65
g36
(g77
S'\x00\x00\x00\x00\x00\x00\x00\x00'
tRp893
sg44
g45
sg40
g41
sg25
F0.31089845363749191
sS'trials.thisIndex'
p894
g36
(g80
S'E\x00\x00\x00'
tRp895
sg26
V5
sS'trials.thisRepN'
p896
I0
sg66
Vrocking-chair
p897
sg63
V../experiment_stimuli/bw_bc_bl/Nonliving_Things/Furniture/rocking-chair_22.jpg
p898
sg21
F1.2930387563537806
sS'trials.thisTrialN'
p899
I73
sa(dp900
g31
g32
sg17
F336.80485171749024
sg24
I0
sg35
g39
sg14
F336.79864482179983
sg16
g36
(g70
S'\x02\x00\x00\x00'
tRp901
sg42
g43
sg46
g47
sg15
g88
sg22
F339.59541218890809
sg64
g170
sg62
g112
sg49
g50
sS'trials.thisN'
p902
I74
sg19
I1
sg27
g36
(g38
S'\x00\x00\x00\x00\x00\x00\x1a@'
tRp903
sg52
g53
sg23
S'3'
sg18
F338.13144865131471
sg33
g34
sg51
g11
sg20
S'2'
sg65
g36
(g77
S'\x00\x00\x00\x00\x00\x00\x00\x00'
tRp904
sg44
g45
sg40
g41
sg25
F1.9845587922027335
sS'trials.thisIndex'
p905
g36
(g80
S',\x00\x00\x00'
tRp906
sg26
V5
sS'trials.thisRepN'
p907
I0
sg66
Vkiwi
p908
sg63
V../experiment_stimuli/bw_bc_bl/Living_Things/Birds/kiwi_7.jpg
p909
sg21
F1.4433693703031167
sS'trials.thisTrialN'
p910
I74
sa(dp911
g31
g32
sg17
F343.3190793300746
sg24
I0
sg35
g39
sg14
F343.31280690862332
sg16
g36
(g70
S'\x01\x00\x00\x00'
tRp912
sg42
g43
sg46
g47
sg15
g72
sg22
F345.64835602033418
sg64
g182
sg62
g112
sg49
g50
sS'trials.thisN'
p913
I75
sg19
I1
sg27
g36
(g38
S'\x00\x00\x00\x00\x00\x00\x18@'
tRp914
sg52
g53
sg23
S'3'
sg18
F344.62556440866319
sg33
g34
sg51
g11
sg20
S'1'
sg65
g36
(g77
S'\x00\x00\x00\x00\x00\x00\x00\x00'
tRp915
sg44
g45
sg40
g41
sg25
F0.36109512182883918
sS'trials.thisIndex'
p916
g36
(g80
S'\x10\x00\x00\x00'
tRp917
sg26
V5
sS'trials.thisRepN'
p918
I0
sg66
Vcheetah
p919
sg63
V../experiment_stimuli/bw_bc_bl/Living_Things/Animals/cheetah_14.jpg
p920
sg21
F1.0022527590044774
sS'trials.thisTrialN'
p921
I75
sa(dp922
g31
g32
sg17
F347.74724155111471
sg24
I0
sg35
g39
sg14
F347.74244028911926
sg16
g36
(g70
S'\x01\x00\x00\x00'
tRp923
sg42
g43
sg46
g47
sg15
g72
sg22
F349.95791498117615
sg64
g170
sg62
g112
sg49
g50
sS'trials.thisN'
p924
I76
sg19
I1
sg27
g36
(g38
S'\x00\x00\x00\x00\x00\x00\x18@'
tRp925
sg52
g53
sg23
S'3'
sg18
F349.03515531320591
sg33
g34
sg51
g11
sg20
S'1'
sg65
g36
(g77
S'\x00\x00\x00\x00\x00\x00\x00\x00'
tRp926
sg44
g45
sg40
g41
sg25
F0.26081109582446516
sS'trials.thisIndex'
p927
g36
(g80
S'9\x00\x00\x00'
tRp928
sg26
V5
sS'trials.thisRepN'
p929
I0
sg66
Vowl
p930
sg63
V../experiment_stimuli/bw_bc_bl/Living_Things/Birds/owl_4.jpg
p931
sg21
F0.90218914300203323
sS'trials.thisTrialN'
p932
I76
sa(dp933
g31
g32
sg17
F351.95781789947068
sg24
I1
sg35
g39
sg14
F351.95158312807325
sg16
g36
(g70
S'\x02\x00\x00\x00'
tRp934
sg42
g43
sg46
g47
sg15
g72
sg22
F354.21715127566131
sg64
g73
sg62
g74
sg49
g50
sS'trials.thisN'
p935
I77
sg19
I1
sg27
g36
(g38
S'\x00\x00\x00\x00\x00\x00\x18@'
tRp936
sg52
g53
sg23
S'1'
sg18
F353.22426443517907
sg33
g34
sg51
g11
sg20
S'2'
sg65
g36
(g77
S'\x00\x00\x00\x00\x00\x00\x00\x00'
tRp937
sg44
g45
sg40
g41
sg25
F0.36100468703079969
sS'trials.thisIndex'
p938
g36
(g80
S']\x00\x00\x00'
tRp939
sg26
V5
sS'trials.thisRepN'
p940
I0
sg66
Vwardrobe
p941
sg63
V../experiment_stimuli/bw_bc_bl/Nonliving_Things/Furniture/wardrobe_8.jpg
p942
sg21
F0.97234480746556073
sS'trials.thisTrialN'
p943
I77
sa(dp944
g31
g32
sg17
F356.31585825659567
sg24
I1
sg35
g39
sg14
F356.31106939679012
sg16
g36
(g70
S'\x02\x00\x00\x00'
tRp945
sg42
g43
sg46
g47
sg15
g88
sg22
F361.09211363532813
sg64
g170
sg62
g112
sg49
g50
sS'trials.thisN'
p946
I78
sg19
I0
sg27
g36
(g38
S'\x00\x00\x00\x00\x00\x00 @'
tRp947
sg52
g53
sg23
S'1'
sg18
F357.59375565085793
sg33
g34
sg51
g11
sg20
S'1'
sg65
g36
(g77
S'\x00\x00\x00\x00\x00\x00\x00\x00'
tRp948
sg44
g45
sg40
g41
sg25
F0.20065787067869678
sS'trials.thisIndex'
p949
g36
(g80
S'8\x00\x00\x00'
tRp950
sg26
V5
sS'trials.thisRepN'
p951
I0
sg66
Vostrich
p952
sg63
V../experiment_stimuli/bw_bc_bl/Living_Things/Birds/ostrich_26.jpg
p953
sg21
F3.4777968393173069
sS'trials.thisTrialN'
p954
I78
sa(dp955
g31
g32
sg17
F363.03045023238519
sg24
I0
sg35
g39
sg14
F363.02569176309044
sg16
g36
(g70
S'\x01\x00\x00\x00'
tRp956
sg42
g43
sg46
g47
sg15
g72
sg22
F366.95485426596133
sg64
g170
sg62
g112
sg49
g50
sS'trials.thisN'
p957
I79
sg19
I1
sg27
g36
(g38
S'\x00\x00\x00\x00\x00\x00\x1a@'
tRp958
sg52
g53
sg23
S'2'
sg18
F364.30835282203043
sg33
g34
sg51
g11
sg20
S'1'
sg65
g36
(g77
S'\x00\x00\x00\x00\x00\x00\x00\x00'
tRp959
sg44
g45
sg40
g41
sg25
F0.70174627681262791
sS'trials.thisIndex'
p960
g36
(g80
S'C\x00\x00\x00'
tRp961
sg26
V5
sS'trials.thisRepN'
p962
I0
sg66
Vraven
p963
sg63
V../experiment_stimuli/bw_bc_bl/Living_Things/Birds/raven_4.jpg
p964
sg21
F2.6259471217636019
sS'trials.thisTrialN'
p965
I79
sa(dp966
g31
g32
sg17
F369.39430406974861
sg24
I0
sg35
g39
sg14
F369.38949382683495
sg16
g36
(g70
S'\x01\x00\x00\x00'
tRp967
sg42
g43
sg46
g47
sg15
g72
sg22
F371.44445868983166
sg64
g170
sg62
g112
sg49
g50
sS'trials.thisN'
p968
I80
sg19
I1
sg27
g36
(g38
S'\x00\x00\x00\x00\x00\x00 @'
tRp969
sg52
g53
sg23
S'2'
sg18
F370.66217099112691
sg33
g34
sg51
g11
sg20
S'1'
sg65
g36
(g77
S'\x00\x00\x00\x00\x00\x00\x00\x00'
tRp970
sg44
g45
sg40
g41
sg25
F0.22071568510727957
sS'trials.thisIndex'
p971
g36
(g80
S'F\x00\x00\x00'
tRp972
sg26
V5
sS'trials.thisRepN'
p973
I0
sg66
Vrooster
p974
sg63
V../experiment_stimuli/bw_bc_bl/Living_Things/Birds/rooster_23.jpg
p975
sg21
F0.76172284287167713
sS'trials.thisTrialN'
p976
I80
sa(dp977
g31
g32
sg17
F373.40292969020084
sg24
I1
sg35
g39
sg14
F373.39821371302241
sg16
g36
(g70
S'\x02\x00\x00\x00'
tRp978
sg42
g43
sg46
g47
sg15
g88
sg22
F375.31301241804613
sg64
g111
sg62
g112
sg49
g50
sS'trials.thisN'
p979
I81
sg19
I1
sg27
g36
(g38
S'\x00\x00\x00\x00\x00\x00\x1e@'
tRp980
sg52
g53
sg23
S'1'
sg18
F374.66085988172563
sg33
g34
sg51
g11
sg20
S'2'
sg65
g36
(g77
S'\x00\x00\x00\x00\x00\x00\x00\x00'
tRp981
sg44
g45
sg40
g41
sg25
F0.18061312369536608
sS'trials.thisIndex'
p982
g36
(g80
S'4\x00\x00\x00'
tRp983
sg26
V5
sS'trials.thisRepN'
p984
I0
sg66
Vmanatee
p985
sg63
V../experiment_stimuli/bw_bc_bl/Living_Things/Marine_creatures/manatee_1.jpg
p986
sg21
F0.6315969581482932
sS'trials.thisTrialN'
p987
I81
sa(dp988
g31
g32
sg17
F377.23142495454522
sg24
I1
sg35
g39
sg14
F377.22653447213816
sg16
g36
(g70
S'\x01\x00\x00\x00'
tRp989
sg42
g43
sg46
g47
sg15
g72
sg22
F379.62236522394232
sg64
g182
sg62
g112
sg49
g50
sS'trials.thisN'
p990
I82
sg19
I1
sg27
g36
(g38
S'\x00\x00\x00\x00\x00\x00\x18@'
tRp991
sg52
g53
sg23
S'1'
sg18
F378.51924941322068
sg33
g34
sg51
g11
sg20
S'1'
sg65
g36
(g77
S'\x00\x00\x00\x00\x00\x00\x00\x00'
tRp992
sg44
g45
sg40
g41
sg25
F0.17059103806968778
sS'trials.thisIndex'
p993
g36
(g80
S'T\x00\x00\x00'
tRp994
sg26
V5
sS'trials.thisRepN'
p995
I0
sg66
Vtiger
p996
sg63
V../experiment_stimuli/bw_bc_bl/Living_Things/Animals/tiger_25.jpg
p997
sg21
F1.0825863303034566
sS'trials.thisTrialN'
p998
I82
sa(dp999
g31
g32
sg17
F381.53063633065904
sg24
I0
sg35
g39
sg14
F381.52588276361348
sg16
g36
(g70
S'\x01\x00\x00\x00'
tRp1000
sg42
g43
sg46
g47
sg15
g72
sg22
F383.64111941755982
sg64
g111
sg62
g112
sg49
g50
sS'trials.thisN'
p1001
I83
sg19
I1
sg27
g36
(g38
S'\x00\x00\x00\x00\x00\x00\x18@'
tRp1002
sg52
g53
sg23
S'3'
sg18
F382.82861733954633
sg33
g34
sg51
g11
sg20
S'1'
sg65
g36
(g77
S'\x00\x00\x00\x00\x00\x00\x00\x00'
tRp1003
sg44
g45
sg40
g41
sg25
F0.5414141824003309
sS'trials.thisIndex'
p1004
g36
(g80
S'\x17\x00\x00\x00'
tRp1005
sg26
V5
sS'trials.thisRepN'
p1006
I0
sg66
Vdolphin
p1007
sg63
V../experiment_stimuli/bw_bc_bl/Living_Things/Marine_creatures/dolphin_13.jpg
p1008
sg21
F0.79195571062155068
sS'trials.thisTrialN'
p1009
I83
sa(dp1010
g31
g32
sg17
F385.92167314357357
sg24
I1
sg35
g39
sg14
F385.91542971815215
sg16
g36
(g70
S'\x01\x00\x00\x00'
tRp1011
sg42
g43
sg46
g47
sg15
g88
sg22
F388.39145296812057
sg64
g73
sg62
g74
sg49
g50
sS'trials.thisN'
p1012
I84
sg19
I0
sg27
g36
(g38
S'\x00\x00\x00\x00\x00\x00\x1a@'
tRp1013
sg52
g53
sg23
S'1'
sg18
F387.20813724974869
sg33
g34
sg51
g11
sg20
S'2'
sg65
g36
(g77
S'\x00\x00\x00\x00\x00\x00\x00\x00'
tRp1014
sg44
g45
sg40
g41
sg25
F0.28086178214289248
sS'trials.thisIndex'
p1015
g36
(g80
S'\x05\x00\x00\x00'
tRp1016
sg26
V5
sS'trials.thisRepN'
p1017
I0
sg66
Vbed
p1018
sg63
V../experiment_stimuli/bw_bc_bl/Nonliving_Things/Furniture/bed_6.jpg
p1019
sg21
F1.1627541445777752
sS'trials.thisTrialN'
p1020
I84
sa(dp1021
g31
g32
sg17
F390.40995718789054
sg24
I0
sg35
g39
sg14
F390.40517692553112
sg16
g36
(g70
S'\x02\x00\x00\x00'
tRp1022
sg42
g43
sg46
g47
sg15
g88
sg22
F393.11175014823675
sg64
g111
sg62
g112
sg49
g50
sS'trials.thisN'
p1023
I85
sg19
I1
sg27
g36
(g38
S'\x00\x00\x00\x00\x00\x00\x18@'
tRp1024
sg52
g53
sg23
S'3'
sg18
F391.70792971173069
sg33
g34
sg51
g11
sg20
S'2'
sg65
g36
(g77
S'\x00\x00\x00\x00\x00\x00\x00\x00'
tRp1025
sg44
g45
sg40
g41
sg25
F0.35098271025344729
sS'trials.thisIndex'
p1026
g36
(g80
S'^\x00\x00\x00'
tRp1027
sg26
V5
sS'trials.thisRepN'
p1028
I0
sg66
Vwhale
p1029
sg63
V../experiment_stimuli/bw_bc_bl/Living_Things/Marine_creatures/whale_1.jpg
p1030
sg21
F1.3832592648104765
sS'trials.thisTrialN'
p1031
I85
sa(dp1032
g31
g32
sg17
F395.20196865673643
sg24
I1
sg35
g39
sg14
F395.19559718802338
sg16
g36
(g70
S'\x02\x00\x00\x00'
tRp1033
sg42
g43
sg46
g47
sg15
g88
sg22
F397.75182994338684
sg64
g227
sg62
g112
sg49
g50
sS'trials.thisN'
p1034
I86
sg19
I0
sg27
g36
(g38
S'\x00\x00\x00\x00\x00\x00\x1e@'
tRp1035
sg52
g53
sg23
S'1'
sg18
F396.46826699905796
sg33
g34
sg51
g11
sg20
S'1'
sg65
g36
(g77
S'\x00\x00\x00\x00\x00\x00\x00\x00'
tRp1036
sg44
g45
sg40
g41
sg25
F0.21070982835954055
sS'trials.thisIndex'
p1037
g36
(g80
S'\n\x00\x00\x00'
tRp1038
sg26
V5
sS'trials.thisRepN'
p1039
I0
sg66
Vbutterfly
p1040
sg63
V../experiment_stimuli/bw_bc_bl/Living_Things/Insects/butterfly_25.jpg
p1041
sg21
F1.2629745549638756
sS'trials.thisTrialN'
p1042
I86
sa(dp1043
g31
g32
sg17
F399.70017792331055
sg24
I1
sg35
g39
sg14
F399.69537072186358
sg16
g36
(g70
S'\x01\x00\x00\x00'
tRp1044
sg42
g43
sg46
g47
sg15
g72
sg22
F402.34176838892745
sg64
g170
sg62
g112
sg49
g50
sS'trials.thisN'
p1045
I87
sg19
I0
sg27
g36
(g38
S'\x00\x00\x00\x00\x00\x00\x18@'
tRp1046
sg52
g53
sg23
S'1'
sg18
F400.97808207687922
sg33
g34
sg51
g11
sg20
S'2'
sg65
g36
(g77
S'\x00\x00\x00\x00\x00\x00\x00\x00'
tRp1047
sg44
g45
sg40
g41
sg25
F0.15068187203723937
sS'trials.thisIndex'
p1048
g36
(g80
S'3\x00\x00\x00'
tRp1049
sg26
V5
sS'trials.thisRepN'
p1050
I0
sg66
Vmagpie
p1051
sg63
V../experiment_stimuli/bw_bc_bl/Living_Things/Birds/magpie_9.jpg
p1052
sg21
F1.3431424745358527
sS'trials.thisTrialN'
p1053
I87
sa(dp1054
g31
g32
sg17
F404.22996621171478
sg24
I1
sg35
g39
sg14
F404.22522607306018
sg16
g36
(g70
S'\x01\x00\x00\x00'
tRp1055
sg42
g43
sg46
g47
sg15
g72
sg22
F406.80147353064967
sg64
g111
sg62
g112
sg49
g50
sS'trials.thisN'
p1056
I88
sg19
I1
sg27
g36
(g38
S'\x00\x00\x00\x00\x00\x00\x1a@'
tRp1057
sg52
g53
sg23
S'1'
sg18
F405.55802739132196
sg33
g34
sg51
g11
sg20
S'1'
sg65
g36
(g77
S'\x00\x00\x00\x00\x00\x00\x00\x00'
tRp1058
sg44
g45
sg40
g41
sg25
F0.88214363344013691
sS'trials.thisIndex'
p1059
g36
(g80
S'P\x00\x00\x00'
tRp1060
sg26
V5
sS'trials.thisRepN'
p1061
I0
sg66
Vsperm-whale
p1062
sg63
V../experiment_stimuli/bw_bc_bl/Living_Things/Marine_creatures/sperm-whale_9.jpg
p1063
sg21
F1.2228848437662236
sS'trials.thisTrialN'
p1064
I88
sa(dp1065
g31
g32
sg17
F409.43129241256975
sg24
I0
sg35
g39
sg14
F409.42653686058475
sg16
g36
(g70
S'\x02\x00\x00\x00'
tRp1066
sg42
g43
sg46
g47
sg15
g88
sg22
F411.76228925865144
sg64
g182
sg62
g112
sg49
g50
sS'trials.thisN'
p1067
I89
sg19
I1
sg27
g36
(g38
S'\x00\x00\x00\x00\x00\x00\x18@'
tRp1068
sg52
g53
sg23
S'2'
sg18
F410.75933846813859
sg33
g34
sg51
g11
sg20
S'2'
sg65
g36
(g77
S'\x00\x00\x00\x00\x00\x00\x00\x00'
tRp1069
sg44
g45
sg40
g41
sg25
F0.3109177237492986
sS'trials.thisIndex'
p1070
g36
(g80
S'0\x00\x00\x00'
tRp1071
sg26
V5
sS'trials.thisRepN'
p1072
I0
sg66
Vlioness
p1073
sg63
V../experiment_stimuli/bw_bc_bl/Living_Things/Animals/lioness_14.jpg
p1074
sg21
F0.98237936332589015
sS'trials.thisTrialN'
p1075
I89
sa(dp1076
g31
g32
sg17
F413.82091152004432
sg24
I1
sg35
g39
sg14
F413.81607827742118
sg16
g36
(g70
S'\x02\x00\x00\x00'
tRp1077
sg42
g43
sg46
g47
sg15
g72
sg22
F416.11171385913622
sg64
g250
sg62
g74
sg49
g50
sS'trials.thisN'
p1078
I90
sg19
I1
sg27
g36
(g38
S'\x00\x00\x00\x00\x00\x00\x1a@'
tRp1079
sg52
g53
sg23
S'1'
sg18
F415.13885535584996
sg33
g34
sg51
g11
sg20
S'2'
sg65
g36
(g77
S'\x00\x00\x00\x00\x00\x00\x00\x00'
tRp1080
sg44
g45
sg40
g41
sg25
F0.20065588923171163
sS'trials.thisIndex'
p1081
g36
(g80
S'L\x00\x00\x00'
tRp1082
sg26
V5
sS'trials.thisRepN'
p1083
I0
sg66
Vship
p1084
sg63
V../experiment_stimuli/bw_bc_bl/Nonliving_Things/Vehicles/ship_8.jpg
p1085
sg21
F0.95230070746038109
sS'trials.thisTrialN'
p1086
I90
sa(dp1087
g31
g32
sg17
F418.05115415103501
sg24
I0
sg35
g39
sg14
F418.04527155862888
sg16
g36
(g70
S'\x02\x00\x00\x00'
tRp1088
sg42
g43
sg46
g47
sg15
g72
sg22
F421.05230276403017
sg64
g339
sg62
g74
sg49
g50
sS'trials.thisN'
p1089
I91
sg19
I0
sg27
g36
(g38
S'\x00\x00\x00\x00\x00\x00\x18@'
tRp1090
sg52
g53
sg23
S'2'
sg18
F419.38809042907087
sg33
g34
sg51
g11
sg20
S'1'
sg65
g36
(g77
S'\x00\x00\x00\x00\x00\x00\x00\x00'
tRp1091
sg44
g45
sg40
g41
sg25
F0.68170436873333529
sS'trials.thisIndex'
p1092
g36
(g80
S'5\x00\x00\x00'
tRp1093
sg26
V5
sS'trials.thisRepN'
p1094
I0
sg66
Vmill
p1095
sg63
V../experiment_stimuli/bw_bc_bl/Nonliving_Things/Buildings/mill_5.jpg
p1096
sg21
F1.643640453054104
sS'trials.thisTrialN'
p1097
I91
sa(dp1098
g31
g32
sg17
F423.47181624826044
sg24
I1
sg35
g39
sg14
F423.46705574140651
sg16
g36
(g70
S'\x01\x00\x00\x00'
tRp1099
sg42
g43
sg46
g47
sg15
g88
sg22
F426.56444536312483
sg64
g339
sg62
g74
sg49
g50
sS'trials.thisN'
p1100
I92
sg19
I0
sg27
g36
(g38
S'\x00\x00\x00\x00\x00\x00\x1a@'
tRp1101
sg52
g53
sg23
S'1'
sg18
F424.80987929570256
sg33
g34
sg51
g11
sg20
S'2'
sg65
g36
(g77
S'\x00\x00\x00\x00\x00\x00\x00\x00'
tRp1102
sg44
g45
sg40
g41
sg25
F0.65166381397284567
sS'trials.thisIndex'
p1103
g36
(g80
S'\x1c\x00\x00\x00'
tRp1104
sg26
V5
sS'trials.thisRepN'
p1105
I0
sg66
Vfactory
p1106
sg63
V../experiment_stimuli/bw_bc_bl/Nonliving_Things/Buildings/factory_11.jpg
p1107
sg21
F1.7340008356841281
sS'trials.thisTrialN'
p1108
I92
sa(dp1109
g31
g32
sg17
F428.95385458675446
sg24
I0
sg35
g39
sg14
F428.94897208170732
sg16
g36
(g70
S'\x02\x00\x00\x00'
tRp1110
sg42
g43
sg46
g47
sg15
g88
sg22
F431.26464879343985
sg64
g182
sg62
g112
sg49
g50
sS'trials.thisN'
p1111
I93
sg19
I1
sg27
g36
(g38
S'\x00\x00\x00\x00\x00\x00\x18@'
tRp1112
sg52
g53
sg23
S'2'
sg18
F430.31183692789637
sg33
g34
sg51
g11
sg20
S'2'
sg65
g36
(g77
S'\x00\x00\x00\x00\x00\x00\x00\x00'
tRp1113
sg44
g45
sg40
g41
sg25
F0.18062384537188336
sS'trials.thisIndex'
p1114
g36
(g80
S'\r\x00\x00\x00'
tRp1115
sg26
V5
sS'trials.thisRepN'
p1116
I0
sg66
Vcat
p1117
sg63
V../experiment_stimuli/bw_bc_bl/Living_Things/Animals/cat_1.jpg
p1118
sg21
F0.93225399812217802
sS'trials.thisTrialN'
p1119
I93
sa(dp1120
g31
g32
sg17
F433.18296387663577
sg24
I0
sg35
g39
sg14
F433.17816576885525
sg16
g36
(g70
S'\x01\x00\x00\x00'
tRp1121
sg42
g43
sg46
g47
sg15
g88
sg22
F435.20321040623821
sg64
g250
sg62
g74
sg49
g50
sS'trials.thisN'
p1122
I94
sg19
I1
sg27
g36
(g38
S'\x00\x00\x00\x00\x00\x00\x1a@'
tRp1123
sg52
g53
sg23
S'3'
sg18
F434.54104096075753
sg33
g34
sg51
g11
sg20
S'1'
sg65
g36
(g77
S'\x00\x00\x00\x00\x00\x00\x00\x00'
tRp1124
sg44
g45
sg40
g41
sg25
F0.3108963745762594
sS'trials.thisIndex'
p1125
g36
(g80
S'\x0b\x00\x00\x00'
tRp1126
sg26
V5
sS'trials.thisRepN'
p1127
I0
sg66
Vcar
p1128
sg63
V../experiment_stimuli/bw_bc_bl/Nonliving_Things/Vehicles/car_19.jpg
p1129
sg21
F0.64161659305682406
sS'trials.thisTrialN'
p1130
I94
sa(dp1131
g31
g32
sg17
F437.25187277660007
sg24
I0
sg35
g39
sg14
F437.24701298156288
sg16
g36
(g70
S'\x01\x00\x00\x00'
tRp1132
sg42
g43
sg46
g47
sg15
g72
sg22
F440.59494360198732
sg64
g170
sg62
g112
sg49
g50
sS'trials.thisN'
p1133
I95
sg19
I1
sg27
g36
(g38
S'\x00\x00\x00\x00\x00\x00\x18@'
tRp1134
sg52
g53
sg23
S'3'
sg18
F438.56978996971156
sg33
g34
sg51
g11
sg20
S'1'
sg65
g36
(g77
S'\x00\x00\x00\x00\x00\x00\x00\x00'
tRp1135
sg44
g45
sg40
g41
sg25
F0.60153182124486193
sS'trials.thisIndex'
p1136
g36
(g80
S'"\x00\x00\x00'
tRp1137
sg26
V5
sS'trials.thisRepN'
p1138
I0
sg66
Vgoose
p1139
sg63
V../experiment_stimuli/bw_bc_bl/Living_Things/Birds/goose_11.jpg
p1140
sg21
F2.0045899152755737
sS'trials.thisTrialN'
p1141
I95
sasS'loops'
p1142
(lp1143
g1
(cpsychopy.data
TrialHandler
p1144
g3
NtRp1145
(dp1146
S'origin'
p1147
NsS'thisTrial'
p1148
(lp1149
sS'_exp'
p1150
I98337040
sg10
S'trials'
p1151
sg6
I-1
sS'thisRepN'
p1152
I1
sg28
I01
sg29
g30
sS'data'
p1153
g1
(cpsychopy.data
DataHandler
p1154
c__builtin__
dict
p1155
(dp1156
g20
cnumpy.core.multiarray
_reconstruct
p1157
(cnumpy
ndarray
p1158
(I0
tS'b'
tRp1159
(I1
(I96
I1
tg37
(S'O4'
I0
I1
tRp1160
(I3
S'|'
NNNI-1
I-1
I63
tbI00
(lp1161
S'1'
aS'1'
aS'2'
aS'1'
aS'1'
aS'2'
aS'1'
aS'2'
aS'2'
aS'1'
aS'1'
aS'1'
aS'2'
aS'2'
aS'1'
aS'2'
aS'1'
aS'1'
aS'1'
aS'2'
aS'1'
aS'2'
aS'2'
aS'1'
aS'2'
aS'2'
aS'2'
aS'2'
aS'2'
aS'1'
aS'1'
aS'2'
aS'2'
aS'2'
aS'1'
aS'1'
aS'2'
aS'1'
aS'2'
aS'2'
aS'1'
aS'2'
aS'1'
aS'1'
aS'2'
aS'2'
aS'1'
aS'2'
aS'2'
aS'1'
aS'1'
aS'2'
aS'2'
aS'1'
aS'2'
aS'1'
aS'1'
aS'1'
aS'1'
aS'2'
aS'1'
aS'2'
aS'1'
aS'1'
aS'2'
aS'2'
aS'2'
aS'1'
aS'2'
aS'1'
aS'1'
aS'2'
aS'2'
aS'1'
aS'1'
aS'2'
aS'2'
aS'1'
aS'2'
aS'1'
aS'1'
aS'1'
aS'1'
aS'1'
aS'1'
aS'1'
aS'2'
aS'1'
aS'2'
aS'2'
aS'1'
aS'1'
aS'1'
aS'2'
aS'2'
aS'1'
atbsg17
cnumpy.ma.core
_mareconstruct
p1162
(cnumpy.ma.core
MaskedArray
p1163
g1158
(I0
tp1164
S'b'
tRp1165
(I1
(I96
I1
tg37
(S'f4'
I0
I1
tRp1166
(I3
S'<'
NNNI-1
I-1
I0
tbI00
S'\xfd\x8c\x00C\x94\xca\xe0B\t\xf1\\C\x85\xbefCb\x8e\xd0B\xf9\xf5\xc0C\x12M\xf7@\xc1qPCE\xf17A\xd4yLC\xda\x99\xc5Ck\x97\xd8CR\xffBC\x18z\xd6CT\n\x0eC\xbe\x18\x88C\xd8\xa8\xabC\xbaY)C\xbf\x19\xbaA\xca\xd7\xbfB\xa4F!Bq\xfd$C\xd3M\xafB\xec\xc3\xbeC\xa7\xfa\x11C\xa2X\x9aA\xbdF\x93C\x06|\xa6Bd\xbc\xd3C\x9b)oC(\xe3\x85C\x83\xe3\xe8B\x9c\x05/C\xd3\x1b0B=\xa0\xdaCE\xcb=C\xef\x02\nC\x11\x1e\x8dC\xc4\xb7\x0fB\xddv\x9cB\xfe\x85XCh2\x8fC\x1d\x9aaCT\xcd|C\x05g\xa8C\xe0B\xa1C\xcdN\x94Bt$o@5\xb7\xccC\xfc\x95\x95C\xd1&\x9fC\x9f\xd9\xc7C\x93\xb3\xbaC\x8c\x06\xd1C\x13\xe7\x05C\xac\xc4\xf1Bn(\xb2C\xa6\xdf\xadC\r\x1f\xc8B\x14) C\x1e\x88\x83C\x0c\xe7\xb7B\xb2v@B\\g\x8aB\x92\x1a9CP\xc5qB\x84 \xdbA\xe6\x83\xb5C\x8b*\x91C\xa8\n\xa6Cy\xb2\xb8C\xd1\xe8\x16C\xfc\x84\x1bC\xf5~aB\xb3\x18HC\xe2\xe1tA\x14\xe9\xceC\xban\xf9A\xf4\x823C\xc5n\x98Cp\x1d\xcaC*\x9fPBD\x8a\x80C\xef\x85tC\x9f\x9d\xbcC\x86\xd5\xd8B\xafv\x9bC\xfd\x8b\x8aC\xec\xf3\xa3C\xa6S\xf9B`\xe2jC\xe4\xdc\x80B\x8a\xa2TC\x9a\xfa\xafCy4\xc3C\xbb\xc5xC'
S'\x00\x00\x00\x00\x00\x00\x00\x00\x00\x00\x00\x00\x00\x00\x00\x00\x00\x00\x00\x00\x00\x00\x00\x00\x00\x00\x00\x00\x00\x00\x00\x00\x00\x00\x00\x00\x00\x00\x00\x00\x00\x00\x00\x00\x00\x00\x00\x00\x00\x00\x00\x00\x00\x00\x00\x00\x00\x00\x00\x00\x00\x00\x00\x00\x00\x00\x00\x00\x00\x00\x00\x00\x00\x00\x00\x00\x00\x00\x00\x00\x00\x00\x00\x00\x00\x00\x00\x00\x00\x00\x00\x00\x00\x00\x00\x00'
NtbsS'ran'
p1167
g1162
(g1163
g1158
g1164
S'b'
tRp1168
(I1
(I96
I1
tg1166
I00
S'\x00\x00\x80?\x00\x00\x80?\x00\x00\x80?\x00\x00\x80?\x00\x00\x80?\x00\x00\x80?\x00\x00\x80?\x00\x00\x80?\x00\x00\x80?\x00\x00\x80?\x00\x00\x80?\x00\x00\x80?\x00\x00\x80?\x00\x00\x80?\x00\x00\x80?\x00\x00\x80?\x00\x00\x80?\x00\x00\x80?\x00\x00\x80?\x00\x00\x80?\x00\x00\x80?\x00\x00\x80?\x00\x00\x80?\x00\x00\x80?\x00\x00\x80?\x00\x00\x80?\x00\x00\x80?\x00\x00\x80?\x00\x00\x80?\x00\x00\x80?\x00\x00\x80?\x00\x00\x80?\x00\x00\x80?\x00\x00\x80?\x00\x00\x80?\x00\x00\x80?\x00\x00\x80?\x00\x00\x80?\x00\x00\x80?\x00\x00\x80?\x00\x00\x80?\x00\x00\x80?\x00\x00\x80?\x00\x00\x80?\x00\x00\x80?\x00\x00\x80?\x00\x00\x80?\x00\x00\x80?\x00\x00\x80?\x00\x00\x80?\x00\x00\x80?\x00\x00\x80?\x00\x00\x80?\x00\x00\x80?\x00\x00\x80?\x00\x00\x80?\x00\x00\x80?\x00\x00\x80?\x00\x00\x80?\x00\x00\x80?\x00\x00\x80?\x00\x00\x80?\x00\x00\x80?\x00\x00\x80?\x00\x00\x80?\x00\x00\x80?\x00\x00\x80?\x00\x00\x80?\x00\x00\x80?\x00\x00\x80?\x00\x00\x80?\x00\x00\x80?\x00\x00\x80?\x00\x00\x80?\x00\x00\x80?\x00\x00\x80?\x00\x00\x80?\x00\x00\x80?\x00\x00\x80?\x00\x00\x80?\x00\x00\x80?\x00\x00\x80?\x00\x00\x80?\x00\x00\x80?\x00\x00\x80?\x00\x00\x80?\x00\x00\x80?\x00\x00\x80?\x00\x00\x80?\x00\x00\x80?\x00\x00\x80?\x00\x00\x80?\x00\x00\x80?\x00\x00\x80?\x00\x00\x80?\x00\x00\x80?'
S'\x00\x00\x00\x00\x00\x00\x00\x00\x00\x00\x00\x00\x00\x00\x00\x00\x00\x00\x00\x00\x00\x00\x00\x00\x00\x00\x00\x00\x00\x00\x00\x00\x00\x00\x00\x00\x00\x00\x00\x00\x00\x00\x00\x00\x00\x00\x00\x00\x00\x00\x00\x00\x00\x00\x00\x00\x00\x00\x00\x00\x00\x00\x00\x00\x00\x00\x00\x00\x00\x00\x00\x00\x00\x00\x00\x00\x00\x00\x00\x00\x00\x00\x00\x00\x00\x00\x00\x00\x00\x00\x00\x00\x00\x00\x00\x00'
Ntbsg24
g1162
(g1163
g1158
g1164
S'b'
tRp1169
(I1
(I96
I1
tg1166
I00
S'\x00\x00\x80?\x00\x00\x00\x00\x00\x00\x80?\x00\x00\x00\x00\x00\x00\x00\x00\x00\x00\x80?\x00\x00\x80?\x00\x00\x00\x00\x00\x00\x80?\x00\x00\x00\x00\x00\x00\x80?\x00\x00\x00\x00\x00\x00\x80?\x00\x00\x00\x00\x00\x00\x80?\x00\x00\x80?\x00\x00\x00\x00\x00\x00\x80?\x00\x00\x00\x00\x00\x00\x80?\x00\x00\x80?\x00\x00\x00\x00\x00\x00\x80?\x00\x00\x00\x00\x00\x00\x00\x00\x00\x00\x00\x00\x00\x00\x00\x00\x00\x00\x00\x00\x00\x00\x80?\x00\x00\x80?\x00\x00\x00\x00\x00\x00\x00\x00\x00\x00\x80?\x00\x00\x00\x00\x00\x00\x00\x00\x00\x00\x00\x00\x00\x00\x80?\x00\x00\x80?\x00\x00\x00\x00\x00\x00\x00\x00\x00\x00\x80?\x00\x00\x00\x00\x00\x00\x80?\x00\x00\x80?\x00\x00\x00\x00\x00\x00\x80?\x00\x00\x00\x00\x00\x00\x00\x00\x00\x00\x00\x00\x00\x00\x80?\x00\x00\x80?\x00\x00\x80?\x00\x00\x80?\x00\x00\x00\x00\x00\x00\x00\x00\x00\x00\x00\x00\x00\x00\x80?\x00\x00\x00\x00\x00\x00\x80?\x00\x00\x80?\x00\x00\x80?\x00\x00\x00\x00\x00\x00\x80?\x00\x00\x80?\x00\x00\x80?\x00\x00\x80?\x00\x00\x80?\x00\x00\x00\x00\x00\x00\x80?\x00\x00\x00\x00\x00\x00\x00\x00\x00\x00\x00\x00\x00\x00\x80?\x00\x00\x00\x00\x00\x00\x80?\x00\x00\x00\x00\x00\x00\x80?\x00\x00\x00\x00\x00\x00\x00\x00\x00\x00\x00\x00\x00\x00\x80?\x00\x00\x00\x00\x00\x00\x80?\x00\x00\x00\x00\x00\x00\x80?\x00\x00\x00\x00\x00\x00\x00\x00\x00\x00\x00\x00\x00\x00\x80?\x00\x00\x00\x00\x00\x00\x00\x00\x00\x00\x00\x00\x00\x00\x00\x00\x00\x00\x80?\x00\x00\x00\x00\x00\x00\x00\x00'
S'\x00\x00\x00\x00\x00\x00\x00\x00\x00\x00\x00\x00\x00\x00\x00\x00\x00\x00\x00\x00\x00\x00\x00\x00\x00\x00\x00\x00\x00\x00\x00\x00\x00\x00\x00\x00\x00\x00\x00\x00\x00\x00\x00\x00\x00\x00\x00\x00\x00\x00\x00\x00\x00\x00\x00\x00\x00\x00\x00\x00\x00\x00\x00\x00\x00\x00\x00\x00\x00\x00\x00\x00\x00\x00\x00\x00\x00\x00\x00\x00\x00\x00\x00\x00\x00\x00\x00\x00\x00\x00\x00\x00\x00\x00\x00\x00'
Ntbsg14
g1162
(g1163
g1158
g1164
S'b'
tRp1170
(I1
(I96
I1
tg1166
I00
S"\xc2\x8b\x00C\x19\xc8\xe0B\xd0\xef\\C\xf3\xbcfC\xdb\x8b\xd0B-\xf5\xc0C0%\xf7@\x8apPC\x1a\xdd7A\x92xLC\t\x99\xc5C\xce\x96\xd8C\x89\xfdBCxy\xd6C\x06\t\x0eC\x17\x18\x88C\n\xa8\xabC9X)Cq\x0e\xbaAz\xd4\xbfB\xabA!B2\xfc$CFK\xafBP\xc3\xbeCL\xf9\x11C\xb1N\x9aA\xfdE\x93C\x91y\xa6B\xc8\xbb\xd3C\t(oCa\xe2\x85C\x14\xe1\xe8BW\x04/C\xb9\x160B\x9e\x9f\xdaC\x01\xca=C\xaa\x01\nCq\x1d\x8dC\xc8\xb2\x0fB\xfds\x9cBe\x84XC\xcd1\x8fC\xce\x98aC\xc9\xcb|C:f\xa8CAB\xa1C\x9cK\x94B\x9a\xbbm@\x99\xb6\xccC[\x95\x95C3&\x9fC\x02\xd9\xc7C\xf9\xb2\xbaC\xcb\x05\xd1C\xc6\xe5\x05C/\xc2\xf1B\xd1'\xb2C\x08\xdf\xadC\xa5\x1b\xc8B\x96' Cx\x87\x83C\x8a\xe4\xb7B\xbfq@B\xd1d\x8aBP\x199Cb\xc0qB\x95\x16\xdbAJ\x83\xb5C\xef)\x91C\t\n\xa6C\xdb\xb1\xb8C\x91\xe7\x16C\xba\x83\x1bC\xe2yaBj\x17HC\xda\xcbtAu\xe8\xceC\xe4d\xf9A\xb8\x813C\xfbm\x98C\xd4\x1c\xcaCs\x99PB\xa5\x89\x80C\x9e\x84tC\xff\x9c\xbcC\x07\xd3\xd8B\x11v\x9bC_\x8b\x8aC\x1c\xf3\xa3C\xa3P\xf9B\x88\xe0jCd\xda\x80B\xf3\xa0TC\xcd\xf9\xafC\xdd3\xc3Cl\xc4xC"
S'\x00\x00\x00\x00\x00\x00\x00\x00\x00\x00\x00\x00\x00\x00\x00\x00\x00\x00\x00\x00\x00\x00\x00\x00\x00\x00\x00\x00\x00\x00\x00\x00\x00\x00\x00\x00\x00\x00\x00\x00\x00\x00\x00\x00\x00\x00\x00\x00\x00\x00\x00\x00\x00\x00\x00\x00\x00\x00\x00\x00\x00\x00\x00\x00\x00\x00\x00\x00\x00\x00\x00\x00\x00\x00\x00\x00\x00\x00\x00\x00\x00\x00\x00\x00\x00\x00\x00\x00\x00\x00\x00\x00\x00\x00\x00\x00'
Ntbsg16
g1157
(g1158
(I0
tS'b'
tRp1171
(I1
(I96
I1
tg1160
I00
(lp1172
g416
ag372
ag636
ag658
ag350
ag1011
ag87
ag603
ag99
ag592
ag1033
ag1121
ag570
ag1110
ag449
ag758
ag912
ag515
ag135
ag327
ag181
ag504
ag305
ag1000
ag460
ag123
ag813
ag294
ag1099
ag681
ag747
ag383
ag526
ag193
ag1132
ag559
ag438
ag780
ag169
ag283
ag625
ag791
ag647
ag714
ag901
ag868
ag272
ag71
ag1066
ag824
ag857
ag1044
ag978
ag1088
ag427
ag394
ag945
ag923
ag338
ag493
ag736
ag316
ag204
ag261
ag548
ag238
ag147
ag956
ag802
ag890
ag967
ag471
ag482
ag226
ag581
ag110
ag1077
ag158
ag537
ag835
ag1055
ag215
ag725
ag692
ag989
ag361
ag846
ag769
ag879
ag405
ag670
ag249
ag614
ag934
ag1022
ag703
atbsg15
g1157
(g1158
(I0
tS'b'
tRp1173
(I1
(I96
I1
tg1160
I00
(lp1174
g72
ag72
ag72
ag88
ag72
ag88
ag88
ag72
ag72
ag88
ag88
ag88
ag72
ag88
ag88
ag88
ag72
ag88
ag88
ag72
ag88
ag88
ag88
ag72
ag88
ag72
ag88
ag88
ag88
ag88
ag88
ag72
ag88
ag88
ag72
ag88
ag72
ag72
ag88
ag88
ag72
ag72
ag88
ag88
ag88
ag88
ag88
ag72
ag88
ag88
ag88
ag72
ag88
ag72
ag72
ag72
ag88
ag72
ag88
ag72
ag88
ag88
ag72
ag88
ag72
ag88
ag88
ag72
ag88
ag88
ag72
ag72
ag72
ag72
ag72
ag88
ag72
ag88
ag72
ag72
ag72
ag88
ag72
ag88
ag72
ag72
ag72
ag88
ag88
ag72
ag72
ag88
ag88
ag72
ag88
ag72
atbsg22
g1162
(g1163
g1158
g1164
S'b'
tRp1175
(I1
(I96
I1
tg1166
I00
S"\x06\x9d\x03C\x18\x03\xe5B\xb1\x92_C\xa2\xf6hC\x0f\xf5\xd4B\x1b2\xc2Cb?\x19A\xcb\xbeRCY\xfbVA?\x89NC<\xe0\xc6C\x03\x9a\xd9CF\xadEC\xe0\xa1\xd7C\xe0\x0c\x10C)\x95\x89C\xfd\xd2\xacC{\x1a-C\xa8\x9e\xcbA\x0bM\xc4B\x18\x8e(B\xaaf'C\x16\x1b\xb4B\x10\xd2\xbfC\x0b\xa9\x14Cz\x96\xaaA5\x84\x94C\xa5S\xabB@H\xd5C\x19FrC\xc9\n\x87C\x9d\xf3\xedB\xf9&1CK\xca8B'L\xdcC}\xaa@C\xdc&\x0cC'>\x8eCU)\x19B$\xed\xa1B\xe8\xdcZC\x025\x90C\xf6\xcddC\xb1\xf8~C6\xcc\xa9C.\xfe\xa2C$\x9b\x98B7\xff\xb7@\x93\xe1\xcdC\xf6a\x97C\xe4O\xa0C\xbf+\xc9C\x11\xa8\xbbC\xb2\x86\xd2C\xad\x12\x08C\x15\x87\xf5B\xca\x8b\xb4C\x9d\xfa\xaeC:\x94\xccB5\r#C\t\xf0\x84C\x93\xd2\xbbBC\xfcHB\xcdw\x90B\xb6\xe2;CZ\rzB\x19?\xeaA9z\xb7CXR\x92C\x9f`\xa7C\xe4\xb8\xb9C\x1ei\x19C\x8fJ\x1eC_\xdbiB\xc0|JC\xf6\xf4\x89AM\x0e\xd0C\xbf\xcd\x07B\x05\xe75Cz,\x9aC\x97f\xcbC\rMYB\xf7T\x82C \xddvC\xaa\xcf\xbdCb\xf4\xdcB}\x12\x9eC\x86\xe4\x8bC\xf3\x18\xa5C$*\xfdB\xdeEmC\x9a/\x86B\xcc\xa4VC\xcc\x1b\xb1CN\x8e\xc4C:\xdazC"
S'\x00\x00\x00\x00\x00\x00\x00\x00\x00\x00\x00\x00\x00\x00\x00\x00\x00\x00\x00\x00\x00\x00\x00\x00\x00\x00\x00\x00\x00\x00\x00\x00\x00\x00\x00\x00\x00\x00\x00\x00\x00\x00\x00\x00\x00\x00\x00\x00\x00\x00\x00\x00\x00\x00\x00\x00\x00\x00\x00\x00\x00\x00\x00\x00\x00\x00\x00\x00\x00\x00\x00\x00\x00\x00\x00\x00\x00\x00\x00\x00\x00\x00\x00\x00\x00\x00\x00\x00\x00\x00\x00\x00\x00\x00\x00\x00'
Ntbsg26
g1157
(g1158
(I0
tS'b'
tRp1176
(I1
(I96
I1
tg1160
I00
(lp1177
g36
(g80
S'\x01\x00\x00\x00'
tRp1178
ag36
(g80
S'\x06\x00\x00\x00'
tRp1179
ag36
(g80
S'\x04\x00\x00\x00'
tRp1180
ag36
(g80
S'\t\x00\x00\x00'
tRp1181
ag36
(g80
S'\x08\x00\x00\x00'
tRp1182
ag36
(g80
S'\x06\x00\x00\x00'
tRp1183
aS'4.0'
p1184
ag36
(g80
S'\x06\x00\x00\x00'
tRp1185
ag36
(g80
S'\x06\x00\x00\x00'
tRp1186
ag36
(g80
S'\t\x00\x00\x00'
tRp1187
ag36
(g80
S'\x05\x00\x00\x00'
tRp1188
ag36
(g80
S'\r\x00\x00\x00'
tRp1189
ag36
(g80
S'\x05\x00\x00\x00'
tRp1190
ag36
(g80
S'\x0e\x00\x00\x00'
tRp1191
ag36
(g80
S'\x04\x00\x00\x00'
tRp1192
ag36
(g80
S'\n\x00\x00\x00'
tRp1193
ag36
(g80
S'\t\x00\x00\x00'
tRp1194
ag36
(g80
S'\x03\x00\x00\x00'
tRp1195
ag36
(g80
S'\x06\x00\x00\x00'
tRp1196
ag36
(g80
S'\x04\x00\x00\x00'
tRp1197
ag36
(g80
S'\x03\x00\x00\x00'
tRp1198
ag36
(g80
S'\x05\x00\x00\x00'
tRp1199
ag36
(g80
S'\x02\x00\x00\x00'
tRp1200
ag36
(g80
S'\x08\x00\x00\x00'
tRp1201
ag36
(g80
S'\x07\x00\x00\x00'
tRp1202
ag36
(g80
S'\x07\x00\x00\x00'
tRp1203
ag36
(g80
S'\t\x00\x00\x00'
tRp1204
ag36
(g80
S'\x03\x00\x00\x00'
tRp1205
ag36
(g80
S'\x0b\x00\x00\x00'
tRp1206
ag36
(g80
S'\x06\x00\x00\x00'
tRp1207
ag36
(g80
S'\x0b\x00\x00\x00'
tRp1208
ag36
(g80
S'\x05\x00\x00\x00'
tRp1209
ag36
(g80
S'\x05\x00\x00\x00'
tRp1210
ag36
(g80
S'\x06\x00\x00\x00'
tRp1211
ag36
(g80
S'\n\x00\x00\x00'
tRp1212
ag36
(g80
S'\x06\x00\x00\x00'
tRp1213
ag36
(g80
S'\x02\x00\x00\x00'
tRp1214
ag36
(g80
S'\x08\x00\x00\x00'
tRp1215
ag36
(g80
S'\x04\x00\x00\x00'
tRp1216
ag36
(g80
S'\x04\x00\x00\x00'
tRp1217
ag36
(g80
S'\x03\x00\x00\x00'
tRp1218
ag36
(g80
S'\t\x00\x00\x00'
tRp1219
ag36
(g80
S'\x07\x00\x00\x00'
tRp1220
ag36
(g80
S'\x04\x00\x00\x00'
tRp1221
ag36
(g80
S'\x0b\x00\x00\x00'
tRp1222
ag36
(g80
S'\x08\x00\x00\x00'
tRp1223
ag36
(g80
S'\x05\x00\x00\x00'
tRp1224
aS'5.0'
p1225
ag36
(g80
S'\x0b\x00\x00\x00'
tRp1226
ag36
(g80
S'\x07\x00\x00\x00'
tRp1227
ag36
(g80
S'\x06\x00\x00\x00'
tRp1228
ag36
(g80
S'\x06\x00\x00\x00'
tRp1229
ag36
(g80
S'\x04\x00\x00\x00'
tRp1230
ag36
(g80
S'\x0c\x00\x00\x00'
tRp1231
ag36
(g80
S'\x03\x00\x00\x00'
tRp1232
ag36
(g80
S'\x03\x00\x00\x00'
tRp1233
ag36
(g80
S'\x05\x00\x00\x00'
tRp1234
ag36
(g80
S'\x07\x00\x00\x00'
tRp1235
ag36
(g80
S'\x05\x00\x00\x00'
tRp1236
ag36
(g80
S'\x03\x00\x00\x00'
tRp1237
ag36
(g80
S'\x08\x00\x00\x00'
tRp1238
ag36
(g80
S'\x05\x00\x00\x00'
tRp1239
ag36
(g80
S'\x05\x00\x00\x00'
tRp1240
ag36
(g80
S'\x03\x00\x00\x00'
tRp1241
ag36
(g80
S'\x05\x00\x00\x00'
tRp1242
ag36
(g80
S'\x04\x00\x00\x00'
tRp1243
ag36
(g80
S'\x03\x00\x00\x00'
tRp1244
ag36
(g80
S'\x06\x00\x00\x00'
tRp1245
ag36
(g80
S'\x06\x00\x00\x00'
tRp1246
ag36
(g80
S'\x0e\x00\x00\x00'
tRp1247
ag36
(g80
S'\x05\x00\x00\x00'
tRp1248
ag36
(g80
S'\x05\x00\x00\x00'
tRp1249
ag36
(g80
S'\x02\x00\x00\x00'
tRp1250
ag36
(g80
S'\x05\x00\x00\x00'
tRp1251
ag36
(g80
S'\x08\x00\x00\x00'
tRp1252
ag36
(g80
S'\t\x00\x00\x00'
tRp1253
ag36
(g80
S'\n\x00\x00\x00'
tRp1254
ag36
(g80
S'\x05\x00\x00\x00'
tRp1255
ag36
(g80
S'\x06\x00\x00\x00'
tRp1256
ag36
(g80
S'\n\x00\x00\x00'
tRp1257
ag36
(g80
S'\t\x00\x00\x00'
tRp1258
ag36
(g80
S'\x08\x00\x00\x00'
tRp1259
ag36
(g80
S'\x06\x00\x00\x00'
tRp1260
ag36
(g80
S'\x07\x00\x00\x00'
tRp1261
ag36
(g80
S'\x07\x00\x00\x00'
tRp1262
ag36
(g80
S'\x07\x00\x00\x00'
tRp1263
ag36
(g80
S'\t\x00\x00\x00'
tRp1264
ag36
(g80
S'\x0b\x00\x00\x00'
tRp1265
ag36
(g80
S'\x0b\x00\x00\x00'
tRp1266
ag36
(g80
S'\x02\x00\x00\x00'
tRp1267
ag36
(g80
S'\x07\x00\x00\x00'
tRp1268
ag36
(g80
S'\x06\x00\x00\x00'
tRp1269
ag36
(g80
S'\x05\x00\x00\x00'
tRp1270
ag36
(g80
S'\x04\x00\x00\x00'
tRp1271
ag36
(g80
S'\x07\x00\x00\x00'
tRp1272
ag36
(g80
S'\x06\x00\x00\x00'
tRp1273
atbsg21
g1162
(g1163
g1158
g1164
S'b'
tRp1274
(I1
(I96
I1
tg1166
I00
S"b;\xe8?/NM?@/\xad?\xbd\xc9a?\x05\xd5a?!\xd5\x94?\xf5K\x12?KO\x80?\xa0B$?\x9fX;?&\xa9\xa1?\xfc@$?8V\xb2?3\xa8n?\xd8Y;?\xc4\xd7\xcf?\xd2I\x80?\xad\x14\x1f@0ed?\xd8\xc9s?\xc5*\r?\x98\xb3\x8f?\xacD\x92?\x9c\xbdJ?,\xc6\xaf?\x8a\xc78?HE\x92?\x8b\x8d\x93?\xbd\xf3\xdd?\xaf6\xe8?aZv?\x80\x19\x9f?\n\x91W?\xbdC_?4K\x00@\x87m\xc9?J\xd4a?f\x17l?\xf8\x91\x8a?\x11\t\xba?\xadI\x89?w\x151?\x05z\xf2?\x01gd?T\xc0\xb8?\xefE\t@\x9d\xb2\\?\xd2\xc78?7}{?\xb8\x9c\x11@\x15\x97\x81?\x18\xec\xab?W\xb0!?\xcfb\xd2?/\xf6f?H\x84\x1c?9\x94^@\xde\xf5f?[:q?\xe8\xd7\xcf?K/\xbf?^\xf3+?G\x91W?\x83\xc7\xe1?\xb3*\xbf?@\xbdJ?\xf6\x1f\x1f?\x85\x0f(@\xdfN\x80?K\x82\xa5?E\x00C?\x1c?\x9b?\xb7\xbb\xc1?EMM?\xc9I\x89?\xe5\x8e\x1c?\xfb\xc9s?\xc5\xe1\xbd?F\xd5\x8b?\x01\xa2\x08@~\x87\x9c?\xaa!Z?\rA\x12@\xc8'\x84?0\x92\x8a?\x9dz@?\x04<x@9\xec\xab?\xcc8q?)c)?\xea\x91\x8a?\xf7|\xae?\x13\xc88?\x97\xebx?\xa4\x0e\xb1?\x8e\x9bE?"
S'\x00\x00\x00\x00\x00\x00\x00\x00\x00\x00\x00\x00\x00\x00\x00\x00\x00\x00\x00\x00\x00\x00\x00\x00\x00\x00\x00\x00\x00\x00\x00\x00\x00\x00\x00\x00\x00\x00\x00\x00\x00\x00\x00\x00\x00\x00\x00\x00\x00\x00\x00\x00\x00\x00\x00\x00\x00\x00\x00\x00\x00\x00\x00\x00\x00\x00\x00\x00\x00\x00\x00\x00\x00\x00\x00\x00\x00\x00\x00\x00\x00\x00\x00\x00\x00\x00\x00\x00\x00\x00\x00\x00\x00\x00\x00\x00'
NtbsS'order'
p1275
g1162
(g1163
g1158
g1164
S'b'
tRp1276
(I1
(I96
I1
tg1166
I00
S'\x00\x00\xf0A\x00\x00\xd0A\x00\x00HB\x00\x00PB\x00\x00\xc0A\x00\x00\xa8B\x00\x00\x80?\x00\x00<B\x00\x00\x00@\x00\x008B\x00\x00\xacB\x00\x00\xbcB\x00\x000B\x00\x00\xbaB\x00\x00\x04B\x00\x00tB\x00\x00\x96B\x00\x00\x1cB\x00\x00\xa0@\x00\x00\xb0A\x00\x00\x10A\x00\x00\x18B\x00\x00\xa0A\x00\x00\xa6B\x00\x00\x08B\x00\x00\x80@\x00\x00\x84B\x00\x00\x98A\x00\x00\xb8B\x00\x00XB\x00\x00pB\x00\x00\xd8A\x00\x00 B\x00\x00 A\x00\x00\xbeB\x00\x00,B\x00\x00\x00B\x00\x00|B\x00\x00\x00A\x00\x00\x90A\x00\x00DB\x00\x00\x80B\x00\x00LB\x00\x00dB\x00\x00\x94B\x00\x00\x8eB\x00\x00\x88A\x00\x00\x00\x00\x00\x00\xb2B\x00\x00\x86B\x00\x00\x8cB\x00\x00\xaeB\x00\x00\xa2B\x00\x00\xb6B\x00\x00\xf8A\x00\x00\xe0A\x00\x00\x9cB\x00\x00\x98B\x00\x00\xb8A\x00\x00\x14B\x00\x00lB\x00\x00\xa8A\x00\x000A\x00\x00\x80A\x00\x00(B\x00\x00`A\x00\x00\xc0@\x00\x00\x9eB\x00\x00\x82B\x00\x00\x92B\x00\x00\xa0B\x00\x00\x0cB\x00\x00\x10B\x00\x00PA\x00\x004B\x00\x00@@\x00\x00\xb4B\x00\x00\xe0@\x00\x00$B\x00\x00\x88B\x00\x00\xb0B\x00\x00@A\x00\x00hB\x00\x00\\B\x00\x00\xa4B\x00\x00\xc8A\x00\x00\x8aB\x00\x00xB\x00\x00\x90B\x00\x00\xe8A\x00\x00TB\x00\x00pA\x00\x00@B\x00\x00\x9aB\x00\x00\xaaB\x00\x00`B'
S'\x00\x00\x00\x00\x00\x00\x00\x00\x00\x00\x00\x00\x00\x00\x00\x00\x00\x00\x00\x00\x00\x00\x00\x00\x00\x00\x00\x00\x00\x00\x00\x00\x00\x00\x00\x00\x00\x00\x00\x00\x00\x00\x00\x00\x00\x00\x00\x00\x00\x00\x00\x00\x00\x00\x00\x00\x00\x00\x00\x00\x00\x00\x00\x00\x00\x00\x00\x00\x00\x00\x00\x00\x00\x00\x00\x00\x00\x00\x00\x00\x00\x00\x00\x00\x00\x00\x00\x00\x00\x00\x00\x00\x00\x00\x00\x00'
Ntbsg19
g1162
(g1163
g1158
g1164
S'b'
tRp1277
(I1
(I96
I1
tg1166
I00
S'\x00\x00\x00\x00\x00\x00\x80?\x00\x00\x80?\x00\x00\x80?\x00\x00\x80?\x00\x00\x00\x00\x00\x00\x80?\x00\x00\x80?\x00\x00\x80?\x00\x00\x80?\x00\x00\x00\x00\x00\x00\x80?\x00\x00\x80?\x00\x00\x80?\x00\x00\x80?\x00\x00\x00\x00\x00\x00\x80?\x00\x00\x80?\x00\x00\x80?\x00\x00\x80?\x00\x00\x00\x00\x00\x00\x80?\x00\x00\x00\x00\x00\x00\x80?\x00\x00\x80?\x00\x00\x80?\x00\x00\x80?\x00\x00\x80?\x00\x00\x00\x00\x00\x00\x80?\x00\x00\x80?\x00\x00\x80?\x00\x00\x80?\x00\x00\x80?\x00\x00\x80?\x00\x00\x80?\x00\x00\x80?\x00\x00\x00\x00\x00\x00\x80?\x00\x00\x80?\x00\x00\x80?\x00\x00\x80?\x00\x00\x00\x00\x00\x00\x00\x00\x00\x00\x80?\x00\x00\x80?\x00\x00\x80?\x00\x00\x80?\x00\x00\x80?\x00\x00\x00\x00\x00\x00\x00\x00\x00\x00\x00\x00\x00\x00\x80?\x00\x00\x00\x00\x00\x00\x80?\x00\x00\x80?\x00\x00\x00\x00\x00\x00\x80?\x00\x00\x80?\x00\x00\x00\x00\x00\x00\x00\x00\x00\x00\x80?\x00\x00\x00\x00\x00\x00\x00\x00\x00\x00\x80?\x00\x00\x80?\x00\x00\x00\x00\x00\x00\x80?\x00\x00\x80?\x00\x00\x80?\x00\x00\x80?\x00\x00\x80?\x00\x00\x80?\x00\x00\x80?\x00\x00\x80?\x00\x00\x80?\x00\x00\x80?\x00\x00\x80?\x00\x00\x80?\x00\x00\x80?\x00\x00\x80?\x00\x00\x80?\x00\x00\x80?\x00\x00\x80?\x00\x00\x80?\x00\x00\x80?\x00\x00\x80?\x00\x00\x80?\x00\x00\x00\x00\x00\x00\x80?\x00\x00\x80?\x00\x00\x80?\x00\x00\x80?\x00\x00\x80?\x00\x00\x80?\x00\x00\x80?'
S'\x00\x00\x00\x00\x00\x00\x00\x00\x00\x00\x00\x00\x00\x00\x00\x00\x00\x00\x00\x00\x00\x00\x00\x00\x00\x00\x00\x00\x00\x00\x00\x00\x00\x00\x00\x00\x00\x00\x00\x00\x00\x00\x00\x00\x00\x00\x00\x00\x00\x00\x00\x00\x00\x00\x00\x00\x00\x00\x00\x00\x00\x00\x00\x00\x00\x00\x00\x00\x00\x00\x00\x00\x00\x00\x00\x00\x00\x00\x00\x00\x00\x00\x00\x00\x00\x00\x00\x00\x00\x00\x00\x00\x00\x00\x00\x00'
Ntbsg27
g1157
(g1158
(I0
tS'b'
tRp1278
(I1
(I96
I1
tg1160
I00
(lp1279
g418
ag374
ag638
ag661
ag352
ag1013
ag90
ag605
ag101
ag594
ag1035
ag1123
ag572
ag1112
ag451
ag760
ag914
ag517
ag138
ag329
ag184
ag506
ag307
ag1002
ag462
ag126
ag815
ag296
ag1101
ag683
ag749
ag385
ag528
ag195
ag1134
ag561
ag440
ag782
ag172
ag285
ag627
ag793
ag649
ag716
ag903
ag870
ag274
ag76
ag1068
ag826
ag859
ag1046
ag980
ag1090
ag429
ag396
ag947
ag925
ag341
ag495
ag738
ag318
ag206
ag263
ag550
ag240
ag149
ag958
ag804
ag892
ag969
ag473
ag484
ag229
ag583
ag114
ag1079
ag160
ag539
ag837
ag1057
ag217
ag727
ag694
ag991
ag363
ag848
ag771
ag881
ag407
ag672
ag252
ag616
ag936
ag1024
ag705
atbsg23
g1157
(g1158
(I0
tS'b'
tRp1280
(I1
(I96
I1
tg1160
I00
(lp1281
S'1'
aS'2'
aS'1'
aS'3'
aS'2'
aS'1'
aS'1'
aS'2'
aS'1'
aS'3'
aS'1'
aS'3'
aS'1'
aS'2'
aS'1'
aS'1'
aS'3'
aS'1'
aS'3'
aS'1'
aS'1'
aS'3'
aS'1'
aS'3'
aS'3'
aS'2'
aS'3'
aS'2'
aS'1'
aS'1'
aS'2'
aS'3'
aS'1'
aS'2'
aS'3'
aS'2'
aS'1'
aS'1'
aS'2'
aS'2'
aS'1'
aS'3'
aS'1'
aS'1'
aS'3'
aS'1'
aS'2'
aS'2'
aS'2'
aS'1'
aS'1'
aS'1'
aS'1'
aS'2'
aS'2'
aS'2'
aS'1'
aS'3'
aS'1'
aS'1'
aS'1'
aS'2'
aS'1'
aS'1'
aS'1'
aS'1'
aS'1'
aS'2'
aS'1'
aS'3'
aS'2'
aS'3'
aS'1'
aS'2'
aS'1'
aS'3'
aS'1'
aS'2'
aS'2'
aS'2'
aS'1'
aS'3'
aS'1'
aS'2'
aS'1'
aS'2'
aS'3'
aS'3'
aS'1'
aS'2'
aS'2'
aS'3'
aS'3'
aS'1'
aS'3'
aS'3'
atbsg18
g1162
(g1163
g1158
g1164
S'b'
tRp1282
(I1
(I96
I1
tg1166
I00
S"L\xc7\x01C\xd5X\xe3B\x0e3^C\x03\rhC\xdc&\xd3B\xa4\x9a\xc1Ct\xc6\x0fA\xe8\xb8QC\x02cLA\xa3\xc8MC\xf0;\xc6CAE\xd9CVCDC\xea'\xd7CDL\x0fC\xb0\xc2\x88C\x12P\xacC\xe5\x98*CeQ\xc4A\xf4Z\xc2B\\D&B\x04B&C~\xc7\xb1B\x10j\xbfC;D\x13C1\xa6\xa4AN\xef\x93C\xe9\xfa\xa8B\xaag\xd4CgppC\xfa\x8c\x86C\xb1l\xebB%J0C385B\xefH\xdbC^\x12?C\xc5?\x0bCz\xc5\x8dC\xba\xbf\x14Bw\xfa\x9eB\x11\xc5YC\xd5\xd9\x8fC\xbe\xe3bC\x06\x0f~C\xd3\x10\xa9C\x01\xe9\xa1C8\xd7\x96B\xad\xe9\x9f@2a\xcdC\x1b<\x96C\xab\xcb\x9fC2}\xc8C\x97T\xbbC\xad\xb1\xd1Cs&\x07C\x86C\xf4B\x00\xcc\xb2C\x80\x84\xaeC@\xa7\xcaBDh!C8.\x84C%p\xbaB\xf4\x88EB+\xe6\x8cB\x1d_:CX\xcdvB\xf7\x1b\xe5Ax'\xb6C\x1f\xce\x91C{\xb8\xa6C\xc2T\xb9C]-\x18C\xd5\xc1\x1cC\x19\x91fB\xeadICp\xe6\x84A\xc6\x91\xcfC\xa7\xc9\x01B\x17\xca4C\x94\x18\x99Cm\xc7\xcaCw\xcfUB\xd4-\x81C\x8d\xcfuCwB\xbdC\xe5h\xdbBb\x1f\x9cC\xf85\x8bC\xb6\x9d\xa4C\xd8\xcc\xfbBx+lC!k\x83B\xc3\xe6UC\xb5\x9c\xb0C\x9d\xda\xc3C\xcb\x0czC"
S'\x00\x00\x00\x00\x00\x00\x00\x00\x00\x00\x00\x00\x00\x00\x00\x00\x00\x00\x00\x00\x00\x00\x00\x00\x00\x00\x00\x00\x00\x00\x00\x00\x00\x00\x00\x00\x00\x00\x00\x00\x00\x00\x00\x00\x00\x00\x00\x00\x00\x00\x00\x00\x00\x00\x00\x00\x00\x00\x00\x00\x00\x00\x00\x00\x00\x00\x00\x00\x00\x00\x00\x00\x00\x00\x00\x00\x00\x00\x00\x00\x00\x00\x00\x00\x00\x00\x00\x00\x00\x00\x00\x00\x00\x00\x00\x00'
Ntbsg25
g1162
(g1163
g1158
g1164
S'b'
tRp1283
(I1
(I96
I1
tg1166
I00
S'\xce)\r?FyM>H\xeb\x94>\xfc\xf88>,{M>\x1e\xcd\x8f>\xa5\xf28>\t+\x1a>\n\xa8\x05>z\xb2.>Q\xc4W>\xcf-\x9f>_\x85.?u\xf58>\xa93C>\xcd9C>v\xe1\xb8>\x83\xf28>\xeePM>\xcf\xb1.>\xaf.\x1a>\xd8\xbbW>\x90C$>\x1f\x9a\n?r\xe6\x02?>yM>\xd0[\xcd>\x0cd\x80>q\xd3&?\x1a\xe7\x02?0\xf9\xbd>\xf5\xae.>0\x15\x1f?4\xf78>\xfd\xfd\x19?2c\x17?|*\x1a>\xf9\xb3.>&\xea\x94>5\x99\n?\xc8\x91\xae>\xf6\xf78>.zM>\xea\xf9\xbd>\x06\x06\xfe?\x18\xf48>\xf94C>\x00\x86v>\x9c0\x9f>\xf3\xd5\xb8>ll$>YL\x1a>\xa6\xf28>-\x84.?EzM>\x81l$>ByM>\x08\x89\x85>}d\x80>\x18\x7fM>\x87k$>\xfb\x92\x8a>\xc6\xaf.>]\xf78>\x07\xaf.>X\xf28>Wk$>\xa5\xa53?\xc9\xac.>\x15.\x9f>K\x03b>\xa4\xfa\xbd>\x83\xa2\x05>m\x87v>\xe4f\x80>C-\x9f>\xbdxM>g\x8av>\xbdP\xbb??\x91W?*\xd4a?s\x19\x9f>\x19c)?\xe4\xb3.>k\xaf.>\xb9\xf48>{\x9f\xd7>O86?\xf1*\x1a>;Dl>\xd9*\x1a>\xb7\xe3\xbd>\xf0\xe7\x0f>\x9b\xd5\xb8>\x01\xb4\xb3>\xb9\xbeW>'
S'\x00\x00\x00\x00\x00\x00\x00\x00\x00\x00\x00\x00\x00\x00\x00\x00\x00\x00\x00\x00\x00\x00\x00\x00\x00\x00\x00\x00\x00\x00\x00\x00\x00\x00\x00\x00\x00\x00\x00\x00\x00\x00\x00\x00\x00\x00\x00\x00\x00\x00\x00\x00\x00\x00\x00\x00\x00\x00\x00\x00\x00\x00\x00\x00\x00\x00\x00\x00\x00\x00\x00\x00\x00\x00\x00\x00\x00\x00\x00\x00\x00\x00\x00\x00\x00\x00\x00\x00\x00\x00\x00\x00\x00\x00\x00\x00'
NtbstRp1284
(dp1285
S'isNumeric'
p1286
(dp1287
g23
I00
sg20
I00
sg17
I01
sg1167
I01
sg22
I01
sg24
I01
sg14
I01
sg18
I01
sg16
I00
sg19
I01
sg26
I00
sg27
I00
sg15
I00
sg21
I01
sg1275
I01
sg25
I01
ssg1151
g1145
sS'dataTypes'
p1288
(lp1289
g1167
ag1275
ag14
ag15
ag16
ag17
ag18
ag19
ag20
ag21
ag22
ag23
ag24
ag25
ag26
ag27
asS'dataShape'
p1290
(lp1291
I96
aI1
asbsS'method'
p1292
S'random'
p1293
sS'sequenceIndices'
p1294
g1157
(g1158
(I0
tS'b'
tRp1295
(I1
(I96
I1
tg80
I01
S'/\x00\x00\x00\x06\x00\x00\x00\x08\x00\x00\x00K\x00\x00\x00\x19\x00\x00\x00\x12\x00\x00\x00B\x00\x00\x00M\x00\x00\x00&\x00\x00\x00\x14\x00\x00\x00!\x00\x00\x00>\x00\x00\x00Q\x00\x00\x00I\x00\x00\x00A\x00\x00\x00[\x00\x00\x00?\x00\x00\x00.\x00\x00\x00\'\x00\x00\x00\x1b\x00\x00\x00\x16\x00\x00\x00=\x00\x00\x00\x13\x00\x00\x00:\x00\x00\x00\x04\x00\x00\x00U\x00\x00\x00\x01\x00\x00\x00\x1f\x00\x00\x007\x00\x00\x00Y\x00\x00\x00\x00\x00\x00\x006\x00\x00\x00$\x00\x00\x00\x0e\x00\x00\x00\x18\x00\x00\x00G\x00\x00\x00H\x00\x00\x00;\x00\x00\x00\x15\x00\x00\x00\x11\x00\x00\x00 \x00\x00\x00N\x00\x00\x00@\x00\x00\x00#\x00\x00\x00\x0c\x00\x00\x00J\x00\x00\x00\t\x00\x00\x00\x07\x00\x00\x00\\\x00\x00\x00(\x00\x00\x00\x02\x00\x00\x00*\x00\x00\x00\x03\x00\x00\x00Z\x00\x00\x00\x1d\x00\x00\x00S\x00\x00\x00_\x00\x00\x00+\x00\x00\x00R\x00\x00\x00<\x00\x00\x00\x1e\x00\x00\x00\x0f\x00\x00\x00W\x00\x00\x00%\x00\x00\x00)\x00\x00\x00D\x00\x00\x00\x1a\x00\x00\x001\x00\x00\x00O\x00\x00\x00V\x00\x00\x002\x00\x00\x00-\x00\x00\x00X\x00\x00\x00E\x00\x00\x00,\x00\x00\x00\x10\x00\x00\x009\x00\x00\x00]\x00\x00\x008\x00\x00\x00C\x00\x00\x00F\x00\x00\x004\x00\x00\x00T\x00\x00\x00\x17\x00\x00\x00\x05\x00\x00\x00^\x00\x00\x00\n\x00\x00\x003\x00\x00\x00P\x00\x00\x000\x00\x00\x00L\x00\x00\x005\x00\x00\x00\x1c\x00\x00\x00\r\x00\x00\x00\x0b\x00\x00\x00"\x00\x00\x00'
tbsS'finished'
p1296
I01
sS'nReps'
p1297
I1
sS'nRemaining'
p1298
I-1
sS'trialList'
p1299
(lp1300
g1
(cpsychopy.data
TrialType
p1301
g1155
(dp1302
g62
g74
sg63
g424
sg64
g73
sg65
g419
sg66
g423
stRp1303
ag1
(g1301
g1155
(dp1304
g62
g112
sg63
g380
sg64
g182
sg65
g375
sg66
g379
stRp1305
ag1
(g1301
g1155
(dp1306
g62
g74
sg63
g644
sg64
g73
sg65
g639
sg66
g643
stRp1307
ag1
(g1301
g1155
(dp1308
g62
g74
sg63
g667
sg64
g659
sg65
g662
sg66
g666
stRp1309
ag1
(g1301
g1155
(dp1310
g62
g112
sg63
g358
sg64
g170
sg65
g353
sg66
g357
stRp1311
ag1
(g1301
g1155
(dp1312
g62
g74
sg63
g1019
sg64
g73
sg65
g1014
sg66
g1018
stRp1313
ag1
(g1301
g1155
(dp1314
g62
g74
sg63
g96
sg64
g73
sg65
g91
sg66
g95
stRp1315
ag1
(g1301
g1155
(dp1316
g62
g74
sg63
g611
sg64
g250
sg65
g606
sg66
g610
stRp1317
ag1
(g1301
g1155
(dp1318
g62
g74
sg63
g107
sg64
g73
sg65
g102
sg66
g106
stRp1319
ag1
(g1301
g1155
(dp1320
g62
g74
sg63
g600
sg64
g250
sg65
g595
sg66
g599
stRp1321
ag1
(g1301
g1155
(dp1322
g62
g112
sg63
g1041
sg64
g227
sg65
g1036
sg66
g1040
stRp1323
ag1
(g1301
g1155
(dp1324
g62
g74
sg63
g1129
sg64
g250
sg65
g1124
sg66
g1128
stRp1325
ag1
(g1301
g1155
(dp1326
g62
g74
sg63
g578
sg64
g339
sg65
g573
sg66
g577
stRp1327
ag1
(g1301
g1155
(dp1328
g62
g112
sg63
g1118
sg64
g182
sg65
g1113
sg66
g1117
stRp1329
ag1
(g1301
g1155
(dp1330
g62
g74
sg63
g457
sg64
g339
sg65
g452
sg66
g456
stRp1331
ag1
(g1301
g1155
(dp1332
g62
g74
sg63
g766
sg64
g73
sg65
g761
sg66
g765
stRp1333
ag1
(g1301
g1155
(dp1334
g62
g112
sg63
g920
sg64
g182
sg65
g915
sg66
g919
stRp1335
ag1
(g1301
g1155
(dp1336
g62
g74
sg63
g523
sg64
g339
sg65
g518
sg66
g522
stRp1337
ag1
(g1301
g1155
(dp1338
g62
g74
sg63
g144
sg64
g136
sg65
g139
sg66
g143
stRp1339
ag1
(g1301
g1155
(dp1340
g62
g74
sg63
g335
sg64
g73
sg65
g330
sg66
g334
stRp1341
ag1
(g1301
g1155
(dp1342
g62
g112
sg63
g190
sg64
g182
sg65
g185
sg66
g189
stRp1343
ag1
(g1301
g1155
(dp1344
g62
g112
sg63
g512
sg64
g111
sg65
g507
sg66
g511
stRp1345
ag1
(g1301
g1155
(dp1346
g62
g74
sg63
g313
sg64
g136
sg65
g308
sg66
g312
stRp1347
ag1
(g1301
g1155
(dp1348
g62
g112
sg63
g1008
sg64
g111
sg65
g1003
sg66
g1007
stRp1349
ag1
(g1301
g1155
(dp1350
g62
g112
sg63
g468
sg64
g227
sg65
g463
sg66
g467
stRp1351
ag1
(g1301
g1155
(dp1352
g62
g74
sg63
g132
sg64
g124
sg65
g127
sg66
g131
stRp1353
ag1
(g1301
g1155
(dp1354
g62
g112
sg63
g821
sg64
g170
sg65
g816
sg66
g820
stRp1355
ag1
(g1301
g1155
(dp1356
g62
g112
sg63
g302
sg64
g182
sg65
g297
sg66
g301
stRp1357
ag1
(g1301
g1155
(dp1358
g62
g74
sg63
g1107
sg64
g339
sg65
g1102
sg66
g1106
stRp1359
ag1
(g1301
g1155
(dp1360
g62
g74
sg63
g689
sg64
g73
sg65
g684
sg66
g688
stRp1361
ag1
(g1301
g1155
(dp1362
g62
g74
sg63
g755
sg64
g136
sg65
g750
sg66
g754
stRp1363
ag1
(g1301
g1155
(dp1364
g62
g74
sg63
g391
sg64
g136
sg65
g386
sg66
g390
stRp1365
ag1
(g1301
g1155
(dp1366
g62
g112
sg63
g534
sg64
g182
sg65
g529
sg66
g533
stRp1367
ag1
(g1301
g1155
(dp1368
g62
g112
sg63
g201
sg64
g170
sg65
g196
sg66
g200
stRp1369
ag1
(g1301
g1155
(dp1370
g62
g112
sg63
g1140
sg64
g170
sg65
g1135
sg66
g1139
stRp1371
ag1
(g1301
g1155
(dp1372
g62
g74
sg63
g567
sg64
g339
sg65
g562
sg66
g566
stRp1373
ag1
(g1301
g1155
(dp1374
g62
g74
sg63
g446
sg64
g124
sg65
g441
sg66
g445
stRp1375
ag1
(g1301
g1155
(dp1376
g62
g74
sg63
g788
sg64
g659
sg65
g783
sg66
g787
stRp1377
ag1
(g1301
g1155
(dp1378
g62
g112
sg63
g178
sg64
g170
sg65
g173
sg66
g177
stRp1379
ag1
(g1301
g1155
(dp1380
g62
g112
sg63
g291
sg64
g182
sg65
g286
sg66
g290
stRp1381
ag1
(g1301
g1155
(dp1382
g62
g112
sg63
g633
sg64
g182
sg65
g628
sg66
g632
stRp1383
ag1
(g1301
g1155
(dp1384
g62
g74
sg63
g799
sg64
g339
sg65
g794
sg66
g798
stRp1385
ag1
(g1301
g1155
(dp1386
g62
g112
sg63
g655
sg64
g170
sg65
g650
sg66
g654
stRp1387
ag1
(g1301
g1155
(dp1388
g62
g112
sg63
g722
sg64
g111
sg65
g717
sg66
g721
stRp1389
ag1
(g1301
g1155
(dp1390
g62
g112
sg63
g909
sg64
g170
sg65
g904
sg66
g908
stRp1391
ag1
(g1301
g1155
(dp1392
g62
g112
sg63
g876
sg64
g227
sg65
g871
sg66
g875
stRp1393
ag1
(g1301
g1155
(dp1394
g62
g74
sg63
g280
sg64
g73
sg65
g275
sg66
g279
stRp1395
ag1
(g1301
g1155
(dp1396
g62
g74
sg63
g84
sg64
g73
sg65
g78
sg66
g83
stRp1397
ag1
(g1301
g1155
(dp1398
g62
g112
sg63
g1074
sg64
g182
sg65
g1069
sg66
g1073
stRp1399
ag1
(g1301
g1155
(dp1400
g62
g112
sg63
g832
sg64
g111
sg65
g827
sg66
g831
stRp1401
ag1
(g1301
g1155
(dp1402
g62
g112
sg63
g865
sg64
g182
sg65
g860
sg66
g864
stRp1403
ag1
(g1301
g1155
(dp1404
g62
g112
sg63
g1052
sg64
g170
sg65
g1047
sg66
g1051
stRp1405
ag1
(g1301
g1155
(dp1406
g62
g112
sg63
g986
sg64
g111
sg65
g981
sg66
g985
stRp1407
ag1
(g1301
g1155
(dp1408
g62
g74
sg63
g1096
sg64
g339
sg65
g1091
sg66
g1095
stRp1409
ag1
(g1301
g1155
(dp1410
g62
g74
sg63
g435
sg64
g250
sg65
g430
sg66
g434
stRp1411
ag1
(g1301
g1155
(dp1412
g62
g112
sg63
g402
sg64
g111
sg65
g397
sg66
g401
stRp1413
ag1
(g1301
g1155
(dp1414
g62
g112
sg63
g953
sg64
g170
sg65
g948
sg66
g952
stRp1415
ag1
(g1301
g1155
(dp1416
g62
g112
sg63
g931
sg64
g170
sg65
g926
sg66
g930
stRp1417
ag1
(g1301
g1155
(dp1418
g62
g74
sg63
g347
sg64
g339
sg65
g342
sg66
g346
stRp1419
ag1
(g1301
g1155
(dp1420
g62
g112
sg63
g501
sg64
g170
sg65
g496
sg66
g500
stRp1421
ag1
(g1301
g1155
(dp1422
g62
g112
sg63
g744
sg64
g170
sg65
g739
sg66
g743
stRp1423
ag1
(g1301
g1155
(dp1424
g62
g112
sg63
g324
sg64
g170
sg65
g319
sg66
g323
stRp1425
ag1
(g1301
g1155
(dp1426
g62
g74
sg63
g212
sg64
g124
sg65
g207
sg66
g211
stRp1427
ag1
(g1301
g1155
(dp1428
g62
g112
sg63
g269
sg64
g170
sg65
g264
sg66
g268
stRp1429
ag1
(g1301
g1155
(dp1430
g62
g74
sg63
g556
sg64
g250
sg65
g551
sg66
g555
stRp1431
ag1
(g1301
g1155
(dp1432
g62
g112
sg63
g246
sg64
g111
sg65
g241
sg66
g245
stRp1433
ag1
(g1301
g1155
(dp1434
g62
g74
sg63
g155
sg64
g136
sg65
g150
sg66
g154
stRp1435
ag1
(g1301
g1155
(dp1436
g62
g112
sg63
g964
sg64
g170
sg65
g959
sg66
g963
stRp1437
ag1
(g1301
g1155
(dp1438
g62
g112
sg63
g810
sg64
g182
sg65
g805
sg66
g809
stRp1439
ag1
(g1301
g1155
(dp1440
g62
g74
sg63
g898
sg64
g73
sg65
g893
sg66
g897
stRp1441
ag1
(g1301
g1155
(dp1442
g62
g112
sg63
g975
sg64
g170
sg65
g970
sg66
g974
stRp1443
ag1
(g1301
g1155
(dp1444
g62
g74
sg63
g479
sg64
g136
sg65
g474
sg66
g478
stRp1445
ag1
(g1301
g1155
(dp1446
g62
g74
sg63
g490
sg64
g124
sg65
g485
sg66
g489
stRp1447
ag1
(g1301
g1155
(dp1448
g62
g112
sg63
g235
sg64
g227
sg65
g230
sg66
g234
stRp1449
ag1
(g1301
g1155
(dp1450
g62
g112
sg63
g589
sg64
g170
sg65
g584
sg66
g588
stRp1451
ag1
(g1301
g1155
(dp1452
g62
g112
sg63
g120
sg64
g111
sg65
g115
sg66
g119
stRp1453
ag1
(g1301
g1155
(dp1454
g62
g74
sg63
g1085
sg64
g250
sg65
g1080
sg66
g1084
stRp1455
ag1
(g1301
g1155
(dp1456
g62
g74
sg63
g166
sg64
g136
sg65
g161
sg66
g165
stRp1457
ag1
(g1301
g1155
(dp1458
g62
g74
sg63
g545
sg64
g73
sg65
g540
sg66
g544
stRp1459
ag1
(g1301
g1155
(dp1460
g62
g112
sg63
g843
sg64
g170
sg65
g838
sg66
g842
stRp1461
ag1
(g1301
g1155
(dp1462
g62
g112
sg63
g1063
sg64
g111
sg65
g1058
sg66
g1062
stRp1463
ag1
(g1301
g1155
(dp1464
g62
g74
sg63
g223
sg64
g73
sg65
g218
sg66
g222
stRp1465
ag1
(g1301
g1155
(dp1466
g62
g112
sg63
g733
sg64
g182
sg65
g728
sg66
g732
stRp1467
ag1
(g1301
g1155
(dp1468
g62
g74
sg63
g700
sg64
g136
sg65
g695
sg66
g699
stRp1469
ag1
(g1301
g1155
(dp1470
g62
g112
sg63
g997
sg64
g182
sg65
g992
sg66
g996
stRp1471
ag1
(g1301
g1155
(dp1472
g62
g112
sg63
g369
sg64
g170
sg65
g364
sg66
g368
stRp1473
ag1
(g1301
g1155
(dp1474
g62
g74
sg63
g854
sg64
g250
sg65
g849
sg66
g853
stRp1475
ag1
(g1301
g1155
(dp1476
g62
g74
sg63
g777
sg64
g250
sg65
g772
sg66
g776
stRp1477
ag1
(g1301
g1155
(dp1478
g62
g74
sg63
g887
sg64
g124
sg65
g882
sg66
g886
stRp1479
ag1
(g1301
g1155
(dp1480
g62
g74
sg63
g413
sg64
g124
sg65
g408
sg66
g412
stRp1481
ag1
(g1301
g1155
(dp1482
g62
g112
sg63
g678
sg64
g182
sg65
g673
sg66
g677
stRp1483
ag1
(g1301
g1155
(dp1484
g62
g74
sg63
g258
sg64
g250
sg65
g253
sg66
g257
stRp1485
ag1
(g1301
g1155
(dp1486
g62
g74
sg63
g622
sg64
g124
sg65
g617
sg66
g621
stRp1487
ag1
(g1301
g1155
(dp1488
g62
g74
sg63
g942
sg64
g73
sg65
g937
sg66
g941
stRp1489
ag1
(g1301
g1155
(dp1490
g62
g112
sg63
g1030
sg64
g111
sg65
g1025
sg66
g1029
stRp1491
ag1
(g1301
g1155
(dp1492
g62
g112
sg63
g711
sg64
g182
sg65
g706
sg66
g710
stRp1493
asS'seed'
p1494
NsS'thisIndex'
p1495
g1137
sS'thisN'
p1496
I96
sS'thisTrialN'
p1497
I0
sS'nTotal'
p1498
I96
sS'_warnUseOfNext'
p1499
I01
sbasS'savePickle'
p1500
I00
sb.