ccopy_reg
_reconstructor
p1
(cpsychopy.data
ExperimentHandler
p2
c__builtin__
object
p3
NtRp4
(dp5
S'originPath'
p6
NsS'dataFileName'
p7
VC:\u005cDocuments and Settings\u005cExperimental user\u005cMy Documents\u005cconsciousness\u005cuncon_feat\u005cexperiment_scripts\u005cdata/pedro_Experiment_EEG_version_2019_may_15_1012
p8
sS'runtimeInfo'
p9
NsS'name'
p10
VExperiment_EEG_version
p11
sS'dataNames'
p12
(lp13
S'image_onset_time'
p14
aS'response_window'
p15
aS'correctAns'
p16
aS'probe_onset'
p17
aS'discrim_resptime'
p18
aS'response.corr'
p19
aS'response.keys'
p20
aS'response.rt'
p21
aS'visible_resptime'
p22
aS'visible.keys'
p23
aS'visible.corr'
p24
aS'visible.rt'
p25
aS'probeFrames'
p26
aS'jitter2'
p27
asS'autoLog'
p28
I01
sS'extraInfo'
p29
(dp30
Vn_square
p31
V32
p32
sVexperiment_color
p33
Vbw
p34
sS'frameRate'
p35
cnumpy.core.multiarray
scalar
p36
(cnumpy
dtype
p37
(S'f8'
I0
I1
tRp38
(I3
S'<'
NNNI-1
I-1
I0
tbS'\x9d\xeer\x83\xe1\xf1X@'
tRp39
sS'date'
p40
V2019_may_15_1012
p41
sVsession
p42
V012
p43
sVimage_size
p44
V256
p45
sVpremask_dur
p46
V20
p47
sVprobeFrames
p48
V5
sVparticipant
p49
Vpedro
p50
sS'expName'
p51
g11
sVpostmask_dur
p52
V20
p53
ssS'loopsUnfinished'
p54
(lp55
sS'saveWideText'
p56
I00
sS'thisEntry'
p57
(dp58
sS'version'
p59
S''
sS'_paramNamesSoFar'
p60
(lp61
S'category'
p62
aS'probe_path'
p63
aS'subcategory'
p64
aS'fixation_duration'
p65
aS'label'
p66
asS'entries'
p67
(lp68
(dp69
g31
g32
sg17
F3.7396240329835564
sg24
I0
sg35
g39
sg14
F3.7171898770029657
sg16
g36
(g37
(S'i4'
I0
I1
tRp70
(I3
S'<'
NNNI-1
I-1
I0
tbS'\x01\x00\x00\x00'
tRp71
sg42
g43
sg46
g47
sg15
S'V_nV'
p72
sg22
F5.76252434408525
sg64
VBirds
p73
sg62
VLiving_Things
p74
sg49
g50
sS'trials.thisN'
p75
I0
sg19
I1
sg27
g36
(g38
S'\x00\x00\x00\x00\x00\x00\x18@'
tRp76
sg52
g53
sg23
S'3'
sg18
F4.9998727511847392
sg33
g34
sg51
g11
sg20
S'1'
sg65
g36
(g37
(S'i8'
I0
I1
tRp77
(I3
S'<'
NNNI-1
I-1
I0
tbS'\x00\x00\x00\x00\x00\x00\x00\x00'
tRp78
sg44
g45
sg40
g41
sg25
F0.60155116679379717
sS'trials.thisIndex'
p79
g36
(g37
(S'i4'
I0
I1
tRp80
(I3
S'<'
NNNI-1
I-1
I0
tbS'"\x00\x00\x00'
tRp81
sg26
V5
sS'trials.thisRepN'
p82
I0
sg66
Vgoose
p83
sg63
V../experiment_stimuli/bw_bc_bl/Living_Things/Birds/goose_15.jpg
p84
sg21
F0.73180759104434401
sS'trials.thisTrialN'
p85
I0
sa(dp86
g31
g32
sg17
F8.1014205768587999
sg24
I0
sg35
g39
sg14
F8.0966931633884087
sg16
g36
(g70
S'\x02\x00\x00\x00'
tRp87
sg42
g43
sg46
g47
sg15
g72
sg22
F10.262048396398313
sg64
VKitchen_Uten
p88
sg62
VNonliving_Things
p89
sg49
g50
sS'trials.thisN'
p90
I1
sg19
I1
sg27
g36
(g38
S'\x00\x00\x00\x00\x00\x00\x18@'
tRp91
sg52
g53
sg23
S'3'
sg18
F9.349325219867751
sg33
g34
sg51
g11
sg20
S'2'
sg65
g36
(g77
S'\x00\x00\x00\x00\x00\x00\x00\x00'
tRp92
sg44
g45
sg40
g41
sg25
F0.62157062446931377
sS'trials.thisIndex'
p93
g36
(g80
S'\x1f\x00\x00\x00'
tRp94
sg26
V5
sS'trials.thisRepN'
p95
I0
sg66
Vfrying-pan
p96
sg63
V../experiment_stimuli/bw_bc_bl/Nonliving_Things/Kitchen_Uten/frying-pan_25.jpg
p97
sg21
F0.89216600835788995
sS'trials.thisTrialN'
p98
I1
sa(dp99
g31
g32
sg17
F12.621416945010424
sg24
I1
sg35
g39
sg14
F12.616526488680393
sg16
g36
(g70
S'\x02\x00\x00\x00'
tRp100
sg42
g43
sg46
g47
sg15
g72
sg22
F14.982324606913608
sg64
VVehicles
p101
sg62
g89
sg49
g50
sS'trials.thisN'
p102
I2
sg19
I1
sg27
g36
(g38
S'\x00\x00\x00\x00\x00\x00\x18@'
tRp103
sg52
g53
sg23
S'1'
sg18
F13.849100682418793
sg33
g34
sg51
g11
sg20
S'2'
sg65
g36
(g77
S'\x00\x00\x00\x00\x00\x00\x00\x00'
tRp104
sg44
g45
sg40
g41
sg25
F0.27080629457486793
sS'trials.thisIndex'
p105
g36
(g80
S'W\x00\x00\x00'
tRp106
sg26
V5
sS'trials.thisRepN'
p107
I0
sg66
Vtrain
p108
sg63
V../experiment_stimuli/bw_bc_bl/Nonliving_Things/Vehicles/train_8.jpg
p109
sg21
F1.1126644219039008
sS'trials.thisTrialN'
p110
I2
sa(dp111
g31
g32
sg17
F16.991031640092842
sg24
I0
sg35
g39
sg14
F16.986046703939792
sg16
g36
(g70
S'\x01\x00\x00\x00'
tRp112
sg42
g43
sg46
g47
sg15
g72
sg22
F18.850737596338149
sg64
VAnimals
p113
sg62
g74
sg49
g50
sS'trials.thisN'
p114
I3
sg19
I1
sg27
g36
(g38
S'\x00\x00\x00\x00\x00\x00\x18@'
tRp115
sg52
g53
sg23
S'3'
sg18
F18.248680323944427
sg33
g34
sg51
g11
sg20
S'1'
sg65
g36
(g77
S'\x00\x00\x00\x00\x00\x00\x00\x00'
tRp116
sg44
g45
sg40
g41
sg25
F0.28082893695682287
sS'trials.thisIndex'
p117
g36
(g80
S'0\x00\x00\x00'
tRp118
sg26
V5
sS'trials.thisRepN'
p119
I0
sg66
Vlioness
p120
sg63
V../experiment_stimuli/bw_bc_bl/Living_Things/Animals/lioness_11.jpg
p121
sg21
F0.58152676583267748
sS'trials.thisTrialN'
p122
I3
sa(dp123
g31
g32
sg17
F20.869943294790573
sg24
I1
sg35
g39
sg14
F20.864443054189906
sg16
g36
(g70
S'\x01\x00\x00\x00'
tRp124
sg42
g43
sg46
g47
sg15
g72
sg22
F23.009794991114177
sg64
VMarine_creatures
p125
sg62
g74
sg49
g50
sS'trials.thisN'
p126
I4
sg19
I0
sg27
g36
(g38
S'\x00\x00\x00\x00\x00\x00\x1a@'
tRp127
sg52
g53
sg23
S'1'
sg18
F22.107048652716912
sg33
g34
sg51
g11
sg20
S'2'
sg65
g36
(g77
S'\x00\x00\x00\x00\x00\x00\x00\x00'
tRp128
sg44
g45
sg40
g41
sg25
F0.18060912768123671
sS'trials.thisIndex'
p129
g36
(g80
S'P\x00\x00\x00'
tRp130
sg26
V5
sS'trials.thisRepN'
p131
I0
sg66
Vsperm-whale
p132
sg63
V../experiment_stimuli/bw_bc_bl/Living_Things/Marine_creatures/sperm-whale_18.jpg
p133
sg21
F0.88216613652184606
sS'trials.thisTrialN'
p134
I4
sa(dp135
g31
g32
sg17
F24.92817490408197
sg24
I0
sg35
g39
sg14
F24.923298628011253
sg16
g36
(g70
S'\x01\x00\x00\x00'
tRp136
sg42
g43
sg46
g47
sg15
g72
sg22
F26.928251801291481
sg64
g125
sg62
g74
sg49
g50
sS'trials.thisN'
p137
I5
sg19
I1
sg27
g36
(g38
S'\x00\x00\x00\x00\x00\x00 @'
tRp138
sg52
g53
sg23
S'2'
sg18
F26.195935210387688
sg33
g34
sg51
g11
sg20
S'1'
sg65
g36
(g77
S'\x00\x00\x00\x00\x00\x00\x00\x00'
tRp139
sg44
g45
sg40
g41
sg25
F0.20064801757689565
sS'trials.thisIndex'
p140
g36
(g80
S'7\x00\x00\x00'
tRp141
sg26
V5
sS'trials.thisRepN'
p142
I0
sg66
Vnarwhal
p143
sg63
V../experiment_stimuli/bw_bc_bl/Living_Things/Marine_creatures/narwhal_19.jpg
p144
sg21
F0.71177236631046981
sS'trials.thisTrialN'
p145
I5
sa(dp146
g31
g32
sg17
F28.866819605871569
sg24
I0
sg35
g39
sg14
F28.861843278631568
sg16
g36
(g70
S'\x01\x00\x00\x00'
tRp147
sg42
g43
sg46
g47
sg15
g72
sg22
F30.636326387757435
sg64
g73
sg62
g74
sg49
g50
sS'trials.thisN'
p148
I6
sg19
I1
sg27
g36
(g38
S'\x00\x00\x00\x00\x00\x00\x1a@'
tRp149
sg52
g53
sg23
S'2'
sg18
F30.124475774762686
sg33
g34
sg51
g11
sg20
S'1'
sg65
g36
(g77
S'\x00\x00\x00\x00\x00\x00\x00\x00'
tRp150
sg44
g45
sg40
g41
sg25
F0.15054232167312875
sS'trials.thisIndex'
p151
g36
(g80
S'J\x00\x00\x00'
tRp152
sg26
V5
sS'trials.thisRepN'
p153
I0
sg66
Vseagull
p154
sg63
V../experiment_stimuli/bw_bc_bl/Living_Things/Birds/seagull_22.jpg
p155
sg21
F0.49128836998715997
sS'trials.thisTrialN'
p156
I6
sa(dp157
g31
g32
sg17
F32.524631983425934
sg24
I1
sg35
g39
sg14
F32.519784488948062
sg16
g36
(g70
S'\x02\x00\x00\x00'
tRp158
sg42
g43
sg46
g47
sg15
g72
sg22
F34.635010470345151
sg64
VMusical_Inst
p159
sg62
g89
sg49
g50
sS'trials.thisN'
p160
I7
sg19
I0
sg27
g36
(g38
S'\x00\x00\x00\x00\x00\x00\x1a@'
tRp161
sg52
g53
sg23
S'1'
sg18
F33.772400158632081
sg33
g34
sg51
g11
sg20
S'1'
sg65
g36
(g77
S'\x00\x00\x00\x00\x00\x00\x00\x00'
tRp162
sg44
g45
sg40
g41
sg25
F0.18061189452419057
sS'trials.thisIndex'
p163
g36
(g80
S'>\x00\x00\x00'
tRp164
sg26
V5
sS'trials.thisRepN'
p165
I0
sg66
Vpiano
p166
sg63
V../experiment_stimuli/bw_bc_bl/Nonliving_Things/Musical_Inst/piano__10.jpg
p167
sg21
F0.84205550042679533
sS'trials.thisTrialN'
p168
I7
sa(dp169
g31
g32
sg17
F36.553341237537097
sg24
I0
sg35
g39
sg14
F36.548533629684243
sg16
g36
(g70
S'\x02\x00\x00\x00'
tRp170
sg42
g43
sg46
g47
sg15
g72
sg22
F38.403190504235681
sg64
g88
sg62
g89
sg49
g50
sS'trials.thisN'
p171
I8
sg19
I1
sg27
g36
(g38
S'\x00\x00\x00\x00\x00\x00\x18@'
tRp172
sg52
g53
sg23
S'3'
sg18
F37.831233511155006
sg33
g34
sg51
g11
sg20
S'2'
sg65
g36
(g77
S'\x00\x00\x00\x00\x00\x00\x00\x00'
tRp173
sg44
g45
sg40
g41
sg25
F0.18063681502826512
sS'trials.thisIndex'
p174
g36
(g80
S'B\x00\x00\x00'
tRp175
sg26
V5
sS'trials.thisRepN'
p176
I0
sg66
Vpot
p177
sg63
V../experiment_stimuli/bw_bc_bl/Nonliving_Things/Kitchen_Uten/pot_7.jpg
p178
sg21
F0.55142159905517474
sS'trials.thisTrialN'
p179
I8
sa(dp180
g31
g32
sg17
F40.321561052871402
sg24
I1
sg35
g39
sg14
F40.316721603332553
sg16
g36
(g70
S'\x02\x00\x00\x00'
tRp181
sg42
g43
sg46
g47
sg15
S'nV_V'
p182
sg22
F42.482099888671655
sg64
g125
sg62
g74
sg49
g50
sS'trials.thisN'
p183
I9
sg19
I1
sg27
g36
(g38
S'\x00\x00\x00\x00\x00\x00\x18@'
tRp184
sg52
g53
sg23
S'1'
sg18
F41.579370422579814
sg33
g34
sg51
g11
sg20
S'2'
sg65
g36
(g77
S'\x00\x00\x00\x00\x00\x00\x00\x00'
tRp185
sg44
g45
sg40
g41
sg25
F0.19064901757519692
sS'trials.thisIndex'
p186
g36
(g80
S'4\x00\x00\x00'
tRp187
sg26
V5
sS'trials.thisRepN'
p188
I0
sg66
Vmanatee
p189
sg63
V../experiment_stimuli/bw_bc_bl/Living_Things/Marine_creatures/manatee_19.jpg
p190
sg21
F0.88217186968540773
sS'trials.thisTrialN'
p191
I9
sa(dp192
g31
g32
sg17
F44.410497658478562
sg24
I0
sg35
g39
sg14
F44.405612856266089
sg16
g36
(g70
S'\x02\x00\x00\x00'
tRp193
sg42
g43
sg46
g47
sg15
g182
sg22
F46.570943905564491
sg64
g125
sg62
g74
sg49
g50
sS'trials.thisN'
p194
I10
sg19
I0
sg27
g36
(g38
S'\x00\x00\x00\x00\x00\x00\x1a@'
tRp195
sg52
g53
sg23
S'2'
sg18
F45.69833100028336
sg33
g34
sg51
g11
sg20
S'1'
sg65
g36
(g77
S'\x00\x00\x00\x00\x00\x00\x00\x00'
tRp196
sg44
g45
sg40
g41
sg25
F0.2107469477923587
sS'trials.thisIndex'
p197
g36
(g80
S'A\x00\x00\x00'
tRp198
sg26
V5
sS'trials.thisRepN'
p199
I0
sg66
Vpomfret
p200
sg63
V../experiment_stimuli/bw_bc_bl/Living_Things/Marine_creatures/pomfret_7.jpg
p201
sg21
F0.85207269177772105
sS'trials.thisTrialN'
p202
I10
sa(dp203
g31
g32
sg17
F48.520569228159729
sg24
I1
sg35
g39
sg14
F48.514541111479048
sg16
g36
(g70
S'\x01\x00\x00\x00'
tRp204
sg42
g43
sg46
g47
sg15
g72
sg22
F50.699924625514541
sg64
g113
sg62
g74
sg49
g50
sS'trials.thisN'
p205
I11
sg19
I0
sg27
g36
(g38
S'\x00\x00\x00\x00\x00\x00 @'
tRp206
sg52
g53
sg23
S'1'
sg18
F49.797248166170903
sg33
g34
sg51
g11
sg20
S'2'
sg65
g36
(g77
S'\x00\x00\x00\x00\x00\x00\x00\x00'
tRp207
sg44
g45
sg40
g41
sg25
F0.18063439795514569
sS'trials.thisIndex'
p208
g36
(g80
S'R\x00\x00\x00'
tRp209
sg26
V5
sS'trials.thisRepN'
p210
I0
sg66
Vtapir
p211
sg63
V../experiment_stimuli/bw_bc_bl/Living_Things/Animals/tapir_11.jpg
p212
sg21
F0.88214288157178089
sS'trials.thisTrialN'
p213
I11
sa(dp214
g31
g32
sg17
F52.61825862218393
sg24
I0
sg35
g39
sg14
F52.613445676048286
sg16
g36
(g70
S'\x02\x00\x00\x00'
tRp215
sg42
g43
sg46
g47
sg15
g72
sg22
F54.64850783161819
sg64
VFurniture
p216
sg62
g89
sg49
g50
sS'trials.thisN'
p217
I12
sg19
I1
sg27
g36
(g38
S'\x00\x00\x00\x00\x00\x00\x18@'
tRp218
sg52
g53
sg23
S'3'
sg18
F53.926208330027293
sg33
g34
sg51
g11
sg20
S'2'
sg65
g36
(g77
S'\x00\x00\x00\x00\x00\x00\x00\x00'
tRp219
sg44
g45
sg40
g41
sg25
F0.22054364602081478
sS'trials.thisIndex'
p220
g36
(g80
S'Q\x00\x00\x00'
tRp221
sg26
V5
sS'trials.thisRepN'
p222
I0
sg66
Vtable
p223
sg63
V../experiment_stimuli/bw_bc_bl/Nonliving_Things/Furniture/table_10.jpg
p224
sg21
F0.70175595727050677
sS'trials.thisTrialN'
p225
I12
sa(dp226
g31
g32
sg17
F56.607125897600781
sg24
I0
sg35
g39
sg14
F56.602119435439818
sg16
g36
(g70
S'\x02\x00\x00\x00'
tRp227
sg42
g43
sg46
g47
sg15
g182
sg22
F58.64720415067859
sg64
g73
sg62
g74
sg49
g50
sS'trials.thisN'
p228
I13
sg19
I1
sg27
g36
(g38
S'\x00\x00\x00\x00\x00\x00\x18@'
tRp229
sg52
g53
sg23
S'3'
sg18
F57.884822441148572
sg33
g34
sg51
g11
sg20
S'2'
sg65
g36
(g77
S'\x00\x00\x00\x00\x00\x00\x00\x00'
tRp230
sg44
g45
sg40
g41
sg25
F0.2006502166041173
sS'trials.thisIndex'
p231
g36
(g80
S';\x00\x00\x00'
tRp232
sg26
V5
sS'trials.thisRepN'
p233
I0
sg66
Vpartridge
p234
sg63
V../experiment_stimuli/bw_bc_bl/Living_Things/Birds/partridge_25.jpg
p235
sg21
F0.74184295465238392
sS'trials.thisTrialN'
p236
I13
sa(dp237
g31
g32
sg17
F60.58576675952645
sg24
I0
sg35
g39
sg14
F60.580774511676282
sg16
g36
(g70
S'\x01\x00\x00\x00'
tRp238
sg42
g43
sg46
g47
sg15
g182
sg22
F62.495610355050303
sg64
g159
sg62
g89
sg49
g50
sS'trials.thisN'
p239
I14
sg19
I1
sg27
g36
(g38
S'\x00\x00\x00\x00\x00\x00\x18@'
tRp240
sg52
g53
sg23
S'2'
sg18
F61.843422774458304
sg33
g34
sg51
g11
sg20
S'1'
sg65
g36
(g77
S'\x00\x00\x00\x00\x00\x00\x00\x00'
tRp241
sg44
g45
sg40
g41
sg25
F0.18060823652194813
sS'trials.thisIndex'
p242
g36
(g80
S'Y\x00\x00\x00'
tRp243
sg26
V5
sS'trials.thisRepN'
p244
I0
sg66
Vtuba
p245
sg63
V../experiment_stimuli/bw_bc_bl/Nonliving_Things/Musical_Inst/tuba_1.jpg
p246
sg21
F0.63162389007629827
sS'trials.thisTrialN'
p247
I14
sa(dp248
g31
g32
sg17
F64.413931216520723
sg24
I0
sg35
g39
sg14
F64.409098815638572
sg16
g36
(g70
S'\x02\x00\x00\x00'
tRp249
sg42
g43
sg46
g47
sg15
g182
sg22
F67.105598032241687
sg64
g73
sg62
g74
sg49
g50
sS'trials.thisN'
p250
I15
sg19
I1
sg27
g36
(g38
S'\x00\x00\x00\x00\x00\x00\x1e@'
tRp251
sg52
g53
sg23
S'2'
sg18
F65.661717801063787
sg33
g34
sg51
g11
sg20
S'2'
sg65
g36
(g77
S'\x00\x00\x00\x00\x00\x00\x00\x00'
tRp252
sg44
g45
sg40
g41
sg25
F0.2005004066741094
sS'trials.thisIndex'
p253
g36
(g80
S'<\x00\x00\x00'
tRp254
sg26
V5
sS'trials.thisRepN'
p255
I0
sg66
Vpelican
p256
sg63
V../experiment_stimuli/bw_bc_bl/Living_Things/Birds/pelican_0.jpg
p257
sg21
F1.4233199051814154
sS'trials.thisTrialN'
p258
I15
sa(dp259
g31
g32
sg17
F69.044813342450652
sg24
I1
sg35
g39
sg14
F69.039158295607194
sg16
g36
(g70
S'\x02\x00\x00\x00'
tRp260
sg42
g43
sg46
g47
sg15
g182
sg22
F70.974020687164739
sg64
g73
sg62
g74
sg49
g50
sS'trials.thisN'
p261
I16
sg19
I0
sg27
g36
(g38
S'\x00\x00\x00\x00\x00\x00\x18@'
tRp262
sg52
g53
sg23
S'1'
sg18
F70.281759206438437
sg33
g34
sg51
g11
sg20
S'1'
sg65
g36
(g77
S'\x00\x00\x00\x00\x00\x00\x00\x00'
tRp263
sg44
g45
sg40
g41
sg25
F0.19064598396653309
sS'trials.thisIndex'
p264
g36
(g80
S'*\x00\x00\x00'
tRp265
sg26
V5
sS'trials.thisRepN'
p266
I0
sg66
Vhummingbird
p267
sg63
V../experiment_stimuli/bw_bc_bl/Living_Things/Birds/hummingbird_17.jpg
p268
sg21
F0.67170304188039154
sS'trials.thisTrialN'
p269
I16
sa(dp270
g31
g32
sg17
F72.902440636768006
sg24
I0
sg35
g39
sg14
F72.897540755977388
sg16
g36
(g70
S'\x01\x00\x00\x00'
tRp271
sg42
g43
sg46
g47
sg15
g182
sg22
F75.604092230671085
sg64
g88
sg62
g89
sg49
g50
sS'trials.thisN'
p272
I17
sg19
I1
sg27
g36
(g38
S'\x00\x00\x00\x00\x00\x00\x18@'
tRp273
sg52
g53
sg23
S'2'
sg18
F74.150180098018609
sg33
g34
sg51
g11
sg20
S'1'
sg65
g36
(g77
S'\x00\x00\x00\x00\x00\x00\x00\x00'
tRp274
sg44
g45
sg40
g41
sg25
F0.18061224796110764
sS'trials.thisIndex'
p275
g36
(g80
S'S\x00\x00\x00'
tRp276
sg26
V5
sS'trials.thisRepN'
p277
I0
sg66
Vteapot
p278
sg63
V../experiment_stimuli/bw_bc_bl/Nonliving_Things/Kitchen_Uten/teapot_19.jpg
p279
sg21
F1.433346746605821
sS'trials.thisTrialN'
p280
I17
sa(dp281
g31
g32
sg17
F77.522446343442425
sg24
I1
sg35
g39
sg14
F77.517584010958672
sg16
g36
(g70
S'\x01\x00\x00\x00'
tRp282
sg42
g43
sg46
g47
sg15
g72
sg22
F79.442440312355757
sg64
g73
sg62
g74
sg49
g50
sS'trials.thisN'
p283
I18
sg19
I0
sg27
g36
(g38
S'\x00\x00\x00\x00\x00\x00\x18@'
tRp284
sg52
g53
sg23
S'1'
sg18
F78.760190598433837
sg33
g34
sg51
g11
sg20
S'2'
sg65
g36
(g77
S'\x00\x00\x00\x00\x00\x00\x00\x00'
tRp285
sg44
g45
sg40
g41
sg25
F0.11045782017754391
sS'trials.thisIndex'
p286
g36
(g80
S'U\x00\x00\x00'
tRp287
sg26
V5
sS'trials.thisRepN'
p288
I0
sg66
Vtoucan
p289
sg63
V../experiment_stimuli/bw_bc_bl/Living_Things/Birds/toucan_17.jpg
p290
sg21
F0.66168549750000238
sS'trials.thisTrialN'
p291
I18
sa(dp292
g31
g32
sg17
F81.291640464507509
sg24
I0
sg35
g39
sg14
F81.285774037241936
sg16
g36
(g70
S'\x02\x00\x00\x00'
tRp293
sg42
g43
sg46
g47
sg15
g182
sg22
F83.340741599502508
sg64
g113
sg62
g74
sg49
g50
sS'trials.thisN'
p294
I19
sg19
I1
sg27
g36
(g38
S'\x00\x00\x00\x00\x00\x00\x18@'
tRp295
sg52
g53
sg23
S'2'
sg18
F82.558453479723539
sg33
g34
sg51
g11
sg20
S'2'
sg65
g36
(g77
S'\x00\x00\x00\x00\x00\x00\x00\x00'
tRp296
sg44
g45
sg40
g41
sg25
F0.1505466935923323
sS'trials.thisIndex'
p297
g36
(g80
S'\x1b\x00\x00\x00'
tRp298
sg26
V5
sS'trials.thisRepN'
p299
I0
sg66
Velephant
p300
sg63
V../experiment_stimuli/bw_bc_bl/Living_Things/Animals/elephant_14.jpg
p301
sg21
F0.76172944821882993
sS'trials.thisTrialN'
p302
I19
sa(dp303
g31
g32
sg17
F85.229335480369627
sg24
I1
sg35
g39
sg14
F85.22433680400718
sg16
g36
(g70
S'\x01\x00\x00\x00'
tRp304
sg42
g43
sg46
g47
sg15
g182
sg22
F87.45982105913572
sg64
g159
sg62
g89
sg49
g50
sS'trials.thisN'
p305
I20
sg19
I1
sg27
g36
(g38
S'\x00\x00\x00\x00\x00\x00\x18@'
tRp306
sg52
g53
sg23
S'1'
sg18
F86.486982931499369
sg33
g34
sg51
g11
sg20
S'1'
sg65
g36
(g77
S'\x00\x00\x00\x00\x00\x00\x00\x00'
tRp307
sg44
g45
sg40
g41
sg25
F0.15053914877353236
sS'trials.thisIndex'
p308
g36
(g80
S'$\x00\x00\x00'
tRp309
sg26
V5
sS'trials.thisRepN'
p310
I0
sg66
Vguitar
p311
sg63
V../experiment_stimuli/bw_bc_bl/Nonliving_Things/Musical_Inst/guitar_15.jpg
p312
sg21
F0.95229164353804663
sS'trials.thisTrialN'
p313
I20
sa(dp314
g31
g32
sg17
F89.349657170358114
sg24
I1
sg35
g39
sg14
F89.343337366124615
sg16
g36
(g70
S'\x01\x00\x00\x00'
tRp315
sg42
g43
sg46
g47
sg15
g182
sg22
F91.53871649276698
sg64
VBuildings
p316
sg62
g89
sg49
g50
sS'trials.thisN'
p317
I21
sg19
I1
sg27
g36
(g38
S'\x00\x00\x00\x00\x00\x00\x18@'
tRp318
sg52
g53
sg23
S'1'
sg18
F90.615957347210497
sg33
g34
sg51
g11
sg20
S'1'
sg65
g36
(g77
S'\x00\x00\x00\x00\x00\x00\x00\x00'
tRp319
sg44
g45
sg40
g41
sg25
F0.1405414683977142
sS'trials.thisIndex'
p320
g36
(g80
S'\x1c\x00\x00\x00'
tRp321
sg26
V5
sS'trials.thisRepN'
p322
I0
sg66
Vfactory
p323
sg63
V../experiment_stimuli/bw_bc_bl/Nonliving_Things/Buildings/factory_3.jpg
p324
sg21
F0.90220822941046208
sS'trials.thisTrialN'
p325
I21
sa(dp326
g31
g32
sg17
F93.416958514426369
sg24
I0
sg35
g39
sg14
F93.412136091152206
sg16
g36
(g70
S'\x02\x00\x00\x00'
tRp327
sg42
g43
sg46
g47
sg15
g182
sg22
F95.256799886876252
sg64
g73
sg62
g74
sg49
g50
sS'trials.thisN'
p328
I22
sg19
I1
sg27
g36
(g38
S'\x00\x00\x00\x00\x00\x00\x18@'
tRp329
sg52
g53
sg23
S'2'
sg18
F94.694824972772039
sg33
g34
sg51
g11
sg20
S'2'
sg65
g36
(g77
S'\x00\x00\x00\x00\x00\x00\x00\x00'
tRp330
sg44
g45
sg40
g41
sg25
F0.15055264445254579
sS'trials.thisIndex'
p331
g36
(g80
S'!\x00\x00\x00'
tRp332
sg26
V5
sS'trials.thisRepN'
p333
I0
sg66
Vgoldfinch
p334
sg63
V../experiment_stimuli/bw_bc_bl/Living_Things/Birds/goldfinch_18.jpg
p335
sg21
F0.54142636229516938
sS'trials.thisTrialN'
p336
I22
sa(dp337
g31
g32
sg17
F97.145109824778046
sg24
I1
sg35
g39
sg14
F97.140243559726514
sg16
g36
(g70
S'\x01\x00\x00\x00'
tRp338
sg42
g43
sg46
g47
sg15
g182
sg22
F99.926938822958618
sg64
g159
sg62
g89
sg49
g50
sS'trials.thisN'
p339
I23
sg19
I1
sg27
g36
(g38
S'\x00\x00\x00\x00\x00\x00\x1e@'
tRp340
sg52
g53
sg23
S'1'
sg18
F98.412905912206043
sg33
g34
sg51
g11
sg20
S'1'
sg65
g36
(g77
S'\x00\x00\x00\x00\x00\x00\x00\x00'
tRp341
sg44
g45
sg40
g41
sg25
F0.15054749808041379
sS'trials.thisIndex'
p342
g36
(g80
S'\\\x00\x00\x00'
tRp343
sg26
V5
sS'trials.thisRepN'
p344
I0
sg66
Vviolin
p345
sg63
V../experiment_stimuli/bw_bc_bl/Nonliving_Things/Musical_Inst/violin_25.jpg
p346
sg21
F1.4934710960369557
sS'trials.thisTrialN'
p347
I23
sa(dp348
g31
g32
sg17
F101.8161377707147
sg24
I0
sg35
g39
sg14
F101.81042346154572
sg16
g36
(g70
S'\x01\x00\x00\x00'
tRp349
sg42
g43
sg46
g47
sg15
g182
sg22
F103.69517467560945
sg64
g101
sg62
g89
sg49
g50
sS'trials.thisN'
p350
I24
sg19
I1
sg27
g36
(g38
S'\x00\x00\x00\x00\x00\x00\x18@'
tRp351
sg52
g53
sg23
S'3'
sg18
F103.1131268274039
sg33
g34
sg51
g11
sg20
S'1'
sg65
g36
(g77
S'\x00\x00\x00\x00\x00\x00\x00\x00'
tRp352
sg44
g45
sg40
g41
sg25
F0.10043525689980015
sS'trials.thisIndex'
p353
g36
(g80
S'[\x00\x00\x00'
tRp354
sg26
V5
sS'trials.thisRepN'
p355
I0
sg66
Vvan
p356
sg63
V../experiment_stimuli/bw_bc_bl/Nonliving_Things/Vehicles/van_2.jpg
p357
sg21
F0.56144817330641672
sS'trials.thisTrialN'
p358
I24
sa(dp359
g31
g32
sg17
F105.53342122887261
sg24
I1
sg35
g39
sg14
F105.52850469417172
sg16
g36
(g70
S'\x02\x00\x00\x00'
tRp360
sg42
g43
sg46
g47
sg15
g72
sg22
F107.80404745438136
sg64
g101
sg62
g89
sg49
g50
sS'trials.thisN'
p361
I25
sg19
I1
sg27
g36
(g38
S'\x00\x00\x00\x00\x00\x00\x18@'
tRp362
sg52
g53
sg23
S'1'
sg18
F106.80114369362127
sg33
g34
sg51
g11
sg20
S'2'
sg65
g36
(g77
S'\x00\x00\x00\x00\x00\x00\x00\x00'
tRp363
sg44
g45
sg40
g41
sg25
F0.12049912742804736
sS'trials.thisIndex'
p364
g36
(g80
S'@\x00\x00\x00'
tRp365
sg26
V5
sS'trials.thisRepN'
p366
I0
sg66
Vplane
p367
sg63
V../experiment_stimuli/bw_bc_bl/Nonliving_Things/Vehicles/plane_9.jpg
p368
sg21
F0.98236155119957402
sS'trials.thisTrialN'
p369
I25
sa(dp370
g31
g32
sg17
F109.66412381170085
sg24
I0
sg35
g39
sg14
F109.6574456517119
sg16
g36
(g70
S'\x01\x00\x00\x00'
tRp371
sg42
g43
sg46
g47
sg15
g72
sg22
F111.93306652753381
sg64
g113
sg62
g74
sg49
g50
sS'trials.thisN'
p372
I26
sg19
I1
sg27
g36
(g38
S'\x00\x00\x00\x00\x00\x00\x18@'
tRp373
sg52
g53
sg23
S'3'
sg18
F110.96017982164631
sg33
g34
sg51
g11
sg20
S'1'
sg65
g36
(g77
S'\x00\x00\x00\x00\x00\x00\x00\x00'
tRp374
sg44
g45
sg40
g41
sg25
F0.23072531580692157
sS'trials.thisIndex'
p375
g36
(g80
S'_\x00\x00\x00'
tRp376
sg26
V5
sS'trials.thisRepN'
p377
I0
sg66
Vzebra
p378
sg63
V../experiment_stimuli/bw_bc_bl/Living_Things/Animals/zebra_9.jpg
p379
sg21
F0.94229645223822445
sS'trials.thisTrialN'
p380
I26
sa(dp381
g31
g32
sg17
F113.90150553558487
sg24
I0
sg35
g39
sg14
F113.89666731911711
sg16
g36
(g70
S'\x02\x00\x00\x00'
tRp382
sg42
g43
sg46
g47
sg15
g182
sg22
F116.49294506525621
sg64
g73
sg62
g74
sg49
g50
sS'trials.thisN'
p383
I27
sg19
I1
sg27
g36
(g38
S'\x00\x00\x00\x00\x00\x00\x18@'
tRp384
sg52
g53
sg23
S'3'
sg18
F115.16934031056007
sg33
g34
sg51
g11
sg20
S'2'
sg65
g36
(g77
S'\x00\x00\x00\x00\x00\x00\x00\x00'
tRp385
sg44
g45
sg40
g41
sg25
F0.13050040922826156
sS'trials.thisIndex'
p386
g36
(g80
S',\x00\x00\x00'
tRp387
sg26
V5
sS'trials.thisRepN'
p388
I0
sg66
Vkiwi
p389
sg63
V../experiment_stimuli/bw_bc_bl/Living_Things/Birds/kiwi_24.jpg
p390
sg21
F1.3030603532679379
sS'trials.thisTrialN'
p391
I27
sa(dp392
g31
g32
sg17
F118.36118529777741
sg24
I1
sg35
g39
sg14
F118.35637422773289
sg16
g36
(g70
S'\x02\x00\x00\x00'
tRp393
sg42
g43
sg46
g47
sg15
g182
sg22
F120.37122311996063
sg64
g125
sg62
g74
sg49
g50
sS'trials.thisN'
p394
I28
sg19
I1
sg27
g36
(g38
S'\x00\x00\x00\x00\x00\x00\x1e@'
tRp395
sg52
g53
sg23
S'1'
sg18
F119.59896261600079
sg33
g34
sg51
g11
sg20
S'2'
sg65
g36
(g77
S'\x00\x00\x00\x00\x00\x00\x00\x00'
tRp396
sg44
g45
sg40
g41
sg25
F0.07039441290544346
sS'trials.thisIndex'
p397
g36
(g80
S'+\x00\x00\x00'
tRp398
sg26
V5
sS'trials.thisRepN'
p399
I0
sg66
Vkiller-whale
p400
sg63
V../experiment_stimuli/bw_bc_bl/Living_Things/Marine_creatures/killer-whale_26.jpg
p401
sg21
F0.75170186604373157
sS'trials.thisTrialN'
p402
I28
sa(dp403
g31
g32
sg17
F122.17948618927039
sg24
I1
sg35
g39
sg14
F122.17465839732904
sg16
g36
(g70
S'\x02\x00\x00\x00'
tRp404
sg42
g43
sg46
g47
sg15
g72
sg22
F124.29991877631983
sg64
VTools
p405
sg62
g89
sg49
g50
sS'trials.thisN'
p406
I29
sg19
I1
sg27
g36
(g38
S'\x00\x00\x00\x00\x00\x00\x1a@'
tRp407
sg52
g53
sg23
S'1'
sg18
F123.43730422802037
sg33
g34
sg51
g11
sg20
S'2'
sg65
g36
(g77
S'\x00\x00\x00\x00\x00\x00\x00\x00'
tRp408
sg44
g45
sg40
g41
sg25
F0.12115359219023958
sS'trials.thisIndex'
p409
g36
(g80
S'%\x00\x00\x00'
tRp410
sg26
V5
sS'trials.thisRepN'
p411
I0
sg66
Vhammer
p412
sg63
V../experiment_stimuli/bw_bc_bl/Nonliving_Things/Tools/hammer_2.jpg
p413
sg21
F0.84205386531539261
sS'trials.thisTrialN'
p414
I29
sa(dp415
g31
g32
sg17
F126.15901583153754
sg24
I0
sg35
g39
sg14
F126.15331349964254
sg16
g36
(g70
S'\x02\x00\x00\x00'
tRp416
sg42
g43
sg46
g47
sg15
g182
sg22
F128.70950265805004
sg64
g73
sg62
g74
sg49
g50
sS'trials.thisN'
p417
I30
sg19
I1
sg27
g36
(g38
S'\x00\x00\x00\x00\x00\x00\x18@'
tRp418
sg52
g53
sg23
S'2'
sg18
F127.43600031005917
sg33
g34
sg51
g11
sg20
S'2'
sg65
g36
(g77
S'\x00\x00\x00\x00\x00\x00\x00\x00'
tRp419
sg44
g45
sg40
g41
sg25
F0.3710563926724717
sS'trials.thisIndex'
p420
g36
(g80
S'O\x00\x00\x00'
tRp421
sg26
V5
sS'trials.thisRepN'
p422
I0
sg66
Vsparrow
p423
sg63
V../experiment_stimuli/bw_bc_bl/Living_Things/Birds/sparrow_6.jpg
p424
sg21
F1.252942991850432
sS'trials.thisTrialN'
p425
I30
sa(dp426
g31
g32
sg17
F130.82008809683612
sg24
I1
sg35
g39
sg14
F130.81343743629986
sg16
g36
(g70
S'\x01\x00\x00\x00'
tRp427
sg42
g43
sg46
g47
sg15
g72
sg22
F132.98884022858692
sg64
g73
sg62
g74
sg49
g50
sS'trials.thisN'
p428
I31
sg19
I0
sg27
g36
(g38
S'\x00\x00\x00\x00\x00\x00\x1e@'
tRp429
sg52
g53
sg23
S'1'
sg18
F132.08611164218746
sg33
g34
sg51
g11
sg20
S'2'
sg65
g36
(g77
S'\x00\x00\x00\x00\x00\x00\x00\x00'
tRp430
sg44
g45
sg40
g41
sg25
F0.11045131291029975
sS'trials.thisIndex'
p431
g36
(g80
S'\x1a\x00\x00\x00'
tRp432
sg26
V5
sS'trials.thisRepN'
p433
I0
sg66
Vduck
p434
sg63
V../experiment_stimuli/bw_bc_bl/Living_Things/Birds/duck_18.jpg
p435
sg21
F0.88216450536856428
sS'trials.thisTrialN'
p436
I31
sa(dp437
g31
g32
sg17
F134.83725401211996
sg24
I0
sg35
g39
sg14
F134.83218372386182
sg16
g36
(g70
S'\x01\x00\x00\x00'
tRp438
sg42
g43
sg46
g47
sg15
g182
sg22
F137.75917481241049
sg64
g159
sg62
g89
sg49
g50
sS'trials.thisN'
p439
I32
sg19
I1
sg27
g36
(g38
S'\x00\x00\x00\x00\x00\x00 @'
tRp440
sg52
g53
sg23
S'3'
sg18
F136.12488797371043
sg33
g34
sg51
g11
sg20
S'1'
sg65
g36
(g77
S'\x00\x00\x00\x00\x00\x00\x00\x00'
tRp441
sg44
g45
sg40
g41
sg25
F1.262973265722394
sS'trials.thisIndex'
p442
g36
(g80
S'\x19\x00\x00\x00'
tRp443
sg26
V5
sS'trials.thisRepN'
p444
I0
sg66
Vdrum
p445
sg63
V../experiment_stimuli/bw_bc_bl/Nonliving_Things/Musical_Inst/drum_19.jpg
p446
sg21
F1.6137264153221622
sS'trials.thisTrialN'
p447
I32
sa(dp448
g31
g32
sg17
F140.75994116411312
sg24
I0
sg35
g39
sg14
F140.75505151593825
sg16
g36
(g70
S'\x01\x00\x00\x00'
tRp449
sg42
g43
sg46
g47
sg15
g72
sg22
F142.97050341888098
sg64
g113
sg62
g74
sg49
g50
sS'trials.thisN'
p450
I33
sg19
I1
sg27
g36
(g38
S'\x00\x00\x00\x00\x00\x00\x1a@'
tRp451
sg52
g53
sg23
S'2'
sg18
F142.01769741036696
sg33
g34
sg51
g11
sg20
S'1'
sg65
g36
(g77
S'\x00\x00\x00\x00\x00\x00\x00\x00'
tRp452
sg44
g45
sg40
g41
sg25
F0.13034299795981497
sS'trials.thisIndex'
p453
g36
(g80
S"'\x00\x00\x00"
tRp454
sg26
V5
sS'trials.thisRepN'
p455
I0
sg66
Vhippopotamus
p456
sg63
V../experiment_stimuli/bw_bc_bl/Living_Things/Animals/hippopotamus_5.jpg
p457
sg21
F0.93225072394125164
sS'trials.thisTrialN'
p458
I33
sa(dp459
g31
g32
sg17
F144.83890454418724
sg24
I1
sg35
g39
sg14
F144.83391624718206
sg16
g36
(g70
S'\x02\x00\x00\x00'
tRp460
sg42
g43
sg46
g47
sg15
g72
sg22
F146.81890834541991
sg64
g88
sg62
g89
sg49
g50
sS'trials.thisN'
p461
I34
sg19
I1
sg27
g36
(g38
S'\x00\x00\x00\x00\x00\x00\x18@'
tRp462
sg52
g53
sg23
S'1'
sg18
F146.08654431119794
sg33
g34
sg51
g11
sg20
S'2'
sg65
g36
(g77
S'\x00\x00\x00\x00\x00\x00\x00\x00'
tRp463
sg44
g45
sg40
g41
sg25
F0.090439674735534936
sS'trials.thisIndex'
p464
g36
(g80
S'\x16\x00\x00\x00'
tRp465
sg26
V5
sS'trials.thisRepN'
p466
I0
sg66
Vcup
p467
sg63
V../experiment_stimuli/bw_bc_bl/Nonliving_Things/Kitchen_Uten/cup_6.jpg
p468
sg21
F0.71179671573918313
sS'trials.thisTrialN'
p469
I34
sa(dp470
g31
g32
sg17
F148.64712690294255
sg24
I1
sg35
g39
sg14
F148.64219643612159
sg16
g36
(g70
S'\x02\x00\x00\x00'
tRp471
sg42
g43
sg46
g47
sg15
g182
sg22
F151.00797558465274
sg64
g113
sg62
g74
sg49
g50
sS'trials.thisN'
p472
I35
sg19
I1
sg27
g36
(g38
S'\x00\x00\x00\x00\x00\x00\x18@'
tRp473
sg52
g53
sg23
S'1'
sg18
F149.90484946942888
sg33
g34
sg51
g11
sg20
S'2'
sg65
g36
(g77
S'\x00\x00\x00\x00\x00\x00\x00\x00'
tRp474
sg44
g45
sg40
g41
sg25
F0.090415039507206529
sS'trials.thisIndex'
p475
g36
(g80
S'\r\x00\x00\x00'
tRp476
sg26
V5
sS'trials.thisRepN'
p477
I0
sg66
Vcat
p478
sg63
V../experiment_stimuli/bw_bc_bl/Living_Things/Animals/cat_7.jpg
p479
sg21
F1.0825806049979292
sS'trials.thisTrialN'
p480
I35
sa(dp481
g31
g32
sg17
F152.83648853295017
sg24
I1
sg35
g39
sg14
F152.83130513346987
sg16
g36
(g70
S'\x02\x00\x00\x00'
tRp482
sg42
g43
sg46
g47
sg15
g182
sg22
F155.09685195807833
sg64
g113
sg62
g74
sg49
g50
sS'trials.thisN'
p483
I36
sg19
I1
sg27
g36
(g38
S'\x00\x00\x00\x00\x00\x00\x18@'
tRp484
sg52
g53
sg23
S'1'
sg18
F154.12401680031326
sg33
g34
sg51
g11
sg20
S'2'
sg65
g36
(g77
S'\x00\x00\x00\x00\x00\x00\x00\x00'
tRp485
sg44
g45
sg40
g41
sg25
F0.090409002383239567
sS'trials.thisIndex'
p486
g36
(g80
S'\x10\x00\x00\x00'
tRp487
sg26
V5
sS'trials.thisRepN'
p488
I0
sg66
Vcheetah
p489
sg63
V../experiment_stimuli/bw_bc_bl/Living_Things/Animals/cheetah_0.jpg
p490
sg21
F0.95229007210582495
sS'trials.thisTrialN'
p491
I36
sa(dp492
g31
g32
sg17
F156.92607189982664
sg24
I1
sg35
g39
sg14
F156.92019765701843
sg16
g36
(g70
S'\x02\x00\x00\x00'
tRp493
sg42
g43
sg46
g47
sg15
g72
sg22
F159.34613847383298
sg64
g405
sg62
g89
sg49
g50
sS'trials.thisN'
p494
I37
sg19
I1
sg27
g36
(g38
S'\x00\x00\x00\x00\x00\x00\x1e@'
tRp495
sg52
g53
sg23
S'1'
sg18
F158.23294783750316
sg33
g34
sg51
g11
sg20
S'2'
sg65
g36
(g77
S'\x00\x00\x00\x00\x00\x00\x00\x00'
tRp496
sg44
g45
sg40
g41
sg25
F0.14053776528453454
sS'trials.thisIndex'
p497
g36
(g80
S'\x03\x00\x00\x00'
tRp498
sg26
V5
sS'trials.thisRepN'
p499
I0
sg66
Vaxe
p500
sg63
V../experiment_stimuli/bw_bc_bl/Nonliving_Things/Tools/axe_23.jpg
p501
sg21
F1.0926274120574817
sS'trials.thisTrialN'
p502
I37
sa(dp503
g31
g32
sg17
F161.22442354034865
sg24
I1
sg35
g39
sg14
F161.21953629056225
sg16
g36
(g70
S'\x02\x00\x00\x00'
tRp504
sg42
g43
sg46
g47
sg15
g72
sg22
F163.20448126166593
sg64
g216
sg62
g89
sg49
g50
sS'trials.thisN'
p505
I38
sg19
I1
sg27
g36
(g38
S'\x00\x00\x00\x00\x00\x00\x18@'
tRp506
sg52
g53
sg23
S'1'
sg18
F162.54232088761637
sg33
g34
sg51
g11
sg20
S'2'
sg65
g36
(g77
S'\x00\x00\x00\x00\x00\x00\x00\x00'
tRp507
sg44
g45
sg40
g41
sg25
F0.12065169704146683
sS'trials.thisIndex'
p508
g36
(g80
S'/\x00\x00\x00'
tRp509
sg26
V5
sS'trials.thisRepN'
p510
I0
sg66
Vlectern
p511
sg63
V../experiment_stimuli/bw_bc_bl/Nonliving_Things/Furniture/lectern_20.jpg
p512
sg21
F0.6416210702736862
sS'trials.thisTrialN'
p513
I38
sa(dp514
g31
g32
sg17
F165.06580394302728
sg24
I0
sg35
g39
sg14
F165.05795768694952
sg16
g36
(g70
S'\x02\x00\x00\x00'
tRp515
sg42
g43
sg46
g47
sg15
g182
sg22
F167.47375464189099
sg64
g125
sg62
g74
sg49
g50
sS'trials.thisN'
p516
I39
sg19
I1
sg27
g36
(g38
S'\x00\x00\x00\x00\x00\x00\x1a@'
tRp517
sg52
g53
sg23
S'3'
sg18
F166.39068893861258
sg33
g34
sg51
g11
sg20
S'2'
sg65
g36
(g77
S'\x00\x00\x00\x00\x00\x00\x00\x00'
tRp518
sg44
g45
sg40
g41
sg25
F0.1706110488739796
sS'trials.thisIndex'
p519
g36
(g80
S'\x15\x00\x00\x00'
tRp520
sg26
V5
sS'trials.thisRepN'
p521
I0
sg66
Vcrab
p522
sg63
V../experiment_stimuli/bw_bc_bl/Living_Things/Marine_creatures/crab_26.jpg
p523
sg21
F1.0625347793102264
sS'trials.thisTrialN'
p524
I39
sa(dp525
g31
g32
sg17
F169.38420515711186
sg24
I1
sg35
g39
sg14
F169.37726998218568
sg16
g36
(g70
S'\x01\x00\x00\x00'
tRp526
sg42
g43
sg46
g47
sg15
g72
sg22
F171.38230353023391
sg64
g73
sg62
g74
sg49
g50
sS'trials.thisN'
p527
I40
sg19
I0
sg27
g36
(g38
S'\x00\x00\x00\x00\x00\x00\x18@'
tRp528
sg52
g53
sg23
S'1'
sg18
F170.69003418891225
sg33
g34
sg51
g11
sg20
S'2'
sg65
g36
(g77
S'\x00\x00\x00\x00\x00\x00\x00\x00'
tRp529
sg44
g45
sg40
g41
sg25
F0.090436640719417483
sS'trials.thisIndex'
p530
g36
(g80
S'8\x00\x00\x00'
tRp531
sg26
V5
sS'trials.thisRepN'
p532
I0
sg66
Vostrich
p533
sg63
V../experiment_stimuli/bw_bc_bl/Living_Things/Birds/ostrich_11.jpg
p534
sg21
F0.6717057220521383
sS'trials.thisTrialN'
p535
I40
sa(dp536
g31
g32
sg17
F173.21048656950006
sg24
I0
sg35
g39
sg14
F173.20559563592542
sg16
g36
(g70
S'\x01\x00\x00\x00'
tRp537
sg42
g43
sg46
g47
sg15
g182
sg22
F175.29077976901317
sg64
g316
sg62
g89
sg49
g50
sS'trials.thisN'
p538
I41
sg19
I1
sg27
g36
(g38
S'\x00\x00\x00\x00\x00\x00\x18@'
tRp539
sg52
g53
sg23
S'3'
sg18
F174.54841695714276
sg33
g34
sg51
g11
sg20
S'1'
sg65
g36
(g77
S'\x00\x00\x00\x00\x00\x00\x00\x00'
tRp540
sg44
g45
sg40
g41
sg25
F0.12050892825936899
sS'trials.thisIndex'
p541
g36
(g80
S'\x0c\x00\x00\x00'
tRp542
sg26
V5
sS'trials.thisRepN'
p543
I0
sg66
Vcastle
p544
sg63
V../experiment_stimuli/bw_bc_bl/Nonliving_Things/Buildings/castle_1.jpg
p545
sg21
F0.72179620020324364
sS'trials.thisTrialN'
p546
I41
sa(dp547
g31
g32
sg17
F177.15015247475822
sg24
I0
sg35
g39
sg14
F177.14415807940532
sg16
g36
(g70
S'\x01\x00\x00\x00'
tRp548
sg42
g43
sg46
g47
sg15
g182
sg22
F179.03893698443426
sg64
g216
sg62
g89
sg49
g50
sS'trials.thisN'
p549
I42
sg19
I1
sg27
g36
(g38
S'\x00\x00\x00\x00\x00\x00\x18@'
tRp550
sg52
g53
sg23
S'3'
sg18
F178.45691057556542
sg33
g34
sg51
g11
sg20
S'1'
sg65
g36
(g77
S'\x00\x00\x00\x00\x00\x00\x00\x00'
tRp551
sg44
g45
sg40
g41
sg25
F0.15054873115150258
sS'trials.thisIndex'
p552
g36
(g80
S'\x1d\x00\x00\x00'
tRp553
sg26
V5
sS'trials.thisRepN'
p554
I0
sg66
Vfilling-cabinet
p555
sg63
V../experiment_stimuli/bw_bc_bl/Nonliving_Things/Furniture/filling-cabinet_13.jpg
p556
sg21
F0.56147739093285054
sS'trials.thisTrialN'
p557
I42
sa(dp558
g31
g32
sg17
F180.92833289538976
sg24
I1
sg35
g39
sg14
F180.92238506325521
sg16
g36
(g70
S'\x02\x00\x00\x00'
tRp559
sg42
g43
sg46
g47
sg15
g182
sg22
F183.33812192484038
sg64
VInsects
p560
sg62
g74
sg49
g50
sS'trials.thisN'
p561
I43
sg19
I1
sg27
g36
(g38
S'\x00\x00\x00\x00\x00\x00\x18@'
tRp562
sg52
g53
sg23
S'1'
sg18
F182.20506446773652
sg33
g34
sg51
g11
sg20
S'2'
sg65
g36
(g77
S'\x00\x00\x00\x00\x00\x00\x00\x00'
tRp563
sg44
g45
sg40
g41
sg25
F0.12033064867137
sS'trials.thisIndex'
p564
g36
(g80
S'I\x00\x00\x00'
tRp565
sg26
V5
sS'trials.thisRepN'
p566
I0
sg66
Vscorpion
p567
sg63
V../experiment_stimuli/bw_bc_bl/Living_Things/Insects/scorpion_16.jpg
p568
sg21
F1.1124805036815815
sS'trials.thisTrialN'
p569
I43
sa(dp570
g31
g32
sg17
F185.19667037925683
sg24
I1
sg35
g39
sg14
F185.1916513608885
sg16
g36
(g70
S'\x01\x00\x00\x00'
tRp571
sg42
g43
sg46
g47
sg15
g72
sg22
F187.50734259124147
sg64
g113
sg62
g74
sg49
g50
sS'trials.thisN'
p572
I44
sg19
I0
sg27
g36
(g38
S'\x00\x00\x00\x00\x00\x00\x1a@'
tRp573
sg52
g53
sg23
S'1'
sg18
F186.50440643599723
sg33
g34
sg51
g11
sg20
S'2'
sg65
g36
(g77
S'\x00\x00\x00\x00\x00\x00\x00\x00'
tRp574
sg44
g45
sg40
g41
sg25
F1.0424905586405657
sS'trials.thisIndex'
p575
g36
(g80
S'2\x00\x00\x00'
tRp576
sg26
V5
sS'trials.thisRepN'
p577
I0
sg66
Vlynx
p578
sg63
V../experiment_stimuli/bw_bc_bl/Living_Things/Animals/lynx_3.jpg
p579
sg21
F0.98238236689940095
sS'trials.thisTrialN'
p580
I44
sa(dp581
g31
g32
sg17
F190.28787715715589
sg24
I0
sg35
g39
sg14
F190.28271513694199
sg16
g36
(g70
S'\x01\x00\x00\x00'
tRp582
sg42
g43
sg46
g47
sg15
g182
sg22
F192.87898527015932
sg64
g88
sg62
g89
sg49
g50
sS'trials.thisN'
p583
I45
sg19
I1
sg27
g36
(g38
S'\x00\x00\x00\x00\x00\x00\x18@'
tRp584
sg52
g53
sg23
S'3'
sg18
F191.61552195885452
sg33
g34
sg51
g11
sg20
S'1'
sg65
g36
(g77
S'\x00\x00\x00\x00\x00\x00\x00\x00'
tRp585
sg44
g45
sg40
g41
sg25
F0.15054851706372574
sS'trials.thisIndex'
p586
g36
(g80
S'\x1e\x00\x00\x00'
tRp587
sg26
V5
sS'trials.thisRepN'
p588
I0
sg66
Vfondue
p589
sg63
V../experiment_stimuli/bw_bc_bl/Nonliving_Things/Kitchen_Uten/fondue_10.jpg
p590
sg21
F1.2429298008210026
sS'trials.thisTrialN'
p591
I45
sa(dp592
g31
g32
sg17
F194.76727288513212
sg24
I0
sg35
g39
sg14
F194.76247226964915
sg16
g36
(g70
S'\x02\x00\x00\x00'
tRp593
sg42
g43
sg46
g47
sg15
g72
sg22
F197.0480701791239
sg64
g216
sg62
g89
sg49
g50
sS'trials.thisN'
p594
I46
sg19
I1
sg27
g36
(g38
S'\x00\x00\x00\x00\x00\x00\x18@'
tRp595
sg52
g53
sg23
S'3'
sg18
F196.07521703303792
sg33
g34
sg51
g11
sg20
S'2'
sg65
g36
(g77
S'\x00\x00\x00\x00\x00\x00\x00\x00'
tRp596
sg44
g45
sg40
g41
sg25
F0.17060735361883417
sS'trials.thisIndex'
p597
g36
(g80
S'.\x00\x00\x00'
tRp598
sg26
V5
sS'trials.thisRepN'
p599
I0
sg66
Vlamp
p600
sg63
V../experiment_stimuli/bw_bc_bl/Nonliving_Things/Furniture/lamp_12.jpg
p601
sg21
F0.95228963240515441
sS'trials.thisTrialN'
p602
I46
sa(dp603
g31
g32
sg17
F198.95753240416525
sg24
I0
sg35
g39
sg14
F198.95156503096223
sg16
g36
(g70
S'\x02\x00\x00\x00'
tRp604
sg42
g43
sg46
g47
sg15
g72
sg22
F201.648074578261
sg64
g316
sg62
g89
sg49
g50
sS'trials.thisN'
p605
I47
sg19
I1
sg27
g36
(g38
S'\x00\x00\x00\x00\x00\x00\x1a@'
tRp606
sg52
g53
sg23
S'2'
sg18
F200.2442847241764
sg33
g34
sg51
g11
sg20
S'2'
sg65
g36
(g77
S'\x00\x00\x00\x00\x00\x00\x00\x00'
tRp607
sg44
g45
sg40
g41
sg25
F0.63160126633010805
sS'trials.thisIndex'
p608
g36
(g80
S'#\x00\x00\x00'
tRp609
sg26
V5
sS'trials.thisRepN'
p610
I0
sg66
Vgranary
p611
sg63
V../experiment_stimuli/bw_bc_bl/Nonliving_Things/Buildings/granary_20.jpg
p612
sg21
F1.3832364269765094
sS'trials.thisTrialN'
p613
I47
sa(dp614
g31
g32
sg17
F204.01863812084775
sg24
I1
sg35
g39
sg14
F204.01259398541879
sg16
g36
(g70
S'\x02\x00\x00\x00'
tRp615
sg42
g43
sg46
g47
sg15
g72
sg22
F206.40841348207323
sg64
g216
sg62
g89
sg49
g50
sS'trials.thisN'
p616
I48
sg19
I0
sg27
g36
(g38
S'\x00\x00\x00\x00\x00\x00 @'
tRp617
sg52
g53
sg23
S'1'
sg18
F205.29526099911891
sg33
g34
sg51
g11
sg20
S'1'
sg65
g36
(g77
S'\x00\x00\x00\x00\x00\x00\x00\x00'
tRp618
sg44
g45
sg40
g41
sg25
F0.14052048738813028
sS'trials.thisIndex'
p619
g36
(g80
S'\x00\x00\x00\x00'
tRp620
sg26
V5
sS'trials.thisRepN'
p621
I0
sg66
VChest-of-drawers
p622
sg63
V../experiment_stimuli/bw_bc_bl/Nonliving_Things/Furniture/Chest-of-drawers_8.jpg
p623
sg21
F1.0926061943173409
sS'trials.thisTrialN'
p624
I48
sa(dp625
g31
g32
sg17
F208.28693740192102
sg24
I0
sg35
g39
sg14
F208.28184775693808
sg16
g36
(g70
S'\x02\x00\x00\x00'
tRp626
sg42
g43
sg46
g47
sg15
g72
sg22
F210.44703022547765
sg64
g316
sg62
g89
sg49
g50
sS'trials.thisN'
p627
I49
sg19
I1
sg27
g36
(g38
S'\x00\x00\x00\x00\x00\x00 @'
tRp628
sg52
g53
sg23
S'3'
sg18
F209.57455833716085
sg33
g34
sg51
g11
sg20
S'2'
sg65
g36
(g77
S'\x00\x00\x00\x00\x00\x00\x00\x00'
tRp629
sg44
g45
sg40
g41
sg25
F0.16057308024028316
sS'trials.thisIndex'
p630
g36
(g80
S'\x11\x00\x00\x00'
tRp631
sg26
V5
sS'trials.thisRepN'
p632
I0
sg66
Vchurch
p633
sg63
V../experiment_stimuli/bw_bc_bl/Nonliving_Things/Buildings/church_2.jpg
p634
sg21
F0.85191545338602737
sS'trials.thisTrialN'
p635
I49
sa(dp636
g31
g32
sg17
F212.34559194144094
sg24
I0
sg35
g39
sg14
F212.34068777103676
sg16
g36
(g70
S'\x02\x00\x00\x00'
tRp637
sg42
g43
sg46
g47
sg15
g72
sg22
F214.48597448336659
sg64
g216
sg62
g89
sg49
g50
sS'trials.thisN'
p638
I50
sg19
I1
sg27
g36
(g38
S'\x00\x00\x00\x00\x00\x00\x1a@'
tRp639
sg52
g53
sg23
S'3'
sg18
F213.60332000401104
sg33
g34
sg51
g11
sg20
S'2'
sg65
g36
(g77
S'\x00\x00\x00\x00\x00\x00\x00\x00'
tRp640
sg44
g45
sg40
g41
sg25
F0.17058902309508994
sS'trials.thisIndex'
p641
g36
(g80
S'E\x00\x00\x00'
tRp642
sg26
V5
sS'trials.thisRepN'
p643
I0
sg66
Vrocking-chair
p644
sg63
V../experiment_stimuli/bw_bc_bl/Nonliving_Things/Furniture/rocking-chair_19.jpg
p645
sg21
F0.86210523621411994
sS'trials.thisTrialN'
p646
I50
sa(dp647
g31
g32
sg17
F216.39443044463405
sg24
I1
sg35
g39
sg14
F216.38947621482657
sg16
g36
(g70
S'\x02\x00\x00\x00'
tRp648
sg42
g43
sg46
g47
sg15
g72
sg22
F218.41454243834596
sg64
g101
sg62
g89
sg49
g50
sS'trials.thisN'
p649
I51
sg19
I1
sg27
g36
(g38
S'\x00\x00\x00\x00\x00\x00\x1e@'
tRp650
sg52
g53
sg23
S'1'
sg18
F217.63209060271038
sg33
g34
sg51
g11
sg20
S'2'
sg65
g36
(g77
S'\x00\x00\x00\x00\x00\x00\x00\x00'
tRp651
sg44
g45
sg40
g41
sg25
F0.10043664037948474
sS'trials.thisIndex'
p652
g36
(g80
S'6\x00\x00\x00'
tRp653
sg26
V5
sS'trials.thisRepN'
p654
I0
sg66
Vmotorbike
p655
sg63
V../experiment_stimuli/bw_bc_bl/Nonliving_Things/Vehicles/motorbike_26.jpg
p656
sg21
F0.76190345321083441
sS'trials.thisTrialN'
p657
I51
sa(dp658
g31
g32
sg17
F220.2538264504401
sg24
I0
sg35
g39
sg14
F220.24785667873221
sg16
g36
(g70
S'\x02\x00\x00\x00'
tRp659
sg42
g43
sg46
g47
sg15
g72
sg22
F223.00450168811949
sg64
g101
sg62
g89
sg49
g50
sS'trials.thisN'
p660
I52
sg19
I1
sg27
g36
(g38
S'\x00\x00\x00\x00\x00\x00\x18@'
tRp661
sg52
g53
sg23
S'3'
sg18
F221.52053309476469
sg33
g34
sg51
g11
sg20
S'2'
sg65
g36
(g77
S'\x00\x00\x00\x00\x00\x00\x00\x00'
tRp662
sg44
g45
sg40
g41
sg25
F0.12048031610902399
sS'trials.thisIndex'
p663
g36
(g80
S'\x0b\x00\x00\x00'
tRp664
sg26
V5
sS'trials.thisRepN'
p665
I0
sg66
Vcar
p666
sg63
V../experiment_stimuli/bw_bc_bl/Nonliving_Things/Vehicles/car_16.jpg
p667
sg21
F1.4634301055339165
sS'trials.thisTrialN'
p668
I52
sa(dp669
g31
g32
sg17
F224.8628440888715
sg24
I1
sg35
g39
sg14
F224.857887043152
sg16
g36
(g70
S'\x01\x00\x00\x00'
tRp670
sg42
g43
sg46
g47
sg15
g182
sg22
F227.03324326861184
sg64
g159
sg62
g89
sg49
g50
sS'trials.thisN'
p671
I53
sg19
I1
sg27
g36
(g38
S'\x00\x00\x00\x00\x00\x00\x18@'
tRp672
sg52
g53
sg23
S'1'
sg18
F226.11050965258619
sg33
g34
sg51
g11
sg20
S'1'
sg65
g36
(g77
S'\x00\x00\x00\x00\x00\x00\x00\x00'
tRp673
sg44
g45
sg40
g41
sg25
F0.15055154310539365
sS'trials.thisIndex'
p674
g36
(g80
S'H\x00\x00\x00'
tRp675
sg26
V5
sS'trials.thisRepN'
p676
I0
sg66
Vsaxophone
p677
sg63
V../experiment_stimuli/bw_bc_bl/Nonliving_Things/Musical_Inst/saxophone_0.jpg
p678
sg21
F0.9021930867456831
sS'trials.thisTrialN'
p679
I53
sa(dp680
g31
g32
sg17
F228.9216492313426
sg24
I1
sg35
g39
sg14
F228.91671332815895
sg16
g36
(g70
S'\x02\x00\x00\x00'
tRp681
sg42
g43
sg46
g47
sg15
g182
sg22
F230.84153879573569
sg64
g113
sg62
g74
sg49
g50
sS'trials.thisN'
p682
I54
sg19
I0
sg27
g36
(g38
S'\x00\x00\x00\x00\x00\x00\x18@'
tRp683
sg52
g53
sg23
S'1'
sg18
F230.19939822127344
sg33
g34
sg51
g11
sg20
S'1'
sg65
g36
(g77
S'\x00\x00\x00\x00\x00\x00\x00\x00'
tRp684
sg44
g45
sg40
g41
sg25
F0.20066078432137147
sS'trials.thisIndex'
p685
g36
(g80
S' \x00\x00\x00'
tRp686
sg26
V5
sS'trials.thisRepN'
p687
I0
sg66
Vgiraffe
p688
sg63
V../experiment_stimuli/bw_bc_bl/Living_Things/Animals/giraffe_0.jpg
p689
sg21
F0.62156996637349948
sS'trials.thisTrialN'
p690
I54
sa(dp691
g31
g32
sg17
F232.77995654952247
sg24
I1
sg35
g39
sg14
F232.77512019017013
sg16
g36
(g70
S'\x02\x00\x00\x00'
tRp692
sg42
g43
sg46
g47
sg15
g182
sg22
F235.33130201033782
sg64
g125
sg62
g74
sg49
g50
sS'trials.thisN'
p693
I55
sg19
I0
sg27
g36
(g38
S'\x00\x00\x00\x00\x00\x00\x18@'
tRp694
sg52
g53
sg23
S'1'
sg18
F234.08786427334417
sg33
g34
sg51
g11
sg20
S'1'
sg65
g36
(g77
S'\x00\x00\x00\x00\x00\x00\x00\x00'
tRp695
sg44
g45
sg40
g41
sg25
F0.17060635366942734
sS'trials.thisIndex'
p696
g36
(g80
S'K\x00\x00\x00'
tRp697
sg26
V5
sS'trials.thisRepN'
p698
I0
sg66
Vshark
p699
sg63
V../experiment_stimuli/bw_bc_bl/Living_Things/Marine_creatures/shark_7.jpg
p700
sg21
F1.2228800879674964
sS'trials.thisTrialN'
p701
I55
sa(dp702
g31
g32
sg17
F237.23976110690273
sg24
I1
sg35
g39
sg14
F237.23479465564014
sg16
g36
(g70
S'\x02\x00\x00\x00'
tRp703
sg42
g43
sg46
g47
sg15
g72
sg22
F239.82089748338331
sg64
g216
sg62
g89
sg49
g50
sS'trials.thisN'
p704
I56
sg19
I1
sg27
g36
(g38
S'\x00\x00\x00\x00\x00\x00\x18@'
tRp705
sg52
g53
sg23
S'1'
sg18
F238.55756842938717
sg33
g34
sg51
g11
sg20
S'2'
sg65
g36
(g77
S'\x00\x00\x00\x00\x00\x00\x00\x00'
tRp706
sg44
g45
sg40
g41
sg25
F0.12033996824175119
sS'trials.thisIndex'
p707
g36
(g80
S'\x06\x00\x00\x00'
tRp708
sg26
V5
sS'trials.thisRepN'
p709
I0
sg66
Vbedside-table
p710
sg63
V../experiment_stimuli/bw_bc_bl/Nonliving_Things/Furniture/bedside-table_12.jpg
p711
sg21
F1.2427595742046833
sS'trials.thisTrialN'
p712
I56
sa(dp713
g31
g32
sg17
F241.68054964736803
sg24
I0
sg35
g39
sg14
F241.67443414847367
sg16
g36
(g70
S'\x02\x00\x00\x00'
tRp714
sg42
g43
sg46
g47
sg15
g72
sg22
F243.73955372319324
sg64
g101
sg62
g89
sg49
g50
sS'trials.thisN'
p715
I57
sg19
I1
sg27
g36
(g38
S'\x00\x00\x00\x00\x00\x00\x18@'
tRp716
sg52
g53
sg23
S'3'
sg18
F243.01726229308406
sg33
g34
sg51
g11
sg20
S'2'
sg65
g36
(g77
S'\x00\x00\x00\x00\x00\x00\x00\x00'
tRp717
sg44
g45
sg40
g41
sg25
F0.21068041527178138
sS'trials.thisIndex'
p718
g36
(g80
S'V\x00\x00\x00'
tRp719
sg26
V5
sS'trials.thisRepN'
p720
I0
sg66
Vtractor
p721
sg63
V../experiment_stimuli/bw_bc_bl/Nonliving_Things/Vehicles/tractor_11.jpg
p722
sg21
F0.70175211882451549
sS'trials.thisTrialN'
p723
I57
sa(dp724
g31
g32
sg17
F245.6893378480454
sg24
I0
sg35
g39
sg14
F245.68317779729841
sg16
g36
(g70
S'\x01\x00\x00\x00'
tRp725
sg42
g43
sg46
g47
sg15
g182
sg22
F247.76834816363407
sg64
g88
sg62
g89
sg49
g50
sS'trials.thisN'
p726
I58
sg19
I1
sg27
g36
(g38
S'\x00\x00\x00\x00\x00\x00\x18@'
tRp727
sg52
g53
sg23
S'3'
sg18
F246.995925432886
sg33
g34
sg51
g11
sg20
S'1'
sg65
g36
(g77
S'\x00\x00\x00\x00\x00\x00\x00\x00'
tRp728
sg44
g45
sg40
g41
sg25
F0.1705893388716504
sS'trials.thisIndex'
p729
g36
(g80
S'M\x00\x00\x00'
tRp730
sg26
V5
sS'trials.thisRepN'
p731
I0
sg66
Vsmall-saucepan
p732
sg63
V../experiment_stimuli/bw_bc_bl/Nonliving_Things/Kitchen_Uten/small-saucepan_4.jpg
p733
sg21
F0.7518823747523129
sS'trials.thisTrialN'
p734
I58
sa(dp735
g31
g32
sg17
F249.67682633153163
sg24
I1
sg35
g39
sg14
F249.67182503081858
sg16
g36
(g70
S'\x02\x00\x00\x00'
tRp736
sg42
g43
sg46
g47
sg15
g182
sg22
F251.87730079091853
sg64
g73
sg62
g74
sg49
g50
sS'trials.thisN'
p737
I59
sg19
I0
sg27
g36
(g38
S'\x00\x00\x00\x00\x00\x00\x18@'
tRp738
sg52
g53
sg23
S'1'
sg18
F250.95451508573024
sg33
g34
sg51
g11
sg20
S'1'
sg65
g36
(g77
S'\x00\x00\x00\x00\x00\x00\x00\x00'
tRp739
sg44
g45
sg40
g41
sg25
F0.15054899785900488
sS'trials.thisIndex'
p740
g36
(g80
S'\x04\x00\x00\x00'
tRp741
sg26
V5
sS'trials.thisRepN'
p742
I0
sg66
Vbarn-owl
p743
sg63
V../experiment_stimuli/bw_bc_bl/Living_Things/Birds/barn-owl_26.jpg
p744
sg21
F0.90220990247325972
sS'trials.thisTrialN'
p745
I59
sa(dp746
g31
g32
sg17
F253.76674685149919
sg24
I0
sg35
g39
sg14
F253.76071065221913
sg16
g36
(g70
S'\x02\x00\x00\x00'
tRp747
sg42
g43
sg46
g47
sg15
g182
sg22
F255.69541034288704
sg64
g560
sg62
g74
sg49
g50
sS'trials.thisN'
p748
I60
sg19
I1
sg27
g36
(g38
S'\x00\x00\x00\x00\x00\x00\x18@'
tRp749
sg52
g53
sg23
S'2'
sg18
F255.05343741300749
sg33
g34
sg51
g11
sg20
S'2'
sg65
g36
(g77
S'\x00\x00\x00\x00\x00\x00\x00\x00'
tRp750
sg44
g45
sg40
g41
sg25
F0.38105442246887833
sS'trials.thisIndex'
p751
g36
(g80
S'-\x00\x00\x00'
tRp752
sg26
V5
sS'trials.thisRepN'
p753
I0
sg66
Vladybird
p754
sg63
V../experiment_stimuli/bw_bc_bl/Living_Things/Insects/ladybird_14.jpg
p755
sg21
F0.62141728831920773
sS'trials.thisTrialN'
p756
I60
sa(dp757
g31
g32
sg17
F257.8170107929036
sg24
I0
sg35
g39
sg14
F257.8095120395883
sg16
g36
(g70
S'\x01\x00\x00\x00'
tRp758
sg42
g43
sg46
g47
sg15
g72
sg22
F260.8267287343042
sg64
g113
sg62
g74
sg49
g50
sS'trials.thisN'
p759
I61
sg19
I1
sg27
g36
(g38
S'\x00\x00\x00\x00\x00\x00\x18@'
tRp760
sg52
g53
sg23
S'2'
sg18
F259.09221367293503
sg33
g34
sg51
g11
sg20
S'1'
sg65
g36
(g77
S'\x00\x00\x00\x00\x00\x00\x00\x00'
tRp761
sg44
g45
sg40
g41
sg25
F0.73179942177375779
sS'trials.thisIndex'
p762
g36
(g80
S'Z\x00\x00\x00'
tRp763
sg26
V5
sS'trials.thisRepN'
p764
I0
sg66
Vturtle
p765
sg63
V../experiment_stimuli/bw_bc_bl/Living_Things/Animals/turtle_4.jpg
p766
sg21
F1.7139535212190822
sS'trials.thisTrialN'
p767
I61
sa(dp768
g31
g32
sg17
F263.29638909077039
sg24
I0
sg35
g39
sg14
F263.29146472876891
sg16
g36
(g70
S'\x02\x00\x00\x00'
tRp769
sg42
g43
sg46
g47
sg15
g182
sg22
F266.21843462606193
sg64
g125
sg62
g74
sg49
g50
sS'trials.thisN'
p770
I62
sg19
I1
sg27
g36
(g38
S'\x00\x00\x00\x00\x00\x00\x1a@'
tRp771
sg52
g53
sg23
S'2'
sg18
F264.56410314171808
sg33
g34
sg51
g11
sg20
S'2'
sg65
g36
(g77
S'\x00\x00\x00\x00\x00\x00\x00\x00'
tRp772
sg44
g45
sg40
g41
sg25
F0.15062140679219738
sS'trials.thisIndex'
p773
g36
(g80
S'1\x00\x00\x00'
tRp774
sg26
V5
sS'trials.thisRepN'
p775
I0
sg66
Vlobster
p776
sg63
V../experiment_stimuli/bw_bc_bl/Living_Things/Marine_creatures/lobster_23.jpg
p777
sg21
F1.6337790568359196
sS'trials.thisTrialN'
p778
I62
sa(dp779
g31
g32
sg17
F268.10683217894984
sg24
I0
sg35
g39
sg14
F268.10192217049189
sg16
g36
(g70
S'\x02\x00\x00\x00'
tRp780
sg42
g43
sg46
g47
sg15
g182
sg22
F270.51781354116974
sg64
g73
sg62
g74
sg49
g50
sS'trials.thisN'
p781
I63
sg19
I0
sg27
g36
(g38
S'\x00\x00\x00\x00\x00\x00\x18@'
tRp782
sg52
g53
sg23
S'2'
sg18
F269.36455185461091
sg33
g34
sg51
g11
sg20
S'1'
sg65
g36
(g77
S'\x00\x00\x00\x00\x00\x00\x00\x00'
tRp783
sg44
g45
sg40
g41
sg25
F0.31093157705618069
sS'trials.thisIndex'
p784
g36
(g80
S'3\x00\x00\x00'
tRp785
sg26
V5
sS'trials.thisRepN'
p786
I0
sg66
Vmagpie
p787
sg63
V../experiment_stimuli/bw_bc_bl/Living_Things/Birds/magpie_26.jpg
p788
sg21
F1.1327104055089876
sS'trials.thisTrialN'
p789
I63
sa(dp790
g31
g32
sg17
F272.56649568572175
sg24
I0
sg35
g39
sg14
F272.56158779357793
sg16
g36
(g70
S'\x02\x00\x00\x00'
tRp791
sg42
g43
sg46
g47
sg15
g72
sg22
F275.07770373643143
sg64
g216
sg62
g89
sg49
g50
sS'trials.thisN'
p792
I64
sg19
I0
sg27
g36
(g38
S'\x00\x00\x00\x00\x00\x00\x18@'
tRp793
sg52
g53
sg23
S'3'
sg18
F273.81421326013515
sg33
g34
sg51
g11
sg20
S'1'
sg65
g36
(g77
S'\x00\x00\x00\x00\x00\x00\x00\x00'
tRp794
sg44
g45
sg40
g41
sg25
F0.23073497012956068
sS'trials.thisIndex'
p795
g36
(g80
S'\x13\x00\x00\x00'
tRp796
sg26
V5
sS'trials.thisRepN'
p797
I0
sg66
Vcouch
p798
sg63
V../experiment_stimuli/bw_bc_bl/Nonliving_Things/Furniture/couch_7.jpg
p799
sg21
F1.2429315226618201
sS'trials.thisTrialN'
p800
I64
sa(dp801
g31
g32
sg17
F277.046170646674
sg24
I1
sg35
g39
sg14
F277.04133463680046
sg16
g36
(g70
S'\x02\x00\x00\x00'
tRp802
sg42
g43
sg46
g47
sg15
g72
sg22
F279.2167862218339
sg64
g316
sg62
g89
sg49
g50
sS'trials.thisN'
p803
I65
sg19
I1
sg27
g36
(g38
S'\x00\x00\x00\x00\x00\x00\x1c@'
tRp804
sg52
g53
sg23
S'1'
sg18
F278.27391705597984
sg33
g34
sg51
g11
sg20
S'2'
sg65
g36
(g77
S'\x00\x00\x00\x00\x00\x00\x00\x00'
tRp805
sg44
g45
sg40
g41
sg25
F0.1405452954932116
sS'trials.thisIndex'
p806
g36
(g80
S'\x0e\x00\x00\x00'
tRp807
sg26
V5
sS'trials.thisRepN'
p808
I0
sg66
Vcathedral
p809
sg63
V../experiment_stimuli/bw_bc_bl/Nonliving_Things/Buildings/cathedral_6.jpg
p810
sg21
F0.91231320856604725
sS'trials.thisTrialN'
p811
I65
sa(dp812
g31
g32
sg17
F281.09495552664157
sg24
I1
sg35
g39
sg14
F281.09012532117777
sg16
g36
(g70
S'\x02\x00\x00\x00'
tRp813
sg42
g43
sg46
g47
sg15
g182
sg22
F283.1452484751353
sg64
g125
sg62
g74
sg49
g50
sS'trials.thisN'
p814
I66
sg19
I1
sg27
g36
(g38
S'\x00\x00\x00\x00\x00\x00\x18@'
tRp815
sg52
g53
sg23
S'1'
sg18
F282.33273621683475
sg33
g34
sg51
g11
sg20
S'2'
sg65
g36
(g77
S'\x00\x00\x00\x00\x00\x00\x00\x00'
tRp816
sg44
g45
sg40
g41
sg25
F0.10045539983548224
sS'trials.thisIndex'
p817
g36
(g80
S'\x17\x00\x00\x00'
tRp818
sg26
V5
sS'trials.thisRepN'
p819
I0
sg66
Vdolphin
p820
sg63
V../experiment_stimuli/bw_bc_bl/Living_Things/Marine_creatures/dolphin_2.jpg
p821
sg21
F0.79194420343264937
sS'trials.thisTrialN'
p822
I66
sa(dp823
g31
g32
sg17
F284.98331867391244
sg24
I1
sg35
g39
sg14
F284.97858604602516
sg16
g36
(g70
S'\x02\x00\x00\x00'
tRp824
sg42
g43
sg46
g47
sg15
g72
sg22
F287.0838220086298
sg64
g101
sg62
g89
sg49
g50
sS'trials.thisN'
p825
I67
sg19
I0
sg27
g36
(g38
S'\x00\x00\x00\x00\x00\x00\x18@'
tRp826
sg52
g53
sg23
S'1'
sg18
F286.23120602784911
sg33
g34
sg51
g11
sg20
S'1'
sg65
g36
(g77
S'\x00\x00\x00\x00\x00\x00\x00\x00'
tRp827
sg44
g45
sg40
g41
sg25
F0.30087647296022624
sS'trials.thisIndex'
p828
g36
(g80
S'\x07\x00\x00\x00'
tRp829
sg26
V5
sS'trials.thisRepN'
p830
I0
sg66
Vboat
p831
sg63
V../experiment_stimuli/bw_bc_bl/Nonliving_Things/Vehicles/boat_15.jpg
p832
sg21
F0.83203770051477477
sS'trials.thisTrialN'
p833
I67
sa(dp834
g31
g32
sg17
F289.12366155447671
sg24
I0
sg35
g39
sg14
F289.11758120934246
sg16
g36
(g70
S'\x01\x00\x00\x00'
tRp835
sg42
g43
sg46
g47
sg15
g182
sg22
F292.12478038232075
sg64
g216
sg62
g89
sg49
g50
sS'trials.thisN'
p836
I68
sg19
I1
sg27
g36
(g38
S'\x00\x00\x00\x00\x00\x00\x18@'
tRp837
sg52
g53
sg23
S'2'
sg18
F290.38023219397292
sg33
g34
sg51
g11
sg20
S'1'
sg65
g36
(g77
S'\x00\x00\x00\x00\x00\x00\x00\x00'
tRp838
sg44
g45
sg40
g41
sg25
F0.47126476559787989
sS'trials.thisIndex'
p839
g36
(g80
S'N\x00\x00\x00'
tRp840
sg26
V5
sS'trials.thisRepN'
p841
I0
sg66
Vsofa
p842
sg63
V../experiment_stimuli/bw_bc_bl/Nonliving_Things/Furniture/sofa_21.jpg
p843
sg21
F1.7239966330816969
sS'trials.thisTrialN'
p844
I68
sa(dp845
g31
g32
sg17
F294.33507511852076
sg24
I0
sg35
g39
sg14
F294.32890865794616
sg16
g36
(g70
S'\x01\x00\x00\x00'
tRp846
sg42
g43
sg46
g47
sg15
g182
sg22
F296.51428976206807
sg64
g88
sg62
g89
sg49
g50
sS'trials.thisN'
p847
I69
sg19
I1
sg27
g36
(g38
S'\x00\x00\x00\x00\x00\x00\x1c@'
tRp848
sg52
g53
sg23
S'2'
sg18
F295.58152989501832
sg33
g34
sg51
g11
sg20
S'1'
sg65
g36
(g77
S'\x00\x00\x00\x00\x00\x00\x00\x00'
tRp849
sg44
g45
sg40
g41
sg25
F0.40184869605582207
sS'trials.thisIndex'
p850
g36
(g80
S'\x12\x00\x00\x00'
tRp851
sg26
V5
sS'trials.thisRepN'
p852
I0
sg66
Vcoking-pot
p853
sg63
V../experiment_stimuli/bw_bc_bl/Nonliving_Things/Kitchen_Uten/coking-pot_9.jpg
p854
sg21
F0.91221465752460063
sS'trials.thisTrialN'
p855
I69
sa(dp856
g31
g32
sg17
F298.65307299251435
sg24
I1
sg35
g39
sg14
F298.6482940534479
sg16
g36
(g70
S'\x02\x00\x00\x00'
tRp857
sg42
g43
sg46
g47
sg15
g72
sg22
F300.33263237081701
sg64
g88
sg62
g89
sg49
g50
sS'trials.thisN'
p858
I70
sg19
I0
sg27
g36
(g38
S'\x00\x00\x00\x00\x00\x00 @'
tRp859
sg52
g53
sg23
S'1'
sg18
F299.89091095258482
sg33
g34
sg51
g11
sg20
S'1'
sg65
g36
(g77
S'\x00\x00\x00\x00\x00\x00\x00\x00'
tRp860
sg44
g45
sg40
g41
sg25
F0.51133336476050317
sS'trials.thisIndex'
p861
g36
(g80
S'G\x00\x00\x00'
tRp862
sg26
V5
sS'trials.thisRepN'
p863
I0
sg66
Vsaucepan
p864
sg63
V../experiment_stimuli/bw_bc_bl/Nonliving_Things/Kitchen_Uten/saucepan_7.jpg
p865
sg21
F0.42117008497007191
sS'trials.thisTrialN'
p866
I70
sa(dp867
g31
g32
sg17
F302.58305550622754
sg24
I1
sg35
g39
sg14
F302.57683401636314
sg16
g36
(g70
S'\x02\x00\x00\x00'
tRp868
sg42
g43
sg46
g47
sg15
g182
sg22
F305.3032520901761
sg64
g113
sg62
g74
sg49
g50
sS'trials.thisN'
p869
I71
sg19
I0
sg27
g36
(g38
S'\x00\x00\x00\x00\x00\x00\x1a@'
tRp870
sg52
g53
sg23
S'1'
sg18
F303.84951042127796
sg33
g34
sg51
g11
sg20
S'1'
sg65
g36
(g77
S'\x00\x00\x00\x00\x00\x00\x00\x00'
tRp871
sg44
g45
sg40
g41
sg25
F0.41113973595201969
sS'trials.thisIndex'
p872
g36
(g80
S'T\x00\x00\x00'
tRp873
sg26
V5
sS'trials.thisRepN'
p874
I0
sg66
Vtiger
p875
sg63
V../experiment_stimuli/bw_bc_bl/Living_Things/Animals/tiger_10.jpg
p876
sg21
F1.433191760268528
sS'trials.thisTrialN'
p877
I71
sa(dp878
g31
g32
sg17
F307.45217271649744
sg24
I1
sg35
g39
sg14
F307.44742258149199
sg16
g36
(g70
S'\x02\x00\x00\x00'
tRp879
sg42
g43
sg46
g47
sg15
g72
sg22
F309.90341212978819
sg64
g101
sg62
g89
sg49
g50
sS'trials.thisN'
p880
I72
sg19
I1
sg27
g36
(g38
S'\x00\x00\x00\x00\x00\x00\x1a@'
tRp881
sg52
g53
sg23
S'1'
sg18
F308.75016217632219
sg33
g34
sg51
g11
sg20
S'2'
sg65
g36
(g77
S'\x00\x00\x00\x00\x00\x00\x00\x00'
tRp882
sg44
g45
sg40
g41
sg25
F0.44118067406816408
sS'trials.thisIndex'
p883
g36
(g80
S'L\x00\x00\x00'
tRp884
sg26
V5
sS'trials.thisRepN'
p885
I0
sg66
Vship
p886
sg63
V../experiment_stimuli/bw_bc_bl/Nonliving_Things/Vehicles/ship_4.jpg
p887
sg21
F1.132692244311329
sS'trials.thisTrialN'
p888
I72
sa(dp889
g31
g32
sg17
F312.08229574083816
sg24
I0
sg35
g39
sg14
F312.07749155757483
sg16
g36
(g70
S'\x01\x00\x00\x00'
tRp890
sg42
g43
sg46
g47
sg15
g182
sg22
F314.61365926981671
sg64
g101
sg62
g89
sg49
g50
sS'trials.thisN'
p891
I73
sg19
I1
sg27
g36
(g38
S'\x00\x00\x00\x00\x00\x00\x1a@'
tRp892
sg52
g53
sg23
S'2'
sg18
F313.39024740748573
sg33
g34
sg51
g11
sg20
S'1'
sg65
g36
(g77
S'\x00\x00\x00\x00\x00\x00\x00\x00'
tRp893
sg44
g45
sg40
g41
sg25
F0.4011248453753069
sS'trials.thisIndex'
p894
g36
(g80
S'\t\x00\x00\x00'
tRp895
sg26
V5
sS'trials.thisRepN'
p896
I0
sg66
Vbus
p897
sg63
V../experiment_stimuli/bw_bc_bl/Nonliving_Things/Vehicles/bus_25.jpg
p898
sg21
F1.2028551041148603
sS'trials.thisTrialN'
p899
I73
sa(dp900
g31
g32
sg17
F316.75377691694302
sg24
I1
sg35
g39
sg14
F316.74764573801076
sg16
g36
(g70
S'\x01\x00\x00\x00'
tRp901
sg42
g43
sg46
g47
sg15
g182
sg22
F319.62457702466054
sg64
g216
sg62
g89
sg49
g50
sS'trials.thisN'
p902
I74
sg19
I1
sg27
g36
(g38
S'\x00\x00\x00\x00\x00\x00\x18@'
tRp903
sg52
g53
sg23
S'1'
sg18
F318.05038759956369
sg33
g34
sg51
g11
sg20
S'1'
sg65
g36
(g77
S'\x00\x00\x00\x00\x00\x00\x00\x00'
tRp904
sg44
g45
sg40
g41
sg25
F0.59153472376056015
sS'trials.thisIndex'
p905
g36
(g80
S'\x08\x00\x00\x00'
tRp906
sg26
V5
sS'trials.thisRepN'
p907
I0
sg66
Vbookcase
p908
sg63
V../experiment_stimuli/bw_bc_bl/Nonliving_Things/Furniture/bookcase_10.jpg
p909
sg21
F1.5536315426579677
sS'trials.thisTrialN'
p910
I74
sa(dp911
g31
g32
sg17
F321.95373561105225
sg24
I1
sg35
g39
sg14
F321.94894712715177
sg16
g36
(g70
S'\x02\x00\x00\x00'
tRp912
sg42
g43
sg46
g47
sg15
g182
sg22
F324.09426233533304
sg64
g73
sg62
g74
sg49
g50
sS'trials.thisN'
p913
I75
sg19
I1
sg27
g36
(g38
S'\x00\x00\x00\x00\x00\x00\x1e@'
tRp914
sg52
g53
sg23
S'1'
sg18
F323.26170748431468
sg33
g34
sg51
g11
sg20
S'2'
sg65
g36
(g77
S'\x00\x00\x00\x00\x00\x00\x00\x00'
tRp915
sg44
g45
sg40
g41
sg25
F0.36084836954250932
sS'trials.thisIndex'
p916
g36
(g80
S'?\x00\x00\x00'
tRp917
sg26
V5
sS'trials.thisRepN'
p918
I0
sg66
Vpigeon
p919
sg63
V../experiment_stimuli/bw_bc_bl/Living_Things/Birds/pigeon_10.jpg
p920
sg21
F0.81199428829131648
sS'trials.thisTrialN'
p921
I75
sa(dp922
g31
g32
sg17
F326.19460322515806
sg24
I1
sg35
g39
sg14
F326.18816869327566
sg16
g36
(g70
S'\x02\x00\x00\x00'
tRp923
sg42
g43
sg46
g47
sg15
g72
sg22
F328.81454551173374
sg64
g159
sg62
g89
sg49
g50
sS'trials.thisN'
p924
I76
sg19
I1
sg27
g36
(g38
S'\x00\x00\x00\x00\x00\x00\x18@'
tRp925
sg52
g53
sg23
S'1'
sg18
F327.53098752576625
sg33
g34
sg51
g11
sg20
S'2'
sg65
g36
(g77
S'\x00\x00\x00\x00\x00\x00\x00\x00'
tRp926
sg44
g45
sg40
g41
sg25
F0.37105215608607978
sS'trials.thisIndex'
p927
g36
(g80
S'X\x00\x00\x00'
tRp928
sg26
V5
sS'trials.thisRepN'
p929
I0
sg66
Vtrumpet
p930
sg63
V../experiment_stimuli/bw_bc_bl/Nonliving_Things/Musical_Inst/trumpet_4.jpg
p931
sg21
F1.2629922578926198
sS'trials.thisTrialN'
p932
I76
sa(dp933
g31
g32
sg17
F330.92565131152514
sg24
I1
sg35
g39
sg14
F330.91844979056623
sg16
g36
(g70
S'\x02\x00\x00\x00'
tRp934
sg42
g43
sg46
g47
sg15
g72
sg22
F333.234110043908
sg64
g216
sg62
g89
sg49
g50
sS'trials.thisN'
p935
I77
sg19
I1
sg27
g36
(g38
S'\x00\x00\x00\x00\x00\x00\x1a@'
tRp936
sg52
g53
sg23
S'1'
sg18
F332.28131605777889
sg33
g34
sg51
g11
sg20
S'2'
sg65
g36
(g77
S'\x00\x00\x00\x00\x00\x00\x00\x00'
tRp937
sg44
g45
sg40
g41
sg25
F0.34095254918793216
sS'trials.thisIndex'
p938
g36
(g80
S'\x02\x00\x00\x00'
tRp939
sg26
V5
sS'trials.thisRepN'
p940
I0
sg66
Varmchair
p941
sg63
V../experiment_stimuli/bw_bc_bl/Nonliving_Things/Furniture/armchair_22.jpg
p942
sg21
F0.93225543422158808
sS'trials.thisTrialN'
p943
I77
sa(dp944
g31
g32
sg17
F335.312776090228
sg24
I1
sg35
g39
sg14
F335.30799736164045
sg16
g36
(g70
S'\x02\x00\x00\x00'
tRp945
sg42
g43
sg46
g47
sg15
g182
sg22
F337.61365236731945
sg64
g73
sg62
g74
sg49
g50
sS'trials.thisN'
p946
I78
sg19
I1
sg27
g36
(g38
S'\x00\x00\x00\x00\x00\x00 @'
tRp947
sg52
g53
sg23
S'1'
sg18
F336.68088788382011
sg33
g34
sg51
g11
sg20
S'2'
sg65
g36
(g77
S'\x00\x00\x00\x00\x00\x00\x00\x00'
tRp948
sg44
g45
sg40
g41
sg25
F0.20050394046120346
sS'trials.thisIndex'
p949
g36
(g80
S'9\x00\x00\x00'
tRp950
sg26
V5
sS'trials.thisRepN'
p951
I0
sg66
Vowl
p952
sg63
V../experiment_stimuli/bw_bc_bl/Living_Things/Birds/owl_6.jpg
p953
sg21
F0.91221504844725132
sS'trials.thisTrialN'
p954
I78
sa(dp955
g31
g32
sg17
F339.55200200964464
sg24
I0
sg35
g39
sg14
F339.54720486386213
sg16
g36
(g70
S'\x02\x00\x00\x00'
tRp956
sg42
g43
sg46
g47
sg15
g182
sg22
F341.90296753571602
sg64
g125
sg62
g74
sg49
g50
sS'trials.thisN'
p957
I79
sg19
I1
sg27
g36
(g38
S'\x00\x00\x00\x00\x00\x00\x1a@'
tRp958
sg52
g53
sg23
S'3'
sg18
F340.95016314374516
sg33
g34
sg51
g11
sg20
S'2'
sg65
g36
(g77
S'\x00\x00\x00\x00\x00\x00\x00\x00'
tRp959
sg44
g45
sg40
g41
sg25
F0.2206997565808706
sS'trials.thisIndex'
p960
g36
(g80
S'^\x00\x00\x00'
tRp961
sg26
V5
sS'trials.thisRepN'
p962
I0
sg66
Vwhale
p963
sg63
V../experiment_stimuli/bw_bc_bl/Living_Things/Marine_creatures/whale_11.jpg
p964
sg21
F0.93225754733430222
sS'trials.thisTrialN'
p965
I79
sa(dp966
g31
g32
sg17
F343.86137146194233
sg24
I0
sg35
g39
sg14
F343.85658708686242
sg16
g36
(g70
S'\x02\x00\x00\x00'
tRp967
sg42
g43
sg46
g47
sg15
g182
sg22
F346.08206507569412
sg64
g560
sg62
g74
sg49
g50
sS'trials.thisN'
p968
I80
sg19
I1
sg27
g36
(g38
S'\x00\x00\x00\x00\x00\x00\x18@'
tRp969
sg52
g53
sg23
S'3'
sg18
F345.20943023479776
sg33
g34
sg51
g11
sg20
S'2'
sg65
g36
(g77
S'\x00\x00\x00\x00\x00\x00\x00\x00'
tRp970
sg44
g45
sg40
g41
sg25
F0.23072450410109013
sS'trials.thisIndex'
p971
g36
(g80
S'\n\x00\x00\x00'
tRp972
sg26
V5
sS'trials.thisRepN'
p973
I0
sg66
Vbutterfly
p974
sg63
V../experiment_stimuli/bw_bc_bl/Living_Things/Insects/butterfly_10.jpg
p975
sg21
F0.85208316525677219
sS'trials.thisTrialN'
p976
I80
sa(dp977
g31
g32
sg17
F348.05059045844246
sg24
I1
sg35
g39
sg14
F348.04567935224622
sg16
g36
(g70
S'\x02\x00\x00\x00'
tRp978
sg42
g43
sg46
g47
sg15
g72
sg22
F350.3312833031523
sg64
g316
sg62
g89
sg49
g50
sS'trials.thisN'
p979
I81
sg19
I1
sg27
g36
(g38
S'\x00\x00\x00\x00\x00\x00\x18@'
tRp980
sg52
g53
sg23
S'1'
sg18
F349.36847038893029
sg33
g34
sg51
g11
sg20
S'2'
sg65
g36
(g77
S'\x00\x00\x00\x00\x00\x00\x00\x00'
tRp981
sg44
g45
sg40
g41
sg25
F0.16056933952495456
sS'trials.thisIndex'
p982
g36
(g80
S'5\x00\x00\x00'
tRp983
sg26
V5
sS'trials.thisRepN'
p984
I0
sg66
Vmill
p985
sg63
V../experiment_stimuli/bw_bc_bl/Nonliving_Things/Buildings/mill_21.jpg
p986
sg21
F0.94227244151988998
sS'trials.thisTrialN'
p987
I81
sa(dp988
g31
g32
sg17
F352.22955665085465
sg24
I0
sg35
g39
sg14
F352.22477657999843
sg16
g36
(g70
S'\x02\x00\x00\x00'
tRp989
sg42
g43
sg46
g47
sg15
g182
sg22
F354.33000381733291
sg64
g73
sg62
g74
sg49
g50
sS'trials.thisN'
p990
I82
sg19
I1
sg27
g36
(g38
S'\x00\x00\x00\x00\x00\x00\x1a@'
tRp991
sg52
g53
sg23
S'3'
sg18
F353.56759286404122
sg33
g34
sg51
g11
sg20
S'2'
sg65
g36
(g77
S'\x00\x00\x00\x00\x00\x00\x00\x00'
tRp992
sg44
g45
sg40
g41
sg25
F0.20065568271093071
sS'trials.thisIndex'
p993
g36
(g80
S'F\x00\x00\x00'
tRp994
sg26
V5
sS'trials.thisRepN'
p995
I0
sg66
Vrooster
p996
sg63
V../experiment_stimuli/bw_bc_bl/Living_Things/Birds/rooster_17.jpg
p997
sg21
F0.74183811258990318
sS'trials.thisTrialN'
p998
I82
sa(dp999
g31
g32
sg17
F356.26836467365501
sg24
I1
sg35
g39
sg14
F356.26355191908078
sg16
g36
(g70
S'\x01\x00\x00\x00'
tRp1000
sg42
g43
sg46
g47
sg15
g72
sg22
F358.55919917364372
sg64
g113
sg62
g74
sg49
g50
sS'trials.thisN'
p1001
I83
sg19
I0
sg27
g36
(g38
S'\x00\x00\x00\x00\x00\x00 @'
tRp1002
sg52
g53
sg23
S'1'
sg18
F357.5763083138736
sg33
g34
sg51
g11
sg20
S'2'
sg65
g36
(g77
S'\x00\x00\x00\x00\x00\x00\x00\x00'
tRp1003
sg44
g45
sg40
g41
sg25
F0.14051950990688056
sS'trials.thisIndex'
p1004
g36
(g80
S'\x01\x00\x00\x00'
tRp1005
sg26
V5
sS'trials.thisRepN'
p1006
I0
sg66
Varmadillo
p1007
sg63
V../experiment_stimuli/bw_bc_bl/Living_Things/Animals/armadillo_8.jpg
p1008
sg21
F0.96234117663698271
sS'trials.thisTrialN'
p1009
I83
sa(dp1010
g31
g32
sg17
F360.43741610180587
sg24
I0
sg35
g39
sg14
F360.43260808405466
sg16
g36
(g70
S'\x02\x00\x00\x00'
tRp1011
sg42
g43
sg46
g47
sg15
g182
sg22
F362.52780350623652
sg64
g73
sg62
g74
sg49
g50
sS'trials.thisN'
p1012
I84
sg19
I1
sg27
g36
(g38
S'\x00\x00\x00\x00\x00\x00\x18@'
tRp1013
sg52
g53
sg23
S'3'
sg18
F361.76541195507161
sg33
g34
sg51
g11
sg20
S'2'
sg65
g36
(g77
S'\x00\x00\x00\x00\x00\x00\x00\x00'
tRp1014
sg44
g45
sg40
g41
sg25
F0.19062529248185456
sS'trials.thisIndex'
p1015
g36
(g80
S'=\x00\x00\x00'
tRp1016
sg26
V5
sS'trials.thisRepN'
p1017
I0
sg66
Vpenguin
p1018
sg63
V../experiment_stimuli/bw_bc_bl/Living_Things/Birds/penguin_3.jpg
p1019
sg21
F0.74183913873275742
sS'trials.thisTrialN'
p1020
I84
sa(dp1021
g31
g32
sg17
F364.45617804332869
sg24
I0
sg35
g39
sg14
F364.45134873257484
sg16
g36
(g70
S'\x01\x00\x00\x00'
tRp1022
sg42
g43
sg46
g47
sg15
g182
sg22
F366.37619155331049
sg64
g316
sg62
g89
sg49
g50
sS'trials.thisN'
p1023
I85
sg19
I1
sg27
g36
(g38
S'\x00\x00\x00\x00\x00\x00\x1a@'
tRp1024
sg52
g53
sg23
S'3'
sg18
F365.76410531927831
sg33
g34
sg51
g11
sg20
S'1'
sg65
g36
(g77
S'\x00\x00\x00\x00\x00\x00\x00\x00'
tRp1025
sg44
g45
sg40
g41
sg25
F0.20065526163671166
sS'trials.thisIndex'
p1026
g36
(g80
S':\x00\x00\x00'
tRp1027
sg26
V5
sS'trials.thisRepN'
p1028
I0
sg66
Vpalace
p1029
sg63
V../experiment_stimuli/bw_bc_bl/Nonliving_Things/Buildings/palace_8.jpg
p1030
sg21
F0.59151219780324027
sS'trials.thisTrialN'
p1031
I85
sa(dp1032
g31
g32
sg17
F368.31447600468528
sg24
I0
sg35
g39
sg14
F368.30973681685282
sg16
g36
(g70
S'\x02\x00\x00\x00'
tRp1033
sg42
g43
sg46
g47
sg15
g182
sg22
F370.98621916229604
sg64
g73
sg62
g74
sg49
g50
sS'trials.thisN'
p1034
I86
sg19
I1
sg27
g36
(g38
S'\x00\x00\x00\x00\x00\x00\x18@'
tRp1035
sg52
g53
sg23
S'3'
sg18
F369.60246631415794
sg33
g34
sg51
g11
sg20
S'2'
sg65
g36
(g77
S'\x00\x00\x00\x00\x00\x00\x00\x00'
tRp1036
sg44
g45
sg40
g41
sg25
F0.2006776788039133
sS'trials.thisIndex'
p1037
g36
(g80
S'C\x00\x00\x00'
tRp1038
sg26
V5
sS'trials.thisRepN'
p1039
I0
sg66
Vraven
p1040
sg63
V../experiment_stimuli/bw_bc_bl/Living_Things/Birds/raven_17.jpg
p1041
sg21
F1.36320947681088
sS'trials.thisTrialN'
p1042
I86
sa(dp1043
g31
g32
sg17
F372.92720603360794
sg24
I1
sg35
g39
sg14
F372.91975817031926
sg16
g36
(g70
S'\x01\x00\x00\x00'
tRp1044
sg42
g43
sg46
g47
sg15
g72
sg22
F375.24549406132428
sg64
g73
sg62
g74
sg49
g50
sS'trials.thisN'
p1045
I87
sg19
I0
sg27
g36
(g38
S'\x00\x00\x00\x00\x00\x00\x1a@'
tRp1046
sg52
g53
sg23
S'1'
sg18
F374.18243758665631
sg33
g34
sg51
g11
sg20
S'2'
sg65
g36
(g77
S'\x00\x00\x00\x00\x00\x00\x00\x00'
tRp1047
sg44
g45
sg40
g41
sg25
F0.20069166319444776
sS'trials.thisIndex'
p1048
g36
(g80
S'&\x00\x00\x00'
tRp1049
sg26
V5
sS'trials.thisRepN'
p1050
I0
sg66
Vhen
p1051
sg63
V../experiment_stimuli/bw_bc_bl/Living_Things/Birds/hen_14.jpg
p1052
sg21
F1.0425134495017119
sS'trials.thisTrialN'
p1053
I87
sa(dp1054
g31
g32
sg17
F377.18535400531255
sg24
I1
sg35
g39
sg14
F377.17901560739847
sg16
g36
(g70
S'\x01\x00\x00\x00'
tRp1055
sg42
g43
sg46
g47
sg15
g72
sg22
F379.60492510884069
sg64
g113
sg62
g74
sg49
g50
sS'trials.thisN'
p1056
I88
sg19
I0
sg27
g36
(g38
S'\x00\x00\x00\x00\x00\x00\x1c@'
tRp1057
sg52
g53
sg23
S'1'
sg18
F378.44166340009542
sg33
g34
sg51
g11
sg20
S'2'
sg65
g36
(g77
S'\x00\x00\x00\x00\x00\x00\x00\x00'
tRp1058
sg44
g45
sg40
g41
sg25
F0.110483109485358
sS'trials.thisIndex'
p1059
g36
(g80
S'(\x00\x00\x00'
tRp1060
sg26
V5
sS'trials.thisRepN'
p1061
I0
sg66
Vhorse
p1062
sg63
V../experiment_stimuli/bw_bc_bl/Living_Things/Animals/horse_16.jpg
p1063
sg21
F1.1427105744951405
sS'trials.thisTrialN'
p1064
I88
sa(dp1065
g31
g32
sg17
F381.46308142959606
sg24
I0
sg35
g39
sg14
F381.45833372703055
sg16
g36
(g70
S'\x02\x00\x00\x00'
tRp1066
sg42
g43
sg46
g47
sg15
g72
sg22
F384.0646241378854
sg64
g316
sg62
g89
sg49
g50
sS'trials.thisN'
p1067
I89
sg19
I1
sg27
g36
(g38
S'\x00\x00\x00\x00\x00\x00\x18@'
tRp1068
sg52
g53
sg23
S'3'
sg18
F382.76105626916979
sg33
g34
sg51
g11
sg20
S'2'
sg65
g36
(g77
S'\x00\x00\x00\x00\x00\x00\x00\x00'
tRp1069
sg44
g45
sg40
g41
sg25
F0.34096564672654495
sS'trials.thisIndex'
p1070
g36
(g80
S')\x00\x00\x00'
tRp1071
sg26
V5
sS'trials.thisRepN'
p1072
I0
sg66
Vhouse
p1073
sg63
V../experiment_stimuli/bw_bc_bl/Nonliving_Things/Buildings/house_5.jpg
p1074
sg21
F1.2830260948394425
sS'trials.thisTrialN'
p1075
I89
sa(dp1076
g31
g32
sg17
F386.14331952930661
sg24
I0
sg35
g39
sg14
F386.1384931060602
sg16
g36
(g70
S'\x02\x00\x00\x00'
tRp1077
sg42
g43
sg46
g47
sg15
g182
sg22
F388.42413747351384
sg64
g560
sg62
g74
sg49
g50
sS'trials.thisN'
p1078
I90
sg19
I1
sg27
g36
(g38
S'\x00\x00\x00\x00\x00\x00\x18@'
tRp1079
sg52
g53
sg23
S'3'
sg18
F387.4111670559505
sg33
g34
sg51
g11
sg20
S'2'
sg65
g36
(g77
S'\x00\x00\x00\x00\x00\x00\x00\x00'
tRp1080
sg44
g45
sg40
g41
sg25
F0.34095795906614512
sS'trials.thisIndex'
p1081
g36
(g80
S'\x18\x00\x00\x00'
tRp1082
sg26
V5
sS'trials.thisRepN'
p1083
I0
sg66
Vdragonfly
p1084
sg63
V../experiment_stimuli/bw_bc_bl/Living_Things/Insects/dragonfly_5.jpg
p1085
sg21
F0.99240625341190025
sS'trials.thisTrialN'
p1086
I90
sa(dp1087
g31
g32
sg17
F390.50603247358231
sg24
I1
sg35
g39
sg14
F390.4979745625169
sg16
g36
(g70
S'\x02\x00\x00\x00'
tRp1088
sg42
g43
sg46
g47
sg15
g72
sg22
F392.40274278708966
sg64
g216
sg62
g89
sg49
g50
sS'trials.thisN'
p1089
I91
sg19
I1
sg27
g36
(g38
S'\x00\x00\x00\x00\x00\x00\x18@'
tRp1090
sg52
g53
sg23
S'1'
sg18
F391.74058027775027
sg33
g34
sg51
g11
sg20
S'2'
sg65
g36
(g77
S'\x00\x00\x00\x00\x00\x00\x00\x00'
tRp1091
sg44
g45
sg40
g41
sg25
F0.15055679506622255
sS'trials.thisIndex'
p1092
g36
(g80
S'\x0f\x00\x00\x00'
tRp1093
sg26
V5
sS'trials.thisRepN'
p1094
I0
sg66
Vchair
p1095
sg63
V../experiment_stimuli/bw_bc_bl/Nonliving_Things/Furniture/chair_14.jpg
p1096
sg21
F0.64161266467999667
sS'trials.thisTrialN'
p1097
I91
sa(dp1098
g31
g32
sg17
F394.29257357539609
sg24
I0
sg35
g39
sg14
F394.28621411009226
sg16
g36
(g70
S'\x02\x00\x00\x00'
tRp1099
sg42
g43
sg46
g47
sg15
g72
sg22
F396.65200213063508
sg64
g216
sg62
g89
sg49
g50
sS'trials.thisN'
p1100
I92
sg19
I0
sg27
g36
(g38
S'\x00\x00\x00\x00\x00\x00\x1a@'
tRp1101
sg52
g53
sg23
S'2'
sg18
F395.55887772928691
sg33
g34
sg51
g11
sg20
S'1'
sg65
g36
(g77
S'\x00\x00\x00\x00\x00\x00\x00\x00'
tRp1102
sg44
g45
sg40
g41
sg25
F0.19063005544012412
sS'trials.thisIndex'
p1103
g36
(g80
S']\x00\x00\x00'
tRp1104
sg26
V5
sS'trials.thisRepN'
p1105
I0
sg66
Vwardrobe
p1106
sg63
V../experiment_stimuli/bw_bc_bl/Nonliving_Things/Furniture/wardrobe_9.jpg
p1107
sg21
F1.072557657957077
sS'trials.thisTrialN'
p1108
I92
sa(dp1109
g31
g32
sg17
F398.59028021729318
sg24
I1
sg35
g39
sg14
F398.585579386272
sg16
g36
(g70
S'\x01\x00\x00\x00'
tRp1110
sg42
g43
sg46
g47
sg15
g182
sg22
F401.33202353777597
sg64
g216
sg62
g89
sg49
g50
sS'trials.thisN'
p1111
I93
sg19
I1
sg27
g36
(g38
S'\x00\x00\x00\x00\x00\x00\x18@'
tRp1112
sg52
g53
sg23
S'1'
sg18
F399.82817137992242
sg33
g34
sg51
g11
sg20
S'1'
sg65
g36
(g77
S'\x00\x00\x00\x00\x00\x00\x00\x00'
tRp1113
sg44
g45
sg40
g41
sg25
F0.18061681929975748
sS'trials.thisIndex'
p1114
g36
(g80
S'\x05\x00\x00\x00'
tRp1115
sg26
V5
sS'trials.thisRepN'
p1116
I0
sg66
Vbed
p1117
sg63
V../experiment_stimuli/bw_bc_bl/Nonliving_Things/Furniture/bed_21.jpg
p1118
sg21
F1.4833001142251305
sS'trials.thisTrialN'
p1119
I93
sa(dp1120
g31
g32
sg17
F403.2504266347969
sg24
I0
sg35
g39
sg14
F403.24568428163184
sg16
g36
(g70
S'\x02\x00\x00\x00'
tRp1121
sg42
g43
sg46
g47
sg15
g182
sg22
F405.8620293228887
sg64
g113
sg62
g74
sg49
g50
sS'trials.thisN'
p1122
I94
sg19
I1
sg27
g36
(g38
S'\x00\x00\x00\x00\x00\x00\x18@'
tRp1123
sg52
g53
sg23
S'2'
sg18
F404.50834048812976
sg33
g34
sg51
g11
sg20
S'2'
sg65
g36
(g77
S'\x00\x00\x00\x00\x00\x00\x00\x00'
tRp1124
sg44
g45
sg40
g41
sg25
F0.49129395640920848
sS'trials.thisIndex'
p1125
g36
(g80
S'D\x00\x00\x00'
tRp1126
sg26
V5
sS'trials.thisRepN'
p1127
I0
sg66
Vrhino
p1128
sg63
V../experiment_stimuli/bw_bc_bl/Living_Things/Animals/rhino_1.jpg
p1129
sg21
F1.3331267157336697
sS'trials.thisTrialN'
p1130
I94
sa(dp1131
g31
g32
sg17
F408.09098267159425
sg24
I1
sg35
g39
sg14
F408.08620564977173
sg16
g36
(g70
S'\x02\x00\x00\x00'
tRp1132
sg42
g43
sg46
g47
sg15
g182
sg22
F410.76268862670986
sg64
g113
sg62
g74
sg49
g50
sS'trials.thisN'
p1133
I95
sg19
I0
sg27
g36
(g38
S'\x00\x00\x00\x00\x00\x00\x18@'
tRp1134
sg52
g53
sg23
S'1'
sg18
F409.33883635682287
sg33
g34
sg51
g11
sg20
S'1'
sg65
g36
(g77
S'\x00\x00\x00\x00\x00\x00\x00\x00'
tRp1135
sg44
g45
sg40
g41
sg25
F0.31090313743334264
sS'trials.thisIndex'
p1136
g36
(g80
S'\x14\x00\x00\x00'
tRp1137
sg26
V5
sS'trials.thisRepN'
p1138
I0
sg66
Vcow
p1139
sg63
V../experiment_stimuli/bw_bc_bl/Living_Things/Animals/cow_23.jpg
p1140
sg21
F1.4032817374682054
sS'trials.thisTrialN'
p1141
I95
sasS'loops'
p1142
(lp1143
g1
(cpsychopy.data
TrialHandler
p1144
g3
NtRp1145
(dp1146
S'origin'
p1147
NsS'thisTrial'
p1148
(lp1149
sS'_exp'
p1150
I98345232
sg10
S'trials'
p1151
sg6
I-1
sS'thisRepN'
p1152
I1
sg28
I01
sg29
g30
sS'data'
p1153
g1
(cpsychopy.data
DataHandler
p1154
c__builtin__
dict
p1155
(dp1156
g20
cnumpy.core.multiarray
_reconstruct
p1157
(cnumpy
ndarray
p1158
(I0
tS'b'
tRp1159
(I1
(I96
I1
tg37
(S'O4'
I0
I1
tRp1160
(I3
S'|'
NNNI-1
I-1
I63
tbI00
(lp1161
S'1'
aS'2'
aS'2'
aS'2'
aS'1'
aS'1'
aS'2'
aS'1'
aS'1'
aS'1'
aS'2'
aS'2'
aS'1'
aS'2'
aS'2'
aS'2'
aS'2'
aS'2'
aS'1'
aS'1'
aS'1'
aS'2'
aS'2'
aS'2'
aS'2'
aS'1'
aS'2'
aS'2'
aS'1'
aS'1'
aS'1'
aS'2'
aS'1'
aS'2'
aS'1'
aS'2'
aS'1'
aS'2'
aS'2'
aS'1'
aS'2'
aS'2'
aS'1'
aS'2'
aS'2'
aS'2'
aS'2'
aS'2'
aS'1'
aS'2'
aS'2'
aS'1'
aS'2'
aS'2'
aS'2'
aS'1'
aS'2'
aS'2'
aS'1'
aS'2'
aS'2'
aS'2'
aS'1'
aS'2'
aS'2'
aS'1'
aS'2'
aS'2'
aS'2'
aS'2'
aS'2'
aS'1'
aS'1'
aS'2'
aS'1'
aS'1'
aS'2'
aS'1'
aS'1'
aS'2'
aS'2'
aS'2'
aS'2'
aS'1'
aS'1'
aS'2'
aS'2'
aS'2'
aS'2'
aS'1'
aS'1'
aS'1'
aS'1'
aS'1'
aS'2'
aS'1'
atbsg17
cnumpy.ma.core
_mareconstruct
p1162
(cnumpy.ma.core
MaskedArray
p1163
g1158
(I0
tp1164
S'b'
tRp1165
(I1
(I96
I1
tg37
(S'f4'
I0
I1
tRp1166
(I3
S'<'
NNNI-1
I-1
I0
tbI00
S'\xc5\x04LCZ"\xb2C|v\xa5C\x13\xed\x1cCD\xadyC\x8eK\xc7Ca=mC\xdd}\x8eC|`\x9eC\x89\n\x9cCA\xee\xabC\xfb@\\C\xe25-C\xaa\xa5\x14C\xe9\x85\x8aC\xc6@\xc3C$\xd6\x18CuIPC\xe4*\x93C\x83H\x88C\xa5\x0b\xccC\xd9\x10%C\xc2\xd6\x10C(\x8c\x8cCX\x12\xc1CV\xd6\x06C\xf1\xd1\x02CR\x95\xa2B\x06\xb3\xb2Bp&1C\xb2I>Ck\x9f\x01A\xf1\xebdC|\xd5\xbaB\x00Vo@!\xf5FCku\xaaB\xe6[\xf4B\xafv\xbaC\x8c\xc2\x0cC\xba\x97\xbcCF\xbb\xbeC\xf2\x16\x8aB\xed\xb8\xecB\x92\xcd\xe3BJ\xc4}Cl\xc4BCt9!C\xa2\xed\x87A\xf0\xa5\x83CY29C\xad\r\x86CGI!Bz\x06\xaeC\xf9dXC\xe7l\xc7A[b)C\t\xa8\xa7Cd:\xb6C\xb2mbB\xef\xd3\x80B\xfd7\xb4C9\x19\x02B\x14\xfa\xa0C\x1d\x11\xd3BY\xa41B\x9f6\x12BA(\xb8C\x0e\xa0\xc9CyXTCb\x1d\xb0C\x98S\x95C\xe3\xdc`C\xa7\xed4C?\xef\xe6A\xab\xc7hC\xe1\xb9\x99Cx\xb0uC\xd4\x8f\x90CkQ\xfcB\xa5\xf5\xa6A\x19yRB\x10\x15BB\r\xce\x91B\xa2J\x97C~\x0b\x9bB9\xaeqCS\xf1IA\xe9\x18\xa3C\xd3WrB\x94\xe8\x80C\xdd\xa1\xcbBLJ\xc2Bs%\xc5C\xa8\xc6\xa9C\x08T\xdbB'
S'\x00\x00\x00\x00\x00\x00\x00\x00\x00\x00\x00\x00\x00\x00\x00\x00\x00\x00\x00\x00\x00\x00\x00\x00\x00\x00\x00\x00\x00\x00\x00\x00\x00\x00\x00\x00\x00\x00\x00\x00\x00\x00\x00\x00\x00\x00\x00\x00\x00\x00\x00\x00\x00\x00\x00\x00\x00\x00\x00\x00\x00\x00\x00\x00\x00\x00\x00\x00\x00\x00\x00\x00\x00\x00\x00\x00\x00\x00\x00\x00\x00\x00\x00\x00\x00\x00\x00\x00\x00\x00\x00\x00\x00\x00\x00\x00'
NtbsS'ran'
p1167
g1162
(g1163
g1158
g1164
S'b'
tRp1168
(I1
(I96
I1
tg1166
I00
S'\x00\x00\x80?\x00\x00\x80?\x00\x00\x80?\x00\x00\x80?\x00\x00\x80?\x00\x00\x80?\x00\x00\x80?\x00\x00\x80?\x00\x00\x80?\x00\x00\x80?\x00\x00\x80?\x00\x00\x80?\x00\x00\x80?\x00\x00\x80?\x00\x00\x80?\x00\x00\x80?\x00\x00\x80?\x00\x00\x80?\x00\x00\x80?\x00\x00\x80?\x00\x00\x80?\x00\x00\x80?\x00\x00\x80?\x00\x00\x80?\x00\x00\x80?\x00\x00\x80?\x00\x00\x80?\x00\x00\x80?\x00\x00\x80?\x00\x00\x80?\x00\x00\x80?\x00\x00\x80?\x00\x00\x80?\x00\x00\x80?\x00\x00\x80?\x00\x00\x80?\x00\x00\x80?\x00\x00\x80?\x00\x00\x80?\x00\x00\x80?\x00\x00\x80?\x00\x00\x80?\x00\x00\x80?\x00\x00\x80?\x00\x00\x80?\x00\x00\x80?\x00\x00\x80?\x00\x00\x80?\x00\x00\x80?\x00\x00\x80?\x00\x00\x80?\x00\x00\x80?\x00\x00\x80?\x00\x00\x80?\x00\x00\x80?\x00\x00\x80?\x00\x00\x80?\x00\x00\x80?\x00\x00\x80?\x00\x00\x80?\x00\x00\x80?\x00\x00\x80?\x00\x00\x80?\x00\x00\x80?\x00\x00\x80?\x00\x00\x80?\x00\x00\x80?\x00\x00\x80?\x00\x00\x80?\x00\x00\x80?\x00\x00\x80?\x00\x00\x80?\x00\x00\x80?\x00\x00\x80?\x00\x00\x80?\x00\x00\x80?\x00\x00\x80?\x00\x00\x80?\x00\x00\x80?\x00\x00\x80?\x00\x00\x80?\x00\x00\x80?\x00\x00\x80?\x00\x00\x80?\x00\x00\x80?\x00\x00\x80?\x00\x00\x80?\x00\x00\x80?\x00\x00\x80?\x00\x00\x80?\x00\x00\x80?\x00\x00\x80?\x00\x00\x80?\x00\x00\x80?\x00\x00\x80?\x00\x00\x80?'
S'\x00\x00\x00\x00\x00\x00\x00\x00\x00\x00\x00\x00\x00\x00\x00\x00\x00\x00\x00\x00\x00\x00\x00\x00\x00\x00\x00\x00\x00\x00\x00\x00\x00\x00\x00\x00\x00\x00\x00\x00\x00\x00\x00\x00\x00\x00\x00\x00\x00\x00\x00\x00\x00\x00\x00\x00\x00\x00\x00\x00\x00\x00\x00\x00\x00\x00\x00\x00\x00\x00\x00\x00\x00\x00\x00\x00\x00\x00\x00\x00\x00\x00\x00\x00\x00\x00\x00\x00\x00\x00\x00\x00\x00\x00\x00\x00'
Ntbsg24
g1162
(g1163
g1158
g1164
S'b'
tRp1169
(I1
(I96
I1
tg1166
I00
S'\x00\x00\x80?\x00\x00\x80?\x00\x00\x80?\x00\x00\x80?\x00\x00\x80?\x00\x00\x80?\x00\x00\x80?\x00\x00\x80?\x00\x00\x80?\x00\x00\x00\x00\x00\x00\x00\x00\x00\x00\x00\x00\x00\x00\x00\x00\x00\x00\x80?\x00\x00\x80?\x00\x00\x80?\x00\x00\x80?\x00\x00\x00\x00\x00\x00\x00\x00\x00\x00\x00\x00\x00\x00\x80?\x00\x00\x00\x00\x00\x00\x80?\x00\x00\x80?\x00\x00\x00\x00\x00\x00\x00\x00\x00\x00\x80?\x00\x00\x00\x00\x00\x00\x80?\x00\x00\x00\x00\x00\x00\x00\x00\x00\x00\x00\x00\x00\x00\x80?\x00\x00\x00\x00\x00\x00\x00\x00\x00\x00\x00\x00\x00\x00\x80?\x00\x00\x80?\x00\x00\x80?\x00\x00\x00\x00\x00\x00\x80?\x00\x00\x00\x00\x00\x00\x80?\x00\x00\x80?\x00\x00\x00\x00\x00\x00\x00\x00\x00\x00\x00\x00\x00\x00\x80?\x00\x00\x00\x00\x00\x00\x00\x00\x00\x00\x80?\x00\x00\x00\x00\x00\x00\x80?\x00\x00\x80?\x00\x00\x80?\x00\x00\x00\x00\x00\x00\x80?\x00\x00\x80?\x00\x00\x00\x00\x00\x00\x00\x00\x00\x00\x00\x00\x00\x00\x00\x00\x00\x00\x80?\x00\x00\x80?\x00\x00\x80?\x00\x00\x00\x00\x00\x00\x00\x00\x00\x00\x00\x00\x00\x00\x00\x00\x00\x00\x00\x00\x00\x00\x00\x00\x00\x00\x80?\x00\x00\x80?\x00\x00\x80?\x00\x00\x00\x00\x00\x00\x80?\x00\x00\x80?\x00\x00\x00\x00\x00\x00\x00\x00\x00\x00\x00\x00\x00\x00\x80?\x00\x00\x00\x00\x00\x00\x80?\x00\x00\x00\x00\x00\x00\x80?\x00\x00\x80?\x00\x00\x00\x00\x00\x00\x80?\x00\x00\x80?\x00\x00\x00\x00\x00\x00\x00\x00\x00\x00\x00\x00\x00\x00\x80?\x00\x00\x00\x00\x00\x00\x00\x00\x00\x00\x00\x00'
S'\x00\x00\x00\x00\x00\x00\x00\x00\x00\x00\x00\x00\x00\x00\x00\x00\x00\x00\x00\x00\x00\x00\x00\x00\x00\x00\x00\x00\x00\x00\x00\x00\x00\x00\x00\x00\x00\x00\x00\x00\x00\x00\x00\x00\x00\x00\x00\x00\x00\x00\x00\x00\x00\x00\x00\x00\x00\x00\x00\x00\x00\x00\x00\x00\x00\x00\x00\x00\x00\x00\x00\x00\x00\x00\x00\x00\x00\x00\x00\x00\x00\x00\x00\x00\x00\x00\x00\x00\x00\x00\x00\x00\x00\x00\x00\x00'
Ntbsg14
g1162
(g1163
g1158
g1164
S'b'
tRp1170
(I1
(I96
I1
tg1166
I00
S"9\x03LC\xbc!\xb2C\x90u\xa5C\x92\xeb\x1cC\xfd\xabyC\xf4J\xc7C\x1c<mCB}\x8eC\xb3_\x9eC\xeb\t\x9cC\xa5\xed\xabCt?\\C\xa24-Cg\xa4\x14CJ\x85\x8aC\xbe?\xc3C\xd0\xd4\x18C'HPC\x1a*\x93C\xe2G\x88C\t\x0b\xccC\xd6\x0e%C|\xd5\x10C\x89\x8b\x8cC\xba\x11\xc1C\n\xd5\x06C=\xd0\x02CQ\x92\xa2B\xca\xaf\xb2B\xe8$1C`H>C\x0e\x8c\x01A\xae\xeadC\x04\xd3\xbaBp\xe6m@\x9a\xf3FC\xdcr\xaaBmY\xf4B\xbbu\xbaCK\xc1\x0cC\xea\x96\xbcC\xab\xba\xbeC\r\x14\x8aBw\xb6\xecB\x18\xcb\xe3B\xbe\xc2}C1\xc3BC48!Cl\xe3\x87AO\xa5\x83C\x1019C\x0c\r\x86CSD!B\xd9\x05\xaeC\xb5cXC\xeab\xc7A\x95`)Cl\xa7\xa7C\xc69\xb6C\x92hbBu\xd1\x80B`7\xb4CB\x14\x02Bw\xf9\xa0C\x98\x0e\xd3BY\x9f1B\xb31\x12B\xa5'\xb8Cs\x9f\xc9C7WTC\xc5\x1c\xb0C\xfbR\x95C\x9e\xdb`C!\xec4C\x0e\xe5\xe6An\xc6hCE\xb9\x99C\xe5\xaeuC\r\x8f\x90C\x7fN\xfcBa\xea\xa6A+tRB\xe4\x0eBB\x8a\xcb\x91B\xd6I\x97C\x01\t\x9bB\xa8\xacqCK\xddIA\x16\x18\xa3C\xb7RrB\x9e\xe7\x80C\xf0\x9e\xcbB\xceG\xc2B\xa3$\xc5C\x0b\xc6\xa9C\x9dP\xdbB"
S'\x00\x00\x00\x00\x00\x00\x00\x00\x00\x00\x00\x00\x00\x00\x00\x00\x00\x00\x00\x00\x00\x00\x00\x00\x00\x00\x00\x00\x00\x00\x00\x00\x00\x00\x00\x00\x00\x00\x00\x00\x00\x00\x00\x00\x00\x00\x00\x00\x00\x00\x00\x00\x00\x00\x00\x00\x00\x00\x00\x00\x00\x00\x00\x00\x00\x00\x00\x00\x00\x00\x00\x00\x00\x00\x00\x00\x00\x00\x00\x00\x00\x00\x00\x00\x00\x00\x00\x00\x00\x00\x00\x00\x00\x00\x00\x00'
Ntbsg16
g1157
(g1158
(I0
tS'b'
tRp1171
(I1
(I96
I1
tg1160
I00
(lp1172
g615
ag1000
ag934
ag493
ag736
ag1110
ag703
ag824
ag901
ag890
ag967
ag659
ag537
ag471
ag802
ag1088
ag482
ag626
ag846
ag791
ag1132
ag515
ag460
ag813
ag1077
ag438
ag427
ag293
ag315
ag548
ag582
ag87
ag681
ag327
ag71
ag604
ag304
ag404
ag1044
ag449
ag1055
ag1066
ag260
ag393
ag382
ag747
ag593
ag504
ag112
ag769
ag571
ag780
ag181
ag978
ag648
ag136
ag526
ag945
ag1022
ag227
ag249
ag1011
ag158
ag912
ag360
ag193
ag170
ag1033
ag1121
ag637
ag989
ag857
ag670
ag559
ag147
ag692
ag879
ag725
ag835
ag416
ag124
ag215
ag204
ag271
ag868
ag282
ag714
ag100
ag923
ag238
ag758
ag349
ag338
ag1099
ag956
ag371
atbsg15
g1157
(g1158
(I0
tS'b'
tRp1173
(I1
(I96
I1
tg1160
I00
(lp1174
g72
ag72
ag72
ag72
ag182
ag182
ag72
ag72
ag182
ag182
ag182
ag72
ag182
ag182
ag72
ag72
ag182
ag72
ag182
ag72
ag182
ag182
ag72
ag182
ag182
ag182
ag72
ag182
ag182
ag182
ag182
ag72
ag182
ag182
ag72
ag72
ag182
ag72
ag72
ag72
ag72
ag72
ag182
ag182
ag182
ag182
ag72
ag72
ag72
ag182
ag72
ag182
ag182
ag72
ag72
ag72
ag72
ag182
ag182
ag182
ag182
ag182
ag72
ag182
ag72
ag182
ag72
ag182
ag182
ag72
ag182
ag72
ag182
ag182
ag72
ag182
ag72
ag182
ag182
ag182
ag72
ag72
ag72
ag182
ag182
ag72
ag72
ag72
ag72
ag182
ag72
ag182
ag182
ag72
ag182
ag72
atbsg22
g1162
(g1163
g1158
g1164
S'b'
tRp1175
(I1
(I96
I1
tg1166
I00
S"\x8ehNC\x94G\xb3C\xf7\x9d\xa6C\x9dX\x1fC\x97\xe0{C\x80\xaa\xc8C&\xd2oC\xbb\x8a\x8fC\xf2\xcf\x9fC\x8cN\x9dC\x81\n\xadC'\x01_CqJ/C\x0b\x02\x17C\xc0\x9b\x8bC\x8d3\xc4C\xcb\x18\x1bCqrRC\xd4A\x94C\xf2\x89\x89C\xa0a\xcdCHy'C\xa4\xd1\x12C\x98\x92\x8dCJ6\xc2CY\xc2\tC%\xfd\x04Cv\xae\xa6B\xd3\x13\xb7B\xf8\t3C\x05\xe1@CZ1$Ao\xd7fC{\x83\xbeB\x99f\xb8@\xe8\xa5ICn\xeb\xaeB\x8f\x99\xf8Bl\x9f\xbbCs\xf8\x0eCn\xcd\xbdCF\x08\xc0C\xb3\xf2\x8dB\x11\xbe\xf0Bc\xfc\xe8B\x06\xb2\x7fCN\x0cECY4#CP\xce\x96A\xf6\x1b\x85C\xe1\x81;CHB\x87C\xac\xed)Bg*\xafC\x1fjZC\x0fm\xd7A\xdfa+C\x8c\xce\xa8C'0\xb7C\xbd\x96jB\x116\x86B\x8fC\xb5C@\x8a\nB\x11\x0c\xa2C\xac\x9b\xd7B\xa6H:B\xde\x9c\x19B<~\xb9CW\xee\xcaCi|VC>*\xb1C\x94*\x96C\x83\x08cC\x8fV7C2\x17\xf5A\xd0TkC\xa3\xf3\x9aC\xb2\xc4wC\xf9\x0f\x92C\xa2\xb5\x00C\x0f\x14\xb8A\x12\x98ZB\xb9\xccJBL5\x97B\xd1\xa6\x98C\x88\xe2\x9eBS\xbdsC\x9a\xb7oACh\xa4C\x81\xfbyB\xd2i\x82C\xeec\xcfB\x98\xda\xc7BuS\xc6C\x94\xf3\xaaC\xbb\xdd\xdfB"
S'\x00\x00\x00\x00\x00\x00\x00\x00\x00\x00\x00\x00\x00\x00\x00\x00\x00\x00\x00\x00\x00\x00\x00\x00\x00\x00\x00\x00\x00\x00\x00\x00\x00\x00\x00\x00\x00\x00\x00\x00\x00\x00\x00\x00\x00\x00\x00\x00\x00\x00\x00\x00\x00\x00\x00\x00\x00\x00\x00\x00\x00\x00\x00\x00\x00\x00\x00\x00\x00\x00\x00\x00\x00\x00\x00\x00\x00\x00\x00\x00\x00\x00\x00\x00\x00\x00\x00\x00\x00\x00\x00\x00\x00\x00\x00\x00'
Ntbsg26
g1157
(g1158
(I0
tS'b'
tRp1176
(I1
(I96
I1
tg1160
I00
(lp1177
g36
(g80
S'\x06\x00\x00\x00'
tRp1178
ag36
(g80
S'\x08\x00\x00\x00'
tRp1179
ag36
(g80
S'\r\x00\x00\x00'
tRp1180
ag36
(g80
S'\t\x00\x00\x00'
tRp1181
ag36
(g80
S'\x06\x00\x00\x00'
tRp1182
ag36
(g80
S'\x02\x00\x00\x00'
tRp1183
ag36
(g80
S'\n\x00\x00\x00'
tRp1184
ag36
(g80
S'\x03\x00\x00\x00'
tRp1185
ag36
(g80
S'\x08\x00\x00\x00'
tRp1186
ag36
(g80
S'\t\x00\x00\x00'
tRp1187
ag36
(g80
S'\r\x00\x00\x00'
tRp1188
ag36
(g80
S'\x05\x00\x00\x00'
tRp1189
ag36
(g80
S'\x0c\x00\x00\x00'
tRp1190
ag36
(g80
S'\x04\x00\x00\x00'
tRp1191
ag36
(g80
S'\x01\x00\x00\x00'
tRp1192
ag36
(g80
S'\x01\x00\x00\x00'
tRp1193
ag36
(g80
S'\x07\x00\x00\x00'
tRp1194
ag36
(g80
S'\x07\x00\x00\x00'
tRp1195
ag36
(g80
S'\x03\x00\x00\x00'
tRp1196
ag36
(g80
S'\x03\x00\x00\x00'
tRp1197
ag36
(g80
S'\x02\x00\x00\x00'
tRp1198
ag36
(g80
S'\x0b\x00\x00\x00'
tRp1199
ag36
(g80
S'\x03\x00\x00\x00'
tRp1200
ag36
(g80
S'\x02\x00\x00\x00'
tRp1201
ag36
(g80
S'\x04\x00\x00\x00'
tRp1202
ag36
(g80
S'\x07\x00\x00\x00'
tRp1203
ag36
(g80
S'\x05\x00\x00\x00'
tRp1204
ag36
(g80
S'\x05\x00\x00\x00'
tRp1205
ag36
(g80
S'\x05\x00\x00\x00'
tRp1206
ag36
(g80
S'\t\x00\x00\x00'
tRp1207
ag36
(g80
S'\x0b\x00\x00\x00'
tRp1208
ag36
(g80
S'\x03\x00\x00\x00'
tRp1209
ag36
(g80
S'\x06\x00\x00\x00'
tRp1210
ag36
(g80
S'\x06\x00\x00\x00'
tRp1211
aS'5.0'
p1212
ag36
(g80
S'\x07\x00\x00\x00'
tRp1213
ag36
(g80
S'\x04\x00\x00\x00'
tRp1214
ag36
(g80
S'\x04\x00\x00\x00'
tRp1215
ag36
(g80
S'\x03\x00\x00\x00'
tRp1216
ag36
(g80
S'\x04\x00\x00\x00'
tRp1217
ag36
(g80
S'\x04\x00\x00\x00'
tRp1218
ag36
(g80
S'\x07\x00\x00\x00'
tRp1219
ag36
(g80
S'\x02\x00\x00\x00'
tRp1220
ag36
(g80
S'\x02\x00\x00\x00'
tRp1221
ag36
(g80
S'\x05\x00\x00\x00'
tRp1222
ag36
(g80
S'\x07\x00\x00\x00'
tRp1223
ag36
(g80
S'\t\x00\x00\x00'
tRp1224
ag36
(g80
S'\n\x00\x00\x00'
tRp1225
ag36
(g80
S'\x04\x00\x00\x00'
tRp1226
ag36
(g80
S'\x05\x00\x00\x00'
tRp1227
ag36
(g80
S'\t\x00\x00\x00'
tRp1228
ag36
(g80
S'\x04\x00\x00\x00'
tRp1229
ag36
(g80
S'\x04\x00\x00\x00'
tRp1230
ag36
(g80
S'\n\x00\x00\x00'
tRp1231
ag36
(g80
S'\x02\x00\x00\x00'
tRp1232
ag36
(g80
S'\x05\x00\x00\x00'
tRp1233
ag36
(g80
S'\t\x00\x00\x00'
tRp1234
ag36
(g80
S'\x0f\x00\x00\x00'
tRp1235
ag36
(g80
S'\x08\x00\x00\x00'
tRp1236
ag36
(g80
S'\x06\x00\x00\x00'
tRp1237
ag36
(g80
S'\x03\x00\x00\x00'
tRp1238
ag36
(g80
S'\x0b\x00\x00\x00'
tRp1239
ag36
(g80
S'\x03\x00\x00\x00'
tRp1240
ag36
(g80
S'\t\x00\x00\x00'
tRp1241
ag36
(g80
S'\x05\x00\x00\x00'
tRp1242
ag36
(g80
S'\x07\x00\x00\x00'
tRp1243
ag36
(g80
S'\x06\x00\x00\x00'
tRp1244
ag36
(g80
S'\x06\x00\x00\x00'
tRp1245
ag36
(g80
S'\x03\x00\x00\x00'
tRp1246
ag36
(g80
S'\x04\x00\x00\x00'
tRp1247
ag36
(g80
S'\x0b\x00\x00\x00'
tRp1248
ag36
(g80
S'\x02\x00\x00\x00'
tRp1249
ag36
(g80
S'\x03\x00\x00\x00'
tRp1250
ag36
(g80
S'\x06\x00\x00\x00'
tRp1251
ag36
(g80
S'\x04\x00\x00\x00'
tRp1252
ag36
(g80
S'\t\x00\x00\x00'
tRp1253
ag36
(g80
S'\x07\x00\x00\x00'
tRp1254
ag36
(g80
S'\t\x00\x00\x00'
tRp1255
ag36
(g80
S'\x04\x00\x00\x00'
tRp1256
ag36
(g80
S'\x06\x00\x00\x00'
tRp1257
ag36
(g80
S'\x02\x00\x00\x00'
tRp1258
ag36
(g80
S'\t\x00\x00\x00'
tRp1259
ag36
(g80
S'\x06\x00\x00\x00'
tRp1260
ag36
(g80
S'\x03\x00\x00\x00'
tRp1261
ag36
(g80
S'\x05\x00\x00\x00'
tRp1262
ag36
(g80
S'\x02\x00\x00\x00'
tRp1263
ag36
(g80
S'\x0c\x00\x00\x00'
tRp1264
ag36
(g80
S'\x01\x00\x00\x00'
tRp1265
ag36
(g80
S'\x0b\x00\x00\x00'
tRp1266
ag36
(g80
S'\x04\x00\x00\x00'
tRp1267
ag36
(g80
S'\x06\x00\x00\x00'
tRp1268
ag36
(g80
S'\x08\x00\x00\x00'
tRp1269
ag36
(g80
S'\x05\x00\x00\x00'
tRp1270
ag36
(g80
S'\x03\x00\x00\x00'
tRp1271
ag36
(g80
S'\x10\x00\x00\x00'
tRp1272
ag36
(g80
S'\x08\x00\x00\x00'
tRp1273
atbsg21
g1162
(g1163
g1158
g1164
S'b'
tRp1274
(I1
(I96
I1
tg1166
I00
S'\x85\xda\x8b?\xfe[v?K\xa8n?7\xdb\x8b?:\xf7f?\xc7\xdc\xbd?\xbf\x12\x9f?l\x00U?f\xdd\xc6?(\xf7\x99?\x1f"Z?\xadQ\xbb?\xa3\xc78?\x00\x92\x8a?\\\x8di?\xba@$?H\xc9s?"\x17Z?\xe6\x86i?a\x18\x9f?\xbc\x9e\xb3?$\x01\x88?O86?\xdb\xbcJ?V\x0e~?\x96\x8e\xce?\x88\xd5a?\xb3\x00C?\x1e\xf7f?\xfb\xbc\x0f?S\x18\x9f?\xfedd?6\x1f\x1f?\xeb\x9a\n?\xbeW;?\xe4\r\xb1?c\xc9s?\xd8\x90W?\x15q\x85?\xfc\xa7n?WD\x92?3:\xa4?\xbb\xf4+?\x89o@?\xaf\xca\xa6?4\x15\x1f?A\xc9s?GA$?\xf0\xde\x14?\xac\x1f\xd1?i}{?\xa8\xfc\x90?\x04\xd6a?\xc48q?\x1b\x0cC?\xb766?\xe8\xf4+?\xed\x86i?Xm\x17?k\xe9=?Y/\xb6?+\xe9=?\xf3\x90W?\xdc\xdeO?\x0c|{?p!Z?\xf7)\r?\xa6}\xae?\xe5\xa3\xaa?\xee\xb2\\?\x1a\xe9=?\x9b\xa3\xd7> \xf6f?\xc3e\x8e?&\x8a\xfb>V\x87\x9c?\x0f\xfc\x90?]{@?\xec\xab\xdc?p`\xa0?\xa4\xd5a?G\xa63?\x1e\xd4a?\xe8w\xb7?\xd4r\xb7?9d)?\x07\xa63?\xcak\x8e?\xbb\xa9\xa1?\x1a\xb2!?\xd4b\xdb?\x11\xbb\x0f?\x10*\xbf?\x92I\x89?n\xa8n?W:q?'
S'\x00\x00\x00\x00\x00\x00\x00\x00\x00\x00\x00\x00\x00\x00\x00\x00\x00\x00\x00\x00\x00\x00\x00\x00\x00\x00\x00\x00\x00\x00\x00\x00\x00\x00\x00\x00\x00\x00\x00\x00\x00\x00\x00\x00\x00\x00\x00\x00\x00\x00\x00\x00\x00\x00\x00\x00\x00\x00\x00\x00\x00\x00\x00\x00\x00\x00\x00\x00\x00\x00\x00\x00\x00\x00\x00\x00\x00\x00\x00\x00\x00\x00\x00\x00\x00\x00\x00\x00\x00\x00\x00\x00\x00\x00\x00\x00'
NtbsS'order'
p1275
g1162
(g1163
g1158
g1164
S'b'
tRp1276
(I1
(I96
I1
tg1166
I00
S'\x00\x00@B\x00\x00\xa6B\x00\x00\x9aB\x00\x00\x14B\x00\x00lB\x00\x00\xbaB\x00\x00`B\x00\x00\x86B\x00\x00\x94B\x00\x00\x92B\x00\x00\xa0B\x00\x00PB\x00\x00$B\x00\x00\x0cB\x00\x00\x82B\x00\x00\xb6B\x00\x00\x10B\x00\x00DB\x00\x00\x8aB\x00\x00\x80B\x00\x00\xbeB\x00\x00\x1cB\x00\x00\x08B\x00\x00\x84B\x00\x00\xb4B\x00\x00\x00B\x00\x00\xf8A\x00\x00\x98A\x00\x00\xa8A\x00\x00(B\x00\x004B\x00\x00\x80?\x00\x00XB\x00\x00\xb0A\x00\x00\x00\x00\x00\x00<B\x00\x00\xa0A\x00\x00\xe8A\x00\x00\xaeB\x00\x00\x04B\x00\x00\xb0B\x00\x00\xb2B\x00\x00\x80A\x00\x00\xe0A\x00\x00\xd8A\x00\x00pB\x00\x008B\x00\x00\x18B\x00\x00@@\x00\x00xB\x00\x000B\x00\x00|B\x00\x00\x10A\x00\x00\xa2B\x00\x00LB\x00\x00\xa0@\x00\x00 B\x00\x00\x9cB\x00\x00\xaaB\x00\x00PA\x00\x00pA\x00\x00\xa8B\x00\x00\xe0@\x00\x00\x96B\x00\x00\xc8A\x00\x00 A\x00\x00\x00A\x00\x00\xacB\x00\x00\xbcB\x00\x00HB\x00\x00\xa4B\x00\x00\x8cB\x00\x00TB\x00\x00,B\x00\x00\xc0@\x00\x00\\B\x00\x00\x90B\x00\x00hB\x00\x00\x88B\x00\x00\xf0A\x00\x00\x80@\x00\x00@A\x00\x000A\x00\x00\x88A\x00\x00\x8eB\x00\x00\x90A\x00\x00dB\x00\x00\x00@\x00\x00\x98B\x00\x00`A\x00\x00tB\x00\x00\xc0A\x00\x00\xb8A\x00\x00\xb8B\x00\x00\x9eB\x00\x00\xd0A'
S'\x00\x00\x00\x00\x00\x00\x00\x00\x00\x00\x00\x00\x00\x00\x00\x00\x00\x00\x00\x00\x00\x00\x00\x00\x00\x00\x00\x00\x00\x00\x00\x00\x00\x00\x00\x00\x00\x00\x00\x00\x00\x00\x00\x00\x00\x00\x00\x00\x00\x00\x00\x00\x00\x00\x00\x00\x00\x00\x00\x00\x00\x00\x00\x00\x00\x00\x00\x00\x00\x00\x00\x00\x00\x00\x00\x00\x00\x00\x00\x00\x00\x00\x00\x00\x00\x00\x00\x00\x00\x00\x00\x00\x00\x00\x00\x00'
Ntbsg19
g1162
(g1163
g1158
g1164
S'b'
tRp1277
(I1
(I96
I1
tg1166
I00
S'\x00\x00\x00\x00\x00\x00\x00\x00\x00\x00\x80?\x00\x00\x80?\x00\x00\x00\x00\x00\x00\x80?\x00\x00\x80?\x00\x00\x00\x00\x00\x00\x80?\x00\x00\x80?\x00\x00\x80?\x00\x00\x80?\x00\x00\x80?\x00\x00\x80?\x00\x00\x80?\x00\x00\x80?\x00\x00\x80?\x00\x00\x80?\x00\x00\x80?\x00\x00\x00\x00\x00\x00\x00\x00\x00\x00\x80?\x00\x00\x80?\x00\x00\x80?\x00\x00\x80?\x00\x00\x80?\x00\x00\x00\x00\x00\x00\x80?\x00\x00\x80?\x00\x00\x80?\x00\x00\x80?\x00\x00\x80?\x00\x00\x00\x00\x00\x00\x80?\x00\x00\x80?\x00\x00\x80?\x00\x00\x80?\x00\x00\x80?\x00\x00\x00\x00\x00\x00\x80?\x00\x00\x00\x00\x00\x00\x80?\x00\x00\x00\x00\x00\x00\x80?\x00\x00\x80?\x00\x00\x80?\x00\x00\x80?\x00\x00\x80?\x00\x00\x80?\x00\x00\x80?\x00\x00\x00\x00\x00\x00\x00\x00\x00\x00\x80?\x00\x00\x80?\x00\x00\x80?\x00\x00\x80?\x00\x00\x00\x00\x00\x00\x80?\x00\x00\x80?\x00\x00\x80?\x00\x00\x80?\x00\x00\x80?\x00\x00\x00\x00\x00\x00\x80?\x00\x00\x80?\x00\x00\x00\x00\x00\x00\x80?\x00\x00\x80?\x00\x00\x80?\x00\x00\x80?\x00\x00\x80?\x00\x00\x00\x00\x00\x00\x80?\x00\x00\x80?\x00\x00\x80?\x00\x00\x00\x00\x00\x00\x80?\x00\x00\x80?\x00\x00\x80?\x00\x00\x80?\x00\x00\x00\x00\x00\x00\x80?\x00\x00\x00\x00\x00\x00\x80?\x00\x00\x00\x00\x00\x00\x00\x00\x00\x00\x80?\x00\x00\x80?\x00\x00\x80?\x00\x00\x80?\x00\x00\x80?\x00\x00\x80?\x00\x00\x80?\x00\x00\x00\x00\x00\x00\x80?\x00\x00\x80?'
S'\x00\x00\x00\x00\x00\x00\x00\x00\x00\x00\x00\x00\x00\x00\x00\x00\x00\x00\x00\x00\x00\x00\x00\x00\x00\x00\x00\x00\x00\x00\x00\x00\x00\x00\x00\x00\x00\x00\x00\x00\x00\x00\x00\x00\x00\x00\x00\x00\x00\x00\x00\x00\x00\x00\x00\x00\x00\x00\x00\x00\x00\x00\x00\x00\x00\x00\x00\x00\x00\x00\x00\x00\x00\x00\x00\x00\x00\x00\x00\x00\x00\x00\x00\x00\x00\x00\x00\x00\x00\x00\x00\x00\x00\x00\x00\x00'
Ntbsg27
g1157
(g1158
(I0
tS'b'
tRp1278
(I1
(I96
I1
tg1160
I00
(lp1279
g617
ag1002
ag936
ag495
ag738
ag1112
ag705
ag826
ag903
ag892
ag969
ag661
ag539
ag473
ag804
ag1090
ag484
ag628
ag848
ag793
ag1134
ag517
ag462
ag815
ag1079
ag440
ag429
ag295
ag318
ag550
ag584
ag91
ag683
ag329
ag76
ag606
ag306
ag407
ag1046
ag451
ag1057
ag1068
ag262
ag395
ag384
ag749
ag595
ag506
ag115
ag771
ag573
ag782
ag184
ag980
ag650
ag138
ag528
ag947
ag1024
ag229
ag251
ag1013
ag161
ag914
ag362
ag195
ag172
ag1035
ag1123
ag639
ag991
ag859
ag672
ag562
ag149
ag694
ag881
ag727
ag837
ag418
ag127
ag218
ag206
ag273
ag870
ag284
ag716
ag103
ag925
ag240
ag760
ag351
ag340
ag1101
ag958
ag373
atbsg23
g1157
(g1158
(I0
tS'b'
tRp1280
(I1
(I96
I1
tg1160
I00
(lp1281
S'1'
aS'1'
aS'1'
aS'1'
aS'1'
aS'1'
aS'1'
aS'1'
aS'1'
aS'2'
aS'3'
aS'3'
aS'3'
aS'1'
aS'1'
aS'1'
aS'1'
aS'3'
aS'2'
aS'3'
aS'1'
aS'3'
aS'1'
aS'1'
aS'3'
aS'3'
aS'1'
aS'2'
aS'1'
aS'3'
aS'3'
aS'3'
aS'1'
aS'2'
aS'3'
aS'2'
aS'1'
aS'1'
aS'1'
aS'2'
aS'1'
aS'3'
aS'1'
aS'1'
aS'3'
aS'2'
aS'3'
aS'1'
aS'3'
aS'2'
aS'1'
aS'2'
aS'1'
aS'1'
aS'1'
aS'2'
aS'1'
aS'1'
aS'3'
aS'3'
aS'2'
aS'3'
aS'1'
aS'1'
aS'1'
aS'2'
aS'3'
aS'3'
aS'2'
aS'3'
aS'3'
aS'1'
aS'1'
aS'1'
aS'2'
aS'1'
aS'1'
aS'3'
aS'2'
aS'2'
aS'1'
aS'3'
aS'1'
aS'2'
aS'1'
aS'1'
aS'3'
aS'1'
aS'1'
aS'2'
aS'2'
aS'3'
aS'1'
aS'2'
aS'3'
aS'3'
atbsg18
g1162
(g1163
g1158
g1164
S'b'
tRp1282
(I1
(I96
I1
tg1166
I00
S'\x96KMC\xc4\xc9\xb2C\x02$\xa6C\xa2;\x1eC[\xf4zC\x02\xea\xc7C\xbd\x8enC\x98\x1d\x8fCs\x06\x9fC\xf4\xb1\x9cC\xcf\x9a\xacCB\x85]Ce\x8c.C\xa4\xe7\x15C\x10#\x8bC\xcb\xde\xc3C\xc0\x1f\x1aC\x16\x93QCp\xca\x93C8\xe8\x88C_\xab\xccC\x04d&C(\x16\x12C\x97*\x8dC\xa1\xb4\xc1C\xf9\x1f\x08C\x0b\x16\x04C\xee\x1d\xa5B_;\xb5B\xf8t2C\x93\x9d?C\xd6\x96\x15A\x0c3fC\xc0c\xbdB\xf5\xfe\x9f@\x89>HCV\xf9\xacB\xe6\xdf\xf6BZ\x17\xbbC\x88\x04\x0eC\x888\xbdCja\xbfCC\x90\x8cB\xab2\xefB\xb4V\xe6B\xae\r\x7fCA\x13DC\xd6\x8a"CL\xfd\x91A5H\x84C!\x81:C\xaa\xae\x86CFQ&B*\xaf\xaeC\xd1\xa1YCF\x91\xd1A\xa6\xb0*C\'W\xa8C\xce\xe1\xb6C\x0f\x8agB\xcdR\x83B\xf9\xe1\xb4C\xf0\x16\x07B\x80\xa1\xa1C0\x9a\xd5B\x17\xcb6B/S\x17B\x1e\xcd\xb8C\x11A\xcaCs\x9aUC\xa7\xc8\xb0C\t\xf2\x95CJ\x1cbC\x7f46C\xed\xfe\xf0A~\x16jC\x05`\x9aC\xf5\xfevC\xab0\x91C;\xdf\xfeB<\xdb\xb0Ap\xb4WBb0GB\xe4L\x94B\xbd\xec\x97C8\x85\x9dBk\x04sC\xeb\x95]A\xf7\xc3\xa3C\xaa_wB\xce\x8b\x81C\xec9\xceBh\xd3\xc4B\x89\xc7\xc5C\x9fy\xaaC\x9d\xeb\xddB'
S'\x00\x00\x00\x00\x00\x00\x00\x00\x00\x00\x00\x00\x00\x00\x00\x00\x00\x00\x00\x00\x00\x00\x00\x00\x00\x00\x00\x00\x00\x00\x00\x00\x00\x00\x00\x00\x00\x00\x00\x00\x00\x00\x00\x00\x00\x00\x00\x00\x00\x00\x00\x00\x00\x00\x00\x00\x00\x00\x00\x00\x00\x00\x00\x00\x00\x00\x00\x00\x00\x00\x00\x00\x00\x00\x00\x00\x00\x00\x00\x00\x00\x00\x00\x00\x00\x00\x00\x00\x00\x00\x00\x00\x00\x00\x00\x00'
Ntbsg25
g1162
(g1163
g1158
g1164
S'b'
tRp1283
(I1
(I96
I1
tg1166
I00
S'\x9a\xe4\x0f>Y\xe4\x0f>U\x91\xae>"\xe9\x0f>\x84)\x1a>\x9e\xf38>\xcdt\xf6={\x0c\x9a>\xd2n\x17?<`\xcd>\x0bCl>b\xbe\xf6=c\xcd\xf6=\x85+\xb9=\x1b\xeb\x0f>\x8f+\x1a>[(\xb9=Em$>\x1d\xbf\xcd>\xcaEl>\xb2.\x9f>\xaa\xb4.>p8\xb9=\x90\xbb\xcd=\x0b\x92\xae>\x1c\xa9\xa1?L4\xe2=\xea(\x1a>\x1a\xea\x0f>r)\x1a>d)\x1a>A\x1f\x1f?\x05zM>y*\x1a>B\xff\x19?\x9f\xb0!?\xef&\x1a>`\x1f\xf8=\x1e\x82M>\xa3x\x05>\xf8D\xe2=\r\x93\xae>\xb38C>\xf2*\x90=\xe6\xa1\x05>\x91\x19\xc3>\xb2\xb3.>=\x18\xf7=\xcf\xc8\x8f>\x80<\x1a>Up\x85?l2\x9f>\x7f9C>Jl$>\xba\xb1\xcd=\xadvM>\xd86\xb9=\xe8PM>\x93xM>@wM>\xfbOM>G3C>S\xf28>\x1e\xc1\xb8>?\xc8\xf6=\x0c\xceW>\xdb\xf88>s~M>\xe2\x8a\xfb>\xe4\xae.>\xafxM>\xbe\xe6\x02?/*\x1a>\xeao\xf6=\xc4\'\x1a>o\xb3.>o\xe2\xe1>\xf9\xae.>\x9eI\xf1>\x1a\xfb\xbd>\x99\xf18>2\xd6a>9\xf88>k\xf28>\xe8\x80\xd2>\xb67\xe2=\x9b\xbcW>\x1f\xa7\x8a>\x8c\xfa\xbd>^\xf18>5W;?\x00\xb1\xcd= )\x1a>\x864C>\x1e\xffa>BCl>'
S'\x00\x00\x00\x00\x00\x00\x00\x00\x00\x00\x00\x00\x00\x00\x00\x00\x00\x00\x00\x00\x00\x00\x00\x00\x00\x00\x00\x00\x00\x00\x00\x00\x00\x00\x00\x00\x00\x00\x00\x00\x00\x00\x00\x00\x00\x00\x00\x00\x00\x00\x00\x00\x00\x00\x00\x00\x00\x00\x00\x00\x00\x00\x00\x00\x00\x00\x00\x00\x00\x00\x00\x00\x00\x00\x00\x00\x00\x00\x00\x00\x00\x00\x00\x00\x00\x00\x00\x00\x00\x00\x00\x00\x00\x00\x00\x00'
NtbstRp1284
(dp1285
S'isNumeric'
p1286
(dp1287
g23
I00
sg20
I00
sg17
I01
sg1167
I01
sg22
I01
sg24
I01
sg14
I01
sg18
I01
sg16
I00
sg19
I01
sg26
I00
sg27
I00
sg15
I00
sg21
I01
sg1275
I01
sg25
I01
ssg1151
g1145
sS'dataTypes'
p1288
(lp1289
g1167
ag1275
ag14
ag15
ag16
ag17
ag18
ag19
ag20
ag21
ag22
ag23
ag24
ag25
ag26
ag27
asS'dataShape'
p1290
(lp1291
I96
aI1
asbsS'method'
p1292
S'random'
p1293
sS'sequenceIndices'
p1294
g1157
(g1158
(I0
tS'b'
tRp1295
(I1
(I96
I1
tg80
I01
S'"\x00\x00\x00\x1f\x00\x00\x00W\x00\x00\x000\x00\x00\x00P\x00\x00\x007\x00\x00\x00J\x00\x00\x00>\x00\x00\x00B\x00\x00\x004\x00\x00\x00A\x00\x00\x00R\x00\x00\x00Q\x00\x00\x00;\x00\x00\x00Y\x00\x00\x00<\x00\x00\x00*\x00\x00\x00S\x00\x00\x00U\x00\x00\x00\x1b\x00\x00\x00$\x00\x00\x00\x1c\x00\x00\x00!\x00\x00\x00\\\x00\x00\x00[\x00\x00\x00@\x00\x00\x00_\x00\x00\x00,\x00\x00\x00+\x00\x00\x00%\x00\x00\x00O\x00\x00\x00\x1a\x00\x00\x00\x19\x00\x00\x00\'\x00\x00\x00\x16\x00\x00\x00\r\x00\x00\x00\x10\x00\x00\x00\x03\x00\x00\x00/\x00\x00\x00\x15\x00\x00\x008\x00\x00\x00\x0c\x00\x00\x00\x1d\x00\x00\x00I\x00\x00\x002\x00\x00\x00\x1e\x00\x00\x00.\x00\x00\x00#\x00\x00\x00\x00\x00\x00\x00\x11\x00\x00\x00E\x00\x00\x006\x00\x00\x00\x0b\x00\x00\x00H\x00\x00\x00 \x00\x00\x00K\x00\x00\x00\x06\x00\x00\x00V\x00\x00\x00M\x00\x00\x00\x04\x00\x00\x00-\x00\x00\x00Z\x00\x00\x001\x00\x00\x003\x00\x00\x00\x13\x00\x00\x00\x0e\x00\x00\x00\x17\x00\x00\x00\x07\x00\x00\x00N\x00\x00\x00\x12\x00\x00\x00G\x00\x00\x00T\x00\x00\x00L\x00\x00\x00\t\x00\x00\x00\x08\x00\x00\x00?\x00\x00\x00X\x00\x00\x00\x02\x00\x00\x009\x00\x00\x00^\x00\x00\x00\n\x00\x00\x005\x00\x00\x00F\x00\x00\x00\x01\x00\x00\x00=\x00\x00\x00:\x00\x00\x00C\x00\x00\x00&\x00\x00\x00(\x00\x00\x00)\x00\x00\x00\x18\x00\x00\x00\x0f\x00\x00\x00]\x00\x00\x00\x05\x00\x00\x00D\x00\x00\x00\x14\x00\x00\x00'
tbsS'finished'
p1296
I01
sS'nReps'
p1297
I1
sS'nRemaining'
p1298
I-1
sS'trialList'
p1299
(lp1300
g1
(cpsychopy.data
TrialType
p1301
g1155
(dp1302
g62
g89
sg63
g623
sg64
g216
sg65
g618
sg66
g622
stRp1303
ag1
(g1301
g1155
(dp1304
g62
g74
sg63
g1008
sg64
g113
sg65
g1003
sg66
g1007
stRp1305
ag1
(g1301
g1155
(dp1306
g62
g89
sg63
g942
sg64
g216
sg65
g937
sg66
g941
stRp1307
ag1
(g1301
g1155
(dp1308
g62
g89
sg63
g501
sg64
g405
sg65
g496
sg66
g500
stRp1309
ag1
(g1301
g1155
(dp1310
g62
g74
sg63
g744
sg64
g73
sg65
g739
sg66
g743
stRp1311
ag1
(g1301
g1155
(dp1312
g62
g89
sg63
g1118
sg64
g216
sg65
g1113
sg66
g1117
stRp1313
ag1
(g1301
g1155
(dp1314
g62
g89
sg63
g711
sg64
g216
sg65
g706
sg66
g710
stRp1315
ag1
(g1301
g1155
(dp1316
g62
g89
sg63
g832
sg64
g101
sg65
g827
sg66
g831
stRp1317
ag1
(g1301
g1155
(dp1318
g62
g89
sg63
g909
sg64
g216
sg65
g904
sg66
g908
stRp1319
ag1
(g1301
g1155
(dp1320
g62
g89
sg63
g898
sg64
g101
sg65
g893
sg66
g897
stRp1321
ag1
(g1301
g1155
(dp1322
g62
g74
sg63
g975
sg64
g560
sg65
g970
sg66
g974
stRp1323
ag1
(g1301
g1155
(dp1324
g62
g89
sg63
g667
sg64
g101
sg65
g662
sg66
g666
stRp1325
ag1
(g1301
g1155
(dp1326
g62
g89
sg63
g545
sg64
g316
sg65
g540
sg66
g544
stRp1327
ag1
(g1301
g1155
(dp1328
g62
g74
sg63
g479
sg64
g113
sg65
g474
sg66
g478
stRp1329
ag1
(g1301
g1155
(dp1330
g62
g89
sg63
g810
sg64
g316
sg65
g805
sg66
g809
stRp1331
ag1
(g1301
g1155
(dp1332
g62
g89
sg63
g1096
sg64
g216
sg65
g1091
sg66
g1095
stRp1333
ag1
(g1301
g1155
(dp1334
g62
g74
sg63
g490
sg64
g113
sg65
g485
sg66
g489
stRp1335
ag1
(g1301
g1155
(dp1336
g62
g89
sg63
g634
sg64
g316
sg65
g629
sg66
g633
stRp1337
ag1
(g1301
g1155
(dp1338
g62
g89
sg63
g854
sg64
g88
sg65
g849
sg66
g853
stRp1339
ag1
(g1301
g1155
(dp1340
g62
g89
sg63
g799
sg64
g216
sg65
g794
sg66
g798
stRp1341
ag1
(g1301
g1155
(dp1342
g62
g74
sg63
g1140
sg64
g113
sg65
g1135
sg66
g1139
stRp1343
ag1
(g1301
g1155
(dp1344
g62
g74
sg63
g523
sg64
g125
sg65
g518
sg66
g522
stRp1345
ag1
(g1301
g1155
(dp1346
g62
g89
sg63
g468
sg64
g88
sg65
g463
sg66
g467
stRp1347
ag1
(g1301
g1155
(dp1348
g62
g74
sg63
g821
sg64
g125
sg65
g816
sg66
g820
stRp1349
ag1
(g1301
g1155
(dp1350
g62
g74
sg63
g1085
sg64
g560
sg65
g1080
sg66
g1084
stRp1351
ag1
(g1301
g1155
(dp1352
g62
g89
sg63
g446
sg64
g159
sg65
g441
sg66
g445
stRp1353
ag1
(g1301
g1155
(dp1354
g62
g74
sg63
g435
sg64
g73
sg65
g430
sg66
g434
stRp1355
ag1
(g1301
g1155
(dp1356
g62
g74
sg63
g301
sg64
g113
sg65
g296
sg66
g300
stRp1357
ag1
(g1301
g1155
(dp1358
g62
g89
sg63
g324
sg64
g316
sg65
g319
sg66
g323
stRp1359
ag1
(g1301
g1155
(dp1360
g62
g89
sg63
g556
sg64
g216
sg65
g551
sg66
g555
stRp1361
ag1
(g1301
g1155
(dp1362
g62
g89
sg63
g590
sg64
g88
sg65
g585
sg66
g589
stRp1363
ag1
(g1301
g1155
(dp1364
g62
g89
sg63
g97
sg64
g88
sg65
g92
sg66
g96
stRp1365
ag1
(g1301
g1155
(dp1366
g62
g74
sg63
g689
sg64
g113
sg65
g684
sg66
g688
stRp1367
ag1
(g1301
g1155
(dp1368
g62
g74
sg63
g335
sg64
g73
sg65
g330
sg66
g334
stRp1369
ag1
(g1301
g1155
(dp1370
g62
g74
sg63
g84
sg64
g73
sg65
g78
sg66
g83
stRp1371
ag1
(g1301
g1155
(dp1372
g62
g89
sg63
g612
sg64
g316
sg65
g607
sg66
g611
stRp1373
ag1
(g1301
g1155
(dp1374
g62
g89
sg63
g312
sg64
g159
sg65
g307
sg66
g311
stRp1375
ag1
(g1301
g1155
(dp1376
g62
g89
sg63
g413
sg64
g405
sg65
g408
sg66
g412
stRp1377
ag1
(g1301
g1155
(dp1378
g62
g74
sg63
g1052
sg64
g73
sg65
g1047
sg66
g1051
stRp1379
ag1
(g1301
g1155
(dp1380
g62
g74
sg63
g457
sg64
g113
sg65
g452
sg66
g456
stRp1381
ag1
(g1301
g1155
(dp1382
g62
g74
sg63
g1063
sg64
g113
sg65
g1058
sg66
g1062
stRp1383
ag1
(g1301
g1155
(dp1384
g62
g89
sg63
g1074
sg64
g316
sg65
g1069
sg66
g1073
stRp1385
ag1
(g1301
g1155
(dp1386
g62
g74
sg63
g268
sg64
g73
sg65
g263
sg66
g267
stRp1387
ag1
(g1301
g1155
(dp1388
g62
g74
sg63
g401
sg64
g125
sg65
g396
sg66
g400
stRp1389
ag1
(g1301
g1155
(dp1390
g62
g74
sg63
g390
sg64
g73
sg65
g385
sg66
g389
stRp1391
ag1
(g1301
g1155
(dp1392
g62
g74
sg63
g755
sg64
g560
sg65
g750
sg66
g754
stRp1393
ag1
(g1301
g1155
(dp1394
g62
g89
sg63
g601
sg64
g216
sg65
g596
sg66
g600
stRp1395
ag1
(g1301
g1155
(dp1396
g62
g89
sg63
g512
sg64
g216
sg65
g507
sg66
g511
stRp1397
ag1
(g1301
g1155
(dp1398
g62
g74
sg63
g121
sg64
g113
sg65
g116
sg66
g120
stRp1399
ag1
(g1301
g1155
(dp1400
g62
g74
sg63
g777
sg64
g125
sg65
g772
sg66
g776
stRp1401
ag1
(g1301
g1155
(dp1402
g62
g74
sg63
g579
sg64
g113
sg65
g574
sg66
g578
stRp1403
ag1
(g1301
g1155
(dp1404
g62
g74
sg63
g788
sg64
g73
sg65
g783
sg66
g787
stRp1405
ag1
(g1301
g1155
(dp1406
g62
g74
sg63
g190
sg64
g125
sg65
g185
sg66
g189
stRp1407
ag1
(g1301
g1155
(dp1408
g62
g89
sg63
g986
sg64
g316
sg65
g981
sg66
g985
stRp1409
ag1
(g1301
g1155
(dp1410
g62
g89
sg63
g656
sg64
g101
sg65
g651
sg66
g655
stRp1411
ag1
(g1301
g1155
(dp1412
g62
g74
sg63
g144
sg64
g125
sg65
g139
sg66
g143
stRp1413
ag1
(g1301
g1155
(dp1414
g62
g74
sg63
g534
sg64
g73
sg65
g529
sg66
g533
stRp1415
ag1
(g1301
g1155
(dp1416
g62
g74
sg63
g953
sg64
g73
sg65
g948
sg66
g952
stRp1417
ag1
(g1301
g1155
(dp1418
g62
g89
sg63
g1030
sg64
g316
sg65
g1025
sg66
g1029
stRp1419
ag1
(g1301
g1155
(dp1420
g62
g74
sg63
g235
sg64
g73
sg65
g230
sg66
g234
stRp1421
ag1
(g1301
g1155
(dp1422
g62
g74
sg63
g257
sg64
g73
sg65
g252
sg66
g256
stRp1423
ag1
(g1301
g1155
(dp1424
g62
g74
sg63
g1019
sg64
g73
sg65
g1014
sg66
g1018
stRp1425
ag1
(g1301
g1155
(dp1426
g62
g89
sg63
g167
sg64
g159
sg65
g162
sg66
g166
stRp1427
ag1
(g1301
g1155
(dp1428
g62
g74
sg63
g920
sg64
g73
sg65
g915
sg66
g919
stRp1429
ag1
(g1301
g1155
(dp1430
g62
g89
sg63
g368
sg64
g101
sg65
g363
sg66
g367
stRp1431
ag1
(g1301
g1155
(dp1432
g62
g74
sg63
g201
sg64
g125
sg65
g196
sg66
g200
stRp1433
ag1
(g1301
g1155
(dp1434
g62
g89
sg63
g178
sg64
g88
sg65
g173
sg66
g177
stRp1435
ag1
(g1301
g1155
(dp1436
g62
g74
sg63
g1041
sg64
g73
sg65
g1036
sg66
g1040
stRp1437
ag1
(g1301
g1155
(dp1438
g62
g74
sg63
g1129
sg64
g113
sg65
g1124
sg66
g1128
stRp1439
ag1
(g1301
g1155
(dp1440
g62
g89
sg63
g645
sg64
g216
sg65
g640
sg66
g644
stRp1441
ag1
(g1301
g1155
(dp1442
g62
g74
sg63
g997
sg64
g73
sg65
g992
sg66
g996
stRp1443
ag1
(g1301
g1155
(dp1444
g62
g89
sg63
g865
sg64
g88
sg65
g860
sg66
g864
stRp1445
ag1
(g1301
g1155
(dp1446
g62
g89
sg63
g678
sg64
g159
sg65
g673
sg66
g677
stRp1447
ag1
(g1301
g1155
(dp1448
g62
g74
sg63
g568
sg64
g560
sg65
g563
sg66
g567
stRp1449
ag1
(g1301
g1155
(dp1450
g62
g74
sg63
g155
sg64
g73
sg65
g150
sg66
g154
stRp1451
ag1
(g1301
g1155
(dp1452
g62
g74
sg63
g700
sg64
g125
sg65
g695
sg66
g699
stRp1453
ag1
(g1301
g1155
(dp1454
g62
g89
sg63
g887
sg64
g101
sg65
g882
sg66
g886
stRp1455
ag1
(g1301
g1155
(dp1456
g62
g89
sg63
g733
sg64
g88
sg65
g728
sg66
g732
stRp1457
ag1
(g1301
g1155
(dp1458
g62
g89
sg63
g843
sg64
g216
sg65
g838
sg66
g842
stRp1459
ag1
(g1301
g1155
(dp1460
g62
g74
sg63
g424
sg64
g73
sg65
g419
sg66
g423
stRp1461
ag1
(g1301
g1155
(dp1462
g62
g74
sg63
g133
sg64
g125
sg65
g128
sg66
g132
stRp1463
ag1
(g1301
g1155
(dp1464
g62
g89
sg63
g224
sg64
g216
sg65
g219
sg66
g223
stRp1465
ag1
(g1301
g1155
(dp1466
g62
g74
sg63
g212
sg64
g113
sg65
g207
sg66
g211
stRp1467
ag1
(g1301
g1155
(dp1468
g62
g89
sg63
g279
sg64
g88
sg65
g274
sg66
g278
stRp1469
ag1
(g1301
g1155
(dp1470
g62
g74
sg63
g876
sg64
g113
sg65
g871
sg66
g875
stRp1471
ag1
(g1301
g1155
(dp1472
g62
g74
sg63
g290
sg64
g73
sg65
g285
sg66
g289
stRp1473
ag1
(g1301
g1155
(dp1474
g62
g89
sg63
g722
sg64
g101
sg65
g717
sg66
g721
stRp1475
ag1
(g1301
g1155
(dp1476
g62
g89
sg63
g109
sg64
g101
sg65
g104
sg66
g108
stRp1477
ag1
(g1301
g1155
(dp1478
g62
g89
sg63
g931
sg64
g159
sg65
g926
sg66
g930
stRp1479
ag1
(g1301
g1155
(dp1480
g62
g89
sg63
g246
sg64
g159
sg65
g241
sg66
g245
stRp1481
ag1
(g1301
g1155
(dp1482
g62
g74
sg63
g766
sg64
g113
sg65
g761
sg66
g765
stRp1483
ag1
(g1301
g1155
(dp1484
g62
g89
sg63
g357
sg64
g101
sg65
g352
sg66
g356
stRp1485
ag1
(g1301
g1155
(dp1486
g62
g89
sg63
g346
sg64
g159
sg65
g341
sg66
g345
stRp1487
ag1
(g1301
g1155
(dp1488
g62
g89
sg63
g1107
sg64
g216
sg65
g1102
sg66
g1106
stRp1489
ag1
(g1301
g1155
(dp1490
g62
g74
sg63
g964
sg64
g125
sg65
g959
sg66
g963
stRp1491
ag1
(g1301
g1155
(dp1492
g62
g74
sg63
g379
sg64
g113
sg65
g374
sg66
g378
stRp1493
asS'seed'
p1494
NsS'thisIndex'
p1495
g1137
sS'thisN'
p1496
I96
sS'thisTrialN'
p1497
I0
sS'nTotal'
p1498
I96
sS'_warnUseOfNext'
p1499
I01
sbasS'savePickle'
p1500
I00
sb.