ccopy_reg
_reconstructor
p1
(cpsychopy.data
ExperimentHandler
p2
c__builtin__
object
p3
NtRp4
(dp5
S'originPath'
p6
NsS'dataFileName'
p7
VC:\u005cDocuments and Settings\u005cExperimental user\u005cMy Documents\u005cconsciousness\u005cuncon_feat\u005cexperiment_scripts\u005cdata/pedro_Experiment_EEG_version_2019_may_14_1454
p8
sS'runtimeInfo'
p9
NsS'name'
p10
VExperiment_EEG_version
p11
sS'dataNames'
p12
(lp13
S'image_onset_time'
p14
aS'response_window'
p15
aS'correctAns'
p16
aS'probe_onset'
p17
aS'discrim_resptime'
p18
aS'response.corr'
p19
aS'response.keys'
p20
aS'response.rt'
p21
aS'visible_resptime'
p22
aS'visible.keys'
p23
aS'visible.corr'
p24
aS'visible.rt'
p25
aS'probeFrames'
p26
aS'jitter2'
p27
asS'autoLog'
p28
I01
sS'extraInfo'
p29
(dp30
Vn_square
p31
V32
p32
sVexperiment_color
p33
Vbw
p34
sS'frameRate'
p35
cnumpy.core.multiarray
scalar
p36
(cnumpy
dtype
p37
(S'f8'
I0
I1
tRp38
(I3
S'<'
NNNI-1
I-1
I0
tbS'\x94\\\x98U\xe4\xf1X@'
tRp39
sS'date'
p40
V2019_may_14_1454
p41
sVsession
p42
V001
p43
sVimage_size
p44
V256
p45
sVpremask_dur
p46
V20
p47
sVprobeFrames
p48
V5
sVparticipant
p49
Vpedro
p50
sS'expName'
p51
g11
sVpostmask_dur
p52
V20
p53
ssS'loopsUnfinished'
p54
(lp55
sS'saveWideText'
p56
I00
sS'thisEntry'
p57
(dp58
sS'version'
p59
S''
sS'_paramNamesSoFar'
p60
(lp61
S'category'
p62
aS'probe_path'
p63
aS'subcategory'
p64
aS'fixation_duration'
p65
aS'label'
p66
asS'entries'
p67
(lp68
(dp69
g31
g32
sg17
F3.7398562852758914
sg24
I1
sg35
g39
sg14
F3.7185477748280391
sg16
g36
(g37
(S'i4'
I0
I1
tRp70
(I3
S'<'
NNNI-1
I-1
I0
tbS'\x01\x00\x00\x00'
tRp71
sg42
g43
sg46
g47
sg15
S'V_nV'
p72
sg22
F6.4253355809487402
sg64
VAnimals
p73
sg62
VLiving_Things
p74
sg49
g50
sS'trials.thisN'
p75
I0
sg19
I1
sg27
g36
(g38
S'\x00\x00\x00\x00\x00\x00\x18@'
tRp76
sg52
g53
sg23
S'1'
sg18
F5.0012431490467861
sg33
g34
sg51
g11
sg20
S'1'
sg65
g36
(g37
(S'i8'
I0
I1
tRp77
(I3
S'<'
NNNI-1
I-1
I0
tbS'\x00\x00\x00\x00\x00\x00\x00\x00'
tRp78
sg44
g45
sg40
g41
sg25
F1.4734281990095042
sS'trials.thisIndex'
p79
g36
(g37
(S'i4'
I0
I1
tRp80
(I3
S'<'
NNNI-1
I-1
I0
tbS'\x14\x00\x00\x00'
tRp81
sg26
V5
sS'trials.thisRepN'
p82
I0
sg66
Vcow
p83
sg63
V../experiment_stimuli/bw_bc_bl/Living_Things/Animals/cow_24.jpg
p84
sg21
F1.3932599336258136
sS'trials.thisTrialN'
p85
I0
sa(dp86
g31
g32
sg17
F9.6362134835217148
sg24
I0
sg35
g39
sg14
F9.6313983268919401
sg16
g36
(g70
S'\x01\x00\x00\x00'
tRp87
sg42
g43
sg46
g47
sg15
S'nV_V'
p88
sg22
F12.277779829106294
sg64
VKitchen_Uten
p89
sg62
VNonliving_Things
p90
sg49
g50
sS'trials.thisN'
p91
I1
sg19
I1
sg27
g36
(g38
S'\x00\x00\x00\x00\x00\x00\x1c@'
tRp92
sg52
g53
sg23
S'2'
sg18
F10.924113309476525
sg33
g34
sg51
g11
sg20
S'1'
sg65
g36
(g77
S'\x00\x00\x00\x00\x00\x00\x00\x00'
tRp93
sg44
g45
sg40
g41
sg25
F1.7941238016355783
sS'trials.thisIndex'
p94
g36
(g80
S'S\x00\x00\x00'
tRp95
sg26
V5
sS'trials.thisRepN'
p96
I0
sg66
Vteapot
p97
sg63
V../experiment_stimuli/bw_bc_bl/Nonliving_Things/Kitchen_Uten/teapot_24.jpg
p98
sg21
F1.3331249452312477
sS'trials.thisTrialN'
p99
I1
sa(dp100
g31
g32
sg17
F15.810139965789858
sg24
I0
sg35
g39
sg14
F15.804817342723254
sg16
g36
(g70
S'\x01\x00\x00\x00'
tRp101
sg42
g43
sg46
g47
sg15
g88
sg22
F17.729638893099036
sg64
VVehicles
p102
sg62
g90
sg49
g50
sS'trials.thisN'
p103
I2
sg19
I0
sg27
g36
(g38
S'\x00\x00\x00\x00\x00\x00\x18@'
tRp104
sg52
g53
sg23
S'3'
sg18
F17.087504502967931
sg33
g34
sg51
g11
sg20
S'2'
sg65
g36
(g77
S'\x00\x00\x00\x00\x00\x00\x00\x00'
tRp105
sg44
g45
sg40
g41
sg25
F1.222721642756369
sS'trials.thisIndex'
p106
g36
(g80
S'\t\x00\x00\x00'
tRp107
sg26
V5
sS'trials.thisRepN'
p108
I0
sg66
Vbus
p109
sg63
V../experiment_stimuli/bw_bc_bl/Nonliving_Things/Vehicles/bus_9.jpg
p110
sg21
F0.62157887604553252
sS'trials.thisTrialN'
p111
I2
sa(dp112
g31
g32
sg17
F20.690405069035478
sg24
I0
sg35
g39
sg14
F20.685430241923314
sg16
g36
(g70
S'\x01\x00\x00\x00'
tRp113
sg42
g43
sg46
g47
sg15
g88
sg22
F22.510020201269072
sg64
VMusical_Inst
p114
sg62
g90
sg49
g50
sS'trials.thisN'
p115
I3
sg19
I1
sg27
g36
(g38
S'\x00\x00\x00\x00\x00\x00\x18@'
tRp116
sg52
g53
sg23
S'3'
sg18
F21.948069452249911
sg33
g34
sg51
g11
sg20
S'1'
sg65
g36
(g77
S'\x00\x00\x00\x00\x00\x00\x00\x00'
tRp117
sg44
g45
sg40
g41
sg25
F0.95230647426797077
sS'trials.thisIndex'
p118
g36
(g80
S'Y\x00\x00\x00'
tRp119
sg26
V5
sS'trials.thisRepN'
p120
I0
sg66
Vtuba
p121
sg63
V../experiment_stimuli/bw_bc_bl/Nonliving_Things/Musical_Inst/tuba_24.jpg
p122
sg21
F0.5414044342469424
sS'trials.thisTrialN'
p123
I3
sa(dp124
g31
g32
sg17
F25.200967455923092
sg24
I1
sg35
g39
sg14
F25.195229162462056
sg16
g36
(g70
S'\x02\x00\x00\x00'
tRp125
sg42
g43
sg46
g47
sg15
g72
sg22
F27.861660715541802
sg64
g89
sg62
g90
sg49
g50
sS'trials.thisN'
p126
I4
sg19
I0
sg27
g36
(g38
S'\x00\x00\x00\x00\x00\x00\x18@'
tRp127
sg52
g53
sg23
S'1'
sg18
F26.437831054325216
sg33
g34
sg51
g11
sg20
S'1'
sg65
g36
(g77
S'\x00\x00\x00\x00\x00\x00\x00\x00'
tRp128
sg44
g45
sg40
g41
sg25
F0.52137277013389394
sS'trials.thisIndex'
p129
g36
(g80
S'B\x00\x00\x00'
tRp130
sg26
V5
sS'trials.thisRepN'
p131
I0
sg66
Vpot
p132
sg63
V../experiment_stimuli/bw_bc_bl/Nonliving_Things/Kitchen_Uten/pot_17.jpg
p133
sg21
F1.403282135957852
sS'trials.thisTrialN'
p134
I4
sa(dp135
g31
g32
sg17
F30.120786617102567
sg24
I1
sg35
g39
sg14
F30.115926656580996
sg16
g36
(g70
S'\x01\x00\x00\x00'
tRp136
sg42
g43
sg46
g47
sg15
g72
sg22
F32.932691759837326
sg64
VBirds
p137
sg62
g74
sg49
g50
sS'trials.thisN'
p138
I5
sg19
I0
sg27
g36
(g38
S'\x00\x00\x00\x00\x00\x00\x1a@'
tRp139
sg52
g53
sg23
S'1'
sg18
F31.368545356323011
sg33
g34
sg51
g11
sg20
S'2'
sg65
g36
(g77
S'\x00\x00\x00\x00\x00\x00\x00\x00'
tRp140
sg44
g45
sg40
g41
sg25
F0.78192151203984395
sS'trials.thisIndex'
p141
g36
(g80
S'*\x00\x00\x00'
tRp142
sg26
V5
sS'trials.thisRepN'
p143
I0
sg66
Vhummingbird
p144
sg63
V../experiment_stimuli/bw_bc_bl/Living_Things/Birds/hummingbird_9.jpg
p145
sg21
F1.543583043909166
sS'trials.thisTrialN'
p146
I5
sa(dp147
g31
g32
sg17
F35.452864607039373
sg24
I1
sg35
g39
sg14
F35.447508540877607
sg16
g36
(g70
S'\x01\x00\x00\x00'
tRp148
sg42
g43
sg46
g47
sg15
g88
sg22
F38.134039840078913
sg64
VBuildings
p149
sg62
g90
sg49
g50
sS'trials.thisN'
p150
I6
sg19
I1
sg27
g36
(g38
S'\x00\x00\x00\x00\x00\x00\x18@'
tRp151
sg52
g53
sg23
S'1'
sg18
F36.72017809265526
sg33
g34
sg51
g11
sg20
S'1'
sg65
g36
(g77
S'\x00\x00\x00\x00\x00\x00\x00\x00'
tRp152
sg44
g45
sg40
g41
sg25
F0.55141953530255705
sS'trials.thisIndex'
p153
g36
(g80
S':\x00\x00\x00'
tRp154
sg26
V5
sS'trials.thisRepN'
p155
I0
sg66
Vpalace
p156
sg63
V../experiment_stimuli/bw_bc_bl/Nonliving_Things/Buildings/palace_9.jpg
p157
sg21
F1.3933010608307086
sS'trials.thisTrialN'
p158
I6
sa(dp159
g31
g32
sg17
F40.423873320454732
sg24
I0
sg35
g39
sg14
F40.418315682152752
sg16
g36
(g70
S'\x01\x00\x00\x00'
tRp160
sg42
g43
sg46
g47
sg15
g72
sg22
F42.533546016842593
sg64
g73
sg62
g74
sg49
g50
sS'trials.thisN'
p161
I7
sg19
I1
sg27
g36
(g38
S'\x00\x00\x00\x00\x00\x00\x1a@'
tRp162
sg52
g53
sg23
S'2'
sg18
F41.701002180750947
sg33
g34
sg51
g11
sg20
S'1'
sg65
g36
(g77
S'\x00\x00\x00\x00\x00\x00\x00\x00'
tRp163
sg44
g45
sg40
g41
sg25
F0.86209423246327788
sS'trials.thisIndex'
p164
g36
(g80
S'\x10\x00\x00\x00'
tRp165
sg26
V5
sS'trials.thisRepN'
p166
I0
sg66
Vcheetah
p167
sg63
V../experiment_stimuli/bw_bc_bl/Living_Things/Animals/cheetah_23.jpg
p168
sg21
F0.8119840890285559
sS'trials.thisTrialN'
p169
I7
sa(dp170
g31
g32
sg17
F45.134004999592435
sg24
I0
sg35
g39
sg14
F45.128551570291165
sg16
g36
(g70
S'\x01\x00\x00\x00'
tRp171
sg42
g43
sg46
g47
sg15
g88
sg22
F47.514393010467757
sg64
VFurniture
p172
sg62
g90
sg49
g50
sS'trials.thisN'
p173
I8
sg19
I1
sg27
g36
(g38
S'\x00\x00\x00\x00\x00\x00\x1a@'
tRp174
sg52
g53
sg23
S'2'
sg18
F46.401218460523523
sg33
g34
sg51
g11
sg20
S'1'
sg65
g36
(g77
S'\x00\x00\x00\x00\x00\x00\x00\x00'
tRp175
sg44
g45
sg40
g41
sg25
F0.85208020295249298
sS'trials.thisIndex'
p176
g36
(g80
S'\x0f\x00\x00\x00'
tRp177
sg26
V5
sS'trials.thisRepN'
p178
I0
sg66
Vchair
p179
sg63
V../experiment_stimuli/bw_bc_bl/Nonliving_Things/Furniture/chair_12.jpg
p180
sg21
F1.0926011908450164
sS'trials.thisTrialN'
p181
I8
sa(dp182
g31
g32
sg17
F50.104227025411092
sg24
I0
sg35
g39
sg14
F50.099353989877272
sg16
g36
(g70
S'\x01\x00\x00\x00'
tRp183
sg42
g43
sg46
g47
sg15
g88
sg22
F52.57537550694542
sg64
g102
sg62
g90
sg49
g50
sS'trials.thisN'
p184
I9
sg19
I1
sg27
g36
(g38
S'\x00\x00\x00\x00\x00\x00\x18@'
tRp185
sg52
g53
sg23
S'3'
sg18
F51.362003884278238
sg33
g34
sg51
g11
sg20
S'1'
sg65
g36
(g77
S'\x00\x00\x00\x00\x00\x00\x00\x00'
tRp186
sg44
g45
sg40
g41
sg25
F0.60154330229852349
sS'trials.thisIndex'
p187
g36
(g80
S'6\x00\x00\x00'
tRp188
sg26
V5
sS'trials.thisRepN'
p189
I0
sg66
Vmotorbike
p190
sg63
V../experiment_stimuli/bw_bc_bl/Nonliving_Things/Vehicles/motorbike_24.jpg
p191
sg21
F1.192816563649103
sS'trials.thisTrialN'
p192
I9
sa(dp193
g31
g32
sg17
F54.915212376508862
sg24
I1
sg35
g39
sg14
F54.909810254757758
sg16
g36
(g70
S'\x02\x00\x00\x00'
tRp194
sg42
g43
sg46
g47
sg15
g88
sg22
F57.215461591666099
sg64
VMarine_creatures
p195
sg62
g74
sg49
g50
sS'trials.thisN'
p196
I10
sg19
I0
sg27
g36
(g38
S'\x00\x00\x00\x00\x00\x00\x1a@'
tRp197
sg52
g53
sg23
S'1'
sg18
F56.142399951990228
sg33
g34
sg51
g11
sg20
S'1'
sg65
g36
(g77
S'\x00\x00\x00\x00\x00\x00\x00\x00'
tRp198
sg44
g45
sg40
g41
sg25
F0.39106906490633264
sS'trials.thisIndex'
p199
g36
(g80
S'\x17\x00\x00\x00'
tRp200
sg26
V5
sS'trials.thisRepN'
p201
I0
sg66
Vdolphin
p202
sg63
V../experiment_stimuli/bw_bc_bl/Living_Things/Marine_creatures/dolphin_0.jpg
p203
sg21
F1.0525227082544006
sS'trials.thisTrialN'
p204
I10
sa(dp205
g31
g32
sg17
F59.344336884561926
sg24
I1
sg35
g39
sg14
F59.339442793163471
sg16
g36
(g70
S'\x01\x00\x00\x00'
tRp206
sg42
g43
sg46
g47
sg15
g88
sg22
F61.625047721492592
sg64
VTools
p207
sg62
g90
sg49
g50
sS'trials.thisN'
p208
I11
sg19
I1
sg27
g36
(g38
S'\x00\x00\x00\x00\x00\x00\x1a@'
tRp209
sg52
g53
sg23
S'1'
sg18
F60.592069586913567
sg33
g34
sg51
g11
sg20
S'1'
sg65
g36
(g77
S'\x00\x00\x00\x00\x00\x00\x00\x00'
tRp210
sg44
g45
sg40
g41
sg25
F1.1827919965144247
sS'trials.thisIndex'
p211
g36
(g80
S'\x03\x00\x00\x00'
tRp212
sg26
V5
sS'trials.thisRepN'
p213
I0
sg66
Vaxe
p214
sg63
V../experiment_stimuli/bw_bc_bl/Nonliving_Things/Tools/axe_4.jpg
p215
sg21
F1.0124277410795912
sS'trials.thisTrialN'
p216
I11
sa(dp217
g31
g32
sg17
F64.545559432765003
sg24
I1
sg35
g39
sg14
F64.540746964223217
sg16
g36
(g70
S'\x02\x00\x00\x00'
tRp218
sg42
g43
sg46
g47
sg15
g72
sg22
F66.666011579858605
sg64
g172
sg62
g90
sg49
g50
sS'trials.thisN'
p219
I12
sg19
I1
sg27
g36
(g38
S'\x00\x00\x00\x00\x00\x00\x18@'
tRp220
sg52
g53
sg23
S'1'
sg18
F65.823434458870906
sg33
g34
sg51
g11
sg20
S'2'
sg65
g36
(g77
S'\x00\x00\x00\x00\x00\x00\x00\x00'
tRp221
sg44
g45
sg40
g41
sg25
F0.51132999279070646
sS'trials.thisIndex'
p222
g36
(g80
S'\x13\x00\x00\x00'
tRp223
sg26
V5
sS'trials.thisRepN'
p224
I0
sg66
Vcouch
p225
sg63
V../experiment_stimuli/bw_bc_bl/Nonliving_Things/Furniture/couch_22.jpg
p226
sg21
F0.82203637401107699
sS'trials.thisTrialN'
p227
I12
sa(dp228
g31
g32
sg17
F68.915678620454855
sg24
I0
sg35
g39
sg14
F68.91024408955127
sg16
g36
(g70
S'\x01\x00\x00\x00'
tRp229
sg42
g43
sg46
g47
sg15
g88
sg22
F71.135727566725109
sg64
g149
sg62
g90
sg49
g50
sS'trials.thisN'
p230
I13
sg19
I1
sg27
g36
(g38
S'\x00\x00\x00\x00\x00\x00\x1a@'
tRp231
sg52
g53
sg23
S'2'
sg18
F70.212975079135504
sg33
g34
sg51
g11
sg20
S'1'
sg65
g36
(g77
S'\x00\x00\x00\x00\x00\x00\x00\x00'
tRp232
sg44
g45
sg40
g41
sg25
F0.65164918621303514
sS'trials.thisIndex'
p233
g36
(g80
S'\x0c\x00\x00\x00'
tRp234
sg26
V5
sS'trials.thisRepN'
p235
I0
sg66
Vcastle
p236
sg63
V../experiment_stimuli/bw_bc_bl/Nonliving_Things/Buildings/castle_24.jpg
p237
sg21
F0.90219081251416355
sS'trials.thisTrialN'
p238
I13
sa(dp239
g31
g32
sg17
F73.525093106785789
sg24
I0
sg35
g39
sg14
F73.520264980441425
sg16
g36
(g70
S'\x02\x00\x00\x00'
tRp240
sg42
g43
sg46
g47
sg15
g72
sg22
F75.715658099390566
sg64
g89
sg62
g90
sg49
g50
sS'trials.thisN'
p241
I14
sg19
I1
sg27
g36
(g38
S'\x00\x00\x00\x00\x00\x00\x18@'
tRp242
sg52
g53
sg23
S'3'
sg18
F74.812973831722047
sg33
g34
sg51
g11
sg20
S'2'
sg65
g36
(g77
S'\x00\x00\x00\x00\x00\x00\x00\x00'
tRp243
sg44
g45
sg40
g41
sg25
F0.5313743186998181
sS'trials.thisIndex'
p244
g36
(g80
S'M\x00\x00\x00'
tRp245
sg26
V5
sS'trials.thisRepN'
p246
I0
sg66
Vsmall-saucepan
p247
sg63
V../experiment_stimuli/bw_bc_bl/Nonliving_Things/Kitchen_Uten/small-saucepan_22.jpg
p248
sg21
F0.88214384397724643
sS'trials.thisTrialN'
p249
I14
sa(dp250
g31
g32
sg17
F77.984763053187635
sg24
I0
sg35
g39
sg14
F77.979955975548364
sg16
g36
(g70
S'\x02\x00\x00\x00'
tRp251
sg42
g43
sg46
g47
sg15
g72
sg22
F80.195406807237305
sg64
g172
sg62
g90
sg49
g50
sS'trials.thisN'
p252
I15
sg19
I1
sg27
g36
(g38
S'\x00\x00\x00\x00\x00\x00 @'
tRp253
sg52
g53
sg23
S'3'
sg18
F79.252624700311571
sg33
g34
sg51
g11
sg20
S'2'
sg65
g36
(g77
S'\x00\x00\x00\x00\x00\x00\x00\x00'
tRp254
sg44
g45
sg40
g41
sg25
F0.90217778261285275
sS'trials.thisIndex'
p255
g36
(g80
S'.\x00\x00\x00'
tRp256
sg26
V5
sS'trials.thisRepN'
p257
I0
sg66
Vlamp
p258
sg63
V../experiment_stimuli/bw_bc_bl/Nonliving_Things/Furniture/lamp_15.jpg
p259
sg21
F0.92222923948429525
sS'trials.thisTrialN'
p260
I15
sa(dp261
g31
g32
sg17
F82.835322311555501
sg24
I1
sg35
g39
sg14
F82.830502798024099
sg16
g36
(g70
S'\x02\x00\x00\x00'
tRp262
sg42
g43
sg46
g47
sg15
g72
sg22
F84.885593602666631
sg64
g102
sg62
g90
sg49
g50
sS'trials.thisN'
p263
I16
sg19
I1
sg27
g36
(g38
S'\x00\x00\x00\x00\x00\x00\x18@'
tRp264
sg52
g53
sg23
S'1'
sg18
F84.073103652277496
sg33
g34
sg51
g11
sg20
S'2'
sg65
g36
(g77
S'\x00\x00\x00\x00\x00\x00\x00\x00'
tRp265
sg44
g45
sg40
g41
sg25
F0.53137184103252366
sS'trials.thisIndex'
p266
g36
(g80
S'L\x00\x00\x00'
tRp267
sg26
V5
sS'trials.thisRepN'
p268
I0
sg66
Vship
p269
sg63
V../experiment_stimuli/bw_bc_bl/Nonliving_Things/Vehicles/ship_13.jpg
p270
sg21
F0.79194625600939617
sS'trials.thisTrialN'
p271
I16
sa(dp272
g31
g32
sg17
F87.154997838195413
sg24
I0
sg35
g39
sg14
F87.149894287227653
sg16
g36
(g70
S'\x02\x00\x00\x00'
tRp273
sg42
g43
sg46
g47
sg15
g88
sg22
F89.215004162804689
sg64
g73
sg62
g74
sg49
g50
sS'trials.thisN'
p274
I17
sg19
I1
sg27
g36
(g38
S'\x00\x00\x00\x00\x00\x00 @'
tRp275
sg52
g53
sg23
S'3'
sg18
F88.41253905382473
sg33
g34
sg51
g11
sg20
S'2'
sg65
g36
(g77
S'\x00\x00\x00\x00\x00\x00\x00\x00'
tRp276
sg44
g45
sg40
g41
sg25
F1.1026219907216728
sS'trials.thisIndex'
p277
g36
(g80
S'\x1b\x00\x00\x00'
tRp278
sg26
V5
sS'trials.thisRepN'
p279
I0
sg66
Velephant
p280
sg63
V../experiment_stimuli/bw_bc_bl/Living_Things/Animals/elephant_0.jpg
p281
sg21
F0.78192235808819532
sS'trials.thisTrialN'
p282
I17
sa(dp283
g31
g32
sg17
F92.056824741885066
sg24
I1
sg35
g39
sg14
F92.050566049525514
sg16
g36
(g70
S'\x02\x00\x00\x00'
tRp284
sg42
g43
sg46
g47
sg15
g88
sg22
F94.616846288961824
sg64
g195
sg62
g74
sg49
g50
sS'trials.thisN'
p285
I18
sg19
I1
sg27
g36
(g38
S'\x00\x00\x00\x00\x00\x00\x1e@'
tRp286
sg52
g53
sg23
S'1'
sg18
F93.293143152608536
sg33
g34
sg51
g11
sg20
S'2'
sg65
g36
(g77
S'\x00\x00\x00\x00\x00\x00\x00\x00'
tRp287
sg44
g45
sg40
g41
sg25
F0.62157242896500975
sS'trials.thisIndex'
p288
g36
(g80
S'A\x00\x00\x00'
tRp289
sg26
V5
sS'trials.thisRepN'
p290
I0
sg66
Vpomfret
p291
sg63
V../experiment_stimuli/bw_bc_bl/Living_Things/Marine_creatures/pomfret_1.jpg
p292
sg21
F1.3031517468043603
sS'trials.thisTrialN'
p293
I18
sa(dp294
g31
g32
sg17
F96.976073388475925
sg24
I1
sg35
g39
sg14
F96.971257555182092
sg16
g36
(g70
S'\x01\x00\x00\x00'
tRp295
sg42
g43
sg46
g47
sg15
g72
sg22
F98.9762577728834
sg64
g73
sg62
g74
sg49
g50
sS'trials.thisN'
p296
I19
sg19
I1
sg27
g36
(g38
S'\x00\x00\x00\x00\x00\x00\x18@'
tRp297
sg52
g53
sg23
S'1'
sg18
F98.223865642445162
sg33
g34
sg51
g11
sg20
S'1'
sg65
g36
(g77
S'\x00\x00\x00\x00\x00\x00\x00\x00'
tRp298
sg44
g45
sg40
g41
sg25
F0.5514117946731858
sS'trials.thisIndex'
p299
g36
(g80
S'Z\x00\x00\x00'
tRp300
sg26
V5
sS'trials.thisRepN'
p301
I0
sg66
Vturtle
p302
sg63
V../experiment_stimuli/bw_bc_bl/Living_Things/Animals/turtle_20.jpg
p303
sg21
F0.73182788753183559
sS'trials.thisTrialN'
p304
I19
sa(dp305
g31
g32
sg17
F101.26546210079687
sg24
I1
sg35
g39
sg14
F101.26056459592655
sg16
g36
(g70
S'\x01\x00\x00\x00'
tRp306
sg42
g43
sg46
g47
sg15
g72
sg22
F103.19545732892584
sg64
g137
sg62
g74
sg49
g50
sS'trials.thisN'
p307
I20
sg19
I1
sg27
g36
(g38
S'\x00\x00\x00\x00\x00\x00\x18@'
tRp308
sg52
g53
sg23
S'1'
sg18
F102.5332419857732
sg33
g34
sg51
g11
sg20
S'1'
sg65
g36
(g77
S'\x00\x00\x00\x00\x00\x00\x00\x00'
tRp309
sg44
g45
sg40
g41
sg25
F0.45120079017942771
sS'trials.thisIndex'
p310
g36
(g80
S'9\x00\x00\x00'
tRp311
sg26
V5
sS'trials.thisRepN'
p312
I0
sg66
Vowl
p313
sg63
V../experiment_stimuli/bw_bc_bl/Living_Things/Birds/owl_15.jpg
p314
sg21
F0.64162902144016698
sS'trials.thisTrialN'
p315
I20
sa(dp316
g31
g32
sg17
F105.38450962107163
sg24
I0
sg35
g39
sg14
F105.37954270723276
sg16
g36
(g70
S'\x02\x00\x00\x00'
tRp317
sg42
g43
sg46
g47
sg15
g88
sg22
F107.69518861884717
sg64
g137
sg62
g74
sg49
g50
sS'trials.thisN'
p318
I21
sg19
I1
sg27
g36
(g38
S'\x00\x00\x00\x00\x00\x00\x18@'
tRp319
sg52
g53
sg23
S'2'
sg18
F106.67223076178925
sg33
g34
sg51
g11
sg20
S'2'
sg65
g36
(g77
S'\x00\x00\x00\x00\x00\x00\x00\x00'
tRp320
sg44
g45
sg40
g41
sg25
F0.45120325632160529
sS'trials.thisIndex'
p321
g36
(g80
S'!\x00\x00\x00'
tRp322
sg26
V5
sS'trials.thisRepN'
p323
I0
sg66
Vgoldfinch
p324
sg63
V../experiment_stimuli/bw_bc_bl/Living_Things/Birds/goldfinch_19.jpg
p325
sg21
F1.0024074034299701
sS'trials.thisTrialN'
p326
I21
sa(dp327
g31
g32
sg17
F109.88412778120255
sg24
I1
sg35
g39
sg14
F109.87929767381866
sg16
g36
(g70
S'\x01\x00\x00\x00'
tRp328
sg42
g43
sg46
g47
sg15
g72
sg22
F112.27516927110264
sg64
g73
sg62
g74
sg49
g50
sS'trials.thisN'
p329
I22
sg19
I1
sg27
g36
(g38
S'\x00\x00\x00\x00\x00\x00\x1a@'
tRp330
sg52
g53
sg23
S'1'
sg18
F111.16199484863319
sg33
g34
sg51
g11
sg20
S'1'
sg65
g36
(g77
S'\x00\x00\x00\x00\x00\x00\x00\x00'
tRp331
sg44
g45
sg40
g41
sg25
F0.84205200819997117
sS'trials.thisIndex'
p332
g36
(g80
S'\r\x00\x00\x00'
tRp333
sg26
V5
sS'trials.thisRepN'
p334
I0
sg66
Vcat
p335
sg63
V../experiment_stimuli/bw_bc_bl/Living_Things/Animals/cat_26.jpg
p336
sg21
F1.0926162844407372
sS'trials.thisTrialN'
p337
I22
sa(dp338
g31
g32
sg17
F114.85653130174614
sg24
I0
sg35
g39
sg14
F114.850104394136
sg16
g36
(g70
S'\x02\x00\x00\x00'
tRp339
sg42
g43
sg46
g47
sg15
g72
sg22
F117.15577265521279
sg64
g149
sg62
g90
sg49
g50
sS'trials.thisN'
p340
I23
sg19
I1
sg27
g36
(g38
S'\x00\x00\x00\x00\x00\x00\x1e@'
tRp341
sg52
g53
sg23
S'2'
sg18
F116.1528413760243
sg33
g34
sg51
g11
sg20
S'2'
sg65
g36
(g77
S'\x00\x00\x00\x00\x00\x00\x00\x00'
tRp342
sg44
g45
sg40
g41
sg25
F0.4411777081550099
sS'trials.thisIndex'
p343
g36
(g80
S'\x0e\x00\x00\x00'
tRp344
sg26
V5
sS'trials.thisRepN'
p345
I0
sg66
Vcathedral
p346
sg63
V../experiment_stimuli/bw_bc_bl/Nonliving_Things/Buildings/cathedral_8.jpg
p347
sg21
F0.9823677881504409
sS'trials.thisTrialN'
p348
I23
sa(dp349
g31
g32
sg17
F119.33468942728359
sg24
I1
sg35
g39
sg14
F119.32985457172617
sg16
g36
(g70
S'\x01\x00\x00\x00'
tRp350
sg42
g43
sg46
g47
sg15
g72
sg22
F121.32483389531262
sg64
g137
sg62
g74
sg49
g50
sS'trials.thisN'
p351
I24
sg19
I1
sg27
g36
(g38
S'\x00\x00\x00\x00\x00\x00\x1a@'
tRp352
sg52
g53
sg23
S'1'
sg18
F120.6225627688691
sg33
g34
sg51
g11
sg20
S'1'
sg65
g36
(g77
S'\x00\x00\x00\x00\x00\x00\x00\x00'
tRp353
sg44
g45
sg40
g41
sg25
F0.4211325702490285
sS'trials.thisIndex'
p354
g36
(g80
S'8\x00\x00\x00'
tRp355
sg26
V5
sS'trials.thisRepN'
p356
I0
sg66
Vostrich
p357
sg63
V../experiment_stimuli/bw_bc_bl/Living_Things/Birds/ostrich_6.jpg
p358
sg21
F0.6817104549263604
sS'trials.thisTrialN'
p359
I24
sa(dp360
g31
g32
sg17
F123.48371443554061
sg24
I1
sg35
g39
sg14
F123.47886136610759
sg16
g36
(g70
S'\x02\x00\x00\x00'
tRp361
sg42
g43
sg46
g47
sg15
g88
sg22
F125.87472446722677
sg64
g137
sg62
g74
sg49
g50
sS'trials.thisN'
p362
I25
sg19
I1
sg27
g36
(g38
S'\x00\x00\x00\x00\x00\x00\x1a@'
tRp363
sg52
g53
sg23
S'1'
sg18
F124.79161736601964
sg33
g34
sg51
g11
sg20
S'2'
sg65
g36
(g77
S'\x00\x00\x00\x00\x00\x00\x00\x00'
tRp364
sg44
g45
sg40
g41
sg25
F0.49130807648180053
sS'trials.thisIndex'
p365
g36
(g80
S'\x04\x00\x00\x00'
tRp366
sg26
V5
sS'trials.thisRepN'
p367
I0
sg66
Vbarn-owl
p368
sg63
V../experiment_stimuli/bw_bc_bl/Living_Things/Birds/barn-owl_11.jpg
p369
sg21
F1.062537245452404
sS'trials.thisTrialN'
p370
I25
sa(dp371
g31
g32
sg17
F128.10388864355627
sg24
I0
sg35
g39
sg14
F128.09890359465498
sg16
g36
(g70
S'\x01\x00\x00\x00'
tRp372
sg42
g43
sg46
g47
sg15
g72
sg22
F130.68516698398162
sg64
g73
sg62
g74
sg49
g50
sS'trials.thisN'
p373
I26
sg19
I1
sg27
g36
(g38
S'\x00\x00\x00\x00\x00\x00\x18@'
tRp374
sg52
g53
sg23
S'3'
sg18
F129.42168324440718
sg33
g34
sg51
g11
sg20
S'1'
sg65
g36
(g77
S'\x00\x00\x00\x00\x00\x00\x00\x00'
tRp375
sg44
g45
sg40
g41
sg25
F0.49132778303464875
sS'trials.thisIndex'
p376
g36
(g80
S'\x01\x00\x00\x00'
tRp377
sg26
V5
sS'trials.thisRepN'
p378
I0
sg66
Varmadillo
p379
sg63
V../experiment_stimuli/bw_bc_bl/Living_Things/Animals/armadillo_16.jpg
p380
sg21
F1.232906993071083
sS'trials.thisTrialN'
p381
I26
sa(dp382
g31
g32
sg17
F132.91436511470238
sg24
I0
sg35
g39
sg14
F132.90936313761631
sg16
g36
(g70
S'\x02\x00\x00\x00'
tRp383
sg42
g43
sg46
g47
sg15
g72
sg22
F135.0847081487882
sg64
g114
sg62
g90
sg49
g50
sS'trials.thisN'
p384
I27
sg19
I1
sg27
g36
(g38
S'\x00\x00\x00\x00\x00\x00\x1a@'
tRp385
sg52
g53
sg23
S'3'
sg18
F134.20207625563489
sg33
g34
sg51
g11
sg20
S'2'
sg65
g36
(g77
S'\x00\x00\x00\x00\x00\x00\x00\x00'
tRp386
sg44
g45
sg40
g41
sg25
F0.47127396136056632
sS'trials.thisIndex'
p387
g36
(g80
S'H\x00\x00\x00'
tRp388
sg26
V5
sS'trials.thisRepN'
p389
I0
sg66
Vsaxophone
p390
sg63
V../experiment_stimuli/bw_bc_bl/Nonliving_Things/Musical_Inst/saxophone_17.jpg
p391
sg21
F0.8621008675545454
sS'trials.thisTrialN'
p392
I27
sa(dp393
g31
g32
sg17
F137.29378391755745
sg24
I0
sg35
g39
sg14
F137.28888813802041
sg16
g36
(g70
S'\x01\x00\x00\x00'
tRp394
sg42
g43
sg46
g47
sg15
g72
sg22
F140.27604722953402
sg64
g195
sg62
g74
sg49
g50
sS'trials.thisN'
p395
I28
sg19
I1
sg27
g36
(g38
S'\x00\x00\x00\x00\x00\x00\x1c@'
tRp396
sg52
g53
sg23
S'2'
sg18
F138.5615489531192
sg33
g34
sg51
g11
sg20
S'1'
sg65
g36
(g77
S'\x00\x00\x00\x00\x00\x00\x00\x00'
tRp397
sg44
g45
sg40
g41
sg25
F1.4834496004041284
sS'trials.thisIndex'
p398
g36
(g80
S'K\x00\x00\x00'
tRp399
sg26
V5
sS'trials.thisRepN'
p400
I0
sg66
Vshark
p401
sg63
V../experiment_stimuli/bw_bc_bl/Living_Things/Marine_creatures/shark_9.jpg
p402
sg21
F1.6939341312972829
sS'trials.thisTrialN'
p403
I28
sa(dp404
g31
g32
sg17
F143.49725181132089
sg24
I1
sg35
g39
sg14
F143.49236690771068
sg16
g36
(g70
S'\x02\x00\x00\x00'
tRp405
sg42
g43
sg46
g47
sg15
g88
sg22
F146.93048331531463
sg64
g137
sg62
g74
sg49
g50
sS'trials.thisN'
p406
I29
sg19
I1
sg27
g36
(g38
S'\x00\x00\x00\x00\x00\x00\x18@'
tRp407
sg52
g53
sg23
S'1'
sg18
F144.75501937349327
sg33
g34
sg51
g11
sg20
S'2'
sg65
g36
(g77
S'\x00\x00\x00\x00\x00\x00\x00\x00'
tRp408
sg44
g45
sg40
g41
sg25
F0.6115399295813404
sS'trials.thisIndex'
p409
g36
(g80
S',\x00\x00\x00'
tRp410
sg26
V5
sS'trials.thisRepN'
p411
I0
sg66
Vkiwi
p412
sg63
V../experiment_stimuli/bw_bc_bl/Living_Things/Birds/kiwi_12.jpg
p413
sg21
F2.1549083113786764
sS'trials.thisTrialN'
p414
I29
sa(dp415
g31
g32
sg17
F149.28056088386802
sg24
I0
sg35
g39
sg14
F149.27494123892393
sg16
g36
(g70
S'\x02\x00\x00\x00'
tRp416
sg42
g43
sg46
g47
sg15
g72
sg22
F151.67079102090793
sg64
g172
sg62
g90
sg49
g50
sS'trials.thisN'
p417
I30
sg19
I1
sg27
g36
(g38
S'\x00\x00\x00\x00\x00\x00\x1a@'
tRp418
sg52
g53
sg23
S'3'
sg18
F150.55865601205733
sg33
g34
sg51
g11
sg20
S'2'
sg65
g36
(g77
S'\x00\x00\x00\x00\x00\x00\x00\x00'
tRp419
sg44
g45
sg40
g41
sg25
F0.37103957729414105
sS'trials.thisIndex'
p420
g36
(g80
S'/\x00\x00\x00'
tRp421
sg26
V5
sS'trials.thisRepN'
p422
I0
sg66
Vlectern
p423
sg63
V../experiment_stimuli/bw_bc_bl/Nonliving_Things/Furniture/lectern_8.jpg
p424
sg21
F1.0825792928226292
sS'trials.thisTrialN'
p425
I30
sa(dp426
g31
g32
sg17
F153.78049984388053
sg24
I1
sg35
g39
sg14
F153.7747179120197
sg16
g36
(g70
S'\x02\x00\x00\x00'
tRp427
sg42
g43
sg46
g47
sg15
g88
sg22
F156.15052939410089
sg64
g73
sg62
g74
sg49
g50
sS'trials.thisN'
p428
I31
sg19
I1
sg27
g36
(g38
S'\x00\x00\x00\x00\x00\x00\x1c@'
tRp429
sg52
g53
sg23
S'1'
sg18
F155.03736832126742
sg33
g34
sg51
g11
sg20
S'2'
sg65
g36
(g77
S'\x00\x00\x00\x00\x00\x00\x00\x00'
tRp430
sg44
g45
sg40
g41
sg25
F0.37102796451654285
sS'trials.thisIndex'
p431
g36
(g80
S"'\x00\x00\x00"
tRp432
sg26
V5
sS'trials.thisRepN'
p433
I0
sg66
Vhippopotamus
p434
sg63
V../experiment_stimuli/bw_bc_bl/Living_Things/Animals/hippopotamus_2.jpg
p435
sg21
F1.0926085251267068
sS'trials.thisTrialN'
p436
I31
sa(dp437
g31
g32
sg17
F158.25936076749349
sg24
I1
sg35
g39
sg14
F158.25445390574168
sg16
g36
(g70
S'\x02\x00\x00\x00'
tRp438
sg42
g43
sg46
g47
sg15
g72
sg22
F161.12132907332852
sg64
g149
sg62
g90
sg49
g50
sS'trials.thisN'
p439
I32
sg19
I0
sg27
g36
(g38
S'\x00\x00\x00\x00\x00\x00\x1a@'
tRp440
sg52
g53
sg23
S'1'
sg18
F159.53714882134227
sg33
g34
sg51
g11
sg20
S'1'
sg65
g36
(g77
S'\x00\x00\x00\x00\x00\x00\x00\x00'
tRp441
sg44
g45
sg40
g41
sg25
F0.45120304182637483
sS'trials.thisIndex'
p442
g36
(g80
S'\x1c\x00\x00\x00'
tRp443
sg26
V5
sS'trials.thisRepN'
p444
I0
sg66
Vfactory
p445
sg63
V../experiment_stimuli/bw_bc_bl/Nonliving_Things/Buildings/factory_24.jpg
p446
sg21
F1.5636265388457105
sS'trials.thisTrialN'
p447
I32
sa(dp448
g31
g32
sg17
F163.31037779012695
sg24
I0
sg35
g39
sg14
F163.30544060916873
sg16
g36
(g70
S'\x01\x00\x00\x00'
tRp449
sg42
g43
sg46
g47
sg15
g88
sg22
F165.93178417277522
sg64
g102
sg62
g90
sg49
g50
sS'trials.thisN'
p450
I33
sg19
I1
sg27
g36
(g38
S'\x00\x00\x00\x00\x00\x00\x18@'
tRp451
sg52
g53
sg23
S'3'
sg18
F164.61819288373226
sg33
g34
sg51
g11
sg20
S'1'
sg65
g36
(g77
S'\x00\x00\x00\x00\x00\x00\x00\x00'
tRp452
sg44
g45
sg40
g41
sg25
F0.46124151069670916
sS'trials.thisIndex'
p453
g36
(g80
S'V\x00\x00\x00'
tRp454
sg26
V5
sS'trials.thisRepN'
p455
I0
sg66
Vtractor
p456
sg63
V../experiment_stimuli/bw_bc_bl/Nonliving_Things/Vehicles/tractor_0.jpg
p457
sg21
F1.2930401809280738
sS'trials.thisTrialN'
p458
I33
sa(dp459
g31
g32
sg17
F168.13176741363714
sg24
I0
sg35
g39
sg14
F168.12591453501955
sg16
g36
(g70
S'\x01\x00\x00\x00'
tRp460
sg42
g43
sg46
g47
sg15
g72
sg22
F170.95251858764095
sg64
g137
sg62
g74
sg49
g50
sS'trials.thisN'
p461
I34
sg19
I1
sg27
g36
(g38
S'\x00\x00\x00\x00\x00\x00\x1e@'
tRp462
sg52
g53
sg23
S'2'
sg18
F169.40860612376127
sg33
g34
sg51
g11
sg20
S'1'
sg65
g36
(g77
S'\x00\x00\x00\x00\x00\x00\x00\x00'
tRp463
sg44
g45
sg40
g41
sg25
F0.40108861669432372
sS'trials.thisIndex'
p464
g36
(g80
S';\x00\x00\x00'
tRp465
sg26
V5
sS'trials.thisRepN'
p466
I0
sg66
Vpartridge
p467
sg63
V../experiment_stimuli/bw_bc_bl/Living_Things/Birds/partridge_10.jpg
p468
sg21
F1.5233733297791332
sS'trials.thisTrialN'
p469
I34
sa(dp470
g31
g32
sg17
F173.09257855528267
sg24
I1
sg35
g39
sg14
F173.086701477936
sg16
g36
(g70
S'\x02\x00\x00\x00'
tRp471
sg42
g43
sg46
g47
sg15
g72
sg22
F175.16190469020512
sg64
g207
sg62
g90
sg49
g50
sS'trials.thisN'
p472
I35
sg19
I1
sg27
g36
(g38
S'\x00\x00\x00\x00\x00\x00\x18@'
tRp473
sg52
g53
sg23
S'1'
sg18
F174.35937436018139
sg33
g34
sg51
g11
sg20
S'2'
sg65
g36
(g77
S'\x00\x00\x00\x00\x00\x00\x00\x00'
tRp474
sg44
g45
sg40
g41
sg25
F0.22069482790539041
sS'trials.thisIndex'
p475
g36
(g80
S'%\x00\x00\x00'
tRp476
sg26
V5
sS'trials.thisRepN'
p477
I0
sg66
Vhammer
p478
sg63
V../experiment_stimuli/bw_bc_bl/Nonliving_Things/Tools/hammer_7.jpg
p479
sg21
F0.78196826716884971
sS'trials.thisTrialN'
p480
I35
sa(dp481
g31
g32
sg17
F177.12157943641068
sg24
I0
sg35
g39
sg14
F177.11545946029946
sg16
g36
(g70
S'\x02\x00\x00\x00'
tRp482
sg42
g43
sg46
g47
sg15
g72
sg22
F179.43116429226939
sg64
g172
sg62
g90
sg49
g50
sS'trials.thisN'
p483
I36
sg19
I1
sg27
g36
(g38
S'\x00\x00\x00\x00\x00\x00\x18@'
tRp484
sg52
g53
sg23
S'3'
sg18
F178.40817246941151
sg33
g34
sg51
g11
sg20
S'2'
sg65
g36
(g77
S'\x00\x00\x00\x00\x00\x00\x00\x00'
tRp485
sg44
g45
sg40
g41
sg25
F1.0323113585473038
sS'trials.thisIndex'
p486
g36
(g80
S'E\x00\x00\x00'
tRp487
sg26
V5
sS'trials.thisRepN'
p488
I0
sg66
Vrocking-chair
p489
sg63
V../experiment_stimuli/bw_bc_bl/Nonliving_Things/Furniture/rocking-chair_7.jpg
p490
sg21
F1.002423023339361
sS'trials.thisTrialN'
p491
I36
sa(dp492
g31
g32
sg17
F182.20128566474887
sg24
I0
sg35
g39
sg14
F182.19650749646826
sg16
g36
(g70
S'\x02\x00\x00\x00'
tRp493
sg42
g43
sg46
g47
sg15
g72
sg22
F184.74268018931616
sg64
g172
sg62
g90
sg49
g50
sS'trials.thisN'
p494
I37
sg19
I1
sg27
g36
(g38
S'\x00\x00\x00\x00\x00\x00\x18@'
tRp495
sg52
g53
sg23
S'2'
sg18
F183.46920187497744
sg33
g34
sg51
g11
sg20
S'2'
sg65
g36
(g77
S'\x00\x00\x00\x00\x00\x00\x00\x00'
tRp496
sg44
g45
sg40
g41
sg25
F0.5414081935887225
sS'trials.thisIndex'
p497
g36
(g80
S'\x1d\x00\x00\x00'
tRp498
sg26
V5
sS'trials.thisRepN'
p499
I0
sg66
Vfilling-cabinet
p500
sg63
V../experiment_stimuli/bw_bc_bl/Nonliving_Things/Furniture/filling-cabinet_12.jpg
p501
sg21
F1.2529520107200369
sS'trials.thisTrialN'
p502
I37
sa(dp503
g31
g32
sg17
F187.02281197049888
sg24
I1
sg35
g39
sg14
F187.01698083232623
sg16
g36
(g70
S'\x01\x00\x00\x00'
tRp504
sg42
g43
sg46
g47
sg15
g88
sg22
F189.13221736205742
sg64
g149
sg62
g90
sg49
g50
sS'trials.thisN'
p505
I38
sg19
I1
sg27
g36
(g38
S'\x00\x00\x00\x00\x00\x00\x1a@'
tRp506
sg52
g53
sg23
S'1'
sg18
F188.27965298201889
sg33
g34
sg51
g11
sg20
S'1'
sg65
g36
(g77
S'\x00\x00\x00\x00\x00\x00\x00\x00'
tRp507
sg44
g45
sg40
g41
sg25
F0.36099872464546934
sS'trials.thisIndex'
p508
g36
(g80
S'#\x00\x00\x00'
tRp509
sg26
V5
sS'trials.thisRepN'
p510
I0
sg66
Vgranary
p511
sg63
V../experiment_stimuli/bw_bc_bl/Nonliving_Things/Buildings/granary_23.jpg
p512
sg21
F0.83203338837483898
sS'trials.thisTrialN'
p513
I38
sa(dp514
g31
g32
sg17
F191.23216807708377
sg24
I1
sg35
g39
sg14
F191.22613137797453
sg16
g36
(g70
S'\x01\x00\x00\x00'
tRp515
sg42
g43
sg46
g47
sg15
g72
sg22
F193.4015027572168
sg64
g73
sg62
g74
sg49
g50
sS'trials.thisN'
p516
I39
sg19
I1
sg27
g36
(g38
S'\x00\x00\x00\x00\x00\x00\x18@'
tRp517
sg52
g53
sg23
S'1'
sg18
F192.50882327463478
sg33
g34
sg51
g11
sg20
S'1'
sg65
g36
(g77
S'\x00\x00\x00\x00\x00\x00\x00\x00'
tRp518
sg44
g45
sg40
g41
sg25
F0.29084690590389073
sS'trials.thisIndex'
p519
g36
(g80
S'2\x00\x00\x00'
tRp520
sg26
V5
sS'trials.thisRepN'
p521
I0
sg66
Vlynx
p522
sg63
V../experiment_stimuli/bw_bc_bl/Living_Things/Animals/lynx_0.jpg
p523
sg21
F0.87211793457390741
sS'trials.thisTrialN'
p524
I39
sa(dp525
g31
g32
sg17
F195.43014809454326
sg24
I0
sg35
g39
sg14
F195.42526224366156
sg16
g36
(g70
S'\x01\x00\x00\x00'
tRp526
sg42
g43
sg46
g47
sg15
g72
sg22
F197.34007359901443
sg64
g137
sg62
g74
sg49
g50
sS'trials.thisN'
p527
I40
sg19
I1
sg27
g36
(g38
S'\x00\x00\x00\x00\x00\x00\x1e@'
tRp528
sg52
g53
sg23
S'2'
sg18
F196.717972380633
sg33
g34
sg51
g11
sg20
S'1'
sg65
g36
(g77
S'\x00\x00\x00\x00\x00\x00\x00\x00'
tRp529
sg44
g45
sg40
g41
sg25
F0.31074474513297901
sS'trials.thisIndex'
p530
g36
(g80
S'O\x00\x00\x00'
tRp531
sg26
V5
sS'trials.thisRepN'
p532
I0
sg66
Vsparrow
p533
sg63
V../experiment_stimuli/bw_bc_bl/Living_Things/Birds/sparrow_26.jpg
p534
sg21
F0.60153363680001348
sS'trials.thisTrialN'
p535
I40
sa(dp536
g31
g32
sg17
F199.38871875911718
sg24
I1
sg35
g39
sg14
F199.38387229113141
sg16
g36
(g70
S'\x02\x00\x00\x00'
tRp537
sg42
g43
sg46
g47
sg15
g72
sg22
F201.45901782356668
sg64
g102
sg62
g90
sg49
g50
sS'trials.thisN'
p538
I41
sg19
I1
sg27
g36
(g38
S'\x00\x00\x00\x00\x00\x00\x1c@'
tRp539
sg52
g53
sg23
S'1'
sg18
F200.6665613646619
sg33
g34
sg51
g11
sg20
S'2'
sg65
g36
(g77
S'\x00\x00\x00\x00\x00\x00\x00\x00'
tRp540
sg44
g45
sg40
g41
sg25
F0.23071550391614437
sS'trials.thisIndex'
p541
g36
(g80
S'@\x00\x00\x00'
tRp542
sg26
V5
sS'trials.thisRepN'
p543
I0
sg66
Vplane
p544
sg63
V../experiment_stimuli/bw_bc_bl/Nonliving_Things/Vehicles/plane_24.jpg
p545
sg21
F0.77190240781055763
sS'trials.thisTrialN'
p546
I41
sa(dp547
g31
g32
sg17
F203.42752004874637
sg24
I1
sg35
g39
sg14
F203.4226584531134
sg16
g36
(g70
S'\x01\x00\x00\x00'
tRp548
sg42
g43
sg46
g47
sg15
g88
sg22
F205.69822902139276
sg64
g172
sg62
g90
sg49
g50
sS'trials.thisN'
p549
I42
sg19
I1
sg27
g36
(g38
S'\x00\x00\x00\x00\x00\x00\x18@'
tRp550
sg52
g53
sg23
S'1'
sg18
F204.72538079257356
sg33
g34
sg51
g11
sg20
S'1'
sg65
g36
(g77
S'\x00\x00\x00\x00\x00\x00\x00\x00'
tRp551
sg44
g45
sg40
g41
sg25
F0.27080852765357122
sS'trials.thisIndex'
p552
g36
(g80
S'\x02\x00\x00\x00'
tRp553
sg26
V5
sS'trials.thisRepN'
p554
I0
sg66
Varmchair
p555
sg63
V../experiment_stimuli/bw_bc_bl/Nonliving_Things/Furniture/armchair_26.jpg
p556
sg21
F0.9522997826570645
sS'trials.thisTrialN'
p557
I42
sa(dp558
g31
g32
sg17
F207.70679067290621
sg24
I0
sg35
g39
sg14
F207.70194715220714
sg16
g36
(g70
S'\x01\x00\x00\x00'
tRp559
sg42
g43
sg46
g47
sg15
g72
sg22
F210.10766151465941
sg64
g73
sg62
g74
sg49
g50
sS'trials.thisN'
p560
I43
sg19
I1
sg27
g36
(g38
S'\x00\x00\x00\x00\x00\x00\x18@'
tRp561
sg52
g53
sg23
S'2'
sg18
F209.01470700203208
sg33
g34
sg51
g11
sg20
S'1'
sg65
g36
(g77
S'\x00\x00\x00\x00\x00\x00\x00\x00'
tRp562
sg44
g45
sg40
g41
sg25
F0.33094093709951267
sS'trials.thisIndex'
p563
g36
(g80
S'_\x00\x00\x00'
tRp564
sg26
V5
sS'trials.thisRepN'
p565
I0
sg66
Vzebra
p566
sg63
V../experiment_stimuli/bw_bc_bl/Living_Things/Animals/zebra_8.jpg
p567
sg21
F1.0723989423713647
sS'trials.thisTrialN'
p568
I43
sa(dp569
g31
g32
sg17
F212.17656079074368
sg24
I1
sg35
g39
sg14
F212.17166903766338
sg16
g36
(g70
S'\x02\x00\x00\x00'
tRp570
sg42
g43
sg46
g47
sg15
g88
sg22
F214.33701308682794
sg64
g137
sg62
g74
sg49
g50
sS'trials.thisN'
p571
I44
sg19
I0
sg27
g36
(g38
S'\x00\x00\x00\x00\x00\x00\x18@'
tRp572
sg52
g53
sg23
S'1'
sg18
F213.47440150839975
sg33
g34
sg51
g11
sg20
S'1'
sg65
g36
(g77
S'\x00\x00\x00\x00\x00\x00\x00\x00'
tRp573
sg44
g45
sg40
g41
sg25
F0.37102365272585303
sS'trials.thisIndex'
p574
g36
(g80
S'3\x00\x00\x00'
tRp575
sg26
V5
sS'trials.thisRepN'
p576
I0
sg66
Vmagpie
p577
sg63
V../experiment_stimuli/bw_bc_bl/Living_Things/Birds/magpie_4.jpg
p578
sg21
F0.84205441421363503
sS'trials.thisTrialN'
p579
I44
sa(dp580
g31
g32
sg17
F216.44798557594186
sg24
I0
sg35
g39
sg14
F216.44094832369592
sg16
g36
(g70
S'\x01\x00\x00\x00'
tRp581
sg42
g43
sg46
g47
sg15
g72
sg22
F219.27773850463564
sg64
g73
sg62
g74
sg49
g50
sS'trials.thisN'
p582
I45
sg19
I1
sg27
g36
(g38
S'\x00\x00\x00\x00\x00\x00 @'
tRp583
sg52
g53
sg23
S'3'
sg18
F217.75370223337086
sg33
g34
sg51
g11
sg20
S'1'
sg65
g36
(g77
S'\x00\x00\x00\x00\x00\x00\x00\x00'
tRp584
sg44
g45
sg40
g41
sg25
F0.38107419299194589
sS'trials.thisIndex'
p585
g36
(g80
S'(\x00\x00\x00'
tRp586
sg26
V5
sS'trials.thisRepN'
p587
I0
sg66
Vhorse
p588
sg63
V../experiment_stimuli/bw_bc_bl/Living_Things/Animals/horse_14.jpg
p589
sg21
F1.5034965277882293
sS'trials.thisTrialN'
p590
I45
sa(dp591
g31
g32
sg17
F221.39660963643109
sg24
I0
sg35
g39
sg14
F221.39171877055196
sg16
g36
(g70
S'\x02\x00\x00\x00'
tRp592
sg42
g43
sg46
g47
sg15
g72
sg22
F223.56705875176704
sg64
g114
sg62
g90
sg49
g50
sS'trials.thisN'
p593
I46
sg19
I1
sg27
g36
(g38
S'\x00\x00\x00\x00\x00\x00\x1c@'
tRp594
sg52
g53
sg23
S'3'
sg18
F222.68442483240506
sg33
g34
sg51
g11
sg20
S'2'
sg65
g36
(g77
S'\x00\x00\x00\x00\x00\x00\x00\x00'
tRp595
sg44
g45
sg40
g41
sg25
F1.8943743132986128
sS'trials.thisIndex'
p596
g36
(g80
S'\x19\x00\x00\x00'
tRp597
sg26
V5
sS'trials.thisRepN'
p598
I0
sg66
Vdrum
p599
sg63
V../experiment_stimuli/bw_bc_bl/Nonliving_Things/Musical_Inst/drum_2.jpg
p600
sg21
F0.86210040136938915
sS'trials.thisTrialN'
p601
I46
sa(dp602
g31
g32
sg17
F227.19928771373816
sg24
I0
sg35
g39
sg14
F227.19432602933375
sg16
g36
(g70
S'\x02\x00\x00\x00'
tRp603
sg42
g43
sg46
g47
sg15
g72
sg22
F229.66036094503943
sg64
g172
sg62
g90
sg49
g50
sS'trials.thisN'
p604
I47
sg19
I1
sg27
g36
(g38
S'\x00\x00\x00\x00\x00\x00\x18@'
tRp605
sg52
g53
sg23
S'2'
sg18
F228.46700019011041
sg33
g34
sg51
g11
sg20
S'2'
sg65
g36
(g77
S'\x00\x00\x00\x00\x00\x00\x00\x00'
tRp606
sg44
g45
sg40
g41
sg25
F0.441174257081002
sS'trials.thisIndex'
p607
g36
(g80
S'\x08\x00\x00\x00'
tRp608
sg26
V5
sS'trials.thisRepN'
p609
I0
sg66
Vbookcase
p610
sg63
V../experiment_stimuli/bw_bc_bl/Nonliving_Things/Furniture/bookcase_11.jpg
p611
sg21
F1.1728179102647118
sS'trials.thisTrialN'
p612
I47
sa(dp613
g31
g32
sg17
F231.83931685943389
sg24
I1
sg35
g39
sg14
F231.83440823043929
sg16
g36
(g70
S'\x01\x00\x00\x00'
tRp614
sg42
g43
sg46
g47
sg15
g88
sg22
F234.4307067131158
sg64
g172
sg62
g90
sg49
g50
sS'trials.thisN'
p615
I48
sg19
I0
sg27
g36
(g38
S'\x00\x00\x00\x00\x00\x00\x18@'
tRp616
sg52
g53
sg23
S'1'
sg18
F233.09705410234164
sg33
g34
sg51
g11
sg20
S'2'
sg65
g36
(g77
S'\x00\x00\x00\x00\x00\x00\x00\x00'
tRp617
sg44
g45
sg40
g41
sg25
F0.92207008029799908
sS'trials.thisIndex'
p618
g36
(g80
S'\x05\x00\x00\x00'
tRp619
sg26
V5
sS'trials.thisRepN'
p620
I0
sg66
Vbed
p621
sg63
V../experiment_stimuli/bw_bc_bl/Nonliving_Things/Furniture/bed_1.jpg
p622
sg21
F1.3130727397510782
sS'trials.thisTrialN'
p623
I48
sa(dp624
g31
g32
sg17
F237.09088279941352
sg24
I1
sg35
g39
sg14
F237.08582343213493
sg16
g36
(g70
S'\x01\x00\x00\x00'
tRp625
sg42
g43
sg46
g47
sg15
g88
sg22
F239.83241806668229
sg64
g114
sg62
g90
sg49
g50
sS'trials.thisN'
p626
I49
sg19
I1
sg27
g36
(g38
S'\x00\x00\x00\x00\x00\x00\x18@'
tRp627
sg52
g53
sg23
S'1'
sg18
F238.35849678807426
sg33
g34
sg51
g11
sg20
S'1'
sg65
g36
(g77
S'\x00\x00\x00\x00\x00\x00\x00\x00'
tRp628
sg44
g45
sg40
g41
sg25
F0.30087484535761178
sS'trials.thisIndex'
p629
g36
(g80
S'X\x00\x00\x00'
tRp630
sg26
V5
sS'trials.thisRepN'
p631
I0
sg66
Vtrumpet
p632
sg63
V../experiment_stimuli/bw_bc_bl/Nonliving_Things/Musical_Inst/trumpet_22.jpg
p633
sg21
F1.4533789559500292
sS'trials.thisTrialN'
p634
I49
sa(dp635
g31
g32
sg17
F241.87128741946071
sg24
I0
sg35
g39
sg14
F241.86621935310541
sg16
g36
(g70
S'\x01\x00\x00\x00'
tRp636
sg42
g43
sg46
g47
sg15
g88
sg22
F244.21197391621536
sg64
g149
sg62
g90
sg49
g50
sS'trials.thisN'
p637
I50
sg19
I1
sg27
g36
(g38
S'\x00\x00\x00\x00\x00\x00\x1a@'
tRp638
sg52
g53
sg23
S'3'
sg18
F243.16895478224615
sg33
g34
sg51
g11
sg20
S'1'
sg65
g36
(g77
S'\x00\x00\x00\x00\x00\x00\x00\x00'
tRp639
sg44
g45
sg40
g41
sg25
F0.51133137266151607
sS'trials.thisIndex'
p640
g36
(g80
S'5\x00\x00\x00'
tRp641
sg26
V5
sS'trials.thisRepN'
p642
I0
sg66
Vmill
p643
sg63
V../experiment_stimuli/bw_bc_bl/Nonliving_Things/Buildings/mill_14.jpg
p644
sg21
F1.0224524586228654
sS'trials.thisTrialN'
p645
I50
sa(dp646
g31
g32
sg17
F246.4613374499022
sg24
I0
sg35
g39
sg14
F246.45620049728313
sg16
g36
(g70
S'\x02\x00\x00\x00'
tRp647
sg42
g43
sg46
g47
sg15
g72
sg22
F248.87195368559333
sg64
g102
sg62
g90
sg49
g50
sS'trials.thisN'
p648
I51
sg19
I1
sg27
g36
(g38
S'\x00\x00\x00\x00\x00\x00\x18@'
tRp649
sg52
g53
sg23
S'3'
sg18
F247.73888771730708
sg33
g34
sg51
g11
sg20
S'2'
sg65
g36
(g77
S'\x00\x00\x00\x00\x00\x00\x00\x00'
tRp650
sg44
g45
sg40
g41
sg25
F0.94226729479851201
sS'trials.thisIndex'
p651
g36
(g80
S'\x0b\x00\x00\x00'
tRp652
sg26
V5
sS'trials.thisRepN'
p653
I0
sg66
Vcar
p654
sg63
V../experiment_stimuli/bw_bc_bl/Nonliving_Things/Vehicles/car_11.jpg
p655
sg21
F1.1124854621011764
sS'trials.thisTrialN'
p656
I51
sa(dp657
g31
g32
sg17
F251.55218558991328
sg24
I1
sg35
g39
sg14
F251.54726526222657
sg16
g36
(g70
S'\x02\x00\x00\x00'
tRp658
sg42
g43
sg46
g47
sg15
g88
sg22
F255.28602161980234
sg64
g195
sg62
g74
sg49
g50
sS'trials.thisN'
p659
I52
sg19
I0
sg27
g36
(g38
S'\x00\x00\x00\x00\x00\x00\x1e@'
tRp660
sg52
g53
sg23
S'1'
sg18
F252.80992661509663
sg33
g34
sg51
g11
sg20
S'1'
sg65
g36
(g77
S'\x00\x00\x00\x00\x00\x00\x00\x00'
tRp661
sg44
g45
sg40
g41
sg25
F0.62156935740495101
sS'trials.thisIndex'
p662
g36
(g80
S'1\x00\x00\x00'
tRp663
sg26
V5
sS'trials.thisRepN'
p664
I0
sg66
Vlobster
p665
sg63
V../experiment_stimuli/bw_bc_bl/Living_Things/Marine_creatures/lobster_18.jpg
p666
sg21
F2.4555691672721878
sS'trials.thisTrialN'
p667
I52
sa(dp668
g31
g32
sg17
F257.64648665254936
sg24
I1
sg35
g39
sg14
F257.6405162793817
sg16
g36
(g70
S'\x01\x00\x00\x00'
tRp669
sg42
g43
sg46
g47
sg15
g72
sg22
F260.42719073483022
sg64
g137
sg62
g74
sg49
g50
sS'trials.thisN'
p670
I53
sg19
I0
sg27
g36
(g38
S'\x00\x00\x00\x00\x00\x00\x1e@'
tRp671
sg52
g53
sg23
S'1'
sg18
F258.91317608696409
sg33
g34
sg51
g11
sg20
S'2'
sg65
g36
(g77
S'\x00\x00\x00\x00\x00\x00\x00\x00'
tRp672
sg44
g45
sg40
g41
sg25
F0.43115002824924886
sS'trials.thisIndex'
p673
g36
(g80
S'\x1a\x00\x00\x00'
tRp674
sg26
V5
sS'trials.thisRepN'
p675
I0
sg66
Vduck
p676
sg63
V../experiment_stimuli/bw_bc_bl/Living_Things/Birds/duck_5.jpg
p677
sg21
F1.4934707239735872
sS'trials.thisTrialN'
p678
I53
sa(dp679
g31
g32
sg17
F262.59847062343033
sg24
I0
sg35
g39
sg14
F262.59127400105353
sg16
g36
(g70
S'\x01\x00\x00\x00'
tRp680
sg42
g43
sg46
g47
sg15
g72
sg22
F264.56631138472585
sg64
VInsects
p681
sg62
g74
sg49
g50
sS'trials.thisN'
p682
I54
sg19
I1
sg27
g36
(g38
S'\x00\x00\x00\x00\x00\x00\x18@'
tRp683
sg52
g53
sg23
S'3'
sg18
F263.88398020580644
sg33
g34
sg51
g11
sg20
S'1'
sg65
g36
(g77
S'\x00\x00\x00\x00\x00\x00\x00\x00'
tRp684
sg44
g45
sg40
g41
sg25
F0.36085630563320592
sS'trials.thisIndex'
p685
g36
(g80
S'\x18\x00\x00\x00'
tRp686
sg26
V5
sS'trials.thisRepN'
p687
I0
sg66
Vdragonfly
p688
sg63
V../experiment_stimuli/bw_bc_bl/Living_Things/Insects/dragonfly_16.jpg
p689
sg21
F0.66176626685773954
sS'trials.thisTrialN'
p690
I54
sa(dp691
g31
g32
sg17
F266.66514649166493
sg24
I0
sg35
g39
sg14
F266.66012074402533
sg16
g36
(g70
S'\x02\x00\x00\x00'
tRp692
sg42
g43
sg46
g47
sg15
g72
sg22
F269.00587893510237
sg64
g114
sg62
g90
sg49
g50
sS'trials.thisN'
p693
I55
sg19
I1
sg27
g36
(g38
S'\x00\x00\x00\x00\x00\x00\x18@'
tRp694
sg52
g53
sg23
S'3'
sg18
F267.93278620927595
sg33
g34
sg51
g11
sg20
S'2'
sg65
g36
(g77
S'\x00\x00\x00\x00\x00\x00\x00\x00'
tRp695
sg44
g45
sg40
g41
sg25
F0.46134538139449432
sS'trials.thisIndex'
p696
g36
(g80
S'$\x00\x00\x00'
tRp697
sg26
V5
sS'trials.thisRepN'
p698
I0
sg66
Vguitar
p699
sg63
V../experiment_stimuli/bw_bc_bl/Nonliving_Things/Musical_Inst/guitar_25.jpg
p700
sg21
F1.0525404222426005
sS'trials.thisTrialN'
p701
I55
sa(dp702
g31
g32
sg17
F271.20482716429979
sg24
I1
sg35
g39
sg14
F271.19999605341582
sg16
g36
(g70
S'\x01\x00\x00\x00'
tRp703
sg42
g43
sg46
g47
sg15
g72
sg22
F273.67602778080618
sg64
g195
sg62
g74
sg49
g50
sS'trials.thisN'
p704
I56
sg19
I1
sg27
g36
(g38
S'\x00\x00\x00\x00\x00\x00\x1e@'
tRp705
sg52
g53
sg23
S'1'
sg18
F272.44259021244943
sg33
g34
sg51
g11
sg20
S'1'
sg65
g36
(g77
S'\x00\x00\x00\x00\x00\x00\x00\x00'
tRp706
sg44
g45
sg40
g41
sg25
F0.45122755278134719
sS'trials.thisIndex'
p707
g36
(g80
S'4\x00\x00\x00'
tRp708
sg26
V5
sS'trials.thisRepN'
p709
I0
sg66
Vmanatee
p710
sg63
V../experiment_stimuli/bw_bc_bl/Living_Things/Marine_creatures/manatee_4.jpg
p711
sg21
F1.2128805058309808
sS'trials.thisTrialN'
p712
I56
sa(dp713
g31
g32
sg17
F275.86614164029015
sg24
I0
sg35
g39
sg14
F275.86011328338645
sg16
g36
(g70
S'\x02\x00\x00\x00'
tRp714
sg42
g43
sg46
g47
sg15
g72
sg22
F278.14573794824537
sg64
g102
sg62
g90
sg49
g50
sS'trials.thisN'
p715
I57
sg19
I1
sg27
g36
(g38
S'\x00\x00\x00\x00\x00\x00\x18@'
tRp716
sg52
g53
sg23
S'2'
sg18
F277.12276462488808
sg33
g34
sg51
g11
sg20
S'2'
sg65
g36
(g77
S'\x00\x00\x00\x00\x00\x00\x00\x00'
tRp717
sg44
g45
sg40
g41
sg25
F0.92222497280454263
sS'trials.thisIndex'
p718
g36
(g80
S'[\x00\x00\x00'
tRp719
sg26
V5
sS'trials.thisRepN'
p720
I0
sg66
Vvan
p721
sg63
V../experiment_stimuli/bw_bc_bl/Nonliving_Things/Vehicles/van_4.jpg
p722
sg21
F1.0024091516970657
sS'trials.thisTrialN'
p723
I57
sa(dp724
g31
g32
sg17
F280.80599967599846
sg24
I1
sg35
g39
sg14
F280.80086015950656
sg16
g36
(g70
S'\x01\x00\x00\x00'
tRp725
sg42
g43
sg46
g47
sg15
g88
sg22
F284.11870386853116
sg64
g89
sg62
g90
sg49
g50
sS'trials.thisN'
p726
I58
sg19
I1
sg27
g36
(g38
S'\x00\x00\x00\x00\x00\x00\x1e@'
tRp727
sg52
g53
sg23
S'1'
sg18
F282.05348112626234
sg33
g34
sg51
g11
sg20
S'1'
sg65
g36
(g77
S'\x00\x00\x00\x00\x00\x00\x00\x00'
tRp728
sg44
g45
sg40
g41
sg25
F0.49128346785437316
sS'trials.thisIndex'
p729
g36
(g80
S'\x1e\x00\x00\x00'
tRp730
sg26
V5
sS'trials.thisRepN'
p731
I0
sg66
Vfondue
p732
sg63
V../experiment_stimuli/bw_bc_bl/Nonliving_Things/Kitchen_Uten/fondue_18.jpg
p733
sg21
F2.0346561424084939
sS'trials.thisTrialN'
p734
I58
sa(dp735
g31
g32
sg17
F286.34778609866044
sg24
I0
sg35
g39
sg14
F286.3429070446291
sg16
g36
(g70
S'\x02\x00\x00\x00'
tRp736
sg42
g43
sg46
g47
sg15
g88
sg22
F289.04942585463868
sg64
g137
sg62
g74
sg49
g50
sS'trials.thisN'
p737
I59
sg19
I1
sg27
g36
(g38
S'\x00\x00\x00\x00\x00\x00\x1c@'
tRp738
sg52
g53
sg23
S'2'
sg18
F287.60555430391105
sg33
g34
sg51
g11
sg20
S'2'
sg65
g36
(g77
S'\x00\x00\x00\x00\x00\x00\x00\x00'
tRp739
sg44
g45
sg40
g41
sg25
F0.5814830819144845
sS'trials.thisIndex'
p740
g36
(g80
S'F\x00\x00\x00'
tRp741
sg26
V5
sS'trials.thisRepN'
p742
I0
sg66
Vrooster
p743
sg63
V../experiment_stimuli/bw_bc_bl/Living_Things/Birds/rooster_14.jpg
p744
sg21
F1.4233282398199663
sS'trials.thisTrialN'
p745
I59
sa(dp746
g31
g32
sg17
F291.36876225832384
sg24
I1
sg35
g39
sg14
F291.36382016760763
sg16
g36
(g70
S'\x01\x00\x00\x00'
tRp747
sg42
g43
sg46
g47
sg15
g88
sg22
F294.5714393198723
sg64
g172
sg62
g90
sg49
g50
sS'trials.thisN'
p748
I60
sg19
I1
sg27
g36
(g38
S'\x00\x00\x00\x00\x00\x00\x1a@'
tRp749
sg52
g53
sg23
S'1'
sg18
F292.6164584083599
sg33
g34
sg51
g11
sg20
S'1'
sg65
g36
(g77
S'\x00\x00\x00\x00\x00\x00\x00\x00'
tRp750
sg44
g45
sg40
g41
sg25
F0.27080596733139828
sS'trials.thisIndex'
p751
g36
(g80
S'Q\x00\x00\x00'
tRp752
sg26
V5
sS'trials.thisRepN'
p753
I0
sg66
Vtable
p754
sg63
V../experiment_stimuli/bw_bc_bl/Nonliving_Things/Furniture/table_13.jpg
p755
sg21
F1.9244073042063974
sS'trials.thisTrialN'
p756
I60
sa(dp757
g31
g32
sg17
F296.58005811733892
sg24
I1
sg35
g39
sg14
F296.57515380048426
sg16
g36
(g70
S'\x01\x00\x00\x00'
tRp758
sg42
g43
sg46
g47
sg15
g72
sg22
F299.1113029262051
sg64
g195
sg62
g74
sg49
g50
sS'trials.thisN'
p759
I61
sg19
I1
sg27
g36
(g38
S'\x00\x00\x00\x00\x00\x00\x1c@'
tRp760
sg52
g53
sg23
S'1'
sg18
F297.8578412385541
sg33
g34
sg51
g11
sg20
S'1'
sg65
g36
(g77
S'\x00\x00\x00\x00\x00\x00\x00\x00'
tRp761
sg44
g45
sg40
g41
sg25
F0.30087308952352032
sS'trials.thisIndex'
p762
g36
(g80
S'\x15\x00\x00\x00'
tRp763
sg26
V5
sS'trials.thisRepN'
p764
I0
sg66
Vcrab
p765
sg63
V../experiment_stimuli/bw_bc_bl/Living_Things/Marine_creatures/crab_8.jpg
p766
sg21
F1.2329017224838026
sS'trials.thisTrialN'
p767
I61
sa(dp768
g31
g32
sg17
F301.15002669458045
sg24
I1
sg35
g39
sg14
F301.14508361136541
sg16
g36
(g70
S'\x02\x00\x00\x00'
tRp769
sg42
g43
sg46
g47
sg15
g72
sg22
F303.4106359811849
sg64
g89
sg62
g90
sg49
g50
sS'trials.thisN'
p770
I62
sg19
I0
sg27
g36
(g38
S'\x00\x00\x00\x00\x00\x00\x18@'
tRp771
sg52
g53
sg23
S'1'
sg18
F302.45783772447612
sg33
g34
sg51
g11
sg20
S'1'
sg65
g36
(g77
S'\x00\x00\x00\x00\x00\x00\x00\x00'
tRp772
sg44
g45
sg40
g41
sg25
F1.4834496910334565
sS'trials.thisIndex'
p773
g36
(g80
S'\x16\x00\x00\x00'
tRp774
sg26
V5
sS'trials.thisRepN'
p775
I0
sg66
Vcup
p776
sg63
V../experiment_stimuli/bw_bc_bl/Nonliving_Things/Kitchen_Uten/cup_7.jpg
p777
sg21
F0.93225125025492162
sS'trials.thisTrialN'
p778
I62
sa(dp779
g31
g32
sg17
F306.63196622999385
sg24
I0
sg35
g39
sg14
F306.62700112455059
sg16
g36
(g70
S'\x01\x00\x00\x00'
tRp780
sg42
g43
sg46
g47
sg15
g72
sg22
F308.7922027471941
sg64
g73
sg62
g74
sg49
g50
sS'trials.thisN'
p781
I63
sg19
I1
sg27
g36
(g38
S'\x00\x00\x00\x00\x00\x00\x18@'
tRp782
sg52
g53
sg23
S'3'
sg18
F307.96982045727782
sg33
g34
sg51
g11
sg20
S'1'
sg65
g36
(g77
S'\x00\x00\x00\x00\x00\x00\x00\x00'
tRp783
sg44
g45
sg40
g41
sg25
F0.41111890523461625
sS'trials.thisIndex'
p784
g36
(g80
S'0\x00\x00\x00'
tRp785
sg26
V5
sS'trials.thisRepN'
p786
I0
sg66
Vlioness
p787
sg63
V../experiment_stimuli/bw_bc_bl/Living_Things/Animals/lioness_23.jpg
p788
sg21
F0.80180734395980835
sS'trials.thisTrialN'
p789
I63
sa(dp790
g31
g32
sg17
F310.94127054070123
sg24
I0
sg35
g39
sg14
F310.93636625004001
sg16
g36
(g70
S'\x02\x00\x00\x00'
tRp791
sg42
g43
sg46
g47
sg15
g88
sg22
F313.21196966385469
sg64
g137
sg62
g74
sg49
g50
sS'trials.thisN'
p792
I64
sg19
I1
sg27
g36
(g38
S'\x00\x00\x00\x00\x00\x00\x1a@'
tRp793
sg52
g53
sg23
S'2'
sg18
F312.25914406916127
sg33
g34
sg51
g11
sg20
S'2'
sg65
g36
(g77
S'\x00\x00\x00\x00\x00\x00\x00\x00'
tRp794
sg44
g45
sg40
g41
sg25
F0.4011102479416877
sS'trials.thisIndex'
p795
g36
(g80
S'&\x00\x00\x00'
tRp796
sg26
V5
sS'trials.thisRepN'
p797
I0
sg66
Vhen
p798
sg63
V../experiment_stimuli/bw_bc_bl/Living_Things/Birds/hen_23.jpg
p799
sg21
F0.93225186289055273
sS'trials.thisTrialN'
p800
I64
sa(dp801
g31
g32
sg17
F315.35093556053471
sg24
I0
sg35
g39
sg14
F315.34595094015822
sg16
g36
(g70
S'\x01\x00\x00\x00'
tRp802
sg42
g43
sg46
g47
sg15
g72
sg22
F317.46121340221725
sg64
g137
sg62
g74
sg49
g50
sS'trials.thisN'
p803
I65
sg19
I1
sg27
g36
(g38
S'\x00\x00\x00\x00\x00\x00 @'
tRp804
sg52
g53
sg23
S'2'
sg18
F316.65871181257535
sg33
g34
sg51
g11
sg20
S'1'
sg65
g36
(g77
S'\x00\x00\x00\x00\x00\x00\x00\x00'
tRp805
sg44
g45
sg40
g41
sg25
F0.32092143001500517
sS'trials.thisIndex'
p806
g36
(g80
S'J\x00\x00\x00'
tRp807
sg26
V5
sS'trials.thisRepN'
p808
I0
sg66
Vseagull
p809
sg63
V../experiment_stimuli/bw_bc_bl/Living_Things/Birds/seagull_0.jpg
p810
sg21
F0.77191685867728665
sS'trials.thisTrialN'
p811
I65
sa(dp812
g31
g32
sg17
F319.51979259302607
sg24
I1
sg35
g39
sg14
F319.51502030045958
sg16
g36
(g70
S'\x01\x00\x00\x00'
tRp813
sg42
g43
sg46
g47
sg15
g72
sg22
F322.10128808824811
sg64
g195
sg62
g74
sg49
g50
sS'trials.thisN'
p814
I66
sg19
I1
sg27
g36
(g38
S'\x00\x00\x00\x00\x00\x00\x1a@'
tRp815
sg52
g53
sg23
S'1'
sg18
F320.81775310949888
sg33
g34
sg51
g11
sg20
S'1'
sg65
g36
(g77
S'\x00\x00\x00\x00\x00\x00\x00\x00'
tRp816
sg44
g45
sg40
g41
sg25
F0.54140036663739011
sS'trials.thisIndex'
p817
g36
(g80
S'7\x00\x00\x00'
tRp818
sg26
V5
sS'trials.thisRepN'
p819
I0
sg66
Vnarwhal
p820
sg63
V../experiment_stimuli/bw_bc_bl/Living_Things/Marine_creatures/narwhal_6.jpg
p821
sg21
F1.2629760064301081
sS'trials.thisTrialN'
p822
I66
sa(dp823
g31
g32
sg17
F324.38039419235429
sg24
I1
sg35
g39
sg14
F324.37558528018417
sg16
g36
(g70
S'\x01\x00\x00\x00'
tRp824
sg42
g43
sg46
g47
sg15
g72
sg22
F326.91172888712026
sg64
g137
sg62
g74
sg49
g50
sS'trials.thisN'
p825
I67
sg19
I0
sg27
g36
(g38
S'\x00\x00\x00\x00\x00\x00 @'
tRp826
sg52
g53
sg23
S'1'
sg18
F325.70838191790972
sg33
g34
sg51
g11
sg20
S'2'
sg65
g36
(g77
S'\x00\x00\x00\x00\x00\x00\x00\x00'
tRp827
sg44
g45
sg40
g41
sg25
F0.56144627497997135
sS'trials.thisIndex'
p828
g36
(g80
S'U\x00\x00\x00'
tRp829
sg26
V5
sS'trials.thisRepN'
p830
I0
sg66
Vtoucan
p831
sg63
V../experiment_stimuli/bw_bc_bl/Living_Things/Birds/toucan_15.jpg
p832
sg21
F1.1827990304445848
sS'trials.thisTrialN'
p833
I67
sa(dp834
g31
g32
sg17
F329.21088005008642
sg24
I0
sg35
g39
sg14
F329.20608140091645
sg16
g36
(g70
S'\x01\x00\x00\x00'
tRp835
sg42
g43
sg46
g47
sg15
g88
sg22
F331.33134700899245
sg64
g102
sg62
g90
sg49
g50
sS'trials.thisN'
p836
I68
sg19
I1
sg27
g36
(g38
S'\x00\x00\x00\x00\x00\x00\x1a@'
tRp837
sg52
g53
sg23
S'2'
sg18
F330.5789734342834
sg33
g34
sg51
g11
sg20
S'1'
sg65
g36
(g77
S'\x00\x00\x00\x00\x00\x00\x00\x00'
tRp838
sg44
g45
sg40
g41
sg25
F1.2028572505223565
sS'trials.thisIndex'
p839
g36
(g80
S'W\x00\x00\x00'
tRp840
sg26
V5
sS'trials.thisRepN'
p841
I0
sg66
Vtrain
p842
sg63
V../experiment_stimuli/bw_bc_bl/Nonliving_Things/Vehicles/train_17.jpg
p843
sg21
F0.73181536502670497
sS'trials.thisTrialN'
p844
I68
sa(dp845
g31
g32
sg17
F334.27331653679721
sg24
I0
sg35
g39
sg14
F334.26708144956501
sg16
g36
(g70
S'\x01\x00\x00\x00'
tRp846
sg42
g43
sg46
g47
sg15
g72
sg22
F336.6929912858177
sg64
g137
sg62
g74
sg49
g50
sS'trials.thisN'
p847
I69
sg19
I1
sg27
g36
(g38
S'\x00\x00\x00\x00\x00\x00\x1a@'
tRp848
sg52
g53
sg23
S'2'
sg18
F335.61992957495386
sg33
g34
sg51
g11
sg20
S'1'
sg65
g36
(g77
S'\x00\x00\x00\x00\x00\x00\x00\x00'
tRp849
sg44
g45
sg40
g41
sg25
F0.39091633772477508
sS'trials.thisIndex'
p850
g36
(g80
S'<\x00\x00\x00'
tRp851
sg26
V5
sS'trials.thisRepN'
p852
I0
sg66
Vpelican
p853
sg63
V../experiment_stimuli/bw_bc_bl/Living_Things/Birds/pelican_6.jpg
p854
sg21
F1.0525169188622385
sS'trials.thisTrialN'
p855
I69
sa(dp856
g31
g32
sg17
F338.82172688934952
sg24
I0
sg35
g39
sg14
F338.81697556283325
sg16
g36
(g70
S'\x01\x00\x00\x00'
tRp857
sg42
g43
sg46
g47
sg15
g88
sg22
F341.77403568691807
sg64
g102
sg62
g90
sg49
g50
sS'trials.thisN'
p858
I70
sg19
I1
sg27
g36
(g38
S'\x00\x00\x00\x00\x00\x00\x1c@'
tRp859
sg52
g53
sg23
S'3'
sg18
F340.16982177447062
sg33
g34
sg51
g11
sg20
S'1'
sg65
g36
(g77
S'\x00\x00\x00\x00\x00\x00\x00\x00'
tRp860
sg44
g45
sg40
g41
sg25
F0.52135495806578547
sS'trials.thisIndex'
p861
g36
(g80
S'\x07\x00\x00\x00'
tRp862
sg26
V5
sS'trials.thisRepN'
p863
I0
sg66
Vboat
p864
sg63
V../experiment_stimuli/bw_bc_bl/Nonliving_Things/Vehicles/boat_14.jpg
p865
sg21
F1.5836645185481757
sS'trials.thisTrialN'
p866
I70
sa(dp867
g31
g32
sg17
F344.03311024687719
sg24
I0
sg35
g39
sg14
F344.02833013882628
sg16
g36
(g70
S'\x01\x00\x00\x00'
tRp868
sg42
g43
sg46
g47
sg15
g72
sg22
F346.05344747047639
sg64
g195
sg62
g74
sg49
g50
sS'trials.thisN'
p869
I71
sg19
I1
sg27
g36
(g38
S'\x00\x00\x00\x00\x00\x00\x1a@'
tRp870
sg52
g53
sg23
S'2'
sg18
F345.34107283817139
sg33
g34
sg51
g11
sg20
S'1'
sg65
g36
(g77
S'\x00\x00\x00\x00\x00\x00\x00\x00'
tRp871
sg44
g45
sg40
g41
sg25
F0.54139722383115441
sS'trials.thisIndex'
p872
g36
(g80
S'P\x00\x00\x00'
tRp873
sg26
V5
sS'trials.thisRepN'
p874
I0
sg66
Vsperm-whale
p875
sg63
V../experiment_stimuli/bw_bc_bl/Living_Things/Marine_creatures/sperm-whale_4.jpg
p876
sg21
F0.69172535301186144
sS'trials.thisTrialN'
p877
I71
sa(dp878
g31
g32
sg17
F348.3324154788279
sg24
I0
sg35
g39
sg14
F348.32765144569566
sg16
g36
(g70
S'\x02\x00\x00\x00'
tRp879
sg42
g43
sg46
g47
sg15
g72
sg22
F350.28254660259699
sg64
g172
sg62
g90
sg49
g50
sS'trials.thisN'
p880
I72
sg19
I1
sg27
g36
(g38
S'\x00\x00\x00\x00\x00\x00\x1c@'
tRp881
sg52
g53
sg23
S'2'
sg18
F349.64040875033243
sg33
g34
sg51
g11
sg20
S'2'
sg65
g36
(g77
S'\x00\x00\x00\x00\x00\x00\x00\x00'
tRp882
sg44
g45
sg40
g41
sg25
F0.47124615329084918
sS'trials.thisIndex'
p883
g36
(g80
S'\x06\x00\x00\x00'
tRp884
sg26
V5
sS'trials.thisRepN'
p885
I0
sg66
Vbedside-table
p886
sg63
V../experiment_stimuli/bw_bc_bl/Nonliving_Things/Furniture/bedside-table_24.jpg
p887
sg21
F0.62157715822104365
sS'trials.thisTrialN'
p888
I72
sa(dp889
g31
g32
sg17
F352.4915085984976
sg24
I1
sg35
g39
sg14
F352.48669296823209
sg16
g36
(g70
S'\x02\x00\x00\x00'
tRp890
sg42
g43
sg46
g47
sg15
g88
sg22
F354.5217674318701
sg64
g137
sg62
g74
sg49
g50
sS'trials.thisN'
p891
I73
sg19
I0
sg27
g36
(g38
S'\x00\x00\x00\x00\x00\x00\x18@'
tRp892
sg52
g53
sg23
S'1'
sg18
F353.77941250358708
sg33
g34
sg51
g11
sg20
S'1'
sg65
g36
(g77
S'\x00\x00\x00\x00\x00\x00\x00\x00'
tRp893
sg44
g45
sg40
g41
sg25
F0.20065841951873153
sS'trials.thisIndex'
p894
g36
(g80
S'=\x00\x00\x00'
tRp895
sg26
V5
sS'trials.thisRepN'
p896
I0
sg66
Vpenguin
p897
sg63
V../experiment_stimuli/bw_bc_bl/Living_Things/Birds/penguin_14.jpg
p898
sg21
F0.72179339214926586
sS'trials.thisTrialN'
p899
I73
sa(dp900
g31
g32
sg17
F356.4601815015194
sg24
I1
sg35
g39
sg14
F356.45532031939365
sg16
g36
(g70
S'\x01\x00\x00\x00'
tRp901
sg42
g43
sg46
g47
sg15
g88
sg22
F358.6306818681187
sg64
g172
sg62
g90
sg49
g50
sS'trials.thisN'
p902
I74
sg19
I1
sg27
g36
(g38
S'\x00\x00\x00\x00\x00\x00\x18@'
tRp903
sg52
g53
sg23
S'1'
sg18
F357.76808462030021
sg33
g34
sg51
g11
sg20
S'1'
sg65
g36
(g77
S'\x00\x00\x00\x00\x00\x00\x00\x00'
tRp904
sg44
g45
sg40
g41
sg25
F0.46122501109493896
sS'trials.thisIndex'
p905
g36
(g80
S'\x00\x00\x00\x00'
tRp906
sg26
V5
sS'trials.thisRepN'
p907
I0
sg66
VChest-of-drawers
p908
sg63
V../experiment_stimuli/bw_bc_bl/Nonliving_Things/Furniture/Chest-of-drawers_1.jpg
p909
sg21
F0.84205745172221214
sS'trials.thisTrialN'
p910
I74
sa(dp911
g31
g32
sg17
F360.82958853041055
sg24
I0
sg35
g39
sg14
F360.82481834699865
sg16
g36
(g70
S'\x02\x00\x00\x00'
tRp912
sg42
g43
sg46
g47
sg15
g72
sg22
F363.00019267713651
sg64
g149
sg62
g90
sg49
g50
sS'trials.thisN'
p913
I75
sg19
I1
sg27
g36
(g38
S'\x00\x00\x00\x00\x00\x00\x18@'
tRp914
sg52
g53
sg23
S'3'
sg18
F362.16764622845221
sg33
g34
sg51
g11
sg20
S'2'
sg65
g36
(g77
S'\x00\x00\x00\x00\x00\x00\x00\x00'
tRp915
sg44
g45
sg40
g41
sg25
F0.28083339909790084
sS'trials.thisIndex'
p916
g36
(g80
S'\x11\x00\x00\x00'
tRp917
sg26
V5
sS'trials.thisRepN'
p918
I0
sg66
Vchurch
p919
sg63
V../experiment_stimuli/bw_bc_bl/Nonliving_Things/Buildings/church_10.jpg
p920
sg21
F0.81198374356608838
sS'trials.thisTrialN'
p921
I75
sa(dp922
g31
g32
sg17
F365.02172209421406
sg24
I0
sg35
g39
sg14
F365.01393013814231
sg16
g36
(g70
S'\x02\x00\x00\x00'
tRp923
sg42
g43
sg46
g47
sg15
g88
sg22
F367.42981933592819
sg64
g73
sg62
g74
sg49
g50
sS'trials.thisN'
p924
I76
sg19
I1
sg27
g36
(g38
S'\x00\x00\x00\x00\x00\x00\x18@'
tRp925
sg52
g53
sg23
S'3'
sg18
F366.32668273994932
sg33
g34
sg51
g11
sg20
S'2'
sg65
g36
(g77
S'\x00\x00\x00\x00\x00\x00\x00\x00'
tRp926
sg44
g45
sg40
g41
sg25
F0.401091635634657
sS'trials.thisIndex'
p927
g36
(g80
S'R\x00\x00\x00'
tRp928
sg26
V5
sS'trials.thisRepN'
p929
I0
sg66
Vtapir
p930
sg63
V../experiment_stimuli/bw_bc_bl/Living_Things/Animals/tapir_3.jpg
p931
sg21
F1.082572597253602
sS'trials.thisTrialN'
p932
I76
sa(dp933
g31
g32
sg17
F369.56859216769226
sg24
I1
sg35
g39
sg14
F369.5638169356389
sg16
g36
(g70
S'\x02\x00\x00\x00'
tRp934
sg42
g43
sg46
g47
sg15
g88
sg22
F371.40846430696547
sg64
g681
sg62
g74
sg49
g50
sS'trials.thisN'
p935
I77
sg19
I0
sg27
g36
(g38
S'\x00\x00\x00\x00\x00\x00\x1a@'
tRp936
sg52
g53
sg23
S'1'
sg18
F370.84650955803227
sg33
g34
sg51
g11
sg20
S'1'
sg65
g36
(g77
S'\x00\x00\x00\x00\x00\x00\x00\x00'
tRp937
sg44
g45
sg40
g41
sg25
F0.36099931510398164
sS'trials.thisIndex'
p938
g36
(g80
S'-\x00\x00\x00'
tRp939
sg26
V5
sS'trials.thisRepN'
p940
I0
sg66
Vladybird
p941
sg63
V../experiment_stimuli/bw_bc_bl/Living_Things/Insects/ladybird_23.jpg
p942
sg21
F0.54140636295778677
sS'trials.thisTrialN'
p943
I77
sa(dp944
g31
g32
sg17
F373.50714958505705
sg24
I1
sg35
g39
sg14
F373.50237669493072
sg16
g36
(g70
S'\x02\x00\x00\x00'
tRp945
sg42
g43
sg46
g47
sg15
g88
sg22
F375.45727440813789
sg64
g681
sg62
g74
sg49
g50
sS'trials.thisN'
p946
I78
sg19
I0
sg27
g36
(g38
S'\x00\x00\x00\x00\x00\x00\x1a@'
tRp947
sg52
g53
sg23
S'1'
sg18
F374.80511162779294
sg33
g34
sg51
g11
sg20
S'1'
sg65
g36
(g77
S'\x00\x00\x00\x00\x00\x00\x00\x00'
tRp948
sg44
g45
sg40
g41
sg25
F0.39108318107901141
sS'trials.thisIndex'
p949
g36
(g80
S'\n\x00\x00\x00'
tRp950
sg26
V5
sS'trials.thisRepN'
p951
I0
sg66
Vbutterfly
p952
sg63
V../experiment_stimuli/bw_bc_bl/Living_Things/Insects/butterfly_26.jpg
p953
sg21
F0.63159618765348569
sS'trials.thisTrialN'
p954
I78
sa(dp955
g31
g32
sg17
F377.58616434386931
sg24
I0
sg35
g39
sg14
F377.58126138790976
sg16
g36
(g70
S'\x01\x00\x00\x00'
tRp956
sg42
g43
sg46
g47
sg15
g88
sg22
F380.20764162775595
sg64
g114
sg62
g90
sg49
g50
sS'trials.thisN'
p957
I79
sg19
I1
sg27
g36
(g38
S'\x00\x00\x00\x00\x00\x00\x18@'
tRp958
sg52
g53
sg23
S'3'
sg18
F378.9040271997219
sg33
g34
sg51
g11
sg20
S'1'
sg65
g36
(g77
S'\x00\x00\x00\x00\x00\x00\x00\x00'
tRp959
sg44
g45
sg40
g41
sg25
F0.51134216552600265
sS'trials.thisIndex'
p960
g36
(g80
S'>\x00\x00\x00'
tRp961
sg26
V5
sS'trials.thisRepN'
p962
I0
sg66
Vpiano
p963
sg63
V../experiment_stimuli/bw_bc_bl/Nonliving_Things/Musical_Inst/piano__23.jpg
p964
sg21
F1.2830081366701052
sS'trials.thisTrialN'
p965
I79
sa(dp966
g31
g32
sg17
F382.4565415099496
sg24
I0
sg35
g39
sg14
F382.45183640473988
sg16
g36
(g70
S'\x01\x00\x00\x00'
tRp967
sg42
g43
sg46
g47
sg15
g88
sg22
F384.65727107523708
sg64
g89
sg62
g90
sg49
g50
sS'trials.thisN'
p968
I80
sg19
I1
sg27
g36
(g38
S'\x00\x00\x00\x00\x00\x00\x1a@'
tRp969
sg52
g53
sg23
S'2'
sg18
F383.74455038737506
sg33
g34
sg51
g11
sg20
S'1'
sg65
g36
(g77
S'\x00\x00\x00\x00\x00\x00\x00\x00'
tRp970
sg44
g45
sg40
g41
sg25
F1.2329034707508981
sS'trials.thisIndex'
p971
g36
(g80
S'\x1f\x00\x00\x00'
tRp972
sg26
V5
sS'trials.thisRepN'
p973
I0
sg66
Vfrying-pan
p974
sg63
V../experiment_stimuli/bw_bc_bl/Nonliving_Things/Kitchen_Uten/frying-pan_14.jpg
p975
sg21
F0.89216262137051672
sS'trials.thisTrialN'
p976
I80
sa(dp977
g31
g32
sg17
F387.62779570539715
sg24
I0
sg35
g39
sg14
F387.62308176181978
sg16
g36
(g70
S'\x02\x00\x00\x00'
tRp978
sg42
g43
sg46
g47
sg15
g88
sg22
F390.46991402091226
sg64
g195
sg62
g74
sg49
g50
sS'trials.thisN'
p979
I81
sg19
I1
sg27
g36
(g38
S'\x00\x00\x00\x00\x00\x00\x1c@'
tRp980
sg52
g53
sg23
S'3'
sg18
F388.90576706099091
sg33
g34
sg51
g11
sg20
S'2'
sg65
g36
(g77
S'\x00\x00\x00\x00\x00\x00\x00\x00'
tRp981
sg44
g45
sg40
g41
sg25
F0.50130425306269899
sS'trials.thisIndex'
p982
g36
(g80
S'^\x00\x00\x00'
tRp983
sg26
V5
sS'trials.thisRepN'
p984
I0
sg66
Vwhale
p985
sg63
V../experiment_stimuli/bw_bc_bl/Living_Things/Marine_creatures/whale_12.jpg
p986
sg21
F1.5436018746113405
sS'trials.thisTrialN'
p987
I81
sa(dp988
g31
g32
sg17
F392.70896841649665
sg24
I1
sg35
g39
sg14
F392.70412428677082
sg16
g36
(g70
S'\x01\x00\x00\x00'
tRp989
sg42
g43
sg46
g47
sg15
g88
sg22
F394.60890550009208
sg64
g114
sg62
g90
sg49
g50
sS'trials.thisN'
p990
I82
sg19
I1
sg27
g36
(g38
S'\x00\x00\x00\x00\x00\x00\x18@'
tRp991
sg52
g53
sg23
S'1'
sg18
F393.95674901647726
sg33
g34
sg51
g11
sg20
S'1'
sg65
g36
(g77
S'\x00\x00\x00\x00\x00\x00\x00\x00'
tRp992
sg44
g45
sg40
g41
sg25
F0.25076393136987463
sS'trials.thisIndex'
p993
g36
(g80
S'\\\x00\x00\x00'
tRp994
sg26
V5
sS'trials.thisRepN'
p995
I0
sg66
Vviolin
p996
sg63
V../experiment_stimuli/bw_bc_bl/Nonliving_Things/Musical_Inst/violin_1.jpg
p997
sg21
F0.63159872544929385
sS'trials.thisTrialN'
p998
I82
sa(dp999
g31
g32
sg17
F396.59729688405059
sg24
I1
sg35
g39
sg14
F396.59257086541038
sg16
g36
(g70
S'\x02\x00\x00\x00'
tRp1000
sg42
g43
sg46
g47
sg15
g72
sg22
F399.54963044816395
sg64
g89
sg62
g90
sg49
g50
sS'trials.thisN'
p1001
I83
sg19
I1
sg27
g36
(g38
S'\x00\x00\x00\x00\x00\x00\x1c@'
tRp1002
sg52
g53
sg23
S'1'
sg18
F397.85522878583288
sg33
g34
sg51
g11
sg20
S'2'
sg65
g36
(g77
S'\x00\x00\x00\x00\x00\x00\x00\x00'
tRp1003
sg44
g45
sg40
g41
sg25
F0.40111487591639161
sS'trials.thisIndex'
p1004
g36
(g80
S'\x12\x00\x00\x00'
tRp1005
sg26
V5
sS'trials.thisRepN'
p1006
I0
sg66
Vcoking-pot
p1007
sg63
V../experiment_stimuli/bw_bc_bl/Nonliving_Things/Kitchen_Uten/coking-pot_18.jpg
p1008
sg21
F1.6738626930164173
sS'trials.thisTrialN'
p1009
I83
sa(dp1010
g31
g32
sg17
F401.68840405438095
sg24
I0
sg35
g39
sg14
F401.68364047986688
sg16
g36
(g70
S'\x02\x00\x00\x00'
tRp1011
sg42
g43
sg46
g47
sg15
g88
sg22
F403.85903802415123
sg64
g195
sg62
g74
sg49
g50
sS'trials.thisN'
p1012
I84
sg19
I1
sg27
g36
(g38
S'\x00\x00\x00\x00\x00\x00\x18@'
tRp1013
sg52
g53
sg23
S'3'
sg18
F402.9663377488032
sg33
g34
sg51
g11
sg20
S'2'
sg65
g36
(g77
S'\x00\x00\x00\x00\x00\x00\x00\x00'
tRp1014
sg44
g45
sg40
g41
sg25
F0.36100450297817588
sS'trials.thisIndex'
p1015
g36
(g80
S'+\x00\x00\x00'
tRp1016
sg26
V5
sS'trials.thisRepN'
p1017
I0
sg66
Vkiller-whale
p1018
sg63
V../experiment_stimuli/bw_bc_bl/Living_Things/Marine_creatures/killer-whale_25.jpg
p1019
sg21
F0.87212961504701525
sS'trials.thisTrialN'
p1020
I84
sa(dp1021
g31
g32
sg17
F405.95776273024967
sg24
I1
sg35
g39
sg14
F405.9529207884334
sg16
g36
(g70
S'\x01\x00\x00\x00'
tRp1022
sg42
g43
sg46
g47
sg15
g88
sg22
F408.65943773736944
sg64
g149
sg62
g90
sg49
g50
sS'trials.thisN'
p1023
I85
sg19
I1
sg27
g36
(g38
S'\x00\x00\x00\x00\x00\x00\x1a@'
tRp1024
sg52
g53
sg23
S'1'
sg18
F407.20555020583561
sg33
g34
sg51
g11
sg20
S'1'
sg65
g36
(g77
S'\x00\x00\x00\x00\x00\x00\x00\x00'
tRp1025
sg44
g45
sg40
g41
sg25
F1.4533824485260993
sS'trials.thisIndex'
p1026
g36
(g80
S')\x00\x00\x00'
tRp1027
sg26
V5
sS'trials.thisRepN'
p1028
I0
sg66
Vhouse
p1029
sg63
V../experiment_stimuli/bw_bc_bl/Nonliving_Things/Buildings/house_13.jpg
p1030
sg21
F1.4333453144645318
sS'trials.thisTrialN'
p1031
I85
sa(dp1032
g31
g32
sg17
F411.85044776659925
sg24
I0
sg35
g39
sg14
F411.84573679644382
sg16
g36
(g70
S'\x01\x00\x00\x00'
tRp1033
sg42
g43
sg46
g47
sg15
g88
sg22
F413.82051309756935
sg64
g172
sg62
g90
sg49
g50
sS'trials.thisN'
p1034
I86
sg19
I1
sg27
g36
(g38
S'\x00\x00\x00\x00\x00\x00\x18@'
tRp1035
sg52
g53
sg23
S'2'
sg18
F413.13844600471202
sg33
g34
sg51
g11
sg20
S'1'
sg65
g36
(g77
S'\x00\x00\x00\x00\x00\x00\x00\x00'
tRp1036
sg44
g45
sg40
g41
sg25
F0.57146634208038449
sS'trials.thisIndex'
p1037
g36
(g80
S']\x00\x00\x00'
tRp1038
sg26
V5
sS'trials.thisRepN'
p1039
I0
sg66
Vwardrobe
p1040
sg63
V../experiment_stimuli/bw_bc_bl/Nonliving_Things/Furniture/wardrobe_22.jpg
p1041
sg21
F0.66150347719667479
sS'trials.thisTrialN'
p1042
I86
sa(dp1043
g31
g32
sg17
F416.13145012891619
sg24
I0
sg35
g39
sg14
F416.12503566074884
sg16
g36
(g70
S'\x01\x00\x00\x00'
tRp1044
sg42
g43
sg46
g47
sg15
g72
sg22
F418.69124145770911
sg64
g137
sg62
g74
sg49
g50
sS'trials.thisN'
p1045
I87
sg19
I1
sg27
g36
(g38
S'\x00\x00\x00\x00\x00\x00\x18@'
tRp1046
sg52
g53
sg23
S'2'
sg18
F417.40772883198224
sg33
g34
sg51
g11
sg20
S'1'
sg65
g36
(g77
S'\x00\x00\x00\x00\x00\x00\x00\x00'
tRp1047
sg44
g45
sg40
g41
sg25
F0.71176482900045812
sS'trials.thisIndex'
p1048
g36
(g80
S'"\x00\x00\x00'
tRp1049
sg26
V5
sS'trials.thisRepN'
p1050
I0
sg66
Vgoose
p1051
sg63
V../experiment_stimuli/bw_bc_bl/Living_Things/Birds/goose_25.jpg
p1052
sg21
F1.2629732656641863
sS'trials.thisTrialN'
p1053
I87
sa(dp1054
g31
g32
sg17
F421.14232726028422
sg24
I1
sg35
g39
sg14
F421.13596408464946
sg16
g36
(g70
S'\x01\x00\x00\x00'
tRp1055
sg42
g43
sg46
g47
sg15
g72
sg22
F423.35137043934083
sg64
g73
sg62
g74
sg49
g50
sS'trials.thisN'
p1056
I88
sg19
I1
sg27
g36
(g38
S'\x00\x00\x00\x00\x00\x00\x1a@'
tRp1057
sg52
g53
sg23
S'1'
sg18
F422.39857728779316
sg33
g34
sg51
g11
sg20
S'1'
sg65
g36
(g77
S'\x00\x00\x00\x00\x00\x00\x00\x00'
tRp1058
sg44
g45
sg40
g41
sg25
F0.38106493750819936
sS'trials.thisIndex'
p1059
g36
(g80
S'T\x00\x00\x00'
tRp1060
sg26
V5
sS'trials.thisRepN'
p1061
I0
sg66
Vtiger
p1062
sg63
V../experiment_stimuli/bw_bc_bl/Living_Things/Animals/tiger_6.jpg
p1063
sg21
F0.93225382914533839
sS'trials.thisTrialN'
p1064
I88
sa(dp1065
g31
g32
sg17
F425.48015609482536
sg24
I1
sg35
g39
sg14
F425.47537396417465
sg16
g36
(g70
S'\x02\x00\x00\x00'
tRp1066
sg42
g43
sg46
g47
sg15
g72
sg22
F427.26995137589984
sg64
g89
sg62
g90
sg49
g50
sS'trials.thisN'
p1067
I89
sg19
I0
sg27
g36
(g38
S'\x00\x00\x00\x00\x00\x00\x18@'
tRp1068
sg52
g53
sg23
S'1'
sg18
F426.7580564324162
sg33
g34
sg51
g11
sg20
S'1'
sg65
g36
(g77
S'\x00\x00\x00\x00\x00\x00\x00\x00'
tRp1069
sg44
g45
sg40
g41
sg25
F0.31092288187937811
sS'trials.thisIndex'
p1070
g36
(g80
S'G\x00\x00\x00'
tRp1071
sg26
V5
sS'trials.thisRepN'
p1072
I0
sg66
Vsaucepan
p1073
sg63
V../experiment_stimuli/bw_bc_bl/Nonliving_Things/Kitchen_Uten/saucepan_22.jpg
p1074
sg21
F0.49132254999130964
sS'trials.thisTrialN'
p1075
I89
sa(dp1076
g31
g32
sg17
F429.31855232611997
sg24
I0
sg35
g39
sg14
F429.3137060761801
sg16
g36
(g70
S'\x02\x00\x00\x00'
tRp1077
sg42
g43
sg46
g47
sg15
g88
sg22
F432.03025782515761
sg64
g137
sg62
g74
sg49
g50
sS'trials.thisN'
p1078
I90
sg19
I1
sg27
g36
(g38
S'\x00\x00\x00\x00\x00\x00\x18@'
tRp1079
sg52
g53
sg23
S'2'
sg18
F430.62646309862612
sg33
g34
sg51
g11
sg20
S'2'
sg65
g36
(g77
S'\x00\x00\x00\x00\x00\x00\x00\x00'
tRp1080
sg44
g45
sg40
g41
sg25
F0.89216197474161163
sS'trials.thisIndex'
p1081
g36
(g80
S'C\x00\x00\x00'
tRp1082
sg26
V5
sS'trials.thisRepN'
p1083
I0
sg66
Vraven
p1084
sg63
V../experiment_stimuli/bw_bc_bl/Living_Things/Birds/raven_0.jpg
p1085
sg21
F1.3832357163191773
sS'trials.thisTrialN'
p1086
I90
sa(dp1087
g31
g32
sg17
F434.67330743098864
sg24
I0
sg35
g39
sg14
F434.66534488729667
sg16
g36
(g70
S'\x02\x00\x00\x00'
tRp1088
sg42
g43
sg46
g47
sg15
g88
sg22
F436.69039344188059
sg64
g137
sg62
g74
sg49
g50
sS'trials.thisN'
p1089
I91
sg19
I1
sg27
g36
(g38
S'\x00\x00\x00\x00\x00\x00\x1a@'
tRp1090
sg52
g53
sg23
S'2'
sg18
F435.96807929425268
sg33
g34
sg51
g11
sg20
S'2'
sg65
g36
(g77
S'\x00\x00\x00\x00\x00\x00\x00\x00'
tRp1091
sg44
g45
sg40
g41
sg25
F0.18063928873743862
sS'trials.thisIndex'
p1092
g36
(g80
S'?\x00\x00\x00'
tRp1093
sg26
V5
sS'trials.thisRepN'
p1094
I0
sg66
Vpigeon
p1095
sg63
V../experiment_stimuli/bw_bc_bl/Living_Things/Birds/pigeon_23.jpg
p1096
sg21
F0.70175231428584084
sS'trials.thisTrialN'
p1097
I91
sa(dp1098
g31
g32
sg17
F438.60864502226468
sg24
I0
sg35
g39
sg14
F438.60391684580827
sg16
g36
(g70
S'\x01\x00\x00\x00'
tRp1099
sg42
g43
sg46
g47
sg15
g72
sg22
F440.67905231466284
sg64
g73
sg62
g74
sg49
g50
sS'trials.thisN'
p1100
I92
sg19
I1
sg27
g36
(g38
S'\x00\x00\x00\x00\x00\x00\x18@'
tRp1101
sg52
g53
sg23
S'2'
sg18
F439.88659239321714
sg33
g34
sg51
g11
sg20
S'1'
sg65
g36
(g77
S'\x00\x00\x00\x00\x00\x00\x00\x00'
tRp1102
sg44
g45
sg40
g41
sg25
F0.26078395691001788
sS'trials.thisIndex'
p1103
g36
(g80
S'D\x00\x00\x00'
tRp1104
sg26
V5
sS'trials.thisRepN'
p1105
I0
sg66
Vrhino
p1106
sg63
V../experiment_stimuli/bw_bc_bl/Living_Things/Animals/rhino_14.jpg
p1107
sg21
F0.77190043037990108
sS'trials.thisTrialN'
p1108
I92
sa(dp1109
g31
g32
sg17
F442.67755360255251
sg24
I1
sg35
g39
sg14
F442.67274431441911
sg16
g36
(g70
S'\x02\x00\x00\x00'
tRp1110
sg42
g43
sg46
g47
sg15
g72
sg22
F444.98844467283925
sg64
g172
sg62
g90
sg49
g50
sS'trials.thisN'
p1111
I93
sg19
I1
sg27
g36
(g38
S'\x00\x00\x00\x00\x00\x00\x1e@'
tRp1112
sg52
g53
sg23
S'1'
sg18
F443.95544026757125
sg33
g34
sg51
g11
sg20
S'2'
sg65
g36
(g77
S'\x00\x00\x00\x00\x00\x00\x00\x00'
tRp1113
sg44
g45
sg40
g41
sg25
F0.59151034068781883
sS'trials.thisIndex'
p1114
g36
(g80
S'N\x00\x00\x00'
tRp1115
sg26
V5
sS'trials.thisRepN'
p1116
I0
sg66
Vsofa
p1117
sg63
V../experiment_stimuli/bw_bc_bl/Nonliving_Things/Furniture/sofa_6.jpg
p1118
sg21
F1.0124504590057768
sS'trials.thisTrialN'
p1119
I93
sa(dp1120
g31
g32
sg17
F447.31933341844706
sg24
I1
sg35
g39
sg14
F447.31283335003536
sg16
g36
(g70
S'\x01\x00\x00\x00'
tRp1121
sg42
g43
sg46
g47
sg15
g72
sg22
F449.99932358216029
sg64
g681
sg62
g74
sg49
g50
sS'trials.thisN'
p1122
I94
sg19
I0
sg27
g36
(g38
S'\x00\x00\x00\x00\x00\x00\x1a@'
tRp1123
sg52
g53
sg23
S'1'
sg18
F448.60555044934154
sg33
g34
sg51
g11
sg20
S'2'
sg65
g36
(g77
S'\x00\x00\x00\x00\x00\x00\x00\x00'
tRp1124
sg44
g45
sg40
g41
sg25
F1.4834434691583738
sS'trials.thisIndex'
p1125
g36
(g80
S'I\x00\x00\x00'
tRp1126
sg26
V5
sS'trials.thisRepN'
p1127
I0
sg66
Vscorpion
p1128
sg63
V../experiment_stimuli/bw_bc_bl/Living_Things/Insects/scorpion_8.jpg
p1129
sg21
F1.3732148336712271
sS'trials.thisTrialN'
p1130
I94
sa(dp1131
g31
g32
sg17
F453.22052327287383
sg24
I1
sg35
g39
sg14
F453.21566737641115
sg16
g36
(g70
S'\x02\x00\x00\x00'
tRp1132
sg42
g43
sg46
g47
sg15
g88
sg22
F455.42110030254116
sg64
g73
sg62
g74
sg49
g50
sS'trials.thisN'
p1133
I95
sg19
I0
sg27
g36
(g38
S'\x00\x00\x00\x00\x00\x00\x18@'
tRp1134
sg52
g53
sg23
S'1'
sg18
F454.53845128172543
sg33
g34
sg51
g11
sg20
S'1'
sg65
g36
(g77
S'\x00\x00\x00\x00\x00\x00\x00\x00'
tRp1135
sg44
g45
sg40
g41
sg25
F0.22069997456856072
sS'trials.thisIndex'
p1136
g36
(g80
S' \x00\x00\x00'
tRp1137
sg26
V5
sS'trials.thisRepN'
p1138
I0
sg66
Vgiraffe
p1139
sg63
V../experiment_stimuli/bw_bc_bl/Living_Things/Animals/giraffe_23.jpg
p1140
sg21
F0.86209787148982286
sS'trials.thisTrialN'
p1141
I95
sasS'loops'
p1142
(lp1143
g1
(cpsychopy.data
TrialHandler
p1144
g3
NtRp1145
(dp1146
S'origin'
p1147
NsS'thisTrial'
p1148
(lp1149
sS'_exp'
p1150
I97820944
sg10
S'trials'
p1151
sg6
I-1
sS'thisRepN'
p1152
I1
sg28
I01
sg29
g30
sS'data'
p1153
g1
(cpsychopy.data
DataHandler
p1154
c__builtin__
dict
p1155
(dp1156
g20
cnumpy.core.multiarray
_reconstruct
p1157
(cnumpy
ndarray
p1158
(I0
tS'b'
tRp1159
(I1
(I96
I1
tg37
(S'O4'
I0
I1
tRp1160
(I3
S'|'
NNNI-1
I-1
I63
tbI00
(lp1161
S'1'
aS'1'
aS'1'
aS'1'
aS'2'
aS'2'
aS'2'
aS'1'
aS'2'
aS'2'
aS'1'
aS'2'
aS'1'
aS'1'
aS'2'
aS'1'
aS'1'
aS'2'
aS'2'
aS'2'
aS'1'
aS'1'
aS'1'
aS'1'
aS'1'
aS'2'
aS'2'
aS'2'
aS'1'
aS'2'
aS'1'
aS'1'
aS'1'
aS'2'
aS'1'
aS'1'
aS'2'
aS'2'
aS'2'
aS'2'
aS'1'
aS'1'
aS'2'
aS'2'
aS'2'
aS'1'
aS'2'
aS'2'
aS'1'
aS'1'
aS'1'
aS'1'
aS'1'
aS'1'
aS'1'
aS'1'
aS'1'
aS'1'
aS'1'
aS'1'
aS'1'
aS'1'
aS'1'
aS'2'
aS'2'
aS'2'
aS'1'
aS'2'
aS'1'
aS'2'
aS'2'
aS'1'
aS'2'
aS'2'
aS'1'
aS'1'
aS'2'
aS'2'
aS'2'
aS'1'
aS'1'
aS'1'
aS'2'
aS'1'
aS'1'
aS'2'
aS'1'
aS'1'
aS'1'
aS'1'
aS'1'
aS'2'
aS'1'
aS'1'
aS'2'
aS'1'
atbsg17
cnumpy.ma.core
_mareconstruct
p1162
(cnumpy.ma.core
MaskedArray
p1163
g1158
(I0
tp1164
S'b'
tRp1165
(I1
(I96
I1
tg37
(S'f4'
I0
I1
tRp1166
(I3
S'<'
NNNI-1
I-1
I0
tbI00
S'\xe7:\xb2C\x98\x1a\x00CrmKC\x9a`mB\xa9\xf7\xf6B\xdd\xd6gC\x8d*\xaeC.i\xa9C\x053cCU\xf6|A\xea\xc0\xbaC\x1avvC\xd4\xd4\x89B\xac\xc4\xdbB\x8b\xb6\xe5B9\x894B\x0c\xb2!B0j\xb4CtL\xc6CT\x17\x81B\xceYo@?J\x94C4\x93\x96C-\xa9[B\x9bL\x83C\x88e]C\xc0\xd2\x80C\\O\xaeBeB\x1eC\x8736C+g\x8cCp:\xbfC:\x9c\xe2C\xde\xc4\xd2B\xd3\x10\xd0C\xd7\x05;C$U\x85C\xb3\x17-C|x\x9bC\xcf\xc7\x19C\xafrXC\x98\xfa\xcaC_\xf7\xf0A\x1e\xd8\xc8CL\x7f\x0fC\xc8\xc8\xb8C3\xf8\x9bB\xd3G\x15C\xe4P\x99C\\\x8d{Co;?C3-TC8\x9a\x87C\r\xdfqC\xbajHB\x89\xc2\x9fC\\\xab\xeeB\xeb\x87\xcaB\xbc\xcf\rB\xbc!(C\xfc"\xa7C\xea>\xb0C\x07\xcb\xbcC/V\xd9C\x83cGC\x18\x1d\xb8B\x95\x9b\xc9A\xc6\xa8\xd6C\xe8M\xdbC \x1f1C\x84,\x8fCv\xbd\xd4C\x14\xea\x04C\xe0\xa8\xdfC\xeb\xac\x9dC5K\tC\xaf\xab\xa5B\xd9\x0c\x93B\xbaV\xddC\x1enCC=\x04\xacC4\xaf\x91C\xc8\x82\xb6C\xee-\x1aA8\x92\xd2C\xb10\xa2CuO#C\xfe\x9a\xa4CD\x17mC\xf3\x85\xa5A\xc0\xf3\xc1B\xde\xee\x89C\xbfZ\xc4C\xdb\xec\xcdC\\\xd0\xc1C\xf0\xb4OC'
S'\x00\x00\x00\x00\x00\x00\x00\x00\x00\x00\x00\x00\x00\x00\x00\x00\x00\x00\x00\x00\x00\x00\x00\x00\x00\x00\x00\x00\x00\x00\x00\x00\x00\x00\x00\x00\x00\x00\x00\x00\x00\x00\x00\x00\x00\x00\x00\x00\x00\x00\x00\x00\x00\x00\x00\x00\x00\x00\x00\x00\x00\x00\x00\x00\x00\x00\x00\x00\x00\x00\x00\x00\x00\x00\x00\x00\x00\x00\x00\x00\x00\x00\x00\x00\x00\x00\x00\x00\x00\x00\x00\x00\x00\x00\x00\x00'
NtbsS'ran'
p1167
g1162
(g1163
g1158
g1164
S'b'
tRp1168
(I1
(I96
I1
tg1166
I00
S'\x00\x00\x80?\x00\x00\x80?\x00\x00\x80?\x00\x00\x80?\x00\x00\x80?\x00\x00\x80?\x00\x00\x80?\x00\x00\x80?\x00\x00\x80?\x00\x00\x80?\x00\x00\x80?\x00\x00\x80?\x00\x00\x80?\x00\x00\x80?\x00\x00\x80?\x00\x00\x80?\x00\x00\x80?\x00\x00\x80?\x00\x00\x80?\x00\x00\x80?\x00\x00\x80?\x00\x00\x80?\x00\x00\x80?\x00\x00\x80?\x00\x00\x80?\x00\x00\x80?\x00\x00\x80?\x00\x00\x80?\x00\x00\x80?\x00\x00\x80?\x00\x00\x80?\x00\x00\x80?\x00\x00\x80?\x00\x00\x80?\x00\x00\x80?\x00\x00\x80?\x00\x00\x80?\x00\x00\x80?\x00\x00\x80?\x00\x00\x80?\x00\x00\x80?\x00\x00\x80?\x00\x00\x80?\x00\x00\x80?\x00\x00\x80?\x00\x00\x80?\x00\x00\x80?\x00\x00\x80?\x00\x00\x80?\x00\x00\x80?\x00\x00\x80?\x00\x00\x80?\x00\x00\x80?\x00\x00\x80?\x00\x00\x80?\x00\x00\x80?\x00\x00\x80?\x00\x00\x80?\x00\x00\x80?\x00\x00\x80?\x00\x00\x80?\x00\x00\x80?\x00\x00\x80?\x00\x00\x80?\x00\x00\x80?\x00\x00\x80?\x00\x00\x80?\x00\x00\x80?\x00\x00\x80?\x00\x00\x80?\x00\x00\x80?\x00\x00\x80?\x00\x00\x80?\x00\x00\x80?\x00\x00\x80?\x00\x00\x80?\x00\x00\x80?\x00\x00\x80?\x00\x00\x80?\x00\x00\x80?\x00\x00\x80?\x00\x00\x80?\x00\x00\x80?\x00\x00\x80?\x00\x00\x80?\x00\x00\x80?\x00\x00\x80?\x00\x00\x80?\x00\x00\x80?\x00\x00\x80?\x00\x00\x80?\x00\x00\x80?\x00\x00\x80?\x00\x00\x80?\x00\x00\x80?\x00\x00\x80?'
S'\x00\x00\x00\x00\x00\x00\x00\x00\x00\x00\x00\x00\x00\x00\x00\x00\x00\x00\x00\x00\x00\x00\x00\x00\x00\x00\x00\x00\x00\x00\x00\x00\x00\x00\x00\x00\x00\x00\x00\x00\x00\x00\x00\x00\x00\x00\x00\x00\x00\x00\x00\x00\x00\x00\x00\x00\x00\x00\x00\x00\x00\x00\x00\x00\x00\x00\x00\x00\x00\x00\x00\x00\x00\x00\x00\x00\x00\x00\x00\x00\x00\x00\x00\x00\x00\x00\x00\x00\x00\x00\x00\x00\x00\x00\x00\x00'
Ntbsg24
g1162
(g1163
g1158
g1164
S'b'
tRp1169
(I1
(I96
I1
tg1166
I00
S'\x00\x00\x80?\x00\x00\x00\x00\x00\x00\x80?\x00\x00\x80?\x00\x00\x80?\x00\x00\x80?\x00\x00\x00\x00\x00\x00\x00\x00\x00\x00\x00\x00\x00\x00\x00\x00\x00\x00\x80?\x00\x00\x00\x00\x00\x00\x00\x00\x00\x00\x80?\x00\x00\x00\x00\x00\x00\x00\x00\x00\x00\x00\x00\x00\x00\x00\x00\x00\x00\x80?\x00\x00\x80?\x00\x00\x80?\x00\x00\x80?\x00\x00\x80?\x00\x00\x80?\x00\x00\x00\x00\x00\x00\x00\x00\x00\x00\x80?\x00\x00\x00\x00\x00\x00\x80?\x00\x00\x00\x00\x00\x00\x80?\x00\x00\x00\x00\x00\x00\x80?\x00\x00\x00\x00\x00\x00\x00\x00\x00\x00\x80?\x00\x00\x00\x00\x00\x00\x80?\x00\x00\x00\x00\x00\x00\x80?\x00\x00\x00\x00\x00\x00\x80?\x00\x00\x80?\x00\x00\x00\x00\x00\x00\x80?\x00\x00\x80?\x00\x00\x00\x00\x00\x00\x00\x00\x00\x00\x00\x00\x00\x00\x80?\x00\x00\x80?\x00\x00\x80?\x00\x00\x80?\x00\x00\x00\x00\x00\x00\x00\x00\x00\x00\x80?\x00\x00\x80?\x00\x00\x80?\x00\x00\x80?\x00\x00\x00\x00\x00\x00\x00\x00\x00\x00\x80?\x00\x00\x00\x00\x00\x00\x00\x00\x00\x00\x80?\x00\x00\x80?\x00\x00\x80?\x00\x00\x00\x00\x00\x00\x00\x00\x00\x00\x00\x00\x00\x00\x00\x00\x00\x00\x80?\x00\x00\x00\x00\x00\x00\x80?\x00\x00\x00\x00\x00\x00\x00\x00\x00\x00\x80?\x00\x00\x00\x00\x00\x00\x80?\x00\x00\x00\x00\x00\x00\x00\x00\x00\x00\x80?\x00\x00\x00\x00\x00\x00\x00\x00\x00\x00\x80?\x00\x00\x80?\x00\x00\x00\x00\x00\x00\x00\x00\x00\x00\x80?\x00\x00\x00\x00\x00\x00\x80?\x00\x00\x00\x00\x00\x00\x80?\x00\x00\x00\x00\x00\x00\x00\x00\x00\x00\x00\x00'
S'\x00\x00\x00\x00\x00\x00\x00\x00\x00\x00\x00\x00\x00\x00\x00\x00\x00\x00\x00\x00\x00\x00\x00\x00\x00\x00\x00\x00\x00\x00\x00\x00\x00\x00\x00\x00\x00\x00\x00\x00\x00\x00\x00\x00\x00\x00\x00\x00\x00\x00\x00\x00\x00\x00\x00\x00\x00\x00\x00\x00\x00\x00\x00\x00\x00\x00\x00\x00\x00\x00\x00\x00\x00\x00\x00\x00\x00\x00\x00\x00\x00\x00\x00\x00\x00\x00\x00\x00\x00\x00\x00\x00\x00\x00\x00\x00'
Ntbsg14
g1162
(g1163
g1158
g1164
S'b'
tRp1170
(I1
(I96
I1
tg1166
I00
S'H:\xb2CR\x19\x00C3lKC\x97[mB-\xf5\xf6B\x9c\xd5gC\xf0)\xaeC\x93h\xa9C\xbf1cC\x88\xe0|AN\xc0\xbaC\xcatvC\x0c\xd2\x89B3\xc2\xdbBA\xb3\xe5B\xa3\x834B[\xac!B\x94i\xb4C\xd9K\xc6C\xdd\x14\x81B\xb0\xfcm@\x9fI\x94C\x92\x92\x96C\xa5\xa3[B\xafK\x83CHd]C\xfc\xd1\x80C\xbfL\xaeB$A\x1eCN26C\x83f\x8cC\xd69\xbfC\x9b\x9b\xe2CS\xc2\xd2B\x01\x10\xd0CY\x04;C\x7fT\x85C2\x16-C\xdbw\x9bCT\xc6\x19C\xe2pXC\xf9\xf9\xcaCk\xed\xf0A\x82\xd7\xc8C\x0c~\x0fC+\xc8\xb8C\xbd\xf5\x9bBcF\x15CBP\x99C\x1a\x8c{C\xe49?C\xf3+TC\x99\x99\x87C\xc1\xddqC\xbdeHB\xec\xc1\x9fC\xe3\xa8\xeeBi\x85\xcaB@\xca\rB< (C0"\xa7CL>\xb0Cg\xca\xbcC*U\xd9CEbGC\xe4\x19\xb8B\xd4\x8f\xc9A(\xa8\xd6CMM\xdbC\x8f\x1d1C\xe4+\x8fC\xd9\xbc\xd4C\xcc\xe8\x04C\x0b\xa8\xdfCH\xac\x9dC\xf5I\tC8\xa9\xa5B`\n\x93B\x1cV\xddC\xdelCC\xa0\x03\xacC\x92\xae\x91C\xc8\x81\xb6C5\x1a\x1aAg\x91\xd2C\x130\xa2C1N#Ca\x9a\xa4C\xf9\x15mC\xc3{\xa5AI\xf1\xc1B\x18\xee\x89C!Z\xc4CA\xec\xcdC\xc1\xcf\xc1C\xb3\xb3OC'
S'\x00\x00\x00\x00\x00\x00\x00\x00\x00\x00\x00\x00\x00\x00\x00\x00\x00\x00\x00\x00\x00\x00\x00\x00\x00\x00\x00\x00\x00\x00\x00\x00\x00\x00\x00\x00\x00\x00\x00\x00\x00\x00\x00\x00\x00\x00\x00\x00\x00\x00\x00\x00\x00\x00\x00\x00\x00\x00\x00\x00\x00\x00\x00\x00\x00\x00\x00\x00\x00\x00\x00\x00\x00\x00\x00\x00\x00\x00\x00\x00\x00\x00\x00\x00\x00\x00\x00\x00\x00\x00\x00\x00\x00\x00\x00\x00'
Ntbsg16
g1157
(g1158
(I0
tS'b'
tRp1171
(I1
(I96
I1
tg1160
I00
(lp1172
g901
ag372
ag548
ag206
ag361
ag614
ag879
ag857
ag603
ag101
ag945
ag647
ag229
ag328
ag339
ag171
ag160
ag912
ag1000
ag218
ag71
ag758
ag769
ag194
ag680
ag592
ag669
ag273
ag438
ag493
ag725
ag967
ag1132
ag317
ag1044
ag504
ag692
ag471
ag791
ag427
ag581
ag1022
ag136
ag1011
ag405
ag934
ag251
ag416
ag780
ag658
ag515
ag570
ag703
ag636
ag183
ag813
ag350
ag306
ag148
ag460
ag846
ag890
ag956
ag1088
ag537
ag284
ag125
ag1077
ag1099
ag482
ag736
ag1066
ag383
ag1121
ag802
ag394
ag262
ag240
ag1110
ag526
ag868
ag747
ag923
ag87
ag1055
ag824
ag449
ag835
ag625
ag113
ag295
ag714
ag989
ag1033
ag978
ag559
atbsg15
g1157
(g1158
(I0
tS'b'
tRp1173
(I1
(I96
I1
tg1160
I00
(lp1174
g88
ag72
ag88
ag88
ag88
ag88
ag72
ag88
ag72
ag88
ag88
ag72
ag88
ag72
ag72
ag88
ag72
ag72
ag72
ag72
ag72
ag72
ag72
ag88
ag72
ag72
ag72
ag88
ag72
ag72
ag88
ag88
ag88
ag88
ag72
ag88
ag72
ag72
ag88
ag88
ag72
ag88
ag72
ag88
ag88
ag88
ag72
ag72
ag72
ag88
ag72
ag88
ag72
ag88
ag88
ag72
ag72
ag72
ag88
ag72
ag72
ag88
ag88
ag88
ag72
ag88
ag72
ag88
ag72
ag72
ag88
ag72
ag72
ag72
ag72
ag72
ag72
ag72
ag72
ag72
ag72
ag88
ag88
ag88
ag72
ag72
ag88
ag88
ag88
ag88
ag72
ag72
ag88
ag88
ag88
ag72
atbsg22
g1162
(g1163
g1158
g1164
S'b'
tRp1175
(I1
(I96
I1
tg1166
I00
S'\xbaP\xb3Cg\xaf\x02C\xbf\xb2MC\r\x80vB\xdc\xbf\xfbBCnjC*$\xafC\x14\xe3\xaaC\r\xa9eCM\xd6\x8dA\x88\xba\xbbC8\xdfxC~E\x8eB\xe3\x8c\xe0B\xc1O\xeaB\xbd\x0e>BZ"*B\x06\x80\xb5CZ\xc6\xc7C\xffT\x85BY\x9c\xcd@?\x8e\x95C\x90\xb4\x97C\xa2\xdcdB}H\x84C+\x91_C\xae6\x82C\x15n\xb2B\x0f\x1f!C \xbe8C2\x0f\x8eC!T\xc0C\xe7\xb5\xe3C\xf0c\xd7B{X\xd1C\xd9!=C\xc1\x80\x86Cs)/C"\x9b\x9cC\x89&\x1cC\x1aG[ChT\xccC\x14\xbb\x03B\xf5\xed\xc9C4\xee\x12CI\xb4\xb9C\x0cd\xa0B\xb9\xab\x17Cge\x9aC9I\x7fC\xc9fACFVVC\x88\xd6\x88CD6tC/MRB\xf7\x0c\xa1CQ\xa6\xf2B\x13d\xceBB\x89\x18B\xd8\xf3*C\xb4X\xa8C\xc9B\xb1C\x94\x1a\xbeC_X\xdaC\x82uIC\xd3;\xbdB\xae\xe4\xdeA\xdf\x03\xd8C\xebV\xdcCan3CT\x86\x90C\x8e\xa2\xd5C\xaf\x15\x07C\xea\xff\xe0C\t\xbb\x9eC\xabF\x0cCm\xc5\xa9Bkn\x97B\x85~\xdeC\x0fWEC\xd7\x06\xadC%I\x93C\x04\xb7\xb7C\xc9qDA\xfa\xac\xd3C\xb4t\xa3C\x89\xee%Cj\xaa\xa5C\x19\xd5oC\x85\x14\xb4A\xd8\xf3\xc5B\xa8\x12\x8bC\xf1M\xc5C\x07\xe9\xceC&<\xc3C\x90\x1bRC'
S'\x00\x00\x00\x00\x00\x00\x00\x00\x00\x00\x00\x00\x00\x00\x00\x00\x00\x00\x00\x00\x00\x00\x00\x00\x00\x00\x00\x00\x00\x00\x00\x00\x00\x00\x00\x00\x00\x00\x00\x00\x00\x00\x00\x00\x00\x00\x00\x00\x00\x00\x00\x00\x00\x00\x00\x00\x00\x00\x00\x00\x00\x00\x00\x00\x00\x00\x00\x00\x00\x00\x00\x00\x00\x00\x00\x00\x00\x00\x00\x00\x00\x00\x00\x00\x00\x00\x00\x00\x00\x00\x00\x00\x00\x00\x00\x00'
Ntbsg26
g1157
(g1158
(I0
tS'b'
tRp1176
(I1
(I96
I1
tg1160
I00
(lp1177
g36
(g80
S'\t\x00\x00\x00'
tRp1178
ag36
(g80
S'\n\x00\x00\x00'
tRp1179
ag36
(g80
S'\x08\x00\x00\x00'
tRp1180
ag36
(g80
S'\x03\x00\x00\x00'
tRp1181
ag36
(g80
S'\t\x00\x00\x00'
tRp1182
ag36
(g80
S'\x04\x00\x00\x00'
tRp1183
ag36
(g80
S'\x08\x00\x00\x00'
tRp1184
ag36
(g80
S'\x0c\x00\x00\x00'
tRp1185
ag36
(g80
S'\x05\x00\x00\x00'
tRp1186
ag36
(g80
S'\x06\x00\x00\x00'
tRp1187
ag36
(g80
S'\x08\x00\x00\x00'
tRp1188
ag36
(g80
S'\x06\x00\x00\x00'
tRp1189
ag36
(g80
S'\x08\x00\x00\x00'
tRp1190
ag36
(g80
S'\x06\x00\x00\x00'
tRp1191
ag36
(g80
S'\x08\x00\x00\x00'
tRp1192
ag36
(g80
S'\x05\x00\x00\x00'
tRp1193
ag36
(g80
S'\x06\x00\x00\x00'
tRp1194
ag36
(g80
S'\x0b\x00\x00\x00'
tRp1195
ag36
(g80
S'\x04\x00\x00\x00'
tRp1196
ag36
(g80
S'\x06\x00\x00\x00'
tRp1197
aS'5.0'
p1198
ag36
(g80
S'\x06\x00\x00\x00'
tRp1199
ag36
(g80
S'\t\x00\x00\x00'
tRp1200
ag36
(g80
S'\x01\x00\x00\x00'
tRp1201
ag36
(g80
S'\x07\x00\x00\x00'
tRp1202
ag36
(g80
S'\x07\x00\x00\x00'
tRp1203
ag36
(g80
S'\x05\x00\x00\x00'
tRp1204
ag36
(g80
S'\x04\x00\x00\x00'
tRp1205
ag36
(g80
S'\x06\x00\x00\x00'
tRp1206
ag36
(g80
S'\x05\x00\x00\x00'
tRp1207
ag36
(g80
S'\x03\x00\x00\x00'
tRp1208
ag36
(g80
S'\x07\x00\x00\x00'
tRp1209
ag36
(g80
S'\n\x00\x00\x00'
tRp1210
ag36
(g80
S'\x07\x00\x00\x00'
tRp1211
ag36
(g80
S'\x05\x00\x00\x00'
tRp1212
ag36
(g80
S'\x04\x00\x00\x00'
tRp1213
ag36
(g80
S'\x04\x00\x00\x00'
tRp1214
ag36
(g80
S'\x05\x00\x00\x00'
tRp1215
ag36
(g80
S'\n\x00\x00\x00'
tRp1216
ag36
(g80
S'\x04\x00\x00\x00'
tRp1217
ag36
(g80
S'\t\x00\x00\x00'
tRp1218
ag36
(g80
S'\x03\x00\x00\x00'
tRp1219
ag36
(g80
S'\x03\x00\x00\x00'
tRp1220
ag36
(g80
S'\x06\x00\x00\x00'
tRp1221
ag36
(g80
S'\x04\x00\x00\x00'
tRp1222
ag36
(g80
S'\x06\x00\x00\x00'
tRp1223
ag36
(g80
S'\x05\x00\x00\x00'
tRp1224
ag36
(g80
S'\x07\x00\x00\x00'
tRp1225
ag36
(g80
S'\x0c\x00\x00\x00'
tRp1226
ag36
(g80
S'\x04\x00\x00\x00'
tRp1227
ag36
(g80
S'\x06\x00\x00\x00'
tRp1228
ag36
(g80
S'\x08\x00\x00\x00'
tRp1229
ag36
(g80
S'\x02\x00\x00\x00'
tRp1230
ag36
(g80
S'\x08\x00\x00\x00'
tRp1231
ag36
(g80
S'\x04\x00\x00\x00'
tRp1232
ag36
(g80
S'\x08\x00\x00\x00'
tRp1233
ag36
(g80
S'\x07\x00\x00\x00'
tRp1234
ag36
(g80
S'\x05\x00\x00\x00'
tRp1235
ag36
(g80
S'\x05\x00\x00\x00'
tRp1236
ag36
(g80
S'\x06\x00\x00\x00'
tRp1237
ag36
(g80
S'\r\x00\x00\x00'
tRp1238
ag36
(g80
S'\x07\x00\x00\x00'
tRp1239
ag36
(g80
S'\n\x00\x00\x00'
tRp1240
ag36
(g80
S'\x07\x00\x00\x00'
tRp1241
ag36
(g80
S'\x06\x00\x00\x00'
tRp1242
ag36
(g80
S'\x02\x00\x00\x00'
tRp1243
ag36
(g80
S'\x02\x00\x00\x00'
tRp1244
ag36
(g80
S'\x08\x00\x00\x00'
tRp1245
ag36
(g80
S'\x06\x00\x00\x00'
tRp1246
ag36
(g80
S'\x07\x00\x00\x00'
tRp1247
ag36
(g80
S'\x04\x00\x00\x00'
tRp1248
ag36
(g80
S'\x06\x00\x00\x00'
tRp1249
ag36
(g80
S'\x07\x00\x00\x00'
tRp1250
ag36
(g80
S'\x07\x00\x00\x00'
tRp1251
ag36
(g80
S'\t\x00\x00\x00'
tRp1252
ag36
(g80
S'\x05\x00\x00\x00'
tRp1253
ag36
(g80
S'\x02\x00\x00\x00'
tRp1254
ag36
(g80
S'\x07\x00\x00\x00'
tRp1255
ag36
(g80
S'\x05\x00\x00\x00'
tRp1256
ag36
(g80
S'\x07\x00\x00\x00'
tRp1257
ag36
(g80
S'\t\x00\x00\x00'
tRp1258
ag36
(g80
S'\x03\x00\x00\x00'
tRp1259
ag36
(g80
S'\t\x00\x00\x00'
tRp1260
ag36
(g80
S'\x07\x00\x00\x00'
tRp1261
ag36
(g80
S'\x04\x00\x00\x00'
tRp1262
ag36
(g80
S'\x0b\x00\x00\x00'
tRp1263
ag36
(g80
S'\t\x00\x00\x00'
tRp1264
ag36
(g80
S'\x0e\x00\x00\x00'
tRp1265
ag36
(g80
S'\x05\x00\x00\x00'
tRp1266
ag36
(g80
S'\x04\x00\x00\x00'
tRp1267
ag36
(g80
S'\x03\x00\x00\x00'
tRp1268
ag36
(g80
S'\x04\x00\x00\x00'
tRp1269
ag36
(g80
S'\x03\x00\x00\x00'
tRp1270
ag36
(g80
S'\x06\x00\x00\x00'
tRp1271
ag36
(g80
S'\x06\x00\x00\x00'
tRp1272
ag36
(g80
S'\t\x00\x00\x00'
tRp1273
atbsg21
g1162
(g1163
g1158
g1164
S'b'
tRp1274
(I1
(I96
I1
tg1166
I00
S'\x14\x91W?\xe5\xcf\x9d?\xeb\xc9s?;\x97\x81?8\x01\x88?\xc4\x12\xa8?\xae\x1f\x1f?\x85\xb5\xca?\xe6\x1e\x96?\xcb\x1f\x1f?J\xb0!?\xece\x8e?\xfa\xf5f?\xda\xda\x8b?u|{?[\xda\x8b?0\xdeO?+\xdeO?"A\xd6?\xfapR?WV\xb2?\xb9\xcf\x9d?\x05\xa8n?\x10\xb9\x86?\x84i)?\x9d\xb2\\?\x0c*\xbf?\x10,H?\xea$\xc8?\xbb`\xa0?\xce7\x02@\xc5dd?r\xb2\\?\xe3N\x80?\x1c\xa9\xa1?$\x00U?\xa5\xb9\x86?\x13/H?\x0f\xa8n?\x99\xda\x8b?\x93r\xc0?\xdcw\xb7?!\x94\xc5?\xe3C_?\x05\xea\t@\x9b\x99\n?7\x17l?\xf5\x91\x8a??CM?\x0c(\x1d@\x1fC_?\xe1\x90W?\xab?\x9b?\xb9\xdf\x82?7\xae\x98?3\xa9\xa1?\x94\x84.?\xcdA$?\xb0W\xb2?\xe6\xfd\xc2?\xe0\xb8\x86?t\xc78?\x9c9\xa4?\n\xa63?e\x9bE?\xad\xcd\xa6?\xc0\x9e\xb3?\xde\r\xb1?D\x9bE?fO\x80?\x9f/\xb6?\xa1\x8e\xfb>\xa4\xb2\\?\x81\xc5\xaf?X\x9cE?\xd5\xd2\xd8?\xfd\xbcJ?.\xd4a?\xfa\x97\x81?\x1c\xfe\x19?\xea\x141?\xfbR\xf6?\xbd\x91\x8a?\xd7\xa3\xaa?0\xa8n?\xf5e\x97?W\x82\xa5?@X;?R\x08\xba?{\x99\n?\x13Y;?\xf1N\x80?t\xb0!?KX)?\xbf\x94\xc5?^D\x89?'
S'\x00\x00\x00\x00\x00\x00\x00\x00\x00\x00\x00\x00\x00\x00\x00\x00\x00\x00\x00\x00\x00\x00\x00\x00\x00\x00\x00\x00\x00\x00\x00\x00\x00\x00\x00\x00\x00\x00\x00\x00\x00\x00\x00\x00\x00\x00\x00\x00\x00\x00\x00\x00\x00\x00\x00\x00\x00\x00\x00\x00\x00\x00\x00\x00\x00\x00\x00\x00\x00\x00\x00\x00\x00\x00\x00\x00\x00\x00\x00\x00\x00\x00\x00\x00\x00\x00\x00\x00\x00\x00\x00\x00\x00\x00\x00\x00'
NtbsS'order'
p1275
g1162
(g1163
g1158
g1164
S'b'
tRp1276
(I1
(I96
I1
tg1166
I00
S'\x00\x00\x94B\x00\x00\xd0A\x00\x00(B\x00\x000A\x00\x00\xc8A\x00\x00@B\x00\x00\x90B\x00\x00\x8cB\x00\x00<B\x00\x00\x00@\x00\x00\x9cB\x00\x00LB\x00\x00PA\x00\x00\xb0A\x00\x00\xb8A\x00\x00\x00A\x00\x00\xe0@\x00\x00\x96B\x00\x00\xa6B\x00\x00@A\x00\x00\x00\x00\x00\x00tB\x00\x00xB\x00\x00 A\x00\x00XB\x00\x008B\x00\x00TB\x00\x00\x88A\x00\x00\x00B\x00\x00\x14B\x00\x00hB\x00\x00\xa0B\x00\x00\xbeB\x00\x00\xa8A\x00\x00\xaeB\x00\x00\x18B\x00\x00\\B\x00\x00\x0cB\x00\x00\x80B\x00\x00\xf8A\x00\x004B\x00\x00\xaaB\x00\x00\xa0@\x00\x00\xa8B\x00\x00\xe8A\x00\x00\x9aB\x00\x00pA\x00\x00\xf0A\x00\x00|B\x00\x00PB\x00\x00\x1cB\x00\x000B\x00\x00`B\x00\x00HB\x00\x00\x10A\x00\x00\x84B\x00\x00\xc0A\x00\x00\xa0A\x00\x00\xc0@\x00\x00\x08B\x00\x00\x8aB\x00\x00\x92B\x00\x00\x9eB\x00\x00\xb6B\x00\x00$B\x00\x00\x90A\x00\x00\x80@\x00\x00\xb4B\x00\x00\xb8B\x00\x00\x10B\x00\x00lB\x00\x00\xb2B\x00\x00\xd8A\x00\x00\xbcB\x00\x00\x82B\x00\x00\xe0A\x00\x00\x80A\x00\x00`A\x00\x00\xbaB\x00\x00 B\x00\x00\x8eB\x00\x00pB\x00\x00\x98B\x00\x00\x80?\x00\x00\xb0B\x00\x00\x86B\x00\x00\x04B\x00\x00\x88B\x00\x00DB\x00\x00@@\x00\x00\x98A\x00\x00dB\x00\x00\xa4B\x00\x00\xacB\x00\x00\xa2B\x00\x00,B'
S'\x00\x00\x00\x00\x00\x00\x00\x00\x00\x00\x00\x00\x00\x00\x00\x00\x00\x00\x00\x00\x00\x00\x00\x00\x00\x00\x00\x00\x00\x00\x00\x00\x00\x00\x00\x00\x00\x00\x00\x00\x00\x00\x00\x00\x00\x00\x00\x00\x00\x00\x00\x00\x00\x00\x00\x00\x00\x00\x00\x00\x00\x00\x00\x00\x00\x00\x00\x00\x00\x00\x00\x00\x00\x00\x00\x00\x00\x00\x00\x00\x00\x00\x00\x00\x00\x00\x00\x00\x00\x00\x00\x00\x00\x00\x00\x00'
Ntbsg19
g1162
(g1163
g1158
g1164
S'b'
tRp1277
(I1
(I96
I1
tg1166
I00
S'\x00\x00\x80?\x00\x00\x80?\x00\x00\x80?\x00\x00\x80?\x00\x00\x80?\x00\x00\x00\x00\x00\x00\x80?\x00\x00\x80?\x00\x00\x80?\x00\x00\x00\x00\x00\x00\x00\x00\x00\x00\x80?\x00\x00\x80?\x00\x00\x80?\x00\x00\x80?\x00\x00\x80?\x00\x00\x80?\x00\x00\x80?\x00\x00\x80?\x00\x00\x80?\x00\x00\x80?\x00\x00\x80?\x00\x00\x00\x00\x00\x00\x00\x00\x00\x00\x80?\x00\x00\x80?\x00\x00\x00\x00\x00\x00\x80?\x00\x00\x00\x00\x00\x00\x80?\x00\x00\x80?\x00\x00\x80?\x00\x00\x00\x00\x00\x00\x80?\x00\x00\x80?\x00\x00\x80?\x00\x00\x80?\x00\x00\x80?\x00\x00\x80?\x00\x00\x80?\x00\x00\x80?\x00\x00\x80?\x00\x00\x00\x00\x00\x00\x80?\x00\x00\x80?\x00\x00\x00\x00\x00\x00\x80?\x00\x00\x80?\x00\x00\x80?\x00\x00\x00\x00\x00\x00\x80?\x00\x00\x00\x00\x00\x00\x80?\x00\x00\x80?\x00\x00\x80?\x00\x00\x80?\x00\x00\x80?\x00\x00\x80?\x00\x00\x80?\x00\x00\x80?\x00\x00\x80?\x00\x00\x00\x00\x00\x00\x80?\x00\x00\x80?\x00\x00\x80?\x00\x00\x80?\x00\x00\x00\x00\x00\x00\x80?\x00\x00\x80?\x00\x00\x80?\x00\x00\x80?\x00\x00\x00\x00\x00\x00\x80?\x00\x00\x00\x00\x00\x00\x80?\x00\x00\x80?\x00\x00\x80?\x00\x00\x80?\x00\x00\x80?\x00\x00\x80?\x00\x00\x80?\x00\x00\x80?\x00\x00\x80?\x00\x00\x80?\x00\x00\x80?\x00\x00\x00\x00\x00\x00\x80?\x00\x00\x80?\x00\x00\x80?\x00\x00\x80?\x00\x00\x80?\x00\x00\x80?\x00\x00\x80?\x00\x00\x80?\x00\x00\x80?\x00\x00\x80?'
S'\x00\x00\x00\x00\x00\x00\x00\x00\x00\x00\x00\x00\x00\x00\x00\x00\x00\x00\x00\x00\x00\x00\x00\x00\x00\x00\x00\x00\x00\x00\x00\x00\x00\x00\x00\x00\x00\x00\x00\x00\x00\x00\x00\x00\x00\x00\x00\x00\x00\x00\x00\x00\x00\x00\x00\x00\x00\x00\x00\x00\x00\x00\x00\x00\x00\x00\x00\x00\x00\x00\x00\x00\x00\x00\x00\x00\x00\x00\x00\x00\x00\x00\x00\x00\x00\x00\x00\x00\x00\x00\x00\x00\x00\x00\x00\x00'
Ntbsg27
g1157
(g1158
(I0
tS'b'
tRp1278
(I1
(I96
I1
tg1160
I00
(lp1279
g903
ag374
ag550
ag209
ag363
ag616
ag881
ag859
ag605
ag104
ag947
ag649
ag231
ag330
ag341
ag174
ag162
ag914
ag1002
ag220
ag76
ag760
ag771
ag197
ag683
ag594
ag671
ag275
ag440
ag495
ag727
ag969
ag1134
ag319
ag1046
ag506
ag694
ag473
ag793
ag429
ag583
ag1024
ag139
ag1013
ag407
ag936
ag253
ag418
ag782
ag660
ag517
ag572
ag705
ag638
ag185
ag815
ag352
ag308
ag151
ag462
ag848
ag892
ag958
ag1090
ag539
ag286
ag127
ag1079
ag1101
ag484
ag738
ag1068
ag385
ag1123
ag804
ag396
ag264
ag242
ag1112
ag528
ag870
ag749
ag925
ag92
ag1057
ag826
ag451
ag837
ag627
ag116
ag297
ag716
ag991
ag1035
ag980
ag561
atbsg23
g1157
(g1158
(I0
tS'b'
tRp1280
(I1
(I96
I1
tg1160
I00
(lp1281
S'1'
aS'3'
aS'1'
aS'1'
aS'1'
aS'1'
aS'2'
aS'3'
aS'2'
aS'3'
aS'1'
aS'3'
aS'2'
aS'1'
aS'2'
aS'2'
aS'2'
aS'3'
aS'1'
aS'1'
aS'1'
aS'1'
aS'1'
aS'1'
aS'3'
aS'3'
aS'1'
aS'3'
aS'1'
aS'2'
aS'1'
aS'2'
aS'1'
aS'2'
aS'2'
aS'1'
aS'3'
aS'1'
aS'2'
aS'1'
aS'3'
aS'1'
aS'1'
aS'3'
aS'1'
aS'1'
aS'3'
aS'3'
aS'3'
aS'1'
aS'1'
aS'1'
aS'1'
aS'3'
aS'3'
aS'1'
aS'1'
aS'1'
aS'1'
aS'2'
aS'2'
aS'1'
aS'3'
aS'2'
aS'1'
aS'1'
aS'1'
aS'2'
aS'2'
aS'3'
aS'2'
aS'1'
aS'3'
aS'1'
aS'2'
aS'2'
aS'1'
aS'3'
aS'1'
aS'2'
aS'2'
aS'1'
aS'3'
aS'2'
aS'1'
aS'1'
aS'3'
aS'2'
aS'1'
aS'3'
aS'1'
aS'2'
aS'1'
aS'2'
aS'3'
aS'2'
atbsg18
g1162
(g1163
g1158
g1164
S'b'
tRp1282
(I1
(I96
I1
tg1166
I00
S'Q\xe2\xb2C\xf3k\x01C\xb3\xb9LCG^rBO\x95\xf9B\xd9\x18iC\xf9\xd1\xaeC\xbd\x15\xaaC\x8dwdC6\xb3\x88A\x0eg\xbbC(\xbdwC\x0bm\x8cB\xf1R\xdeBAN\xe8B\xd9\x9a9B\xd4\xcd&Bu\x15\xb5Cx\xed\xc6C\x99\xa5\x83B/\n\xa0@\xce\xed\x94C\x9a:\x97C\xd1\x91`B&\xf1\x83C6\xaf^C\xe3t\x81C8\xd3\xb0B\x83\x89\x1fC\x1ex7C\xd8\x06\x8dCM\xdf\xbfC\xecD\xe3C/X\xd5B0\xb4\xd0C\x97G<Cf\xf7\x85C\x00\\.C,!\x9cC\x91\t\x1bC\xf3\xc0YCO\x9a\xcbC\xc8\xf2\xfaA\xb1{\xc9CI\xc1\x10CZl\xb9CX\x81\x9eB\x04\x8f\x16C#\xfc\x99CW\xcf|CB\x82@CryUC\xa78\x88CA+sC\xb1rMB\xach\xa0C\xc1>\xf1B\x05\x11\xcdBv\xe1\x12B\x9ah)CZ\xcf\xa7C\xc4\xe3\xb0C\xb7s\xbdC\xea\xfb\xd9C\xa4\xaaHC\x17\x96\xbaB\xae\x80\xd3A0P\xd7C|\xf1\xdbC~h2C\x83\xcd\x8fC\x08a\xd5C\xbb3\x06C\x83M\xe0CQT\x9eC\xc2\x8f\nCn%\xa8B>\xa0\x95BL\xfa\xddC\xcd\xb7DC\xa8\xab\xacC\xe8N\x92C\xd1)\xb7C+\xc9.A\x053\xd3C\xac\xda\xa2CB\x9e$C\x1cJ\xa5C\xc6[nC\xa5\x95\xafA\x9fr\xc4B\xb7\x8f\x8aCw\xfa\xc4C\xb9\x91\xceC\xf0s\xc2C\xc4\x03QC'
S'\x00\x00\x00\x00\x00\x00\x00\x00\x00\x00\x00\x00\x00\x00\x00\x00\x00\x00\x00\x00\x00\x00\x00\x00\x00\x00\x00\x00\x00\x00\x00\x00\x00\x00\x00\x00\x00\x00\x00\x00\x00\x00\x00\x00\x00\x00\x00\x00\x00\x00\x00\x00\x00\x00\x00\x00\x00\x00\x00\x00\x00\x00\x00\x00\x00\x00\x00\x00\x00\x00\x00\x00\x00\x00\x00\x00\x00\x00\x00\x00\x00\x00\x00\x00\x00\x00\x00\x00\x00\x00\x00\x00\x00\x00\x00\x00'
Ntbsg25
g1162
(g1163
g1158
g1164
S'b'
tRp1283
(I1
(I96
I1
tg1166
I00
S'\xaf%\xec>Q\x8f\xfb>j\xa7\x8a>\xbae\x97?\xbb\x8c\xfb>\xc9\x0cl?-G\xf1>\x85w\x05?\x98\xe1\xe1>%\x82\x9c?\x0e<\xc8>n8q?{\xd2&?\xb8\x90W?\x0b\xe2\xe1>\xee!Z?5\xb2\\?e\xc9\x8f>\xee^\xcd>\x86\xe6\x02?L\x99\xbc?\n\x0c\x9a>\xae\xe1\xbd?4:\xc8>(\xc2\xb8>\xdcz\xf2?\xb2\xbf\xdc>\xb8"\x8d?\x16\x04\xe7>\xba\x99\n?\x82\x89\xfb>\xc8\xcf\x9d?-\xffa>\x1d\x04\xe7>866?\xd3\xd4\xb8>v5\xec>\xd3\xfda>S^\xcd>a\xf7\xbd>(\x1c\xc3>p\x08\xba?\x02,H?\x95\xd5\xb8>\xe1\x8d\x1c?\xe7\xd4\xb8> \xf5f?\xe6\xf8\xbd>-~\xd2>+\x1f\x1f?\xe3\xe9\x94>\xd0\xf6\xbd>L\x07\xe7>\x9d\xe6\x02?\xbe\xfe\x19?7\x99\n?\xb0\x9e\xd7>\xca\x03\xe7>\xd5)\r?}[\xcd>0&\xc8>gyM>R\xe7\x02?\x81\xf98>\xaf@l>_\x1f\x1f?\xb0x\x05?\xbadd?z\x85\x85>\xc7"\x84?\x13\xdc\x14?I1\x9f>\xd2J\xf1>z\xe1\xbd?\xd0O\xa4>\xad\xe1\xbd?\xfc\x07\x08?&\x08\x08?9m\x17?\xef\x19\x9f>\x02\x99\n?\x14\xa7\x8a>\xe2[\xcd>\xd9\xa5\xe5?\xf2\x1a\xc3>\xf1\xba\x0f?\xd9\'\xec>:\xf7\x99?E\x0c\x9a>[\xcas?S)\r?\xf0\x16l?!d\x80>\x9eK\x12?zU\x00?\x17q\xa9>'
S'\x00\x00\x00\x00\x00\x00\x00\x00\x00\x00\x00\x00\x00\x00\x00\x00\x00\x00\x00\x00\x00\x00\x00\x00\x00\x00\x00\x00\x00\x00\x00\x00\x00\x00\x00\x00\x00\x00\x00\x00\x00\x00\x00\x00\x00\x00\x00\x00\x00\x00\x00\x00\x00\x00\x00\x00\x00\x00\x00\x00\x00\x00\x00\x00\x00\x00\x00\x00\x00\x00\x00\x00\x00\x00\x00\x00\x00\x00\x00\x00\x00\x00\x00\x00\x00\x00\x00\x00\x00\x00\x00\x00\x00\x00\x00\x00'
NtbstRp1284
(dp1285
S'isNumeric'
p1286
(dp1287
g23
I00
sg20
I00
sg17
I01
sg1167
I01
sg22
I01
sg24
I01
sg14
I01
sg18
I01
sg16
I00
sg19
I01
sg26
I00
sg27
I00
sg15
I00
sg21
I01
sg1275
I01
sg25
I01
ssg1151
g1145
sS'dataTypes'
p1288
(lp1289
g1167
ag1275
ag14
ag15
ag16
ag17
ag18
ag19
ag20
ag21
ag22
ag23
ag24
ag25
ag26
ag27
asS'dataShape'
p1290
(lp1291
I96
aI1
asbsS'method'
p1292
S'random'
p1293
sS'sequenceIndices'
p1294
g1157
(g1158
(I0
tS'b'
tRp1295
(I1
(I96
I1
tg80
I01
S'\x14\x00\x00\x00S\x00\x00\x00\t\x00\x00\x00Y\x00\x00\x00B\x00\x00\x00*\x00\x00\x00:\x00\x00\x00\x10\x00\x00\x00\x0f\x00\x00\x006\x00\x00\x00\x17\x00\x00\x00\x03\x00\x00\x00\x13\x00\x00\x00\x0c\x00\x00\x00M\x00\x00\x00.\x00\x00\x00L\x00\x00\x00\x1b\x00\x00\x00A\x00\x00\x00Z\x00\x00\x009\x00\x00\x00!\x00\x00\x00\r\x00\x00\x00\x0e\x00\x00\x008\x00\x00\x00\x04\x00\x00\x00\x01\x00\x00\x00H\x00\x00\x00K\x00\x00\x00,\x00\x00\x00/\x00\x00\x00\'\x00\x00\x00\x1c\x00\x00\x00V\x00\x00\x00;\x00\x00\x00%\x00\x00\x00E\x00\x00\x00\x1d\x00\x00\x00#\x00\x00\x002\x00\x00\x00O\x00\x00\x00@\x00\x00\x00\x02\x00\x00\x00_\x00\x00\x003\x00\x00\x00(\x00\x00\x00\x19\x00\x00\x00\x08\x00\x00\x00\x05\x00\x00\x00X\x00\x00\x005\x00\x00\x00\x0b\x00\x00\x001\x00\x00\x00\x1a\x00\x00\x00\x18\x00\x00\x00$\x00\x00\x004\x00\x00\x00[\x00\x00\x00\x1e\x00\x00\x00F\x00\x00\x00Q\x00\x00\x00\x15\x00\x00\x00\x16\x00\x00\x000\x00\x00\x00&\x00\x00\x00J\x00\x00\x007\x00\x00\x00U\x00\x00\x00W\x00\x00\x00<\x00\x00\x00\x07\x00\x00\x00P\x00\x00\x00\x06\x00\x00\x00=\x00\x00\x00\x00\x00\x00\x00\x11\x00\x00\x00R\x00\x00\x00-\x00\x00\x00\n\x00\x00\x00>\x00\x00\x00\x1f\x00\x00\x00^\x00\x00\x00\\\x00\x00\x00\x12\x00\x00\x00+\x00\x00\x00)\x00\x00\x00]\x00\x00\x00"\x00\x00\x00T\x00\x00\x00G\x00\x00\x00C\x00\x00\x00?\x00\x00\x00D\x00\x00\x00N\x00\x00\x00I\x00\x00\x00 \x00\x00\x00'
tbsS'finished'
p1296
I01
sS'nReps'
p1297
I1
sS'nRemaining'
p1298
I-1
sS'trialList'
p1299
(lp1300
g1
(cpsychopy.data
TrialType
p1301
g1155
(dp1302
g62
g90
sg63
g909
sg64
g172
sg65
g904
sg66
g908
stRp1303
ag1
(g1301
g1155
(dp1304
g62
g74
sg63
g380
sg64
g73
sg65
g375
sg66
g379
stRp1305
ag1
(g1301
g1155
(dp1306
g62
g90
sg63
g556
sg64
g172
sg65
g551
sg66
g555
stRp1307
ag1
(g1301
g1155
(dp1308
g62
g90
sg63
g215
sg64
g207
sg65
g210
sg66
g214
stRp1309
ag1
(g1301
g1155
(dp1310
g62
g74
sg63
g369
sg64
g137
sg65
g364
sg66
g368
stRp1311
ag1
(g1301
g1155
(dp1312
g62
g90
sg63
g622
sg64
g172
sg65
g617
sg66
g621
stRp1313
ag1
(g1301
g1155
(dp1314
g62
g90
sg63
g887
sg64
g172
sg65
g882
sg66
g886
stRp1315
ag1
(g1301
g1155
(dp1316
g62
g90
sg63
g865
sg64
g102
sg65
g860
sg66
g864
stRp1317
ag1
(g1301
g1155
(dp1318
g62
g90
sg63
g611
sg64
g172
sg65
g606
sg66
g610
stRp1319
ag1
(g1301
g1155
(dp1320
g62
g90
sg63
g110
sg64
g102
sg65
g105
sg66
g109
stRp1321
ag1
(g1301
g1155
(dp1322
g62
g74
sg63
g953
sg64
g681
sg65
g948
sg66
g952
stRp1323
ag1
(g1301
g1155
(dp1324
g62
g90
sg63
g655
sg64
g102
sg65
g650
sg66
g654
stRp1325
ag1
(g1301
g1155
(dp1326
g62
g90
sg63
g237
sg64
g149
sg65
g232
sg66
g236
stRp1327
ag1
(g1301
g1155
(dp1328
g62
g74
sg63
g336
sg64
g73
sg65
g331
sg66
g335
stRp1329
ag1
(g1301
g1155
(dp1330
g62
g90
sg63
g347
sg64
g149
sg65
g342
sg66
g346
stRp1331
ag1
(g1301
g1155
(dp1332
g62
g90
sg63
g180
sg64
g172
sg65
g175
sg66
g179
stRp1333
ag1
(g1301
g1155
(dp1334
g62
g74
sg63
g168
sg64
g73
sg65
g163
sg66
g167
stRp1335
ag1
(g1301
g1155
(dp1336
g62
g90
sg63
g920
sg64
g149
sg65
g915
sg66
g919
stRp1337
ag1
(g1301
g1155
(dp1338
g62
g90
sg63
g1008
sg64
g89
sg65
g1003
sg66
g1007
stRp1339
ag1
(g1301
g1155
(dp1340
g62
g90
sg63
g226
sg64
g172
sg65
g221
sg66
g225
stRp1341
ag1
(g1301
g1155
(dp1342
g62
g74
sg63
g84
sg64
g73
sg65
g78
sg66
g83
stRp1343
ag1
(g1301
g1155
(dp1344
g62
g74
sg63
g766
sg64
g195
sg65
g761
sg66
g765
stRp1345
ag1
(g1301
g1155
(dp1346
g62
g90
sg63
g777
sg64
g89
sg65
g772
sg66
g776
stRp1347
ag1
(g1301
g1155
(dp1348
g62
g74
sg63
g203
sg64
g195
sg65
g198
sg66
g202
stRp1349
ag1
(g1301
g1155
(dp1350
g62
g74
sg63
g689
sg64
g681
sg65
g684
sg66
g688
stRp1351
ag1
(g1301
g1155
(dp1352
g62
g90
sg63
g600
sg64
g114
sg65
g595
sg66
g599
stRp1353
ag1
(g1301
g1155
(dp1354
g62
g74
sg63
g677
sg64
g137
sg65
g672
sg66
g676
stRp1355
ag1
(g1301
g1155
(dp1356
g62
g74
sg63
g281
sg64
g73
sg65
g276
sg66
g280
stRp1357
ag1
(g1301
g1155
(dp1358
g62
g90
sg63
g446
sg64
g149
sg65
g441
sg66
g445
stRp1359
ag1
(g1301
g1155
(dp1360
g62
g90
sg63
g501
sg64
g172
sg65
g496
sg66
g500
stRp1361
ag1
(g1301
g1155
(dp1362
g62
g90
sg63
g733
sg64
g89
sg65
g728
sg66
g732
stRp1363
ag1
(g1301
g1155
(dp1364
g62
g90
sg63
g975
sg64
g89
sg65
g970
sg66
g974
stRp1365
ag1
(g1301
g1155
(dp1366
g62
g74
sg63
g1140
sg64
g73
sg65
g1135
sg66
g1139
stRp1367
ag1
(g1301
g1155
(dp1368
g62
g74
sg63
g325
sg64
g137
sg65
g320
sg66
g324
stRp1369
ag1
(g1301
g1155
(dp1370
g62
g74
sg63
g1052
sg64
g137
sg65
g1047
sg66
g1051
stRp1371
ag1
(g1301
g1155
(dp1372
g62
g90
sg63
g512
sg64
g149
sg65
g507
sg66
g511
stRp1373
ag1
(g1301
g1155
(dp1374
g62
g90
sg63
g700
sg64
g114
sg65
g695
sg66
g699
stRp1375
ag1
(g1301
g1155
(dp1376
g62
g90
sg63
g479
sg64
g207
sg65
g474
sg66
g478
stRp1377
ag1
(g1301
g1155
(dp1378
g62
g74
sg63
g799
sg64
g137
sg65
g794
sg66
g798
stRp1379
ag1
(g1301
g1155
(dp1380
g62
g74
sg63
g435
sg64
g73
sg65
g430
sg66
g434
stRp1381
ag1
(g1301
g1155
(dp1382
g62
g74
sg63
g589
sg64
g73
sg65
g584
sg66
g588
stRp1383
ag1
(g1301
g1155
(dp1384
g62
g90
sg63
g1030
sg64
g149
sg65
g1025
sg66
g1029
stRp1385
ag1
(g1301
g1155
(dp1386
g62
g74
sg63
g145
sg64
g137
sg65
g140
sg66
g144
stRp1387
ag1
(g1301
g1155
(dp1388
g62
g74
sg63
g1019
sg64
g195
sg65
g1014
sg66
g1018
stRp1389
ag1
(g1301
g1155
(dp1390
g62
g74
sg63
g413
sg64
g137
sg65
g408
sg66
g412
stRp1391
ag1
(g1301
g1155
(dp1392
g62
g74
sg63
g942
sg64
g681
sg65
g937
sg66
g941
stRp1393
ag1
(g1301
g1155
(dp1394
g62
g90
sg63
g259
sg64
g172
sg65
g254
sg66
g258
stRp1395
ag1
(g1301
g1155
(dp1396
g62
g90
sg63
g424
sg64
g172
sg65
g419
sg66
g423
stRp1397
ag1
(g1301
g1155
(dp1398
g62
g74
sg63
g788
sg64
g73
sg65
g783
sg66
g787
stRp1399
ag1
(g1301
g1155
(dp1400
g62
g74
sg63
g666
sg64
g195
sg65
g661
sg66
g665
stRp1401
ag1
(g1301
g1155
(dp1402
g62
g74
sg63
g523
sg64
g73
sg65
g518
sg66
g522
stRp1403
ag1
(g1301
g1155
(dp1404
g62
g74
sg63
g578
sg64
g137
sg65
g573
sg66
g577
stRp1405
ag1
(g1301
g1155
(dp1406
g62
g74
sg63
g711
sg64
g195
sg65
g706
sg66
g710
stRp1407
ag1
(g1301
g1155
(dp1408
g62
g90
sg63
g644
sg64
g149
sg65
g639
sg66
g643
stRp1409
ag1
(g1301
g1155
(dp1410
g62
g90
sg63
g191
sg64
g102
sg65
g186
sg66
g190
stRp1411
ag1
(g1301
g1155
(dp1412
g62
g74
sg63
g821
sg64
g195
sg65
g816
sg66
g820
stRp1413
ag1
(g1301
g1155
(dp1414
g62
g74
sg63
g358
sg64
g137
sg65
g353
sg66
g357
stRp1415
ag1
(g1301
g1155
(dp1416
g62
g74
sg63
g314
sg64
g137
sg65
g309
sg66
g313
stRp1417
ag1
(g1301
g1155
(dp1418
g62
g90
sg63
g157
sg64
g149
sg65
g152
sg66
g156
stRp1419
ag1
(g1301
g1155
(dp1420
g62
g74
sg63
g468
sg64
g137
sg65
g463
sg66
g467
stRp1421
ag1
(g1301
g1155
(dp1422
g62
g74
sg63
g854
sg64
g137
sg65
g849
sg66
g853
stRp1423
ag1
(g1301
g1155
(dp1424
g62
g74
sg63
g898
sg64
g137
sg65
g893
sg66
g897
stRp1425
ag1
(g1301
g1155
(dp1426
g62
g90
sg63
g964
sg64
g114
sg65
g959
sg66
g963
stRp1427
ag1
(g1301
g1155
(dp1428
g62
g74
sg63
g1096
sg64
g137
sg65
g1091
sg66
g1095
stRp1429
ag1
(g1301
g1155
(dp1430
g62
g90
sg63
g545
sg64
g102
sg65
g540
sg66
g544
stRp1431
ag1
(g1301
g1155
(dp1432
g62
g74
sg63
g292
sg64
g195
sg65
g287
sg66
g291
stRp1433
ag1
(g1301
g1155
(dp1434
g62
g90
sg63
g133
sg64
g89
sg65
g128
sg66
g132
stRp1435
ag1
(g1301
g1155
(dp1436
g62
g74
sg63
g1085
sg64
g137
sg65
g1080
sg66
g1084
stRp1437
ag1
(g1301
g1155
(dp1438
g62
g74
sg63
g1107
sg64
g73
sg65
g1102
sg66
g1106
stRp1439
ag1
(g1301
g1155
(dp1440
g62
g90
sg63
g490
sg64
g172
sg65
g485
sg66
g489
stRp1441
ag1
(g1301
g1155
(dp1442
g62
g74
sg63
g744
sg64
g137
sg65
g739
sg66
g743
stRp1443
ag1
(g1301
g1155
(dp1444
g62
g90
sg63
g1074
sg64
g89
sg65
g1069
sg66
g1073
stRp1445
ag1
(g1301
g1155
(dp1446
g62
g90
sg63
g391
sg64
g114
sg65
g386
sg66
g390
stRp1447
ag1
(g1301
g1155
(dp1448
g62
g74
sg63
g1129
sg64
g681
sg65
g1124
sg66
g1128
stRp1449
ag1
(g1301
g1155
(dp1450
g62
g74
sg63
g810
sg64
g137
sg65
g805
sg66
g809
stRp1451
ag1
(g1301
g1155
(dp1452
g62
g74
sg63
g402
sg64
g195
sg65
g397
sg66
g401
stRp1453
ag1
(g1301
g1155
(dp1454
g62
g90
sg63
g270
sg64
g102
sg65
g265
sg66
g269
stRp1455
ag1
(g1301
g1155
(dp1456
g62
g90
sg63
g248
sg64
g89
sg65
g243
sg66
g247
stRp1457
ag1
(g1301
g1155
(dp1458
g62
g90
sg63
g1118
sg64
g172
sg65
g1113
sg66
g1117
stRp1459
ag1
(g1301
g1155
(dp1460
g62
g74
sg63
g534
sg64
g137
sg65
g529
sg66
g533
stRp1461
ag1
(g1301
g1155
(dp1462
g62
g74
sg63
g876
sg64
g195
sg65
g871
sg66
g875
stRp1463
ag1
(g1301
g1155
(dp1464
g62
g90
sg63
g755
sg64
g172
sg65
g750
sg66
g754
stRp1465
ag1
(g1301
g1155
(dp1466
g62
g74
sg63
g931
sg64
g73
sg65
g926
sg66
g930
stRp1467
ag1
(g1301
g1155
(dp1468
g62
g90
sg63
g98
sg64
g89
sg65
g93
sg66
g97
stRp1469
ag1
(g1301
g1155
(dp1470
g62
g74
sg63
g1063
sg64
g73
sg65
g1058
sg66
g1062
stRp1471
ag1
(g1301
g1155
(dp1472
g62
g74
sg63
g832
sg64
g137
sg65
g827
sg66
g831
stRp1473
ag1
(g1301
g1155
(dp1474
g62
g90
sg63
g457
sg64
g102
sg65
g452
sg66
g456
stRp1475
ag1
(g1301
g1155
(dp1476
g62
g90
sg63
g843
sg64
g102
sg65
g838
sg66
g842
stRp1477
ag1
(g1301
g1155
(dp1478
g62
g90
sg63
g633
sg64
g114
sg65
g628
sg66
g632
stRp1479
ag1
(g1301
g1155
(dp1480
g62
g90
sg63
g122
sg64
g114
sg65
g117
sg66
g121
stRp1481
ag1
(g1301
g1155
(dp1482
g62
g74
sg63
g303
sg64
g73
sg65
g298
sg66
g302
stRp1483
ag1
(g1301
g1155
(dp1484
g62
g90
sg63
g722
sg64
g102
sg65
g717
sg66
g721
stRp1485
ag1
(g1301
g1155
(dp1486
g62
g90
sg63
g997
sg64
g114
sg65
g992
sg66
g996
stRp1487
ag1
(g1301
g1155
(dp1488
g62
g90
sg63
g1041
sg64
g172
sg65
g1036
sg66
g1040
stRp1489
ag1
(g1301
g1155
(dp1490
g62
g74
sg63
g986
sg64
g195
sg65
g981
sg66
g985
stRp1491
ag1
(g1301
g1155
(dp1492
g62
g74
sg63
g567
sg64
g73
sg65
g562
sg66
g566
stRp1493
asS'seed'
p1494
NsS'thisIndex'
p1495
g1137
sS'thisN'
p1496
I96
sS'thisTrialN'
p1497
I0
sS'nTotal'
p1498
I96
sS'_warnUseOfNext'
p1499
I01
sbasS'savePickle'
p1500
I00
sb.