ccopy_reg
_reconstructor
p1
(cpsychopy.data
ExperimentHandler
p2
c__builtin__
object
p3
NtRp4
(dp5
S'originPath'
p6
NsS'dataFileName'
p7
VC:\u005cDocuments and Settings\u005cExperimental user\u005cMy Documents\u005cconsciousness\u005cuncon_feat\u005cexperiment_scripts\u005cdata/out_Experiment_EEG_version_2019_jul_19_1640
p8
sS'runtimeInfo'
p9
NsS'name'
p10
VExperiment_EEG_version
p11
sS'dataNames'
p12
(lp13
S'image_onset_time'
p14
aS'response_window'
p15
aS'correctAns'
p16
aS'probe_onset'
p17
aS'discrim_resptime'
p18
aS'response.corr'
p19
aS'response.keys'
p20
aS'response.rt'
p21
aS'visible_resptime'
p22
aS'visible.keys'
p23
aS'visible.corr'
p24
aS'visible.rt'
p25
aS'probeFrames'
p26
aS'jitter2'
p27
asS'autoLog'
p28
I01
sS'extraInfo'
p29
(dp30
Vn_square
p31
V32
p32
sVexperiment_color
p33
Vbw
p34
sS'frameRate'
p35
cnumpy.core.multiarray
scalar
p36
(cnumpy
dtype
p37
(S'f8'
I0
I1
tRp38
(I3
S'<'
NNNI-1
I-1
I0
tbS'8C\xaeS\xed\xf1X@'
tRp39
sS'date'
p40
V2019_jul_19_1640
p41
sVsession
p42
V009
p43
sVimage_size
p44
V256
p45
sVpremask_dur
p46
V20
p47
sVprobeFrames
p48
V5
sVparticipant
p49
Vout
p50
sS'expName'
p51
g11
sVpostmask_dur
p52
V20
p53
ssS'loopsUnfinished'
p54
(lp55
sS'saveWideText'
p56
I00
sS'thisEntry'
p57
(dp58
sS'version'
p59
S''
sS'_paramNamesSoFar'
p60
(lp61
S'category'
p62
aS'probe_path'
p63
aS'subcategory'
p64
aS'fixation_duration'
p65
aS'label'
p66
asS'entries'
p67
(lp68
(dp69
g31
g32
sg17
F3.7852982892654836
sg24
I0
sg35
g39
sg14
F3.7447800887748599
sg16
g36
(g37
(S'i4'
I0
I1
tRp70
(I3
S'<'
NNNI-1
I-1
I0
tbS'\x02\x00\x00\x00'
tRp71
sg42
g43
sg46
g47
sg15
S'V_nV'
p72
sg22
F5.7701181429438293
sg64
VBuildings
p73
sg62
VNonliving_Things
p74
sg49
g50
sS'trials.thisN'
p75
I0
sg19
I1
sg27
g36
(g38
S'\x00\x00\x00\x00\x00\x00\x1e@'
tRp76
sg52
g53
sg23
S'2'
sg18
F5.0475110281258821
sg33
g34
sg51
g11
sg20
S'2'
sg65
g36
(g37
(S'i8'
I0
I1
tRp77
(I3
S'<'
NNNI-1
I-1
I0
tbS'\x00\x00\x00\x00\x00\x00\x00\x00'
tRp78
sg44
g45
sg40
g41
sg25
F1.4032860095612705
sS'trials.thisIndex'
p79
g36
(g37
(S'i4'
I0
I1
tRp80
(I3
S'<'
NNNI-1
I-1
I0
tbS'#\x00\x00\x00'
tRp81
sg26
V5
sS'trials.thisRepN'
p82
I0
sg66
Vgranary
p83
sg63
V../experiment_stimuli/bw_bc_bl/Nonliving_Things/Buildings/granary_15.jpg
p84
sg21
F0.69175017485395074
sS'trials.thisTrialN'
p85
I0
sa(dp86
g31
g32
sg17
F8.9164930540136993
sg24
I1
sg35
g39
sg14
F8.9060134934261441
sg16
g36
(g70
S'\x01\x00\x00\x00'
tRp87
sg42
g43
sg46
g47
sg15
S'nV_V'
p88
sg22
F11.47224900405854
sg64
VKitchen_Uten
p89
sg62
g74
sg49
g50
sS'trials.thisN'
p90
I1
sg19
I1
sg27
g36
(g38
S'\x00\x00\x00\x00\x00\x00\x1a@'
tRp91
sg52
g53
sg23
S'1'
sg18
F10.168666449841112
sg33
g34
sg51
g11
sg20
S'1'
sg65
g36
(g77
S'\x00\x00\x00\x00\x00\x00\x00\x00'
tRp92
sg44
g45
sg40
g41
sg25
F0.23071703314781189
sS'trials.thisIndex'
p93
g36
(g80
S'S\x00\x00\x00'
tRp94
sg26
V5
sS'trials.thisRepN'
p95
I0
sg66
Vteapot
p96
sg63
V../experiment_stimuli/bw_bc_bl/Nonliving_Things/Kitchen_Uten/teapot_15.jpg
p97
sg21
F1.283024350181222
sS'trials.thisTrialN'
p98
I1
sa(dp99
g31
g32
sg17
F13.467721070628613
sg24
I0
sg35
g39
sg14
F13.435876217205077
sg16
g36
(g70
S'\x02\x00\x00\x00'
tRp100
sg42
g43
sg46
g47
sg15
g88
sg22
F16.994244451168925
sg64
VMarine_creatures
p101
sg62
VLiving_Things
p102
sg49
g50
sS'trials.thisN'
p103
I2
sg19
I1
sg27
g36
(g38
S'\x00\x00\x00\x00\x00\x00\x18@'
tRp104
sg52
g53
sg23
S'2'
sg18
F14.748632308561355
sg33
g34
sg51
g11
sg20
S'2'
sg65
g36
(g77
S'\x00\x00\x00\x00\x00\x00\x00\x00'
tRp105
sg44
g45
sg40
g41
sg25
F0.73182920319959521
sS'trials.thisIndex'
p106
g36
(g80
S'7\x00\x00\x00'
tRp107
sg26
V5
sS'trials.thisRepN'
p108
I0
sg66
Vnarwhal
p109
sg63
V../experiment_stimuli/bw_bc_bl/Living_Things/Marine_creatures/narwhal_3.jpg
p110
sg21
F2.2250692727975547
sS'trials.thisTrialN'
p111
I2
sa(dp112
g31
g32
sg17
F19.474937128834426
sg24
I0
sg35
g39
sg14
F19.45898656360805
sg16
g36
(g70
S'\x01\x00\x00\x00'
tRp113
sg42
g43
sg46
g47
sg15
g88
sg22
F21.443951284047216
sg64
g89
sg62
g74
sg49
g50
sS'trials.thisN'
p114
I3
sg19
I0
sg27
g36
(g38
S'\x00\x00\x00\x00\x00\x00\x18@'
tRp115
sg52
g53
sg23
S'2'
sg18
F20.751708238385618
sg33
g34
sg51
g11
sg20
S'2'
sg65
g36
(g77
S'\x00\x00\x00\x00\x00\x00\x00\x00'
tRp116
sg44
g45
sg40
g41
sg25
F0.39109267154708505
sS'trials.thisIndex'
p117
g36
(g80
S'\x1e\x00\x00\x00'
tRp118
sg26
V5
sS'trials.thisRepN'
p119
I0
sg66
Vfondue
p120
sg63
V../experiment_stimuli/bw_bc_bl/Nonliving_Things/Kitchen_Uten/fondue_16.jpg
p121
sg21
F0.67169172503054142
sS'trials.thisTrialN'
p122
I3
sa(dp123
g31
g32
sg17
F23.576659838669002
sg24
I1
sg35
g39
sg14
F23.567931695841253
sg16
g36
(g70
S'\x02\x00\x00\x00'
tRp124
sg42
g43
sg46
g47
sg15
g88
sg22
F29.862265467178077
sg64
VAnimals
p125
sg62
g102
sg49
g50
sS'trials.thisN'
p126
I4
sg19
I1
sg27
g36
(g38
S'\x00\x00\x00\x00\x00\x00\x18@'
tRp127
sg52
g53
sg23
S'1'
sg18
F24.840605364181101
sg33
g34
sg51
g11
sg20
S'2'
sg65
g36
(g77
S'\x00\x00\x00\x00\x00\x00\x00\x00'
tRp128
sg44
g45
sg40
g41
sg25
F0.83204979635775089
sS'trials.thisIndex'
p129
g36
(g80
S'\x01\x00\x00\x00'
tRp130
sg26
V5
sS'trials.thisRepN'
p131
I0
sg66
Varmadillo
p132
sg63
V../experiment_stimuli/bw_bc_bl/Living_Things/Animals/armadillo_21.jpg
p133
sg21
F5.0011194362305105
sS'trials.thisTrialN'
p134
I4
sa(dp135
g31
g32
sg17
F32.45042318617925
sg24
I1
sg35
g39
sg14
F32.427220307290554
sg16
g36
(g70
S'\x01\x00\x00\x00'
tRp136
sg42
g43
sg46
g47
sg15
g88
sg22
F35.083660875912756
sg64
g73
sg62
g74
sg49
g50
sS'trials.thisN'
p137
I5
sg19
I1
sg27
g36
(g38
S'\x00\x00\x00\x00\x00\x00\x18@'
tRp138
sg52
g53
sg23
S'1'
sg18
F33.729964698199183
sg33
g34
sg51
g11
sg20
S'1'
sg65
g36
(g77
S'\x00\x00\x00\x00\x00\x00\x00\x00'
tRp139
sg44
g45
sg40
g41
sg25
F1.2128867693245411
sS'trials.thisIndex'
p140
g36
(g80
S'\x0e\x00\x00\x00'
tRp141
sg26
V5
sS'trials.thisRepN'
p142
I0
sg66
Vcathedral
p143
sg63
V../experiment_stimuli/bw_bc_bl/Nonliving_Things/Buildings/cathedral_7.jpg
p144
sg21
F1.3331434023566544
sS'trials.thisTrialN'
p145
I5
sa(dp146
g31
g32
sg17
F38.055574807338417
sg24
I0
sg35
g39
sg14
F38.029437325429171
sg16
g36
(g70
S'\x01\x00\x00\x00'
tRp147
sg42
g43
sg46
g47
sg15
g72
sg22
F44.023120908532292
sg64
VBirds
p148
sg62
g102
sg49
g50
sS'trials.thisN'
p149
I6
sg19
I0
sg27
g36
(g38
S'\x00\x00\x00\x00\x00\x00\x1a@'
tRp150
sg52
g53
sg23
S'2'
sg18
F39.352198425680399
sg33
g34
sg51
g11
sg20
S'2'
sg65
g36
(g77
S'\x00\x00\x00\x00\x00\x00\x00\x00'
tRp151
sg44
g45
sg40
g41
sg25
F0.48131091287359595
sS'trials.thisIndex'
p152
g36
(g80
S'U\x00\x00\x00'
tRp153
sg26
V5
sS'trials.thisRepN'
p154
I0
sg66
Vtoucan
p155
sg63
V../experiment_stimuli/bw_bc_bl/Living_Things/Birds/toucan_7.jpg
p156
sg21
F4.6503543206490576
sS'trials.thisTrialN'
p157
I6
sa(dp158
g31
g32
sg17
F46.275474290829152
sg24
I0
sg35
g39
sg14
F46.237290189601481
sg16
g36
(g70
S'\x01\x00\x00\x00'
tRp159
sg42
g43
sg46
g47
sg15
g72
sg22
F49.895889794453979
sg64
g148
sg62
g102
sg49
g50
sS'trials.thisN'
p160
I7
sg19
I1
sg27
g36
(g38
S'\x00\x00\x00\x00\x00\x00\x18@'
tRp161
sg52
g53
sg23
S'2'
sg18
F47.560069068334997
sg33
g34
sg51
g11
sg20
S'1'
sg65
g36
(g77
S'\x00\x00\x00\x00\x00\x00\x00\x00'
tRp162
sg44
g45
sg40
g41
sg25
F0.81199852237477899
sS'trials.thisIndex'
p163
g36
(g80
S'\x1a\x00\x00\x00'
tRp164
sg26
V5
sS'trials.thisRepN'
p165
I0
sg66
Vduck
p166
sg63
V../experiment_stimuli/bw_bc_bl/Living_Things/Birds/duck_26.jpg
p167
sg21
F2.3152698455378413
sS'trials.thisTrialN'
p168
I7
sa(dp169
g31
g32
sg17
F52.465109630487859
sg24
I0
sg35
g39
sg14
F52.440807162318379
sg16
g36
(g70
S'\x01\x00\x00\x00'
tRp170
sg42
g43
sg46
g47
sg15
g72
sg22
F54.646231943275779
sg64
g125
sg62
g102
sg49
g50
sS'trials.thisN'
p171
I8
sg19
I1
sg27
g36
(g38
S'\x00\x00\x00\x00\x00\x00\x1e@'
tRp172
sg52
g53
sg23
S'2'
sg18
F53.743532229680568
sg33
g34
sg51
g11
sg20
S'1'
sg65
g36
(g77
S'\x00\x00\x00\x00\x00\x00\x00\x00'
tRp173
sg44
g45
sg40
g41
sg25
F0.28082755906507373
sS'trials.thisIndex'
p174
g36
(g80
S'_\x00\x00\x00'
tRp175
sg26
V5
sS'trials.thisRepN'
p176
I0
sg66
Vzebra
p177
sg63
V../experiment_stimuli/bw_bc_bl/Living_Things/Animals/zebra_13.jpg
p178
sg21
F0.88214690797030926
sS'trials.thisTrialN'
p179
I8
sa(dp180
g31
g32
sg17
F56.695087421219796
sg24
I1
sg35
g39
sg14
F56.659975027665496
sg16
g36
(g70
S'\x02\x00\x00\x00'
tRp181
sg42
g43
sg46
g47
sg15
g88
sg22
F60.458902711514384
sg64
g125
sg62
g102
sg49
g50
sS'trials.thisN'
p182
I9
sg19
I1
sg27
g36
(g38
S'\x00\x00\x00\x00\x00\x00\x18@'
tRp183
sg52
g53
sg23
S'1'
sg18
F57.962721985764802
sg33
g34
sg51
g11
sg20
S'2'
sg65
g36
(g77
S'\x00\x00\x00\x00\x00\x00\x00\x00'
tRp184
sg44
g45
sg40
g41
sg25
F0.20067047979682684
sS'trials.thisIndex'
p185
g36
(g80
S'\x10\x00\x00\x00'
tRp186
sg26
V5
sS'trials.thisRepN'
p187
I0
sg66
Vcheetah
p188
sg63
V../experiment_stimuli/bw_bc_bl/Living_Things/Animals/cheetah_16.jpg
p189
sg21
F2.4756371271796525
sS'trials.thisTrialN'
p190
I9
sa(dp191
g31
g32
sg17
F62.410210583359003
sg24
I0
sg35
g39
sg14
F62.392463228665292
sg16
g36
(g70
S'\x02\x00\x00\x00'
tRp192
sg42
g43
sg46
g47
sg15
g88
sg22
F64.69811972277239
sg64
g101
sg62
g102
sg49
g50
sS'trials.thisN'
p193
I10
sg19
I1
sg27
g36
(g38
S'\x00\x00\x00\x00\x00\x00\x18@'
tRp194
sg52
g53
sg23
S'3'
sg18
F63.685174031648785
sg33
g34
sg51
g11
sg20
S'2'
sg65
g36
(g77
S'\x00\x00\x00\x00\x00\x00\x00\x00'
tRp195
sg44
g45
sg40
g41
sg25
F0.26078698085620999
sS'trials.thisIndex'
p196
g36
(g80
S'4\x00\x00\x00'
tRp197
sg26
V5
sS'trials.thisRepN'
p198
I0
sg66
Vmanatee
p199
sg63
V../experiment_stimuli/bw_bc_bl/Living_Things/Marine_creatures/manatee_15.jpg
p200
sg21
F0.99238458136096597
sS'trials.thisTrialN'
p201
I10
sa(dp202
g31
g32
sg17
F66.707395227160305
sg24
I0
sg35
g39
sg14
F66.691828526090831
sg16
g36
(g70
S'\x01\x00\x00\x00'
tRp203
sg42
g43
sg46
g47
sg15
g88
sg22
F69.057464556302875
sg64
VVehicles
p204
sg62
g74
sg49
g50
sS'trials.thisN'
p205
I11
sg19
I1
sg27
g36
(g38
S'\x00\x00\x00\x00\x00\x00\x1e@'
tRp206
sg52
g53
sg23
S'3'
sg18
F67.964494935236871
sg33
g34
sg51
g11
sg20
S'1'
sg65
g36
(g77
S'\x00\x00\x00\x00\x00\x00\x00\x00'
tRp207
sg44
g45
sg40
g41
sg25
F0.8620996531099081
sS'trials.thisIndex'
p208
g36
(g80
S'\x07\x00\x00\x00'
tRp209
sg26
V5
sS'trials.thisRepN'
p210
I0
sg66
Vboat
p211
sg63
V../experiment_stimuli/bw_bc_bl/Nonliving_Things/Vehicles/boat_19.jpg
p212
sg21
F1.0724111124873161
sS'trials.thisTrialN'
p213
I11
sa(dp214
g31
g32
sg17
F71.661109360866249
sg24
I1
sg35
g39
sg14
F71.652628891635686
sg16
g36
(g70
S'\x01\x00\x00\x00'
tRp215
sg42
g43
sg46
g47
sg15
g72
sg22
F73.707736483309418
sg64
g148
sg62
g102
sg49
g50
sS'trials.thisN'
p216
I12
sg19
I0
sg27
g36
(g38
S'\x00\x00\x00\x00\x00\x00\x18@'
tRp217
sg52
g53
sg23
S'1'
sg18
F72.895229044836015
sg33
g34
sg51
g11
sg20
S'2'
sg65
g36
(g77
S'\x00\x00\x00\x00\x00\x00\x00\x00'
tRp218
sg44
g45
sg40
g41
sg25
F0.64162582997232676
sS'trials.thisIndex'
p219
g36
(g80
S'<\x00\x00\x00'
tRp220
sg26
V5
sS'trials.thisRepN'
p221
I0
sg66
Vpelican
p222
sg63
V../experiment_stimuli/bw_bc_bl/Living_Things/Birds/pelican_7.jpg
p223
sg21
F0.79195704218000174
sS'trials.thisTrialN'
p224
I12
sa(dp225
g31
g32
sg17
F76.09735372569412
sg24
I0
sg35
g39
sg14
F76.082268523052335
sg16
g36
(g70
S'\x01\x00\x00\x00'
tRp226
sg42
g43
sg46
g47
sg15
g72
sg22
F77.956995378714055
sg64
g101
sg62
g102
sg49
g50
sS'trials.thisN'
p227
I13
sg19
I1
sg27
g36
(g38
S'\x00\x00\x00\x00\x00\x00\x18@'
tRp228
sg52
g53
sg23
S'2'
sg18
F77.364957564976066
sg33
g34
sg51
g11
sg20
S'1'
sg65
g36
(g77
S'\x00\x00\x00\x00\x00\x00\x00\x00'
tRp229
sg44
g45
sg40
g41
sg25
F0.31090116035193205
sS'trials.thisIndex'
p230
g36
(g80
S'\x15\x00\x00\x00'
tRp231
sg26
V5
sS'trials.thisRepN'
p232
I0
sg66
Vcrab
p233
sg63
V../experiment_stimuli/bw_bc_bl/Living_Things/Marine_creatures/crab_13.jpg
p234
sg21
F0.57148941047489643
sS'trials.thisTrialN'
p235
I13
sa(dp236
g31
g32
sg17
F80.032752003986388
sg24
I1
sg35
g39
sg14
F80.000798974651843
sg16
g36
(g70
S'\x01\x00\x00\x00'
tRp237
sg42
g43
sg46
g47
sg15
g88
sg22
F82.126221754122525
sg64
VFurniture
p238
sg62
g74
sg49
g50
sS'trials.thisN'
p239
I14
sg19
I1
sg27
g36
(g38
S'\x00\x00\x00\x00\x00\x00\x18@'
tRp240
sg52
g53
sg23
S'1'
sg18
F81.28349072765559
sg33
g34
sg51
g11
sg20
S'1'
sg65
g36
(g77
S'\x00\x00\x00\x00\x00\x00\x00\x00'
tRp241
sg44
g45
sg40
g41
sg25
F0.19064905354753137
sS'trials.thisIndex'
p242
g36
(g80
S'/\x00\x00\x00'
tRp243
sg26
V5
sS'trials.thisRepN'
p244
I0
sg66
Vlectern
p245
sg63
V../experiment_stimuli/bw_bc_bl/Nonliving_Things/Furniture/lectern_19.jpg
p246
sg21
F0.82217754889279604
sS'trials.thisTrialN'
p247
I14
sa(dp248
g31
g32
sg17
F84.060598619747907
sg24
I1
sg35
g39
sg14
F84.049632726237178
sg16
g36
(g70
S'\x02\x00\x00\x00'
tRp249
sg42
g43
sg46
g47
sg15
g88
sg22
F85.784048352390528
sg64
g148
sg62
g102
sg49
g50
sS'trials.thisN'
p250
I15
sg19
I0
sg27
g36
(g38
S'\x00\x00\x00\x00\x00\x00\x18@'
tRp251
sg52
g53
sg23
S'1'
sg18
F85.332306757103652
sg33
g34
sg51
g11
sg20
S'1'
sg65
g36
(g77
S'\x00\x00\x00\x00\x00\x00\x00\x00'
tRp252
sg44
g45
sg40
g41
sg25
F0.23071770556271076
sS'trials.thisIndex'
p253
g36
(g80
S'*\x00\x00\x00'
tRp254
sg26
V5
sS'trials.thisRepN'
p255
I0
sg66
Vhummingbird
p256
sg63
V../experiment_stimuli/bw_bc_bl/Living_Things/Birds/hummingbird_18.jpg
p257
sg21
F0.43116703443229198
sS'trials.thisTrialN'
p258
I15
sa(dp259
g31
g32
sg17
F87.759393112268299
sg24
I0
sg35
g39
sg14
F87.747663212008774
sg16
g36
(g70
S'\x02\x00\x00\x00'
tRp260
sg42
g43
sg46
g47
sg15
g72
sg22
F89.582299355883151
sg64
g89
sg62
g74
sg49
g50
sS'trials.thisN'
p261
I16
sg19
I0
sg27
g36
(g38
S'\x00\x00\x00\x00\x00\x00\x1a@'
tRp262
sg52
g53
sg23
S'2'
sg18
F89.06042790459469
sg33
g34
sg51
g11
sg20
S'1'
sg65
g36
(g77
S'\x00\x00\x00\x00\x00\x00\x00\x00'
tRp263
sg44
g45
sg40
g41
sg25
F0.50132346851751208
sS'trials.thisIndex'
p264
g36
(g80
S'\x12\x00\x00\x00'
tRp265
sg26
V5
sS'trials.thisRepN'
p266
I0
sg66
Vcoking-pot
p267
sg63
V../experiment_stimuli/bw_bc_bl/Nonliving_Things/Kitchen_Uten/coking-pot_8.jpg
p268
sg21
F0.50131771666929126
sS'trials.thisTrialN'
p269
I16
sa(dp270
g31
g32
sg17
F91.836304115131497
sg24
I0
sg35
g39
sg14
F91.81652574846521
sg16
g36
(g70
S'\x02\x00\x00\x00'
tRp271
sg42
g43
sg46
g47
sg15
g72
sg22
F94.472979451995343
sg64
g238
sg62
g74
sg49
g50
sS'trials.thisN'
p272
I17
sg19
I1
sg27
g36
(g38
S'\x00\x00\x00\x00\x00\x00\x1a@'
tRp273
sg52
g53
sg23
S'3'
sg18
F93.129282658919692
sg33
g34
sg51
g11
sg20
S'2'
sg65
g36
(g77
S'\x00\x00\x00\x00\x00\x00\x00\x00'
tRp274
sg44
g45
sg40
g41
sg25
F0.23072524741292
sS'trials.thisIndex'
p275
g36
(g80
S'\x05\x00\x00\x00'
tRp276
sg26
V5
sS'trials.thisRepN'
p277
I0
sg66
Vbed
p278
sg63
V../experiment_stimuli/bw_bc_bl/Nonliving_Things/Furniture/bed_7.jpg
p279
sg21
F1.3231274536810815
sS'trials.thisTrialN'
p280
I17
sa(dp281
g31
g32
sg17
F96.462655926588923
sg24
I0
sg35
g39
sg14
F96.436587849166244
sg16
g36
(g70
S'\x02\x00\x00\x00'
tRp282
sg42
g43
sg46
g47
sg15
g72
sg22
F98.501726994290948
sg64
g238
sg62
g74
sg49
g50
sS'trials.thisN'
p283
I18
sg19
I1
sg27
g36
(g38
S'\x00\x00\x00\x00\x00\x00\x18@'
tRp284
sg52
g53
sg23
S'2'
sg18
F97.729306994006038
sg33
g34
sg51
g11
sg20
S'2'
sg65
g36
(g77
S'\x00\x00\x00\x00\x00\x00\x00\x00'
tRp285
sg44
g45
sg40
g41
sg25
F0.20064656296744943
sS'trials.thisIndex'
p286
g36
(g80
S'.\x00\x00\x00'
tRp287
sg26
V5
sS'trials.thisRepN'
p288
I0
sg66
Vlamp
p289
sg63
V../experiment_stimuli/bw_bc_bl/Nonliving_Things/Furniture/lamp_1.jpg
p290
sg21
F0.75186616880819201
sS'trials.thisTrialN'
p291
I18
sa(dp292
g31
g32
sg17
F100.45522191002965
sg24
I1
sg35
g39
sg14
F100.4352895077318
sg16
g36
(g70
S'\x02\x00\x00\x00'
tRp293
sg42
g43
sg46
g47
sg15
g72
sg22
F102.66077423142269
sg64
VMusical_Inst
p294
sg62
g74
sg49
g50
sS'trials.thisN'
p295
I19
sg19
I1
sg27
g36
(g38
S'\x00\x00\x00\x00\x00\x00\x1a@'
tRp296
sg52
g53
sg23
S'1'
sg18
F101.7079633413814
sg33
g34
sg51
g11
sg20
S'2'
sg65
g36
(g77
S'\x00\x00\x00\x00\x00\x00\x00\x00'
tRp297
sg44
g45
sg40
g41
sg25
F0.2507662046700716
sS'trials.thisIndex'
p298
g36
(g80
S'Y\x00\x00\x00'
tRp299
sg26
V5
sS'trials.thisRepN'
p300
I0
sg66
Vtuba
p301
sg63
V../experiment_stimuli/bw_bc_bl/Nonliving_Things/Musical_Inst/tuba_16.jpg
p302
sg21
F0.93225863296538591
sS'trials.thisTrialN'
p303
I19
sa(dp304
g31
g32
sg17
F104.67441444052383
sg24
I1
sg35
g39
sg14
F104.64445759728551
sg16
g36
(g70
S'\x01\x00\x00\x00'
tRp305
sg42
g43
sg46
g47
sg15
g72
sg22
F106.48910438502207
sg64
g125
sg62
g102
sg49
g50
sS'trials.thisN'
p306
I20
sg19
I1
sg27
g36
(g38
S'\x00\x00\x00\x00\x00\x00\x1a@'
tRp307
sg52
g53
sg23
S'1'
sg18
F105.95721678622067
sg33
g34
sg51
g11
sg20
S'1'
sg65
g36
(g77
S'\x00\x00\x00\x00\x00\x00\x00\x00'
tRp308
sg44
g45
sg40
g41
sg25
F0.28082739701494575
sS'trials.thisIndex'
p309
g36
(g80
S'\x14\x00\x00\x00'
tRp310
sg26
V5
sS'trials.thisRepN'
p311
I0
sg66
Vcow
p312
sg63
V../experiment_stimuli/bw_bc_bl/Living_Things/Animals/cow_11.jpg
p313
sg21
F0.50131513411179185
sS'trials.thisTrialN'
p314
I20
sa(dp315
g31
g32
sg17
F108.52617258345708
sg24
I0
sg35
g39
sg14
F108.50286046182737
sg16
g36
(g70
S'\x02\x00\x00\x00'
tRp316
sg42
g43
sg46
g47
sg15
g72
sg22
F111.7205056110397
sg64
g294
sg62
g74
sg49
g50
sS'trials.thisN'
p317
I21
sg19
I1
sg27
g36
(g38
S'\x00\x00\x00\x00\x00\x00\x18@'
tRp318
sg52
g53
sg23
S'3'
sg18
F109.8356628944166
sg33
g34
sg51
g11
sg20
S'2'
sg65
g36
(g77
S'\x00\x00\x00\x00\x00\x00\x00\x00'
tRp319
sg44
g45
sg40
g41
sg25
F0.44118323130533099
sS'trials.thisIndex'
p320
g36
(g80
S'\x19\x00\x00\x00'
tRp321
sg26
V5
sS'trials.thisRepN'
p322
I0
sg66
Vdrum
p323
sg63
V../experiment_stimuli/bw_bc_bl/Nonliving_Things/Musical_Inst/drum_5.jpg
p324
sg21
F1.8642876972444355
sS'trials.thisTrialN'
p325
I21
sa(dp326
g31
g32
sg17
F113.9072341718711
sg24
I1
sg35
g39
sg14
F113.89459447329864
sg16
g36
(g70
S'\x02\x00\x00\x00'
tRp327
sg42
g43
sg46
g47
sg15
g88
sg22
F116.03992200549692
sg64
g148
sg62
g102
sg49
g50
sS'trials.thisN'
p328
I22
sg19
I0
sg27
g36
(g38
S'\x00\x00\x00\x00\x00\x00\x18@'
tRp329
sg52
g53
sg23
S'1'
sg18
F115.18731148261577
sg33
g34
sg51
g11
sg20
S'1'
sg65
g36
(g77
S'\x00\x00\x00\x00\x00\x00\x00\x00'
tRp330
sg44
g45
sg40
g41
sg25
F0.23071873234584928
sS'trials.thisIndex'
p331
g36
(g80
S'3\x00\x00\x00'
tRp332
sg26
V5
sS'trials.thisRepN'
p333
I0
sg66
Vmagpie
p334
sg63
V../experiment_stimuli/bw_bc_bl/Living_Things/Birds/magpie_11.jpg
p335
sg21
F0.83204434858635068
sS'trials.thisTrialN'
p336
I22
sa(dp337
g31
g32
sg17
F118.02383815031499
sg24
I0
sg35
g39
sg14
F118.00354881957173
sg16
g36
(g70
S'\x02\x00\x00\x00'
tRp338
sg42
g43
sg46
g47
sg15
g72
sg22
F120.5998364854604
sg64
g238
sg62
g74
sg49
g50
sS'trials.thisN'
p339
I23
sg19
I1
sg27
g36
(g38
S'\x00\x00\x00\x00\x00\x00\x18@'
tRp340
sg52
g53
sg23
S'2'
sg18
F119.3363561052829
sg33
g34
sg51
g11
sg20
S'2'
sg65
g36
(g77
S'\x00\x00\x00\x00\x00\x00\x00\x00'
tRp341
sg44
g45
sg40
g41
sg25
F0.82201167428866029
sS'trials.thisIndex'
p342
g36
(g80
S'\x08\x00\x00\x00'
tRp343
sg26
V5
sS'trials.thisRepN'
p344
I0
sg66
Vbookcase
p345
sg63
V../experiment_stimuli/bw_bc_bl/Nonliving_Things/Furniture/bookcase_9.jpg
p346
sg21
F1.2429300444200635
sS'trials.thisTrialN'
p347
I23
sa(dp348
g31
g32
sg17
F123.16681547276676
sg24
I0
sg35
g39
sg14
F123.15475933160633
sg16
g36
(g70
S'\x02\x00\x00\x00'
tRp349
sg42
g43
sg46
g47
sg15
g88
sg22
F126.10183693980798
sg64
g125
sg62
g102
sg49
g50
sS'trials.thisN'
p350
I24
sg19
I1
sg27
g36
(g38
S'\x00\x00\x00\x00\x00\x00\x18@'
tRp351
sg52
g53
sg23
S'2'
sg18
F124.46752134058625
sg33
g34
sg51
g11
sg20
S'2'
sg65
g36
(g77
S'\x00\x00\x00\x00\x00\x00\x00\x00'
tRp352
sg44
g45
sg40
g41
sg25
F1.3231023484840989
sS'trials.thisIndex'
p353
g36
(g80
S'T\x00\x00\x00'
tRp354
sg26
V5
sS'trials.thisRepN'
p355
I0
sg66
Vtiger
p356
sg63
V../experiment_stimuli/bw_bc_bl/Living_Things/Animals/tiger_19.jpg
p357
sg21
F1.6137510915286839
sS'trials.thisTrialN'
p358
I24
sa(dp359
g31
g32
sg17
F129.18460092507303
sg24
I0
sg35
g39
sg14
F129.15783003997058
sg16
g36
(g70
S'\x02\x00\x00\x00'
tRp360
sg42
g43
sg46
g47
sg15
g88
sg22
F131.19291716208681
sg64
g148
sg62
g102
sg49
g50
sS'trials.thisN'
p361
I25
sg19
I1
sg27
g36
(g38
S'\x00\x00\x00\x00\x00\x00\x18@'
tRp362
sg52
g53
sg23
S'2'
sg18
F130.48061155015603
sg33
g34
sg51
g11
sg20
S'2'
sg65
g36
(g77
S'\x00\x00\x00\x00\x00\x00\x00\x00'
tRp363
sg44
g45
sg40
g41
sg25
F0.18061435362324119
sS'trials.thisIndex'
p364
g36
(g80
S'O\x00\x00\x00'
tRp365
sg26
V5
sS'trials.thisRepN'
p366
I0
sg66
Vsparrow
p367
sg63
V../experiment_stimuli/bw_bc_bl/Living_Things/Birds/sparrow_14.jpg
p368
sg21
F0.69173628790304065
sS'trials.thisTrialN'
p369
I25
sa(dp370
g31
g32
sg17
F133.12849748833105
sg24
I1
sg35
g39
sg14
F133.10642849607393
sg16
g36
(g70
S'\x01\x00\x00\x00'
tRp371
sg42
g43
sg46
g47
sg15
g72
sg22
F137.30607919162139
sg64
g148
sg62
g102
sg49
g50
sS'trials.thisN'
p372
I26
sg19
I1
sg27
g36
(g38
S'\x00\x00\x00\x00\x00\x00\x18@'
tRp373
sg52
g53
sg23
S'1'
sg18
F134.40916586387902
sg33
g34
sg51
g11
sg20
S'1'
sg65
g36
(g77
S'\x00\x00\x00\x00\x00\x00\x00\x00'
tRp374
sg44
g45
sg40
g41
sg25
F0.19063235865905881
sS'trials.thisIndex'
p375
g36
(g80
S'C\x00\x00\x00'
tRp376
sg26
V5
sS'trials.thisRepN'
p377
I0
sg66
Vraven
p378
sg63
V../experiment_stimuli/bw_bc_bl/Living_Things/Birds/raven_6.jpg
p379
sg21
F2.866305592469871
sS'trials.thisTrialN'
p380
I26
sa(dp381
g31
g32
sg17
F139.24849691800773
sg24
I1
sg35
g39
sg14
F139.22976126195863
sg16
g36
(g70
S'\x01\x00\x00\x00'
tRp382
sg42
g43
sg46
g47
sg15
g88
sg22
F141.17465897323564
sg64
VTools
p383
sg62
g74
sg49
g50
sS'trials.thisN'
p384
I27
sg19
I1
sg27
g36
(g38
S'\x00\x00\x00\x00\x00\x00\x18@'
tRp385
sg52
g53
sg23
S'1'
sg18
F140.55254190322012
sg33
g34
sg51
g11
sg20
S'1'
sg65
g36
(g77
S'\x00\x00\x00\x00\x00\x00\x00\x00'
tRp386
sg44
g45
sg40
g41
sg25
F0.26078512752428651
sS'trials.thisIndex'
p387
g36
(g80
S'\x03\x00\x00\x00'
tRp388
sg26
V5
sS'trials.thisRepN'
p389
I0
sg66
Vaxe
p390
sg63
V../experiment_stimuli/bw_bc_bl/Nonliving_Things/Tools/axe_1.jpg
p391
sg21
F0.60156494099646807
sS'trials.thisTrialN'
p392
I27
sa(dp393
g31
g32
sg17
F143.19345029257238
sg24
I1
sg35
g39
sg14
F143.16835263371468
sg16
g36
(g70
S'\x02\x00\x00\x00'
tRp394
sg42
g43
sg46
g47
sg15
g72
sg22
F145.49388451175764
sg64
g73
sg62
g74
sg49
g50
sS'trials.thisN'
p395
I28
sg19
I1
sg27
g36
(g38
S'\x00\x00\x00\x00\x00\x00\x1e@'
tRp396
sg52
g53
sg23
S'1'
sg18
F144.53120341617614
sg33
g34
sg51
g11
sg20
S'2'
sg65
g36
(g77
S'\x00\x00\x00\x00\x00\x00\x00\x00'
tRp397
sg44
g45
sg40
g41
sg25
F0.21067793294787407
sS'trials.thisIndex'
p398
g36
(g80
S'\x0c\x00\x00\x00'
tRp399
sg26
V5
sS'trials.thisRepN'
p400
I0
sg66
Vcastle
p401
sg63
V../experiment_stimuli/bw_bc_bl/Nonliving_Things/Buildings/castle_5.jpg
p402
sg21
F0.94211913971230388
sS'trials.thisTrialN'
p403
I28
sa(dp404
g31
g32
sg17
F147.45135462936014
sg24
I1
sg35
g39
sg14
F147.43763015279546
sg16
g36
(g70
S'\x02\x00\x00\x00'
tRp405
sg42
g43
sg46
g47
sg15
g72
sg22
F150.62522483896464
sg64
g294
sg62
g74
sg49
g50
sS'trials.thisN'
p406
I29
sg19
I0
sg27
g36
(g38
S'\x00\x00\x00\x00\x00\x00\x1a@'
tRp407
sg52
g53
sg23
S'1'
sg18
F148.81052932748571
sg33
g34
sg51
g11
sg20
S'1'
sg65
g36
(g77
S'\x00\x00\x00\x00\x00\x00\x00\x00'
tRp408
sg44
g45
sg40
g41
sg25
F0.25076228007674217
sS'trials.thisIndex'
p409
g36
(g80
S'H\x00\x00\x00'
tRp410
sg26
V5
sS'trials.thisRepN'
p411
I0
sg66
Vsaxophone
p412
sg63
V../experiment_stimuli/bw_bc_bl/Nonliving_Things/Musical_Inst/saxophone_7.jpg
p413
sg21
F1.7941248118877411
sS'trials.thisTrialN'
p414
I29
sa(dp415
g31
g32
sg17
F152.62256244570017
sg24
I1
sg35
g39
sg14
F152.60889130318537
sg16
g36
(g70
S'\x02\x00\x00\x00'
tRp416
sg42
g43
sg46
g47
sg15
g88
sg22
F159.94551696581766
sg64
VInsects
p417
sg62
g102
sg49
g50
sS'trials.thisN'
p418
I30
sg19
I0
sg27
g36
(g38
S'\x00\x00\x00\x00\x00\x00\x18@'
tRp419
sg52
g53
sg23
S'1'
sg18
F154.0018254769966
sg33
g34
sg51
g11
sg20
S'1'
sg65
g36
(g77
S'\x00\x00\x00\x00\x00\x00\x00\x00'
tRp420
sg44
g45
sg40
g41
sg25
F0.27081412123516202
sS'trials.thisIndex'
p421
g36
(g80
S'-\x00\x00\x00'
tRp422
sg26
V5
sS'trials.thisRepN'
p423
I0
sg66
Vladybird
p424
sg63
V../experiment_stimuli/bw_bc_bl/Living_Things/Insects/ladybird_21.jpg
p425
sg21
F5.923125596717
sS'trials.thisTrialN'
p426
I30
sa(dp427
g31
g32
sg17
F161.9782491880469
sg24
I1
sg35
g39
sg14
F161.94925007084385
sg16
g36
(g70
S'\x01\x00\x00\x00'
tRp428
sg42
g43
sg46
g47
sg15
g88
sg22
F164.09453700529411
sg64
g73
sg62
g74
sg49
g50
sS'trials.thisN'
p429
I31
sg19
I1
sg27
g36
(g38
S'\x00\x00\x00\x00\x00\x00\x18@'
tRp430
sg52
g53
sg23
S'1'
sg18
F163.3822525171563
sg33
g34
sg51
g11
sg20
S'1'
sg65
g36
(g77
S'\x00\x00\x00\x00\x00\x00\x00\x00'
tRp431
sg44
g45
sg40
g41
sg25
F0.78192276693880558
sS'trials.thisIndex'
p432
g36
(g80
S'5\x00\x00\x00'
tRp433
sg26
V5
sS'trials.thisRepN'
p434
I0
sg66
Vmill
p435
sg63
V../experiment_stimuli/bw_bc_bl/Nonliving_Things/Buildings/mill_25.jpg
p436
sg21
F0.69174125418066978
sS'trials.thisTrialN'
p437
I31
sa(dp438
g31
g32
sg17
F166.62257658084854
sg24
I1
sg35
g39
sg14
F166.60938085056841
sg16
g36
(g70
S'\x02\x00\x00\x00'
tRp439
sg42
g43
sg46
g47
sg15
g88
sg22
F168.78474490530789
sg64
g101
sg62
g102
sg49
g50
sS'trials.thisN'
p440
I32
sg19
I0
sg27
g36
(g38
S'\x00\x00\x00\x00\x00\x00\x1c@'
tRp441
sg52
g53
sg23
S'1'
sg18
F168.05242435447872
sg33
g34
sg51
g11
sg20
S'1'
sg65
g36
(g77
S'\x00\x00\x00\x00\x00\x00\x00\x00'
tRp442
sg44
g45
sg40
g41
sg25
F2.4655903554521501
sS'trials.thisIndex'
p443
g36
(g80
S'A\x00\x00\x00'
tRp444
sg26
V5
sS'trials.thisRepN'
p445
I0
sg66
Vpomfret
p446
sg63
V../experiment_stimuli/bw_bc_bl/Living_Things/Marine_creatures/pomfret_3.jpg
p447
sg21
F0.71177580580115318
sS'trials.thisTrialN'
p448
I32
sa(dp449
g31
g32
sg17
F172.99694723309949
sg24
I0
sg35
g39
sg14
F172.98325606435537
sg16
g36
(g70
S'\x02\x00\x00\x00'
tRp450
sg42
g43
sg46
g47
sg15
g72
sg22
F175.80002445587888
sg64
g204
sg62
g74
sg49
g50
sS'trials.thisN'
p451
I33
sg19
I1
sg27
g36
(g38
S'\x00\x00\x00\x00\x00\x00\x1a@'
tRp452
sg52
g53
sg23
S'3'
sg18
F174.46638467907906
sg33
g34
sg51
g11
sg20
S'2'
sg65
g36
(g77
S'\x00\x00\x00\x00\x00\x00\x00\x00'
tRp453
sg44
g45
sg40
g41
sg25
F0.29084851872175932
sS'trials.thisIndex'
p454
g36
(g80
S'\x0b\x00\x00\x00'
tRp455
sg26
V5
sS'trials.thisRepN'
p456
I0
sg66
Vcar
p457
sg63
V../experiment_stimuli/bw_bc_bl/Nonliving_Things/Vehicles/car_6.jpg
p458
sg21
F1.3130789599381387
sS'trials.thisTrialN'
p459
I33
sa(dp460
g31
g32
sg17
F177.84196947002783
sg24
I0
sg35
g39
sg14
F177.82379710907117
sg16
g36
(g70
S'\x01\x00\x00\x00'
tRp461
sg42
g43
sg46
g47
sg15
g72
sg22
F181.19177424535155
sg64
g148
sg62
g102
sg49
g50
sS'trials.thisN'
p462
I34
sg19
I1
sg27
g36
(g38
S'\x00\x00\x00\x00\x00\x00\x18@'
tRp463
sg52
g53
sg23
S'3'
sg18
F179.28688004054129
sg33
g34
sg51
g11
sg20
S'1'
sg65
g36
(g77
S'\x00\x00\x00\x00\x00\x00\x00\x00'
tRp464
sg44
g45
sg40
g41
sg25
F2.7161401188932359
sS'trials.thisIndex'
p465
g36
(g80
S'\x04\x00\x00\x00'
tRp466
sg26
V5
sS'trials.thisRepN'
p467
I0
sg66
Vbarn-owl
p468
sg63
V../experiment_stimuli/bw_bc_bl/Living_Things/Birds/barn-owl_19.jpg
p469
sg21
F1.8843283955939114
sS'trials.thisTrialN'
p470
I34
sa(dp471
g31
g32
sg17
F185.66598852165043
sg24
I0
sg35
g39
sg14
F185.6408120742999
sg16
g36
(g70
S'\x02\x00\x00\x00'
tRp472
sg42
g43
sg46
g47
sg15
g72
sg22
F187.75606152694672
sg64
g204
sg62
g74
sg49
g50
sS'trials.thisN'
p473
I35
sg19
I1
sg27
g36
(g38
S'\x00\x00\x00\x00\x00\x00\x18@'
tRp474
sg52
g53
sg23
S'3'
sg18
F187.08385663060471
sg33
g34
sg51
g11
sg20
S'2'
sg65
g36
(g77
S'\x00\x00\x00\x00\x00\x00\x00\x00'
tRp475
sg44
g45
sg40
g41
sg25
F0.21068794373422861
sS'trials.thisIndex'
p476
g36
(g80
S'V\x00\x00\x00'
tRp477
sg26
V5
sS'trials.thisRepN'
p478
I0
sg66
Vtractor
p479
sg63
V../experiment_stimuli/bw_bc_bl/Nonliving_Things/Vehicles/tractor_26.jpg
p480
sg21
F0.65164315840229392
sS'trials.thisTrialN'
p481
I35
sa(dp482
g31
g32
sg17
F189.71265781903639
sg24
I1
sg35
g39
sg14
F189.699657285586
sg16
g36
(g70
S'\x02\x00\x00\x00'
tRp483
sg42
g43
sg46
g47
sg15
g72
sg22
F204.4123179805465
sg64
g204
sg62
g74
sg49
g50
sS'trials.thisN'
p484
I36
sg19
I1
sg27
g36
(g38
S'\x00\x00\x00\x00\x00\x00\x1e@'
tRp485
sg52
g53
sg23
S'1'
sg18
F191.09258503466845
sg33
g34
sg51
g11
sg20
S'2'
sg65
g36
(g77
S'\x00\x00\x00\x00\x00\x00\x00\x00'
tRp486
sg44
g45
sg40
g41
sg25
F0.71177647542208433
sS'trials.thisIndex'
p487
g36
(g80
S'6\x00\x00\x00'
tRp488
sg26
V5
sS'trials.thisRepN'
p489
I0
sg66
Vmotorbike
p490
sg63
V../experiment_stimuli/bw_bc_bl/Nonliving_Things/Vehicles/motorbike_6.jpg
p491
sg21
F13.299188125412911
sS'trials.thisTrialN'
p492
I36
sa(dp493
g31
g32
sg17
F206.87275798851624
sg24
I1
sg35
g39
sg14
F206.85701337223873
sg16
g36
(g70
S'\x02\x00\x00\x00'
tRp494
sg42
g43
sg46
g47
sg15
g88
sg22
F211.11691943509504
sg64
g125
sg62
g102
sg49
g50
sS'trials.thisN'
p495
I37
sg19
I1
sg27
g36
(g38
S'\x00\x00\x00\x00\x00\x00 @'
tRp496
sg52
g53
sg23
S'1'
sg18
F208.26999490195885
sg33
g34
sg51
g11
sg20
S'2'
sg65
g36
(g77
S'\x00\x00\x00\x00\x00\x00\x00\x00'
tRp497
sg44
g45
sg40
g41
sg25
F0.49129133578389883
sS'trials.thisIndex'
p498
g36
(g80
S'\x1b\x00\x00\x00'
tRp499
sg26
V5
sS'trials.thisRepN'
p500
I0
sg66
Velephant
p501
sg63
V../experiment_stimuli/bw_bc_bl/Living_Things/Animals/elephant_19.jpg
p502
sg21
F2.8263726751320064
sS'trials.thisTrialN'
p503
I37
sa(dp504
g31
g32
sg17
F213.35291627934203
sg24
I1
sg35
g39
sg14
F213.34113774774596
sg16
g36
(g70
S'\x02\x00\x00\x00'
tRp505
sg42
g43
sg46
g47
sg15
g72
sg22
F222.70215613208711
sg64
g238
sg62
g74
sg49
g50
sS'trials.thisN'
p506
I38
sg19
I0
sg27
g36
(g38
S'\x00\x00\x00\x00\x00\x00\x18@'
tRp507
sg52
g53
sg23
S'1'
sg18
F214.75410638283938
sg33
g34
sg51
g11
sg20
S'1'
sg65
g36
(g77
S'\x00\x00\x00\x00\x00\x00\x00\x00'
tRp508
sg44
g45
sg40
g41
sg25
F0.40115171391516924
sS'trials.thisIndex'
p509
g36
(g80
S'\x00\x00\x00\x00'
tRp510
sg26
V5
sS'trials.thisRepN'
p511
I0
sg66
VChest-of-drawers
p512
sg63
V../experiment_stimuli/bw_bc_bl/Nonliving_Things/Furniture/Chest-of-drawers_22.jpg
p513
sg21
F7.9274914059787989
sS'trials.thisTrialN'
p514
I38
sa(dp515
g31
g32
sg17
F224.85647219140083
sg24
I1
sg35
g39
sg14
F224.83618217986077
sg16
g36
(g70
S'\x02\x00\x00\x00'
tRp516
sg42
g43
sg46
g47
sg15
g88
sg22
F227.22198909893632
sg64
g148
sg62
g102
sg49
g50
sS'trials.thisN'
p517
I39
sg19
I0
sg27
g36
(g38
S'\x00\x00\x00\x00\x00\x00\x1a@'
tRp518
sg52
g53
sg23
S'1'
sg18
F226.27920160535723
sg33
g34
sg51
g11
sg20
S'1'
sg65
g36
(g77
S'\x00\x00\x00\x00\x00\x00\x00\x00'
tRp519
sg44
g45
sg40
g41
sg25
F0.24074645200744271
sS'trials.thisIndex'
p520
g36
(g80
S'!\x00\x00\x00'
tRp521
sg26
V5
sS'trials.thisRepN'
p522
I0
sg66
Vgoldfinch
p523
sg63
V../experiment_stimuli/bw_bc_bl/Living_Things/Birds/goldfinch_2.jpg
p524
sg21
F0.92223986890166998
sS'trials.thisTrialN'
p525
I39
sa(dp526
g31
g32
sg17
F229.2238082815893
sg24
I1
sg35
g39
sg14
F229.19565371517092
sg16
g36
(g70
S'\x01\x00\x00\x00'
tRp527
sg42
g43
sg46
g47
sg15
g88
sg22
F231.72181761916727
sg64
g73
sg62
g74
sg49
g50
sS'trials.thisN'
p528
I40
sg19
I1
sg27
g36
(g38
S'\x00\x00\x00\x00\x00\x00\x18@'
tRp529
sg52
g53
sg23
S'1'
sg18
F230.65873918076977
sg33
g34
sg51
g11
sg20
S'1'
sg65
g36
(g77
S'\x00\x00\x00\x00\x00\x00\x00\x00'
tRp530
sg44
g45
sg40
g41
sg25
F0.21069575566798449
sS'trials.thisIndex'
p531
g36
(g80
S':\x00\x00\x00'
tRp532
sg26
V5
sS'trials.thisRepN'
p533
I0
sg66
Vpalace
p534
sg63
V../experiment_stimuli/bw_bc_bl/Nonliving_Things/Buildings/palace_17.jpg
p535
sg21
F1.0424947119317949
sS'trials.thisTrialN'
p536
I40
sa(dp537
g31
g32
sg17
F233.68179892003536
sg24
I1
sg35
g39
sg14
F233.66539424285293
sg16
g36
(g70
S'\x01\x00\x00\x00'
tRp538
sg42
g43
sg46
g47
sg15
g72
sg22
F236.97321724705398
sg64
g125
sg62
g102
sg49
g50
sS'trials.thisN'
p539
I41
sg19
I1
sg27
g36
(g38
S'\x00\x00\x00\x00\x00\x00\x18@'
tRp540
sg52
g53
sg23
S'1'
sg18
F235.14852053392678
sg33
g34
sg51
g11
sg20
S'1'
sg65
g36
(g77
S'\x00\x00\x00\x00\x00\x00\x00\x00'
tRp541
sg44
g45
sg40
g41
sg25
F0.23072059312835336
sS'trials.thisIndex'
p542
g36
(g80
S'Z\x00\x00\x00'
tRp543
sg26
V5
sS'trials.thisRepN'
p544
I0
sg66
Vturtle
p545
sg63
V../experiment_stimuli/bw_bc_bl/Living_Things/Animals/turtle_14.jpg
p546
sg21
F1.8041534069925547
sS'trials.thisTrialN'
p547
I41
sa(dp548
g31
g32
sg17
F238.97008728701621
sg24
I1
sg35
g39
sg14
F238.93686660612002
sg16
g36
(g70
S'\x02\x00\x00\x00'
tRp549
sg42
g43
sg46
g47
sg15
g72
sg22
F243.09657222731039
sg64
g294
sg62
g74
sg49
g50
sS'trials.thisN'
p550
I42
sg19
I0
sg27
g36
(g38
S'\x00\x00\x00\x00\x00\x00\x18@'
tRp551
sg52
g53
sg23
S'1'
sg18
F240.44121707556769
sg33
g34
sg51
g11
sg20
S'1'
sg65
g36
(g77
S'\x00\x00\x00\x00\x00\x00\x00\x00'
tRp552
sg44
g45
sg40
g41
sg25
F0.20067623537033796
sS'trials.thisIndex'
p553
g36
(g80
S'X\x00\x00\x00'
tRp554
sg26
V5
sS'trials.thisRepN'
p555
I0
sg66
Vtrumpet
p556
sg63
V../experiment_stimuli/bw_bc_bl/Nonliving_Things/Musical_Inst/trumpet_0.jpg
p557
sg21
F2.6259425384923816
sS'trials.thisTrialN'
p558
I42
sa(dp559
g31
g32
sg17
F245.05663753440604
sg24
I0
sg35
g39
sg14
F245.03013091301546
sg16
g36
(g70
S'\x02\x00\x00\x00'
tRp560
sg42
g43
sg46
g47
sg15
g88
sg22
F247.67652541259304
sg64
g125
sg62
g102
sg49
g50
sS'trials.thisN'
p561
I43
sg19
I1
sg27
g36
(g38
S'\x00\x00\x00\x00\x00\x00\x18@'
tRp562
sg52
g53
sg23
S'2'
sg18
F246.56336880521849
sg33
g34
sg51
g11
sg20
S'2'
sg65
g36
(g77
S'\x00\x00\x00\x00\x00\x00\x00\x00'
tRp563
sg44
g45
sg40
g41
sg25
F0.060341870877891779
sS'trials.thisIndex'
p564
g36
(g80
S' \x00\x00\x00'
tRp565
sg26
V5
sS'trials.thisRepN'
p566
I0
sg66
Vgiraffe
p567
sg63
V../experiment_stimuli/bw_bc_bl/Living_Things/Animals/giraffe_19.jpg
p568
sg21
F1.0926070460118353
sS'trials.thisTrialN'
p569
I43
sa(dp570
g31
g32
sg17
F249.49177158391103
sg24
I0
sg35
g39
sg14
F249.46980482386425
sg16
g36
(g70
S'\x02\x00\x00\x00'
tRp571
sg42
g43
sg46
g47
sg15
g88
sg22
F251.61510726204142
sg64
g125
sg62
g102
sg49
g50
sS'trials.thisN'
p572
I44
sg19
I1
sg27
g36
(g38
S'\x00\x00\x00\x00\x00\x00\x18@'
tRp573
sg52
g53
sg23
S'3'
sg18
F250.98299596924335
sg33
g34
sg51
g11
sg20
S'2'
sg65
g36
(g77
S'\x00\x00\x00\x00\x00\x00\x00\x00'
tRp574
sg44
g45
sg40
g41
sg25
F0.21068743616342545
sS'trials.thisIndex'
p575
g36
(g80
S'(\x00\x00\x00'
tRp576
sg26
V5
sS'trials.thisRepN'
p577
I0
sg66
Vhorse
p578
sg63
V../experiment_stimuli/bw_bc_bl/Living_Things/Animals/horse_22.jpg
p579
sg21
F0.61156113818287849
sS'trials.thisTrialN'
p580
I44
sa(dp581
g31
g32
sg17
F253.57192878099158
sg24
I0
sg35
g39
sg14
F253.55870179925114
sg16
g36
(g70
S'\x01\x00\x00\x00'
tRp582
sg42
g43
sg46
g47
sg15
g88
sg22
F257.28746837563813
sg64
g294
sg62
g74
sg49
g50
sS'trials.thisN'
p583
I45
sg19
I1
sg27
g36
(g38
S'\x00\x00\x00\x00\x00\x00\x18@'
tRp584
sg52
g53
sg23
S'3'
sg18
F255.04183139884844
sg33
g34
sg51
g11
sg20
S'1'
sg65
g36
(g77
S'\x00\x00\x00\x00\x00\x00\x00\x00'
tRp585
sg44
g45
sg40
g41
sg25
F0.35100550809875131
sS'trials.thisIndex'
p586
g36
(g80
S'>\x00\x00\x00'
tRp587
sg26
V5
sS'trials.thisRepN'
p588
I0
sg66
Vpiano
p589
sg63
V../experiment_stimuli/bw_bc_bl/Nonliving_Things/Musical_Inst/piano__14.jpg
p590
sg21
F2.2250691265799105
sS'trials.thisTrialN'
p591
I45
sa(dp592
g31
g32
sg17
F259.39043055102229
sg24
I1
sg35
g39
sg14
F259.3713601315394
sg16
g36
(g70
S'\x02\x00\x00\x00'
tRp593
sg42
g43
sg46
g47
sg15
g88
sg22
F261.82736165355891
sg64
g148
sg62
g102
sg49
g50
sS'trials.thisN'
p594
I46
sg19
I1
sg27
g36
(g38
S'\x00\x00\x00\x00\x00\x00\x1c@'
tRp595
sg52
g53
sg23
S'1'
sg18
F260.83445253642276
sg33
g34
sg51
g11
sg20
S'2'
sg65
g36
(g77
S'\x00\x00\x00\x00\x00\x00\x00\x00'
tRp596
sg44
g45
sg40
g41
sg25
F0.39106963761150837
sS'trials.thisIndex'
p597
g36
(g80
S'8\x00\x00\x00'
tRp598
sg26
V5
sS'trials.thisRepN'
p599
I0
sg66
Vostrich
p600
sg63
V../experiment_stimuli/bw_bc_bl/Living_Things/Birds/ostrich_5.jpg
p601
sg21
F0.97235548077151179
sS'trials.thisTrialN'
p602
I46
sa(dp603
g31
g32
sg17
F263.97600716119632
sg24
I0
sg35
g39
sg14
F263.95132952416316
sg16
g36
(g70
S'\x01\x00\x00\x00'
tRp604
sg42
g43
sg46
g47
sg15
g88
sg22
F269.9550596345216
sg64
g89
sg62
g74
sg49
g50
sS'trials.thisN'
p605
I47
sg19
I1
sg27
g36
(g38
S'\x00\x00\x00\x00\x00\x00\x1a@'
tRp606
sg52
g53
sg23
S'3'
sg18
F265.43445953354239
sg33
g34
sg51
g11
sg20
S'1'
sg65
g36
(g77
S'\x00\x00\x00\x00\x00\x00\x00\x00'
tRp607
sg44
g45
sg40
g41
sg25
F0.28083581058308482
sS'trials.thisIndex'
p608
g36
(g80
S'M\x00\x00\x00'
tRp609
sg26
V5
sS'trials.thisRepN'
p610
I0
sg66
Vsmall-saucepan
p611
sg63
V../experiment_stimuli/bw_bc_bl/Nonliving_Things/Kitchen_Uten/small-saucepan_24.jpg
p612
sg21
F4.500022969674319
sS'trials.thisTrialN'
p613
I47
sa(dp614
g31
g32
sg17
F271.98603875609115
sg24
I0
sg35
g39
sg14
F271.96878523798659
sg16
g36
(g70
S'\x01\x00\x00\x00'
tRp615
sg42
g43
sg46
g47
sg15
g72
sg22
F277.3110805246979
sg64
g148
sg62
g102
sg49
g50
sS'trials.thisN'
p616
I48
sg19
I0
sg27
g36
(g38
S'\x00\x00\x00\x00\x00\x00\x18@'
tRp617
sg52
g53
sg23
S'2'
sg18
F273.42185113439336
sg33
g34
sg51
g11
sg20
S'2'
sg65
g36
(g77
S'\x00\x00\x00\x00\x00\x00\x00\x00'
tRp618
sg44
g45
sg40
g41
sg25
F0.48129140585660934
sS'trials.thisIndex'
p619
g36
(g80
S';\x00\x00\x00'
tRp620
sg26
V5
sS'trials.thisRepN'
p621
I0
sg66
Vpartridge
p622
sg63
V../experiment_stimuli/bw_bc_bl/Living_Things/Birds/partridge_7.jpg
p623
sg21
F3.8686764123849571
sS'trials.thisTrialN'
p624
I48
sa(dp625
g31
g32
sg17
F279.55378777021542
sg24
I1
sg35
g39
sg14
F279.52525737369433
sg16
g36
(g70
S'\x02\x00\x00\x00'
tRp626
sg42
g43
sg46
g47
sg15
g88
sg22
F281.74054516199976
sg64
g148
sg62
g102
sg49
g50
sS'trials.thisN'
p627
I49
sg19
I1
sg27
g36
(g38
S'\x00\x00\x00\x00\x00\x00\x1a@'
tRp628
sg52
g53
sg23
S'1'
sg18
F280.96828208863735
sg33
g34
sg51
g11
sg20
S'2'
sg65
g36
(g77
S'\x00\x00\x00\x00\x00\x00\x00\x00'
tRp629
sg44
g45
sg40
g41
sg25
F0.47124390862882137
sS'trials.thisIndex'
p630
g36
(g80
S'J\x00\x00\x00'
tRp631
sg26
V5
sS'trials.thisRepN'
p632
I0
sg66
Vseagull
p633
sg63
V../experiment_stimuli/bw_bc_bl/Living_Things/Birds/seagull_13.jpg
p634
sg21
F0.75170326419174671
sS'trials.thisTrialN'
p635
I49
sa(dp636
g31
g32
sg17
F283.9661476733163
sg24
I1
sg35
g39
sg14
F283.94486761279404
sg16
g36
(g70
S'\x02\x00\x00\x00'
tRp637
sg42
g43
sg46
g47
sg15
g88
sg22
F285.98999223997816
sg64
g101
sg62
g102
sg49
g50
sS'trials.thisN'
p638
I50
sg19
I1
sg27
g36
(g38
S'\x00\x00\x00\x00\x00\x00\x1a@'
tRp639
sg52
g53
sg23
S'1'
sg18
F285.40795030351728
sg33
g34
sg51
g11
sg20
S'2'
sg65
g36
(g77
S'\x00\x00\x00\x00\x00\x00\x00\x00'
tRp640
sg44
g45
sg40
g41
sg25
F0.33095945278182626
sS'trials.thisIndex'
p641
g36
(g80
S'1\x00\x00\x00'
tRp642
sg26
V5
sS'trials.thisRepN'
p643
I0
sg66
Vlobster
p644
sg63
V../experiment_stimuli/bw_bc_bl/Living_Things/Marine_creatures/lobster_12.jpg
p645
sg21
F0.56146326614543796
sS'trials.thisTrialN'
p646
I50
sa(dp647
g31
g32
sg17
F288.07040934078395
sg24
I1
sg35
g39
sg14
F288.05383494729176
sg16
g36
(g70
S'\x02\x00\x00\x00'
tRp648
sg42
g43
sg46
g47
sg15
g88
sg22
F290.74014845816419
sg64
g148
sg62
g102
sg49
g50
sS'trials.thisN'
p649
I51
sg19
I1
sg27
g36
(g38
S'\x00\x00\x00\x00\x00\x00\x18@'
tRp650
sg52
g53
sg23
S'1'
sg18
F289.54696274083108
sg33
g34
sg51
g11
sg20
S'2'
sg65
g36
(g77
S'\x00\x00\x00\x00\x00\x00\x00\x00'
tRp651
sg44
g45
sg40
g41
sg25
F0.30087768891826272
sS'trials.thisIndex'
p652
g36
(g80
S'=\x00\x00\x00'
tRp653
sg26
V5
sS'trials.thisRepN'
p654
I0
sg66
Vpenguin
p655
sg63
V../experiment_stimuli/bw_bc_bl/Living_Things/Birds/penguin_9.jpg
p656
sg21
F1.1726256906986237
sS'trials.thisTrialN'
p657
I51
sa(dp658
g31
g32
sg17
F292.7879223912023
sg24
I0
sg35
g39
sg14
F292.77410156978294
sg16
g36
(g70
S'\x01\x00\x00\x00'
tRp659
sg42
g43
sg46
g47
sg15
g88
sg22
F294.98955377331004
sg64
g238
sg62
g74
sg49
g50
sS'trials.thisN'
p660
I52
sg19
I1
sg27
g36
(g38
S'\x00\x00\x00\x00\x00\x00\x18@'
tRp661
sg52
g53
sg23
S'3'
sg18
F294.26724156923592
sg33
g34
sg51
g11
sg20
S'1'
sg65
g36
(g77
S'\x00\x00\x00\x00\x00\x00\x00\x00'
tRp662
sg44
g45
sg40
g41
sg25
F0.30090299341827631
sS'trials.thisIndex'
p663
g36
(g80
S'\x0f\x00\x00\x00'
tRp664
sg26
V5
sS'trials.thisRepN'
p665
I0
sg66
Vchair
p666
sg63
V../experiment_stimuli/bw_bc_bl/Nonliving_Things/Furniture/chair_26.jpg
p667
sg21
F0.70175889087840915
sS'trials.thisTrialN'
p668
I52
sa(dp669
g31
g32
sg17
F297.04109870735556
sg24
I0
sg35
g39
sg14
F297.02336321771145
sg16
g36
(g70
S'\x01\x00\x00\x00'
tRp670
sg42
g43
sg46
g47
sg15
g72
sg22
F302.42574116727337
sg64
g417
sg62
g102
sg49
g50
sS'trials.thisN'
p671
I53
sg19
I1
sg27
g36
(g38
S'\x00\x00\x00\x00\x00\x00\x18@'
tRp672
sg52
g53
sg23
S'3'
sg18
F298.48642844241112
sg33
g34
sg51
g11
sg20
S'1'
sg65
g36
(g77
S'\x00\x00\x00\x00\x00\x00\x00\x00'
tRp673
sg44
g45
sg40
g41
sg25
F0.52135635865852237
sS'trials.thisIndex'
p674
g36
(g80
S'\x18\x00\x00\x00'
tRp675
sg26
V5
sS'trials.thisRepN'
p676
I0
sg66
Vdragonfly
p677
sg63
V../experiment_stimuli/bw_bc_bl/Living_Things/Insects/dragonfly_20.jpg
p678
sg21
F3.9187634526751935
sS'trials.thisTrialN'
p679
I53
sa(dp680
g31
g32
sg17
F304.70211320882663
sg24
I0
sg35
g39
sg14
F304.68003597203642
sg16
g36
(g70
S'\x02\x00\x00\x00'
tRp681
sg42
g43
sg46
g47
sg15
g88
sg22
F309.59134305780753
sg64
g125
sg62
g102
sg49
g50
sS'trials.thisN'
p682
I54
sg19
I1
sg27
g36
(g38
S'\x00\x00\x00\x00\x00\x00\x18@'
tRp683
sg52
g53
sg23
S'3'
sg18
F306.1230583563447
sg33
g34
sg51
g11
sg20
S'2'
sg65
g36
(g77
S'\x00\x00\x00\x00\x00\x00\x00\x00'
tRp684
sg44
g45
sg40
g41
sg25
F0.48128545470535755
sS'trials.thisIndex'
p685
g36
(g80
S'2\x00\x00\x00'
tRp686
sg26
V5
sS'trials.thisRepN'
p687
I0
sg66
Vlynx
p688
sg63
V../experiment_stimuli/bw_bc_bl/Living_Things/Animals/lynx_15.jpg
p689
sg21
F3.4477394563145936
sS'trials.thisTrialN'
p690
I54
sa(dp691
g31
g32
sg17
F311.83841077890247
sg24
I0
sg35
g39
sg14
F311.80554781947285
sg16
g36
(g70
S'\x02\x00\x00\x00'
tRp692
sg42
g43
sg46
g47
sg15
g72
sg22
F314.17135751713067
sg64
g89
sg62
g74
sg49
g50
sS'trials.thisN'
p693
I55
sg19
I0
sg27
g36
(g38
S'\x00\x00\x00\x00\x00\x00\x1a@'
tRp694
sg52
g53
sg23
S'2'
sg18
F313.23854587506503
sg33
g34
sg51
g11
sg20
S'1'
sg65
g36
(g77
S'\x00\x00\x00\x00\x00\x00\x00\x00'
tRp695
sg44
g45
sg40
g41
sg25
F0.22054761974141002
sS'trials.thisIndex'
p696
g36
(g80
S'B\x00\x00\x00'
tRp697
sg26
V5
sS'trials.thisRepN'
p698
I0
sg66
Vpot
p699
sg63
V../experiment_stimuli/bw_bc_bl/Nonliving_Things/Kitchen_Uten/pot_10.jpg
p700
sg21
F0.9122323296032846
sS'trials.thisTrialN'
p701
I55
sa(dp702
g31
g32
sg17
F316.14399941498414
sg24
I0
sg35
g39
sg14
F316.12493801070377
sg16
g36
(g70
S'\x02\x00\x00\x00'
tRp703
sg42
g43
sg46
g47
sg15
g72
sg22
F320.57526532933116
sg64
g238
sg62
g74
sg49
g50
sS'trials.thisN'
p704
I56
sg19
I1
sg27
g36
(g38
S'\x00\x00\x00\x00\x00\x00\x1a@'
tRp705
sg52
g53
sg23
S'2'
sg18
F317.5379106500186
sg33
g34
sg51
g11
sg20
S'2'
sg65
g36
(g77
S'\x00\x00\x00\x00\x00\x00\x00\x00'
tRp706
sg44
g45
sg40
g41
sg25
F1.2227290770970285
sS'trials.thisIndex'
p707
g36
(g80
S']\x00\x00\x00'
tRp708
sg26
V5
sS'trials.thisRepN'
p709
I0
sg66
Vwardrobe
p710
sg63
V../experiment_stimuli/bw_bc_bl/Nonliving_Things/Furniture/wardrobe_25.jpg
p711
sg21
F3.0168005963787436
sS'trials.thisTrialN'
p712
I56
sa(dp713
g31
g32
sg17
F323.55054229637608
sg24
I1
sg35
g39
sg14
F323.53106148308143
sg16
g36
(g70
S'\x01\x00\x00\x00'
tRp714
sg42
g43
sg46
g47
sg15
g72
sg22
F326.57834021793678
sg64
g148
sg62
g102
sg49
g50
sS'trials.thisN'
p715
I57
sg19
I1
sg27
g36
(g38
S'\x00\x00\x00\x00\x00\x00\x1e@'
tRp716
sg52
g53
sg23
S'1'
sg18
F324.92399764945731
sg33
g34
sg51
g11
sg20
S'1'
sg65
g36
(g77
S'\x00\x00\x00\x00\x00\x00\x00\x00'
tRp717
sg44
g45
sg40
g41
sg25
F0.32091492880135775
sS'trials.thisIndex'
p718
g36
(g80
S'"\x00\x00\x00'
tRp719
sg26
V5
sS'trials.thisRepN'
p720
I0
sg66
Vgoose
p721
sg63
V../experiment_stimuli/bw_bc_bl/Living_Things/Birds/goose_10.jpg
p722
sg21
F1.6337936799973249
sS'trials.thisTrialN'
p723
I57
sa(dp724
g31
g32
sg17
F328.66611692076549
sg24
I0
sg35
g39
sg14
F328.63218661257997
sg16
g36
(g70
S'\x01\x00\x00\x00'
tRp725
sg42
g43
sg46
g47
sg15
g72
sg22
F330.95786915067583
sg64
g125
sg62
g102
sg49
g50
sS'trials.thisN'
p726
I58
sg19
I1
sg27
g36
(g38
S'\x00\x00\x00\x00\x00\x00\x18@'
tRp727
sg52
g53
sg23
S'3'
sg18
F330.07520810142159
sg33
g34
sg51
g11
sg20
S'1'
sg65
g36
(g77
S'\x00\x00\x00\x00\x00\x00\x00\x00'
tRp728
sg44
g45
sg40
g41
sg25
F0.33096925308927894
sS'trials.thisIndex'
p729
g36
(g80
S"'\x00\x00\x00"
tRp730
sg26
V5
sS'trials.thisRepN'
p731
I0
sg66
Vhippopotamus
p732
sg63
V../experiment_stimuli/bw_bc_bl/Living_Things/Animals/hippopotamus_10.jpg
p733
sg21
F0.86210642755031586
sS'trials.thisTrialN'
p734
I58
sa(dp735
g31
g32
sg17
F333.04953485308215
sg24
I0
sg35
g39
sg14
F333.02173204626888
sg16
g36
(g70
S'\x02\x00\x00\x00'
tRp736
sg42
g43
sg46
g47
sg15
g88
sg22
F337.51216245722026
sg64
g101
sg62
g102
sg49
g50
sS'trials.thisN'
p737
I59
sg19
I1
sg27
g36
(g38
S'\x00\x00\x00\x00\x00\x00\x1e@'
tRp738
sg52
g53
sg23
S'3'
sg18
F334.4347027791664
sg33
g34
sg51
g11
sg20
S'2'
sg65
g36
(g77
S'\x00\x00\x00\x00\x00\x00\x00\x00'
tRp739
sg44
g45
sg40
g41
sg25
F0.67168450355529785
sS'trials.thisIndex'
p740
g36
(g80
S'^\x00\x00\x00'
tRp741
sg26
V5
sS'trials.thisRepN'
p742
I0
sg66
Vwhale
p743
sg63
V../experiment_stimuli/bw_bc_bl/Living_Things/Marine_creatures/whale_9.jpg
p744
sg21
F3.0468668332323432
sS'trials.thisTrialN'
p745
I59
sa(dp746
g31
g32
sg17
F339.940095664002
sg24
I0
sg35
g39
sg14
F339.91673377575353
sg16
g36
(g70
S'\x02\x00\x00\x00'
tRp747
sg42
g43
sg46
g47
sg15
g72
sg22
F342.3927810639143
sg64
g238
sg62
g74
sg49
g50
sS'trials.thisN'
p748
I60
sg19
I1
sg27
g36
(g38
S'\x00\x00\x00\x00\x00\x00\x1a@'
tRp749
sg52
g53
sg23
S'3'
sg18
F341.27960616676137
sg33
g34
sg51
g11
sg20
S'2'
sg65
g36
(g77
S'\x00\x00\x00\x00\x00\x00\x00\x00'
tRp750
sg44
g45
sg40
g41
sg25
F0.62157693225890398
sS'trials.thisIndex'
p751
g36
(g80
S'E\x00\x00\x00'
tRp752
sg26
V5
sS'trials.thisRepN'
p753
I0
sg66
Vrocking-chair
p754
sg63
V../experiment_stimuli/bw_bc_bl/Nonliving_Things/Furniture/rocking-chair_5.jpg
p755
sg21
F1.0926067307591438
sS'trials.thisTrialN'
p756
I60
sa(dp757
g31
g32
sg17
F344.76237277686596
sg24
I0
sg35
g39
sg14
F344.74725220631808
sg16
g36
(g70
S'\x02\x00\x00\x00'
tRp758
sg42
g43
sg46
g47
sg15
g72
sg22
F346.58190728956833
sg64
g73
sg62
g74
sg49
g50
sS'trials.thisN'
p759
I61
sg19
I1
sg27
g36
(g38
S'\x00\x00\x00\x00\x00\x00\x1a@'
tRp760
sg52
g53
sg23
S'3'
sg18
F346.09007975272834
sg33
g34
sg51
g11
sg20
S'2'
sg65
g36
(g77
S'\x00\x00\x00\x00\x00\x00\x00\x00'
tRp761
sg44
g45
sg40
g41
sg25
F0.23072056705132127
sS'trials.thisIndex'
p762
g36
(g80
S')\x00\x00\x00'
tRp763
sg26
V5
sS'trials.thisRepN'
p764
I0
sg66
Vhouse
p765
sg63
V../experiment_stimuli/bw_bc_bl/Nonliving_Things/Buildings/house_16.jpg
p766
sg21
F0.4712662654928863
sS'trials.thisTrialN'
p767
I61
sa(dp768
g31
g32
sg17
F348.5624334863387
sg24
I0
sg35
g39
sg14
F348.5455298521556
sg16
g36
(g70
S'\x02\x00\x00\x00'
tRp769
sg42
g43
sg46
g47
sg15
g72
sg22
F351.86340120667592
sg64
g204
sg62
g74
sg49
g50
sS'trials.thisN'
p770
I62
sg19
I1
sg27
g36
(g38
S'\x00\x00\x00\x00\x00\x00 @'
tRp771
sg52
g53
sg23
S'3'
sg18
F349.85828842455521
sg33
g34
sg51
g11
sg20
S'2'
sg65
g36
(g77
S'\x00\x00\x00\x00\x00\x00\x00\x00'
tRp772
sg44
g45
sg40
g41
sg25
F0.21067925589159131
sS'trials.thisIndex'
p773
g36
(g80
S'W\x00\x00\x00'
tRp774
sg26
V5
sS'trials.thisRepN'
p775
I0
sg66
Vtrain
p776
sg63
V../experiment_stimuli/bw_bc_bl/Nonliving_Things/Vehicles/train_4.jpg
p777
sg21
F1.9845457286573946
sS'trials.thisTrialN'
p778
I62
sa(dp779
g31
g32
sg17
F353.82584834564477
sg24
I1
sg35
g39
sg14
F353.8069919468835
sg16
g36
(g70
S'\x01\x00\x00\x00'
tRp780
sg42
g43
sg46
g47
sg15
g88
sg22
F361.12358390726149
sg64
g73
sg62
g74
sg49
g50
sS'trials.thisN'
p781
I63
sg19
I1
sg27
g36
(g38
S'\x00\x00\x00\x00\x00\x00\x1a@'
tRp782
sg52
g53
sg23
S'1'
sg18
F355.10973563045263
sg33
g34
sg51
g11
sg20
S'1'
sg65
g36
(g77
S'\x00\x00\x00\x00\x00\x00\x00\x00'
tRp783
sg44
g45
sg40
g41
sg25
F0.29084992874413729
sS'trials.thisIndex'
p784
g36
(g80
S'\x11\x00\x00\x00'
tRp785
sg26
V5
sS'trials.thisRepN'
p786
I0
sg66
Vchurch
p787
sg63
V../experiment_stimuli/bw_bc_bl/Nonliving_Things/Buildings/church_7.jpg
p788
sg21
F5.9932943731546402
sS'trials.thisTrialN'
p789
I63
sa(dp790
g31
g32
sg17
F363.19248546333984
sg24
I0
sg35
g39
sg14
F363.1473288917914
sg16
g36
(g70
S'\x01\x00\x00\x00'
tRp791
sg42
g43
sg46
g47
sg15
g72
sg22
F365.0320693734102
sg64
g101
sg62
g102
sg49
g50
sS'trials.thisN'
p792
I64
sg19
I1
sg27
g36
(g38
S'\x00\x00\x00\x00\x00\x00\x18@'
tRp793
sg52
g53
sg23
S'3'
sg18
F364.5001943227835
sg33
g34
sg51
g11
sg20
S'1'
sg65
g36
(g77
S'\x00\x00\x00\x00\x00\x00\x00\x00'
tRp794
sg44
g45
sg40
g41
sg25
F0.51133594708517194
sS'trials.thisIndex'
p795
g36
(g80
S'K\x00\x00\x00'
tRp796
sg26
V5
sS'trials.thisRepN'
p797
I0
sg66
Vshark
p798
sg63
V../experiment_stimuli/bw_bc_bl/Living_Things/Marine_creatures/shark_6.jpg
p799
sg21
F0.51133845513686538
sS'trials.thisTrialN'
p800
I64
sa(dp801
g31
g32
sg17
F367.29579462576658
sg24
I1
sg35
g39
sg14
F367.2763156844303
sg16
g36
(g70
S'\x02\x00\x00\x00'
tRp802
sg42
g43
sg46
g47
sg15
g88
sg22
F370.50396867003292
sg64
g148
sg62
g102
sg49
g50
sS'trials.thisN'
p803
I65
sg19
I1
sg27
g36
(g38
S'\x00\x00\x00\x00\x00\x00\x1a@'
tRp804
sg52
g53
sg23
S'1'
sg18
F368.56902969814837
sg33
g34
sg51
g11
sg20
S'2'
sg65
g36
(g77
S'\x00\x00\x00\x00\x00\x00\x00\x00'
tRp805
sg44
g45
sg40
g41
sg25
F0.93224849039688706
sS'trials.thisIndex'
p806
g36
(g80
S'F\x00\x00\x00'
tRp807
sg26
V5
sS'trials.thisRepN'
p808
I0
sg66
Vrooster
p809
sg63
V../experiment_stimuli/bw_bc_bl/Living_Things/Birds/rooster_7.jpg
p810
sg21
F1.9043657970614731
sS'trials.thisTrialN'
p811
I65
sa(dp812
g31
g32
sg17
F373.19623032724485
sg24
I0
sg35
g39
sg14
F373.16914288885891
sg16
g36
(g70
S'\x01\x00\x00\x00'
tRp813
sg42
g43
sg46
g47
sg15
g88
sg22
F375.85563869820908
sg64
g294
sg62
g74
sg49
g50
sS'trials.thisN'
p814
I66
sg19
I1
sg27
g36
(g38
S'\x00\x00\x00\x00\x00\x00\x1a@'
tRp815
sg52
g53
sg23
S'3'
sg18
F374.50196784734726
sg33
g34
sg51
g11
sg20
S'1'
sg65
g36
(g77
S'\x00\x00\x00\x00\x00\x00\x00\x00'
tRp816
sg44
g45
sg40
g41
sg25
F0.53137742402032018
sS'trials.thisIndex'
p817
g36
(g80
S'\\\x00\x00\x00'
tRp818
sg26
V5
sS'trials.thisRepN'
p819
I0
sg66
Vviolin
p820
sg63
V../experiment_stimuli/bw_bc_bl/Nonliving_Things/Musical_Inst/violin_3.jpg
p821
sg21
F1.3331283195875585
sS'trials.thisTrialN'
p822
I66
sa(dp823
g31
g32
sg17
F378.13145529478788
sg24
I0
sg35
g39
sg14
F378.11992280976847
sg16
g36
(g70
S'\x01\x00\x00\x00'
tRp824
sg42
g43
sg46
g47
sg15
g88
sg22
F381.16727919038385
sg64
g89
sg62
g74
sg49
g50
sS'trials.thisN'
p825
I67
sg19
I0
sg27
g36
(g38
S'\x00\x00\x00\x00\x00\x00\x1e@'
tRp826
sg52
g53
sg23
S'2'
sg18
F379.42266171937808
sg33
g34
sg51
g11
sg20
S'2'
sg65
g36
(g77
S'\x00\x00\x00\x00\x00\x00\x00\x00'
tRp827
sg44
g45
sg40
g41
sg25
F0.58148858090862632
sS'trials.thisIndex'
p828
g36
(g80
S'G\x00\x00\x00'
tRp829
sg26
V5
sS'trials.thisRepN'
p830
I0
sg66
Vsaucepan
p831
sg63
V../experiment_stimuli/bw_bc_bl/Nonliving_Things/Kitchen_Uten/saucepan_23.jpg
p832
sg21
F1.724040406756103
sS'trials.thisTrialN'
p833
I67
sa(dp834
g31
g32
sg17
F383.50106065673754
sg24
I1
sg35
g39
sg14
F383.48159527173266
sg16
g36
(g70
S'\x01\x00\x00\x00'
tRp835
sg42
g43
sg46
g47
sg15
g88
sg22
F386.19816316058859
sg64
g238
sg62
g74
sg49
g50
sS'trials.thisN'
p836
I68
sg19
I1
sg27
g36
(g38
S'\x00\x00\x00\x00\x00\x00\x1a@'
tRp837
sg52
g53
sg23
S'1'
sg18
F384.77431656327099
sg33
g34
sg51
g11
sg20
S'1'
sg65
g36
(g77
S'\x00\x00\x00\x00\x00\x00\x00\x00'
tRp838
sg44
g45
sg40
g41
sg25
F0.50132770137861371
sS'trials.thisIndex'
p839
g36
(g80
S'\x06\x00\x00\x00'
tRp840
sg26
V5
sS'trials.thisRepN'
p841
I0
sg66
Vbedside-table
p842
sg63
V../experiment_stimuli/bw_bc_bl/Nonliving_Things/Furniture/bedside-table_26.jpg
p843
sg21
F1.4032884761691093
sS'trials.thisTrialN'
p844
I68
sa(dp845
g31
g32
sg17
F388.46139552025124
sg24
I0
sg35
g39
sg14
F388.43237566621974
sg16
g36
(g70
S'\x01\x00\x00\x00'
tRp846
sg42
g43
sg46
g47
sg15
g72
sg22
F390.54762746114284
sg64
g125
sg62
g102
sg49
g50
sS'trials.thisN'
p847
I69
sg19
I1
sg27
g36
(g38
S'\x00\x00\x00\x00\x00\x00\x18@'
tRp848
sg52
g53
sg23
S'2'
sg18
F389.76519423350692
sg33
g34
sg51
g11
sg20
S'1'
sg65
g36
(g77
S'\x00\x00\x00\x00\x00\x00\x00\x00'
tRp849
sg44
g45
sg40
g41
sg25
F0.3209238313138485
sS'trials.thisIndex'
p850
g36
(g80
S'D\x00\x00\x00'
tRp851
sg26
V5
sS'trials.thisRepN'
p852
I0
sg66
Vrhino
p853
sg63
V../experiment_stimuli/bw_bc_bl/Living_Things/Animals/rhino_9.jpg
p854
sg21
F0.76189860561862588
sS'trials.thisTrialN'
p855
I69
sa(dp856
g31
g32
sg17
F392.62693992396817
sg24
I1
sg35
g39
sg14
F392.60145361861214
sg16
g36
(g70
S'\x01\x00\x00\x00'
tRp857
sg42
g43
sg46
g47
sg15
g88
sg22
F394.79690147703514
sg64
g204
sg62
g74
sg49
g50
sS'trials.thisN'
p858
I70
sg19
I1
sg27
g36
(g38
S'\x00\x00\x00\x00\x00\x00\x18@'
tRp859
sg52
g53
sg23
S'1'
sg18
F393.9242431470193
sg33
g34
sg51
g11
sg20
S'1'
sg65
g36
(g77
S'\x00\x00\x00\x00\x00\x00\x00\x00'
tRp860
sg44
g45
sg40
g41
sg25
F0.2006548335775733
sS'trials.thisIndex'
p861
g36
(g80
S'L\x00\x00\x00'
tRp862
sg26
V5
sS'trials.thisRepN'
p863
I0
sg66
Vship
p864
sg63
V../experiment_stimuli/bw_bc_bl/Nonliving_Things/Vehicles/ship_23.jpg
p865
sg21
F0.85207941150292754
sS'trials.thisTrialN'
p866
I70
sa(dp867
g31
g32
sg17
F396.74928367510438
sg24
I1
sg35
g39
sg14
F396.73044202057645
sg16
g36
(g70
S'\x02\x00\x00\x00'
tRp868
sg42
g43
sg46
g47
sg15
g72
sg22
F401.2809931463562
sg64
g238
sg62
g74
sg49
g50
sS'trials.thisN'
p869
I71
sg19
I0
sg27
g36
(g38
S'\x00\x00\x00\x00\x00\x00\x18@'
tRp870
sg52
g53
sg23
S'1'
sg18
F398.0732684917748
sg33
g34
sg51
g11
sg20
S'1'
sg65
g36
(g77
S'\x00\x00\x00\x00\x00\x00\x00\x00'
tRp871
sg44
g45
sg40
g41
sg25
F0.18063663877546787
sS'trials.thisIndex'
p872
g36
(g80
S'N\x00\x00\x00'
tRp873
sg26
V5
sS'trials.thisRepN'
p874
I0
sg66
Vsofa
p875
sg63
V../experiment_stimuli/bw_bc_bl/Nonliving_Things/Furniture/sofa_10.jpg
p876
sg21
F3.1871653902344406
sS'trials.thisTrialN'
p877
I71
sa(dp878
g31
g32
sg17
F403.24586325557902
sg24
I0
sg35
g39
sg14
F403.19452285580337
sg16
g36
(g70
S'\x02\x00\x00\x00'
tRp879
sg42
g43
sg46
g47
sg15
g72
sg22
F405.30979181965813
sg64
g238
sg62
g74
sg49
g50
sS'trials.thisN'
p880
I72
sg19
I1
sg27
g36
(g38
S'\x00\x00\x00\x00\x00\x00\x18@'
tRp881
sg52
g53
sg23
S'3'
sg18
F404.58745304821059
sg33
g34
sg51
g11
sg20
S'2'
sg65
g36
(g77
S'\x00\x00\x00\x00\x00\x00\x00\x00'
tRp882
sg44
g45
sg40
g41
sg25
F0.25076778372749686
sS'trials.thisIndex'
p883
g36
(g80
S'\x02\x00\x00\x00'
tRp884
sg26
V5
sS'trials.thisRepN'
p885
I0
sg66
Varmchair
p886
sg63
V../experiment_stimuli/bw_bc_bl/Nonliving_Things/Furniture/armchair_19.jpg
p887
sg21
F0.70178572880104184
sS'trials.thisTrialN'
p888
I72
sa(dp889
g31
g32
sg17
F407.31255969498307
sg24
I0
sg35
g39
sg14
F407.29344326863065
sg16
g36
(g70
S'\x02\x00\x00\x00'
tRp890
sg42
g43
sg46
g47
sg15
g88
sg22
F409.47885366342962
sg64
g101
sg62
g102
sg49
g50
sS'trials.thisN'
p891
I73
sg19
I1
sg27
g36
(g38
S'\x00\x00\x00\x00\x00\x00\x1a@'
tRp892
sg52
g53
sg23
S'2'
sg18
F408.63626888254657
sg33
g34
sg51
g11
sg20
S'2'
sg65
g36
(g77
S'\x00\x00\x00\x00\x00\x00\x00\x00'
tRp893
sg44
g45
sg40
g41
sg25
F1.1427138084545732
sS'trials.thisIndex'
p894
g36
(g80
S'\x17\x00\x00\x00'
tRp895
sg26
V5
sS'trials.thisRepN'
p896
I0
sg66
Vdolphin
p897
sg63
V../experiment_stimuli/bw_bc_bl/Living_Things/Marine_creatures/dolphin_6.jpg
p898
sg21
F0.82202199753373861
sS'trials.thisTrialN'
p899
I73
sa(dp900
g31
g32
sg17
F412.39666138309985
sg24
I1
sg35
g39
sg14
F412.36448860447854
sg16
g36
(g70
S'\x02\x00\x00\x00'
tRp901
sg42
g43
sg46
g47
sg15
g88
sg22
F414.65022554574534
sg64
g148
sg62
g102
sg49
g50
sS'trials.thisN'
p902
I74
sg19
I0
sg27
g36
(g38
S'\x00\x00\x00\x00\x00\x00\x18@'
tRp903
sg52
g53
sg23
S'1'
sg18
F413.71733753941953
sg33
g34
sg51
g11
sg20
S'1'
sg65
g36
(g77
S'\x00\x00\x00\x00\x00\x00\x00\x00'
tRp904
sg44
g45
sg40
g41
sg25
F0.19062957679852843
sS'trials.thisIndex'
p905
g36
(g80
S'9\x00\x00\x00'
tRp906
sg26
V5
sS'trials.thisRepN'
p907
I0
sg66
Vowl
p908
sg63
V../experiment_stimuli/bw_bc_bl/Living_Things/Birds/owl_7.jpg
p909
sg21
F0.91232839599251747
sS'trials.thisTrialN'
p910
I74
sa(dp911
g31
g32
sg17
F416.60267492756248
sg24
I1
sg35
g39
sg14
F416.57365450216457
sg16
g36
(g70
S'\x02\x00\x00\x00'
tRp912
sg42
g43
sg46
g47
sg15
g72
sg22
F418.6989087080583
sg64
g238
sg62
g74
sg49
g50
sS'trials.thisN'
p913
I75
sg19
I1
sg27
g36
(g38
S'\x00\x00\x00\x00\x00\x00\x1a@'
tRp914
sg52
g53
sg23
S'1'
sg18
F417.93722522025928
sg33
g34
sg51
g11
sg20
S'2'
sg65
g36
(g77
S'\x00\x00\x00\x00\x00\x00\x00\x00'
tRp915
sg44
g45
sg40
g41
sg25
F0.44102285662665963
sS'trials.thisIndex'
p916
g36
(g80
S'Q\x00\x00\x00'
tRp917
sg26
V5
sS'trials.thisRepN'
p918
I0
sg66
Vtable
p919
sg63
V../experiment_stimuli/bw_bc_bl/Nonliving_Things/Furniture/table_18.jpg
p920
sg21
F0.74184185871854424
sS'trials.thisTrialN'
p921
I75
sa(dp922
g31
g32
sg17
F420.88540397118777
sg24
I1
sg35
g39
sg14
F420.87301345355809
sg16
g36
(g70
S'\x02\x00\x00\x00'
tRp923
sg42
g43
sg46
g47
sg15
g72
sg22
F423.90027086623013
sg64
g383
sg62
g74
sg49
g50
sS'trials.thisN'
p924
I76
sg19
I1
sg27
g36
(g38
S'\x00\x00\x00\x00\x00\x00\x1a@'
tRp925
sg52
g53
sg23
S'1'
sg18
F422.21583650773391
sg33
g34
sg51
g11
sg20
S'2'
sg65
g36
(g77
S'\x00\x00\x00\x00\x00\x00\x00\x00'
tRp926
sg44
g45
sg40
g41
sg25
F0.83203842397779226
sS'trials.thisIndex'
p927
g36
(g80
S'%\x00\x00\x00'
tRp928
sg26
V5
sS'trials.thisRepN'
p929
I0
sg66
Vhammer
p930
sg63
V../experiment_stimuli/bw_bc_bl/Nonliving_Things/Tools/hammer_0.jpg
p931
sg21
F1.6638680566102266
sS'trials.thisTrialN'
p932
I76
sa(dp933
g31
g32
sg17
F426.48353280313313
sg24
I0
sg35
g39
sg14
F426.4651898574084
sg16
g36
(g70
S'\x01\x00\x00\x00'
tRp934
sg42
g43
sg46
g47
sg15
g72
sg22
F428.5002779038623
sg64
g417
sg62
g102
sg49
g50
sS'trials.thisN'
p935
I77
sg19
I1
sg27
g36
(g38
S'\x00\x00\x00\x00\x00\x00\x18@'
tRp936
sg52
g53
sg23
S'2'
sg18
F427.83808414451778
sg33
g34
sg51
g11
sg20
S'1'
sg65
g36
(g77
S'\x00\x00\x00\x00\x00\x00\x00\x00'
tRp937
sg44
g45
sg40
g41
sg25
F0.59150742506608367
sS'trials.thisIndex'
p938
g36
(g80
S'I\x00\x00\x00'
tRp939
sg26
V5
sS'trials.thisRepN'
p940
I0
sg66
Vscorpion
p941
sg63
V../experiment_stimuli/bw_bc_bl/Living_Things/Insects/scorpion_15.jpg
p942
sg21
F0.64163659326732159
sS'trials.thisTrialN'
p943
I77
sa(dp944
g31
g32
sg17
F430.84136428451166
sg24
I1
sg35
g39
sg14
F430.82468344876543
sg16
g36
(g70
S'\x01\x00\x00\x00'
tRp945
sg42
g43
sg46
g47
sg15
g88
sg22
F435.68592531234026
sg64
g89
sg62
g74
sg49
g50
sS'trials.thisN'
p946
I78
sg19
I0
sg27
g36
(g38
S'\x00\x00\x00\x00\x00\x00\x1a@'
tRp947
sg52
g53
sg23
S'1'
sg18
F432.19757034862414
sg33
g34
sg51
g11
sg20
S'2'
sg65
g36
(g77
S'\x00\x00\x00\x00\x00\x00\x00\x00'
tRp948
sg44
g45
sg40
g41
sg25
F0.59151230473071337
sS'trials.thisIndex'
p949
g36
(g80
S'\x1f\x00\x00\x00'
tRp950
sg26
V5
sS'trials.thisRepN'
p951
I0
sg66
Vfrying-pan
p952
sg63
V../experiment_stimuli/bw_bc_bl/Nonliving_Things/Kitchen_Uten/frying-pan_6.jpg
p953
sg21
F3.4677716470323503
sS'trials.thisTrialN'
p954
I78
sa(dp955
g31
g32
sg17
F438.03454182995483
sg24
I0
sg35
g39
sg14
F438.0103278644383
sg16
g36
(g70
S'\x02\x00\x00\x00'
tRp956
sg42
g43
sg46
g47
sg15
g88
sg22
F440.21575816813856
sg64
g125
sg62
g102
sg49
g50
sS'trials.thisN'
p957
I79
sg19
I1
sg27
g36
(g38
S'\x00\x00\x00\x00\x00\x00\x1a@'
tRp958
sg52
g53
sg23
S'3'
sg18
F439.40326187293977
sg33
g34
sg51
g11
sg20
S'2'
sg65
g36
(g77
S'\x00\x00\x00\x00\x00\x00\x00\x00'
tRp959
sg44
g45
sg40
g41
sg25
F0.48126595467329025
sS'trials.thisIndex'
p960
g36
(g80
S'0\x00\x00\x00'
tRp961
sg26
V5
sS'trials.thisRepN'
p962
I0
sg66
Vlioness
p963
sg63
V../experiment_stimuli/bw_bc_bl/Living_Things/Animals/lioness_25.jpg
p964
sg21
F0.79195362469181418
sS'trials.thisTrialN'
p965
I79
sa(dp966
g31
g32
sg17
F442.45064073428512
sg24
I0
sg35
g39
sg14
F442.42995309550315
sg16
g36
(g70
S'\x02\x00\x00\x00'
tRp967
sg42
g43
sg46
g47
sg15
g72
sg22
F445.27680028788745
sg64
g89
sg62
g74
sg49
g50
sS'trials.thisN'
p968
I80
sg19
I1
sg27
g36
(g38
S'\x00\x00\x00\x00\x00\x00\x18@'
tRp969
sg52
g53
sg23
S'2'
sg18
F443.78280068468302
sg33
g34
sg51
g11
sg20
S'2'
sg65
g36
(g77
S'\x00\x00\x00\x00\x00\x00\x00\x00'
tRp970
sg44
g45
sg40
g41
sg25
F0.68170380219817162
sS'trials.thisIndex'
p971
g36
(g80
S'\x16\x00\x00\x00'
tRp972
sg26
V5
sS'trials.thisRepN'
p973
I0
sg66
Vcup
p974
sg63
V../experiment_stimuli/bw_bc_bl/Nonliving_Things/Kitchen_Uten/cup_18.jpg
p975
sg21
F1.4734392263926566
sS'trials.thisTrialN'
p976
I80
sa(dp977
g31
g32
sg17
F447.71251123864204
sg24
I0
sg35
g39
sg14
F447.69141814531758
sg16
g36
(g70
S'\x01\x00\x00\x00'
tRp978
sg42
g43
sg46
g47
sg15
g88
sg22
F451.00925463205203
sg64
g238
sg62
g74
sg49
g50
sS'trials.thisN'
p979
I81
sg19
I1
sg27
g36
(g38
S'\x00\x00\x00\x00\x00\x00 @'
tRp980
sg52
g53
sg23
S'3'
sg18
F449.03424756368622
sg33
g34
sg51
g11
sg20
S'1'
sg65
g36
(g77
S'\x00\x00\x00\x00\x00\x00\x00\x00'
tRp981
sg44
g45
sg40
g41
sg25
F0.59150765743106604
sS'trials.thisIndex'
p982
g36
(g80
S'\x1d\x00\x00\x00'
tRp983
sg26
V5
sS'trials.thisRepN'
p984
I0
sg66
Vfilling-cabinet
p985
sg63
V../experiment_stimuli/bw_bc_bl/Nonliving_Things/Furniture/filling-cabinet_3.jpg
p986
sg21
F1.9544822359457612
sS'trials.thisTrialN'
p987
I81
sa(dp988
g31
g32
sg17
F453.36577639169991
sg24
I0
sg35
g39
sg14
F453.33370680408552
sg16
g36
(g70
S'\x02\x00\x00\x00'
tRp989
sg42
g43
sg46
g47
sg15
g88
sg22
F455.61932603223249
sg64
g101
sg62
g102
sg49
g50
sS'trials.thisN'
p990
I82
sg19
I1
sg27
g36
(g38
S'\x00\x00\x00\x00\x00\x00\x18@'
tRp991
sg52
g53
sg23
S'3'
sg18
F454.66649507451802
sg33
g34
sg51
g11
sg20
S'2'
sg65
g36
(g77
S'\x00\x00\x00\x00\x00\x00\x00\x00'
tRp992
sg44
g45
sg40
g41
sg25
F0.75187159655615687
sS'trials.thisIndex'
p993
g36
(g80
S'+\x00\x00\x00'
tRp994
sg26
V5
sS'trials.thisRepN'
p995
I0
sg66
Vkiller-whale
p996
sg63
V../experiment_stimuli/bw_bc_bl/Living_Things/Marine_creatures/killer-whale_5.jpg
p997
sg21
F0.93227697117254138
sS'trials.thisTrialN'
p998
I82
sa(dp999
g31
g32
sg17
F458.12331915134564
sg24
I0
sg35
g39
sg14
F458.10407921858132
sg16
g36
(g70
S'\x01\x00\x00\x00'
tRp1000
sg42
g43
sg46
g47
sg15
g88
sg22
F460.65029102750123
sg64
g204
sg62
g74
sg49
g50
sS'trials.thisN'
p1001
I83
sg19
I1
sg27
g36
(g38
S'\x00\x00\x00\x00\x00\x00\x18@'
tRp1002
sg52
g53
sg23
S'3'
sg18
F459.41684630233794
sg33
g34
sg51
g11
sg20
S'1'
sg65
g36
(g77
S'\x00\x00\x00\x00\x00\x00\x00\x00'
tRp1003
sg44
g45
sg40
g41
sg25
F0.28082795720547438
sS'trials.thisIndex'
p1004
g36
(g80
S'\t\x00\x00\x00'
tRp1005
sg26
V5
sS'trials.thisRepN'
p1006
I0
sg66
Vbus
p1007
sg63
V../experiment_stimuli/bw_bc_bl/Nonliving_Things/Vehicles/bus_6.jpg
p1008
sg21
F1.2128866375423968
sS'trials.thisTrialN'
p1009
I83
sa(dp1010
g31
g32
sg17
F462.67384865693748
sg24
I1
sg35
g39
sg14
F462.6640100935474
sg16
g36
(g70
S'\x02\x00\x00\x00'
tRp1011
sg42
g43
sg46
g47
sg15
g72
sg22
F464.66901582432911
sg64
g238
sg62
g74
sg49
g50
sS'trials.thisN'
p1012
I84
sg19
I0
sg27
g36
(g38
S'\x00\x00\x00\x00\x00\x00\x1a@'
tRp1013
sg52
g53
sg23
S'1'
sg18
F463.92667328659445
sg33
g34
sg51
g11
sg20
S'1'
sg65
g36
(g77
S'\x00\x00\x00\x00\x00\x00\x00\x00'
tRp1014
sg44
g45
sg40
g41
sg25
F0.25076373154297471
sS'trials.thisIndex'
p1015
g36
(g80
S'\x13\x00\x00\x00'
tRp1016
sg26
V5
sS'trials.thisRepN'
p1017
I0
sg66
Vcouch
p1018
sg63
V../experiment_stimuli/bw_bc_bl/Nonliving_Things/Furniture/couch_16.jpg
p1019
sg21
F0.72179539361968637
sS'trials.thisTrialN'
p1020
I84
sa(dp1021
g31
g32
sg17
F466.67450710246339
sg24
I1
sg35
g39
sg14
F466.65269549842924
sg16
g36
(g70
S'\x02\x00\x00\x00'
tRp1022
sg42
g43
sg46
g47
sg15
g88
sg22
F468.65770728932694
sg64
g148
sg62
g102
sg49
g50
sS'trials.thisN'
p1023
I85
sg19
I1
sg27
g36
(g38
S'\x00\x00\x00\x00\x00\x00\x1a@'
tRp1024
sg52
g53
sg23
S'1'
sg18
F467.95543261850253
sg33
g34
sg51
g11
sg20
S'2'
sg65
g36
(g77
S'\x00\x00\x00\x00\x00\x00\x00\x00'
tRp1025
sg44
g45
sg40
g41
sg25
F0.21068362006917596
sS'trials.thisIndex'
p1026
g36
(g80
S'&\x00\x00\x00'
tRp1027
sg26
V5
sS'trials.thisRepN'
p1028
I0
sg66
Vhen
p1029
sg63
V../experiment_stimuli/bw_bc_bl/Living_Things/Birds/hen_7.jpg
p1030
sg21
F0.68171167001128197
sS'trials.thisTrialN'
p1031
I85
sa(dp1032
g31
g32
sg17
F470.63243549596518
sg24
I1
sg35
g39
sg14
F470.61132274894044
sg16
g36
(g70
S'\x02\x00\x00\x00'
tRp1033
sg42
g43
sg46
g47
sg15
g72
sg22
F472.99714858131483
sg64
g204
sg62
g74
sg49
g50
sS'trials.thisN'
p1034
I86
sg19
I0
sg27
g36
(g38
S'\x00\x00\x00\x00\x00\x00\x1a@'
tRp1035
sg52
g53
sg23
S'1'
sg18
F471.92407746054232
sg33
g34
sg51
g11
sg20
S'1'
sg65
g36
(g77
S'\x00\x00\x00\x00\x00\x00\x00\x00'
tRp1036
sg44
g45
sg40
g41
sg25
F0.50115206791087985
sS'trials.thisIndex'
p1037
g36
(g80
S'@\x00\x00\x00'
tRp1038
sg26
V5
sS'trials.thisRepN'
p1039
I0
sg66
Vplane
p1040
sg63
V../experiment_stimuli/bw_bc_bl/Nonliving_Things/Vehicles/plane_15.jpg
p1041
sg21
F1.0525171682238579
sS'trials.thisTrialN'
p1042
I86
sa(dp1043
g31
g32
sg17
F475.25080836657435
sg24
I0
sg35
g39
sg14
F475.23137306794524
sg16
g36
(g70
S'\x01\x00\x00\x00'
tRp1044
sg42
g43
sg46
g47
sg15
g72
sg22
F477.15625219745561
sg64
g148
sg62
g102
sg49
g50
sS'trials.thisN'
p1045
I87
sg19
I1
sg27
g36
(g38
S'\x00\x00\x00\x00\x00\x00\x18@'
tRp1046
sg52
g53
sg23
S'3'
sg18
F476.57420040015131
sg33
g34
sg51
g11
sg20
S'1'
sg65
g36
(g77
S'\x00\x00\x00\x00\x00\x00\x00\x00'
tRp1047
sg44
g45
sg40
g41
sg25
F0.22070367075502872
sS'trials.thisIndex'
p1048
g36
(g80
S'?\x00\x00\x00'
tRp1049
sg26
V5
sS'trials.thisRepN'
p1050
I0
sg66
Vpigeon
p1051
sg63
V../experiment_stimuli/bw_bc_bl/Living_Things/Birds/pigeon_13.jpg
p1052
sg21
F0.56144754448905587
sS'trials.thisTrialN'
p1053
I87
sa(dp1054
g31
g32
sg17
F479.12441839883104
sg24
I1
sg35
g39
sg14
F479.10981947695836
sg16
g36
(g70
S'\x02\x00\x00\x00'
tRp1055
sg42
g43
sg46
g47
sg15
g88
sg22
F485.46429106080905
sg64
g148
sg62
g102
sg49
g50
sS'trials.thisN'
p1056
I88
sg19
I1
sg27
g36
(g38
S'\x00\x00\x00\x00\x00\x00 @'
tRp1057
sg52
g53
sg23
S'1'
sg18
F480.43259947514161
sg33
g34
sg51
g11
sg20
S'2'
sg65
g36
(g77
S'\x00\x00\x00\x00\x00\x00\x00\x00'
tRp1058
sg44
g45
sg40
g41
sg25
F0.59150590607896447
sS'trials.thisIndex'
p1059
g36
(g80
S',\x00\x00\x00'
tRp1060
sg26
V5
sS'trials.thisRepN'
p1061
I0
sg66
Vkiwi
p1062
sg63
V../experiment_stimuli/bw_bc_bl/Living_Things/Birds/kiwi_10.jpg
p1063
sg21
F5.0011087935417891
sS'trials.thisTrialN'
p1064
I88
sa(dp1065
g31
g32
sg17
F487.81420134287328
sg24
I1
sg35
g39
sg14
F487.78871725173667
sg16
g36
(g70
S'\x02\x00\x00\x00'
tRp1066
sg42
g43
sg46
g47
sg15
g88
sg22
F489.81380758667365
sg64
g125
sg62
g102
sg49
g50
sS'trials.thisN'
p1067
I89
sg19
I1
sg27
g36
(g38
S'\x00\x00\x00\x00\x00\x00\x18@'
tRp1068
sg52
g53
sg23
S'1'
sg18
F489.13154600840062
sg33
g34
sg51
g11
sg20
S'2'
sg65
g36
(g77
S'\x00\x00\x00\x00\x00\x00\x00\x00'
tRp1069
sg44
g45
sg40
g41
sg25
F0.23056917358189821
sS'trials.thisIndex'
p1070
g36
(g80
S'\r\x00\x00\x00'
tRp1071
sg26
V5
sS'trials.thisRepN'
p1072
I0
sg66
Vcat
p1073
sg63
V../experiment_stimuli/bw_bc_bl/Living_Things/Animals/cat_16.jpg
p1074
sg21
F0.6616856106556952
sS'trials.thisTrialN'
p1075
I89
sa(dp1076
g31
g32
sg17
F491.8024722635746
sg24
I1
sg35
g39
sg14
F491.77740203682333
sg16
g36
(g70
S'\x01\x00\x00\x00'
tRp1077
sg42
g43
sg46
g47
sg15
g88
sg22
F494.43383039813489
sg64
g73
sg62
g74
sg49
g50
sS'trials.thisN'
p1078
I90
sg19
I0
sg27
g36
(g38
S'\x00\x00\x00\x00\x00\x00\x18@'
tRp1079
sg52
g53
sg23
S'1'
sg18
F493.15029102331027
sg33
g34
sg51
g11
sg20
S'2'
sg65
g36
(g77
S'\x00\x00\x00\x00\x00\x00\x00\x00'
tRp1080
sg44
g45
sg40
g41
sg25
F0.21071592113003135
sS'trials.thisIndex'
p1081
g36
(g80
S'\x1c\x00\x00\x00'
tRp1082
sg26
V5
sS'trials.thisRepN'
p1083
I0
sg66
Vfactory
p1084
sg63
V../experiment_stimuli/bw_bc_bl/Nonliving_Things/Buildings/factory_9.jpg
p1085
sg21
F1.2629821635782719
sS'trials.thisTrialN'
p1086
I90
sa(dp1087
g31
g32
sg17
F496.41057963203639
sg24
I1
sg35
g39
sg14
F496.38743815850466
sg16
g36
(g70
S'\x01\x00\x00\x00'
tRp1088
sg42
g43
sg46
g47
sg15
g88
sg22
F498.39231394743547
sg64
g204
sg62
g74
sg49
g50
sS'trials.thisN'
p1089
I91
sg19
I1
sg27
g36
(g38
S'\x00\x00\x00\x00\x00\x00\x1a@'
tRp1090
sg52
g53
sg23
S'1'
sg18
F497.78037074953318
sg33
g34
sg51
g11
sg20
S'1'
sg65
g36
(g77
S'\x00\x00\x00\x00\x00\x00\x00\x00'
tRp1091
sg44
g45
sg40
g41
sg25
F0.26077892817556858
sS'trials.thisIndex'
p1092
g36
(g80
S'[\x00\x00\x00'
tRp1093
sg26
V5
sS'trials.thisRepN'
p1094
I0
sg66
Vvan
p1095
sg63
V../experiment_stimuli/bw_bc_bl/Nonliving_Things/Vehicles/van_18.jpg
p1096
sg21
F0.59135684743523598
sS'trials.thisTrialN'
p1097
I91
sa(dp1098
g31
g32
sg17
F500.40160913579166
sg24
I0
sg35
g39
sg14
F500.3861440801993
sg16
g36
(g70
S'\x01\x00\x00\x00'
tRp1099
sg42
g43
sg46
g47
sg15
g88
sg22
F502.39114895043895
sg64
g294
sg62
g74
sg49
g50
sS'trials.thisN'
p1100
I92
sg19
I1
sg27
g36
(g38
S'\x00\x00\x00\x00\x00\x00\x18@'
tRp1101
sg52
g53
sg23
S'3'
sg18
F501.79913666611537
sg33
g34
sg51
g11
sg20
S'1'
sg65
g36
(g77
S'\x00\x00\x00\x00\x00\x00\x00\x00'
tRp1102
sg44
g45
sg40
g41
sg25
F0.21070965053513646
sS'trials.thisIndex'
p1103
g36
(g80
S'$\x00\x00\x00'
tRp1104
sg26
V5
sS'trials.thisRepN'
p1105
I0
sg66
Vguitar
p1106
sg63
V../experiment_stimuli/bw_bc_bl/Nonliving_Things/Musical_Inst/guitar_21.jpg
p1107
sg21
F0.57147046737372875
sS'trials.thisTrialN'
p1108
I92
sa(dp1109
g31
g32
sg17
F504.36737862136215
sg24
I0
sg35
g39
sg14
F504.34476510155946
sg16
g36
(g70
S'\x01\x00\x00\x00'
tRp1110
sg42
g43
sg46
g47
sg15
g72
sg22
F506.41992506338283
sg64
g417
sg62
g102
sg49
g50
sS'trials.thisN'
p1111
I93
sg19
I1
sg27
g36
(g38
S'\x00\x00\x00\x00\x00\x00\x18@'
tRp1112
sg52
g53
sg23
S'3'
sg18
F505.73770122602582
sg33
g34
sg51
g11
sg20
S'1'
sg65
g36
(g77
S'\x00\x00\x00\x00\x00\x00\x00\x00'
tRp1113
sg44
g45
sg40
g41
sg25
F0.28067893255501986
sS'trials.thisIndex'
p1114
g36
(g80
S'\n\x00\x00\x00'
tRp1115
sg26
V5
sS'trials.thisRepN'
p1116
I0
sg66
Vbutterfly
p1117
sg63
V../experiment_stimuli/bw_bc_bl/Living_Things/Insects/butterfly_19.jpg
p1118
sg21
F0.66166480677202344
sS'trials.thisTrialN'
p1119
I93
sa(dp1120
g31
g32
sg17
F508.45217734016478
sg24
I1
sg35
g39
sg14
F508.43366262177005
sg16
g36
(g70
S'\x02\x00\x00\x00'
tRp1121
sg42
g43
sg46
g47
sg15
g88
sg22
F512.35284391604364
sg64
g101
sg62
g102
sg49
g50
sS'trials.thisN'
p1122
I94
sg19
I0
sg27
g36
(g38
S'\x00\x00\x00\x00\x00\x00\x1a@'
tRp1123
sg52
g53
sg23
S'1'
sg18
F509.79654864827171
sg33
g34
sg51
g11
sg20
S'1'
sg65
g36
(g77
S'\x00\x00\x00\x00\x00\x00\x00\x00'
tRp1124
sg44
g45
sg40
g41
sg25
F0.19063378311693668
sS'trials.thisIndex'
p1125
g36
(g80
S'P\x00\x00\x00'
tRp1126
sg26
V5
sS'trials.thisRepN'
p1127
I0
sg66
Vsperm-whale
p1128
sg63
V../experiment_stimuli/bw_bc_bl/Living_Things/Marine_creatures/sperm-whale_25.jpg
p1129
sg21
F2.5357559737749398
sS'trials.thisTrialN'
p1130
I94
sa(dp1131
g31
g32
sg17
F514.2954492685385
sg24
I0
sg35
g39
sg14
F514.27638809708878
sg16
g36
(g70
S'\x01\x00\x00\x00'
tRp1132
sg42
g43
sg46
g47
sg15
g72
sg22
F516.25119009241462
sg64
g125
sg62
g102
sg49
g50
sS'trials.thisN'
p1133
I95
sg19
I1
sg27
g36
(g38
S'\x00\x00\x00\x00\x00\x00\x18@'
tRp1134
sg52
g53
sg23
S'3'
sg18
F515.65931572811678
sg33
g34
sg51
g11
sg20
S'1'
sg65
g36
(g77
S'\x00\x00\x00\x00\x00\x00\x00\x00'
tRp1135
sg44
g45
sg40
g41
sg25
F0.26078672148287296
sS'trials.thisIndex'
p1136
g36
(g80
S'R\x00\x00\x00'
tRp1137
sg26
V5
sS'trials.thisRepN'
p1138
I0
sg66
Vtapir
p1139
sg63
V../experiment_stimuli/bw_bc_bl/Living_Things/Animals/tapir_21.jpg
p1140
sg21
F0.57131305150687695
sS'trials.thisTrialN'
p1141
I95
sasS'loops'
p1142
(lp1143
g1
(cpsychopy.data
TrialHandler
p1144
g3
NtRp1145
(dp1146
S'origin'
p1147
NsS'thisTrial'
p1148
(lp1149
sS'_exp'
p1150
I97317136
sg10
S'trials'
p1151
sg6
I-1
sS'thisRepN'
p1152
I1
sg28
I01
sg29
g30
sS'data'
p1153
g1
(cpsychopy.data
DataHandler
p1154
c__builtin__
dict
p1155
(dp1156
g20
cnumpy.core.multiarray
_reconstruct
p1157
(cnumpy
ndarray
p1158
(I0
tS'b'
tRp1159
(I1
(I96
I1
tg37
(S'O4'
I0
I1
tRp1160
(I3
S'|'
NNNI-1
I-1
I63
tbI00
(lp1161
S'1'
aS'2'
aS'2'
aS'1'
aS'1'
aS'2'
aS'1'
aS'1'
aS'2'
aS'1'
aS'1'
aS'2'
aS'2'
aS'2'
aS'1'
aS'1'
aS'2'
aS'1'
aS'1'
aS'1'
aS'1'
aS'1'
aS'2'
aS'2'
aS'1'
aS'2'
aS'1'
aS'2'
aS'2'
aS'1'
aS'2'
aS'2'
aS'2'
aS'1'
aS'1'
aS'2'
aS'1'
aS'2'
aS'2'
aS'1'
aS'2'
aS'2'
aS'1'
aS'2'
aS'2'
aS'1'
aS'2'
aS'1'
aS'2'
aS'2'
aS'2'
aS'1'
aS'2'
aS'1'
aS'2'
aS'2'
aS'2'
aS'1'
aS'1'
aS'2'
aS'2'
aS'2'
aS'1'
aS'1'
aS'1'
aS'1'
aS'1'
aS'1'
aS'1'
aS'2'
aS'2'
aS'2'
aS'1'
aS'1'
aS'2'
aS'1'
aS'1'
aS'1'
aS'1'
aS'2'
aS'1'
aS'2'
aS'1'
aS'1'
aS'2'
aS'2'
aS'2'
aS'2'
aS'1'
aS'2'
aS'1'
aS'1'
aS'1'
aS'2'
aS'2'
aS'1'
atbsg17
cnumpy.ma.core
_mareconstruct
p1162
(cnumpy.ma.core
MaskedArray
p1163
g1158
(I0
tp1164
S'b'
tRp1165
(I1
(I96
I1
tg37
(S'f4'
I0
I1
tRp1166
(I3
S'<'
NNNI-1
I-1
I0
tbI00
S'YZUC\x00\x9d\xbcAx\x9f\xc9C\x9d?\x0bC\x8b\xd71C0\xac\xb7B#\xc0\xbfC0j\x85B5\x0c\xecB\xc9\x0f\xe5C\x06/\xfcC8\xff,C\x861\x0fC8\xe8\xf3C<\xcd\x01B\xdbd\x92C\xc5\xc7bB\xb5\xe9\xb0C\xcf\x84\xafBAV\xe7CMY\xd1B\xd81\x98B\xaf9\xddC\x02\xa8\xcbCC\x85\x94Cf\r\xd9B\x16\x1a9Bm\xdfNC\xb7\xe6\xf5C4\xdb\xdfC\xac\xcc\x9bA\xb2k\xd7C\x80\x0euCB\xdb`Cx\xc6\xa1CTBr@h3\xfaCUq\xd2CVV\xe9CCU\xa4C\xe5}yC\x95a\xacC\x07\x1f\xa8B\xd2\xae\xe2C\xed\x8f\xefC`\x9f\x18C\xe1\xec\xc0B\xc5\x10\xa0Bl\x04\xdbC\xab\xfb\x8dC\xdfY\x98C\x81\xd0\xe3B\x0e\xa4yBo\xfa!Cq\xb6=C\xc9{WA\xfa\xb1\x81C\xc62\xceCK9eC7\xfe\x87C}R\x8fB\x03\t\x90Cj\x92}C\x1a\xa0\xedC\xf4P\xebCa\x9f&CQ\xeb\x9bC\xe5 \x05C\x0f;\xc2CU\xf8\xa9C\xdd\xa5\xb7C\xd4\x10\xbdC\x8cs\x13C\xe4=\xd5C\xe3\xc6\x8bC\xa3\x98\xb5C@P\xc4C\xee\xfc\x83C\xe9_\xc6CB/\x01C\xe19\xfeC$M\xd0C\xe9\x92\x00D\xf5\xa9\x0eAiU\xf6B\xe98\x18B~\xaa9C\xfeG\xaeCX\xf8nC\x13\xe9\xc8B\x8a\xaeiC\x8e4\xf8C\x1e\x99\xbaCo\x12\x9eCW\x86\xa6CF\xdcQB'
S'\x00\x00\x00\x00\x00\x00\x00\x00\x00\x00\x00\x00\x00\x00\x00\x00\x00\x00\x00\x00\x00\x00\x00\x00\x00\x00\x00\x00\x00\x00\x00\x00\x00\x00\x00\x00\x00\x00\x00\x00\x00\x00\x00\x00\x00\x00\x00\x00\x00\x00\x00\x00\x00\x00\x00\x00\x00\x00\x00\x00\x00\x00\x00\x00\x00\x00\x00\x00\x00\x00\x00\x00\x00\x00\x00\x00\x00\x00\x00\x00\x00\x00\x00\x00\x00\x00\x00\x00\x00\x00\x00\x00\x00\x00\x00\x00'
NtbsS'ran'
p1167
g1162
(g1163
g1158
g1164
S'b'
tRp1168
(I1
(I96
I1
tg1166
I00
S'\x00\x00\x80?\x00\x00\x80?\x00\x00\x80?\x00\x00\x80?\x00\x00\x80?\x00\x00\x80?\x00\x00\x80?\x00\x00\x80?\x00\x00\x80?\x00\x00\x80?\x00\x00\x80?\x00\x00\x80?\x00\x00\x80?\x00\x00\x80?\x00\x00\x80?\x00\x00\x80?\x00\x00\x80?\x00\x00\x80?\x00\x00\x80?\x00\x00\x80?\x00\x00\x80?\x00\x00\x80?\x00\x00\x80?\x00\x00\x80?\x00\x00\x80?\x00\x00\x80?\x00\x00\x80?\x00\x00\x80?\x00\x00\x80?\x00\x00\x80?\x00\x00\x80?\x00\x00\x80?\x00\x00\x80?\x00\x00\x80?\x00\x00\x80?\x00\x00\x80?\x00\x00\x80?\x00\x00\x80?\x00\x00\x80?\x00\x00\x80?\x00\x00\x80?\x00\x00\x80?\x00\x00\x80?\x00\x00\x80?\x00\x00\x80?\x00\x00\x80?\x00\x00\x80?\x00\x00\x80?\x00\x00\x80?\x00\x00\x80?\x00\x00\x80?\x00\x00\x80?\x00\x00\x80?\x00\x00\x80?\x00\x00\x80?\x00\x00\x80?\x00\x00\x80?\x00\x00\x80?\x00\x00\x80?\x00\x00\x80?\x00\x00\x80?\x00\x00\x80?\x00\x00\x80?\x00\x00\x80?\x00\x00\x80?\x00\x00\x80?\x00\x00\x80?\x00\x00\x80?\x00\x00\x80?\x00\x00\x80?\x00\x00\x80?\x00\x00\x80?\x00\x00\x80?\x00\x00\x80?\x00\x00\x80?\x00\x00\x80?\x00\x00\x80?\x00\x00\x80?\x00\x00\x80?\x00\x00\x80?\x00\x00\x80?\x00\x00\x80?\x00\x00\x80?\x00\x00\x80?\x00\x00\x80?\x00\x00\x80?\x00\x00\x80?\x00\x00\x80?\x00\x00\x80?\x00\x00\x80?\x00\x00\x80?\x00\x00\x80?\x00\x00\x80?\x00\x00\x80?\x00\x00\x80?\x00\x00\x80?'
S'\x00\x00\x00\x00\x00\x00\x00\x00\x00\x00\x00\x00\x00\x00\x00\x00\x00\x00\x00\x00\x00\x00\x00\x00\x00\x00\x00\x00\x00\x00\x00\x00\x00\x00\x00\x00\x00\x00\x00\x00\x00\x00\x00\x00\x00\x00\x00\x00\x00\x00\x00\x00\x00\x00\x00\x00\x00\x00\x00\x00\x00\x00\x00\x00\x00\x00\x00\x00\x00\x00\x00\x00\x00\x00\x00\x00\x00\x00\x00\x00\x00\x00\x00\x00\x00\x00\x00\x00\x00\x00\x00\x00\x00\x00\x00\x00'
Ntbsg24
g1162
(g1163
g1158
g1164
S'b'
tRp1169
(I1
(I96
I1
tg1166
I00
S'\x00\x00\x80?\x00\x00\x80?\x00\x00\x00\x00\x00\x00\x80?\x00\x00\x00\x00\x00\x00\x00\x00\x00\x00\x80?\x00\x00\x00\x00\x00\x00\x00\x00\x00\x00\x00\x00\x00\x00\x00\x00\x00\x00\x00\x00\x00\x00\x80?\x00\x00\x80?\x00\x00\x80?\x00\x00\x00\x00\x00\x00\x80?\x00\x00\x80?\x00\x00\x00\x00\x00\x00\x80?\x00\x00\x80?\x00\x00\x00\x00\x00\x00\x00\x00\x00\x00\x00\x00\x00\x00\x00\x00\x00\x00\x00\x00\x00\x00\x00\x00\x00\x00\x80?\x00\x00\x80?\x00\x00\x00\x00\x00\x00\x00\x00\x00\x00\x80?\x00\x00\x00\x00\x00\x00\x80?\x00\x00\x80?\x00\x00\x00\x00\x00\x00\x00\x00\x00\x00\x80?\x00\x00\x80?\x00\x00\x00\x00\x00\x00\x00\x00\x00\x00\x00\x00\x00\x00\x80?\x00\x00\x00\x00\x00\x00\x80?\x00\x00\x80?\x00\x00\x00\x00\x00\x00\x80?\x00\x00\x00\x00\x00\x00\x80?\x00\x00\x00\x00\x00\x00\x80?\x00\x00\x00\x00\x00\x00\x80?\x00\x00\x80?\x00\x00\x00\x00\x00\x00\x80?\x00\x00\x80?\x00\x00\x80?\x00\x00\x00\x00\x00\x00\x80?\x00\x00\x80?\x00\x00\x00\x00\x00\x00\x00\x00\x00\x00\x80?\x00\x00\x80?\x00\x00\x00\x00\x00\x00\x80?\x00\x00\x00\x00\x00\x00\x00\x00\x00\x00\x80?\x00\x00\x00\x00\x00\x00\x80?\x00\x00\x00\x00\x00\x00\x80?\x00\x00\x00\x00\x00\x00\x80?\x00\x00\x00\x00\x00\x00\x80?\x00\x00\x00\x00\x00\x00\x80?\x00\x00\x80?\x00\x00\x00\x00\x00\x00\x80?\x00\x00\x00\x00\x00\x00\x00\x00\x00\x00\x00\x00\x00\x00\x00\x00\x00\x00\x80?\x00\x00\x80?\x00\x00\x80?\x00\x00\x80?\x00\x00\x00\x00\x00\x00\x00\x00\x00\x00\x00\x00\x00\x00\x00\x00'
S'\x00\x00\x00\x00\x00\x00\x00\x00\x00\x00\x00\x00\x00\x00\x00\x00\x00\x00\x00\x00\x00\x00\x00\x00\x00\x00\x00\x00\x00\x00\x00\x00\x00\x00\x00\x00\x00\x00\x00\x00\x00\x00\x00\x00\x00\x00\x00\x00\x00\x00\x00\x00\x00\x00\x00\x00\x00\x00\x00\x00\x00\x00\x00\x00\x00\x00\x00\x00\x00\x00\x00\x00\x00\x00\x00\x00\x00\x00\x00\x00\x00\x00\x00\x00\x00\x00\x00\x00\x00\x00\x00\x00\x00\x00\x00\x00'
Ntbsg14
g1162
(g1163
g1158
g1164
S'b'
tRp1170
(I1
(I96
I1
tg1166
I00
S'UWUC \x8b\xbcA\xe6\x98\xc9C\xd2:\x0bC\xe4\xd21C\x10\xa2\xb7B\xa5\xbd\xbfC7b\x85B\xd1\x01\xecBR\r\xe5C!,\xfcC\xb7\xfb,C\x19+\x0fC\xf5\xe4\xf3Cy\xb5\x01B\x16c\x92C\xd0\xa3bBL\xe7\xb0C\xce~\xafB\xfeT\xe7C\xf6I\xd1B\x1f*\x98B\t7\xddC\x90\xa5\xcbC\xfe\x82\x94Cw\x01\xd9B\xfc\xf28Be\xdbNC\x82\xe3\xf5C\x80\xd8\xdfC\x01\xac\x9bA\x8fi\xd7C\xb7\x07uC\x10\xd6`C\xfa\xc3\xa1Cz\xaao@m1\xfaC\xbfo\xd2C\x8cS\xe9C\xebP\xa4CExyC\xa6_\xacCi\x19\xa8B\xb7\xaa\xe2C\x0f\x8e\xefC\xe0\x9b\x18C\x88\xdf\xc0Bi\x00\xa0BR\x01\xdbC\xf1\xf8\x8dC\x0bW\x98C\x08\xca\xe3B\xe2\x91yB\x02\xf3!C\x1d\xb3=CY\xf9VA\x89\xaf\x81C\xa8.\xceC\x162eC\x01\xfc\x87C%N\x8fB\xe4\x06\x90C\x07\x8f}C\x9e\x9d\xedC@N\xebC\x00\x9c&C\x1c\xe7\x9bC?\x1b\x05CX7\xc2CX\xf5\xa9C^\xa3\xb7CZ\x0f\xbdC\tp\x13C\x8b;\xd5C<\xc3\x8bC\xdc\x92\xb5C\xfcL\xc4C\xc5\xf9\x83C\x7f]\xc6Ch(\x01C\x827\xfeCnI\xd0C\xb0\x91\x00D\x08\x7f\x0eA=O\xf6B%\x1e\x18B\x0c\xa49C\xd4E\xaeC\xd6\xefnC\xde\xde\xc8BW\xaaiC\x981\xf8C\xa6\x95\xbaC\xfe\x0f\x9eC\xc8\x82\xa6Cc\xc3QB'
S'\x00\x00\x00\x00\x00\x00\x00\x00\x00\x00\x00\x00\x00\x00\x00\x00\x00\x00\x00\x00\x00\x00\x00\x00\x00\x00\x00\x00\x00\x00\x00\x00\x00\x00\x00\x00\x00\x00\x00\x00\x00\x00\x00\x00\x00\x00\x00\x00\x00\x00\x00\x00\x00\x00\x00\x00\x00\x00\x00\x00\x00\x00\x00\x00\x00\x00\x00\x00\x00\x00\x00\x00\x00\x00\x00\x00\x00\x00\x00\x00\x00\x00\x00\x00\x00\x00\x00\x00\x00\x00\x00\x00\x00\x00\x00\x00'
Ntbsg16
g1157
(g1158
(I0
tS'b'
tRp1171
(I1
(I96
I1
tg1160
I00
(lp1172
g505
ag124
ag879
ag382
ag461
ag271
ag835
ag203
ag338
ag1000
ag1110
ag450
ag394
ag1066
ag136
ag659
ag181
ag780
ag260
ag1011
ag305
ag226
ag967
ag890
ag670
ag316
ag159
ag494
ag1077
ag978
ag113
ag945
ag560
ag516
ag714
ag71
ag1099
ag923
ag1022
ag725
ag571
ag758
ag249
ag989
ag1055
ag416
ag282
ag237
ag956
ag637
ag681
ag327
ag192
ag428
ag483
ag100
ag593
ag901
ag527
ag615
ag215
ag648
ag582
ag1044
ag1033
ag439
ag692
ag371
ag846
ag747
ag802
ag824
ag405
ag934
ag626
ag791
ag857
ag604
ag868
ag360
ag1121
ag912
ag1132
ag87
ag349
ag147
ag472
ag769
ag549
ag293
ag538
ag1088
ag813
ag703
ag736
ag170
atbsg15
g1157
(g1158
(I0
tS'b'
tRp1173
(I1
(I96
I1
tg1160
I00
(lp1174
g72
ag88
ag72
ag88
ag72
ag72
ag88
ag88
ag72
ag88
ag72
ag72
ag72
ag88
ag88
ag88
ag88
ag88
ag72
ag72
ag72
ag72
ag72
ag88
ag72
ag72
ag72
ag88
ag88
ag88
ag88
ag88
ag88
ag88
ag72
ag72
ag88
ag72
ag88
ag72
ag88
ag72
ag88
ag88
ag88
ag88
ag72
ag88
ag88
ag88
ag88
ag88
ag88
ag88
ag72
ag88
ag88
ag88
ag88
ag72
ag72
ag88
ag88
ag72
ag72
ag88
ag72
ag72
ag72
ag72
ag88
ag88
ag72
ag72
ag88
ag72
ag88
ag88
ag72
ag88
ag88
ag72
ag72
ag88
ag88
ag72
ag72
ag72
ag72
ag72
ag72
ag88
ag88
ag72
ag88
ag72
atbsg22
g1162
(g1163
g1158
g1164
S'b'
tRp1175
(I1
(I96
I1
tg1166
I00
S'\xc1\xb3^C\xeb\xe5\xeeA\xa7\xa7\xcaC\xb6,\rC\x1815C*\xf2\xbcB]\x19\xc1Cl\x1d\x8aB\x1e3\xf1B=S\xe6C\xc05\xfdC\xce\xcc/Co~\x11C+\xe8\xf4C\xabU\x0cB\xaa~\x93C\xeb\xd5qB\xd2\x8f\xb4C#*\xb3B\xa2U\xe8Cl\xfa\xd4B\xfb\xe9\x9bBn\xa3\xdeCK\xbd\xccC\x7f6\x97C\xe6p\xdfBd\x95GB\xee\x1dSC\x887\xf7C/\x81\xe1C6\x8d\xabA\xcc\xd7\xd9C1\xadwC\xd48cC\x07J\xa3C\xcf\xa4\xb8@\x112\xfbC<\xf3\xd3C0T\xeaC\x9bz\xa5Cx\x9d{C|J\xadCo\x91\xabBF\xcf\xe3Cn\xbb\xf2C\r\xf2\x1fC\xe2\x00\xc5B\xa0@\xa4B\x9e\x1b\xdcC\xb8\xfe\x8eC\xb1\xcb\x9aCq\x14\xe8Bpe\x81B4\x18$C\x8eiLC6\xf4\x87A\xe7\xe9\x82C;S\xcfC\xc9\xb8gC\xd1\xa7\x8aC\\j\x93B\xbd^\x91C\xcc\xa4\x80C\x00\x94\xeeC\xa3\x7f\xecC\xe5\xc8(C\xef\x15\x9dC[N\tC\x19F\xc3CG2\xabC\x82@\xb9Ci\x95\xbeC\x0f\xa0\x16C\t@\xd6C\xca\xde\x8cC\x1b\x84\xb6C\x01f\xc5C?\xfa\x86C\xf8\xa3\xc8Cc1\x03C\x95\x16\x00DvY\xd1C\x13\x10\x01DU\x8e7A$4\xfcB\xad\x170B\x8d\xc1;C\x84\xee\xafC\xb9\x18sCQR\xcdB%\xf9lC72\xf9C\x86\xed\xbbC\xa2I\xa0C\x8f\xc1\xa8C\xbe\x95ZB'
S'\x00\x00\x00\x00\x00\x00\x00\x00\x00\x00\x00\x00\x00\x00\x00\x00\x00\x00\x00\x00\x00\x00\x00\x00\x00\x00\x00\x00\x00\x00\x00\x00\x00\x00\x00\x00\x00\x00\x00\x00\x00\x00\x00\x00\x00\x00\x00\x00\x00\x00\x00\x00\x00\x00\x00\x00\x00\x00\x00\x00\x00\x00\x00\x00\x00\x00\x00\x00\x00\x00\x00\x00\x00\x00\x00\x00\x00\x00\x00\x00\x00\x00\x00\x00\x00\x00\x00\x00\x00\x00\x00\x00\x00\x00\x00\x00'
Ntbsg26
g1157
(g1158
(I0
tS'b'
tRp1176
(I1
(I96
I1
tg1160
I00
(lp1177
g36
(g80
S'\x13\x00\x00\x00'
tRp1178
ag36
(g80
S'\x05\x00\x00\x00'
tRp1179
ag36
(g80
S'\r\x00\x00\x00'
tRp1180
ag36
(g80
S'\t\x00\x00\x00'
tRp1181
ag36
(g80
S'\x17\x00\x00\x00'
tRp1182
ag36
(g80
S'\x08\x00\x00\x00'
tRp1183
ag36
(g80
S'\x06\x00\x00\x00'
tRp1184
ag36
(g80
S'\x04\x00\x00\x00'
tRp1185
ag36
(g80
S'\n\x00\x00\x00'
tRp1186
ag36
(g80
S'\x07\x00\x00\x00'
tRp1187
ag36
(g80
S'\x10\x00\x00\x00'
tRp1188
ag36
(g80
S'\x19\x00\x00\x00'
tRp1189
ag36
(g80
S'\x0c\x00\x00\x00'
tRp1190
ag36
(g80
S'\n\x00\x00\x00'
tRp1191
ag36
(g80
S'\x07\x00\x00\x00'
tRp1192
ag36
(g80
S'\x1a\x00\x00\x00'
tRp1193
ag36
(g80
S'\x05\x00\x00\x00'
tRp1194
ag36
(g80
S'\x06\x00\x00\x00'
tRp1195
ag36
(g80
S'\t\x00\x00\x00'
tRp1196
ag36
(g80
S'\x04\x00\x00\x00'
tRp1197
ag36
(g80
S'\x07\x00\x00\x00'
tRp1198
ag36
(g80
S'\x05\x00\x00\x00'
tRp1199
ag36
(g80
S'\x0c\x00\x00\x00'
tRp1200
ag36
(g80
S'\x0b\x00\x00\x00'
tRp1201
ag36
(g80
S'\x17\x00\x00\x00'
tRp1202
ag36
(g80
S'\n\x00\x00\x00'
tRp1203
ag36
(g80
S'\x07\x00\x00\x00'
tRp1204
ag36
(g80
S'\x12\x00\x00\x00'
tRp1205
ag36
(g80
S'\r\x00\x00\x00'
tRp1206
ag36
(g80
S'\x0b\x00\x00\x00'
tRp1207
ag36
(g80
S'\x06\x00\x00\x00'
tRp1208
ag36
(g80
S'\r\x00\x00\x00'
tRp1209
ag36
(g80
S'\x1d\x00\x00\x00'
tRp1210
ag36
(g80
S'\x15\x00\x00\x00'
tRp1211
ag36
(g80
S'\x10\x00\x00\x00'
tRp1212
aS'5.0'
p1213
ag36
(g80
S'\x12\x00\x00\x00'
tRp1214
ag36
(g80
S'\x0c\x00\x00\x00'
tRp1215
ag36
(g80
S'\x06\x00\x00\x00'
tRp1216
ag36
(g80
S'\x13\x00\x00\x00'
tRp1217
ag36
(g80
S'\x1c\x00\x00\x00'
tRp1218
ag36
(g80
S'\x0b\x00\x00\x00'
tRp1219
ag36
(g80
S'\x06\x00\x00\x00'
tRp1220
ag36
(g80
S'\t\x00\x00\x00'
tRp1221
ag36
(g80
S'\x08\x00\x00\x00'
tRp1222
ag36
(g80
S'\x10\x00\x00\x00'
tRp1223
ag36
(g80
S'\x05\x00\x00\x00'
tRp1224
ag36
(g80
S'\x04\x00\x00\x00'
tRp1225
ag36
(g80
S'\x0e\x00\x00\x00'
tRp1226
ag36
(g80
S'\x17\x00\x00\x00'
tRp1227
ag36
(g80
S'\x14\x00\x00\x00'
tRp1228
ag36
(g80
S'\x07\x00\x00\x00'
tRp1229
ag36
(g80
S'\x06\x00\x00\x00'
tRp1230
ag36
(g80
S'\x13\x00\x00\x00'
tRp1231
ag36
(g80
S'\x11\x00\x00\x00'
tRp1232
ag36
(g80
S'\x07\x00\x00\x00'
tRp1233
ag36
(g80
S'\x17\x00\x00\x00'
tRp1234
ag36
(g80
S'\n\x00\x00\x00'
tRp1235
ag36
(g80
S'\x16\x00\x00\x00'
tRp1236
ag36
(g80
S'\x15\x00\x00\x00'
tRp1237
ag36
(g80
S'\x02\x00\x00\x00'
tRp1238
ag36
(g80
S'\x19\x00\x00\x00'
tRp1239
ag36
(g80
S'\x1a\x00\x00\x00'
tRp1240
ag36
(g80
S'\n\x00\x00\x00'
tRp1241
ag36
(g80
S'\x08\x00\x00\x00'
tRp1242
ag36
(g80
S'\x16\x00\x00\x00'
tRp1243
ag36
(g80
S'\x12\x00\x00\x00'
tRp1244
ag36
(g80
S'\x07\x00\x00\x00'
tRp1245
ag36
(g80
S'\t\x00\x00\x00'
tRp1246
ag36
(g80
S'\r\x00\x00\x00'
tRp1247
ag36
(g80
S'\x06\x00\x00\x00'
tRp1248
ag36
(g80
S'\x07\x00\x00\x00'
tRp1249
ag36
(g80
S'\x0e\x00\x00\x00'
tRp1250
ag36
(g80
S'\x0e\x00\x00\x00'
tRp1251
ag36
(g80
S'\x14\x00\x00\x00'
tRp1252
ag36
(g80
S'\t\x00\x00\x00'
tRp1253
ag36
(g80
S'\x08\x00\x00\x00'
tRp1254
ag36
(g80
S'\x18\x00\x00\x00'
tRp1255
ag36
(g80
S'\n\x00\x00\x00'
tRp1256
ag36
(g80
S'\x08\x00\x00\x00'
tRp1257
ag36
(g80
S'\r\x00\x00\x00'
tRp1258
ag36
(g80
S'\x0b\x00\x00\x00'
tRp1259
ag36
(g80
S'\x0f\x00\x00\x00'
tRp1260
aS'4.0'
p1261
ag36
(g80
S'\t\x00\x00\x00'
tRp1262
ag36
(g80
S'\x08\x00\x00\x00'
tRp1263
ag36
(g80
S'\x14\x00\x00\x00'
tRp1264
ag36
(g80
S'\x08\x00\x00\x00'
tRp1265
ag36
(g80
S'\x1b\x00\x00\x00'
tRp1266
ag36
(g80
S'\x04\x00\x00\x00'
tRp1267
ag36
(g80
S'\x19\x00\x00\x00'
tRp1268
ag36
(g80
S'\x10\x00\x00\x00'
tRp1269
ag36
(g80
S'\t\x00\x00\x00'
tRp1270
ag36
(g80
S'\x11\x00\x00\x00'
tRp1271
ag36
(g80
S'\x10\x00\x00\x00'
tRp1272
ag36
(g80
S'\x06\x00\x00\x00'
tRp1273
atbsg21
g1162
(g1163
g1158
g1164
S'b'
tRp1274
(I1
(I96
I1
tg1166
I00
S'\x02\xae\xfd@,\t\xa0@;\xa83?)\x00\x1a?\xac1\xf1?>\\\xa9?\xf5\x9e\xb3?\xc4D\x89?U\x18\x9f?\xdf?\x9b?\xddb)?\xf9\x12\xa8?\xb8.q?:d)?q\xa4\xaa?x\xa63?\xd7p\x1e@\x11\xc9\xbf@\\V\x00?\x95\xc78?0V\x00?!M\x12?\xa8\x99\xbc?\tpR?\x05\xcdz@\xfb\xa0\xee?b-\x14@J\xe34@f\xa9\xa1?y,\xfa?\xfd\xf3+?\xf8\xef]@\x8c\xda\x8b?\xe9\x17l?\' \xd1?\x8a\x161?\xe3K\x12?\xa1\xf9\xd4?\xa8\x84.?\x02\xb3\\?E\x8f\x1c?\xd0I\xf1>\xed\xc1\xdc>\xb4\xa9n?\x15\t\xa0@?\x8a\xbd@Mz@?:zR?y\xbdJ?\x0e\xbc\x0f?\xc3\xa7\\@\xdc\x00U?\xea\x0c~?\xf4\x151?y\xc9TA\x89g\x0e@J\xecx?[\x8ei?wp\x85?e\x98w@\xb2\xbdJ?\x99\x18\x96?\x88g\x0e@\x07\xbb\x0f?\xe2\xb8\x86?\xf066?\x0f\x88i?\x8dq7@\xc9\x0bC?\x8a\xda\x8b?B\xc2\xf3?[\xad\xdc?\xe2\xa5\xe5?LB$?\xa0o@?\x14\xe7\x02?\xe0!Z?0\x00\x90@\x85\xfaK@\xa1\x151?\xd3I"@Y\xe9=?\x92A\x12?$:\xa4?e\x8f\xce?\xb4\xcf\x94@\x16\xd2&?\x98\x05\xfe?q\x0f(@\x80\xa8n?\x80\xee\xe6?*c\x17?\xf3\xa3\xaa?C\x13A@\xde\xffB@a\xd4a?'
S'\x00\x00\x00\x00\x00\x00\x00\x00\x00\x00\x00\x00\x00\x00\x00\x00\x00\x00\x00\x00\x00\x00\x00\x00\x00\x00\x00\x00\x00\x00\x00\x00\x00\x00\x00\x00\x00\x00\x00\x00\x00\x00\x00\x00\x00\x00\x00\x00\x00\x00\x00\x00\x00\x00\x00\x00\x00\x00\x00\x00\x00\x00\x00\x00\x00\x00\x00\x00\x00\x00\x00\x00\x00\x00\x00\x00\x00\x00\x00\x00\x00\x00\x00\x00\x00\x00\x00\x00\x00\x00\x00\x00\x00\x00\x00\x00'
NtbsS'order'
p1275
g1162
(g1163
g1158
g1164
S'b'
tRp1276
(I1
(I96
I1
tg1166
I00
S'\x00\x00\x18B\x00\x00\x80@\x00\x00\x90B\x00\x00\xd8A\x00\x00\x08B\x00\x00\x88A\x00\x00\x88B\x00\x000A\x00\x00\xb8A\x00\x00\xa6B\x00\x00\xbaB\x00\x00\x04B\x00\x00\xe0A\x00\x00\xb2B\x00\x00\xa0@\x00\x00PB\x00\x00\x10A\x00\x00|B\x00\x00\x80A\x00\x00\xa8B\x00\x00\xa0A\x00\x00PA\x00\x00\xa0B\x00\x00\x92B\x00\x00TB\x00\x00\xa8A\x00\x00\xe0@\x00\x00\x14B\x00\x00\xb4B\x00\x00\xa2B\x00\x00@@\x00\x00\x9cB\x00\x00,B\x00\x00\x1cB\x00\x00dB\x00\x00\x00\x00\x00\x00\xb8B\x00\x00\x98B\x00\x00\xaaB\x00\x00hB\x00\x000B\x00\x00tB\x00\x00pA\x00\x00\xa4B\x00\x00\xb0B\x00\x00\xf0A\x00\x00\x90A\x00\x00`A\x00\x00\x9eB\x00\x00HB\x00\x00XB\x00\x00\xb0A\x00\x00 A\x00\x00\xf8A\x00\x00\x10B\x00\x00\x00@\x00\x008B\x00\x00\x94B\x00\x00 B\x00\x00@B\x00\x00@A\x00\x00LB\x00\x004B\x00\x00\xaeB\x00\x00\xacB\x00\x00\x00B\x00\x00\\B\x00\x00\xd0A\x00\x00\x8aB\x00\x00pB\x00\x00\x82B\x00\x00\x86B\x00\x00\xe8A\x00\x00\x9aB\x00\x00DB\x00\x00\x80B\x00\x00\x8cB\x00\x00<B\x00\x00\x8eB\x00\x00\xc8A\x00\x00\xbcB\x00\x00\x96B\x00\x00\xbeB\x00\x00\x80?\x00\x00\xc0A\x00\x00\xc0@\x00\x00\x0cB\x00\x00xB\x00\x00(B\x00\x00\x98A\x00\x00$B\x00\x00\xb6B\x00\x00\x84B\x00\x00`B\x00\x00lB\x00\x00\x00A'
S'\x00\x00\x00\x00\x00\x00\x00\x00\x00\x00\x00\x00\x00\x00\x00\x00\x00\x00\x00\x00\x00\x00\x00\x00\x00\x00\x00\x00\x00\x00\x00\x00\x00\x00\x00\x00\x00\x00\x00\x00\x00\x00\x00\x00\x00\x00\x00\x00\x00\x00\x00\x00\x00\x00\x00\x00\x00\x00\x00\x00\x00\x00\x00\x00\x00\x00\x00\x00\x00\x00\x00\x00\x00\x00\x00\x00\x00\x00\x00\x00\x00\x00\x00\x00\x00\x00\x00\x00\x00\x00\x00\x00\x00\x00\x00\x00'
Ntbsg19
g1162
(g1163
g1158
g1164
S'b'
tRp1277
(I1
(I96
I1
tg1166
I00
S'\x00\x00\x00\x00\x00\x00\x80?\x00\x00\x80?\x00\x00\x80?\x00\x00\x80?\x00\x00\x80?\x00\x00\x80?\x00\x00\x80?\x00\x00\x80?\x00\x00\x80?\x00\x00\x80?\x00\x00\x80?\x00\x00\x80?\x00\x00\x80?\x00\x00\x80?\x00\x00\x80?\x00\x00\x80?\x00\x00\x80?\x00\x00\x00\x00\x00\x00\x00\x00\x00\x00\x80?\x00\x00\x80?\x00\x00\x80?\x00\x00\x80?\x00\x00\x80?\x00\x00\x80?\x00\x00\x80?\x00\x00\x80?\x00\x00\x00\x00\x00\x00\x80?\x00\x00\x00\x00\x00\x00\x00\x00\x00\x00\x80?\x00\x00\x00\x00\x00\x00\x80?\x00\x00\x80?\x00\x00\x80?\x00\x00\x80?\x00\x00\x80?\x00\x00\x80?\x00\x00\x80?\x00\x00\x80?\x00\x00\x00\x00\x00\x00\x80?\x00\x00\x80?\x00\x00\x00\x00\x00\x00\x80?\x00\x00\x80?\x00\x00\x80?\x00\x00\x80?\x00\x00\x80?\x00\x00\x00\x00\x00\x00\x80?\x00\x00\x80?\x00\x00\x80?\x00\x00\x80?\x00\x00\x80?\x00\x00\x00\x00\x00\x00\x80?\x00\x00\x00\x00\x00\x00\x00\x00\x00\x00\x80?\x00\x00\x80?\x00\x00\x80?\x00\x00\x00\x00\x00\x00\x00\x00\x00\x00\x00\x00\x00\x00\x80?\x00\x00\x80?\x00\x00\x80?\x00\x00\x80?\x00\x00\x00\x00\x00\x00\x00\x00\x00\x00\x80?\x00\x00\x80?\x00\x00\x80?\x00\x00\x80?\x00\x00\x80?\x00\x00\x00\x00\x00\x00\x80?\x00\x00\x00\x00\x00\x00\x80?\x00\x00\x80?\x00\x00\x80?\x00\x00\x80?\x00\x00\x00\x00\x00\x00\x80?\x00\x00\x80?\x00\x00\x00\x00\x00\x00\x80?\x00\x00\x80?\x00\x00\x80?\x00\x00\x80?\x00\x00\x80?\x00\x00\x80?\x00\x00\x80?'
S'\x00\x00\x00\x00\x00\x00\x00\x00\x00\x00\x00\x00\x00\x00\x00\x00\x00\x00\x00\x00\x00\x00\x00\x00\x00\x00\x00\x00\x00\x00\x00\x00\x00\x00\x00\x00\x00\x00\x00\x00\x00\x00\x00\x00\x00\x00\x00\x00\x00\x00\x00\x00\x00\x00\x00\x00\x00\x00\x00\x00\x00\x00\x00\x00\x00\x00\x00\x00\x00\x00\x00\x00\x00\x00\x00\x00\x00\x00\x00\x00\x00\x00\x00\x00\x00\x00\x00\x00\x00\x00\x00\x00\x00\x00\x00\x00'
Ntbsg27
g1157
(g1158
(I0
tS'b'
tRp1278
(I1
(I96
I1
tg1160
I00
(lp1279
g507
ag127
ag881
ag385
ag463
ag273
ag837
ag206
ag340
ag1002
ag1112
ag452
ag396
ag1068
ag138
ag661
ag183
ag782
ag262
ag1013
ag307
ag228
ag969
ag892
ag672
ag318
ag161
ag496
ag1079
ag980
ag115
ag947
ag562
ag518
ag716
ag76
ag1101
ag925
ag1024
ag727
ag573
ag760
ag251
ag991
ag1057
ag419
ag284
ag240
ag958
ag639
ag683
ag329
ag194
ag430
ag485
ag104
ag595
ag903
ag529
ag617
ag217
ag650
ag584
ag1046
ag1035
ag441
ag694
ag373
ag848
ag749
ag804
ag826
ag407
ag936
ag628
ag793
ag859
ag606
ag870
ag362
ag1123
ag914
ag1134
ag91
ag351
ag150
ag474
ag771
ag551
ag296
ag540
ag1090
ag815
ag705
ag738
ag172
atbsg23
g1157
(g1158
(I0
tS'b'
tRp1280
(I1
(I96
I1
tg1160
I00
(lp1281
S'1'
aS'1'
aS'3'
aS'1'
aS'3'
aS'3'
aS'1'
aS'3'
aS'2'
aS'3'
aS'3'
aS'3'
aS'1'
aS'1'
aS'1'
aS'3'
aS'1'
aS'1'
aS'2'
aS'1'
aS'1'
aS'2'
aS'2'
aS'2'
aS'3'
aS'3'
aS'2'
aS'1'
aS'1'
aS'3'
aS'2'
aS'1'
aS'2'
aS'1'
aS'1'
aS'2'
aS'3'
aS'1'
aS'1'
aS'3'
aS'3'
aS'3'
aS'1'
aS'3'
aS'1'
aS'1'
aS'2'
aS'1'
aS'3'
aS'1'
aS'3'
aS'1'
aS'3'
aS'1'
aS'1'
aS'2'
aS'1'
aS'1'
aS'1'
aS'2'
aS'1'
aS'1'
aS'3'
aS'3'
aS'1'
aS'1'
aS'2'
aS'1'
aS'2'
aS'3'
aS'1'
aS'2'
aS'1'
aS'2'
aS'1'
aS'3'
aS'1'
aS'3'
aS'1'
aS'2'
aS'1'
aS'1'
aS'3'
aS'1'
aS'2'
aS'2'
aS'3'
aS'3'
aS'1'
aS'1'
aS'1'
aS'1'
aS'3'
aS'2'
aS'3'
aS'2'
atbsg18
g1162
(g1163
g1158
g1164
S'b'
tRp1282
(I1
(I96
I1
tg1166
I00
S'\r\xc1VC\x8f\xb9\xc6A2K\xcaCs\x8d\x0cCqI3C1B\xbaB\x1dc\xc0C\xd2\xed\x87B7\xac\xeeB[\xb5\xe5Cm\xde\xfcCew.C\xfd\x87\x10C\xd6\x90\xf4C|\xeb\x06B5"\x93C\xd4\xd9gB\x0c\x8e\xb1C\xf0\x1e\xb2B\x9d\xf6\xe7C\x18\xea\xd3B\xdc\xba\x9aB3\xe4\xddCqQ\xccCC>\x95C\xdc\xab\xdbB\x83=>B\x1eEPC=\x93\xf6Cb\x84\xe0C\x80\x03\xa6AJ\x19\xd8C9\x90vCzGbCFv\xa2C6\x85\xa1@J\xe6\xfaC\xa1\x1b\xd3CL\xfa\xe9C\xa0\t\xa5C\xa6\xfbzC\x88\x0b\xadC$\xaa\xaaBPU\xe3C_7\xf0Cx\x00\x1aChu\xc3B&\x91\xa2B\x9e\xb3\xdbC8\xb4\x8eC\xc0\x0f\x99C\xe7_\xe6B\x9e\xbd~B\xdba#C\xb4\x17?Cf\xfakA\xcfj\x82C\xd2\xdb\xceC\xa3\xa8fC\xff\xb5\x88C[\xca\x91B\x03\xc6\x90C\xb5\n\x7fC\x7fI\xeeCH\xf6\xebCl\r(C\x89\x9e\x9cC\xbfh\x06C\xf2\xe1\xc2C\xca\xa3\xaaC\xd6H\xb8C\x1a\xb6\xbdC\x7f\xcf\x14CF\xeb\xd5C\xf1{\x8cC\x06@\xb6CN\xf6\xc4C\x9c\xb7\x84Ca\t\xc7C\t{\x02C\xf5\xe5\xfeC\xf7\xf7\xd0C2\xea\x00D\xdc\xb2"A_\xef\xf8B\xa7h\x1dBx\x15;C\xdc\xed\xaeC\xf4ppCzj\xcbB\x05&kC\xe3\xe3\xf8C@@\xbbC\xda\xc4\x9eC\xa47\xa7Ca\xf9VB'
S'\x00\x00\x00\x00\x00\x00\x00\x00\x00\x00\x00\x00\x00\x00\x00\x00\x00\x00\x00\x00\x00\x00\x00\x00\x00\x00\x00\x00\x00\x00\x00\x00\x00\x00\x00\x00\x00\x00\x00\x00\x00\x00\x00\x00\x00\x00\x00\x00\x00\x00\x00\x00\x00\x00\x00\x00\x00\x00\x00\x00\x00\x00\x00\x00\x00\x00\x00\x00\x00\x00\x00\x00\x00\x00\x00\x00\x00\x00\x00\x00\x00\x00\x00\x00\x00\x00\x00\x00\x00\x00\x00\x00\x00\x00\x00\x00'
Ntbsg25
g1162
(g1163
g1158
g1164
S'b'
tRp1283
(I1
(I96
I1
tg1166
I00
S'\xc2c\xcd>7\x01U?\xa3d\x80>\xa1\x85\x85>=\xd5-@=Cl>\x03W\x00?\x90\xb2\\?[oR?\xaf\xc8\x8f>&\xb5\x8f>\x19\xea\x94>\xf5\xbbW>S\x1al>\xe0?\x9b?\xf5\x0f\x9a>\x90|M>H\xea\x94>\xbcV\x00?\x1bd\x80>\x9c\xc8\x8f>p.\x9f>$\x84.?rD\x92?\x9cw\x05?\xc5\xe2\xe1>#\xdfO?\x8a\x8a\xfb>\xea\xc5W>\x0cm\x17?L=\xc8>Zm\x17?\n)w==\x86v>\xf6N\xa4>\xe0\x9e\xb3?E\xc4W>x\x00U?r\xbdW>\xcdt\xa9>r\xbeW>\x03Bl>CAl>\xa8z@?\xeel\x17?&\xa8\x8a>KvM>\x819C>~h\xf6>\x84s\xa9>\x0ck\xf6>\x88Al>\xdf\x85\x85>\x17,H?\xfc66?)Y;?H:\xc8>f4C>\xa1\xc0W>\xd4k\xf6>\x97A$?\xa4\x0c\x9a>\xfe\xb6\xb3>%\x00b>\x80K\x00?;\xcc\x1d@<\xd7a>!5C>!P\xa4>\xaa\x1f\x1f?\xd6\xa7n?p\xdc\x14?\xeac\x80>\x08m\x17?\xe2F\xf1>\xea\xe6\x02?vxM>\xb6\xc9\x8f>\xd0\xf88>\xf8\xf28>\x815C>\xbf\xcd\xe1>\xd6\x85\x85>\x16Al>k[\xa9?bn\xf6>\x95\xbeW>N\xbcW>\x12~M>nd\x80>\x05Bl>\xd1\x84\x85>Z\x08\x08?c\x82\x9c?\x84\xf3+?\xa1\xc8\x8f>'
S'\x00\x00\x00\x00\x00\x00\x00\x00\x00\x00\x00\x00\x00\x00\x00\x00\x00\x00\x00\x00\x00\x00\x00\x00\x00\x00\x00\x00\x00\x00\x00\x00\x00\x00\x00\x00\x00\x00\x00\x00\x00\x00\x00\x00\x00\x00\x00\x00\x00\x00\x00\x00\x00\x00\x00\x00\x00\x00\x00\x00\x00\x00\x00\x00\x00\x00\x00\x00\x00\x00\x00\x00\x00\x00\x00\x00\x00\x00\x00\x00\x00\x00\x00\x00\x00\x00\x00\x00\x00\x00\x00\x00\x00\x00\x00\x00'
NtbstRp1284
(dp1285
S'isNumeric'
p1286
(dp1287
g23
I00
sg20
I00
sg17
I01
sg1167
I01
sg22
I01
sg24
I01
sg14
I01
sg18
I01
sg16
I00
sg19
I01
sg26
I00
sg27
I00
sg15
I00
sg21
I01
sg1275
I01
sg25
I01
ssg1151
g1145
sS'dataTypes'
p1288
(lp1289
g1167
ag1275
ag14
ag15
ag16
ag17
ag18
ag19
ag20
ag21
ag22
ag23
ag24
ag25
ag26
ag27
asS'dataShape'
p1290
(lp1291
I96
aI1
asbsS'method'
p1292
S'random'
p1293
sS'sequenceIndices'
p1294
g1157
(g1158
(I0
tS'b'
tRp1295
(I1
(I96
I1
tg80
I01
S'#\x00\x00\x00S\x00\x00\x007\x00\x00\x00\x1e\x00\x00\x00\x01\x00\x00\x00\x0e\x00\x00\x00U\x00\x00\x00\x1a\x00\x00\x00_\x00\x00\x00\x10\x00\x00\x004\x00\x00\x00\x07\x00\x00\x00<\x00\x00\x00\x15\x00\x00\x00/\x00\x00\x00*\x00\x00\x00\x12\x00\x00\x00\x05\x00\x00\x00.\x00\x00\x00Y\x00\x00\x00\x14\x00\x00\x00\x19\x00\x00\x003\x00\x00\x00\x08\x00\x00\x00T\x00\x00\x00O\x00\x00\x00C\x00\x00\x00\x03\x00\x00\x00\x0c\x00\x00\x00H\x00\x00\x00-\x00\x00\x005\x00\x00\x00A\x00\x00\x00\x0b\x00\x00\x00\x04\x00\x00\x00V\x00\x00\x006\x00\x00\x00\x1b\x00\x00\x00\x00\x00\x00\x00!\x00\x00\x00:\x00\x00\x00Z\x00\x00\x00X\x00\x00\x00 \x00\x00\x00(\x00\x00\x00>\x00\x00\x008\x00\x00\x00M\x00\x00\x00;\x00\x00\x00J\x00\x00\x001\x00\x00\x00=\x00\x00\x00\x0f\x00\x00\x00\x18\x00\x00\x002\x00\x00\x00B\x00\x00\x00]\x00\x00\x00"\x00\x00\x00\'\x00\x00\x00^\x00\x00\x00E\x00\x00\x00)\x00\x00\x00W\x00\x00\x00\x11\x00\x00\x00K\x00\x00\x00F\x00\x00\x00\\\x00\x00\x00G\x00\x00\x00\x06\x00\x00\x00D\x00\x00\x00L\x00\x00\x00N\x00\x00\x00\x02\x00\x00\x00\x17\x00\x00\x009\x00\x00\x00Q\x00\x00\x00%\x00\x00\x00I\x00\x00\x00\x1f\x00\x00\x000\x00\x00\x00\x16\x00\x00\x00\x1d\x00\x00\x00+\x00\x00\x00\t\x00\x00\x00\x13\x00\x00\x00&\x00\x00\x00@\x00\x00\x00?\x00\x00\x00,\x00\x00\x00\r\x00\x00\x00\x1c\x00\x00\x00[\x00\x00\x00$\x00\x00\x00\n\x00\x00\x00P\x00\x00\x00R\x00\x00\x00'
tbsS'finished'
p1296
I01
sS'nReps'
p1297
I1
sS'nRemaining'
p1298
I-1
sS'trialList'
p1299
(lp1300
g1
(cpsychopy.data
TrialType
p1301
g1155
(dp1302
g62
g74
sg63
g513
sg64
g238
sg65
g508
sg66
g512
stRp1303
ag1
(g1301
g1155
(dp1304
g62
g102
sg63
g133
sg64
g125
sg65
g128
sg66
g132
stRp1305
ag1
(g1301
g1155
(dp1306
g62
g74
sg63
g887
sg64
g238
sg65
g882
sg66
g886
stRp1307
ag1
(g1301
g1155
(dp1308
g62
g74
sg63
g391
sg64
g383
sg65
g386
sg66
g390
stRp1309
ag1
(g1301
g1155
(dp1310
g62
g102
sg63
g469
sg64
g148
sg65
g464
sg66
g468
stRp1311
ag1
(g1301
g1155
(dp1312
g62
g74
sg63
g279
sg64
g238
sg65
g274
sg66
g278
stRp1313
ag1
(g1301
g1155
(dp1314
g62
g74
sg63
g843
sg64
g238
sg65
g838
sg66
g842
stRp1315
ag1
(g1301
g1155
(dp1316
g62
g74
sg63
g212
sg64
g204
sg65
g207
sg66
g211
stRp1317
ag1
(g1301
g1155
(dp1318
g62
g74
sg63
g346
sg64
g238
sg65
g341
sg66
g345
stRp1319
ag1
(g1301
g1155
(dp1320
g62
g74
sg63
g1008
sg64
g204
sg65
g1003
sg66
g1007
stRp1321
ag1
(g1301
g1155
(dp1322
g62
g102
sg63
g1118
sg64
g417
sg65
g1113
sg66
g1117
stRp1323
ag1
(g1301
g1155
(dp1324
g62
g74
sg63
g458
sg64
g204
sg65
g453
sg66
g457
stRp1325
ag1
(g1301
g1155
(dp1326
g62
g74
sg63
g402
sg64
g73
sg65
g397
sg66
g401
stRp1327
ag1
(g1301
g1155
(dp1328
g62
g102
sg63
g1074
sg64
g125
sg65
g1069
sg66
g1073
stRp1329
ag1
(g1301
g1155
(dp1330
g62
g74
sg63
g144
sg64
g73
sg65
g139
sg66
g143
stRp1331
ag1
(g1301
g1155
(dp1332
g62
g74
sg63
g667
sg64
g238
sg65
g662
sg66
g666
stRp1333
ag1
(g1301
g1155
(dp1334
g62
g102
sg63
g189
sg64
g125
sg65
g184
sg66
g188
stRp1335
ag1
(g1301
g1155
(dp1336
g62
g74
sg63
g788
sg64
g73
sg65
g783
sg66
g787
stRp1337
ag1
(g1301
g1155
(dp1338
g62
g74
sg63
g268
sg64
g89
sg65
g263
sg66
g267
stRp1339
ag1
(g1301
g1155
(dp1340
g62
g74
sg63
g1019
sg64
g238
sg65
g1014
sg66
g1018
stRp1341
ag1
(g1301
g1155
(dp1342
g62
g102
sg63
g313
sg64
g125
sg65
g308
sg66
g312
stRp1343
ag1
(g1301
g1155
(dp1344
g62
g102
sg63
g234
sg64
g101
sg65
g229
sg66
g233
stRp1345
ag1
(g1301
g1155
(dp1346
g62
g74
sg63
g975
sg64
g89
sg65
g970
sg66
g974
stRp1347
ag1
(g1301
g1155
(dp1348
g62
g102
sg63
g898
sg64
g101
sg65
g893
sg66
g897
stRp1349
ag1
(g1301
g1155
(dp1350
g62
g102
sg63
g678
sg64
g417
sg65
g673
sg66
g677
stRp1351
ag1
(g1301
g1155
(dp1352
g62
g74
sg63
g324
sg64
g294
sg65
g319
sg66
g323
stRp1353
ag1
(g1301
g1155
(dp1354
g62
g102
sg63
g167
sg64
g148
sg65
g162
sg66
g166
stRp1355
ag1
(g1301
g1155
(dp1356
g62
g102
sg63
g502
sg64
g125
sg65
g497
sg66
g501
stRp1357
ag1
(g1301
g1155
(dp1358
g62
g74
sg63
g1085
sg64
g73
sg65
g1080
sg66
g1084
stRp1359
ag1
(g1301
g1155
(dp1360
g62
g74
sg63
g986
sg64
g238
sg65
g981
sg66
g985
stRp1361
ag1
(g1301
g1155
(dp1362
g62
g74
sg63
g121
sg64
g89
sg65
g116
sg66
g120
stRp1363
ag1
(g1301
g1155
(dp1364
g62
g74
sg63
g953
sg64
g89
sg65
g948
sg66
g952
stRp1365
ag1
(g1301
g1155
(dp1366
g62
g102
sg63
g568
sg64
g125
sg65
g563
sg66
g567
stRp1367
ag1
(g1301
g1155
(dp1368
g62
g102
sg63
g524
sg64
g148
sg65
g519
sg66
g523
stRp1369
ag1
(g1301
g1155
(dp1370
g62
g102
sg63
g722
sg64
g148
sg65
g717
sg66
g721
stRp1371
ag1
(g1301
g1155
(dp1372
g62
g74
sg63
g84
sg64
g73
sg65
g78
sg66
g83
stRp1373
ag1
(g1301
g1155
(dp1374
g62
g74
sg63
g1107
sg64
g294
sg65
g1102
sg66
g1106
stRp1375
ag1
(g1301
g1155
(dp1376
g62
g74
sg63
g931
sg64
g383
sg65
g926
sg66
g930
stRp1377
ag1
(g1301
g1155
(dp1378
g62
g102
sg63
g1030
sg64
g148
sg65
g1025
sg66
g1029
stRp1379
ag1
(g1301
g1155
(dp1380
g62
g102
sg63
g733
sg64
g125
sg65
g728
sg66
g732
stRp1381
ag1
(g1301
g1155
(dp1382
g62
g102
sg63
g579
sg64
g125
sg65
g574
sg66
g578
stRp1383
ag1
(g1301
g1155
(dp1384
g62
g74
sg63
g766
sg64
g73
sg65
g761
sg66
g765
stRp1385
ag1
(g1301
g1155
(dp1386
g62
g102
sg63
g257
sg64
g148
sg65
g252
sg66
g256
stRp1387
ag1
(g1301
g1155
(dp1388
g62
g102
sg63
g997
sg64
g101
sg65
g992
sg66
g996
stRp1389
ag1
(g1301
g1155
(dp1390
g62
g102
sg63
g1063
sg64
g148
sg65
g1058
sg66
g1062
stRp1391
ag1
(g1301
g1155
(dp1392
g62
g102
sg63
g425
sg64
g417
sg65
g420
sg66
g424
stRp1393
ag1
(g1301
g1155
(dp1394
g62
g74
sg63
g290
sg64
g238
sg65
g285
sg66
g289
stRp1395
ag1
(g1301
g1155
(dp1396
g62
g74
sg63
g246
sg64
g238
sg65
g241
sg66
g245
stRp1397
ag1
(g1301
g1155
(dp1398
g62
g102
sg63
g964
sg64
g125
sg65
g959
sg66
g963
stRp1399
ag1
(g1301
g1155
(dp1400
g62
g102
sg63
g645
sg64
g101
sg65
g640
sg66
g644
stRp1401
ag1
(g1301
g1155
(dp1402
g62
g102
sg63
g689
sg64
g125
sg65
g684
sg66
g688
stRp1403
ag1
(g1301
g1155
(dp1404
g62
g102
sg63
g335
sg64
g148
sg65
g330
sg66
g334
stRp1405
ag1
(g1301
g1155
(dp1406
g62
g102
sg63
g200
sg64
g101
sg65
g195
sg66
g199
stRp1407
ag1
(g1301
g1155
(dp1408
g62
g74
sg63
g436
sg64
g73
sg65
g431
sg66
g435
stRp1409
ag1
(g1301
g1155
(dp1410
g62
g74
sg63
g491
sg64
g204
sg65
g486
sg66
g490
stRp1411
ag1
(g1301
g1155
(dp1412
g62
g102
sg63
g110
sg64
g101
sg65
g105
sg66
g109
stRp1413
ag1
(g1301
g1155
(dp1414
g62
g102
sg63
g601
sg64
g148
sg65
g596
sg66
g600
stRp1415
ag1
(g1301
g1155
(dp1416
g62
g102
sg63
g909
sg64
g148
sg65
g904
sg66
g908
stRp1417
ag1
(g1301
g1155
(dp1418
g62
g74
sg63
g535
sg64
g73
sg65
g530
sg66
g534
stRp1419
ag1
(g1301
g1155
(dp1420
g62
g102
sg63
g623
sg64
g148
sg65
g618
sg66
g622
stRp1421
ag1
(g1301
g1155
(dp1422
g62
g102
sg63
g223
sg64
g148
sg65
g218
sg66
g222
stRp1423
ag1
(g1301
g1155
(dp1424
g62
g102
sg63
g656
sg64
g148
sg65
g651
sg66
g655
stRp1425
ag1
(g1301
g1155
(dp1426
g62
g74
sg63
g590
sg64
g294
sg65
g585
sg66
g589
stRp1427
ag1
(g1301
g1155
(dp1428
g62
g102
sg63
g1052
sg64
g148
sg65
g1047
sg66
g1051
stRp1429
ag1
(g1301
g1155
(dp1430
g62
g74
sg63
g1041
sg64
g204
sg65
g1036
sg66
g1040
stRp1431
ag1
(g1301
g1155
(dp1432
g62
g102
sg63
g447
sg64
g101
sg65
g442
sg66
g446
stRp1433
ag1
(g1301
g1155
(dp1434
g62
g74
sg63
g700
sg64
g89
sg65
g695
sg66
g699
stRp1435
ag1
(g1301
g1155
(dp1436
g62
g102
sg63
g379
sg64
g148
sg65
g374
sg66
g378
stRp1437
ag1
(g1301
g1155
(dp1438
g62
g102
sg63
g854
sg64
g125
sg65
g849
sg66
g853
stRp1439
ag1
(g1301
g1155
(dp1440
g62
g74
sg63
g755
sg64
g238
sg65
g750
sg66
g754
stRp1441
ag1
(g1301
g1155
(dp1442
g62
g102
sg63
g810
sg64
g148
sg65
g805
sg66
g809
stRp1443
ag1
(g1301
g1155
(dp1444
g62
g74
sg63
g832
sg64
g89
sg65
g827
sg66
g831
stRp1445
ag1
(g1301
g1155
(dp1446
g62
g74
sg63
g413
sg64
g294
sg65
g408
sg66
g412
stRp1447
ag1
(g1301
g1155
(dp1448
g62
g102
sg63
g942
sg64
g417
sg65
g937
sg66
g941
stRp1449
ag1
(g1301
g1155
(dp1450
g62
g102
sg63
g634
sg64
g148
sg65
g629
sg66
g633
stRp1451
ag1
(g1301
g1155
(dp1452
g62
g102
sg63
g799
sg64
g101
sg65
g794
sg66
g798
stRp1453
ag1
(g1301
g1155
(dp1454
g62
g74
sg63
g865
sg64
g204
sg65
g860
sg66
g864
stRp1455
ag1
(g1301
g1155
(dp1456
g62
g74
sg63
g612
sg64
g89
sg65
g607
sg66
g611
stRp1457
ag1
(g1301
g1155
(dp1458
g62
g74
sg63
g876
sg64
g238
sg65
g871
sg66
g875
stRp1459
ag1
(g1301
g1155
(dp1460
g62
g102
sg63
g368
sg64
g148
sg65
g363
sg66
g367
stRp1461
ag1
(g1301
g1155
(dp1462
g62
g102
sg63
g1129
sg64
g101
sg65
g1124
sg66
g1128
stRp1463
ag1
(g1301
g1155
(dp1464
g62
g74
sg63
g920
sg64
g238
sg65
g915
sg66
g919
stRp1465
ag1
(g1301
g1155
(dp1466
g62
g102
sg63
g1140
sg64
g125
sg65
g1135
sg66
g1139
stRp1467
ag1
(g1301
g1155
(dp1468
g62
g74
sg63
g97
sg64
g89
sg65
g92
sg66
g96
stRp1469
ag1
(g1301
g1155
(dp1470
g62
g102
sg63
g357
sg64
g125
sg65
g352
sg66
g356
stRp1471
ag1
(g1301
g1155
(dp1472
g62
g102
sg63
g156
sg64
g148
sg65
g151
sg66
g155
stRp1473
ag1
(g1301
g1155
(dp1474
g62
g74
sg63
g480
sg64
g204
sg65
g475
sg66
g479
stRp1475
ag1
(g1301
g1155
(dp1476
g62
g74
sg63
g777
sg64
g204
sg65
g772
sg66
g776
stRp1477
ag1
(g1301
g1155
(dp1478
g62
g74
sg63
g557
sg64
g294
sg65
g552
sg66
g556
stRp1479
ag1
(g1301
g1155
(dp1480
g62
g74
sg63
g302
sg64
g294
sg65
g297
sg66
g301
stRp1481
ag1
(g1301
g1155
(dp1482
g62
g102
sg63
g546
sg64
g125
sg65
g541
sg66
g545
stRp1483
ag1
(g1301
g1155
(dp1484
g62
g74
sg63
g1096
sg64
g204
sg65
g1091
sg66
g1095
stRp1485
ag1
(g1301
g1155
(dp1486
g62
g74
sg63
g821
sg64
g294
sg65
g816
sg66
g820
stRp1487
ag1
(g1301
g1155
(dp1488
g62
g74
sg63
g711
sg64
g238
sg65
g706
sg66
g710
stRp1489
ag1
(g1301
g1155
(dp1490
g62
g102
sg63
g744
sg64
g101
sg65
g739
sg66
g743
stRp1491
ag1
(g1301
g1155
(dp1492
g62
g102
sg63
g178
sg64
g125
sg65
g173
sg66
g177
stRp1493
asS'seed'
p1494
NsS'thisIndex'
p1495
g1137
sS'thisN'
p1496
I96
sS'thisTrialN'
p1497
I0
sS'nTotal'
p1498
I96
sS'_warnUseOfNext'
p1499
I01
sbasS'savePickle'
p1500
I00
sb.