ccopy_reg
_reconstructor
p1
(cpsychopy.data
ExperimentHandler
p2
c__builtin__
object
p3
NtRp4
(dp5
S'originPath'
p6
NsS'dataFileName'
p7
VC:\u005cDocuments and Settings\u005cExperimental user\u005cMy Documents\u005cconsciousness\u005cuncon_feat\u005cexperiment_scripts\u005cdata/out_Experiment_EEG_version_2019_jul_19_1535
p8
sS'runtimeInfo'
p9
NsS'name'
p10
VExperiment_EEG_version
p11
sS'dataNames'
p12
(lp13
S'image_onset_time'
p14
aS'response_window'
p15
aS'correctAns'
p16
aS'probe_onset'
p17
aS'discrim_resptime'
p18
aS'response.corr'
p19
aS'response.keys'
p20
aS'response.rt'
p21
aS'visible_resptime'
p22
aS'visible.keys'
p23
aS'visible.corr'
p24
aS'visible.rt'
p25
aS'probeFrames'
p26
aS'jitter2'
p27
asS'autoLog'
p28
I01
sS'extraInfo'
p29
(dp30
Vn_square
p31
V32
p32
sVexperiment_color
p33
Vbw
p34
sS'frameRate'
p35
cnumpy.core.multiarray
scalar
p36
(cnumpy
dtype
p37
(S'f8'
I0
I1
tRp38
(I3
S'<'
NNNI-1
I-1
I0
tbS'Bn\xbc\xc8&\xf2X@'
tRp39
sS'date'
p40
V2019_jul_19_1535
p41
sVsession
p42
V003
p43
sVimage_size
p44
V256
p45
sVpremask_dur
p46
V20
p47
sVprobeFrames
p48
V5
sVparticipant
p49
Vout
p50
sS'expName'
p51
g11
sVpostmask_dur
p52
V20
p53
ssS'loopsUnfinished'
p54
(lp55
sS'saveWideText'
p56
I00
sS'thisEntry'
p57
(dp58
sS'version'
p59
S''
sS'_paramNamesSoFar'
p60
(lp61
S'category'
p62
aS'probe_path'
p63
aS'subcategory'
p64
aS'fixation_duration'
p65
aS'label'
p66
asS'entries'
p67
(lp68
(dp69
g31
g32
sg17
F3.7930289348587394
sg24
I1
sg35
g39
sg14
F3.7452810723334551
sg16
g36
(g37
(S'i4'
I0
I1
tRp70
(I3
S'<'
NNNI-1
I-1
I0
tbS'\x02\x00\x00\x00'
tRp71
sg42
g43
sg46
g47
sg15
S'nV_V'
p72
sg22
F5.8407526770606637
sg64
VBirds
p73
sg62
VLiving_Things
p74
sg49
g50
sS'trials.thisN'
p75
I0
sg19
I0
sg27
g36
(g38
S'\x00\x00\x00\x00\x00\x00\x18@'
tRp76
sg52
g53
sg23
S'1'
sg18
F5.0580403213389218
sg33
g34
sg51
g11
sg20
S'1'
sg65
g36
(g37
(S'i8'
I0
I1
tRp77
(I3
S'<'
NNNI-1
I-1
I0
tbS'\x00\x00\x00\x00\x00\x00\x00\x00'
tRp78
sg44
g45
sg40
g41
sg25
F1.122664644382894
sS'trials.thisIndex'
p79
g36
(g37
(S'i4'
I0
I1
tRp80
(I3
S'<'
NNNI-1
I-1
I0
tbS'8\x00\x00\x00'
tRp81
sg26
V5
sS'trials.thisRepN'
p82
I0
sg66
Vostrich
p83
sg63
V../experiment_stimuli/bw_bc_bl/Living_Things/Birds/ostrich_18.jpg
p84
sg21
F0.75186918349936604
sS'trials.thisTrialN'
p85
I0
sa(dp86
g31
g32
sg17
F8.7270180699415505
sg24
I0
sg35
g39
sg14
F8.696051865350455
sg16
g36
(g70
S'\x02\x00\x00\x00'
tRp87
sg42
g43
sg46
g47
sg15
g72
sg22
F11.061846615746617
sg64
VAnimals
p88
sg62
g74
sg49
g50
sS'trials.thisN'
p89
I1
sg19
I1
sg27
g36
(g38
S'\x00\x00\x00\x00\x00\x00\x18@'
tRp90
sg52
g53
sg23
S'2'
sg18
F10.018837886396796
sg33
g34
sg51
g11
sg20
S'2'
sg65
g36
(g77
S'\x00\x00\x00\x00\x00\x00\x00\x00'
tRp91
sg44
g45
sg40
g41
sg25
F0.82200786611065269
sS'trials.thisIndex'
p92
g36
(g80
S'\x01\x00\x00\x00'
tRp93
sg26
V5
sS'trials.thisRepN'
p94
I0
sg66
Varmadillo
p95
sg63
V../experiment_stimuli/bw_bc_bl/Living_Things/Animals/armadillo_7.jpg
p96
sg21
F1.0224545137025416
sS'trials.thisTrialN'
p97
I1
sa(dp98
g31
g32
sg17
F13.644857197999954
sg24
I1
sg35
g39
sg14
F13.61676155263558
sg16
g36
(g70
S'\x01\x00\x00\x00'
tRp99
sg42
g43
sg46
g47
sg15
S'V_nV'
p100
sg22
F17.966898680664599
sg64
g88
sg62
g74
sg49
g50
sS'trials.thisN'
p101
I2
sg19
I1
sg27
g36
(g38
S'\x00\x00\x00\x00\x00\x00\x1a@'
tRp102
sg52
g53
sg23
S'1'
sg18
F14.929538963362575
sg33
g34
sg51
g11
sg20
S'1'
sg65
g36
(g77
S'\x00\x00\x00\x00\x00\x00\x00\x00'
tRp103
sg44
g45
sg40
g41
sg25
F1.2329155988991261
sS'trials.thisIndex'
p104
g36
(g80
S'\x14\x00\x00\x00'
tRp105
sg26
V5
sS'trials.thisRepN'
p106
I0
sg66
Vcow
p107
sg63
V../experiment_stimuli/bw_bc_bl/Living_Things/Animals/cow_9.jpg
p108
sg21
F3.0168169150128961
sS'trials.thisTrialN'
p109
I2
sa(dp110
g31
g32
sg17
F20.961673223413527
sg24
I1
sg35
g39
sg14
F20.932699151337147
sg16
g36
(g70
S'\x01\x00\x00\x00'
tRp111
sg42
g43
sg46
g47
sg15
g72
sg22
F24.531192082446069
sg64
VVehicles
p112
sg62
VNonliving_Things
p113
sg49
g50
sS'trials.thisN'
p114
I3
sg19
I1
sg27
g36
(g38
S'\x00\x00\x00\x00\x00\x00\x1e@'
tRp115
sg52
g53
sg23
S'1'
sg18
F22.255471165291965
sg33
g34
sg51
g11
sg20
S'1'
sg65
g36
(g77
S'\x00\x00\x00\x00\x00\x00\x00\x00'
tRp116
sg44
g45
sg40
g41
sg25
F2.2350874776020646
sS'trials.thisIndex'
p117
g36
(g80
S'[\x00\x00\x00'
tRp118
sg26
V5
sS'trials.thisRepN'
p119
I0
sg66
Vvan
p120
sg63
V../experiment_stimuli/bw_bc_bl/Nonliving_Things/Vehicles/van_23.jpg
p121
sg21
F2.255154927726835
sS'trials.thisTrialN'
p122
I3
sa(dp123
g31
g32
sg17
F28.522663472220302
sg24
I1
sg35
g39
sg14
F28.499171458184719
sg16
g36
(g70
S'\x02\x00\x00\x00'
tRp124
sg42
g43
sg46
g47
sg15
g72
sg22
F30.534259877167642
sg64
g73
sg62
g74
sg49
g50
sS'trials.thisN'
p125
I4
sg19
I1
sg27
g36
(g38
S'\x00\x00\x00\x00\x00\x00\x18@'
tRp126
sg52
g53
sg23
S'1'
sg18
F29.841992545872927
sg33
g34
sg51
g11
sg20
S'2'
sg65
g36
(g77
S'\x00\x00\x00\x00\x00\x00\x00\x00'
tRp127
sg44
g45
sg40
g41
sg25
F0.8418988143093884
sS'trials.thisIndex'
p128
g36
(g80
S',\x00\x00\x00'
tRp129
sg26
V5
sS'trials.thisRepN'
p130
I0
sg66
Vkiwi
p131
sg63
V../experiment_stimuli/bw_bc_bl/Living_Things/Birds/kiwi_8.jpg
p132
sg21
F0.67170165712013841
sS'trials.thisTrialN'
p133
I4
sa(dp134
g31
g32
sg17
F33.156188315711915
sg24
I0
sg35
g39
sg14
F33.109202057588845
sg16
g36
(g70
S'\x01\x00\x00\x00'
tRp135
sg42
g43
sg46
g47
sg15
g100
sg22
F35.224279196467251
sg64
g73
sg62
g74
sg49
g50
sS'trials.thisN'
p136
I5
sg19
I1
sg27
g36
(g38
S'\x00\x00\x00\x00\x00\x00\x1a@'
tRp137
sg52
g53
sg23
S'2'
sg18
F34.482095341198146
sg33
g34
sg51
g11
sg20
S'1'
sg65
g36
(g77
S'\x00\x00\x00\x00\x00\x00\x00\x00'
tRp138
sg44
g45
sg40
g41
sg25
F0.60153432097285986
sS'trials.thisIndex'
p139
g36
(g80
S'&\x00\x00\x00'
tRp140
sg26
V5
sS'trials.thisRepN'
p141
I0
sg66
Vhen
p142
sg63
V../experiment_stimuli/bw_bc_bl/Living_Things/Birds/hen_15.jpg
p143
sg21
F0.72163722990080714
sS'trials.thisTrialN'
p144
I5
sa(dp145
g31
g32
sg17
F37.587644326034933
sg24
I0
sg35
g39
sg14
F37.55889015365392
sg16
g36
(g70
S'\x02\x00\x00\x00'
tRp146
sg42
g43
sg46
g47
sg15
g100
sg22
F39.503792406059802
sg64
g112
sg62
g113
sg49
g50
sS'trials.thisN'
p147
I6
sg19
I1
sg27
g36
(g38
S'\x00\x00\x00\x00\x00\x00 @'
tRp148
sg52
g53
sg23
S'2'
sg18
F38.901716000866145
sg33
g34
sg51
g11
sg20
S'2'
sg65
g36
(g77
S'\x00\x00\x00\x00\x00\x00\x00\x00'
tRp149
sg44
g45
sg40
g41
sg25
F0.55142866726964712
sS'trials.thisIndex'
p150
g36
(g80
S'\x07\x00\x00\x00'
tRp151
sg26
V5
sS'trials.thisRepN'
p152
I0
sg66
Vboat
p153
sg63
V../experiment_stimuli/bw_bc_bl/Nonliving_Things/Vehicles/boat_21.jpg
p154
sg21
F0.58149237465113401
sS'trials.thisTrialN'
p155
I6
sa(dp156
g31
g32
sg17
F41.793358467519283
sg24
I0
sg35
g39
sg14
F41.788110080640763
sg16
g36
(g70
S'\x02\x00\x00\x00'
tRp157
sg42
g43
sg46
g47
sg15
g72
sg22
F43.783135286998004
sg64
g73
sg62
g74
sg49
g50
sS'trials.thisN'
p158
I7
sg19
I1
sg27
g36
(g38
S'\x00\x00\x00\x00\x00\x00\x18@'
tRp159
sg52
g53
sg23
S'2'
sg18
F43.100855330005288
sg33
g34
sg51
g11
sg20
S'2'
sg65
g36
(g77
S'\x00\x00\x00\x00\x00\x00\x00\x00'
tRp160
sg44
g45
sg40
g41
sg25
F0.6015321440063417
sS'trials.thisIndex'
p161
g36
(g80
S'*\x00\x00\x00'
tRp162
sg26
V5
sS'trials.thisRepN'
p163
I0
sg66
Vhummingbird
p164
sg63
V../experiment_stimuli/bw_bc_bl/Living_Things/Birds/hummingbird_2.jpg
p165
sg21
F0.66168536990880966
sS'trials.thisTrialN'
p166
I7
sa(dp167
g31
g32
sg17
F46.129925823770463
sg24
I0
sg35
g39
sg14
F46.117524784523994
sg16
g36
(g70
S'\x02\x00\x00\x00'
tRp168
sg42
g43
sg46
g47
sg15
g72
sg22
F48.012280797120184
sg64
g88
sg62
g74
sg49
g50
sS'trials.thisN'
p169
I8
sg19
I1
sg27
g36
(g38
S'\x00\x00\x00\x00\x00\x00\x1a@'
tRp170
sg52
g53
sg23
S'2'
sg18
F47.420261863153428
sg33
g34
sg51
g11
sg20
S'2'
sg65
g36
(g77
S'\x00\x00\x00\x00\x00\x00\x00\x00'
tRp171
sg44
g45
sg40
g41
sg25
F0.48126729670912027
sS'trials.thisIndex'
p172
g36
(g80
S'0\x00\x00\x00'
tRp173
sg26
V5
sS'trials.thisRepN'
p174
I0
sg66
Vlioness
p175
sg63
V../experiment_stimuli/bw_bc_bl/Living_Things/Animals/lioness_16.jpg
p176
sg21
F0.57147341826930642
sS'trials.thisTrialN'
p177
I8
sa(dp178
g31
g32
sg17
F50.252815839834511
sg24
I0
sg35
g39
sg14
F50.226491123437881
sg16
g36
(g70
S'\x01\x00\x00\x00'
tRp179
sg42
g43
sg46
g47
sg15
g100
sg22
F53.544329012278467
sg64
VMarine_creatures
p180
sg62
g74
sg49
g50
sS'trials.thisN'
p181
I9
sg19
I1
sg27
g36
(g38
S'\x00\x00\x00\x00\x00\x00\x18@'
tRp182
sg52
g53
sg23
S'2'
sg18
F51.539239857345819
sg33
g34
sg51
g11
sg20
S'1'
sg65
g36
(g77
S'\x00\x00\x00\x00\x00\x00\x00\x00'
tRp183
sg44
g45
sg40
g41
sg25
F0.54140957165509462
sS'trials.thisIndex'
p184
g36
(g80
S'+\x00\x00\x00'
tRp185
sg26
V5
sS'trials.thisRepN'
p186
I0
sg66
Vkiller-whale
p187
sg63
V../experiment_stimuli/bw_bc_bl/Living_Things/Marine_creatures/killer-whale_21.jpg
p188
sg21
F1.9845468569546938
sS'trials.thisTrialN'
p189
I9
sa(dp190
g31
g32
sg17
F55.840443235822022
sg24
I1
sg35
g39
sg14
F55.818650372792035
sg16
g36
(g70
S'\x02\x00\x00\x00'
tRp191
sg42
g43
sg46
g47
sg15
g72
sg22
F58.374852886423469
sg64
g73
sg62
g74
sg49
g50
sS'trials.thisN'
p192
I10
sg19
I0
sg27
g36
(g38
S'\x00\x00\x00\x00\x00\x00\x1a@'
tRp193
sg52
g53
sg23
S'1'
sg18
F57.11137517914176
sg33
g34
sg51
g11
sg20
S'1'
sg65
g36
(g77
S'\x00\x00\x00\x00\x00\x00\x00\x00'
tRp194
sg44
g45
sg40
g41
sg25
F0.85208455054089427
sS'trials.thisIndex'
p195
g36
(g80
S';\x00\x00\x00'
tRp196
sg26
V5
sS'trials.thisRepN'
p197
I0
sg66
Vpartridge
p198
sg63
V../experiment_stimuli/bw_bc_bl/Living_Things/Birds/partridge_2.jpg
p199
sg21
F1.2429439350962639
sS'trials.thisTrialN'
p200
I10
sa(dp201
g31
g32
sg17
F60.978039138950408
sg24
I1
sg35
g39
sg14
F60.959853500127792
sg16
g36
(g70
S'\x01\x00\x00\x00'
tRp202
sg42
g43
sg46
g47
sg15
g72
sg22
F63.325644509866834
sg64
VBuildings
p203
sg62
g113
sg49
g50
sS'trials.thisN'
p204
I11
sg19
I1
sg27
g36
(g38
S'\x00\x00\x00\x00\x00\x00\x18@'
tRp205
sg52
g53
sg23
S'1'
sg18
F62.262578879483044
sg33
g34
sg51
g11
sg20
S'1'
sg65
g36
(g77
S'\x00\x00\x00\x00\x00\x00\x00\x00'
tRp206
sg44
g45
sg40
g41
sg25
F0.84205476008355618
sS'trials.thisIndex'
p207
g36
(g80
S'\x0c\x00\x00\x00'
tRp208
sg26
V5
sS'trials.thisRepN'
p209
I0
sg66
Vcastle
p210
sg63
V../experiment_stimuli/bw_bc_bl/Nonliving_Things/Buildings/castle_18.jpg
p211
sg21
F1.0425045578740537
sS'trials.thisTrialN'
p212
I11
sa(dp213
g31
g32
sg17
F65.919162794947624
sg24
I0
sg35
g39
sg14
F65.90060432208702
sg16
g36
(g70
S'\x01\x00\x00\x00'
tRp214
sg42
g43
sg46
g47
sg15
g72
sg22
F68.23633177857846
sg64
g112
sg62
g113
sg49
g50
sS'trials.thisN'
p215
I12
sg19
I1
sg27
g36
(g38
S'\x00\x00\x00\x00\x00\x00\x18@'
tRp216
sg52
g53
sg23
S'3'
sg18
F67.233402453362942
sg33
g34
sg51
g11
sg20
S'1'
sg65
g36
(g77
S'\x00\x00\x00\x00\x00\x00\x00\x00'
tRp217
sg44
g45
sg40
g41
sg25
F0.35100402636453509
sS'trials.thisIndex'
p218
g36
(g80
S'\x0b\x00\x00\x00'
tRp219
sg26
V5
sS'trials.thisRepN'
p220
I0
sg66
Vcar
p221
sg63
V../experiment_stimuli/bw_bc_bl/Nonliving_Things/Vehicles/car_17.jpg
p222
sg21
F0.9823642079718411
sS'trials.thisTrialN'
p223
I12
sa(dp224
g31
g32
sg17
F70.351049202494323
sg24
I0
sg35
g39
sg14
F70.320225319825113
sg16
g36
(g70
S'\x02\x00\x00\x00'
tRp225
sg42
g43
sg46
g47
sg15
g72
sg22
F73.16705704247579
sg64
g88
sg62
g74
sg49
g50
sS'trials.thisN'
p226
I13
sg19
I0
sg27
g36
(g38
S'\x00\x00\x00\x00\x00\x00\x18@'
tRp227
sg52
g53
sg23
S'3'
sg18
F71.632980670314282
sg33
g34
sg51
g11
sg20
S'1'
sg65
g36
(g77
S'\x00\x00\x00\x00\x00\x00\x00\x00'
tRp228
sg44
g45
sg40
g41
sg25
F0.61156464135274291
sS'trials.thisIndex'
p229
g36
(g80
S'_\x00\x00\x00'
tRp230
sg26
V5
sS'trials.thisRepN'
p231
I0
sg66
Vzebra
p232
sg63
V../experiment_stimuli/bw_bc_bl/Living_Things/Animals/zebra_18.jpg
p233
sg21
F1.5135176642797887
sS'trials.thisTrialN'
p234
I13
sa(dp235
g31
g32
sg17
F75.531005330849439
sg24
I1
sg35
g39
sg14
F75.511526586022228
sg16
g36
(g70
S'\x02\x00\x00\x00'
tRp236
sg42
g43
sg46
g47
sg15
g72
sg22
F78.999790937639773
sg64
g73
sg62
g74
sg49
g50
sS'trials.thisN'
p237
I14
sg19
I1
sg27
g36
(g38
S'\x00\x00\x00\x00\x00\x00\x1e@'
tRp238
sg52
g53
sg23
S'1'
sg18
F76.794217465911061
sg33
g34
sg51
g11
sg20
S'2'
sg65
g36
(g77
S'\x00\x00\x00\x00\x00\x00\x00\x00'
tRp239
sg44
g45
sg40
g41
sg25
F0.90218676812946796
sS'trials.thisIndex'
p240
g36
(g80
S'9\x00\x00\x00'
tRp241
sg26
V5
sS'trials.thisRepN'
p242
I0
sg66
Vowl
p243
sg63
V../experiment_stimuli/bw_bc_bl/Living_Things/Birds/owl_25.jpg
p244
sg21
F2.1849989704787731
sS'trials.thisTrialN'
p245
I14
sa(dp246
g31
g32
sg17
F81.651098646689206
sg24
I1
sg35
g39
sg14
F81.634860088583082
sg16
g36
(g70
S'\x01\x00\x00\x00'
tRp247
sg42
g43
sg46
g47
sg15
g100
sg22
F83.770002226345241
sg64
g88
sg62
g74
sg49
g50
sS'trials.thisN'
p248
I15
sg19
I1
sg27
g36
(g38
S'\x00\x00\x00\x00\x00\x00\x1a@'
tRp249
sg52
g53
sg23
S'1'
sg18
F82.927596308290958
sg33
g34
sg51
g11
sg20
S'1'
sg65
g36
(g77
S'\x00\x00\x00\x00\x00\x00\x00\x00'
tRp250
sg44
g45
sg40
g41
sg25
F0.55141976149752736
sS'trials.thisIndex'
p251
g36
(g80
S'Z\x00\x00\x00'
tRp252
sg26
V5
sS'trials.thisRepN'
p253
I0
sg66
Vturtle
p254
sg63
V../experiment_stimuli/bw_bc_bl/Living_Things/Animals/turtle_10.jpg
p255
sg21
F0.82185345841571689
sS'trials.thisTrialN'
p256
I15
sa(dp257
g31
g32
sg17
F86.070205225609243
sg24
I0
sg35
g39
sg14
F86.054480477701873
sg16
g36
(g70
S'\x02\x00\x00\x00'
tRp258
sg42
g43
sg46
g47
sg15
g72
sg22
F89.222022984642535
sg64
g88
sg62
g74
sg49
g50
sS'trials.thisN'
p259
I16
sg19
I1
sg27
g36
(g38
S'\x00\x00\x00\x00\x00\x00\x18@'
tRp260
sg52
g53
sg23
S'2'
sg18
F87.377260374836624
sg33
g34
sg51
g11
sg20
S'2'
sg65
g36
(g77
S'\x00\x00\x00\x00\x00\x00\x00\x00'
tRp261
sg44
g45
sg40
g41
sg25
F0.26080597331747413
sS'trials.thisIndex'
p262
g36
(g80
S' \x00\x00\x00'
tRp263
sg26
V5
sS'trials.thisRepN'
p264
I0
sg66
Vgiraffe
p265
sg63
V../experiment_stimuli/bw_bc_bl/Living_Things/Animals/giraffe_3.jpg
p266
sg21
F1.8242014772258699
sS'trials.thisTrialN'
p267
I16
sa(dp268
g31
g32
sg17
F91.245224147569388
sg24
I0
sg35
g39
sg14
F91.215719773434103
sg16
g36
(g70
S'\x01\x00\x00\x00'
tRp269
sg42
g43
sg46
g47
sg15
g72
sg22
F93.922273213043809
sg64
VFurniture
p270
sg62
g113
sg49
g50
sS'trials.thisN'
p271
I17
sg19
I1
sg27
g36
(g38
S'\x00\x00\x00\x00\x00\x00\x18@'
tRp272
sg52
g53
sg23
S'3'
sg18
F92.53849829453975
sg33
g34
sg51
g11
sg20
S'1'
sg65
g36
(g77
S'\x00\x00\x00\x00\x00\x00\x00\x00'
tRp273
sg44
g45
sg40
g41
sg25
F0.57146527525037527
sS'trials.thisIndex'
p274
g36
(g80
S'/\x00\x00\x00'
tRp275
sg26
V5
sS'trials.thisRepN'
p276
I0
sg66
Vlectern
p277
sg63
V../experiment_stimuli/bw_bc_bl/Nonliving_Things/Furniture/lectern_1.jpg
p278
sg21
F1.3631851770915091
sS'trials.thisTrialN'
p279
I17
sa(dp280
g31
g32
sg17
F96.256631676573306
sg24
I1
sg35
g39
sg14
F96.226627829950303
sg16
g36
(g70
S'\x01\x00\x00\x00'
tRp281
sg42
g43
sg46
g47
sg15
g72
sg22
F98.422063335310668
sg64
g203
sg62
g113
sg49
g50
sS'trials.thisN'
p282
I18
sg19
I1
sg27
g36
(g38
S'\x00\x00\x00\x00\x00\x00\x18@'
tRp283
sg52
g53
sg23
S'1'
sg18
F97.519344768486917
sg33
g34
sg51
g11
sg20
S'1'
sg65
g36
(g77
S'\x00\x00\x00\x00\x00\x00\x00\x00'
tRp284
sg44
g45
sg40
g41
sg25
F0.37103374814614654
sS'trials.thisIndex'
p285
g36
(g80
S'\x11\x00\x00\x00'
tRp286
sg26
V5
sS'trials.thisRepN'
p287
I0
sg66
Vchurch
p288
sg63
V../experiment_stimuli/bw_bc_bl/Nonliving_Things/Buildings/church_4.jpg
p289
sg21
F0.88214687816798687
sS'trials.thisTrialN'
p290
I18
sa(dp291
g31
g32
sg17
F100.54465234745294
sg24
I1
sg35
g39
sg14
F100.5259835110046
sg16
g36
(g70
S'\x01\x00\x00\x00'
tRp292
sg42
g43
sg46
g47
sg15
g100
sg22
F102.62119831424206
sg64
VInsects
p293
sg62
g74
sg49
g50
sS'trials.thisN'
p294
I19
sg19
I1
sg27
g36
(g38
S'\x00\x00\x00\x00\x00\x00 @'
tRp295
sg52
g53
sg23
S'1'
sg18
F101.82873027352616
sg33
g34
sg51
g11
sg20
S'1'
sg65
g36
(g77
S'\x00\x00\x00\x00\x00\x00\x00\x00'
tRp296
sg44
g45
sg40
g41
sg25
F0.22070423839613795
sS'trials.thisIndex'
p297
g36
(g80
S'\x18\x00\x00\x00'
tRp298
sg26
V5
sS'trials.thisRepN'
p299
I0
sg66
Vdragonfly
p300
sg63
V../experiment_stimuli/bw_bc_bl/Living_Things/Insects/dragonfly_10.jpg
p301
sg21
F0.7719242088496685
sS'trials.thisTrialN'
p302
I19
sa(dp303
g31
g32
sg17
F104.60798009764403
sg24
I1
sg35
g39
sg14
F104.57481065718457
sg16
g36
(g70
S'\x02\x00\x00\x00'
tRp304
sg42
g43
sg46
g47
sg15
g100
sg22
F106.700062984135
sg64
g270
sg62
g113
sg49
g50
sS'trials.thisN'
p305
I20
sg19
I1
sg27
g36
(g38
S'\x00\x00\x00\x00\x00\x00\x1e@'
tRp306
sg52
g53
sg23
S'1'
sg18
F105.91762989573181
sg33
g34
sg51
g11
sg20
S'2'
sg65
g36
(g77
S'\x00\x00\x00\x00\x00\x00\x00\x00'
tRp307
sg44
g45
sg40
g41
sg25
F0.33077835291624069
sS'trials.thisIndex'
p308
g36
(g80
S']\x00\x00\x00'
tRp309
sg26
V5
sS'trials.thisRepN'
p310
I0
sg66
Vwardrobe
p311
sg63
V../experiment_stimuli/bw_bc_bl/Nonliving_Things/Furniture/wardrobe_10.jpg
p312
sg21
F0.76189019624143839
sS'trials.thisTrialN'
p313
I20
sa(dp314
g31
g32
sg17
F108.785049054306
sg24
I0
sg35
g39
sg14
F108.76393539085984
sg16
g36
(g70
S'\x01\x00\x00\x00'
tRp315
sg42
g43
sg46
g47
sg15
g100
sg22
F110.94934166502208
sg64
g293
sg62
g74
sg49
g50
sS'trials.thisN'
p316
I21
sg19
I1
sg27
g36
(g38
S'\x00\x00\x00\x00\x00\x00\x18@'
tRp317
sg52
g53
sg23
S'2'
sg18
F110.11677323933691
sg33
g34
sg51
g11
sg20
S'1'
sg65
g36
(g77
S'\x00\x00\x00\x00\x00\x00\x00\x00'
tRp318
sg44
g45
sg40
g41
sg25
F0.26077975519001484
sS'trials.thisIndex'
p319
g36
(g80
S'-\x00\x00\x00'
tRp320
sg26
V5
sS'trials.thisRepN'
p321
I0
sg66
Vladybird
p322
sg63
V../experiment_stimuli/bw_bc_bl/Living_Things/Insects/ladybird_6.jpg
p323
sg21
F0.81200212426483631
sS'trials.thisTrialN'
p324
I21
sa(dp325
g31
g32
sg17
F112.961187036708
sg24
I0
sg35
g39
sg14
F112.94302799506113
sg16
g36
(g70
S'\x01\x00\x00\x00'
tRp326
sg42
g43
sg46
g47
sg15
g72
sg22
F115.43912882683799
sg64
g270
sg62
g113
sg49
g50
sS'trials.thisN'
p327
I22
sg19
I1
sg27
g36
(g38
S'\x00\x00\x00\x00\x00\x00\x18@'
tRp328
sg52
g53
sg23
S'2'
sg18
F114.28584846621379
sg33
g34
sg51
g11
sg20
S'1'
sg65
g36
(g77
S'\x00\x00\x00\x00\x00\x00\x00\x00'
tRp329
sg44
g45
sg40
g41
sg25
F0.43116190610453486
sS'trials.thisIndex'
p330
g36
(g80
S'N\x00\x00\x00'
tRp331
sg26
V5
sS'trials.thisRepN'
p332
I0
sg66
Vsofa
p333
sg63
V../experiment_stimuli/bw_bc_bl/Nonliving_Things/Furniture/sofa_22.jpg
p334
sg21
F1.1327159875072539
sS'trials.thisTrialN'
p335
I22
sa(dp336
g31
g32
sg17
F117.65013828454539
sg24
I1
sg35
g39
sg14
F117.60317967645824
sg16
g36
(g70
S'\x02\x00\x00\x00'
tRp337
sg42
g43
sg46
g47
sg15
g100
sg22
F120.32976303668693
sg64
g203
sg62
g113
sg49
g50
sS'trials.thisN'
p338
I23
sg19
I1
sg27
g36
(g38
S'\x00\x00\x00\x00\x00\x00\x18@'
tRp339
sg52
g53
sg23
S'1'
sg18
F118.9660432934761
sg33
g34
sg51
g11
sg20
S'2'
sg65
g36
(g77
S'\x00\x00\x00\x00\x00\x00\x00\x00'
tRp340
sg44
g45
sg40
g41
sg25
F0.30087308399379253
sS'trials.thisIndex'
p341
g36
(g80
S':\x00\x00\x00'
tRp342
sg26
V5
sS'trials.thisRepN'
p343
I0
sg66
Vpalace
p344
sg63
V../experiment_stimuli/bw_bc_bl/Nonliving_Things/Buildings/palace_11.jpg
p345
sg21
F1.3431504569016397
sS'trials.thisTrialN'
p346
I23
sa(dp347
g31
g32
sg17
F122.38839827710763
sg24
I1
sg35
g39
sg14
F122.36353572551161
sg16
g36
(g70
S'\x02\x00\x00\x00'
tRp348
sg42
g43
sg46
g47
sg15
g72
sg22
F125.68149888375774
sg64
g73
sg62
g74
sg49
g50
sS'trials.thisN'
p349
I24
sg19
I0
sg27
g36
(g38
S'\x00\x00\x00\x00\x00\x00\x1e@'
tRp350
sg52
g53
sg23
S'1'
sg18
F123.73643398657441
sg33
g34
sg51
g11
sg20
S'1'
sg65
g36
(g77
S'\x00\x00\x00\x00\x00\x00\x00\x00'
tRp351
sg44
g45
sg40
g41
sg25
F0.41111181350424886
sS'trials.thisIndex'
p352
g36
(g80
S'"\x00\x00\x00'
tRp353
sg26
V5
sS'trials.thisRepN'
p354
I0
sg66
Vgoose
p355
sg63
V../experiment_stimuli/bw_bc_bl/Living_Things/Birds/goose_22.jpg
p356
sg21
F1.9244898026809096
sS'trials.thisTrialN'
p357
I24
sa(dp358
g31
g32
sg17
F127.87160620093346
sg24
I0
sg35
g39
sg14
F127.82542948331684
sg16
g36
(g70
S'\x01\x00\x00\x00'
tRp359
sg42
g43
sg46
g47
sg15
g100
sg22
F130.53196761896834
sg64
g180
sg62
g74
sg49
g50
sS'trials.thisN'
p360
I25
sg19
I0
sg27
g36
(g38
S'\x00\x00\x00\x00\x00\x00\x18@'
tRp361
sg52
g53
sg23
S'2'
sg18
F129.22838698932901
sg33
g34
sg51
g11
sg20
S'2'
sg65
g36
(g77
S'\x00\x00\x00\x00\x00\x00\x00\x00'
tRp362
sg44
g45
sg40
g41
sg25
F0.2106754626147449
sS'trials.thisIndex'
p363
g36
(g80
S'A\x00\x00\x00'
tRp364
sg26
V5
sS'trials.thisRepN'
p365
I0
sg66
Vpomfret
p366
sg63
V../experiment_stimuli/bw_bc_bl/Living_Things/Marine_creatures/pomfret_4.jpg
p367
sg21
F1.2830241061747074
sS'trials.thisTrialN'
p368
I25
sa(dp369
g31
g32
sg17
F132.49863789975643
sg24
I0
sg35
g39
sg14
F132.47557164821774
sg16
g36
(g70
S'\x01\x00\x00\x00'
tRp370
sg42
g43
sg46
g47
sg15
g72
sg22
F134.65093072596937
sg64
g270
sg62
g113
sg49
g50
sS'trials.thisN'
p371
I26
sg19
I1
sg27
g36
(g38
S'\x00\x00\x00\x00\x00\x00\x1c@'
tRp372
sg52
g53
sg23
S'2'
sg18
F133.83842388540506
sg33
g34
sg51
g11
sg20
S'1'
sg65
g36
(g77
S'\x00\x00\x00\x00\x00\x00\x00\x00'
tRp373
sg44
g45
sg40
g41
sg25
F0.34095347672700882
sS'trials.thisIndex'
p374
g36
(g80
S'\x13\x00\x00\x00'
tRp375
sg26
V5
sS'trials.thisRepN'
p376
I0
sg66
Vcouch
p377
sg63
V../experiment_stimuli/bw_bc_bl/Nonliving_Things/Furniture/couch_14.jpg
p378
sg21
F0.78192312736064196
sS'trials.thisTrialN'
p379
I26
sa(dp380
g31
g32
sg17
F136.76676421333104
sg24
I1
sg35
g39
sg14
F136.72481069061905
sg16
g36
(g70
S'\x01\x00\x00\x00'
tRp381
sg42
g43
sg46
g47
sg15
g100
sg22
F139.3111113733612
sg64
g73
sg62
g74
sg49
g50
sS'trials.thisN'
p382
I27
sg19
I0
sg27
g36
(g38
S'\x00\x00\x00\x00\x00\x00\x1c@'
tRp383
sg52
g53
sg23
S'1'
sg18
F138.09769756812602
sg33
g34
sg51
g11
sg20
S'2'
sg65
g36
(g77
S'\x00\x00\x00\x00\x00\x00\x00\x00'
tRp384
sg44
g45
sg40
g41
sg25
F0.57146958727389574
sS'trials.thisIndex'
p385
g36
(g80
S'\x04\x00\x00\x00'
tRp386
sg26
V5
sS'trials.thisRepN'
p387
I0
sg66
Vbarn-owl
p388
sg63
V../experiment_stimuli/bw_bc_bl/Living_Things/Birds/barn-owl_10.jpg
p389
sg21
F1.1928338683210313
sS'trials.thisTrialN'
p390
I27
sa(dp391
g31
g32
sg17
F141.64045671792701
sg24
I0
sg35
g39
sg14
F141.61545428354293
sg16
g36
(g70
S'\x01\x00\x00\x00'
tRp392
sg42
g43
sg46
g47
sg15
g72
sg22
F144.03136328514665
sg64
VKitchen_Uten
p393
sg62
g113
sg49
g50
sS'trials.thisN'
p394
I28
sg19
I1
sg27
g36
(g38
S'\x00\x00\x00\x00\x00\x00\x18@'
tRp395
sg52
g53
sg23
S'2'
sg18
F142.98835063865408
sg33
g34
sg51
g11
sg20
S'1'
sg65
g36
(g77
S'\x00\x00\x00\x00\x00\x00\x00\x00'
tRp396
sg44
g45
sg40
g41
sg25
F0.73181433882564306
sS'trials.thisIndex'
p397
g36
(g80
S'B\x00\x00\x00'
tRp398
sg26
V5
sS'trials.thisRepN'
p399
I0
sg66
Vpot
p400
sg63
V../experiment_stimuli/bw_bc_bl/Nonliving_Things/Kitchen_Uten/pot_24.jpg
p401
sg21
F1.0224530175328255
sS'trials.thisTrialN'
p402
I28
sa(dp403
g31
g32
sg17
F146.52410835539922
sg24
I1
sg35
g39
sg14
F146.49608790548518
sg16
g36
(g70
S'\x01\x00\x00\x00'
tRp404
sg42
g43
sg46
g47
sg15
g72
sg22
F149.29281194787472
sg64
VMusical_Inst
p405
sg62
g113
sg49
g50
sS'trials.thisN'
p406
I29
sg19
I1
sg27
g36
(g38
S'\x00\x00\x00\x00\x00\x00\x18@'
tRp407
sg52
g53
sg23
S'1'
sg18
F147.85895686410367
sg33
g34
sg51
g11
sg20
S'1'
sg65
g36
(g77
S'\x00\x00\x00\x00\x00\x00\x00\x00'
tRp408
sg44
g45
sg40
g41
sg25
F0.2507702955044806
sS'trials.thisIndex'
p409
g36
(g80
S'\\\x00\x00\x00'
tRp410
sg26
V5
sS'trials.thisRepN'
p411
I0
sg66
Vviolin
p412
sg63
V../experiment_stimuli/bw_bc_bl/Nonliving_Things/Musical_Inst/violin_10.jpg
p413
sg21
F1.4133084476925433
sS'trials.thisTrialN'
p414
I29
sa(dp415
g31
g32
sg17
F151.29699627729133
sg24
I1
sg35
g39
sg14
F151.27649195678532
sg16
g36
(g70
S'\x02\x00\x00\x00'
tRp416
sg42
g43
sg46
g47
sg15
g100
sg22
F153.90285277692601
sg64
g270
sg62
g113
sg49
g50
sS'trials.thisN'
p417
I30
sg19
I1
sg27
g36
(g38
S'\x00\x00\x00\x00\x00\x00\x1c@'
tRp418
sg52
g53
sg23
S'1'
sg18
F152.63936970522627
sg33
g34
sg51
g11
sg20
S'2'
sg65
g36
(g77
S'\x00\x00\x00\x00\x00\x00\x00\x00'
tRp419
sg44
g45
sg40
g41
sg25
F0.37102105235680938
sS'trials.thisIndex'
p420
g36
(g80
S'\x08\x00\x00\x00'
tRp421
sg26
V5
sS'trials.thisRepN'
p422
I0
sg66
Vbookcase
p423
sg63
V../experiment_stimuli/bw_bc_bl/Nonliving_Things/Furniture/bookcase_8.jpg
p424
sg21
F1.242932521738112
sS'trials.thisTrialN'
p425
I30
sa(dp426
g31
g32
sg17
F156.02820142125711
sg24
I0
sg35
g39
sg14
F156.00679744500667
sg16
g36
(g70
S'\x02\x00\x00\x00'
tRp427
sg42
g43
sg46
g47
sg15
g100
sg22
F160.58744414197281
sg64
g270
sg62
g113
sg49
g50
sS'trials.thisN'
p428
I31
sg19
I1
sg27
g36
(g38
S'\x00\x00\x00\x00\x00\x00\x18@'
tRp429
sg52
g53
sg23
S'2'
sg18
F157.3897051922977
sg33
g34
sg51
g11
sg20
S'2'
sg65
g36
(g77
S'\x00\x00\x00\x00\x00\x00\x00\x00'
tRp430
sg44
g45
sg40
g41
sg25
F0.95229606423527002
sS'trials.thisIndex'
p431
g36
(g80
S'\x02\x00\x00\x00'
tRp432
sg26
V5
sS'trials.thisRepN'
p433
I0
sg66
Varmchair
p434
sg63
V../experiment_stimuli/bw_bc_bl/Nonliving_Things/Furniture/armchair_8.jpg
p435
sg21
F3.1771630542352796
sS'trials.thisTrialN'
p436
I31
sa(dp437
g31
g32
sg17
F163.29002571804449
sg24
I1
sg35
g39
sg14
F163.27262498438358
sg16
g36
(g70
S'\x02\x00\x00\x00'
tRp438
sg42
g43
sg46
g47
sg15
g72
sg22
F165.35781570337713
sg64
g88
sg62
g74
sg49
g50
sS'trials.thisN'
p439
I32
sg19
I1
sg27
g36
(g38
S'\x00\x00\x00\x00\x00\x00 @'
tRp440
sg52
g53
sg23
S'1'
sg18
F164.64550927188247
sg33
g34
sg51
g11
sg20
S'2'
sg65
g36
(g77
S'\x00\x00\x00\x00\x00\x00\x00\x00'
tRp441
sg44
g45
sg40
g41
sg25
F0.29085881961509585
sS'trials.thisIndex'
p442
g36
(g80
S'\x10\x00\x00\x00'
tRp443
sg26
V5
sS'trials.thisRepN'
p444
I0
sg66
Vcheetah
p445
sg63
V../experiment_stimuli/bw_bc_bl/Living_Things/Animals/cheetah_7.jpg
p446
sg21
F0.69174577668309212
sS'trials.thisTrialN'
p447
I32
sa(dp448
g31
g32
sg17
F167.40984137263149
sg24
I0
sg35
g39
sg14
F167.38155904505402
sg16
g36
(g70
S'\x02\x00\x00\x00'
tRp449
sg42
g43
sg46
g47
sg15
g72
sg22
F171.93214264791459
sg64
g293
sg62
g74
sg49
g50
sS'trials.thisN'
p450
I33
sg19
I1
sg27
g36
(g38
S'\x00\x00\x00\x00\x00\x00\x18@'
tRp451
sg52
g53
sg23
S'2'
sg18
F168.77449752297252
sg33
g34
sg51
g11
sg20
S'2'
sg65
g36
(g77
S'\x00\x00\x00\x00\x00\x00\x00\x00'
tRp452
sg44
g45
sg40
g41
sg25
F0.5013106563128531
sS'trials.thisIndex'
p453
g36
(g80
S'\n\x00\x00\x00'
tRp454
sg26
V5
sS'trials.thisRepN'
p455
I0
sg66
Vbutterfly
p456
sg63
V../experiment_stimuli/bw_bc_bl/Living_Things/Insects/butterfly_9.jpg
p457
sg21
F3.1370767555199564
sS'trials.thisTrialN'
p458
I33
sa(dp459
g31
g32
sg17
F174.18580715870485
sg24
I1
sg35
g39
sg14
F174.16633441345766
sg16
g36
(g70
S'\x02\x00\x00\x00'
tRp460
sg42
g43
sg46
g47
sg15
g72
sg22
F176.54213681165129
sg64
g88
sg62
g74
sg49
g50
sS'trials.thisN'
p461
I34
sg19
I0
sg27
g36
(g38
S'\x00\x00\x00\x00\x00\x00\x1c@'
tRp462
sg52
g53
sg23
S'1'
sg18
F175.53922559181228
sg33
g34
sg51
g11
sg20
S'1'
sg65
g36
(g77
S'\x00\x00\x00\x00\x00\x00\x00\x00'
tRp463
sg44
g45
sg40
g41
sg25
F0.31088773254305124
sS'trials.thisIndex'
p464
g36
(g80
S'2\x00\x00\x00'
tRp465
sg26
V5
sS'trials.thisRepN'
p466
I0
sg66
Vlynx
p467
sg63
V../experiment_stimuli/bw_bc_bl/Living_Things/Animals/lynx_26.jpg
p468
sg21
F0.98236592952162027
sS'trials.thisTrialN'
p469
I34
sa(dp470
g31
g32
sg17
F178.60614757006988
sg24
I0
sg35
g39
sg14
F178.58596296375617
sg16
g36
(g70
S'\x02\x00\x00\x00'
tRp471
sg42
g43
sg46
g47
sg15
g100
sg22
F181.34260194096714
sg64
g270
sg62
g113
sg49
g50
sS'trials.thisN'
p472
I35
sg19
I1
sg27
g36
(g38
S'\x00\x00\x00\x00\x00\x00\x18@'
tRp473
sg52
g53
sg23
S'2'
sg18
F179.98891312768683
sg33
g34
sg51
g11
sg20
S'2'
sg65
g36
(g77
S'\x00\x00\x00\x00\x00\x00\x00\x00'
tRp474
sg44
g45
sg40
g41
sg25
F0.51133185718208551
sS'trials.thisIndex'
p475
g36
(g80
S'\x1d\x00\x00\x00'
tRp476
sg26
V5
sS'trials.thisRepN'
p477
I0
sg66
Vfilling-cabinet
p478
sg63
V../experiment_stimuli/bw_bc_bl/Nonliving_Things/Furniture/filling-cabinet_14.jpg
p479
sg21
F1.3331289435736835
sS'trials.thisTrialN'
p480
I35
sa(dp481
g31
g32
sg17
F183.59223057003692
sg24
I0
sg35
g39
sg14
F183.58684812486172
sg16
g36
(g70
S'\x01\x00\x00\x00'
tRp482
sg42
g43
sg46
g47
sg15
g72
sg22
F185.59187578782439
sg64
g270
sg62
g113
sg49
g50
sS'trials.thisN'
p483
I36
sg19
I1
sg27
g36
(g38
S'\x00\x00\x00\x00\x00\x00\x18@'
tRp484
sg52
g53
sg23
S'2'
sg18
F184.96977380057797
sg33
g34
sg51
g11
sg20
S'1'
sg65
g36
(g77
S'\x00\x00\x00\x00\x00\x00\x00\x00'
tRp485
sg44
g45
sg40
g41
sg25
F0.53122050454840064
sS'trials.thisIndex'
p486
g36
(g80
S'\x06\x00\x00\x00'
tRp487
sg26
V5
sS'trials.thisRepN'
p488
I0
sg66
Vbedside-table
p489
sg63
V../experiment_stimuli/bw_bc_bl/Nonliving_Things/Furniture/bedside-table_8.jpg
p490
sg21
F0.60154455713927746
sS'trials.thisTrialN'
p491
I36
sa(dp492
g31
g32
sg17
F187.89671880519018
sg24
I0
sg35
g39
sg14
F187.85614309087396
sg16
g36
(g70
S'\x01\x00\x00\x00'
tRp493
sg42
g43
sg46
g47
sg15
g100
sg22
F189.87117193965241
sg64
g73
sg62
g74
sg49
g50
sS'trials.thisN'
p494
I37
sg19
I1
sg27
g36
(g38
S'\x00\x00\x00\x00\x00\x00\x1a@'
tRp495
sg52
g53
sg23
S'2'
sg18
F189.25910064950585
sg33
g34
sg51
g11
sg20
S'1'
sg65
g36
(g77
S'\x00\x00\x00\x00\x00\x00\x00\x00'
tRp496
sg44
g45
sg40
g41
sg25
F0.79195024538785219
sS'trials.thisIndex'
p497
g36
(g80
S'?\x00\x00\x00'
tRp498
sg26
V5
sS'trials.thisRepN'
p499
I0
sg66
Vpigeon
p500
sg63
V../experiment_stimuli/bw_bc_bl/Living_Things/Birds/pigeon_2.jpg
p501
sg21
F0.59151620650663972
sS'trials.thisTrialN'
p502
I37
sa(dp503
g31
g32
sg17
F192.42006767774001
sg24
I1
sg35
g39
sg14
F192.39603166980669
sg16
g36
(g70
S'\x01\x00\x00\x00'
tRp504
sg42
g43
sg46
g47
sg15
g100
sg22
F198.36968508828431
sg64
g180
sg62
g74
sg49
g50
sS'trials.thisN'
p505
I38
sg19
I1
sg27
g36
(g38
S'\x00\x00\x00\x00\x00\x00\x1a@'
tRp506
sg52
g53
sg23
S'1'
sg18
F193.77895392058417
sg33
g34
sg51
g11
sg20
S'1'
sg65
g36
(g77
S'\x00\x00\x00\x00\x00\x00\x00\x00'
tRp507
sg44
g45
sg40
g41
sg25
F0.22070296388119459
sS'trials.thisIndex'
p508
g36
(g80
S'\x17\x00\x00\x00'
tRp509
sg26
V5
sS'trials.thisRepN'
p510
I0
sg66
Vdolphin
p511
sg63
V../experiment_stimuli/bw_bc_bl/Living_Things/Marine_creatures/dolphin_23.jpg
p512
sg21
F4.5701828356832266
sS'trials.thisTrialN'
p513
I38
sa(dp514
g31
g32
sg17
F200.35410248767585
sg24
I0
sg35
g39
sg14
F200.32328745769337
sg16
g36
(g70
S'\x01\x00\x00\x00'
tRp515
sg42
g43
sg46
g47
sg15
g72
sg22
F203.37057795189321
sg64
g112
sg62
g113
sg49
g50
sS'trials.thisN'
p516
I39
sg19
I1
sg27
g36
(g38
S'\x00\x00\x00\x00\x00\x00\x18@'
tRp517
sg52
g53
sg23
S'2'
sg18
F201.72624618187547
sg33
g34
sg51
g11
sg20
S'1'
sg65
g36
(g77
S'\x00\x00\x00\x00\x00\x00\x00\x00'
tRp518
sg44
g45
sg40
g41
sg25
F0.64162014937028289
sS'trials.thisIndex'
p519
g36
(g80
S'L\x00\x00\x00'
tRp520
sg26
V5
sS'trials.thisRepN'
p521
I0
sg66
Vship
p522
sg63
V../experiment_stimuli/bw_bc_bl/Nonliving_Things/Vehicles/ship_6.jpg
p523
sg21
F1.6237667808309197
sS'trials.thisTrialN'
p524
I39
sa(dp525
g31
g32
sg17
F205.76475479174405
sg24
I0
sg35
g39
sg14
F205.74510900722817
sg16
g36
(g70
S'\x02\x00\x00\x00'
tRp526
sg42
g43
sg46
g47
sg15
g72
sg22
F208.13092819275334
sg64
g180
sg62
g74
sg49
g50
sS'trials.thisN'
p527
I40
sg19
I1
sg27
g36
(g38
S'\x00\x00\x00\x00\x00\x00\x1c@'
tRp528
sg52
g53
sg23
S'2'
sg18
F207.12800680007786
sg33
g34
sg51
g11
sg20
S'2'
sg65
g36
(g77
S'\x00\x00\x00\x00\x00\x00\x00\x00'
tRp529
sg44
g45
sg40
g41
sg25
F0.69173080334439874
sS'trials.thisIndex'
p530
g36
(g80
S'7\x00\x00\x00'
tRp531
sg26
V5
sS'trials.thisRepN'
p532
I0
sg66
Vnarwhal
p533
sg63
V../experiment_stimuli/bw_bc_bl/Living_Things/Marine_creatures/narwhal_15.jpg
p534
sg21
F0.98236549319699407
sS'trials.thisTrialN'
p535
I40
sa(dp536
g31
g32
sg17
F210.5793281942606
sg24
I0
sg35
g39
sg14
F210.55557116772979
sg16
g36
(g70
S'\x02\x00\x00\x00'
tRp537
sg42
g43
sg46
g47
sg15
g100
sg22
F213.37236534105614
sg64
g393
sg62
g113
sg49
g50
sS'trials.thisN'
p538
I41
sg19
I1
sg27
g36
(g38
S'\x00\x00\x00\x00\x00\x00\x1a@'
tRp539
sg52
g53
sg23
S'2'
sg18
F211.93848277255893
sg33
g34
sg51
g11
sg20
S'2'
sg65
g36
(g77
S'\x00\x00\x00\x00\x00\x00\x00\x00'
tRp540
sg44
g45
sg40
g41
sg25
F0.71177127584815025
sS'trials.thisIndex'
p541
g36
(g80
S'\x1f\x00\x00\x00'
tRp542
sg26
V5
sS'trials.thisRepN'
p543
I0
sg66
Vfrying-pan
p544
sg63
V../experiment_stimuli/bw_bc_bl/Nonliving_Things/Kitchen_Uten/frying-pan_12.jpg
p545
sg21
F1.4133058344013989
sS'trials.thisTrialN'
p546
I41
sa(dp547
g31
g32
sg17
F215.84075398510322
sg24
I0
sg35
g39
sg14
F215.81705046957359
sg16
g36
(g70
S'\x02\x00\x00\x00'
tRp548
sg42
g43
sg46
g47
sg15
g100
sg22
F218.32313577691093
sg64
g270
sg62
g113
sg49
g50
sS'trials.thisN'
p549
I42
sg19
I1
sg27
g36
(g38
S'\x00\x00\x00\x00\x00\x00\x18@'
tRp550
sg52
g53
sg23
S'3'
sg18
F217.18991689989343
sg33
g34
sg51
g11
sg20
S'2'
sg65
g36
(g77
S'\x00\x00\x00\x00\x00\x00\x00\x00'
tRp551
sg44
g45
sg40
g41
sg25
F0.25076061068102717
sS'trials.thisIndex'
p552
g36
(g80
S'.\x00\x00\x00'
tRp553
sg26
V5
sS'trials.thisRepN'
p554
I0
sg66
Vlamp
p555
sg63
V../experiment_stimuli/bw_bc_bl/Nonliving_Things/Furniture/lamp_13.jpg
p556
sg21
F1.1126452595926821
sS'trials.thisTrialN'
p557
I42
sa(dp558
g31
g32
sg17
F220.33385800989345
sg24
I1
sg35
g39
sg14
F220.30680918041617
sg16
g36
(g70
S'\x01\x00\x00\x00'
tRp559
sg42
g43
sg46
g47
sg15
g100
sg22
F222.68262251093984
sg64
g88
sg62
g74
sg49
g50
sS'trials.thisN'
p560
I43
sg19
I0
sg27
g36
(g38
S'\x00\x00\x00\x00\x00\x00\x18@'
tRp561
sg52
g53
sg23
S'1'
sg18
F221.65965307410806
sg33
g34
sg51
g11
sg20
S'2'
sg65
g36
(g77
S'\x00\x00\x00\x00\x00\x00\x00\x00'
tRp562
sg44
g45
sg40
g41
sg25
F0.36100328015163541
sS'trials.thisIndex'
p563
g36
(g80
S'\x1b\x00\x00\x00'
tRp564
sg26
V5
sS'trials.thisRepN'
p565
I0
sg66
Velephant
p566
sg63
V../experiment_stimuli/bw_bc_bl/Living_Things/Animals/elephant_18.jpg
p567
sg21
F1.0024128081277013
sS'trials.thisTrialN'
p568
I43
sa(dp569
g31
g32
sg17
F224.80501360120252
sg24
I0
sg35
g39
sg14
F224.77653658390045
sg16
g36
(g70
S'\x01\x00\x00\x00'
tRp570
sg42
g43
sg46
g47
sg15
g100
sg22
F226.96195806888863
sg64
g180
sg62
g74
sg49
g50
sS'trials.thisN'
p571
I44
sg19
I1
sg27
g36
(g38
S'\x00\x00\x00\x00\x00\x00\x1e@'
tRp572
sg52
g53
sg23
S'2'
sg18
F226.13940817816183
sg33
g34
sg51
g11
sg20
S'1'
sg65
g36
(g77
S'\x00\x00\x00\x00\x00\x00\x00\x00'
tRp573
sg44
g45
sg40
g41
sg25
F0.37103384546935558
sS'trials.thisIndex'
p574
g36
(g80
S'\x15\x00\x00\x00'
tRp575
sg26
V5
sS'trials.thisRepN'
p576
I0
sg66
Vcrab
p577
sg63
V../experiment_stimuli/bw_bc_bl/Living_Things/Marine_creatures/crab_7.jpg
p578
sg21
F0.80198875768110156
sS'trials.thisTrialN'
p579
I44
sa(dp580
g31
g32
sg17
F229.09157945681363
sg24
I0
sg35
g39
sg14
F229.06587830511853
sg16
g36
(g70
S'\x01\x00\x00\x00'
tRp581
sg42
g43
sg46
g47
sg15
g72
sg22
F232.63429188588634
sg64
g405
sg62
g113
sg49
g50
sS'trials.thisN'
p582
I45
sg19
I1
sg27
g36
(g38
S'\x00\x00\x00\x00\x00\x00\x18@'
tRp583
sg52
g53
sg23
S'2'
sg18
F230.41873056348413
sg33
g34
sg51
g11
sg20
S'1'
sg65
g36
(g77
S'\x00\x00\x00\x00\x00\x00\x00\x00'
tRp584
sg44
g45
sg40
g41
sg25
F0.62157213967293501
sS'trials.thisIndex'
p585
g36
(g80
S'>\x00\x00\x00'
tRp586
sg26
V5
sS'trials.thisRepN'
p587
I0
sg66
Vpiano
p588
sg63
V../experiment_stimuli/bw_bc_bl/Nonliving_Things/Musical_Inst/piano__19.jpg
p589
sg21
F2.1950050094164908
sS'trials.thisTrialN'
p590
I45
sa(dp591
g31
g32
sg17
F235.018537490163
sg24
I1
sg35
g39
sg14
F234.98877743445337
sg16
g36
(g70
S'\x02\x00\x00\x00'
tRp592
sg42
g43
sg46
g47
sg15
g72
sg22
F240.62169067095965
sg64
g73
sg62
g74
sg49
g50
sS'trials.thisN'
p593
I46
sg19
I0
sg27
g36
(g38
S'\x00\x00\x00\x00\x00\x00\x1c@'
tRp594
sg52
g53
sg23
S'1'
sg18
F236.33160284161568
sg33
g34
sg51
g11
sg20
S'1'
sg65
g36
(g77
S'\x00\x00\x00\x00\x00\x00\x00\x00'
tRp595
sg44
g45
sg40
g41
sg25
F0.82201361423358321
sS'trials.thisIndex'
p596
g36
(g80
S'F\x00\x00\x00'
tRp597
sg26
V5
sS'trials.thisRepN'
p598
I0
sg66
Vrooster
p599
sg63
V../experiment_stimuli/bw_bc_bl/Living_Things/Birds/rooster_25.jpg
p600
sg21
F4.2695162491872907
sS'trials.thisTrialN'
p601
I46
sa(dp602
g31
g32
sg17
F243.20582978241146
sg24
I1
sg35
g39
sg14
F243.17660138988867
sg16
g36
(g70
S'\x01\x00\x00\x00'
tRp603
sg42
g43
sg46
g47
sg15
g72
sg22
F245.17159246187657
sg64
g393
sg62
g113
sg49
g50
sS'trials.thisN'
p604
I47
sg19
I1
sg27
g36
(g38
S'\x00\x00\x00\x00\x00\x00\x1a@'
tRp605
sg52
g53
sg23
S'1'
sg18
F244.52945236256346
sg33
g34
sg51
g11
sg20
S'1'
sg65
g36
(g77
S'\x00\x00\x00\x00\x00\x00\x00\x00'
tRp606
sg44
g45
sg40
g41
sg25
F0.6616705134510994
sS'trials.thisIndex'
p607
g36
(g80
S'M\x00\x00\x00'
tRp608
sg26
V5
sS'trials.thisRepN'
p609
I0
sg66
Vsmall-saucepan
p610
sg63
V../experiment_stimuli/bw_bc_bl/Nonliving_Things/Kitchen_Uten/small-saucepan_7.jpg
p611
sg21
F0.62158666551113129
sS'trials.thisTrialN'
p612
I47
sa(dp613
g31
g32
sg17
F247.59421952953562
sg24
I0
sg35
g39
sg14
F247.56616007955745
sg16
g36
(g70
S'\x02\x00\x00\x00'
tRp614
sg42
g43
sg46
g47
sg15
g72
sg22
F249.81169483205304
sg64
g88
sg62
g74
sg49
g50
sS'trials.thisN'
p615
I48
sg19
I1
sg27
g36
(g38
S'\x00\x00\x00\x00\x00\x00\x1e@'
tRp616
sg52
g53
sg23
S'2'
sg18
F248.93905747961253
sg33
g34
sg51
g11
sg20
S'2'
sg65
g36
(g77
S'\x00\x00\x00\x00\x00\x00\x00\x00'
tRp617
sg44
g45
sg40
g41
sg25
F0.46122820768505335
sS'trials.thisIndex'
p618
g36
(g80
S'R\x00\x00\x00'
tRp619
sg26
V5
sS'trials.thisRepN'
p620
I0
sg66
Vtapir
p621
sg63
V../experiment_stimuli/bw_bc_bl/Living_Things/Animals/tapir_15.jpg
p622
sg21
F0.84205307904630899
sS'trials.thisTrialN'
p623
I48
sa(dp624
g31
g32
sg17
F252.03513351734728
sg24
I1
sg35
g39
sg14
F252.00583211798221
sg16
g36
(g70
S'\x01\x00\x00\x00'
tRp625
sg42
g43
sg46
g47
sg15
g72
sg22
F254.74244496412575
sg64
g112
sg62
g113
sg49
g50
sS'trials.thisN'
p626
I49
sg19
I1
sg27
g36
(g38
S'\x00\x00\x00\x00\x00\x00\x18@'
tRp627
sg52
g53
sg23
S'1'
sg18
F253.36869744537398
sg33
g34
sg51
g11
sg20
S'1'
sg65
g36
(g77
S'\x00\x00\x00\x00\x00\x00\x00\x00'
tRp628
sg44
g45
sg40
g41
sg25
F0.34095753729343414
sS'trials.thisIndex'
p629
g36
(g80
S'V\x00\x00\x00'
tRp630
sg26
V5
sS'trials.thisRepN'
p631
I0
sg66
Vtractor
p632
sg63
V../experiment_stimuli/bw_bc_bl/Nonliving_Things/Vehicles/tractor_23.jpg
p633
sg21
F1.3531829724088311
sS'trials.thisTrialN'
p634
I49
sa(dp635
g31
g32
sg17
F256.84851571451873
sg24
I1
sg35
g39
sg14
F256.81630479358137
sg16
g36
(g70
S'\x02\x00\x00\x00'
tRp636
sg42
g43
sg46
g47
sg15
g72
sg22
F259.54289216874167
sg64
g88
sg62
g74
sg49
g50
sS'trials.thisN'
p637
I50
sg19
I1
sg27
g36
(g38
S'\x00\x00\x00\x00\x00\x00\x18@'
tRp638
sg52
g53
sg23
S'1'
sg18
F258.20923548284918
sg33
g34
sg51
g11
sg20
S'2'
sg65
g36
(g77
S'\x00\x00\x00\x00\x00\x00\x00\x00'
tRp639
sg44
g45
sg40
g41
sg25
F0.8520776447840035
sS'trials.thisIndex'
p640
g36
(g80
S'T\x00\x00\x00'
tRp641
sg26
V5
sS'trials.thisRepN'
p642
I0
sg66
Vtiger
p643
sg63
V../experiment_stimuli/bw_bc_bl/Living_Things/Animals/tiger_2.jpg
p644
sg21
F1.3130869562737644
sS'trials.thisTrialN'
p645
I50
sa(dp646
g31
g32
sg17
F262.15880753286183
sg24
I1
sg35
g39
sg14
F262.12788110645488
sg16
g36
(g70
S'\x02\x00\x00\x00'
tRp647
sg42
g43
sg46
g47
sg15
g100
sg22
F264.71415519155562
sg64
g203
sg62
g113
sg49
g50
sS'trials.thisN'
p648
I51
sg19
I1
sg27
g36
(g38
S'\x00\x00\x00\x00\x00\x00\x18@'
tRp649
sg52
g53
sg23
S'1'
sg18
F263.53082638652995
sg33
g34
sg51
g11
sg20
S'2'
sg65
g36
(g77
S'\x00\x00\x00\x00\x00\x00\x00\x00'
tRp650
sg44
g45
sg40
g41
sg25
F0.68171048210933805
sS'trials.thisIndex'
p651
g36
(g80
S'5\x00\x00\x00'
tRp652
sg26
V5
sS'trials.thisRepN'
p653
I0
sg66
Vmill
p654
sg63
V../experiment_stimuli/bw_bc_bl/Nonliving_Things/Buildings/mill_8.jpg
p655
sg21
F1.1627784729935229
sS'trials.thisTrialN'
p656
I51
sa(dp657
g31
g32
sg17
F267.15297184884548
sg24
I1
sg35
g39
sg14
F267.12875209050253
sg16
g36
(g70
S'\x01\x00\x00\x00'
tRp658
sg42
g43
sg46
g47
sg15
g72
sg22
F269.96559265302494
sg64
g112
sg62
g113
sg49
g50
sS'trials.thisN'
p659
I52
sg19
I1
sg27
g36
(g38
S'\x00\x00\x00\x00\x00\x00\x18@'
tRp660
sg52
g53
sg23
S'1'
sg18
F268.54173937207088
sg33
g34
sg51
g11
sg20
S'1'
sg65
g36
(g77
S'\x00\x00\x00\x00\x00\x00\x00\x00'
tRp661
sg44
g45
sg40
g41
sg25
F0.85209826473146677
sS'trials.thisIndex'
p662
g36
(g80
S'6\x00\x00\x00'
tRp663
sg26
V5
sS'trials.thisRepN'
p664
I0
sg66
Vmotorbike
p665
sg63
V../experiment_stimuli/bw_bc_bl/Nonliving_Things/Vehicles/motorbike_16.jpg
p666
sg21
F1.4033039677888155
sS'trials.thisTrialN'
p667
I52
sa(dp668
g31
g32
sg17
F272.5748015367426
sg24
I0
sg35
g39
sg14
F272.55056530889124
sg16
g36
(g70
S'\x01\x00\x00\x00'
tRp669
sg42
g43
sg46
g47
sg15
g72
sg22
F276.47980607813224
sg64
g112
sg62
g113
sg49
g50
sS'trials.thisN'
p670
I53
sg19
I0
sg27
g36
(g38
S'\x00\x00\x00\x00\x00\x00\x1e@'
tRp671
sg52
g53
sg23
S'2'
sg18
F273.99360612081364
sg33
g34
sg51
g11
sg20
S'2'
sg65
g36
(g77
S'\x00\x00\x00\x00\x00\x00\x00\x00'
tRp672
sg44
g45
sg40
g41
sg25
F0.56144617265090346
sS'trials.thisIndex'
p673
g36
(g80
S'@\x00\x00\x00'
tRp674
sg26
V5
sS'trials.thisRepN'
p675
I0
sg66
Vplane
p676
sg63
V../experiment_stimuli/bw_bc_bl/Nonliving_Things/Vehicles/plane_0.jpg
p677
sg21
F2.4655989450402558
sS'trials.thisTrialN'
p678
I53
sa(dp679
g31
g32
sg17
F278.79409869294614
sg24
I0
sg35
g39
sg14
F278.77412152849138
sg16
g36
(g70
S'\x01\x00\x00\x00'
tRp680
sg42
g43
sg46
g47
sg15
g72
sg22
F283.19439677521586
sg64
g270
sg62
g113
sg49
g50
sS'trials.thisN'
p681
I54
sg19
I1
sg27
g36
(g38
S'\x00\x00\x00\x00\x00\x00\x18@'
tRp682
sg52
g53
sg23
S'2'
sg18
F280.18709964444861
sg33
g34
sg51
g11
sg20
S'1'
sg65
g36
(g77
S'\x00\x00\x00\x00\x00\x00\x00\x00'
tRp683
sg44
g45
sg40
g41
sg25
F0.51133091002702713
sS'trials.thisIndex'
p684
g36
(g80
S'\x05\x00\x00\x00'
tRp685
sg26
V5
sS'trials.thisRepN'
p686
I0
sg66
Vbed
p687
sg63
V../experiment_stimuli/bw_bc_bl/Nonliving_Things/Furniture/bed_24.jpg
p688
sg21
F2.9867491777986288
sS'trials.thisTrialN'
p689
I54
sa(dp690
g31
g32
sg17
F285.47142548207194
sg24
I1
sg35
g39
sg14
F285.43862898554653
sg16
g36
(g70
S'\x01\x00\x00\x00'
tRp691
sg42
g43
sg46
g47
sg15
g72
sg22
F288.58612820040435
sg64
g393
sg62
g113
sg49
g50
sS'trials.thisN'
p692
I55
sg19
I1
sg27
g36
(g38
S'\x00\x00\x00\x00\x00\x00\x18@'
tRp693
sg52
g53
sg23
S'1'
sg18
F286.85160359414294
sg33
g34
sg51
g11
sg20
S'1'
sg65
g36
(g77
S'\x00\x00\x00\x00\x00\x00\x00\x00'
tRp694
sg44
g45
sg40
g41
sg25
F0.79194526793435216
sS'trials.thisIndex'
p695
g36
(g80
S'\x1e\x00\x00\x00'
tRp696
sg26
V5
sS'trials.thisRepN'
p697
I0
sg66
Vfondue
p698
sg63
V../experiment_stimuli/bw_bc_bl/Nonliving_Things/Kitchen_Uten/fondue_15.jpg
p699
sg21
F1.7139600226655602
sS'trials.thisTrialN'
p700
I55
sa(dp701
g31
g32
sg17
F291.12976647214964
sg24
I0
sg35
g39
sg14
F291.11098304297775
sg16
g36
(g70
S'\x01\x00\x00\x00'
tRp702
sg42
g43
sg46
g47
sg15
g100
sg22
F294.63931698258966
sg64
g180
sg62
g74
sg49
g50
sS'trials.thisN'
p703
I56
sg19
I1
sg27
g36
(g38
S'\x00\x00\x00\x00\x00\x00\x1a@'
tRp704
sg52
g53
sg23
S'2'
sg18
F292.5540221594274
sg33
g34
sg51
g11
sg20
S'1'
sg65
g36
(g77
S'\x00\x00\x00\x00\x00\x00\x00\x00'
tRp705
sg44
g45
sg40
g41
sg25
F0.87196840066462755
sS'trials.thisIndex'
p706
g36
(g80
S'P\x00\x00\x00'
tRp707
sg26
V5
sS'trials.thisRepN'
p708
I0
sg66
Vsperm-whale
p709
sg63
V../experiment_stimuli/bw_bc_bl/Living_Things/Marine_creatures/sperm-whale_13.jpg
p710
sg21
F2.0547042423859239
sS'trials.thisTrialN'
p711
I56
sa(dp712
g31
g32
sg17
F297.27735840622336
sg24
I0
sg35
g39
sg14
F297.24433091562241
sg16
g36
(g70
S'\x01\x00\x00\x00'
tRp713
sg42
g43
sg46
g47
sg15
g100
sg22
F299.50989622343332
sg64
g73
sg62
g74
sg49
g50
sS'trials.thisN'
p714
I57
sg19
I1
sg27
g36
(g38
S'\x00\x00\x00\x00\x00\x00\x1a@'
tRp715
sg52
g53
sg23
S'3'
sg18
F298.6873829155229
sg33
g34
sg51
g11
sg20
S'1'
sg65
g36
(g77
S'\x00\x00\x00\x00\x00\x00\x00\x00'
tRp716
sg44
g45
sg40
g41
sg25
F0.35101876361295581
sS'trials.thisIndex'
p717
g36
(g80
S'J\x00\x00\x00'
tRp718
sg26
V5
sS'trials.thisRepN'
p719
I0
sg66
Vseagull
p720
sg63
V../experiment_stimuli/bw_bc_bl/Living_Things/Birds/seagull_2.jpg
p721
sg21
F0.80197553941980004
sS'trials.thisTrialN'
p722
I57
sa(dp723
g31
g32
sg17
F301.62807260314003
sg24
I0
sg35
g39
sg14
F301.59380811080337
sg16
g36
(g70
S'\x02\x00\x00\x00'
tRp724
sg42
g43
sg46
g47
sg15
g72
sg22
F303.9195171338506
sg64
g73
sg62
g74
sg49
g50
sS'trials.thisN'
p725
I58
sg19
I1
sg27
g36
(g38
S'\x00\x00\x00\x00\x00\x00\x18@'
tRp726
sg52
g53
sg23
S'2'
sg18
F303.01680751005188
sg33
g34
sg51
g11
sg20
S'2'
sg65
g36
(g77
S'\x00\x00\x00\x00\x00\x00\x00\x00'
tRp727
sg44
g45
sg40
g41
sg25
F0.21068229712545872
sS'trials.thisIndex'
p728
g36
(g80
S'U\x00\x00\x00'
tRp729
sg26
V5
sS'trials.thisRepN'
p730
I0
sg66
Vtoucan
p731
sg63
V../experiment_stimuli/bw_bc_bl/Living_Things/Birds/toucan_6.jpg
p732
sg21
F0.88214371260255575
sS'trials.thisTrialN'
p733
I58
sa(dp734
g31
g32
sg17
F305.89165025483817
sg24
I1
sg35
g39
sg14
F305.86309719737619
sg16
g36
(g70
S'\x01\x00\x00\x00'
tRp735
sg42
g43
sg46
g47
sg15
g72
sg22
F307.81807100307196
sg64
g270
sg62
g113
sg49
g50
sS'trials.thisN'
p736
I59
sg19
I1
sg27
g36
(g38
S'\x00\x00\x00\x00\x00\x00\x18@'
tRp737
sg52
g53
sg23
S'1'
sg18
F307.27607845654711
sg33
g34
sg51
g11
sg20
S'1'
sg65
g36
(g77
S'\x00\x00\x00\x00\x00\x00\x00\x00'
tRp738
sg44
g45
sg40
g41
sg25
F0.28082736348733306
sS'trials.thisIndex'
p739
g36
(g80
S'\x0f\x00\x00\x00'
tRp740
sg26
V5
sS'trials.thisRepN'
p741
I0
sg66
Vchair
p742
sg63
V../experiment_stimuli/bw_bc_bl/Nonliving_Things/Furniture/chair_17.jpg
p743
sg21
F0.52144686179235578
sS'trials.thisTrialN'
p744
I59
sa(dp745
g31
g32
sg17
F309.86109812604263
sg24
I0
sg35
g39
sg14
F309.83174496795982
sg16
g36
(g70
S'\x01\x00\x00\x00'
tRp746
sg42
g43
sg46
g47
sg15
g100
sg22
F312.25765172298998
sg64
g88
sg62
g74
sg49
g50
sS'trials.thisN'
p747
I60
sg19
I1
sg27
g36
(g38
S'\x00\x00\x00\x00\x00\x00\x18@'
tRp748
sg52
g53
sg23
S'2'
sg18
F311.2647693278268
sg33
g34
sg51
g11
sg20
S'1'
sg65
g36
(g77
S'\x00\x00\x00\x00\x00\x00\x00\x00'
tRp749
sg44
g45
sg40
g41
sg25
F0.33093214081600308
sS'trials.thisIndex'
p750
g36
(g80
S"'\x00\x00\x00"
tRp751
sg26
V5
sS'trials.thisRepN'
p752
I0
sg66
Vhippopotamus
p753
sg63
V../experiment_stimuli/bw_bc_bl/Living_Things/Animals/hippopotamus_18.jpg
p754
sg21
F0.97234393190592527
sS'trials.thisTrialN'
p755
I60
sa(dp756
g31
g32
sg17
F314.35287576634437
sg24
I1
sg35
g39
sg14
F314.32151442719623
sg16
g36
(g70
S'\x02\x00\x00\x00'
tRp757
sg42
g43
sg46
g47
sg15
g100
sg22
F316.43662991886958
sg64
g112
sg62
g113
sg49
g50
sS'trials.thisN'
p758
I61
sg19
I1
sg27
g36
(g38
S'\x00\x00\x00\x00\x00\x00\x18@'
tRp759
sg52
g53
sg23
S'1'
sg18
F315.75454994430766
sg33
g34
sg51
g11
sg20
S'2'
sg65
g36
(g77
S'\x00\x00\x00\x00\x00\x00\x00\x00'
tRp760
sg44
g45
sg40
g41
sg25
F0.54142015427350998
sS'trials.thisIndex'
p761
g36
(g80
S'W\x00\x00\x00'
tRp762
sg26
V5
sS'trials.thisRepN'
p763
I0
sg66
Vtrain
p764
sg63
V../experiment_stimuli/bw_bc_bl/Nonliving_Things/Vehicles/train_11.jpg
p765
sg21
F0.66150787612423301
sS'trials.thisTrialN'
p766
I61
sa(dp767
g31
g32
sg17
F318.74645725497976
sg24
I0
sg35
g39
sg14
F318.71107791736722
sg16
g36
(g70
S'\x02\x00\x00\x00'
tRp768
sg42
g43
sg46
g47
sg15
g72
sg22
F321.05682587902993
sg64
g293
sg62
g74
sg49
g50
sS'trials.thisN'
p769
I62
sg19
I1
sg27
g36
(g38
S'\x00\x00\x00\x00\x00\x00\x1a@'
tRp770
sg52
g53
sg23
S'2'
sg18
F320.17416576575488
sg33
g34
sg51
g11
sg20
S'2'
sg65
g36
(g77
S'\x00\x00\x00\x00\x00\x00\x00\x00'
tRp771
sg44
g45
sg40
g41
sg25
F0.70175048848614097
sS'trials.thisIndex'
p772
g36
(g80
S'I\x00\x00\x00'
tRp773
sg26
V5
sS'trials.thisRepN'
p774
I0
sg66
Vscorpion
p775
sg63
V../experiment_stimuli/bw_bc_bl/Living_Things/Insects/scorpion_6.jpg
p776
sg21
F0.86210495047271252
sS'trials.thisTrialN'
p777
I62
sa(dp778
g31
g32
sg17
F323.51636570086703
sg24
I1
sg35
g39
sg14
F323.4914844725281
sg16
g36
(g70
S'\x02\x00\x00\x00'
tRp779
sg42
g43
sg46
g47
sg15
g100
sg22
F328.6633989578113
sg64
g203
sg62
g113
sg49
g50
sS'trials.thisN'
p780
I63
sg19
I1
sg27
g36
(g38
S'\x00\x00\x00\x00\x00\x00\x18@'
tRp781
sg52
g53
sg23
S'1'
sg18
F324.93453328823671
sg33
g34
sg51
g11
sg20
S'2'
sg65
g36
(g77
S'\x00\x00\x00\x00\x00\x00\x00\x00'
tRp782
sg44
g45
sg40
g41
sg25
F0.40109237981960177
sS'trials.thisIndex'
p783
g36
(g80
S'#\x00\x00\x00'
tRp784
sg26
V5
sS'trials.thisRepN'
p785
I0
sg66
Vgranary
p786
sg63
V../experiment_stimuli/bw_bc_bl/Nonliving_Things/Buildings/granary_17.jpg
p787
sg21
F3.7083041272126138
sS'trials.thisTrialN'
p788
I63
sa(dp789
g31
g32
sg17
F330.81614915374666
sg24
I1
sg35
g39
sg14
F330.79739537835121
sg16
g36
(g70
S'\x01\x00\x00\x00'
tRp790
sg42
g43
sg46
g47
sg15
g72
sg22
F333.91482244618237
sg64
g393
sg62
g113
sg49
g50
sS'trials.thisN'
p791
I64
sg19
I1
sg27
g36
(g38
S'\x00\x00\x00\x00\x00\x00\x1c@'
tRp792
sg52
g53
sg23
S'1'
sg18
F332.270502416417
sg33
g34
sg51
g11
sg20
S'1'
sg65
g36
(g77
S'\x00\x00\x00\x00\x00\x00\x00\x00'
tRp793
sg44
g45
sg40
g41
sg25
F0.32091709785163403
sS'trials.thisIndex'
p794
g36
(g80
S'\x16\x00\x00\x00'
tRp795
sg26
V5
sS'trials.thisRepN'
p796
I0
sg66
Vcup
p797
sg63
V../experiment_stimuli/bw_bc_bl/Nonliving_Things/Kitchen_Uten/cup_4.jpg
p798
sg21
F1.6237669121474028
sS'trials.thisTrialN'
p799
I64
sa(dp800
g31
g32
sg17
F335.99827034166083
sg24
I0
sg35
g39
sg14
F335.9686552202329
sg16
g36
(g70
S'\x01\x00\x00\x00'
tRp801
sg42
g43
sg46
g47
sg15
g100
sg22
F338.38454563962296
sg64
g88
sg62
g74
sg49
g50
sS'trials.thisN'
p802
I65
sg19
I0
sg27
g36
(g38
S'\x00\x00\x00\x00\x00\x00\x18@'
tRp803
sg52
g53
sg23
S'2'
sg18
F337.45179013209417
sg33
g34
sg51
g11
sg20
S'2'
sg65
g36
(g77
S'\x00\x00\x00\x00\x00\x00\x00\x00'
tRp804
sg44
g45
sg40
g41
sg25
F0.43115995917469263
sS'trials.thisIndex'
p805
g36
(g80
S'D\x00\x00\x00'
tRp806
sg26
V5
sS'trials.thisRepN'
p807
I0
sg66
Vrhino
p808
sg63
V../experiment_stimuli/bw_bc_bl/Living_Things/Animals/rhino_12.jpg
p809
sg21
F0.90219211019575596
sS'trials.thisTrialN'
p810
I65
sa(dp811
g31
g32
sg17
F340.57303357962519
sg24
I0
sg35
g39
sg14
F340.5486282329075
sg16
g36
(g70
S'\x02\x00\x00\x00'
tRp812
sg42
g43
sg46
g47
sg15
g100
sg22
F342.62362550152466
sg64
g270
sg62
g113
sg49
g50
sS'trials.thisN'
p813
I66
sg19
I1
sg27
g36
(g38
S'\x00\x00\x00\x00\x00\x00\x18@'
tRp814
sg52
g53
sg23
S'2'
sg18
F342.0217369212769
sg33
g34
sg51
g11
sg20
S'2'
sg65
g36
(g77
S'\x00\x00\x00\x00\x00\x00\x00\x00'
tRp815
sg44
g45
sg40
g41
sg25
F0.97234993148595095
sS'trials.thisIndex'
p816
g36
(g80
S'\x00\x00\x00\x00'
tRp817
sg26
V5
sS'trials.thisRepN'
p818
I0
sg66
VChest-of-drawers
p819
sg63
V../experiment_stimuli/bw_bc_bl/Nonliving_Things/Furniture/Chest-of-drawers_12.jpg
p820
sg21
F0.5813306993804872
sS'trials.thisTrialN'
p821
I66
sa(dp822
g31
g32
sg17
F345.35273311240599
sg24
I0
sg35
g39
sg14
F345.32905421266332
sg16
g36
(g70
S'\x02\x00\x00\x00'
tRp823
sg42
g43
sg46
g47
sg15
g100
sg22
F347.60465430794284
sg64
g112
sg62
g113
sg49
g50
sS'trials.thisN'
p824
I67
sg19
I1
sg27
g36
(g38
S'\x00\x00\x00\x00\x00\x00\x18@'
tRp825
sg52
g53
sg23
S'3'
sg18
F346.79212334007025
sg33
g34
sg51
g11
sg20
S'2'
sg65
g36
(g77
S'\x00\x00\x00\x00\x00\x00\x00\x00'
tRp826
sg44
g45
sg40
g41
sg25
F0.80210874928161502
sS'trials.thisIndex'
p827
g36
(g80
S'\t\x00\x00\x00'
tRp828
sg26
V5
sS'trials.thisRepN'
p829
I0
sg66
Vbus
p830
sg63
V../experiment_stimuli/bw_bc_bl/Nonliving_Things/Vehicles/bus_18.jpg
p831
sg21
F0.79195071896538138
sS'trials.thisTrialN'
p832
I67
sa(dp833
g31
g32
sg17
F350.15485231392086
sg24
I0
sg35
g39
sg14
F350.13951224600896
sg16
g36
(g70
S'\x02\x00\x00\x00'
tRp834
sg42
g43
sg46
g47
sg15
g100
sg22
F353.72797641623765
sg64
g270
sg62
g113
sg49
g50
sS'trials.thisN'
p835
I68
sg19
I1
sg27
g36
(g38
S'\x00\x00\x00\x00\x00\x00\x18@'
tRp836
sg52
g53
sg23
S'2'
sg18
F351.56251646159217
sg33
g34
sg51
g11
sg20
S'2'
sg65
g36
(g77
S'\x00\x00\x00\x00\x00\x00\x00\x00'
tRp837
sg44
g45
sg40
g41
sg25
F0.88214329909533262
sS'trials.thisIndex'
p838
g36
(g80
S'E\x00\x00\x00'
tRp839
sg26
V5
sS'trials.thisRepN'
p840
I0
sg66
Vrocking-chair
p841
sg63
V../experiment_stimuli/bw_bc_bl/Nonliving_Things/Furniture/rocking-chair_25.jpg
p842
sg21
F2.1448982427828014
sS'trials.thisTrialN'
p843
I68
sa(dp844
g31
g32
sg17
F356.37117610359564
sg24
I0
sg35
g39
sg14
F356.34303245926276
sg16
g36
(g70
S'\x02\x00\x00\x00'
tRp845
sg42
g43
sg46
g47
sg15
g100
sg22
F358.50836130231619
sg64
g203
sg62
g113
sg49
g50
sS'trials.thisN'
p846
I69
sg19
I1
sg27
g36
(g38
S'\x00\x00\x00\x00\x00\x00\x1a@'
tRp847
sg52
g53
sg23
S'3'
sg18
F357.76602197159082
sg33
g34
sg51
g11
sg20
S'2'
sg65
g36
(g77
S'\x00\x00\x00\x00\x00\x00\x00\x00'
tRp848
sg44
g45
sg40
g41
sg25
F1.2629920355975628
sS'trials.thisIndex'
p849
g36
(g80
S'\x0e\x00\x00\x00'
tRp850
sg26
V5
sS'trials.thisRepN'
p851
I0
sg66
Vcathedral
p852
sg63
V../experiment_stimuli/bw_bc_bl/Nonliving_Things/Buildings/cathedral_4.jpg
p853
sg21
F0.72179045015946031
sS'trials.thisTrialN'
p854
I69
sa(dp855
g31
g32
sg17
F361.52981623914093
sg24
I0
sg35
g39
sg14
F361.50426056655124
sg16
g36
(g70
S'\x02\x00\x00\x00'
tRp856
sg42
g43
sg46
g47
sg15
g100
sg22
F363.80993372574449
sg64
g405
sg62
g113
sg49
g50
sS'trials.thisN'
p857
I70
sg19
I1
sg27
g36
(g38
S'\x00\x00\x00\x00\x00\x00\x1a@'
tRp858
sg52
g53
sg23
S'3'
sg18
F362.90721884323284
sg33
g34
sg51
g11
sg20
S'2'
sg65
g36
(g77
S'\x00\x00\x00\x00\x00\x00\x00\x00'
tRp859
sg44
g45
sg40
g41
sg25
F0.43115418124943972
sS'trials.thisIndex'
p860
g36
(g80
S'Y\x00\x00\x00'
tRp861
sg26
V5
sS'trials.thisRepN'
p862
I0
sg66
Vtuba
p863
sg63
V../experiment_stimuli/bw_bc_bl/Nonliving_Things/Musical_Inst/tuba_25.jpg
p864
sg21
F0.88215193431824446
sS'trials.thisTrialN'
p865
I70
sa(dp866
g31
g32
sg17
F365.98160702688619
sg24
I1
sg35
g39
sg14
F365.97399215074256
sg16
g36
(g70
S'\x02\x00\x00\x00'
tRp867
sg42
g43
sg46
g47
sg15
g100
sg22
F370.79497853294015
sg64
g405
sg62
g113
sg49
g50
sS'trials.thisN'
p868
I71
sg19
I1
sg27
g36
(g38
S'\x00\x00\x00\x00\x00\x00\x18@'
tRp869
sg52
g53
sg23
S'1'
sg18
F367.32683929242194
sg33
g34
sg51
g11
sg20
S'2'
sg65
g36
(g77
S'\x00\x00\x00\x00\x00\x00\x00\x00'
tRp870
sg44
g45
sg40
g41
sg25
F0.8520822087302804
sS'trials.thisIndex'
p871
g36
(g80
S'\x19\x00\x00\x00'
tRp872
sg26
V5
sS'trials.thisRepN'
p873
I0
sg66
Vdrum
p874
sg63
V../experiment_stimuli/bw_bc_bl/Nonliving_Things/Musical_Inst/drum_11.jpg
p875
sg21
F3.447576604783535
sS'trials.thisTrialN'
p876
I71
sa(dp877
g31
g32
sg17
F373.41064105415717
sg24
I1
sg35
g39
sg14
F373.38011145731434
sg16
g36
(g70
S'\x02\x00\x00\x00'
tRp878
sg42
g43
sg46
g47
sg15
g100
sg22
F375.29478585813195
sg64
VTools
p879
sg62
g113
sg49
g50
sS'trials.thisN'
p880
I72
sg19
I1
sg27
g36
(g38
S'\x00\x00\x00\x00\x00\x00\x18@'
tRp881
sg52
g53
sg23
S'1'
sg18
F374.7730537103489
sg33
g34
sg51
g11
sg20
S'2'
sg65
g36
(g77
S'\x00\x00\x00\x00\x00\x00\x00\x00'
tRp882
sg44
g45
sg40
g41
sg25
F0.51117664109915495
sS'trials.thisIndex'
p883
g36
(g80
S'\x03\x00\x00\x00'
tRp884
sg26
V5
sS'trials.thisRepN'
p885
I0
sg66
Vaxe
p886
sg63
V../experiment_stimuli/bw_bc_bl/Nonliving_Things/Tools/axe_11.jpg
p887
sg21
F0.50116249267011881
sS'trials.thisTrialN'
p888
I72
sa(dp889
g31
g32
sg17
F377.56180050736293
sg24
I1
sg35
g39
sg14
F377.53919119015336
sg16
g36
(g70
S'\x01\x00\x00\x00'
tRp890
sg42
g43
sg46
g47
sg15
g100
sg22
F382.24003298021853
sg64
g180
sg62
g74
sg49
g50
sS'trials.thisN'
p891
I73
sg19
I1
sg27
g36
(g38
S'\x00\x00\x00\x00\x00\x00\x18@'
tRp892
sg52
g53
sg23
S'1'
sg18
F378.93211398040876
sg33
g34
sg51
g11
sg20
S'1'
sg65
g36
(g77
S'\x00\x00\x00\x00\x00\x00\x00\x00'
tRp893
sg44
g45
sg40
g41
sg25
F0.50131455156952143
sS'trials.thisIndex'
p894
g36
(g80
S'K\x00\x00\x00'
tRp895
sg26
V5
sS'trials.thisRepN'
p896
I0
sg66
Vshark
p897
sg63
V../experiment_stimuli/bw_bc_bl/Living_Things/Marine_creatures/shark_10.jpg
p898
sg21
F3.2873854977078736
sS'trials.thisTrialN'
p899
I73
sa(dp900
g31
g32
sg17
F384.49487012485042
sg24
I1
sg35
g39
sg14
F384.47427662089467
sg16
g36
(g70
S'\x01\x00\x00\x00'
tRp901
sg42
g43
sg46
g47
sg15
g100
sg22
F386.62961482349783
sg64
g73
sg62
g74
sg49
g50
sS'trials.thisN'
p902
I74
sg19
I1
sg27
g36
(g38
S'\x00\x00\x00\x00\x00\x00\x18@'
tRp903
sg52
g53
sg23
S'1'
sg18
F385.89727637730539
sg33
g34
sg51
g11
sg20
S'1'
sg65
g36
(g77
S'\x00\x00\x00\x00\x00\x00\x00\x00'
tRp904
sg44
g45
sg40
g41
sg25
F0.56145572103559971
sS'trials.thisIndex'
p905
g36
(g80
S'!\x00\x00\x00'
tRp906
sg26
V5
sS'trials.thisRepN'
p907
I0
sg66
Vgoldfinch
p908
sg63
V../experiment_stimuli/bw_bc_bl/Living_Things/Birds/goldfinch_14.jpg
p909
sg21
F0.71178167453035712
sS'trials.thisTrialN'
p910
I74
sa(dp911
g31
g32
sg17
F388.9439110965468
sg24
I1
sg35
g39
sg14
F388.92397181829438
sg16
g36
(g70
S'\x02\x00\x00\x00'
tRp912
sg42
g43
sg46
g47
sg15
g100
sg22
F391.11939109768718
sg64
g393
sg62
g113
sg49
g50
sS'trials.thisN'
p913
I75
sg19
I1
sg27
g36
(g38
S'\x00\x00\x00\x00\x00\x00\x18@'
tRp914
sg52
g53
sg23
S'1'
sg18
F390.37703727465123
sg33
g34
sg51
g11
sg20
S'2'
sg65
g36
(g77
S'\x00\x00\x00\x00\x00\x00\x00\x00'
tRp915
sg44
g45
sg40
g41
sg25
F0.42098294803872705
sS'trials.thisIndex'
p916
g36
(g80
S'S\x00\x00\x00'
tRp917
sg26
V5
sS'trials.thisRepN'
p918
I0
sg66
Vteapot
p919
sg63
V../experiment_stimuli/bw_bc_bl/Nonliving_Things/Kitchen_Uten/teapot_17.jpg
p920
sg21
F0.72179691959172487
sS'trials.thisTrialN'
p921
I75
sa(dp922
g31
g32
sg17
F393.30797745427117
sg24
I1
sg35
g39
sg14
F393.27343505900353
sg16
g36
(g70
S'\x02\x00\x00\x00'
tRp923
sg42
g43
sg46
g47
sg15
g100
sg22
F395.66914265695959
sg64
g270
sg62
g113
sg49
g50
sS'trials.thisN'
p924
I76
sg19
I1
sg27
g36
(g38
S'\x00\x00\x00\x00\x00\x00 @'
tRp925
sg52
g53
sg23
S'1'
sg18
F394.76659078011289
sg33
g34
sg51
g11
sg20
S'2'
sg65
g36
(g77
S'\x00\x00\x00\x00\x00\x00\x00\x00'
tRp926
sg44
g45
sg40
g41
sg25
F0.37087415484711528
sS'trials.thisIndex'
p927
g36
(g80
S'Q\x00\x00\x00'
tRp928
sg26
V5
sS'trials.thisRepN'
p929
I0
sg66
Vtable
p930
sg63
V../experiment_stimuli/bw_bc_bl/Nonliving_Things/Furniture/table_1.jpg
p931
sg21
F0.88197921449318528
sS'trials.thisTrialN'
p932
I76
sa(dp933
g31
g32
sg17
F397.80087741697207
sg24
I1
sg35
g39
sg14
F397.77323021087795
sg16
g36
(g70
S'\x02\x00\x00\x00'
tRp934
sg42
g43
sg46
g47
sg15
g100
sg22
F400.33950058976188
sg64
g405
sg62
g113
sg49
g50
sS'trials.thisN'
p935
I77
sg19
I1
sg27
g36
(g38
S'\x00\x00\x00\x00\x00\x00\x18@'
tRp936
sg52
g53
sg23
S'1'
sg18
F399.28643045388162
sg33
g34
sg51
g11
sg20
S'2'
sg65
g36
(g77
S'\x00\x00\x00\x00\x00\x00\x00\x00'
tRp937
sg44
g45
sg40
g41
sg25
F0.40109836449846625
sS'trials.thisIndex'
p938
g36
(g80
S'X\x00\x00\x00'
tRp939
sg26
V5
sS'trials.thisRepN'
p940
I0
sg66
Vtrumpet
p941
sg63
V../experiment_stimuli/bw_bc_bl/Nonliving_Things/Musical_Inst/trumpet_16.jpg
p942
sg21
F1.0324930753558874
sS'trials.thisTrialN'
p943
I77
sa(dp944
g31
g32
sg17
F402.48856256622821
sg24
I1
sg35
g39
sg14
F402.47347705950961
sg16
g36
(g70
S'\x01\x00\x00\x00'
tRp945
sg42
g43
sg46
g47
sg15
g72
sg22
F406.66325107170269
sg64
g203
sg62
g113
sg49
g50
sS'trials.thisN'
p946
I78
sg19
I1
sg27
g36
(g38
S'\x00\x00\x00\x00\x00\x00\x1c@'
tRp947
sg52
g53
sg23
S'1'
sg18
F403.99668548023328
sg33
g34
sg51
g11
sg20
S'1'
sg65
g36
(g77
S'\x00\x00\x00\x00\x00\x00\x00\x00'
tRp948
sg44
g45
sg40
g41
sg25
F0.73181571485474706
sS'trials.thisIndex'
p949
g36
(g80
S'\x1c\x00\x00\x00'
tRp950
sg26
V5
sS'trials.thisRepN'
p951
I0
sg66
Vfactory
p952
sg63
V../experiment_stimuli/bw_bc_bl/Nonliving_Things/Buildings/factory_18.jpg
p953
sg21
F2.6459991917945445
sS'trials.thisTrialN'
p954
I78
sa(dp955
g31
g32
sg17
F409.16239118622616
sg24
I1
sg35
g39
sg14
F409.12795279733837
sg16
g36
(g70
S'\x01\x00\x00\x00'
tRp956
sg42
g43
sg46
g47
sg15
g100
sg22
F411.60400980664417
sg64
g73
sg62
g74
sg49
g50
sS'trials.thisN'
p957
I79
sg19
I1
sg27
g36
(g38
S'\x00\x00\x00\x00\x00\x00\x1a@'
tRp958
sg52
g53
sg23
S'1'
sg18
F410.70129752950743
sg33
g34
sg51
g11
sg20
S'1'
sg65
g36
(g77
S'\x00\x00\x00\x00\x00\x00\x00\x00'
tRp959
sg44
g45
sg40
g41
sg25
F1.1226702458225191
sS'trials.thisIndex'
p960
g36
(g80
S'<\x00\x00\x00'
tRp961
sg26
V5
sS'trials.thisRepN'
p962
I0
sg66
Vpelican
p963
sg63
V../experiment_stimuli/bw_bc_bl/Living_Things/Birds/pelican_13.jpg
p964
sg21
F0.88215758046135306
sS'trials.thisTrialN'
p965
I79
sa(dp966
g31
g32
sg17
F414.49273177841678
sg24
I1
sg35
g39
sg14
F414.45956958970055
sg16
g36
(g70
S'\x02\x00\x00\x00'
tRp967
sg42
g43
sg46
g47
sg15
g72
sg22
F417.14605626370758
sg64
g73
sg62
g74
sg49
g50
sS'trials.thisN'
p968
I80
sg19
I1
sg27
g36
(g38
S'\x00\x00\x00\x00\x00\x00\x1c@'
tRp969
sg52
g53
sg23
S'1'
sg18
F416.03289423556998
sg33
g34
sg51
g11
sg20
S'2'
sg65
g36
(g77
S'\x00\x00\x00\x00\x00\x00\x00\x00'
tRp970
sg44
g45
sg40
g41
sg25
F0.43115709396079183
sS'trials.thisIndex'
p971
g36
(g80
S'=\x00\x00\x00'
tRp972
sg26
V5
sS'trials.thisRepN'
p973
I0
sg66
Vpenguin
p974
sg63
V../experiment_stimuli/bw_bc_bl/Living_Things/Birds/penguin_26.jpg
p975
sg21
F1.0926053542643785
sS'trials.thisTrialN'
p976
I80
sa(dp977
g31
g32
sg17
F419.3309625396505
sg24
I1
sg35
g39
sg14
F419.31012825621292
sg16
g36
(g70
S'\x01\x00\x00\x00'
tRp978
sg42
g43
sg46
g47
sg15
g72
sg22
F421.97659804392606
sg64
g393
sg62
g113
sg49
g50
sS'trials.thisN'
p979
I81
sg19
I1
sg27
g36
(g38
S'\x00\x00\x00\x00\x00\x00\x18@'
tRp980
sg52
g53
sg23
S'1'
sg18
F420.88347112340853
sg33
g34
sg51
g11
sg20
S'1'
sg65
g36
(g77
S'\x00\x00\x00\x00\x00\x00\x00\x00'
tRp981
sg44
g45
sg40
g41
sg25
F0.6817128318361938
sS'trials.thisIndex'
p982
g36
(g80
S'G\x00\x00\x00'
tRp983
sg26
V5
sS'trials.thisRepN'
p984
I0
sg66
Vsaucepan
p985
sg63
V../experiment_stimuli/bw_bc_bl/Nonliving_Things/Kitchen_Uten/saucepan_24.jpg
p986
sg21
F1.0725662424229085
sS'trials.thisTrialN'
p987
I81
sa(dp988
g31
g32
sg17
F424.41910369880497
sg24
I1
sg35
g39
sg14
F424.39120381511748
sg16
g36
(g70
S'\x01\x00\x00\x00'
tRp989
sg42
g43
sg46
g47
sg15
g100
sg22
F426.8171198554337
sg64
g180
sg62
g74
sg49
g50
sS'trials.thisN'
p990
I82
sg19
I1
sg27
g36
(g38
S'\x00\x00\x00\x00\x00\x00\x18@'
tRp991
sg52
g53
sg23
S'1'
sg18
F426.00460789492354
sg33
g34
sg51
g11
sg20
S'1'
sg65
g36
(g77
S'\x00\x00\x00\x00\x00\x00\x00\x00'
tRp992
sg44
g45
sg40
g41
sg25
F0.53138398798182607
sS'trials.thisIndex'
p993
g36
(g80
S'^\x00\x00\x00'
tRp994
sg26
V5
sS'trials.thisRepN'
p995
I0
sg66
Vwhale
p996
sg63
V../experiment_stimuli/bw_bc_bl/Living_Things/Marine_creatures/whale_19.jpg
p997
sg21
F0.7919593770056963
sS'trials.thisTrialN'
p998
I82
sa(dp999
g31
g32
sg17
F429.11004842910916
sg24
I0
sg35
g39
sg14
F429.08140486897901
sg16
g36
(g70
S'\x01\x00\x00\x00'
tRp1000
sg42
g43
sg46
g47
sg15
g100
sg22
F431.64762718463317
sg64
g88
sg62
g74
sg49
g50
sS'trials.thisN'
p1001
I83
sg19
I1
sg27
g36
(g38
S'\x00\x00\x00\x00\x00\x00\x18@'
tRp1002
sg52
g53
sg23
S'3'
sg18
F430.70484216092154
sg33
g34
sg51
g11
sg20
S'1'
sg65
g36
(g77
S'\x00\x00\x00\x00\x00\x00\x00\x00'
tRp1003
sg44
g45
sg40
g41
sg25
F0.4211387587711215
sS'trials.thisIndex'
p1004
g36
(g80
S'(\x00\x00\x00'
tRp1005
sg26
V5
sS'trials.thisRepN'
p1006
I0
sg66
Vhorse
p1007
sg63
V../experiment_stimuli/bw_bc_bl/Living_Things/Animals/horse_7.jpg
p1008
sg21
F0.92223528958857059
sS'trials.thisTrialN'
p1009
I83
sa(dp1010
g31
g32
sg17
F433.82162237819284
sg24
I0
sg35
g39
sg14
F433.80168811930344
sg16
g36
(g70
S'\x01\x00\x00\x00'
tRp1011
sg42
g43
sg46
g47
sg15
g100
sg22
F436.14743827655911
sg64
g73
sg62
g74
sg49
g50
sS'trials.thisN'
p1012
I84
sg19
I1
sg27
g36
(g38
S'\x00\x00\x00\x00\x00\x00\x18@'
tRp1013
sg52
g53
sg23
S'3'
sg18
F435.39505754597485
sg33
g34
sg51
g11
sg20
S'1'
sg65
g36
(g77
S'\x00\x00\x00\x00\x00\x00\x00\x00'
tRp1014
sg44
g45
sg40
g41
sg25
F0.3109026001766324
sS'trials.thisIndex'
p1015
g36
(g80
S'O\x00\x00\x00'
tRp1016
sg26
V5
sS'trials.thisRepN'
p1017
I0
sg66
Vsparrow
p1018
sg63
V../experiment_stimuli/bw_bc_bl/Living_Things/Birds/sparrow_11.jpg
p1019
sg21
F0.73182397009804845
sS'trials.thisTrialN'
p1020
I84
sa(dp1021
g31
g32
sg17
F438.21010718448088
sg24
I0
sg35
g39
sg14
F438.19123987248167
sg16
g36
(g70
S'\x01\x00\x00\x00'
tRp1022
sg42
g43
sg46
g47
sg15
g72
sg22
F440.5269656223245
sg64
g879
sg62
g113
sg49
g50
sS'trials.thisN'
p1023
I85
sg19
I1
sg27
g36
(g38
S'\x00\x00\x00\x00\x00\x00\x18@'
tRp1024
sg52
g53
sg23
S'2'
sg18
F439.76457189815119
sg33
g34
sg51
g11
sg20
S'1'
sg65
g36
(g77
S'\x00\x00\x00\x00\x00\x00\x00\x00'
tRp1025
sg44
g45
sg40
g41
sg25
F0.68170623015612364
sS'trials.thisIndex'
p1026
g36
(g80
S'%\x00\x00\x00'
tRp1027
sg26
V5
sS'trials.thisRepN'
p1028
I0
sg66
Vhammer
p1029
sg63
V../experiment_stimuli/bw_bc_bl/Nonliving_Things/Tools/hammer_14.jpg
p1030
sg21
F0.74183471966534853
sS'trials.thisTrialN'
p1031
I85
sa(dp1032
g31
g32
sg17
F442.97615504777059
sg24
I1
sg35
g39
sg14
F442.94159154780209
sg16
g36
(g70
S'\x02\x00\x00\x00'
tRp1033
sg42
g43
sg46
g47
sg15
g100
sg22
F445.83858167100698
sg64
g405
sg62
g113
sg49
g50
sS'trials.thisN'
p1034
I86
sg19
I0
sg27
g36
(g38
S'\x00\x00\x00\x00\x00\x00\x18@'
tRp1035
sg52
g53
sg23
S'1'
sg18
F444.51492314459756
sg33
g34
sg51
g11
sg20
S'1'
sg65
g36
(g77
S'\x00\x00\x00\x00\x00\x00\x00\x00'
tRp1036
sg44
g45
sg40
g41
sg25
F0.44118670141324401
sS'trials.thisIndex'
p1037
g36
(g80
S'$\x00\x00\x00'
tRp1038
sg26
V5
sS'trials.thisRepN'
p1039
I0
sg66
Vguitar
p1040
sg63
V../experiment_stimuli/bw_bc_bl/Nonliving_Things/Musical_Inst/guitar_10.jpg
p1041
sg21
F1.3030955218710005
sS'trials.thisTrialN'
p1042
I86
sa(dp1043
g31
g32
sg17
F448.03105895966291
sg24
I1
sg35
g39
sg14
F448.01265043579042
sg16
g36
(g70
S'\x02\x00\x00\x00'
tRp1044
sg42
g43
sg46
g47
sg15
g100
sg22
F450.17799315135926
sg64
g393
sg62
g113
sg49
g50
sS'trials.thisN'
p1045
I87
sg19
I1
sg27
g36
(g38
S'\x00\x00\x00\x00\x00\x00\x1e@'
tRp1046
sg52
g53
sg23
S'1'
sg18
F449.57594536570832
sg33
g34
sg51
g11
sg20
S'2'
sg65
g36
(g77
S'\x00\x00\x00\x00\x00\x00\x00\x00'
tRp1047
sg44
g45
sg40
g41
sg25
F0.4512210669927299
sS'trials.thisIndex'
p1048
g36
(g80
S'\x12\x00\x00\x00'
tRp1049
sg26
V5
sS'trials.thisRepN'
p1050
I0
sg66
Vcoking-pot
p1051
sg63
V../experiment_stimuli/bw_bc_bl/Nonliving_Things/Kitchen_Uten/coking-pot_12.jpg
p1052
sg21
F0.58149916399270296
sS'trials.thisTrialN'
p1053
I87
sa(dp1054
g31
g32
sg17
F452.38770756637678
sg24
I1
sg35
g39
sg14
F452.36210021004081
sg16
g36
(g70
S'\x02\x00\x00\x00'
tRp1055
sg42
g43
sg46
g47
sg15
g72
sg22
F457.32357839215547
sg64
g73
sg62
g74
sg49
g50
sS'trials.thisN'
p1056
I88
sg19
I0
sg27
g36
(g38
S'\x00\x00\x00\x00\x00\x00\x18@'
tRp1057
sg52
g53
sg23
S'1'
sg18
F453.9654916645959
sg33
g34
sg51
g11
sg20
S'1'
sg65
g36
(g77
S'\x00\x00\x00\x00\x00\x00\x00\x00'
tRp1058
sg44
g45
sg40
g41
sg25
F0.55141597939655185
sS'trials.thisIndex'
p1059
g36
(g80
S'3\x00\x00\x00'
tRp1060
sg26
V5
sS'trials.thisRepN'
p1061
I0
sg66
Vmagpie
p1062
sg63
V../experiment_stimuli/bw_bc_bl/Living_Things/Birds/magpie_22.jpg
p1063
sg21
F3.3375076851807535
sS'trials.thisTrialN'
p1064
I88
sa(dp1065
g31
g32
sg17
F459.63122662715614
sg24
I1
sg35
g39
sg14
F459.60789686348289
sg16
g36
(g70
S'\x01\x00\x00\x00'
tRp1066
sg42
g43
sg46
g47
sg15
g100
sg22
F462.64512270642444
sg64
g180
sg62
g74
sg49
g50
sS'trials.thisN'
p1067
I89
sg19
I1
sg27
g36
(g38
S'\x00\x00\x00\x00\x00\x00\x1c@'
tRp1068
sg52
g53
sg23
S'1'
sg18
F461.22129215393215
sg33
g34
sg51
g11
sg20
S'1'
sg65
g36
(g77
S'\x00\x00\x00\x00\x00\x00\x00\x00'
tRp1069
sg44
g45
sg40
g41
sg25
F0.42113460041582584
sS'trials.thisIndex'
p1070
g36
(g80
S'1\x00\x00\x00'
tRp1071
sg26
V5
sS'trials.thisRepN'
p1072
I0
sg66
Vlobster
p1073
sg63
V../experiment_stimuli/bw_bc_bl/Living_Things/Marine_creatures/lobster_26.jpg
p1074
sg21
F1.4032797128893435
sS'trials.thisTrialN'
p1075
I89
sa(dp1076
g31
g32
sg17
F464.82392870541662
sg24
I1
sg35
g39
sg14
F464.79917500913143
sg16
g36
(g70
S'\x01\x00\x00\x00'
tRp1077
sg42
g43
sg46
g47
sg15
g100
sg22
F467.42554778745398
sg64
g73
sg62
g74
sg49
g50
sS'trials.thisN'
p1078
I90
sg19
I1
sg27
g36
(g38
S'\x00\x00\x00\x00\x00\x00\x1a@'
tRp1079
sg52
g53
sg23
S'1'
sg18
F466.45268294401467
sg33
g34
sg51
g11
sg20
S'1'
sg65
g36
(g77
S'\x00\x00\x00\x00\x00\x00\x00\x00'
tRp1080
sg44
g45
sg40
g41
sg25
F3.5178859168663621
sS'trials.thisIndex'
p1081
g36
(g80
S'C\x00\x00\x00'
tRp1082
sg26
V5
sS'trials.thisRepN'
p1083
I0
sg66
Vraven
p1084
sg63
V../experiment_stimuli/bw_bc_bl/Living_Things/Birds/raven_3.jpg
p1085
sg21
F0.95231519965454936
sS'trials.thisTrialN'
p1086
I90
sa(dp1087
g31
g32
sg17
F472.72993969917297
sg24
I0
sg35
g39
sg14
F472.68636268237606
sg16
g36
(g70
S'\x01\x00\x00\x00'
tRp1088
sg42
g43
sg46
g47
sg15
g100
sg22
F475.0521509218961
sg64
g88
sg62
g74
sg49
g50
sS'trials.thisN'
p1089
I91
sg19
I1
sg27
g36
(g38
S'\x00\x00\x00\x00\x00\x00\x18@'
tRp1090
sg52
g53
sg23
S'3'
sg18
F474.36993120471016
sg33
g34
sg51
g11
sg20
S'1'
sg65
g36
(g77
S'\x00\x00\x00\x00\x00\x00\x00\x00'
tRp1091
sg44
g45
sg40
g41
sg25
F0.31089737918227911
sS'trials.thisIndex'
p1092
g36
(g80
S'\r\x00\x00\x00'
tRp1093
sg26
V5
sS'trials.thisRepN'
p1094
I0
sg66
Vcat
p1095
sg63
V../experiment_stimuli/bw_bc_bl/Living_Things/Animals/cat_25.jpg
p1096
sg21
F0.661667768843472
sS'trials.thisTrialN'
p1097
I91
sa(dp1098
g31
g32
sg17
F477.12943621445447
sg24
I1
sg35
g39
sg14
F477.10599888395518
sg16
g36
(g70
S'\x01\x00\x00\x00'
tRp1099
sg42
g43
sg46
g47
sg15
g72
sg22
F479.38162435404956
sg64
g203
sg62
g113
sg49
g50
sS'trials.thisN'
p1100
I92
sg19
I1
sg27
g36
(g38
S'\x00\x00\x00\x00\x00\x00\x1e@'
tRp1101
sg52
g53
sg23
S'1'
sg18
F478.73943510930985
sg33
g34
sg51
g11
sg20
S'1'
sg65
g36
(g77
S'\x00\x00\x00\x00\x00\x00\x00\x00'
tRp1102
sg44
g45
sg40
g41
sg25
F0.54140708269551396
sS'trials.thisIndex'
p1103
g36
(g80
S')\x00\x00\x00'
tRp1104
sg26
V5
sS'trials.thisRepN'
p1105
I0
sg66
Vhouse
p1106
sg63
V../experiment_stimuli/bw_bc_bl/Nonliving_Things/Buildings/house_7.jpg
p1107
sg21
F0.62158794002607465
sS'trials.thisTrialN'
p1108
I92
sa(dp1109
g31
g32
sg17
F481.67354246182367
sg24
I1
sg35
g39
sg14
F481.65588126843795
sg16
g36
(g70
S'\x01\x00\x00\x00'
tRp1110
sg42
g43
sg46
g47
sg15
g100
sg22
F485.07382107479498
sg64
g73
sg62
g74
sg49
g50
sS'trials.thisN'
p1111
I93
sg19
I0
sg27
g36
(g38
S'\x00\x00\x00\x00\x00\x00\x1e@'
tRp1112
sg52
g53
sg23
S'1'
sg18
F483.30939287645742
sg33
g34
sg51
g11
sg20
S'2'
sg65
g36
(g77
S'\x00\x00\x00\x00\x00\x00\x00\x00'
tRp1113
sg44
g45
sg40
g41
sg25
F0.88216105476021767
sS'trials.thisIndex'
p1114
g36
(g80
S'\x1a\x00\x00\x00'
tRp1115
sg26
V5
sS'trials.thisRepN'
p1116
I0
sg66
Vduck
p1117
sg63
V../experiment_stimuli/bw_bc_bl/Living_Things/Birds/duck_25.jpg
p1118
sg21
F1.7338420604355633
sS'trials.thisTrialN'
p1119
I93
sa(dp1120
g31
g32
sg17
F487.71362791908905
sg24
I0
sg35
g39
sg14
F487.68903557071462
sg16
g36
(g70
S'\x02\x00\x00\x00'
tRp1121
sg42
g43
sg46
g47
sg15
g72
sg22
F490.44569258857518
sg64
g180
sg62
g74
sg49
g50
sS'trials.thisN'
p1122
I94
sg19
I1
sg27
g36
(g38
S'\x00\x00\x00\x00\x00\x00\x18@'
tRp1123
sg52
g53
sg23
S'2'
sg18
F489.35256246197969
sg33
g34
sg51
g11
sg20
S'2'
sg65
g36
(g77
S'\x00\x00\x00\x00\x00\x00\x00\x00'
tRp1124
sg44
g45
sg40
g41
sg25
F1.543586612213403
sS'trials.thisIndex'
p1125
g36
(g80
S'4\x00\x00\x00'
tRp1126
sg26
V5
sS'trials.thisRepN'
p1127
I0
sg66
Vmanatee
p1128
sg63
V../experiment_stimuli/bw_bc_bl/Living_Things/Marine_creatures/manatee_20.jpg
p1129
sg21
F1.0725656184367836
sS'trials.thisTrialN'
p1130
I94
sa(dp1131
g31
g32
sg17
F493.74581329524517
sg24
I1
sg35
g39
sg14
F493.7221593959257
sg16
g36
(g70
S'\x01\x00\x00\x00'
tRp1132
sg42
g43
sg46
g47
sg15
g72
sg22
F499.8461306700483
sg64
g405
sg62
g113
sg49
g50
sS'trials.thisN'
p1133
I95
sg19
I1
sg27
g36
(g38
S'\x00\x00\x00\x00\x00\x00 @'
tRp1134
sg52
g53
sg23
S'1'
sg18
F495.37566657923162
sg33
g34
sg51
g11
sg20
S'1'
sg65
g36
(g77
S'\x00\x00\x00\x00\x00\x00\x00\x00'
tRp1135
sg44
g45
sg40
g41
sg25
F1.3631827677600086
sS'trials.thisIndex'
p1136
g36
(g80
S'H\x00\x00\x00'
tRp1137
sg26
V5
sS'trials.thisRepN'
p1138
I0
sg66
Vsaxophone
p1139
sg63
V../experiment_stimuli/bw_bc_bl/Nonliving_Things/Musical_Inst/saxophone_10.jpg
p1140
sg21
F4.4499121350236237
sS'trials.thisTrialN'
p1141
I95
sasS'loops'
p1142
(lp1143
g1
(cpsychopy.data
TrialHandler
p1144
g3
NtRp1145
(dp1146
S'origin'
p1147
NsS'thisTrial'
p1148
(lp1149
sS'_exp'
p1150
I97317136
sg10
S'trials'
p1151
sg6
I-1
sS'thisRepN'
p1152
I1
sg28
I01
sg29
g30
sS'data'
p1153
g1
(cpsychopy.data
DataHandler
p1154
c__builtin__
dict
p1155
(dp1156
g20
cnumpy.core.multiarray
_reconstruct
p1157
(cnumpy
ndarray
p1158
(I0
tS'b'
tRp1159
(I1
(I96
I1
tg37
(S'O4'
I0
I1
tRp1160
(I3
S'|'
NNNI-1
I-1
I63
tbI00
(lp1161
S'2'
aS'2'
aS'2'
aS'2'
aS'2'
aS'1'
aS'1'
aS'2'
aS'2'
aS'2'
aS'2'
aS'1'
aS'1'
aS'1'
aS'2'
aS'1'
aS'2'
aS'1'
aS'2'
aS'1'
aS'1'
aS'1'
aS'1'
aS'1'
aS'1'
aS'2'
aS'2'
aS'2'
aS'1'
aS'2'
aS'1'
aS'2'
aS'2'
aS'1'
aS'1'
aS'2'
aS'1'
aS'1'
aS'1'
aS'1'
aS'1'
aS'1'
aS'2'
aS'1'
aS'2'
aS'1'
aS'2'
aS'1'
aS'2'
aS'1'
aS'1'
aS'1'
aS'2'
aS'2'
aS'1'
aS'2'
aS'1'
aS'2'
aS'2'
aS'1'
aS'1'
aS'2'
aS'1'
aS'1'
aS'2'
aS'2'
aS'1'
aS'1'
aS'2'
aS'2'
aS'1'
aS'1'
aS'1'
aS'2'
aS'1'
aS'1'
aS'1'
aS'1'
aS'1'
aS'1'
aS'1'
aS'2'
aS'2'
aS'2'
aS'2'
aS'2'
aS'1'
aS'2'
aS'2'
aS'2'
aS'1'
aS'1'
aS'1'
aS'2'
aS'1'
aS'1'
atbsg17
cnumpy.ma.core
_mareconstruct
p1162
(cnumpy.ma.core
MaskedArray
p1163
g1158
(I0
tp1164
S'b'
tRp1165
(I1
(I96
I1
tg37
(S'f4'
I0
I1
tRp1166
(I3
S'<'
NNNI-1
I-1
I0
tbI00
S'YI\xaaC\xde\xa1\x0bA8\x07\x1cC\x90\xb4\xbaCK\xc4\x08C\xa5e\x8bC\x9c\x977C\xbfY\x16B\x08L\x17C&\xad\xacC\xebh\'C\x9d\xd6\x83B\x83\xe9sBo]\xecC\x83/\xb2C"\xf2\x98C?J#Ce\x83\xc0B\xfa\x03\xe0C\xa7\x7f\x04CVQZA\x15\xce`Cxh\xa5C\x8ak@C\xdd\x16\xc9B\xa5\xfd\xb6C7\xd6\xf0CxU\\C\x89>\xc9C,\x9b2CX\xbc\x8eCO\x94RC\xf2#\xacBX?\xc0C\xdc\xc6\xf4B\x18\xc2\xa1C\xf3|\xddC\xe5\x1a\xdbC\xf0\x9f\x04B8\xee\x9aC\x16\x8e\xd6C\x91\x90\xeeCf,\'B\xe2\x02IBj.\xe4A\xf2\x91\xd9B<\xd7WC\x8e}\xb6B\x0b\x858B\xcc\xd0\xe5C\x91/.C\xa01\xe2CX\xdb\xf3CT\x14\x83C\x95\x93\x85C\xc7\xc3MC\xfc\xc0r@\xe0\x0f\x97B\xdfL\xebB\x9d\\_B\xc9\x94\xccC\x12?\xcfCr\x17eC\x8f\xe5;C\x93I\x88CC\xbe\xffB\xf5\xa3\rCvi\xe8C\xc7\xff\xa7C\xd2\x13\xafC\xbf\x04kC]\xaa\xd1Cw\xdf\xf6C\x8c_\x9fC\x80\xa3\x94C\xe9\xc7\xbcC\xa6ZHC\xb14sC!\xec\xe1B+\xe9\xd8C\x9c\x90\x91Cl\xa7\xc4C\x1f\x98wC\xd2x\xc2C\x9cl\x80Ce\xd0\x96C\xff\x08|C+-\x9dC\x83\xe6\xc6C\xd1\xc3\xb4C]M\xa3B\x82\xb1\xa7A,\x86\x12CI7\xd1B\xa55\xd4C\xbd\xb3\x8cB'
S'\x00\x00\x00\x00\x00\x00\x00\x00\x00\x00\x00\x00\x00\x00\x00\x00\x00\x00\x00\x00\x00\x00\x00\x00\x00\x00\x00\x00\x00\x00\x00\x00\x00\x00\x00\x00\x00\x00\x00\x00\x00\x00\x00\x00\x00\x00\x00\x00\x00\x00\x00\x00\x00\x00\x00\x00\x00\x00\x00\x00\x00\x00\x00\x00\x00\x00\x00\x00\x00\x00\x00\x00\x00\x00\x00\x00\x00\x00\x00\x00\x00\x00\x00\x00\x00\x00\x00\x00\x00\x00\x00\x00\x00\x00\x00\x00'
NtbsS'ran'
p1167
g1162
(g1163
g1158
g1164
S'b'
tRp1168
(I1
(I96
I1
tg1166
I00
S'\x00\x00\x80?\x00\x00\x80?\x00\x00\x80?\x00\x00\x80?\x00\x00\x80?\x00\x00\x80?\x00\x00\x80?\x00\x00\x80?\x00\x00\x80?\x00\x00\x80?\x00\x00\x80?\x00\x00\x80?\x00\x00\x80?\x00\x00\x80?\x00\x00\x80?\x00\x00\x80?\x00\x00\x80?\x00\x00\x80?\x00\x00\x80?\x00\x00\x80?\x00\x00\x80?\x00\x00\x80?\x00\x00\x80?\x00\x00\x80?\x00\x00\x80?\x00\x00\x80?\x00\x00\x80?\x00\x00\x80?\x00\x00\x80?\x00\x00\x80?\x00\x00\x80?\x00\x00\x80?\x00\x00\x80?\x00\x00\x80?\x00\x00\x80?\x00\x00\x80?\x00\x00\x80?\x00\x00\x80?\x00\x00\x80?\x00\x00\x80?\x00\x00\x80?\x00\x00\x80?\x00\x00\x80?\x00\x00\x80?\x00\x00\x80?\x00\x00\x80?\x00\x00\x80?\x00\x00\x80?\x00\x00\x80?\x00\x00\x80?\x00\x00\x80?\x00\x00\x80?\x00\x00\x80?\x00\x00\x80?\x00\x00\x80?\x00\x00\x80?\x00\x00\x80?\x00\x00\x80?\x00\x00\x80?\x00\x00\x80?\x00\x00\x80?\x00\x00\x80?\x00\x00\x80?\x00\x00\x80?\x00\x00\x80?\x00\x00\x80?\x00\x00\x80?\x00\x00\x80?\x00\x00\x80?\x00\x00\x80?\x00\x00\x80?\x00\x00\x80?\x00\x00\x80?\x00\x00\x80?\x00\x00\x80?\x00\x00\x80?\x00\x00\x80?\x00\x00\x80?\x00\x00\x80?\x00\x00\x80?\x00\x00\x80?\x00\x00\x80?\x00\x00\x80?\x00\x00\x80?\x00\x00\x80?\x00\x00\x80?\x00\x00\x80?\x00\x00\x80?\x00\x00\x80?\x00\x00\x80?\x00\x00\x80?\x00\x00\x80?\x00\x00\x80?\x00\x00\x80?\x00\x00\x80?\x00\x00\x80?'
S'\x00\x00\x00\x00\x00\x00\x00\x00\x00\x00\x00\x00\x00\x00\x00\x00\x00\x00\x00\x00\x00\x00\x00\x00\x00\x00\x00\x00\x00\x00\x00\x00\x00\x00\x00\x00\x00\x00\x00\x00\x00\x00\x00\x00\x00\x00\x00\x00\x00\x00\x00\x00\x00\x00\x00\x00\x00\x00\x00\x00\x00\x00\x00\x00\x00\x00\x00\x00\x00\x00\x00\x00\x00\x00\x00\x00\x00\x00\x00\x00\x00\x00\x00\x00\x00\x00\x00\x00\x00\x00\x00\x00\x00\x00\x00\x00'
Ntbsg24
g1162
(g1163
g1158
g1164
S'b'
tRp1169
(I1
(I96
I1
tg1166
I00
S'\x00\x00\x00\x00\x00\x00\x00\x00\x00\x00\x00\x00\x00\x00\x80?\x00\x00\x80?\x00\x00\x00\x00\x00\x00\x00\x00\x00\x00\x00\x00\x00\x00\x80?\x00\x00\x00\x00\x00\x00\x00\x00\x00\x00\x00\x00\x00\x00\x80?\x00\x00\x00\x00\x00\x00\x00\x00\x00\x00\x80?\x00\x00\x80?\x00\x00\x80?\x00\x00\x80?\x00\x00\x00\x00\x00\x00\x80?\x00\x00\x00\x00\x00\x00\x80?\x00\x00\x80?\x00\x00\x80?\x00\x00\x80?\x00\x00\x80?\x00\x00\x80?\x00\x00\x80?\x00\x00\x00\x00\x00\x00\x80?\x00\x00\x00\x00\x00\x00\x00\x00\x00\x00\x80?\x00\x00\x80?\x00\x00\x80?\x00\x00\x80?\x00\x00\x00\x00\x00\x00\x00\x00\x00\x00\x00\x00\x00\x00\x00\x00\x00\x00\x80?\x00\x00\x00\x00\x00\x00\x00\x00\x00\x00\x80?\x00\x00\x00\x00\x00\x00\x00\x00\x00\x00\x00\x00\x00\x00\x00\x00\x00\x00\x80?\x00\x00\x80?\x00\x00\x80?\x00\x00\x00\x00\x00\x00\x80?\x00\x00\x80?\x00\x00\x00\x00\x00\x00\x80?\x00\x00\x80?\x00\x00\x80?\x00\x00\x80?\x00\x00\x80?\x00\x00\x80?\x00\x00\x00\x00\x00\x00\x00\x00\x00\x00\x00\x00\x00\x00\x00\x00\x00\x00\x00\x00\x00\x00\x80?\x00\x00\x00\x00\x00\x00\x00\x00\x00\x00\x80?\x00\x00\x80?\x00\x00\x80?\x00\x00\x00\x00\x00\x00\x00\x00\x00\x00\x80?\x00\x00\x00\x00\x00\x00\x80?\x00\x00\x00\x00\x00\x00\x00\x00\x00\x00\x00\x00\x00\x00\x80?\x00\x00\x00\x00\x00\x00\x80?\x00\x00\x80?\x00\x00\x00\x00\x00\x00\x80?\x00\x00\x80?\x00\x00\x80?\x00\x00\x00\x00\x00\x00\x80?\x00\x00\x80?\x00\x00\x80?\x00\x00\x80?\x00\x00\x80?\x00\x00\x00\x00'
S'\x00\x00\x00\x00\x00\x00\x00\x00\x00\x00\x00\x00\x00\x00\x00\x00\x00\x00\x00\x00\x00\x00\x00\x00\x00\x00\x00\x00\x00\x00\x00\x00\x00\x00\x00\x00\x00\x00\x00\x00\x00\x00\x00\x00\x00\x00\x00\x00\x00\x00\x00\x00\x00\x00\x00\x00\x00\x00\x00\x00\x00\x00\x00\x00\x00\x00\x00\x00\x00\x00\x00\x00\x00\x00\x00\x00\x00\x00\x00\x00\x00\x00\x00\x00\x00\x00\x00\x00\x00\x00\x00\x00\x00\x00\x00\x00'
Ntbsg14
g1162
(g1163
g1158
g1164
S'b'
tRp1170
(I1
(I96
I1
tg1166
I00
S"9F\xaaC\x07#\x0bA\xbd\x01\x1cC\xa7\xb0\xbaC\x8d\xb9\x08C\x16c\x8bC<\x967CN<\x16B\xc8F\x17C\x1e\xaa\xacC\xaea'C\x1c\xcd\x83B\xe4\xd6sB\xdbW\xecC\xe8+\xb2Cz\xee\x98C\xcbE#C\tt\xc0B\x9f\x01\xe0C\xbfy\x04CA\xdeYA\xcb\xc6`C\x11f\xa5Cbe@CN\r\xc9B\xac\xfc\xb6C\xf4\xd3\xf0C\x8bN\\C\x9b<\xc9C\x02\x962C%\xb8\x8eC:\x8eRC\xe5\x1b\xacB\xb5<\xc0C!\xba\xf4B\xe9\xbe\xa1C\x86x\xddC{\x18\xdbC\xd3o\x04Bw\xea\x9aCk\x8a\xd6C\x91\x8d\xeeC\x06''B\xed\xe7HBN\xfe\xe3A#\x87\xd9B*\xd1WCsn\xb6BXx8B\xd0\xcd\xe5C\x95*.CY.\xe2C2\xd8\xf3C^\x10\x83C{\x90\x85C\xbf\xbeMC\xaf\xb2o@\xe7\x05\x97B\xd44\xebBLF_Ba\x90\xccC\xd3:\xcfC\xdd\x10eC,\xdb;CyF\x88C\x9f\xa6\xffB\x8e\x9d\rCKf\xe8C\xfd\xfb\xa7C\xdc\x11\xafC!\xfdjC\xb2\xa7\xd1Cp\xdc\xf6C\x05[\x9fCF\x9f\x94C\x04\xc5\xbcC\xc3RHC6-sC\xd5\xe2\xe1B\x9e\xe6\xd8C5\x8e\x91C\x00\xa3\xc4C\xf0\x90wCEv\xc2C}h\x80C\x02\xcc\x96C~\x01|C')\x9dC\xf9\xe2\xc6C\x8c\xc0\xb4C\x0cE\xa3B+v\xa7A\x00\x7f\x12CN&\xd1B\x132\xd4C\xf5\xa3\x8cB"
S'\x00\x00\x00\x00\x00\x00\x00\x00\x00\x00\x00\x00\x00\x00\x00\x00\x00\x00\x00\x00\x00\x00\x00\x00\x00\x00\x00\x00\x00\x00\x00\x00\x00\x00\x00\x00\x00\x00\x00\x00\x00\x00\x00\x00\x00\x00\x00\x00\x00\x00\x00\x00\x00\x00\x00\x00\x00\x00\x00\x00\x00\x00\x00\x00\x00\x00\x00\x00\x00\x00\x00\x00\x00\x00\x00\x00\x00\x00\x00\x00\x00\x00\x00\x00\x00\x00\x00\x00\x00\x00\x00\x00\x00\x00\x00\x00'
Ntbsg16
g1157
(g1158
(I0
tS'b'
tRp1171
(I1
(I96
I1
tg1160
I00
(lp1172
g812
ag87
ag427
ag878
ag381
ag680
ag482
ag146
ag416
ag823
ag449
ag214
ag202
ag1088
ag845
ag735
ag438
ag281
ag1044
ag370
ag99
ag570
ag790
ag504
ag292
ag867
ag1110
ag559
ag945
ag471
ag691
ag537
ag258
ag901
ag348
ag779
ag1033
ag1022
ag135
ag746
ag1000
ag1099
ag157
ag179
ag124
ag315
ag548
ag269
ag168
ag1066
ag460
ag1055
ag1121
ag647
ag658
ag526
ag71
ag236
ag337
ag191
ag956
ag967
ag581
ag493
ag669
ag359
ag392
ag1077
ag801
ag834
ag592
ag978
ag1132
ag768
ag713
ag890
ag515
ag603
ag326
ag1011
ag702
ag923
ag614
ag912
ag636
ag724
ag625
ag757
ag934
ag856
ag247
ag111
ag404
ag304
ag989
ag225
atbsg15
g1157
(g1158
(I0
tS'b'
tRp1173
(I1
(I96
I1
tg1160
I00
(lp1174
g100
ag72
ag100
ag100
ag100
ag72
ag72
ag100
ag100
ag100
ag72
ag72
ag72
ag100
ag100
ag72
ag72
ag72
ag100
ag72
ag100
ag100
ag72
ag100
ag100
ag100
ag100
ag100
ag72
ag100
ag72
ag100
ag72
ag100
ag72
ag100
ag100
ag72
ag100
ag100
ag100
ag72
ag72
ag100
ag72
ag100
ag100
ag72
ag72
ag100
ag72
ag72
ag72
ag100
ag72
ag72
ag72
ag72
ag100
ag72
ag100
ag72
ag72
ag100
ag72
ag100
ag72
ag100
ag100
ag100
ag72
ag72
ag72
ag72
ag100
ag100
ag72
ag72
ag72
ag100
ag100
ag100
ag72
ag100
ag72
ag72
ag72
ag100
ag100
ag100
ag100
ag72
ag72
ag100
ag100
ag72
atbsg22
g1162
(g1163
g1158
g1164
S'b'
tRp1175
(I1
(I96
I1
tg1166
I00
S"\xd3O\xabCS\xfd0Ac\x96 C\xbc\xa5\xbbC\xa5O\x0bC\xe2\x98\x8dC\x85\x979C\xe2\x03\x1eB!\xe7\x19Ce\xcd\xadC\xa1\xee+C\x00y\x88BvM}B\xad\x86\xedC\x12A\xb3C\xb7\xe8\x99C\x9a[%C\x19\xd8\xc4B\xc8\x16\xe1C\xa3\xa6\x06C5\xbc\x8fAC\xf6bC\x19\xf5\xa6C\xa4^FC\x0e>\xcdB\xc2e\xb9Cs\x89\xf2C\xc0\xae^C\xe5T\xcbC\xb5W5C\x06K\x90CS_UC\xadq\xb2B\x97P\xc1C\xed\\\xfbB\xeaT\xa4CW\xeb\xdeCtC\xdcC\xa9\xe5\x0cB\xfb \x9cC\xe5\xd2\xd7C\xd9\xb0\xefC\xee!/Be-VB*F\xf4A\x10\xe6\xddB\xb9RZC4\xd8\xbbB\x93\x0c@B\x93R\xe7C\xc9\x8a0Ck\xa9\xe4C\x0c9\xf5Ci[\x84C\x99\xfb\x86C\x85!PCr\xe7\xba@\xe5\xff\x9dB\xd7\xa8\xf0B\xd9\x7fiBP\xcd\xcdC\xb2\x92\xd0Ca\xa2hC\x05\xdf=Cj=\x8aC/\x88\x02C\x07\x08\x10Cx\xb6\xe9C91\xa9C.\xdd\xb0C'\x9fpC\x01\xfd\xd2CN\xec\xf9CF\x87\xa0CD\xc1\x95C\xb9\x1e\xbfC\xde^KC\xed+uC\xd5\xe0\xe6B\xdf\x12\xdaC\xd5Q\x93C\xa6\xd5\xc5C\xcb\xcfyCH\x8f\xc3C}\xc5\x81C\xb3\xf5\x97C\x11\xbe~C\xe37\x9eCu+\xc8C\xac\xe7\xb5C>\x8a\xa7B\xe2?\xc4A\xf6J\x15Cof\xd5B\x97h\xd5C\x89U\x92B"
S'\x00\x00\x00\x00\x00\x00\x00\x00\x00\x00\x00\x00\x00\x00\x00\x00\x00\x00\x00\x00\x00\x00\x00\x00\x00\x00\x00\x00\x00\x00\x00\x00\x00\x00\x00\x00\x00\x00\x00\x00\x00\x00\x00\x00\x00\x00\x00\x00\x00\x00\x00\x00\x00\x00\x00\x00\x00\x00\x00\x00\x00\x00\x00\x00\x00\x00\x00\x00\x00\x00\x00\x00\x00\x00\x00\x00\x00\x00\x00\x00\x00\x00\x00\x00\x00\x00\x00\x00\x00\x00\x00\x00\x00\x00\x00\x00'
Ntbsg26
g1157
(g1158
(I0
tS'b'
tRp1176
(I1
(I96
I1
tg1160
I00
(lp1177
g36
(g80
S'\x17\x00\x00\x00'
tRp1178
ag36
(g80
S'\x08\x00\x00\x00'
tRp1179
ag36
(g80
S'\x0f\x00\x00\x00'
tRp1180
ag36
(g80
S'\x0f\x00\x00\x00'
tRp1181
ag36
(g80
S'\x0c\x00\x00\x00'
tRp1182
ag36
(g80
S'\x12\x00\x00\x00'
tRp1183
ag36
(g80
S'\x10\x00\x00\x00'
tRp1184
ag36
(g80
S'\n\x00\x00\x00'
tRp1185
ag36
(g80
S'\r\x00\x00\x00'
tRp1186
ag36
(g80
S'\x16\x00\x00\x00'
tRp1187
ag36
(g80
S'\x0f\x00\x00\x00'
tRp1188
ag36
(g80
S'\n\x00\x00\x00'
tRp1189
ag36
(g80
S'\x07\x00\x00\x00'
tRp1190
ag36
(g80
S'*\x00\x00\x00'
tRp1191
ag36
(g80
S'\x12\x00\x00\x00'
tRp1192
ag36
(g80
S'\x10\x00\x00\x00'
tRp1193
ag36
(g80
S'\x0e\x00\x00\x00'
tRp1194
ag36
(g80
S'\x05\x00\x00\x00'
tRp1195
ag36
(g80
S'!\x00\x00\x00'
tRp1196
ag36
(g80
S'\r\x00\x00\x00'
tRp1197
ag36
(g80
S'\x07\x00\x00\x00'
tRp1198
ag36
(g80
S'\x0c\x00\x00\x00'
tRp1199
ag36
(g80
S'\x17\x00\x00\x00'
tRp1200
ag36
(g80
S'\x0e\x00\x00\x00'
tRp1201
ag36
(g80
S'\x07\x00\x00\x00'
tRp1202
ag36
(g80
S'\r\x00\x00\x00'
tRp1203
ag36
(g80
S')\x00\x00\x00'
tRp1204
ag36
(g80
S'\x0b\x00\x00\x00'
tRp1205
ag36
(g80
S'\x1d\x00\x00\x00'
tRp1206
ag36
(g80
S'\x11\x00\x00\x00'
tRp1207
ag36
(g80
S'\x11\x00\x00\x00'
tRp1208
ag36
(g80
S'\x0e\x00\x00\x00'
tRp1209
ag36
(g80
S'\t\x00\x00\x00'
tRp1210
ag36
(g80
S'\x13\x00\x00\x00'
tRp1211
ag36
(g80
S'\r\x00\x00\x00'
tRp1212
ag36
(g80
S'\x14\x00\x00\x00'
tRp1213
ag36
(g80
S' \x00\x00\x00'
tRp1214
ag36
(g80
S'!\x00\x00\x00'
tRp1215
ag36
(g80
S'\x0b\x00\x00\x00'
tRp1216
ag36
(g80
S'\x13\x00\x00\x00'
tRp1217
ag36
(g80
S'&\x00\x00\x00'
tRp1218
ag36
(g80
S'(\x00\x00\x00'
tRp1219
ag36
(g80
S'\t\x00\x00\x00'
tRp1220
ag36
(g80
S'\x07\x00\x00\x00'
tRp1221
ag36
(g80
S'\n\x00\x00\x00'
tRp1222
ag36
(g80
S'\x0c\x00\x00\x00'
tRp1223
ag36
(g80
S'\r\x00\x00\x00'
tRp1224
ag36
(g80
S'\x08\x00\x00\x00'
tRp1225
ag36
(g80
S'\x08\x00\x00\x00'
tRp1226
ag36
(g80
S'&\x00\x00\x00'
tRp1227
ag36
(g80
S'\x0e\x00\x00\x00'
tRp1228
ag36
(g80
S'$\x00\x00\x00'
tRp1229
ag36
(g80
S'*\x00\x00\x00'
tRp1230
ag36
(g80
S'\x10\x00\x00\x00'
tRp1231
ag36
(g80
S'\x11\x00\x00\x00'
tRp1232
ag36
(g80
S'\x0f\x00\x00\x00'
tRp1233
aS'5.0'
p1234
ag36
(g80
S'\x05\x00\x00\x00'
tRp1235
ag36
(g80
S'\n\x00\x00\x00'
tRp1236
ag36
(g80
S'\x06\x00\x00\x00'
tRp1237
ag36
(g80
S' \x00\x00\x00'
tRp1238
ag36
(g80
S'!\x00\x00\x00'
tRp1239
ag36
(g80
S'\x0b\x00\x00\x00'
tRp1240
ag36
(g80
S'\x0f\x00\x00\x00'
tRp1241
ag36
(g80
S'\x13\x00\x00\x00'
tRp1242
ag36
(g80
S'\x0e\x00\x00\x00'
tRp1243
ag36
(g80
S'\r\x00\x00\x00'
tRp1244
ag36
(g80
S'(\x00\x00\x00'
tRp1245
ag36
(g80
S'\x18\x00\x00\x00'
tRp1246
ag36
(g80
S'\x13\x00\x00\x00'
tRp1247
ag36
(g80
S'\n\x00\x00\x00'
tRp1248
ag36
(g80
S'"\x00\x00\x00'
tRp1249
ag36
(g80
S')\x00\x00\x00'
tRp1250
ag36
(g80
S'\x15\x00\x00\x00'
tRp1251
ag36
(g80
S'\x13\x00\x00\x00'
tRp1252
ag36
(g80
S'\x10\x00\x00\x00'
tRp1253
ag36
(g80
S'\x10\x00\x00\x00'
tRp1254
ag36
(g80
S'\x0b\x00\x00\x00'
tRp1255
ag36
(g80
S'\x0b\x00\x00\x00'
tRp1256
ag36
(g80
S'$\x00\x00\x00'
tRp1257
ag36
(g80
S'\x14\x00\x00\x00'
tRp1258
ag36
(g80
S'\x18\x00\x00\x00'
tRp1259
ag36
(g80
S'\r\x00\x00\x00'
tRp1260
ag36
(g80
S'\x16\x00\x00\x00'
tRp1261
ag36
(g80
S'\x0f\x00\x00\x00'
tRp1262
ag36
(g80
S'\x11\x00\x00\x00'
tRp1263
ag36
(g80
S'\x0c\x00\x00\x00'
tRp1264
ag36
(g80
S'\x12\x00\x00\x00'
tRp1265
ag36
(g80
S'\x1b\x00\x00\x00'
tRp1266
ag36
(g80
S'\x10\x00\x00\x00'
tRp1267
ag36
(g80
S'\x06\x00\x00\x00'
tRp1268
ag36
(g80
S'\x08\x00\x00\x00'
tRp1269
ag36
(g80
S'\x0c\x00\x00\x00'
tRp1270
ag36
(g80
S'\n\x00\x00\x00'
tRp1271
ag36
(g80
S'$\x00\x00\x00'
tRp1272
ag36
(g80
S'\x07\x00\x00\x00'
tRp1273
atbsg21
g1162
(g1163
g1158
g1164
S'b'
tRp1274
(I1
(I96
I1
tg1166
I00
S'\x17\xd2\x14?\xca\xdf\x82?\xa4VK@/L\x00?\xc8\xae\x98?\xe6&?@\xd3\xfe\x19?\xaf\xdc\x14?j\x18\x9f?H\xbdJ?\xde\xc5H@9|{?\xcap\x85?\x0fc)?B\xc78?\x8b}\x05?@\x161?a\xd4a?!\xdd\x14?\x1d,H?\x87\x13A@#OM?\x98\xd7\xcf?\xf0>\x92@\xd3\x9cE?\x18\xa5\\@\x89\xee\xdd?\x10O\x80?\rX)@\xf8\xa3\xaa?\x0bc\xdb?5\xe7\xb4?o\x7f\xe9?S76?\xafU\xf6?\xdbTm@\xd6\xcb\xa6?\xe1\xe8=?8\xbd8?\x88\xebx?\x9d\x17l?c \x1f?6d)?\xa2\x05\xfe?\xa4\xf4+?_\xdfO?)k\x8e?\xda|\xae?\x15L\x12?\xab\x9e\xb3?U|{?\xba\x99U@\xd5I\x89?\xed\xd5\x94?w\x9f\xb3?N|{?\x80z@?\x06\xd7\x0b@[\xec\xab?\xc9\x18\x9f?\x14\xd5a?~\xda\x8b?\xf6z\x0c@\x9bm\x17?`\xcc\x1d@":\xa4?\xbe\xdf\x82?\xee\xcas?\x10\xf6f?\x03F\t@\xe1\x9f\x88@\xdaI\x89?\xaee\x8e@\xe9\xb2\\?ENM?\x86dR@\x97\xd7\xcf?N \x1f?\xd6\xfc\x90?\xd1X;?F\x80\x03@d\xc9a?\xca\x90W?\xaf\xc78?<\x13\xa8?,\xd4a?\x1a5\xad?\x95X)?\xbc(\x84?\xb6\xd4a?\xfddR?uT\x10@K\xe7\xb4?<\x0bC?\xda\xbdJ?\xf2\xba\xc1?'
S'\x00\x00\x00\x00\x00\x00\x00\x00\x00\x00\x00\x00\x00\x00\x00\x00\x00\x00\x00\x00\x00\x00\x00\x00\x00\x00\x00\x00\x00\x00\x00\x00\x00\x00\x00\x00\x00\x00\x00\x00\x00\x00\x00\x00\x00\x00\x00\x00\x00\x00\x00\x00\x00\x00\x00\x00\x00\x00\x00\x00\x00\x00\x00\x00\x00\x00\x00\x00\x00\x00\x00\x00\x00\x00\x00\x00\x00\x00\x00\x00\x00\x00\x00\x00\x00\x00\x00\x00\x00\x00\x00\x00\x00\x00\x00\x00'
NtbsS'order'
p1275
g1162
(g1163
g1158
g1164
S'b'
tRp1276
(I1
(I96
I1
tg1166
I00
S'\x00\x00\x84B\x00\x00\x80?\x00\x00\xf8A\x00\x00\x90B\x00\x00\xd8A\x00\x00XB\x00\x00\x10B\x00\x00\xc0@\x00\x00\xf0A\x00\x00\x86B\x00\x00\x04B\x00\x00@A\x00\x000A\x00\x00\xb6B\x00\x00\x8aB\x00\x00lB\x00\x00\x00B\x00\x00\x90A\x00\x00\xaeB\x00\x00\xd0A\x00\x00\x00@\x00\x000B\x00\x00\x80B\x00\x00\x18B\x00\x00\x98A\x00\x00\x8eB\x00\x00\xbaB\x00\x00,B\x00\x00\x9cB\x00\x00\x0cB\x00\x00\\B\x00\x00$B\x00\x00\x80A\x00\x00\x94B\x00\x00\xc0A\x00\x00|B\x00\x00\xacB\x00\x00\xaaB\x00\x00\xa0@\x00\x00pB\x00\x00\xa6B\x00\x00\xb8B\x00\x00\xe0@\x00\x00\x10A\x00\x00\x80@\x00\x00\xa8A\x00\x00(B\x00\x00\x88A\x00\x00\x00A\x00\x00\xb2B\x00\x00\x08B\x00\x00\xb0B\x00\x00\xbcB\x00\x00LB\x00\x00PB\x00\x00 B\x00\x00\x00\x00\x00\x00`A\x00\x00\xb8A\x00\x00 A\x00\x00\x9eB\x00\x00\xa0B\x00\x004B\x00\x00\x14B\x00\x00TB\x00\x00\xc8A\x00\x00\xe0A\x00\x00\xb4B\x00\x00\x82B\x00\x00\x88B\x00\x008B\x00\x00\xa2B\x00\x00\xbeB\x00\x00xB\x00\x00dB\x00\x00\x92B\x00\x00\x1cB\x00\x00<B\x00\x00\xb0A\x00\x00\xa8B\x00\x00`B\x00\x00\x98B\x00\x00@B\x00\x00\x96B\x00\x00HB\x00\x00hB\x00\x00DB\x00\x00tB\x00\x00\x9aB\x00\x00\x8cB\x00\x00pA\x00\x00@@\x00\x00\xe8A\x00\x00\xa0A\x00\x00\xa4B\x00\x00PA'
S'\x00\x00\x00\x00\x00\x00\x00\x00\x00\x00\x00\x00\x00\x00\x00\x00\x00\x00\x00\x00\x00\x00\x00\x00\x00\x00\x00\x00\x00\x00\x00\x00\x00\x00\x00\x00\x00\x00\x00\x00\x00\x00\x00\x00\x00\x00\x00\x00\x00\x00\x00\x00\x00\x00\x00\x00\x00\x00\x00\x00\x00\x00\x00\x00\x00\x00\x00\x00\x00\x00\x00\x00\x00\x00\x00\x00\x00\x00\x00\x00\x00\x00\x00\x00\x00\x00\x00\x00\x00\x00\x00\x00\x00\x00\x00\x00'
Ntbsg19
g1162
(g1163
g1158
g1164
S'b'
tRp1277
(I1
(I96
I1
tg1166
I00
S'\x00\x00\x80?\x00\x00\x80?\x00\x00\x80?\x00\x00\x80?\x00\x00\x00\x00\x00\x00\x80?\x00\x00\x80?\x00\x00\x80?\x00\x00\x80?\x00\x00\x80?\x00\x00\x80?\x00\x00\x80?\x00\x00\x80?\x00\x00\x80?\x00\x00\x80?\x00\x00\x80?\x00\x00\x80?\x00\x00\x80?\x00\x00\x80?\x00\x00\x80?\x00\x00\x80?\x00\x00\x80?\x00\x00\x80?\x00\x00\x80?\x00\x00\x80?\x00\x00\x80?\x00\x00\x00\x00\x00\x00\x00\x00\x00\x00\x80?\x00\x00\x80?\x00\x00\x80?\x00\x00\x80?\x00\x00\x80?\x00\x00\x80?\x00\x00\x00\x00\x00\x00\x80?\x00\x00\x00\x00\x00\x00\x80?\x00\x00\x80?\x00\x00\x80?\x00\x00\x80?\x00\x00\x80?\x00\x00\x80?\x00\x00\x80?\x00\x00\x80?\x00\x00\x80?\x00\x00\x80?\x00\x00\x80?\x00\x00\x80?\x00\x00\x80?\x00\x00\x00\x00\x00\x00\x00\x00\x00\x00\x80?\x00\x00\x80?\x00\x00\x80?\x00\x00\x80?\x00\x00\x00\x00\x00\x00\x80?\x00\x00\x80?\x00\x00\x00\x00\x00\x00\x80?\x00\x00\x80?\x00\x00\x80?\x00\x00\x80?\x00\x00\x00\x00\x00\x00\x00\x00\x00\x00\x80?\x00\x00\x80?\x00\x00\x00\x00\x00\x00\x80?\x00\x00\x00\x00\x00\x00\x80?\x00\x00\x80?\x00\x00\x80?\x00\x00\x80?\x00\x00\x80?\x00\x00\x80?\x00\x00\x80?\x00\x00\x80?\x00\x00\x80?\x00\x00\x80?\x00\x00\x80?\x00\x00\x80?\x00\x00\x80?\x00\x00\x80?\x00\x00\x80?\x00\x00\x80?\x00\x00\x80?\x00\x00\x80?\x00\x00\x80?\x00\x00\x80?\x00\x00\x80?\x00\x00\x80?\x00\x00\x80?\x00\x00\x80?\x00\x00\x00\x00'
S'\x00\x00\x00\x00\x00\x00\x00\x00\x00\x00\x00\x00\x00\x00\x00\x00\x00\x00\x00\x00\x00\x00\x00\x00\x00\x00\x00\x00\x00\x00\x00\x00\x00\x00\x00\x00\x00\x00\x00\x00\x00\x00\x00\x00\x00\x00\x00\x00\x00\x00\x00\x00\x00\x00\x00\x00\x00\x00\x00\x00\x00\x00\x00\x00\x00\x00\x00\x00\x00\x00\x00\x00\x00\x00\x00\x00\x00\x00\x00\x00\x00\x00\x00\x00\x00\x00\x00\x00\x00\x00\x00\x00\x00\x00\x00\x00'
Ntbsg27
g1157
(g1158
(I0
tS'b'
tRp1278
(I1
(I96
I1
tg1160
I00
(lp1279
g814
ag90
ag429
ag881
ag383
ag682
ag484
ag148
ag418
ag825
ag451
ag216
ag205
ag1090
ag847
ag737
ag440
ag283
ag1046
ag372
ag102
ag572
ag792
ag506
ag295
ag869
ag1112
ag561
ag947
ag473
ag693
ag539
ag260
ag903
ag350
ag781
ag1035
ag1024
ag137
ag748
ag1002
ag1101
ag159
ag182
ag126
ag317
ag550
ag272
ag170
ag1068
ag462
ag1057
ag1123
ag649
ag660
ag528
ag76
ag238
ag339
ag193
ag958
ag969
ag583
ag495
ag671
ag361
ag395
ag1079
ag803
ag836
ag594
ag980
ag1134
ag770
ag715
ag892
ag517
ag605
ag328
ag1013
ag704
ag925
ag616
ag914
ag638
ag726
ag627
ag759
ag936
ag858
ag249
ag115
ag407
ag306
ag991
ag227
atbsg23
g1157
(g1158
(I0
tS'b'
tRp1280
(I1
(I96
I1
tg1160
I00
(lp1281
S'2'
aS'2'
aS'2'
aS'1'
aS'1'
aS'2'
aS'2'
aS'2'
aS'1'
aS'3'
aS'2'
aS'3'
aS'1'
aS'3'
aS'3'
aS'1'
aS'1'
aS'1'
aS'1'
aS'2'
aS'1'
aS'2'
aS'1'
aS'1'
aS'1'
aS'1'
aS'1'
aS'1'
aS'1'
aS'2'
aS'1'
aS'2'
aS'2'
aS'1'
aS'1'
aS'1'
aS'1'
aS'2'
aS'2'
aS'2'
aS'3'
aS'1'
aS'2'
aS'2'
aS'1'
aS'2'
aS'3'
aS'3'
aS'2'
aS'1'
aS'1'
aS'1'
aS'2'
aS'1'
aS'1'
aS'2'
aS'1'
aS'1'
aS'1'
aS'1'
aS'1'
aS'1'
aS'2'
aS'2'
aS'2'
aS'2'
aS'2'
aS'1'
aS'2'
aS'2'
aS'1'
aS'1'
aS'1'
aS'2'
aS'3'
aS'1'
aS'2'
aS'1'
aS'2'
aS'3'
aS'2'
aS'1'
aS'2'
aS'1'
aS'1'
aS'2'
aS'1'
aS'1'
aS'1'
aS'3'
aS'1'
aS'1'
aS'1'
aS'1'
aS'1'
aS'3'
atbsg18
g1162
(g1163
g1158
g1164
S'b'
tRp1282
(I1
(I96
I1
tg1166
I00
S'\xc8\x02\xabC)M A\xc4c\x1dC\xf3b\xbbC\x03\x19\nC\xf3\x17\x8cCC\xf88C[\x9b\x1bB\xae\xa3\x18Cde\xadCE\xc6(C\x81w\x86B\xe1\x0cyBZ/\xedC\r\xe2\xb2CW\xa3\x99C@\xa5$C\xe8\t\xc3B\xb9\xc9\xe0C\xa3\xd6\x05Cd\xdfnA\xb0#bC\xa0"\xa6Cj\xc7ACO\xa8\xcbB\xd6\xa9\xb7C\x9a\xa7\xf1C\xdf\xa8]C\x93\xff\xc9C)\xfd3C\x01m\x8fC@\xf0SC(\xc1\xaeB\xda\xf2\xc0C\x0ey\xf7B\x9fw\xa2C\xe9A\xdeC\xdd\xe1\xdbC\xaa\xed\tB\xe4\xa1\x9bC8Z\xd7C\xa6^\xefCGg,B.(NBg\xbc\xeeA\xca;\xdcB\x9e0YC\xb6\x13\xb9BY\xae=BS\x9c\xe6C\x0b\x8a/C\x95\xfb\xe2C!\xad\xf4C\xf2\xc3\x83CXE\x86C\xc5 OCw\xdb\xa1@\xa4\x96\x99B\x9d\xee\xedB\x0crdB\xc4Y\xcdC6\x04\xd0C2kfCTB=C.\xff\x88Cx:\x01C\x05\xfd\x0eC\xf29\xe9C\xd4\xb9\xa8C\x01\xc8\xafC\xe4TlC\x16q\xd2C\x16\xb0\xf7CK\x16\xa0C\xfcW\x95CPw\xbdC\xeb\xb9IC\x8a\x87tC[\x92\xe4B\x91\xb2\xd9C\xeaF\x92C b\xc5Cf\xf0xCC0\xc3C\xc8\x1a\x81C\'\x82\x97Cc^}C\x95\xe0\x9dC\xaa\xa4\xc7C t\xb5C\xee\xda\xa5B4\x0b\xb2A\xe5\xdb\x13C\xd4\xd5\xd3B\x97\x00\xd5C\x16D\x8fB'
S'\x00\x00\x00\x00\x00\x00\x00\x00\x00\x00\x00\x00\x00\x00\x00\x00\x00\x00\x00\x00\x00\x00\x00\x00\x00\x00\x00\x00\x00\x00\x00\x00\x00\x00\x00\x00\x00\x00\x00\x00\x00\x00\x00\x00\x00\x00\x00\x00\x00\x00\x00\x00\x00\x00\x00\x00\x00\x00\x00\x00\x00\x00\x00\x00\x00\x00\x00\x00\x00\x00\x00\x00\x00\x00\x00\x00\x00\x00\x00\x00\x00\x00\x00\x00\x00\x00\x00\x00\x00\x00\x00\x00\x00\x00\x00\x00'
Ntbsg25
g1162
(g1163
g1158
g1164
S'b'
tRp1283
(I1
(I96
I1
tg1166
I00
S'\xed\xebx?\x1coR?\xad\xc9s?y\xdc\x02?\xd5K\x12?\x95\xe6\x02?\x11\xfe\x07?n*\r?y\xf6\xbd>\x00WM?\xe5U\x00?\xcd\xb6\xb3>\xe7\x90W?\xf1-\x9f>\xb9\xa9\xa1?\x9b\xc8\x8f>r\xeb\x94>#\xf8\xbd>s\x06\xe7>t\x91\xae>.\xd0\x9d?&\xf8\xbd>?O\xa4>\xf5\xffa>K\x00b>\x0f"Z?O\xd5a?l\xd5\xb8>FX;?\xa5\xe6\x02?\xed\xbcJ?\xa466?\\\x88\x85>\x90\xbb\x0f??}\xd2>\xfb[\xcd>9\xe3\xe1>M\x84.?\'\xfe\x19?\xf0o\xa9>\x80\x9f\xd7>\xa8\x99\n?\x03\xfe\x19?\xd1\x99\n?\xae\x86W?\xed\x84\x85>\xb2c\x80>\x8cK\x12?\xabh\xf6>\xf4\x9e\xd7>\xad,\x9f>\x99)\r??\x94\xc5?\x94\x84.?\x1d#Z?E\x151?z\xb3\x8f?\xb6\xf5f?\t\x0c\x9a>7"Z?\xa9\xb3\x8f?\x9f\xc0\xdc>Z\x1f\x1f?@\xbdJ?\xf0\xba\x0f?O\xbbW>/X;?\x0b%a@\x00\xc1\xdc>%\xd4a?|oR?\xbb\x84.?\xc6|\xae?\xec\xa53?\xbb\xb8\xb3>\'V\x00?8A$?=c)?A\xc1\xdc>\xa0.\x9f>R9_?8\xe3\xbd>\x1b&\xec>\x14\x8b\xd7>\xc3!Z?\x1a\xbdW>\xfc\x91\xae>\x83\x9a\n?\xc4\\\xcd>>\xc0\xdc>\xd8)\r?\xac\x0b\x0f@\xf7d\x80>\xc8[\xa9>\xc8\x08\x08?\x80\x8f\x1c?'
S'\x00\x00\x00\x00\x00\x00\x00\x00\x00\x00\x00\x00\x00\x00\x00\x00\x00\x00\x00\x00\x00\x00\x00\x00\x00\x00\x00\x00\x00\x00\x00\x00\x00\x00\x00\x00\x00\x00\x00\x00\x00\x00\x00\x00\x00\x00\x00\x00\x00\x00\x00\x00\x00\x00\x00\x00\x00\x00\x00\x00\x00\x00\x00\x00\x00\x00\x00\x00\x00\x00\x00\x00\x00\x00\x00\x00\x00\x00\x00\x00\x00\x00\x00\x00\x00\x00\x00\x00\x00\x00\x00\x00\x00\x00\x00\x00'
NtbstRp1284
(dp1285
S'isNumeric'
p1286
(dp1287
g23
I00
sg20
I00
sg17
I01
sg1167
I01
sg22
I01
sg24
I01
sg14
I01
sg18
I01
sg16
I00
sg19
I01
sg26
I00
sg27
I00
sg15
I00
sg21
I01
sg1275
I01
sg25
I01
ssg1151
g1145
sS'dataTypes'
p1288
(lp1289
g1167
ag1275
ag14
ag15
ag16
ag17
ag18
ag19
ag20
ag21
ag22
ag23
ag24
ag25
ag26
ag27
asS'dataShape'
p1290
(lp1291
I96
aI1
asbsS'method'
p1292
S'random'
p1293
sS'sequenceIndices'
p1294
g1157
(g1158
(I0
tS'b'
tRp1295
(I1
(I96
I1
tg80
I01
S'8\x00\x00\x00\x01\x00\x00\x00\x14\x00\x00\x00[\x00\x00\x00,\x00\x00\x00&\x00\x00\x00\x07\x00\x00\x00*\x00\x00\x000\x00\x00\x00+\x00\x00\x00;\x00\x00\x00\x0c\x00\x00\x00\x0b\x00\x00\x00_\x00\x00\x009\x00\x00\x00Z\x00\x00\x00 \x00\x00\x00/\x00\x00\x00\x11\x00\x00\x00\x18\x00\x00\x00]\x00\x00\x00-\x00\x00\x00N\x00\x00\x00:\x00\x00\x00"\x00\x00\x00A\x00\x00\x00\x13\x00\x00\x00\x04\x00\x00\x00B\x00\x00\x00\\\x00\x00\x00\x08\x00\x00\x00\x02\x00\x00\x00\x10\x00\x00\x00\n\x00\x00\x002\x00\x00\x00\x1d\x00\x00\x00\x06\x00\x00\x00?\x00\x00\x00\x17\x00\x00\x00L\x00\x00\x007\x00\x00\x00\x1f\x00\x00\x00.\x00\x00\x00\x1b\x00\x00\x00\x15\x00\x00\x00>\x00\x00\x00F\x00\x00\x00M\x00\x00\x00R\x00\x00\x00V\x00\x00\x00T\x00\x00\x005\x00\x00\x006\x00\x00\x00@\x00\x00\x00\x05\x00\x00\x00\x1e\x00\x00\x00P\x00\x00\x00J\x00\x00\x00U\x00\x00\x00\x0f\x00\x00\x00\'\x00\x00\x00W\x00\x00\x00I\x00\x00\x00#\x00\x00\x00\x16\x00\x00\x00D\x00\x00\x00\x00\x00\x00\x00\t\x00\x00\x00E\x00\x00\x00\x0e\x00\x00\x00Y\x00\x00\x00\x19\x00\x00\x00\x03\x00\x00\x00K\x00\x00\x00!\x00\x00\x00S\x00\x00\x00Q\x00\x00\x00X\x00\x00\x00\x1c\x00\x00\x00<\x00\x00\x00=\x00\x00\x00G\x00\x00\x00^\x00\x00\x00(\x00\x00\x00O\x00\x00\x00%\x00\x00\x00$\x00\x00\x00\x12\x00\x00\x003\x00\x00\x001\x00\x00\x00C\x00\x00\x00\r\x00\x00\x00)\x00\x00\x00\x1a\x00\x00\x004\x00\x00\x00H\x00\x00\x00'
tbsS'finished'
p1296
I01
sS'nReps'
p1297
I1
sS'nRemaining'
p1298
I-1
sS'trialList'
p1299
(lp1300
g1
(cpsychopy.data
TrialType
p1301
g1155
(dp1302
g62
g113
sg63
g820
sg64
g270
sg65
g815
sg66
g819
stRp1303
ag1
(g1301
g1155
(dp1304
g62
g74
sg63
g96
sg64
g88
sg65
g91
sg66
g95
stRp1305
ag1
(g1301
g1155
(dp1306
g62
g113
sg63
g435
sg64
g270
sg65
g430
sg66
g434
stRp1307
ag1
(g1301
g1155
(dp1308
g62
g113
sg63
g887
sg64
g879
sg65
g882
sg66
g886
stRp1309
ag1
(g1301
g1155
(dp1310
g62
g74
sg63
g389
sg64
g73
sg65
g384
sg66
g388
stRp1311
ag1
(g1301
g1155
(dp1312
g62
g113
sg63
g688
sg64
g270
sg65
g683
sg66
g687
stRp1313
ag1
(g1301
g1155
(dp1314
g62
g113
sg63
g490
sg64
g270
sg65
g485
sg66
g489
stRp1315
ag1
(g1301
g1155
(dp1316
g62
g113
sg63
g154
sg64
g112
sg65
g149
sg66
g153
stRp1317
ag1
(g1301
g1155
(dp1318
g62
g113
sg63
g424
sg64
g270
sg65
g419
sg66
g423
stRp1319
ag1
(g1301
g1155
(dp1320
g62
g113
sg63
g831
sg64
g112
sg65
g826
sg66
g830
stRp1321
ag1
(g1301
g1155
(dp1322
g62
g74
sg63
g457
sg64
g293
sg65
g452
sg66
g456
stRp1323
ag1
(g1301
g1155
(dp1324
g62
g113
sg63
g222
sg64
g112
sg65
g217
sg66
g221
stRp1325
ag1
(g1301
g1155
(dp1326
g62
g113
sg63
g211
sg64
g203
sg65
g206
sg66
g210
stRp1327
ag1
(g1301
g1155
(dp1328
g62
g74
sg63
g1096
sg64
g88
sg65
g1091
sg66
g1095
stRp1329
ag1
(g1301
g1155
(dp1330
g62
g113
sg63
g853
sg64
g203
sg65
g848
sg66
g852
stRp1331
ag1
(g1301
g1155
(dp1332
g62
g113
sg63
g743
sg64
g270
sg65
g738
sg66
g742
stRp1333
ag1
(g1301
g1155
(dp1334
g62
g74
sg63
g446
sg64
g88
sg65
g441
sg66
g445
stRp1335
ag1
(g1301
g1155
(dp1336
g62
g113
sg63
g289
sg64
g203
sg65
g284
sg66
g288
stRp1337
ag1
(g1301
g1155
(dp1338
g62
g113
sg63
g1052
sg64
g393
sg65
g1047
sg66
g1051
stRp1339
ag1
(g1301
g1155
(dp1340
g62
g113
sg63
g378
sg64
g270
sg65
g373
sg66
g377
stRp1341
ag1
(g1301
g1155
(dp1342
g62
g74
sg63
g108
sg64
g88
sg65
g103
sg66
g107
stRp1343
ag1
(g1301
g1155
(dp1344
g62
g74
sg63
g578
sg64
g180
sg65
g573
sg66
g577
stRp1345
ag1
(g1301
g1155
(dp1346
g62
g113
sg63
g798
sg64
g393
sg65
g793
sg66
g797
stRp1347
ag1
(g1301
g1155
(dp1348
g62
g74
sg63
g512
sg64
g180
sg65
g507
sg66
g511
stRp1349
ag1
(g1301
g1155
(dp1350
g62
g74
sg63
g301
sg64
g293
sg65
g296
sg66
g300
stRp1351
ag1
(g1301
g1155
(dp1352
g62
g113
sg63
g875
sg64
g405
sg65
g870
sg66
g874
stRp1353
ag1
(g1301
g1155
(dp1354
g62
g74
sg63
g1118
sg64
g73
sg65
g1113
sg66
g1117
stRp1355
ag1
(g1301
g1155
(dp1356
g62
g74
sg63
g567
sg64
g88
sg65
g562
sg66
g566
stRp1357
ag1
(g1301
g1155
(dp1358
g62
g113
sg63
g953
sg64
g203
sg65
g948
sg66
g952
stRp1359
ag1
(g1301
g1155
(dp1360
g62
g113
sg63
g479
sg64
g270
sg65
g474
sg66
g478
stRp1361
ag1
(g1301
g1155
(dp1362
g62
g113
sg63
g699
sg64
g393
sg65
g694
sg66
g698
stRp1363
ag1
(g1301
g1155
(dp1364
g62
g113
sg63
g545
sg64
g393
sg65
g540
sg66
g544
stRp1365
ag1
(g1301
g1155
(dp1366
g62
g74
sg63
g266
sg64
g88
sg65
g261
sg66
g265
stRp1367
ag1
(g1301
g1155
(dp1368
g62
g74
sg63
g909
sg64
g73
sg65
g904
sg66
g908
stRp1369
ag1
(g1301
g1155
(dp1370
g62
g74
sg63
g356
sg64
g73
sg65
g351
sg66
g355
stRp1371
ag1
(g1301
g1155
(dp1372
g62
g113
sg63
g787
sg64
g203
sg65
g782
sg66
g786
stRp1373
ag1
(g1301
g1155
(dp1374
g62
g113
sg63
g1041
sg64
g405
sg65
g1036
sg66
g1040
stRp1375
ag1
(g1301
g1155
(dp1376
g62
g113
sg63
g1030
sg64
g879
sg65
g1025
sg66
g1029
stRp1377
ag1
(g1301
g1155
(dp1378
g62
g74
sg63
g143
sg64
g73
sg65
g138
sg66
g142
stRp1379
ag1
(g1301
g1155
(dp1380
g62
g74
sg63
g754
sg64
g88
sg65
g749
sg66
g753
stRp1381
ag1
(g1301
g1155
(dp1382
g62
g74
sg63
g1008
sg64
g88
sg65
g1003
sg66
g1007
stRp1383
ag1
(g1301
g1155
(dp1384
g62
g113
sg63
g1107
sg64
g203
sg65
g1102
sg66
g1106
stRp1385
ag1
(g1301
g1155
(dp1386
g62
g74
sg63
g165
sg64
g73
sg65
g160
sg66
g164
stRp1387
ag1
(g1301
g1155
(dp1388
g62
g74
sg63
g188
sg64
g180
sg65
g183
sg66
g187
stRp1389
ag1
(g1301
g1155
(dp1390
g62
g74
sg63
g132
sg64
g73
sg65
g127
sg66
g131
stRp1391
ag1
(g1301
g1155
(dp1392
g62
g74
sg63
g323
sg64
g293
sg65
g318
sg66
g322
stRp1393
ag1
(g1301
g1155
(dp1394
g62
g113
sg63
g556
sg64
g270
sg65
g551
sg66
g555
stRp1395
ag1
(g1301
g1155
(dp1396
g62
g113
sg63
g278
sg64
g270
sg65
g273
sg66
g277
stRp1397
ag1
(g1301
g1155
(dp1398
g62
g74
sg63
g176
sg64
g88
sg65
g171
sg66
g175
stRp1399
ag1
(g1301
g1155
(dp1400
g62
g74
sg63
g1074
sg64
g180
sg65
g1069
sg66
g1073
stRp1401
ag1
(g1301
g1155
(dp1402
g62
g74
sg63
g468
sg64
g88
sg65
g463
sg66
g467
stRp1403
ag1
(g1301
g1155
(dp1404
g62
g74
sg63
g1063
sg64
g73
sg65
g1058
sg66
g1062
stRp1405
ag1
(g1301
g1155
(dp1406
g62
g74
sg63
g1129
sg64
g180
sg65
g1124
sg66
g1128
stRp1407
ag1
(g1301
g1155
(dp1408
g62
g113
sg63
g655
sg64
g203
sg65
g650
sg66
g654
stRp1409
ag1
(g1301
g1155
(dp1410
g62
g113
sg63
g666
sg64
g112
sg65
g661
sg66
g665
stRp1411
ag1
(g1301
g1155
(dp1412
g62
g74
sg63
g534
sg64
g180
sg65
g529
sg66
g533
stRp1413
ag1
(g1301
g1155
(dp1414
g62
g74
sg63
g84
sg64
g73
sg65
g78
sg66
g83
stRp1415
ag1
(g1301
g1155
(dp1416
g62
g74
sg63
g244
sg64
g73
sg65
g239
sg66
g243
stRp1417
ag1
(g1301
g1155
(dp1418
g62
g113
sg63
g345
sg64
g203
sg65
g340
sg66
g344
stRp1419
ag1
(g1301
g1155
(dp1420
g62
g74
sg63
g199
sg64
g73
sg65
g194
sg66
g198
stRp1421
ag1
(g1301
g1155
(dp1422
g62
g74
sg63
g964
sg64
g73
sg65
g959
sg66
g963
stRp1423
ag1
(g1301
g1155
(dp1424
g62
g74
sg63
g975
sg64
g73
sg65
g970
sg66
g974
stRp1425
ag1
(g1301
g1155
(dp1426
g62
g113
sg63
g589
sg64
g405
sg65
g584
sg66
g588
stRp1427
ag1
(g1301
g1155
(dp1428
g62
g74
sg63
g501
sg64
g73
sg65
g496
sg66
g500
stRp1429
ag1
(g1301
g1155
(dp1430
g62
g113
sg63
g677
sg64
g112
sg65
g672
sg66
g676
stRp1431
ag1
(g1301
g1155
(dp1432
g62
g74
sg63
g367
sg64
g180
sg65
g362
sg66
g366
stRp1433
ag1
(g1301
g1155
(dp1434
g62
g113
sg63
g401
sg64
g393
sg65
g396
sg66
g400
stRp1435
ag1
(g1301
g1155
(dp1436
g62
g74
sg63
g1085
sg64
g73
sg65
g1080
sg66
g1084
stRp1437
ag1
(g1301
g1155
(dp1438
g62
g74
sg63
g809
sg64
g88
sg65
g804
sg66
g808
stRp1439
ag1
(g1301
g1155
(dp1440
g62
g113
sg63
g842
sg64
g270
sg65
g837
sg66
g841
stRp1441
ag1
(g1301
g1155
(dp1442
g62
g74
sg63
g600
sg64
g73
sg65
g595
sg66
g599
stRp1443
ag1
(g1301
g1155
(dp1444
g62
g113
sg63
g986
sg64
g393
sg65
g981
sg66
g985
stRp1445
ag1
(g1301
g1155
(dp1446
g62
g113
sg63
g1140
sg64
g405
sg65
g1135
sg66
g1139
stRp1447
ag1
(g1301
g1155
(dp1448
g62
g74
sg63
g776
sg64
g293
sg65
g771
sg66
g775
stRp1449
ag1
(g1301
g1155
(dp1450
g62
g74
sg63
g721
sg64
g73
sg65
g716
sg66
g720
stRp1451
ag1
(g1301
g1155
(dp1452
g62
g74
sg63
g898
sg64
g180
sg65
g893
sg66
g897
stRp1453
ag1
(g1301
g1155
(dp1454
g62
g113
sg63
g523
sg64
g112
sg65
g518
sg66
g522
stRp1455
ag1
(g1301
g1155
(dp1456
g62
g113
sg63
g611
sg64
g393
sg65
g606
sg66
g610
stRp1457
ag1
(g1301
g1155
(dp1458
g62
g113
sg63
g334
sg64
g270
sg65
g329
sg66
g333
stRp1459
ag1
(g1301
g1155
(dp1460
g62
g74
sg63
g1019
sg64
g73
sg65
g1014
sg66
g1018
stRp1461
ag1
(g1301
g1155
(dp1462
g62
g74
sg63
g710
sg64
g180
sg65
g705
sg66
g709
stRp1463
ag1
(g1301
g1155
(dp1464
g62
g113
sg63
g931
sg64
g270
sg65
g926
sg66
g930
stRp1465
ag1
(g1301
g1155
(dp1466
g62
g74
sg63
g622
sg64
g88
sg65
g617
sg66
g621
stRp1467
ag1
(g1301
g1155
(dp1468
g62
g113
sg63
g920
sg64
g393
sg65
g915
sg66
g919
stRp1469
ag1
(g1301
g1155
(dp1470
g62
g74
sg63
g644
sg64
g88
sg65
g639
sg66
g643
stRp1471
ag1
(g1301
g1155
(dp1472
g62
g74
sg63
g732
sg64
g73
sg65
g727
sg66
g731
stRp1473
ag1
(g1301
g1155
(dp1474
g62
g113
sg63
g633
sg64
g112
sg65
g628
sg66
g632
stRp1475
ag1
(g1301
g1155
(dp1476
g62
g113
sg63
g765
sg64
g112
sg65
g760
sg66
g764
stRp1477
ag1
(g1301
g1155
(dp1478
g62
g113
sg63
g942
sg64
g405
sg65
g937
sg66
g941
stRp1479
ag1
(g1301
g1155
(dp1480
g62
g113
sg63
g864
sg64
g405
sg65
g859
sg66
g863
stRp1481
ag1
(g1301
g1155
(dp1482
g62
g74
sg63
g255
sg64
g88
sg65
g250
sg66
g254
stRp1483
ag1
(g1301
g1155
(dp1484
g62
g113
sg63
g121
sg64
g112
sg65
g116
sg66
g120
stRp1485
ag1
(g1301
g1155
(dp1486
g62
g113
sg63
g413
sg64
g405
sg65
g408
sg66
g412
stRp1487
ag1
(g1301
g1155
(dp1488
g62
g113
sg63
g312
sg64
g270
sg65
g307
sg66
g311
stRp1489
ag1
(g1301
g1155
(dp1490
g62
g74
sg63
g997
sg64
g180
sg65
g992
sg66
g996
stRp1491
ag1
(g1301
g1155
(dp1492
g62
g74
sg63
g233
sg64
g88
sg65
g228
sg66
g232
stRp1493
asS'seed'
p1494
NsS'thisIndex'
p1495
g1137
sS'thisN'
p1496
I96
sS'thisTrialN'
p1497
I0
sS'nTotal'
p1498
I96
sS'_warnUseOfNext'
p1499
I01
sbasS'savePickle'
p1500
I00
sb.