ccopy_reg
_reconstructor
p1
(cpsychopy.data
ExperimentHandler
p2
c__builtin__
object
p3
NtRp4
(dp5
S'originPath'
p6
NsS'dataFileName'
p7
VC:\u005cDocuments and Settings\u005cExperimental user\u005cMy Documents\u005cconsciousness\u005cuncon_feat\u005cexperiment_scripts\u005cdata/out_Experiment_EEG_version_2019_jul_19_1620
p8
sS'runtimeInfo'
p9
NsS'name'
p10
VExperiment_EEG_version
p11
sS'dataNames'
p12
(lp13
S'image_onset_time'
p14
aS'response_window'
p15
aS'correctAns'
p16
aS'probe_onset'
p17
aS'discrim_resptime'
p18
aS'response.corr'
p19
aS'response.keys'
p20
aS'response.rt'
p21
aS'visible_resptime'
p22
aS'visible.keys'
p23
aS'visible.corr'
p24
aS'visible.rt'
p25
aS'probeFrames'
p26
aS'jitter2'
p27
asS'autoLog'
p28
I01
sS'extraInfo'
p29
(dp30
Vn_square
p31
V32
p32
sVexperiment_color
p33
Vbw
p34
sS'frameRate'
p35
cnumpy.core.multiarray
scalar
p36
(cnumpy
dtype
p37
(S'f8'
I0
I1
tRp38
(I3
S'<'
NNNI-1
I-1
I0
tbS'\xe6G\xa6@?\xf2X@'
tRp39
sS'date'
p40
V2019_jul_19_1620
p41
sVsession
p42
V007
p43
sVimage_size
p44
V256
p45
sVpremask_dur
p46
V20
p47
sVprobeFrames
p48
V5
sVparticipant
p49
Vout
p50
sS'expName'
p51
g11
sVpostmask_dur
p52
V20
p53
ssS'loopsUnfinished'
p54
(lp55
sS'saveWideText'
p56
I00
sS'thisEntry'
p57
(dp58
sS'version'
p59
S''
sS'_paramNamesSoFar'
p60
(lp61
S'category'
p62
aS'probe_path'
p63
aS'subcategory'
p64
aS'fixation_duration'
p65
aS'label'
p66
asS'entries'
p67
(lp68
(dp69
g31
g32
sg17
F3.7868007090874016
sg24
I0
sg35
g39
sg14
F3.7359095639549196
sg16
g36
(g37
(S'i4'
I0
I1
tRp70
(I3
S'<'
NNNI-1
I-1
I0
tbS'\x02\x00\x00\x00'
tRp71
sg42
g43
sg46
g47
sg15
S'nV_V'
p72
sg22
F8.5773502266965806
sg64
VMarine_creatures
p73
sg62
VLiving_Things
p74
sg49
g50
sS'trials.thisN'
p75
I0
sg19
I1
sg27
g36
(g38
S'\x00\x00\x00\x00\x00\x00\x18@'
tRp76
sg52
g53
sg23
S'3'
sg18
F5.0486623807810247
sg33
g34
sg51
g11
sg20
S'2'
sg65
g36
(g37
(S'i8'
I0
I1
tRp77
(I3
S'<'
NNNI-1
I-1
I0
tbS'\x00\x00\x00\x00\x00\x00\x00\x00'
tRp78
sg44
g45
sg40
g41
sg25
F2.0747383539564908
sS'trials.thisIndex'
p79
g36
(g37
(S'i4'
I0
I1
tRp80
(I3
S'<'
NNNI-1
I-1
I0
tbS'4\x00\x00\x00'
tRp81
sg26
V5
sS'trials.thisRepN'
p82
I0
sg66
Vmanatee
p83
sg63
V../experiment_stimuli/bw_bc_bl/Living_Things/Marine_creatures/manatee_22.jpg
p84
sg21
F3.4978444818407297
sS'trials.thisTrialN'
p85
I0
sa(dp86
g31
g32
sg17
F12.40597649756819
sg24
I1
sg35
g39
sg14
F12.384726350195706
sg16
g36
(g70
S'\x02\x00\x00\x00'
tRp87
sg42
g43
sg46
g47
sg15
g72
sg22
F14.81066977372393
sg64
VAnimals
p88
sg62
g74
sg49
g50
sS'trials.thisN'
p89
I1
sg19
I1
sg27
g36
(g38
S'\x00\x00\x00\x00\x00\x00\x1a@'
tRp90
sg52
g53
sg23
S'1'
sg18
F13.6373560721986
sg33
g34
sg51
g11
sg20
S'2'
sg65
g36
(g77
S'\x00\x00\x00\x00\x00\x00\x00\x00'
tRp91
sg44
g45
sg40
g41
sg25
F1.0425078324042261
sS'trials.thisIndex'
p92
g36
(g80
S"'\x00\x00\x00"
tRp93
sg26
V5
sS'trials.thisRepN'
p94
I0
sg66
Vhippopotamus
p95
sg63
V../experiment_stimuli/bw_bc_bl/Living_Things/Animals/hippopotamus_4.jpg
p96
sg21
F1.1527400356717408
sS'trials.thisTrialN'
p97
I1
sa(dp98
g31
g32
sg17
F17.621052737347782
sg24
I1
sg35
g39
sg14
F17.586050662212074
sg16
g36
(g70
S'\x02\x00\x00\x00'
tRp99
sg42
g43
sg46
g47
sg15
S'V_nV'
p100
sg22
F19.641190993599594
sg64
VVehicles
p101
sg62
VNonliving_Things
p102
sg49
g50
sS'trials.thisN'
p103
I2
sg19
I1
sg27
g36
(g38
S'\x00\x00\x00\x00\x00\x00\x1c@'
tRp104
sg52
g53
sg23
S'1'
sg18
F18.878766886424273
sg33
g34
sg51
g11
sg20
S'2'
sg65
g36
(g77
S'\x00\x00\x00\x00\x00\x00\x00\x00'
tRp105
sg44
g45
sg40
g41
sg25
F0.37103889416903257
sS'trials.thisIndex'
p106
g36
(g80
S'W\x00\x00\x00'
tRp107
sg26
V5
sS'trials.thisRepN'
p108
I0
sg66
Vtrain
p109
sg63
V../experiment_stimuli/bw_bc_bl/Nonliving_Things/Vehicles/train_26.jpg
p110
sg21
F0.74185696011409163
sS'trials.thisTrialN'
p111
I2
sa(dp112
g31
g32
sg17
F21.765342031605542
sg24
I1
sg35
g39
sg14
F21.745108196046203
sg16
g36
(g70
S'\x01\x00\x00\x00'
tRp113
sg42
g43
sg46
g47
sg15
g72
sg22
F25.463840989861637
sg64
VBuildings
p114
sg62
g102
sg49
g50
sS'trials.thisN'
p115
I3
sg19
I1
sg27
g36
(g38
S'\x00\x00\x00\x00\x00\x00\x18@'
tRp116
sg52
g53
sg23
S'1'
sg18
F23.027797986287624
sg33
g34
sg51
g11
sg20
S'1'
sg65
g36
(g77
S'\x00\x00\x00\x00\x00\x00\x00\x00'
tRp117
sg44
g45
sg40
g41
sg25
F0.34097369853407145
sS'trials.thisIndex'
p118
g36
(g80
S')\x00\x00\x00'
tRp119
sg26
V5
sS'trials.thisRepN'
p120
I0
sg66
Vhouse
p121
sg63
V../experiment_stimuli/bw_bc_bl/Nonliving_Things/Buildings/house_14.jpg
p122
sg21
F2.415491783991456
sS'trials.thisTrialN'
p123
I3
sa(dp124
g31
g32
sg17
F27.55669476557523
sg24
I1
sg35
g39
sg14
F27.537716022226959
sg16
g36
(g70
S'\x01\x00\x00\x00'
tRp125
sg42
g43
sg46
g47
sg15
g72
sg22
F31.416804115753621
sg64
VMusical_Inst
p126
sg62
g102
sg49
g50
sS'trials.thisN'
p127
I4
sg19
I1
sg27
g36
(g38
S'\x00\x00\x00\x00\x00\x00\x18@'
tRp128
sg52
g53
sg23
S'1'
sg18
F28.850478631909937
sg33
g34
sg51
g11
sg20
S'1'
sg65
g36
(g77
S'\x00\x00\x00\x00\x00\x00\x00\x00'
tRp129
sg44
g45
sg40
g41
sg25
F0.97218841826543212
sS'trials.thisIndex'
p130
g36
(g80
S'\\\x00\x00\x00'
tRp131
sg26
V5
sS'trials.thisRepN'
p132
I0
sg66
Vviolin
p133
sg63
V../experiment_stimuli/bw_bc_bl/Nonliving_Things/Musical_Inst/violin_4.jpg
p134
sg21
F2.5457703513093293
sS'trials.thisTrialN'
p135
I4
sa(dp136
g31
g32
sg17
F34.148039643652737
sg24
I1
sg35
g39
sg14
F34.122046862728894
sg16
g36
(g70
S'\x01\x00\x00\x00'
tRp137
sg42
g43
sg46
g47
sg15
g100
sg22
F37.439753132872283
sg64
g88
sg62
g74
sg49
g50
sS'trials.thisN'
p138
I5
sg19
I0
sg27
g36
(g38
S'\x00\x00\x00\x00\x00\x00 @'
tRp139
sg52
g53
sg23
S'1'
sg18
F35.46487558959052
sg33
g34
sg51
g11
sg20
S'2'
sg65
g36
(g77
S'\x00\x00\x00\x00\x00\x00\x00\x00'
tRp140
sg44
g45
sg40
g41
sg25
F0.38105102768167853
sS'trials.thisIndex'
p141
g36
(g80
S'R\x00\x00\x00'
tRp142
sg26
V5
sS'trials.thisRepN'
p143
I0
sg66
Vtapir
p144
sg63
V../experiment_stimuli/bw_bc_bl/Living_Things/Animals/tapir_9.jpg
p145
sg21
F1.9543190533295274
sS'trials.thisTrialN'
p146
I5
sa(dp147
g31
g32
sg17
F39.58672036929056
sg24
I1
sg35
g39
sg14
F39.553873409517109
sg16
g36
(g70
S'\x02\x00\x00\x00'
tRp148
sg42
g43
sg46
g47
sg15
g100
sg22
F42.280464811250567
sg64
g101
sg62
g102
sg49
g50
sS'trials.thisN'
p149
I6
sg19
I1
sg27
g36
(g38
S'\x00\x00\x00\x00\x00\x00\x18@'
tRp150
sg52
g53
sg23
S'1'
sg18
F40.906738690566272
sg33
g34
sg51
g11
sg20
S'2'
sg65
g36
(g77
S'\x00\x00\x00\x00\x00\x00\x00\x00'
tRp151
sg44
g45
sg40
g41
sg25
F0.34096069121733308
sS'trials.thisIndex'
p152
g36
(g80
S'L\x00\x00\x00'
tRp153
sg26
V5
sS'trials.thisRepN'
p154
I0
sg66
Vship
p155
sg63
V../experiment_stimuli/bw_bc_bl/Nonliving_Things/Vehicles/ship_19.jpg
p156
sg21
F1.3531717285513878
sS'trials.thisTrialN'
p157
I6
sa(dp158
g31
g32
sg17
F44.378489798400551
sg24
I1
sg35
g39
sg14
F44.354332317132503
sg16
g36
(g70
S'\x02\x00\x00\x00'
tRp159
sg42
g43
sg46
g47
sg15
g72
sg22
F46.499664559960365
sg64
VBirds
p160
sg62
g74
sg49
g50
sS'trials.thisN'
p161
I7
sg19
I1
sg27
g36
(g38
S'\x00\x00\x00\x00\x00\x00\x1c@'
tRp162
sg52
g53
sg23
S'1'
sg18
F45.727221413049847
sg33
g34
sg51
g11
sg20
S'2'
sg65
g36
(g77
S'\x00\x00\x00\x00\x00\x00\x00\x00'
tRp163
sg44
g45
sg40
g41
sg25
F0.45120209315791726
sS'trials.thisIndex'
p164
g36
(g80
S'*\x00\x00\x00'
tRp165
sg26
V5
sS'trials.thisRepN'
p166
I0
sg66
Vhummingbird
p167
sg63
V../experiment_stimuli/bw_bc_bl/Living_Things/Birds/hummingbird_3.jpg
p168
sg21
F0.75187466107308865
sS'trials.thisTrialN'
p169
I7
sa(dp170
g31
g32
sg17
F48.704959406051785
sg24
I0
sg35
g39
sg14
F48.683755772653967
sg16
g36
(g70
S'\x01\x00\x00\x00'
tRp171
sg42
g43
sg46
g47
sg15
g72
sg22
F51.680929072666913
sg64
g126
sg62
g102
sg49
g50
sS'trials.thisN'
p172
I8
sg19
I1
sg27
g36
(g38
S'\x00\x00\x00\x00\x00\x00\x1a@'
tRp173
sg52
g53
sg23
S'2'
sg18
F50.056650879792869
sg33
g34
sg51
g11
sg20
S'1'
sg65
g36
(g77
S'\x00\x00\x00\x00\x00\x00\x00\x00'
tRp174
sg44
g45
sg40
g41
sg25
F0.37103469483554363
sS'trials.thisIndex'
p175
g36
(g80
S'>\x00\x00\x00'
tRp176
sg26
V5
sS'trials.thisRepN'
p177
I0
sg66
Vpiano
p178
sg63
V../experiment_stimuli/bw_bc_bl/Nonliving_Things/Musical_Inst/piano__5.jpg
p179
sg21
F1.6037196204997599
sS'trials.thisTrialN'
p180
I8
sa(dp181
g31
g32
sg17
F53.807216342538595
sg24
I1
sg35
g39
sg14
F53.784862744621933
sg16
g36
(g70
S'\x02\x00\x00\x00'
tRp182
sg42
g43
sg46
g47
sg15
g100
sg22
F55.719722044654191
sg64
g114
sg62
g102
sg49
g50
sS'trials.thisN'
p183
I9
sg19
I1
sg27
g36
(g38
S'\x00\x00\x00\x00\x00\x00\x1a@'
tRp184
sg52
g53
sg23
S'1'
sg18
F55.147729617077857
sg33
g34
sg51
g11
sg20
S'2'
sg65
g36
(g77
S'\x00\x00\x00\x00\x00\x00\x00\x00'
tRp185
sg44
g45
sg40
g41
sg25
F0.23071376280859113
sS'trials.thisIndex'
p186
g36
(g80
S'5\x00\x00\x00'
tRp187
sg26
V5
sS'trials.thisRepN'
p188
I0
sg66
Vmill
p189
sg63
V../experiment_stimuli/bw_bc_bl/Nonliving_Things/Buildings/mill_18.jpg
p190
sg21
F0.55142692662775517
sS'trials.thisTrialN'
p191
I9
sa(dp192
g31
g32
sg17
F57.706434351857752
sg24
I1
sg35
g39
sg14
F57.683351712301373
sg16
g36
(g70
S'\x02\x00\x00\x00'
tRp193
sg42
g43
sg46
g47
sg15
g72
sg22
F59.808617170434445
sg64
g73
sg62
g74
sg49
g50
sS'trials.thisN'
p194
I10
sg19
I1
sg27
g36
(g38
S'\x00\x00\x00\x00\x00\x00 @'
tRp195
sg52
g53
sg23
S'1'
sg18
F59.076285104267299
sg33
g34
sg51
g11
sg20
S'2'
sg65
g36
(g77
S'\x00\x00\x00\x00\x00\x00\x00\x00'
tRp196
sg44
g45
sg40
g41
sg25
F0.18061041319742799
sS'trials.thisIndex'
p197
g36
(g80
S'\x17\x00\x00\x00'
tRp198
sg26
V5
sS'trials.thisRepN'
p199
I0
sg66
Vdolphin
p200
sg63
V../experiment_stimuli/bw_bc_bl/Living_Things/Marine_creatures/dolphin_7.jpg
p201
sg21
F0.71178269665688276
sS'trials.thisTrialN'
p202
I10
sa(dp203
g31
g32
sg17
F61.746217008680105
sg24
I0
sg35
g39
sg14
F61.72214821446687
sg16
g36
(g70
S'\x02\x00\x00\x00'
tRp204
sg42
g43
sg46
g47
sg15
g100
sg22
F64.558969860430807
sg64
VFurniture
p205
sg62
g102
sg49
g50
sS'trials.thisN'
p206
I11
sg19
I1
sg27
g36
(g38
S'\x00\x00\x00\x00\x00\x00\x18@'
tRp207
sg52
g53
sg23
S'2'
sg18
F63.155163277406245
sg33
g34
sg51
g11
sg20
S'2'
sg65
g36
(g77
S'\x00\x00\x00\x00\x00\x00\x00\x00'
tRp208
sg44
g45
sg40
g41
sg25
F0.54139954224228859
sS'trials.thisIndex'
p209
g36
(g80
S'/\x00\x00\x00'
tRp210
sg26
V5
sS'trials.thisRepN'
p211
I0
sg66
Vlectern
p212
sg63
V../experiment_stimuli/bw_bc_bl/Nonliving_Things/Furniture/lectern_12.jpg
p213
sg21
F1.383243890479207
sS'trials.thisTrialN'
p214
I11
sa(dp215
g31
g32
sg17
F66.850751698948443
sg24
I1
sg35
g39
sg14
F66.833290871232748
sg16
g36
(g70
S'\x01\x00\x00\x00'
tRp216
sg42
g43
sg46
g47
sg15
g72
sg22
F69.529770543333143
sg64
VKitchen_Uten
p217
sg62
g102
sg49
g50
sS'trials.thisN'
p218
I12
sg19
I1
sg27
g36
(g38
S'\x00\x00\x00\x00\x00\x00\x1e@'
tRp219
sg52
g53
sg23
S'1'
sg18
F68.24625108204782
sg33
g34
sg51
g11
sg20
S'1'
sg65
g36
(g77
S'\x00\x00\x00\x00\x00\x00\x00\x00'
tRp220
sg44
g45
sg40
g41
sg25
F0.45119997672736645
sS'trials.thisIndex'
p221
g36
(g80
S'\x1e\x00\x00\x00'
tRp222
sg26
V5
sS'trials.thisRepN'
p223
I0
sg66
Vfondue
p224
sg63
V../experiment_stimuli/bw_bc_bl/Nonliving_Things/Kitchen_Uten/fondue_19.jpg
p225
sg21
F1.2629756974056363
sS'trials.thisTrialN'
p226
I12
sa(dp227
g31
g32
sg17
F71.735566192772239
sg24
I1
sg35
g39
sg14
F71.713899459689856
sg16
g36
(g70
S'\x02\x00\x00\x00'
tRp228
sg42
g43
sg46
g47
sg15
g100
sg22
F74.871406371239573
sg64
g205
sg62
g102
sg49
g50
sS'trials.thisN'
p229
I13
sg19
I1
sg27
g36
(g38
S'\x00\x00\x00\x00\x00\x00\x18@'
tRp230
sg52
g53
sg23
S'1'
sg18
F73.156941865570843
sg33
g34
sg51
g11
sg20
S'2'
sg65
g36
(g77
S'\x00\x00\x00\x00\x00\x00\x00\x00'
tRp231
sg44
g45
sg40
g41
sg25
F0.35097812116146088
sS'trials.thisIndex'
p232
g36
(g80
S'\x08\x00\x00\x00'
tRp233
sg26
V5
sS'trials.thisRepN'
p234
I0
sg66
Vbookcase
p235
sg63
V../experiment_stimuli/bw_bc_bl/Nonliving_Things/Furniture/bookcase_12.jpg
p236
sg21
F1.6939129373058677
sS'trials.thisTrialN'
p237
I13
sa(dp238
g31
g32
sg17
F76.978401634376496
sg24
I1
sg35
g39
sg14
F76.955314228311181
sg16
g36
(g70
S'\x02\x00\x00\x00'
tRp239
sg42
g43
sg46
g47
sg15
g72
sg22
F79.621780357789248
sg64
VInsects
p240
sg62
g74
sg49
g50
sS'trials.thisN'
p241
I14
sg19
I0
sg27
g36
(g38
S'\x00\x00\x00\x00\x00\x00\x1c@'
tRp242
sg52
g53
sg23
S'1'
sg18
F78.42842660844326
sg33
g34
sg51
g11
sg20
S'1'
sg65
g36
(g77
S'\x00\x00\x00\x00\x00\x00\x00\x00'
tRp243
sg44
g45
sg40
g41
sg25
F0.79194695223122835
sS'trials.thisIndex'
p244
g36
(g80
S'-\x00\x00\x00'
tRp245
sg26
V5
sS'trials.thisRepN'
p246
I0
sg66
Vladybird
p247
sg63
V../experiment_stimuli/bw_bc_bl/Living_Things/Insects/ladybird_7.jpg
p248
sg21
F1.1727792979218066
sS'trials.thisTrialN'
p249
I14
sa(dp250
g31
g32
sg17
F82.164277266710997
sg24
I1
sg35
g39
sg14
F82.146615595556796
sg16
g36
(g70
S'\x01\x00\x00\x00'
tRp251
sg42
g43
sg46
g47
sg15
g100
sg22
F84.923165682237595
sg64
g160
sg62
g74
sg49
g50
sS'trials.thisN'
p252
I15
sg19
I0
sg27
g36
(g38
S'\x00\x00\x00\x00\x00\x00\x18@'
tRp253
sg52
g53
sg23
S'1'
sg18
F83.629746642429382
sg33
g34
sg51
g11
sg20
S'2'
sg65
g36
(g77
S'\x00\x00\x00\x00\x00\x00\x00\x00'
tRp254
sg44
g45
sg40
g41
sg25
F0.22069987747818232
sS'trials.thisIndex'
p255
g36
(g80
S'U\x00\x00\x00'
tRp256
sg26
V5
sS'trials.thisRepN'
p257
I0
sg66
Vtoucan
p258
sg63
V../experiment_stimuli/bw_bc_bl/Living_Things/Birds/toucan_23.jpg
p259
sg21
F1.2728318618610501
sS'trials.thisTrialN'
p260
I15
sa(dp261
g31
g32
sg17
F86.906102251261473
sg24
I0
sg35
g39
sg14
F86.876914204098284
sg16
g36
(g70
S'\x02\x00\x00\x00'
tRp262
sg42
g43
sg46
g47
sg15
g100
sg22
F90.234880402684212
sg64
g101
sg62
g102
sg49
g50
sS'trials.thisN'
p263
I16
sg19
I1
sg27
g36
(g38
S'\x00\x00\x00\x00\x00\x00\x1e@'
tRp264
sg52
g53
sg23
S'3'
sg18
F88.390116638503969
sg33
g34
sg51
g11
sg20
S'2'
sg65
g36
(g77
S'\x00\x00\x00\x00\x00\x00\x00\x00'
tRp265
sg44
g45
sg40
g41
sg25
F0.29089513514190912
sS'trials.thisIndex'
p266
g36
(g80
S'\x0b\x00\x00\x00'
tRp267
sg26
V5
sS'trials.thisRepN'
p268
I0
sg66
Vcar
p269
sg63
V../experiment_stimuli/bw_bc_bl/Nonliving_Things/Vehicles/car_13.jpg
p270
sg21
F1.8241968043148518
sS'trials.thisTrialN'
p271
I16
sa(dp272
g31
g32
sg17
F92.280234549660236
sg24
I0
sg35
g39
sg14
F92.258626548573375
sg16
g36
(g70
S'\x01\x00\x00\x00'
tRp273
sg42
g43
sg46
g47
sg15
g100
sg22
F94.383899954147637
sg64
g88
sg62
g74
sg49
g50
sS'trials.thisN'
p274
I17
sg19
I1
sg27
g36
(g38
S'\x00\x00\x00\x00\x00\x00\x18@'
tRp275
sg52
g53
sg23
S'2'
sg18
F93.73175142146647
sg33
g34
sg51
g11
sg20
S'1'
sg65
g36
(g77
S'\x00\x00\x00\x00\x00\x00\x00\x00'
tRp276
sg44
g45
sg40
g41
sg25
F0.37101616151630878
sS'trials.thisIndex'
p277
g36
(g80
S'Z\x00\x00\x00'
tRp278
sg26
V5
sS'trials.thisRepN'
p279
I0
sg66
Vturtle
p280
sg63
V../experiment_stimuli/bw_bc_bl/Living_Things/Animals/turtle_2.jpg
p281
sg21
F0.63159955060109496
sS'trials.thisTrialN'
p282
I17
sa(dp283
g31
g32
sg17
F96.503669034689665
sg24
I0
sg35
g39
sg14
F96.487845652271062
sg16
g36
(g70
S'\x02\x00\x00\x00'
tRp284
sg42
g43
sg46
g47
sg15
g72
sg22
F98.91376786166802
sg64
g240
sg62
g74
sg49
g50
sS'trials.thisN'
p285
I18
sg19
I1
sg27
g36
(g38
S'\x00\x00\x00\x00\x00\x00\x18@'
tRp286
sg52
g53
sg23
S'3'
sg18
F97.950927125290036
sg33
g34
sg51
g11
sg20
S'2'
sg65
g36
(g77
S'\x00\x00\x00\x00\x00\x00\x00\x00'
tRp287
sg44
g45
sg40
g41
sg25
F0.27065030345693231
sS'trials.thisIndex'
p288
g36
(g80
S'\n\x00\x00\x00'
tRp289
sg26
V5
sS'trials.thisRepN'
p290
I0
sg66
Vbutterfly
p291
sg63
V../experiment_stimuli/bw_bc_bl/Living_Things/Insects/butterfly_12.jpg
p292
sg21
F0.94228273583576083
sS'trials.thisTrialN'
p293
I18
sa(dp294
g31
g32
sg17
F100.94836915843189
sg24
I0
sg35
g39
sg14
F100.91747917095199
sg16
g36
(g70
S'\x01\x00\x00\x00'
tRp295
sg42
g43
sg46
g47
sg15
g100
sg22
F103.01267983112484
sg64
g160
sg62
g74
sg49
g50
sS'trials.thisN'
p296
I19
sg19
I1
sg27
g36
(g38
S'\x00\x00\x00\x00\x00\x00\x18@'
tRp297
sg52
g53
sg23
S'3'
sg18
F102.37054815329611
sg33
g34
sg51
g11
sg20
S'1'
sg65
g36
(g77
S'\x00\x00\x00\x00\x00\x00\x00\x00'
tRp298
sg44
g45
sg40
g41
sg25
F0.26078652963042259
sS'trials.thisIndex'
p299
g36
(g80
S',\x00\x00\x00'
tRp300
sg26
V5
sS'trials.thisRepN'
p301
I0
sg66
Vkiwi
p302
sg63
V../experiment_stimuli/bw_bc_bl/Living_Things/Birds/kiwi_16.jpg
p303
sg21
F0.62157928617671132
sS'trials.thisTrialN'
p304
I19
sa(dp305
g31
g32
sg17
F105.02585163619369
sg24
I0
sg35
g39
sg14
F105.00639206310734
sg16
g36
(g70
S'\x01\x00\x00\x00'
tRp306
sg42
g43
sg46
g47
sg15
g72
sg22
F107.2920018513687
sg64
g217
sg62
g102
sg49
g50
sS'trials.thisN'
p307
I20
sg19
I0
sg27
g36
(g38
S'\x00\x00\x00\x00\x00\x00\x18@'
tRp308
sg52
g53
sg23
S'2'
sg18
F106.41937474673614
sg33
g34
sg51
g11
sg20
S'2'
sg65
g36
(g77
S'\x00\x00\x00\x00\x00\x00\x00\x00'
tRp309
sg44
g45
sg40
g41
sg25
F0.60153044853359461
sS'trials.thisIndex'
p310
g36
(g80
S'\x12\x00\x00\x00'
tRp311
sg26
V5
sS'trials.thisRepN'
p312
I0
sg66
Vcoking-pot
p313
sg63
V../experiment_stimuli/bw_bc_bl/Nonliving_Things/Kitchen_Uten/coking-pot_14.jpg
p314
sg21
F0.85207931371405721
sS'trials.thisTrialN'
p315
I20
sa(dp316
g31
g32
sg17
F109.66234706062824
sg24
I1
sg35
g39
sg14
F109.62644928414375
sg16
g36
(g70
S'\x02\x00\x00\x00'
tRp317
sg42
g43
sg46
g47
sg15
g100
sg22
F113.69595047924668
sg64
g114
sg62
g102
sg49
g50
sS'trials.thisN'
p318
I21
sg19
I0
sg27
g36
(g38
S'\x00\x00\x00\x00\x00\x00\x18@'
tRp319
sg52
g53
sg23
S'1'
sg18
F111.04944999935105
sg33
g34
sg51
g11
sg20
S'1'
sg65
g36
(g77
S'\x00\x00\x00\x00\x00\x00\x00\x00'
tRp320
sg44
g45
sg40
g41
sg25
F0.25076999422162771
sS'trials.thisIndex'
p321
g36
(g80
S':\x00\x00\x00'
tRp322
sg26
V5
sS'trials.thisRepN'
p323
I0
sg66
Vpalace
p324
sg63
V../experiment_stimuli/bw_bc_bl/Nonliving_Things/Buildings/palace_2.jpg
p325
sg21
F2.6259446102194488
sS'trials.thisTrialN'
p326
I21
sa(dp327
g31
g32
sg17
F115.6857164981775
sg24
I1
sg35
g39
sg14
F115.67962867952883
sg16
g36
(g70
S'\x02\x00\x00\x00'
tRp328
sg42
g43
sg46
g47
sg15
g72
sg22
F118.54650772828609
sg64
g160
sg62
g74
sg49
g50
sS'trials.thisN'
p329
I22
sg19
I0
sg27
g36
(g38
S'\x00\x00\x00\x00\x00\x00\x18@'
tRp330
sg52
g53
sg23
S'1'
sg18
F117.08258335106075
sg33
g34
sg51
g11
sg20
S'1'
sg65
g36
(g77
S'\x00\x00\x00\x00\x00\x00\x00\x00'
tRp331
sg44
g45
sg40
g41
sg25
F0.18061253381893039
sS'trials.thisIndex'
p332
g36
(g80
S'!\x00\x00\x00'
tRp333
sg26
V5
sS'trials.thisRepN'
p334
I0
sg66
Vgoldfinch
p335
sg63
V../experiment_stimuli/bw_bc_bl/Living_Things/Birds/goldfinch_4.jpg
p336
sg21
F1.443370992783457
sS'trials.thisTrialN'
p337
I22
sa(dp338
g31
g32
sg17
F120.47875307919458
sg24
I0
sg35
g39
sg14
F120.46003352059051
sg16
g36
(g70
S'\x01\x00\x00\x00'
tRp339
sg42
g43
sg46
g47
sg15
g100
sg22
F122.74565756088123
sg64
g160
sg62
g74
sg49
g50
sS'trials.thisN'
p340
I23
sg19
I1
sg27
g36
(g38
S'\x00\x00\x00\x00\x00\x00\x1c@'
tRp341
sg52
g53
sg23
S'2'
sg18
F121.89306598203257
sg33
g34
sg51
g11
sg20
S'1'
sg65
g36
(g77
S'\x00\x00\x00\x00\x00\x00\x00\x00'
tRp342
sg44
g45
sg40
g41
sg25
F0.25060897320508957
sS'trials.thisIndex'
p343
g36
(g80
S'3\x00\x00\x00'
tRp344
sg26
V5
sS'trials.thisRepN'
p345
I0
sg66
Vmagpie
p346
sg63
V../experiment_stimuli/bw_bc_bl/Living_Things/Birds/magpie_3.jpg
p347
sg21
F0.83203805889934301
sS'trials.thisTrialN'
p348
I23
sa(dp349
g31
g32
sg17
F124.74028926016763
sg24
I1
sg35
g39
sg14
F124.72932838927954
sg16
g36
(g70
S'\x01\x00\x00\x00'
tRp350
sg42
g43
sg46
g47
sg15
g72
sg22
F127.10521855717525
sg64
g205
sg62
g102
sg49
g50
sS'trials.thisN'
p351
I24
sg19
I1
sg27
g36
(g38
S'\x00\x00\x00\x00\x00\x00\x18@'
tRp352
sg52
g53
sg23
S'1'
sg18
F126.14231371600181
sg33
g34
sg51
g11
sg20
S'1'
sg65
g36
(g77
S'\x00\x00\x00\x00\x00\x00\x00\x00'
tRp353
sg44
g45
sg40
g41
sg25
F0.18060969142243266
sS'trials.thisIndex'
p354
g36
(g80
S'\x00\x00\x00\x00'
tRp355
sg26
V5
sS'trials.thisRepN'
p356
I0
sg66
VChest-of-drawers
p357
sg63
V../experiment_stimuli/bw_bc_bl/Nonliving_Things/Furniture/Chest-of-drawers_11.jpg
p358
sg21
F0.94229259667918086
sS'trials.thisTrialN'
p359
I24
sa(dp360
g31
g32
sg17
F129.05787079408765
sg24
I1
sg35
g39
sg14
F129.01868132455274
sg16
g36
(g70
S'\x01\x00\x00\x00'
tRp361
sg42
g43
sg46
g47
sg15
g72
sg22
F132.46685899375007
sg64
g126
sg62
g102
sg49
g50
sS'trials.thisN'
p362
I25
sg19
I1
sg27
g36
(g38
S'\x00\x00\x00\x00\x00\x00\x18@'
tRp363
sg52
g53
sg23
S'1'
sg18
F130.47173716779798
sg33
g34
sg51
g11
sg20
S'1'
sg65
g36
(g77
S'\x00\x00\x00\x00\x00\x00\x00\x00'
tRp364
sg44
g45
sg40
g41
sg25
F0.2607913943938911
sS'trials.thisIndex'
p365
g36
(g80
S'Y\x00\x00\x00'
tRp366
sg26
V5
sS'trials.thisRepN'
p367
I0
sg66
Vtuba
p368
sg63
V../experiment_stimuli/bw_bc_bl/Nonliving_Things/Musical_Inst/tuba_5.jpg
p369
sg21
F1.9745418587699533
sS'trials.thisTrialN'
p370
I25
sa(dp371
g31
g32
sg17
F134.48497893335298
sg24
I0
sg35
g39
sg14
F134.46051553077996
sg16
g36
(g70
S'\x01\x00\x00\x00'
tRp372
sg42
g43
sg46
g47
sg15
g100
sg22
F136.88646976649761
sg64
g88
sg62
g74
sg49
g50
sS'trials.thisN'
p373
I26
sg19
I1
sg27
g36
(g38
S'\x00\x00\x00\x00\x00\x00\x1a@'
tRp374
sg52
g53
sg23
S'2'
sg18
F135.92361514596269
sg33
g34
sg51
g11
sg20
S'1'
sg65
g36
(g77
S'\x00\x00\x00\x00\x00\x00\x00\x00'
tRp375
sg44
g45
sg40
g41
sg25
F0.5915253721177578
sS'trials.thisIndex'
p376
g36
(g80
S'\x10\x00\x00\x00'
tRp377
sg26
V5
sS'trials.thisRepN'
p378
I0
sg66
Vcheetah
p379
sg63
V../experiment_stimuli/bw_bc_bl/Living_Things/Animals/cheetah_1.jpg
p380
sg21
F0.93225452769547701
sS'trials.thisTrialN'
p381
I26
sa(dp382
g31
g32
sg17
F139.2435372271575
sg24
I1
sg35
g39
sg14
F139.2108599874191
sg16
g36
(g70
S'\x01\x00\x00\x00'
tRp383
sg42
g43
sg46
g47
sg15
g72
sg22
F141.887346833013
sg64
VTools
p384
sg62
g102
sg49
g50
sS'trials.thisN'
p385
I27
sg19
I1
sg27
g36
(g38
S'\x00\x00\x00\x00\x00\x00\x18@'
tRp386
sg52
g53
sg23
S'1'
sg18
F140.66393216932192
sg33
g34
sg51
g11
sg20
S'1'
sg65
g36
(g77
S'\x00\x00\x00\x00\x00\x00\x00\x00'
tRp387
sg44
g45
sg40
g41
sg25
F0.18062619911506772
sS'trials.thisIndex'
p388
g36
(g80
S'\x03\x00\x00\x00'
tRp389
sg26
V5
sS'trials.thisRepN'
p390
I0
sg66
Vaxe
p391
sg63
V../experiment_stimuli/bw_bc_bl/Nonliving_Things/Tools/axe_17.jpg
p392
sg21
F1.2028544452041388
sS'trials.thisTrialN'
p393
I27
sa(dp394
g31
g32
sg17
F143.8281440846622
sg24
I0
sg35
g39
sg14
F143.80085972743109
sg16
g36
(g70
S'\x02\x00\x00\x00'
tRp395
sg42
g43
sg46
g47
sg15
g100
sg22
F145.94616890978068
sg64
g205
sg62
g102
sg49
g50
sS'trials.thisN'
p396
I28
sg19
I1
sg27
g36
(g38
S'\x00\x00\x00\x00\x00\x00\x1a@'
tRp397
sg52
g53
sg23
S'3'
sg18
F145.26394486939535
sg33
g34
sg51
g11
sg20
S'2'
sg65
g36
(g77
S'\x00\x00\x00\x00\x00\x00\x00\x00'
tRp398
sg44
g45
sg40
g41
sg25
F0.25076829502359033
sS'trials.thisIndex'
p399
g36
(g80
S'N\x00\x00\x00'
tRp400
sg26
V5
sS'trials.thisRepN'
p401
I0
sg66
Vsofa
p402
sg63
V../experiment_stimuli/bw_bc_bl/Nonliving_Things/Furniture/sofa_19.jpg
p403
sg21
F0.66166996024549007
sS'trials.thisTrialN'
p404
I28
sa(dp405
g31
g32
sg17
F147.95334936166182
sg24
I0
sg35
g39
sg14
F147.92984521202743
sg16
g36
(g70
S'\x02\x00\x00\x00'
tRp406
sg42
g43
sg46
g47
sg15
g100
sg22
F150.08519026776776
sg64
g217
sg62
g102
sg49
g50
sS'trials.thisN'
p407
I29
sg19
I1
sg27
g36
(g38
S'\x00\x00\x00\x00\x00\x00\x1a@'
tRp408
sg52
g53
sg23
S'3'
sg18
F149.36286951135844
sg33
g34
sg51
g11
sg20
S'2'
sg65
g36
(g77
S'\x00\x00\x00\x00\x00\x00\x00\x00'
tRp409
sg44
g45
sg40
g41
sg25
F0.2307237172499299
sS'trials.thisIndex'
p410
g36
(g80
S'\x16\x00\x00\x00'
tRp411
sg26
V5
sS'trials.thisRepN'
p412
I0
sg66
Vcup
p413
sg63
V../experiment_stimuli/bw_bc_bl/Nonliving_Things/Kitchen_Uten/cup_3.jpg
p414
sg21
F0.70175584591925144
sS'trials.thisTrialN'
p415
I29
sa(dp416
g31
g32
sg17
F152.0687801647
sg24
I0
sg35
g39
sg14
F152.04881636798382
sg16
g36
(g70
S'\x01\x00\x00\x00'
tRp417
sg42
g43
sg46
g47
sg15
g72
sg22
F154.80546677717939
sg64
g205
sg62
g102
sg49
g50
sS'trials.thisN'
p418
I30
sg19
I1
sg27
g36
(g38
S'\x00\x00\x00\x00\x00\x00\x18@'
tRp419
sg52
g53
sg23
S'2'
sg18
F153.46179474005476
sg33
g34
sg51
g11
sg20
S'1'
sg65
g36
(g77
S'\x00\x00\x00\x00\x00\x00\x00\x00'
tRp420
sg44
g45
sg40
g41
sg25
F0.20065505523234606
sS'trials.thisIndex'
p421
g36
(g80
S'Q\x00\x00\x00'
tRp422
sg26
V5
sS'trials.thisRepN'
p423
I0
sg66
Vtable
p424
sg63
V../experiment_stimuli/bw_bc_bl/Nonliving_Things/Furniture/table_12.jpg
p425
sg21
F1.3231087806634605
sS'trials.thisTrialN'
p426
I30
sa(dp427
g31
g32
sg17
F156.76851604133844
sg24
I1
sg35
g39
sg14
F156.73903218889609
sg16
g36
(g70
S'\x02\x00\x00\x00'
tRp428
sg42
g43
sg46
g47
sg15
g72
sg22
F162.32185283582658
sg64
g160
sg62
g74
sg49
g50
sS'trials.thisN'
p429
I31
sg19
I1
sg27
g36
(g38
S'\x00\x00\x00\x00\x00\x00\x18@'
tRp430
sg52
g53
sg23
S'1'
sg18
F158.15201356820762
sg33
g34
sg51
g11
sg20
S'2'
sg65
g36
(g77
S'\x00\x00\x00\x00\x00\x00\x00\x00'
tRp431
sg44
g45
sg40
g41
sg25
F1.0324773835018277
sS'trials.thisIndex'
p432
g36
(g80
S'J\x00\x00\x00'
tRp433
sg26
V5
sS'trials.thisRepN'
p434
I0
sg66
Vseagull
p435
sg63
V../experiment_stimuli/bw_bc_bl/Living_Things/Birds/seagull_17.jpg
p436
sg21
F4.1492879847064614
sS'trials.thisTrialN'
p437
I31
sa(dp438
g31
g32
sg17
F165.11269601713866
sg24
I1
sg35
g39
sg14
F165.08720973040909
sg16
g36
(g70
S'\x01\x00\x00\x00'
tRp439
sg42
g43
sg46
g47
sg15
g72
sg22
F168.77590423403308
sg64
g114
sg62
g102
sg49
g50
sS'trials.thisN'
p440
I32
sg19
I1
sg27
g36
(g38
S'\x00\x00\x00\x00\x00\x00\x18@'
tRp441
sg52
g53
sg23
S'1'
sg18
F166.51020398736
sg33
g34
sg51
g11
sg20
S'1'
sg65
g36
(g77
S'\x00\x00\x00\x00\x00\x00\x00\x00'
tRp442
sg44
g45
sg40
g41
sg25
F0.53140741959214211
sS'trials.thisIndex'
p443
g36
(g80
S'\x0c\x00\x00\x00'
tRp444
sg26
V5
sS'trials.thisRepN'
p445
I0
sg66
Vcastle
p446
sg63
V../experiment_stimuli/bw_bc_bl/Nonliving_Things/Buildings/castle_20.jpg
p447
sg21
F2.2451265505515039
sS'trials.thisTrialN'
p448
I32
sa(dp449
g31
g32
sg17
F171.04544799914584
sg24
I1
sg35
g39
sg14
F171.04016474774107
sg16
g36
(g70
S'\x01\x00\x00\x00'
tRp450
sg42
g43
sg46
g47
sg15
g72
sg22
F174.75892703700811
sg64
g384
sg62
g102
sg49
g50
sS'trials.thisN'
p451
I33
sg19
I1
sg27
g36
(g38
S'\x00\x00\x00\x00\x00\x00\x18@'
tRp452
sg52
g53
sg23
S'1'
sg18
F172.46316492930055
sg33
g34
sg51
g11
sg20
S'1'
sg65
g36
(g77
S'\x00\x00\x00\x00\x00\x00\x00\x00'
tRp453
sg44
g45
sg40
g41
sg25
F0.23073189426213503
sS'trials.thisIndex'
p454
g36
(g80
S'%\x00\x00\x00'
tRp455
sg26
V5
sS'trials.thisRepN'
p456
I0
sg66
Vhammer
p457
sg63
V../experiment_stimuli/bw_bc_bl/Nonliving_Things/Tools/hammer_25.jpg
p458
sg21
F2.2751937005668879
sS'trials.thisTrialN'
p459
I33
sa(dp460
g31
g32
sg17
F176.74356333259493
sg24
I0
sg35
g39
sg14
F176.72254248708487
sg16
g36
(g70
S'\x02\x00\x00\x00'
tRp461
sg42
g43
sg46
g47
sg15
g72
sg22
F179.06828690739349
sg64
g160
sg62
g74
sg49
g50
sS'trials.thisN'
p462
I34
sg19
I1
sg27
g36
(g38
S'\x00\x00\x00\x00\x00\x00\x1a@'
tRp463
sg52
g53
sg23
S'2'
sg18
F178.16558228759095
sg33
g34
sg51
g11
sg20
S'2'
sg65
g36
(g77
S'\x00\x00\x00\x00\x00\x00\x00\x00'
tRp464
sg44
g45
sg40
g41
sg25
F0.59151578927412629
sS'trials.thisIndex'
p465
g36
(g80
S'O\x00\x00\x00'
tRp466
sg26
V5
sS'trials.thisRepN'
p467
I0
sg66
Vsparrow
p468
sg63
V../experiment_stimuli/bw_bc_bl/Living_Things/Birds/sparrow_15.jpg
p469
sg21
F0.88215244188904762
sS'trials.thisTrialN'
p470
I34
sa(dp471
g31
g32
sg17
F181.41143266437575
sg24
I0
sg35
g39
sg14
F181.39273239159957
sg16
g36
(g70
S'\x01\x00\x00\x00'
tRp472
sg42
g43
sg46
g47
sg15
g100
sg22
F183.44784745993093
sg64
g160
sg62
g74
sg49
g50
sS'trials.thisN'
p473
I35
sg19
I1
sg27
g36
(g38
S'\x00\x00\x00\x00\x00\x00\x18@'
tRp474
sg52
g53
sg23
S'2'
sg18
F182.82572907069698
sg33
g34
sg51
g11
sg20
S'1'
sg65
g36
(g77
S'\x00\x00\x00\x00\x00\x00\x00\x00'
tRp475
sg44
g45
sg40
g41
sg25
F0.23073472455143929
sS'trials.thisIndex'
p476
g36
(g80
S'8\x00\x00\x00'
tRp477
sg26
V5
sS'trials.thisRepN'
p478
I0
sg66
Vostrich
p479
sg63
V../experiment_stimuli/bw_bc_bl/Living_Things/Birds/ostrich_9.jpg
p480
sg21
F0.60153788886964321
sS'trials.thisTrialN'
p481
I35
sa(dp482
g31
g32
sg17
F185.43302435846999
sg24
I1
sg35
g39
sg14
F185.41145718796179
sg16
g36
(g70
S'\x01\x00\x00\x00'
tRp483
sg42
g43
sg46
g47
sg15
g72
sg22
F187.88750883331522
sg64
g205
sg62
g102
sg49
g50
sS'trials.thisN'
p484
I36
sg19
I1
sg27
g36
(g38
S'\x00\x00\x00\x00\x00\x00\x1a@'
tRp485
sg52
g53
sg23
S'1'
sg18
F186.83446236979216
sg33
g34
sg51
g11
sg20
S'1'
sg65
g36
(g77
S'\x00\x00\x00\x00\x00\x00\x00\x00'
tRp486
sg44
g45
sg40
g41
sg25
F0.1605683695524931
sS'trials.thisIndex'
p487
g36
(g80
S'\x13\x00\x00\x00'
tRp488
sg26
V5
sS'trials.thisRepN'
p489
I0
sg66
Vcouch
p490
sg63
V../experiment_stimuli/bw_bc_bl/Nonliving_Things/Furniture/couch_3.jpg
p491
sg21
F1.032476831227541
sS'trials.thisTrialN'
p492
I36
sa(dp493
g31
g32
sg17
F189.81031642807648
sg24
I1
sg35
g39
sg14
F189.78098299866542
sg16
g36
(g70
S'\x02\x00\x00\x00'
tRp494
sg42
g43
sg46
g47
sg15
g72
sg22
F194.68231792422011
sg64
g160
sg62
g74
sg49
g50
sS'trials.thisN'
p495
I37
sg19
I0
sg27
g36
(g38
S'\x00\x00\x00\x00\x00\x00\x1a@'
tRp496
sg52
g53
sg23
S'1'
sg18
F191.22401924338192
sg33
g34
sg51
g11
sg20
S'1'
sg65
g36
(g77
S'\x00\x00\x00\x00\x00\x00\x00\x00'
tRp497
sg44
g45
sg40
g41
sg25
F0.29085618443787098
sS'trials.thisIndex'
p498
g36
(g80
S'\x04\x00\x00\x00'
tRp499
sg26
V5
sS'trials.thisRepN'
p500
I0
sg66
Vbarn-owl
p501
sg63
V../experiment_stimuli/bw_bc_bl/Living_Things/Birds/barn-owl_1.jpg
p502
sg21
F3.4377225749194622
sS'trials.thisTrialN'
p503
I37
sa(dp504
g31
g32
sg17
F196.7191429072991
sg24
I0
sg35
g39
sg14
F196.70605153311044
sg16
g36
(g70
S'\x02\x00\x00\x00'
tRp505
sg42
g43
sg46
g47
sg15
g72
sg22
F201.5271841622889
sg64
g88
sg62
g74
sg49
g50
sS'trials.thisN'
p506
I38
sg19
I1
sg27
g36
(g38
S'\x00\x00\x00\x00\x00\x00\x1a@'
tRp507
sg52
g53
sg23
S'3'
sg18
F198.14909551804885
sg33
g34
sg51
g11
sg20
S'2'
sg65
g36
(g77
S'\x00\x00\x00\x00\x00\x00\x00\x00'
tRp508
sg44
g45
sg40
g41
sg25
F2.4455618369393051
sS'trials.thisIndex'
p509
g36
(g80
S'(\x00\x00\x00'
tRp510
sg26
V5
sS'trials.thisRepN'
p511
I0
sg66
Vhorse
p512
sg63
V../experiment_stimuli/bw_bc_bl/Living_Things/Animals/horse_18.jpg
p513
sg21
F3.3575378572568297
sS'trials.thisTrialN'
p514
I38
sa(dp515
g31
g32
sg17
F205.72168013872579
sg24
I1
sg35
g39
sg14
F205.70564710022882
sg16
g36
(g70
S'\x01\x00\x00\x00'
tRp516
sg42
g43
sg46
g47
sg15
g100
sg22
F209.27405424136668
sg64
g88
sg62
g74
sg49
g50
sS'trials.thisN'
p517
I39
sg19
I1
sg27
g36
(g38
S'\x00\x00\x00\x00\x00\x00 @'
tRp518
sg52
g53
sg23
S'1'
sg18
F207.12865105597302
sg33
g34
sg51
g11
sg20
S'1'
sg65
g36
(g77
S'\x00\x00\x00\x00\x00\x00\x00\x00'
tRp519
sg44
g45
sg40
g41
sg25
F0.57145988056436181
sS'trials.thisIndex'
p520
g36
(g80
S'T\x00\x00\x00'
tRp521
sg26
V5
sS'trials.thisRepN'
p522
I0
sg66
Vtiger
p523
sg63
V../experiment_stimuli/bw_bc_bl/Living_Things/Animals/tiger_1.jpg
p524
sg21
F2.1248537446372211
sS'trials.thisTrialN'
p525
I39
sa(dp526
g31
g32
sg17
F211.59657540731132
sg24
I1
sg35
g39
sg14
F211.57843437697738
sg16
g36
(g70
S'\x01\x00\x00\x00'
tRp527
sg42
g43
sg46
g47
sg15
g72
sg22
F216.05884559033439
sg64
g205
sg62
g102
sg49
g50
sS'trials.thisN'
p528
I40
sg19
I1
sg27
g36
(g38
S'\x00\x00\x00\x00\x00\x00\x1e@'
tRp529
sg52
g53
sg23
S'1'
sg18
F213.02148202713579
sg33
g34
sg51
g11
sg20
S'1'
sg65
g36
(g77
S'\x00\x00\x00\x00\x00\x00\x00\x00'
tRp530
sg44
g45
sg40
g41
sg25
F0.24075374100357294
sS'trials.thisIndex'
p531
g36
(g80
S'\x05\x00\x00\x00'
tRp532
sg26
V5
sS'trials.thisRepN'
p533
I0
sg66
Vbed
p534
sg63
V../experiment_stimuli/bw_bc_bl/Nonliving_Things/Furniture/bed_17.jpg
p535
sg21
F3.0067861550487578
sS'trials.thisTrialN'
p536
I40
sa(dp537
g31
g32
sg17
F218.05262703960761
sg24
I0
sg35
g39
sg14
F218.03249514708295
sg16
g36
(g70
S'\x02\x00\x00\x00'
tRp538
sg42
g43
sg46
g47
sg15
g72
sg22
F220.03751107677817
sg64
g160
sg62
g74
sg49
g50
sS'trials.thisN'
p539
I41
sg19
I1
sg27
g36
(g38
S'\x00\x00\x00\x00\x00\x00\x1c@'
tRp540
sg52
g53
sg23
S'2'
sg18
F219.48555902810767
sg33
g34
sg51
g11
sg20
S'2'
sg65
g36
(g77
S'\x00\x00\x00\x00\x00\x00\x00\x00'
tRp541
sg44
g45
sg40
g41
sg25
F0.28082946827635169
sS'trials.thisIndex'
p542
g36
(g80
S'9\x00\x00\x00'
tRp543
sg26
V5
sS'trials.thisRepN'
p544
I0
sg66
Vowl
p545
sg63
V../experiment_stimuli/bw_bc_bl/Living_Things/Birds/owl_12.jpg
p546
sg21
F0.5313894241116941
sS'trials.thisTrialN'
p547
I41
sa(dp548
g31
g32
sg17
F222.07395438756794
sg24
I1
sg35
g39
sg14
F222.05124764610082
sg16
g36
(g70
S'\x01\x00\x00\x00'
tRp549
sg42
g43
sg46
g47
sg15
g72
sg22
F224.16648906143382
sg64
g217
sg62
g102
sg49
g50
sS'trials.thisN'
p550
I42
sg19
I1
sg27
g36
(g38
S'\x00\x00\x00\x00\x00\x00\x18@'
tRp551
sg52
g53
sg23
S'1'
sg18
F223.49428104842082
sg33
g34
sg51
g11
sg20
S'1'
sg65
g36
(g77
S'\x00\x00\x00\x00\x00\x00\x00\x00'
tRp552
sg44
g45
sg40
g41
sg25
F0.21069714659824967
sS'trials.thisIndex'
p553
g36
(g80
S'\x1f\x00\x00\x00'
tRp554
sg26
V5
sS'trials.thisRepN'
p555
I0
sg66
Vfrying-pan
p556
sg63
V../experiment_stimuli/bw_bc_bl/Nonliving_Things/Kitchen_Uten/frying-pan_7.jpg
p557
sg21
F0.65164953423663974
sS'trials.thisTrialN'
p558
I42
sa(dp559
g31
g32
sg17
F226.12820697203279
sg24
I1
sg35
g39
sg14
F226.11008622637019
sg16
g36
(g70
S'\x01\x00\x00\x00'
tRp560
sg42
g43
sg46
g47
sg15
g100
sg22
F228.96677507646382
sg64
g88
sg62
g74
sg49
g50
sS'trials.thisN'
p561
I43
sg19
I1
sg27
g36
(g38
S'\x00\x00\x00\x00\x00\x00\x1c@'
tRp562
sg52
g53
sg23
S'1'
sg18
F227.5631447955966
sg33
g34
sg51
g11
sg20
S'1'
sg65
g36
(g77
S'\x00\x00\x00\x00\x00\x00\x00\x00'
tRp563
sg44
g45
sg40
g41
sg25
F0.18062125891447067
sS'trials.thisIndex'
p564
g36
(g80
S'0\x00\x00\x00'
tRp565
sg26
V5
sS'trials.thisRepN'
p566
I0
sg66
Vlioness
p567
sg63
V../experiment_stimuli/bw_bc_bl/Living_Things/Animals/lioness_20.jpg
p568
sg21
F1.3830757942050695
sS'trials.thisTrialN'
p569
I43
sa(dp570
g31
g32
sg17
F230.8928860379383
sg24
I1
sg35
g39
sg14
F230.88046840811148
sg16
g36
(g70
S'\x02\x00\x00\x00'
tRp571
sg42
g43
sg46
g47
sg15
g72
sg22
F233.81749633839354
sg64
g73
sg62
g74
sg49
g50
sS'trials.thisN'
p572
I44
sg19
I1
sg27
g36
(g38
S'\x00\x00\x00\x00\x00\x00\x1a@'
tRp573
sg52
g53
sg23
S'1'
sg18
F232.35357926553115
sg33
g34
sg51
g11
sg20
S'2'
sg65
g36
(g77
S'\x00\x00\x00\x00\x00\x00\x00\x00'
tRp574
sg44
g45
sg40
g41
sg25
F0.28083089319989085
sS'trials.thisIndex'
p575
g36
(g80
S'\x15\x00\x00\x00'
tRp576
sg26
V5
sS'trials.thisRepN'
p577
I0
sg66
Vcrab
p578
sg63
V../experiment_stimuli/bw_bc_bl/Living_Things/Marine_creatures/crab_10.jpg
p579
sg21
F1.4433766165748239
sS'trials.thisTrialN'
p580
I44
sa(dp581
g31
g32
sg17
F235.86260023666546
sg24
I1
sg35
g39
sg14
F235.83124391175807
sg16
g36
(g70
S'\x02\x00\x00\x00'
tRp582
sg42
g43
sg46
g47
sg15
g100
sg22
F239.87069904571399
sg64
g205
sg62
g102
sg49
g50
sS'trials.thisN'
p583
I45
sg19
I1
sg27
g36
(g38
S'\x00\x00\x00\x00\x00\x00\x18@'
tRp584
sg52
g53
sg23
S'1'
sg18
F237.35446803551167
sg33
g34
sg51
g11
sg20
S'2'
sg65
g36
(g77
S'\x00\x00\x00\x00\x00\x00\x00\x00'
tRp585
sg44
g45
sg40
g41
sg25
F1.2729928977787495
sS'trials.thisIndex'
p586
g36
(g80
S'\x1d\x00\x00\x00'
tRp587
sg26
V5
sS'trials.thisRepN'
p588
I0
sg66
Vfilling-cabinet
p589
sg63
V../experiment_stimuli/bw_bc_bl/Nonliving_Things/Furniture/filling-cabinet_7.jpg
p590
sg21
F2.4956749300472438
sS'trials.thisTrialN'
p591
I45
sa(dp592
g31
g32
sg17
F242.8985247076489
sg24
I0
sg35
g39
sg14
F242.87658905237913
sg16
g36
(g70
S'\x01\x00\x00\x00'
tRp593
sg42
g43
sg46
g47
sg15
g100
sg22
F244.99183474574238
sg64
g73
sg62
g74
sg49
g50
sS'trials.thisN'
p594
I46
sg19
I1
sg27
g36
(g38
S'\x00\x00\x00\x00\x00\x00 @'
tRp595
sg52
g53
sg23
S'2'
sg18
F244.41985128074884
sg33
g34
sg51
g11
sg20
S'1'
sg65
g36
(g77
S'\x00\x00\x00\x00\x00\x00\x00\x00'
tRp596
sg44
g45
sg40
g41
sg25
F0.57146195974200964
sS'trials.thisIndex'
p597
g36
(g80
S'+\x00\x00\x00'
tRp598
sg26
V5
sS'trials.thisRepN'
p599
I0
sg66
Vkiller-whale
p600
sg63
V../experiment_stimuli/bw_bc_bl/Living_Things/Marine_creatures/killer-whale_10.jpg
p601
sg21
F0.55142614059150219
sS'trials.thisTrialN'
p602
I46
sa(dp603
g31
g32
sg17
F247.31468908907846
sg24
I0
sg35
g39
sg14
F247.29625147860497
sg16
g36
(g70
S'\x01\x00\x00\x00'
tRp604
sg42
g43
sg46
g47
sg15
g100
sg22
F249.59170321375132
sg64
g160
sg62
g74
sg49
g50
sS'trials.thisN'
p605
I47
sg19
I1
sg27
g36
(g38
S'\x00\x00\x00\x00\x00\x00\x18@'
tRp606
sg52
g53
sg23
S'2'
sg18
F248.82945910049602
sg33
g34
sg51
g11
sg20
S'1'
sg65
g36
(g77
S'\x00\x00\x00\x00\x00\x00\x00\x00'
tRp607
sg44
g45
sg40
g41
sg25
F0.36100897938013077
sS'trials.thisIndex'
p608
g36
(g80
S'&\x00\x00\x00'
tRp609
sg26
V5
sS'trials.thisRepN'
p610
I0
sg66
Vhen
p611
sg63
V../experiment_stimuli/bw_bc_bl/Living_Things/Birds/hen_2.jpg
p612
sg21
F0.7416768753901124
sS'trials.thisTrialN'
p613
I47
sa(dp614
g31
g32
sg17
F251.71384501364082
sg24
I0
sg35
g39
sg14
F251.68577217217535
sg16
g36
(g70
S'\x01\x00\x00\x00'
tRp615
sg42
g43
sg46
g47
sg15
g100
sg22
F254.44240955915302
sg64
g240
sg62
g74
sg49
g50
sS'trials.thisN'
p616
I48
sg19
I1
sg27
g36
(g38
S'\x00\x00\x00\x00\x00\x00\x1a@'
tRp617
sg52
g53
sg23
S'2'
sg18
F253.2190167712979
sg33
g34
sg51
g11
sg20
S'1'
sg65
g36
(g77
S'\x00\x00\x00\x00\x00\x00\x00\x00'
tRp618
sg44
g45
sg40
g41
sg25
F0.83188048237934709
sS'trials.thisIndex'
p619
g36
(g80
S'\x18\x00\x00\x00'
tRp620
sg26
V5
sS'trials.thisRepN'
p621
I0
sg66
Vdragonfly
p622
sg63
V../experiment_stimuli/bw_bc_bl/Living_Things/Insects/dragonfly_24.jpg
p623
sg21
F1.2028435873799026
sS'trials.thisTrialN'
p624
I48
sa(dp625
g31
g32
sg17
F257.03166787559167
sg24
I0
sg35
g39
sg14
F257.00735538080335
sg16
g36
(g70
S'\x01\x00\x00\x00'
tRp626
sg42
g43
sg46
g47
sg15
g72
sg22
F259.6938597727567
sg64
g205
sg62
g102
sg49
g50
sS'trials.thisN'
p627
I49
sg19
I1
sg27
g36
(g38
S'\x00\x00\x00\x00\x00\x00\x1a@'
tRp628
sg52
g53
sg23
S'3'
sg18
F258.53057518508285
sg33
g34
sg51
g11
sg20
S'1'
sg65
g36
(g77
S'\x00\x00\x00\x00\x00\x00\x00\x00'
tRp629
sg44
g45
sg40
g41
sg25
F1.0625413237139583
sS'trials.thisIndex'
p630
g36
(g80
S']\x00\x00\x00'
tRp631
sg26
V5
sS'trials.thisRepN'
p632
I0
sg66
Vwardrobe
p633
sg63
V../experiment_stimuli/bw_bc_bl/Nonliving_Things/Furniture/wardrobe_4.jpg
p634
sg21
F1.1427215416915715
sS'trials.thisTrialN'
p635
I49
sa(dp636
g31
g32
sg17
F262.50545256212354
sg24
I1
sg35
g39
sg14
F262.48928766418248
sg16
g36
(g70
S'\x01\x00\x00\x00'
tRp637
sg42
g43
sg46
g47
sg15
g72
sg22
F268.85382253117859
sg64
g114
sg62
g102
sg49
g50
sS'trials.thisN'
p638
I50
sg19
I1
sg27
g36
(g38
S'\x00\x00\x00\x00\x00\x00\x18@'
tRp639
sg52
g53
sg23
S'1'
sg18
F263.98244912596419
sg33
g34
sg51
g11
sg20
S'1'
sg65
g36
(g77
S'\x00\x00\x00\x00\x00\x00\x00\x00'
tRp640
sg44
g45
sg40
g41
sg25
F0.76188357593491673
sS'trials.thisIndex'
p641
g36
(g80
S'\x1c\x00\x00\x00'
tRp642
sg26
V5
sS'trials.thisRepN'
p643
I0
sg66
Vfactory
p644
sg63
V../experiment_stimuli/bw_bc_bl/Nonliving_Things/Buildings/factory_17.jpg
p645
sg21
F4.8508098591119051
sS'trials.thisTrialN'
p646
I50
sa(dp647
g31
g32
sg17
F271.36209620628506
sg24
I1
sg35
g39
sg14
F271.34857991524041
sg16
g36
(g70
S'\x01\x00\x00\x00'
tRp648
sg42
g43
sg46
g47
sg15
g72
sg22
F273.55404439894482
sg64
g217
sg62
g102
sg49
g50
sS'trials.thisN'
p649
I51
sg19
I1
sg27
g36
(g38
S'\x00\x00\x00\x00\x00\x00\x18@'
tRp650
sg52
g53
sg23
S'1'
sg18
F272.87179799377918
sg33
g34
sg51
g11
sg20
S'1'
sg65
g36
(g77
S'\x00\x00\x00\x00\x00\x00\x00\x00'
tRp651
sg44
g45
sg40
g41
sg25
F0.74208027776330709
sS'trials.thisIndex'
p652
g36
(g80
S'G\x00\x00\x00'
tRp653
sg26
V5
sS'trials.thisRepN'
p654
I0
sg66
Vsaucepan
p655
sg63
V../experiment_stimuli/bw_bc_bl/Nonliving_Things/Kitchen_Uten/saucepan_11.jpg
p656
sg21
F0.66168031003326178
sS'trials.thisTrialN'
p657
I51
sa(dp658
g31
g32
sg17
F276.04994786065072
sg24
I1
sg35
g39
sg14
F276.02878601616248
sg16
g36
(g70
S'\x02\x00\x00\x00'
tRp659
sg42
g43
sg46
g47
sg15
g72
sg22
F280.72965420782566
sg64
g73
sg62
g74
sg49
g50
sS'trials.thisN'
p660
I52
sg19
I0
sg27
g36
(g38
S'\x00\x00\x00\x00\x00\x00\x1c@'
tRp661
sg52
g53
sg23
S'1'
sg18
F277.58205651678145
sg33
g34
sg51
g11
sg20
S'1'
sg65
g36
(g77
S'\x00\x00\x00\x00\x00\x00\x00\x00'
tRp662
sg44
g45
sg40
g41
sg25
F0.23072024341672659
sS'trials.thisIndex'
p663
g36
(g80
S'K\x00\x00\x00'
tRp664
sg26
V5
sS'trials.thisRepN'
p665
I0
sg66
Vshark
p666
sg63
V../experiment_stimuli/bw_bc_bl/Living_Things/Marine_creatures/shark_17.jpg
p667
sg21
F3.1270348331891
sS'trials.thisTrialN'
p668
I52
sa(dp669
g31
g32
sg17
F282.73665722180158
sg24
I0
sg35
g39
sg14
F282.69328154111281
sg16
g36
(g70
S'\x01\x00\x00\x00'
tRp670
sg42
g43
sg46
g47
sg15
g100
sg22
F284.98893140209839
sg64
g160
sg62
g74
sg49
g50
sS'trials.thisN'
p671
I53
sg19
I1
sg27
g36
(g38
S'\x00\x00\x00\x00\x00\x00\x18@'
tRp672
sg52
g53
sg23
S'2'
sg18
F284.29668046953157
sg33
g34
sg51
g11
sg20
S'1'
sg65
g36
(g77
S'\x00\x00\x00\x00\x00\x00\x00\x00'
tRp673
sg44
g45
sg40
g41
sg25
F0.59151066886261106
sS'trials.thisIndex'
p674
g36
(g80
S'<\x00\x00\x00'
tRp675
sg26
V5
sS'trials.thisRepN'
p676
I0
sg66
Vpelican
p677
sg63
V../experiment_stimuli/bw_bc_bl/Living_Things/Birds/pelican_1.jpg
p678
sg21
F0.67168525932356715
sS'trials.thisTrialN'
p679
I53
sa(dp680
g31
g32
sg17
F287.34785836888477
sg24
I1
sg35
g39
sg14
F287.31334813823923
sg16
g36
(g70
S'\x01\x00\x00\x00'
tRp681
sg42
g43
sg46
g47
sg15
g72
sg22
F294.56978671438992
sg64
g205
sg62
g102
sg49
g50
sS'trials.thisN'
p682
I54
sg19
I1
sg27
g36
(g38
S'\x00\x00\x00\x00\x00\x00\x18@'
tRp683
sg52
g53
sg23
S'1'
sg18
F288.9067214182578
sg33
g34
sg51
g11
sg20
S'1'
sg65
g36
(g77
S'\x00\x00\x00\x00\x00\x00\x00\x00'
tRp684
sg44
g45
sg40
g41
sg25
F0.23072151839733124
sS'trials.thisIndex'
p685
g36
(g80
S'E\x00\x00\x00'
tRp686
sg26
V5
sS'trials.thisRepN'
p687
I0
sg66
Vrocking-chair
p688
sg63
V../experiment_stimuli/bw_bc_bl/Nonliving_Things/Furniture/rocking-chair_11.jpg
p689
sg21
F5.6425205320119858
sS'trials.thisTrialN'
p690
I54
sa(dp691
g31
g32
sg17
F296.55303854402155
sg24
I1
sg35
g39
sg14
F296.53343035979196
sg16
g36
(g70
S'\x01\x00\x00\x00'
tRp692
sg42
g43
sg46
g47
sg15
g100
sg22
F298.73887662962079
sg64
g160
sg62
g74
sg49
g50
sS'trials.thisN'
p693
I55
sg19
I1
sg27
g36
(g38
S'\x00\x00\x00\x00\x00\x00\x1c@'
tRp694
sg52
g53
sg23
S'1'
sg18
F298.12679081643
sg33
g34
sg51
g11
sg20
S'1'
sg65
g36
(g77
S'\x00\x00\x00\x00\x00\x00\x00\x00'
tRp695
sg44
g45
sg40
g41
sg25
F0.3710207212716341
sS'trials.thisIndex'
p696
g36
(g80
S'F\x00\x00\x00'
tRp697
sg26
V5
sS'trials.thisRepN'
p698
I0
sg66
Vrooster
p699
sg63
V../experiment_stimuli/bw_bc_bl/Living_Things/Birds/rooster_1.jpg
p700
sg21
F0.59151221392676234
sS'trials.thisTrialN'
p701
I55
sa(dp702
g31
g32
sg17
F300.86608837824315
sg24
I0
sg35
g39
sg14
F300.84280939167365
sg16
g36
(g70
S'\x01\x00\x00\x00'
tRp703
sg42
g43
sg46
g47
sg15
g100
sg22
F303.05827020015568
sg64
g160
sg62
g74
sg49
g50
sS'trials.thisN'
p704
I56
sg19
I1
sg27
g36
(g38
S'\x00\x00\x00\x00\x00\x00\x1a@'
tRp705
sg52
g53
sg23
S'2'
sg18
F302.47626621508971
sg33
g34
sg51
g11
sg20
S'1'
sg65
g36
(g77
S'\x00\x00\x00\x00\x00\x00\x00\x00'
tRp706
sg44
g45
sg40
g41
sg25
F0.40109914680942893
sS'trials.thisIndex'
p707
g36
(g80
S'=\x00\x00\x00'
tRp708
sg26
V5
sS'trials.thisRepN'
p709
I0
sg66
Vpenguin
p710
sg63
V../experiment_stimuli/bw_bc_bl/Living_Things/Birds/penguin_15.jpg
p711
sg21
F0.56145013123750687
sS'trials.thisTrialN'
p712
I56
sa(dp713
g31
g32
sg17
F305.22288662660867
sg24
I0
sg35
g39
sg14
F305.19227261701599
sg16
g36
(g70
S'\x01\x00\x00\x00'
tRp714
sg42
g43
sg46
g47
sg15
g72
sg22
F308.05898686265573
sg64
g101
sg62
g102
sg49
g50
sS'trials.thisN'
p715
I57
sg19
I1
sg27
g36
(g38
S'\x00\x00\x00\x00\x00\x00\x1c@'
tRp716
sg52
g53
sg23
S'2'
sg18
F306.82573745911941
sg33
g34
sg51
g11
sg20
S'1'
sg65
g36
(g77
S'\x00\x00\x00\x00\x00\x00\x00\x00'
tRp717
sg44
g45
sg40
g41
sg25
F0.71177904307842255
sS'trials.thisIndex'
p718
g36
(g80
S'6\x00\x00\x00'
tRp719
sg26
V5
sS'trials.thisRepN'
p720
I0
sg66
Vmotorbike
p721
sg63
V../experiment_stimuli/bw_bc_bl/Nonliving_Things/Vehicles/motorbike_0.jpg
p722
sg21
F1.2127101882360876
sS'trials.thisTrialN'
p723
I57
sa(dp724
g31
g32
sg17
F310.53113881265745
sg24
I1
sg35
g39
sg14
F310.50383763248101
sg16
g36
(g70
S'\x02\x00\x00\x00'
tRp725
sg42
g43
sg46
g47
sg15
g100
sg22
F313.10012836568058
sg64
g114
sg62
g102
sg49
g50
sS'trials.thisN'
p726
I58
sg19
I0
sg27
g36
(g38
S'\x00\x00\x00\x00\x00\x00\x18@'
tRp727
sg52
g53
sg23
S'1'
sg18
F312.11725868983194
sg33
g34
sg51
g11
sg20
S'1'
sg65
g36
(g77
S'\x00\x00\x00\x00\x00\x00\x00\x00'
tRp728
sg44
g45
sg40
g41
sg25
F0.23071790533140302
sS'trials.thisIndex'
p729
g36
(g80
S'\x0e\x00\x00\x00'
tRp730
sg26
V5
sS'trials.thisRepN'
p731
I0
sg66
Vcathedral
p732
sg63
V../experiment_stimuli/bw_bc_bl/Nonliving_Things/Buildings/cathedral_22.jpg
p733
sg21
F0.96232500206679106
sS'trials.thisTrialN'
p734
I58
sa(dp735
g31
g32
sg17
F315.1049690679647
sg24
I0
sg35
g39
sg14
F315.06376978522167
sg16
g36
(g70
S'\x02\x00\x00\x00'
tRp736
sg42
g43
sg46
g47
sg15
g100
sg22
F317.22914482327178
sg64
g205
sg62
g102
sg49
g50
sS'trials.thisN'
p737
I59
sg19
I1
sg27
g36
(g38
S'\x00\x00\x00\x00\x00\x00\x18@'
tRp738
sg52
g53
sg23
S'3'
sg18
F316.71727889310569
sg33
g34
sg51
g11
sg20
S'2'
sg65
g36
(g77
S'\x00\x00\x00\x00\x00\x00\x00\x00'
tRp739
sg44
g45
sg40
g41
sg25
F0.60154455015435815
sS'trials.thisIndex'
p740
g36
(g80
S'.\x00\x00\x00'
tRp741
sg26
V5
sS'trials.thisRepN'
p742
I0
sg66
Vlamp
p743
sg63
V../experiment_stimuli/bw_bc_bl/Nonliving_Things/Furniture/lamp_17.jpg
p744
sg21
F0.49130109092220664
sS'trials.thisTrialN'
p745
I59
sa(dp746
g31
g32
sg17
F319.58649161551148
sg24
I0
sg35
g39
sg14
F319.56357005005702
sg16
g36
(g70
S'\x02\x00\x00\x00'
tRp747
sg42
g43
sg46
g47
sg15
g72
sg22
F322.14985334174708
sg64
g160
sg62
g74
sg49
g50
sS'trials.thisN'
p748
I60
sg19
I1
sg27
g36
(g38
S'\x00\x00\x00\x00\x00\x00\x18@'
tRp749
sg52
g53
sg23
S'2'
sg18
F321.17698069754988
sg33
g34
sg51
g11
sg20
S'2'
sg65
g36
(g77
S'\x00\x00\x00\x00\x00\x00\x00\x00'
tRp750
sg44
g45
sg40
g41
sg25
F0.84189843432977796
sS'trials.thisIndex'
p751
g36
(g80
S'\x1a\x00\x00\x00'
tRp752
sg26
V5
sS'trials.thisRepN'
p753
I0
sg66
Vduck
p754
sg63
V../experiment_stimuli/bw_bc_bl/Living_Things/Birds/duck_24.jpg
p755
sg21
F0.95229887636378407
sS'trials.thisTrialN'
p756
I60
sa(dp757
g31
g32
sg17
F324.76812958717346
sg24
I0
sg35
g39
sg14
F324.72480036085472
sg16
g36
(g70
S'\x02\x00\x00\x00'
tRp758
sg42
g43
sg46
g47
sg15
g72
sg22
F327.29102872498333
sg64
g88
sg62
g74
sg49
g50
sS'trials.thisN'
p759
I61
sg19
I1
sg27
g36
(g38
S'\x00\x00\x00\x00\x00\x00\x18@'
tRp760
sg52
g53
sg23
S'3'
sg18
F326.33822579775006
sg33
g34
sg51
g11
sg20
S'2'
sg65
g36
(g77
S'\x00\x00\x00\x00\x00\x00\x00\x00'
tRp761
sg44
g45
sg40
g41
sg25
F0.51133412774652243
sS'trials.thisIndex'
p762
g36
(g80
S' \x00\x00\x00'
tRp763
sg26
V5
sS'trials.thisRepN'
p764
I0
sg66
Vgiraffe
p765
sg63
V../experiment_stimuli/bw_bc_bl/Living_Things/Animals/giraffe_8.jpg
p766
sg21
F0.93225528346374631
sS'trials.thisTrialN'
p767
I61
sa(dp768
g31
g32
sg17
F329.55165675887838
sg24
I0
sg35
g39
sg14
F329.53527984861284
sg16
g36
(g70
S'\x02\x00\x00\x00'
tRp769
sg42
g43
sg46
g47
sg15
g72
sg22
F332.89326084358618
sg64
g160
sg62
g74
sg49
g50
sS'trials.thisN'
p770
I62
sg19
I0
sg27
g36
(g38
S'\x00\x00\x00\x00\x00\x00\x1a@'
tRp771
sg52
g53
sg23
S'2'
sg18
F331.10861227242276
sg33
g34
sg51
g11
sg20
S'1'
sg65
g36
(g77
S'\x00\x00\x00\x00\x00\x00\x00\x00'
tRp772
sg44
g45
sg40
g41
sg25
F0.20064854389056563
sS'trials.thisIndex'
p773
g36
(g80
S'C\x00\x00\x00'
tRp774
sg26
V5
sS'trials.thisRepN'
p775
I0
sg66
Vraven
p776
sg63
V../experiment_stimuli/bw_bc_bl/Living_Things/Birds/raven_1.jpg
p777
sg21
F1.7640897431410849
sS'trials.thisTrialN'
p778
I62
sa(dp779
g31
g32
sg17
F334.84810173371807
sg24
I1
sg35
g39
sg14
F334.82680049259216
sg16
g36
(g70
S'\x02\x00\x00\x00'
tRp780
sg42
g43
sg46
g47
sg15
g72
sg22
F337.25273170601577
sg64
g73
sg62
g74
sg49
g50
sS'trials.thisN'
p781
I63
sg19
I0
sg27
g36
(g38
S'\x00\x00\x00\x00\x00\x00\x18@'
tRp782
sg52
g53
sg23
S'1'
sg18
F336.39011899754405
sg33
g34
sg51
g11
sg20
S'1'
sg65
g36
(g77
S'\x00\x00\x00\x00\x00\x00\x00\x00'
tRp783
sg44
g45
sg40
g41
sg25
F0.2207032572478056
sS'trials.thisIndex'
p784
g36
(g80
S'1\x00\x00\x00'
tRp785
sg26
V5
sS'trials.thisRepN'
p786
I0
sg66
Vlobster
p787
sg63
V../experiment_stimuli/bw_bc_bl/Living_Things/Marine_creatures/lobster_7.jpg
p788
sg21
F0.84205931285396218
sS'trials.thisTrialN'
p789
I63
sa(dp790
g31
g32
sg17
F339.22917983401567
sg24
I0
sg35
g39
sg14
F339.20633477112278
sg16
g36
(g70
S'\x02\x00\x00\x00'
tRp791
sg42
g43
sg46
g47
sg15
g100
sg22
F341.40160128893331
sg64
g101
sg62
g102
sg49
g50
sS'trials.thisN'
p792
I64
sg19
I1
sg27
g36
(g38
S'\x00\x00\x00\x00\x00\x00\x1a@'
tRp793
sg52
g53
sg23
S'3'
sg18
F340.78969073761255
sg33
g34
sg51
g11
sg20
S'2'
sg65
g36
(g77
S'\x00\x00\x00\x00\x00\x00\x00\x00'
tRp794
sg44
g45
sg40
g41
sg25
F0.60154648590832949
sS'trials.thisIndex'
p795
g36
(g80
S'\t\x00\x00\x00'
tRp796
sg26
V5
sS'trials.thisRepN'
p797
I0
sg66
Vbus
p798
sg63
V../experiment_stimuli/bw_bc_bl/Nonliving_Things/Vehicles/bus_8.jpg
p799
sg21
F0.59135768562555313
sS'trials.thisTrialN'
p800
I64
sa(dp801
g31
g32
sg17
F343.76737431809306
sg24
I0
sg35
g39
sg14
F343.73620002856478
sg16
g36
(g70
S'\x01\x00\x00\x00'
tRp802
sg42
g43
sg46
g47
sg15
g100
sg22
F348.23663005325943
sg64
g73
sg62
g74
sg49
g50
sS'trials.thisN'
p803
I65
sg19
I1
sg27
g36
(g38
S'\x00\x00\x00\x00\x00\x00\x18@'
tRp804
sg52
g53
sg23
S'2'
sg18
F345.28949869377539
sg33
g34
sg51
g11
sg20
S'1'
sg65
g36
(g77
S'\x00\x00\x00\x00\x00\x00\x00\x00'
tRp805
sg44
g45
sg40
g41
sg25
F0.53137566847726703
sS'trials.thisIndex'
p806
g36
(g80
S'P\x00\x00\x00'
tRp807
sg26
V5
sS'trials.thisRepN'
p808
I0
sg66
Vsperm-whale
p809
sg63
V../experiment_stimuli/bw_bc_bl/Living_Things/Marine_creatures/sperm-whale_12.jpg
p810
sg21
F2.9165747296065092
sS'trials.thisTrialN'
p811
I65
sa(dp812
g31
g32
sg17
F350.53062759013847
sg24
I1
sg35
g39
sg14
F350.50092770624906
sg16
g36
(g70
S'\x02\x00\x00\x00'
tRp813
sg42
g43
sg46
g47
sg15
g100
sg22
F356.13387155532837
sg64
g114
sg62
g102
sg49
g50
sS'trials.thisN'
p814
I66
sg19
I1
sg27
g36
(g38
S'\x00\x00\x00\x00\x00\x00\x1a@'
tRp815
sg52
g53
sg23
S'1'
sg18
F352.04420002037659
sg33
g34
sg51
g11
sg20
S'2'
sg65
g36
(g77
S'\x00\x00\x00\x00\x00\x00\x00\x00'
tRp816
sg44
g45
sg40
g41
sg25
F1.4734397260472178
sS'trials.thisIndex'
p817
g36
(g80
S'#\x00\x00\x00'
tRp818
sg26
V5
sS'trials.thisRepN'
p819
I0
sg66
Vgranary
p820
sg63
V../experiment_stimuli/bw_bc_bl/Nonliving_Things/Buildings/granary_9.jpg
p821
sg21
F4.0691009848378599
sS'trials.thisTrialN'
p822
I66
sa(dp823
g31
g32
sg17
F359.36986086098477
sg24
I0
sg35
g39
sg14
F359.34018040914088
sg16
g36
(g70
S'\x02\x00\x00\x00'
tRp824
sg42
g43
sg46
g47
sg15
g100
sg22
F361.63565610675141
sg64
g126
sg62
g102
sg49
g50
sS'trials.thisN'
p825
I67
sg19
I1
sg27
g36
(g38
S'\x00\x00\x00\x00\x00\x00\x1a@'
tRp826
sg52
g53
sg23
S'2'
sg18
F360.89346656715497
sg33
g34
sg51
g11
sg20
S'2'
sg65
g36
(g77
S'\x00\x00\x00\x00\x00\x00\x00\x00'
tRp827
sg44
g45
sg40
g41
sg25
F0.30087888520210981
sS'trials.thisIndex'
p828
g36
(g80
S'\x19\x00\x00\x00'
tRp829
sg26
V5
sS'trials.thisRepN'
p830
I0
sg66
Vdrum
p831
sg63
V../experiment_stimuli/bw_bc_bl/Nonliving_Things/Musical_Inst/drum_25.jpg
p832
sg21
F0.7216436923481524
sS'trials.thisTrialN'
p833
I67
sa(dp834
g31
g32
sg17
F363.69452570611611
sg24
I1
sg35
g39
sg14
F363.66962716914713
sg16
g36
(g70
S'\x01\x00\x00\x00'
tRp835
sg42
g43
sg46
g47
sg15
g72
sg22
F370.50513266539201
sg64
g126
sg62
g102
sg49
g50
sS'trials.thisN'
p836
I68
sg19
I1
sg27
g36
(g38
S'\x00\x00\x00\x00\x00\x00\x18@'
tRp837
sg52
g53
sg23
S'1'
sg18
F365.21286851400509
sg33
g34
sg51
g11
sg20
S'1'
sg65
g36
(g77
S'\x00\x00\x00\x00\x00\x00\x00\x00'
tRp838
sg44
g45
sg40
g41
sg25
F1.0625356510281563
sS'trials.thisIndex'
p839
g36
(g80
S'X\x00\x00\x00'
tRp840
sg26
V5
sS'trials.thisRepN'
p841
I0
sg66
Vtrumpet
p842
sg63
V../experiment_stimuli/bw_bc_bl/Nonliving_Things/Musical_Inst/trumpet_12.jpg
p843
sg21
F5.2717071087099612
sS'trials.thisTrialN'
p844
I68
sa(dp845
g31
g32
sg17
F373.33435452450067
sg24
I1
sg35
g39
sg14
F373.30057869944721
sg16
g36
(g70
S'\x02\x00\x00\x00'
tRp846
sg42
g43
sg46
g47
sg15
g72
sg22
F380.44679168099537
sg64
g88
sg62
g74
sg49
g50
sS'trials.thisN'
p847
I69
sg19
I0
sg27
g36
(g38
S'\x00\x00\x00\x00\x00\x00\x1a@'
tRp848
sg52
g53
sg23
S'1'
sg18
F374.88393588783219
sg33
g34
sg51
g11
sg20
S'1'
sg65
g36
(g77
S'\x00\x00\x00\x00\x00\x00\x00\x00'
tRp849
sg44
g45
sg40
g41
sg25
F0.60154605749994516
sS'trials.thisIndex'
p850
g36
(g80
S'_\x00\x00\x00'
tRp851
sg26
V5
sS'trials.thisRepN'
p852
I0
sg66
Vzebra
p853
sg63
V../experiment_stimuli/bw_bc_bl/Living_Things/Animals/zebra_5.jpg
p854
sg21
F5.5422927928157151
sS'trials.thisTrialN'
p855
I69
sa(dp856
g31
g32
sg17
F382.81501618772745
sg24
I0
sg35
g39
sg14
F382.78121875692159
sg16
g36
(g70
S'\x02\x00\x00\x00'
tRp857
sg42
g43
sg46
g47
sg15
g72
sg22
F385.14699805667624
sg64
g88
sg62
g74
sg49
g50
sS'trials.thisN'
p858
I70
sg19
I1
sg27
g36
(g38
S'\x00\x00\x00\x00\x00\x00\x1a@'
tRp859
sg52
g53
sg23
S'2'
sg18
F384.38462320389226
sg33
g34
sg51
g11
sg20
S'2'
sg65
g36
(g77
S'\x00\x00\x00\x00\x00\x00\x00\x00'
tRp860
sg44
g45
sg40
g41
sg25
F0.82202589977532625
sS'trials.thisIndex'
p861
g36
(g80
S'\r\x00\x00\x00'
tRp862
sg26
V5
sS'trials.thisRepN'
p863
I0
sg66
Vcat
p864
sg63
V../experiment_stimuli/bw_bc_bl/Living_Things/Animals/cat_17.jpg
p865
sg21
F0.7418391932733357
sS'trials.thisTrialN'
p866
I70
sa(dp867
g31
g32
sg17
F387.74275706615299
sg24
I1
sg35
g39
sg14
F387.70193676417693
sg16
g36
(g70
S'\x02\x00\x00\x00'
tRp868
sg42
g43
sg46
g47
sg15
g72
sg22
F392.44292600965127
sg64
g73
sg62
g74
sg49
g50
sS'trials.thisN'
p869
I71
sg19
I0
sg27
g36
(g38
S'\x00\x00\x00\x00\x00\x00 @'
tRp870
sg52
g53
sg23
S'1'
sg18
F389.30533337639645
sg33
g34
sg51
g11
sg20
S'1'
sg65
g36
(g77
S'\x00\x00\x00\x00\x00\x00\x00\x00'
tRp871
sg44
g45
sg40
g41
sg25
F0.2307188524864614
sS'trials.thisIndex'
p872
g36
(g80
S'7\x00\x00\x00'
tRp873
sg26
V5
sS'trials.thisRepN'
p874
I0
sg66
Vnarwhal
p875
sg63
V../experiment_stimuli/bw_bc_bl/Living_Things/Marine_creatures/narwhal_10.jpg
p876
sg21
F3.1170292710885406
sS'trials.thisTrialN'
p877
I71
sa(dp878
g31
g32
sg17
F394.44203526247293
sg24
I1
sg35
g39
sg14
F394.40653801569715
sg16
g36
(g70
S'\x01\x00\x00\x00'
tRp879
sg42
g43
sg46
g47
sg15
g100
sg22
F396.9928000937216
sg64
g88
sg62
g74
sg49
g50
sS'trials.thisN'
p880
I72
sg19
I1
sg27
g36
(g38
S'\x00\x00\x00\x00\x00\x00\x1a@'
tRp881
sg52
g53
sg23
S'1'
sg18
F396.01994912931696
sg33
g34
sg51
g11
sg20
S'1'
sg65
g36
(g77
S'\x00\x00\x00\x00\x00\x00\x00\x00'
tRp882
sg44
g45
sg40
g41
sg25
F0.350999865680933
sS'trials.thisIndex'
p883
g36
(g80
S'\x01\x00\x00\x00'
tRp884
sg26
V5
sS'trials.thisRepN'
p885
I0
sg66
Varmadillo
p886
sg63
V../experiment_stimuli/bw_bc_bl/Living_Things/Animals/armadillo_22.jpg
p887
sg21
F0.94227458955720067
sS'trials.thisTrialN'
p888
I72
sa(dp889
g31
g32
sg17
F399.10078589525074
sg24
I0
sg35
g39
sg14
F399.07670487184078
sg16
g36
(g70
S'\x01\x00\x00\x00'
tRp890
sg42
g43
sg46
g47
sg15
g72
sg22
F401.47257851716131
sg64
g205
sg62
g102
sg49
g50
sS'trials.thisN'
p891
I73
sg19
I1
sg27
g36
(g38
S'\x00\x00\x00\x00\x00\x00\x18@'
tRp892
sg52
g53
sg23
S'2'
sg18
F400.70013844920322
sg33
g34
sg51
g11
sg20
S'1'
sg65
g36
(g77
S'\x00\x00\x00\x00\x00\x00\x00\x00'
tRp893
sg44
g45
sg40
g41
sg25
F0.42114618327468634
sS'trials.thisIndex'
p894
g36
(g80
S'\x0f\x00\x00\x00'
tRp895
sg26
V5
sS'trials.thisRepN'
p896
I0
sg66
Vchair
p897
sg63
V../experiment_stimuli/bw_bc_bl/Nonliving_Things/Furniture/chair_19.jpg
p898
sg21
F0.75186693528667092
sS'trials.thisTrialN'
p899
I73
sa(dp900
g31
g32
sg17
F403.65685155568644
sg24
I0
sg35
g39
sg14
F403.62660893658176
sg16
g36
(g70
S'\x02\x00\x00\x00'
tRp901
sg42
g43
sg46
g47
sg15
g72
sg22
F406.1026720139198
sg64
g73
sg62
g74
sg49
g50
sS'trials.thisN'
p902
I74
sg19
I1
sg27
g36
(g38
S'\x00\x00\x00\x00\x00\x00\x1a@'
tRp903
sg52
g53
sg23
S'2'
sg18
F405.24002631008625
sg33
g34
sg51
g11
sg20
S'2'
sg65
g36
(g77
S'\x00\x00\x00\x00\x00\x00\x00\x00'
tRp904
sg44
g45
sg40
g41
sg25
F0.51135113928467035
sS'trials.thisIndex'
p905
g36
(g80
S'^\x00\x00\x00'
tRp906
sg26
V5
sS'trials.thisRepN'
p907
I0
sg66
Vwhale
p908
sg63
V../experiment_stimuli/bw_bc_bl/Living_Things/Marine_creatures/whale_0.jpg
p909
sg21
F0.84206143254414201
sS'trials.thisTrialN'
p910
I74
sa(dp911
g31
g32
sg17
F408.3805260588415
sg24
I1
sg35
g39
sg14
F408.34688533330336
sg16
g36
(g70
S'\x02\x00\x00\x00'
tRp912
sg42
g43
sg46
g47
sg15
g100
sg22
F413.39857064373791
sg64
g205
sg62
g102
sg49
g50
sS'trials.thisN'
p913
I75
sg19
I1
sg27
g36
(g38
S'\x00\x00\x00\x00\x00\x00\x18@'
tRp914
sg52
g53
sg23
S'1'
sg18
F409.96030207118019
sg33
g34
sg51
g11
sg20
S'2'
sg65
g36
(g77
S'\x00\x00\x00\x00\x00\x00\x00\x00'
tRp915
sg44
g45
sg40
g41
sg25
F0.54140373365953565
sS'trials.thisIndex'
p916
g36
(g80
S'\x02\x00\x00\x00'
tRp917
sg26
V5
sS'trials.thisRepN'
p918
I0
sg66
Varmchair
p919
sg63
V../experiment_stimuli/bw_bc_bl/Nonliving_Things/Furniture/armchair_5.jpg
p920
sg21
F3.4176864554174244
sS'trials.thisTrialN'
p921
I75
sa(dp922
g31
g32
sg17
F415.69005118124187
sg24
I0
sg35
g39
sg14
F415.67284027207643
sg16
g36
(g70
S'\x02\x00\x00\x00'
tRp923
sg42
g43
sg46
g47
sg15
g72
sg22
F418.43950040079653
sg64
g160
sg62
g74
sg49
g50
sS'trials.thisN'
p924
I76
sg19
I1
sg27
g36
(g38
S'\x00\x00\x00\x00\x00\x00\x18@'
tRp925
sg52
g53
sg23
S'2'
sg18
F417.29627914261073
sg33
g34
sg51
g11
sg20
S'2'
sg65
g36
(g77
S'\x00\x00\x00\x00\x00\x00\x00\x00'
tRp926
sg44
g45
sg40
g41
sg25
F0.45121660456061363
sS'trials.thisIndex'
p927
g36
(g80
S';\x00\x00\x00'
tRp928
sg26
V5
sS'trials.thisRepN'
p929
I0
sg66
Vpartridge
p930
sg63
V../experiment_stimuli/bw_bc_bl/Living_Things/Birds/partridge_15.jpg
p931
sg21
F1.1226703096181154
sS'trials.thisTrialN'
p932
I76
sa(dp933
g31
g32
sg17
F420.64705492230132
sg24
I0
sg35
g39
sg14
F420.62362269265577
sg16
g36
(g70
S'\x02\x00\x00\x00'
tRp934
sg42
g43
sg46
g47
sg15
g72
sg22
F424.14191527478397
sg64
g88
sg62
g74
sg49
g50
sS'trials.thisN'
p935
I77
sg19
I1
sg27
g36
(g38
S'\x00\x00\x00\x00\x00\x00\x18@'
tRp936
sg52
g53
sg23
S'3'
sg18
F422.23703649453819
sg33
g34
sg51
g11
sg20
S'2'
sg65
g36
(g77
S'\x00\x00\x00\x00\x00\x00\x00\x00'
tRp937
sg44
g45
sg40
g41
sg25
F0.79194097500294447
sS'trials.thisIndex'
p938
g36
(g80
S'D\x00\x00\x00'
tRp939
sg26
V5
sS'trials.thisRepN'
p940
I0
sg66
Vrhino
p941
sg63
V../experiment_stimuli/bw_bc_bl/Living_Things/Animals/rhino_22.jpg
p942
sg21
F1.8843311131931841
sS'trials.thisTrialN'
p943
I77
sa(dp944
g31
g32
sg17
F426.68437745794654
sg24
I1
sg35
g39
sg14
F426.66680126311257
sg16
g36
(g70
S'\x01\x00\x00\x00'
tRp945
sg42
g43
sg46
g47
sg15
g72
sg22
F431.95894112624228
sg64
g126
sg62
g102
sg49
g50
sS'trials.thisN'
p946
I78
sg19
I1
sg27
g36
(g38
S'\x00\x00\x00\x00\x00\x00\x1c@'
tRp947
sg52
g53
sg23
S'1'
sg18
F428.26014962233603
sg33
g34
sg51
g11
sg20
S'1'
sg65
g36
(g77
S'\x00\x00\x00\x00\x00\x00\x00\x00'
tRp948
sg44
g45
sg40
g41
sg25
F0.29085855232551694
sS'trials.thisIndex'
p949
g36
(g80
S'$\x00\x00\x00'
tRp950
sg26
V5
sS'trials.thisRepN'
p951
I0
sg66
Vguitar
p952
sg63
V../experiment_stimuli/bw_bc_bl/Nonliving_Things/Musical_Inst/guitar_18.jpg
p953
sg21
F3.6782359802164137
sS'trials.thisTrialN'
p954
I78
sa(dp955
g31
g32
sg17
F434.01589351007715
sg24
I1
sg35
g39
sg14
F433.98271148651838
sg16
g36
(g70
S'\x02\x00\x00\x00'
tRp956
sg42
g43
sg46
g47
sg15
g72
sg22
F438.11234684009105
sg64
g88
sg62
g74
sg49
g50
sS'trials.thisN'
p957
I79
sg19
I0
sg27
g36
(g38
S'\x00\x00\x00\x00\x00\x00\x1e@'
tRp958
sg52
g53
sg23
S'1'
sg18
F435.59612570563331
sg33
g34
sg51
g11
sg20
S'1'
sg65
g36
(g77
S'\x00\x00\x00\x00\x00\x00\x00\x00'
tRp959
sg44
g45
sg40
g41
sg25
F2.3252946366555989
sS'trials.thisIndex'
p960
g36
(g80
S'\x1b\x00\x00\x00'
tRp961
sg26
V5
sS'trials.thisRepN'
p962
I0
sg66
Velephant
p963
sg63
V../experiment_stimuli/bw_bc_bl/Living_Things/Animals/elephant_13.jpg
p964
sg21
F2.4956635544076562
sS'trials.thisTrialN'
p965
I79
sa(dp966
g31
g32
sg17
F442.19354456383735
sg24
I1
sg35
g39
sg14
F442.17053975444287
sg16
g36
(g70
S'\x01\x00\x00\x00'
tRp967
sg42
g43
sg46
g47
sg15
g100
sg22
F448.59517115261406
sg64
g88
sg62
g74
sg49
g50
sS'trials.thisN'
p968
I80
sg19
I1
sg27
g36
(g38
S'\x00\x00\x00\x00\x00\x00\x18@'
tRp969
sg52
g53
sg23
S'1'
sg18
F443.78395182313398
sg33
g34
sg51
g11
sg20
S'1'
sg65
g36
(g77
S'\x00\x00\x00\x00\x00\x00\x00\x00'
tRp970
sg44
g45
sg40
g41
sg25
F0.28084914525970817
sS'trials.thisIndex'
p971
g36
(g80
S'\x14\x00\x00\x00'
tRp972
sg26
V5
sS'trials.thisRepN'
p973
I0
sg66
Vcow
p974
sg63
V../experiment_stimuli/bw_bc_bl/Living_Things/Animals/cow_14.jpg
p975
sg21
F4.790659858379513
sS'trials.thisTrialN'
p976
I80
sa(dp977
g31
g32
sg17
F450.62710380088538
sg24
I0
sg35
g39
sg14
F450.60890612052754
sg16
g36
(g70
S'\x02\x00\x00\x00'
tRp978
sg42
g43
sg46
g47
sg15
g100
sg22
F452.94462525006384
sg64
g101
sg62
g102
sg49
g50
sS'trials.thisN'
p979
I81
sg19
I1
sg27
g36
(g38
S'\x00\x00\x00\x00\x00\x00 @'
tRp980
sg52
g53
sg23
S'2'
sg18
F452.24236820312217
sg33
g34
sg51
g11
sg20
S'2'
sg65
g36
(g77
S'\x00\x00\x00\x00\x00\x00\x00\x00'
tRp981
sg44
g45
sg40
g41
sg25
F0.48126757144927979
sS'trials.thisIndex'
p982
g36
(g80
S'@\x00\x00\x00'
tRp983
sg26
V5
sS'trials.thisRepN'
p984
I0
sg66
Vplane
p985
sg63
V../experiment_stimuli/bw_bc_bl/Nonliving_Things/Vehicles/plane_6.jpg
p986
sg21
F0.68171088071539998
sS'trials.thisTrialN'
p987
I81
sa(dp988
g31
g32
sg17
F455.19195599853992
sg24
I1
sg35
g39
sg14
F455.15881959488615
sg16
g36
(g70
S'\x01\x00\x00\x00'
tRp989
sg42
g43
sg46
g47
sg15
g72
sg22
F457.62484046025202
sg64
g126
sg62
g102
sg49
g50
sS'trials.thisN'
p990
I82
sg19
I0
sg27
g36
(g38
S'\x00\x00\x00\x00\x00\x00\x18@'
tRp991
sg52
g53
sg23
S'1'
sg18
F456.80229839729145
sg33
g34
sg51
g11
sg20
S'2'
sg65
g36
(g77
S'\x00\x00\x00\x00\x00\x00\x00\x00'
tRp992
sg44
g45
sg40
g41
sg25
F0.31091644242405891
sS'trials.thisIndex'
p993
g36
(g80
S'H\x00\x00\x00'
tRp994
sg26
V5
sS'trials.thisRepN'
p995
I0
sg66
Vsaxophone
p996
sg63
V../experiment_stimuli/bw_bc_bl/Nonliving_Things/Musical_Inst/saxophone_9.jpg
p997
sg21
F0.80198679538443685
sS'trials.thisTrialN'
p998
I82
sa(dp999
g31
g32
sg17
F459.7057526470162
sg24
I0
sg35
g39
sg14
F459.6686381958425
sg16
g36
(g70
S'\x02\x00\x00\x00'
tRp1000
sg42
g43
sg46
g47
sg15
g100
sg22
F462.16469856584445
sg64
g217
sg62
g102
sg49
g50
sS'trials.thisN'
p1001
I83
sg19
I1
sg27
g36
(g38
S'\x00\x00\x00\x00\x00\x00\x18@'
tRp1002
sg52
g53
sg23
S'2'
sg18
F461.34218783676624
sg33
g34
sg51
g11
sg20
S'2'
sg65
g36
(g77
S'\x00\x00\x00\x00\x00\x00\x00\x00'
tRp1003
sg44
g45
sg40
g41
sg25
F0.24075279012322426
sS'trials.thisIndex'
p1004
g36
(g80
S'S\x00\x00\x00'
tRp1005
sg26
V5
sS'trials.thisRepN'
p1006
I0
sg66
Vteapot
p1007
sg63
V../experiment_stimuli/bw_bc_bl/Nonliving_Things/Kitchen_Uten/teapot_20.jpg
p1008
sg21
F0.80196718312799931
sS'trials.thisTrialN'
p1009
I83
sa(dp1010
g31
g32
sg17
F464.17363614169881
sg24
I1
sg35
g39
sg14
F464.138370399829
sg16
g36
(g70
S'\x02\x00\x00\x00'
tRp1011
sg42
g43
sg46
g47
sg15
g100
sg22
F469.80134552437812
sg64
g114
sg62
g102
sg49
g50
sS'trials.thisN'
p1012
I84
sg19
I0
sg27
g36
(g38
S'\x00\x00\x00\x00\x00\x00\x18@'
tRp1013
sg52
g53
sg23
S'1'
sg18
F465.80189559189603
sg33
g34
sg51
g11
sg20
S'1'
sg65
g36
(g77
S'\x00\x00\x00\x00\x00\x00\x00\x00'
tRp1014
sg44
g45
sg40
g41
sg25
F2.9466458270326257
sS'trials.thisIndex'
p1015
g36
(g80
S'\x11\x00\x00\x00'
tRp1016
sg26
V5
sS'trials.thisRepN'
p1017
I0
sg66
Vchurch
p1018
sg63
V../experiment_stimuli/bw_bc_bl/Nonliving_Things/Buildings/church_26.jpg
p1019
sg21
F3.9788877172395587
sS'trials.thisTrialN'
p1020
I84
sa(dp1021
g31
g32
sg17
F474.51429720642045
sg24
I0
sg35
g39
sg14
F474.48089065914974
sg16
g36
(g70
S'\x02\x00\x00\x00'
tRp1022
sg42
g43
sg46
g47
sg15
g100
sg22
F476.87676508305594
sg64
g101
sg62
g102
sg49
g50
sS'trials.thisN'
p1023
I85
sg19
I1
sg27
g36
(g38
S'\x00\x00\x00\x00\x00\x00\x18@'
tRp1024
sg52
g53
sg23
S'2'
sg18
F476.16445934632793
sg33
g34
sg51
g11
sg20
S'2'
sg65
g36
(g77
S'\x00\x00\x00\x00\x00\x00\x00\x00'
tRp1025
sg44
g45
sg40
g41
sg25
F0.50133109977468848
sS'trials.thisIndex'
p1026
g36
(g80
S'\x07\x00\x00\x00'
tRp1027
sg26
V5
sS'trials.thisRepN'
p1028
I0
sg66
Vboat
p1029
sg63
V../experiment_stimuli/bw_bc_bl/Nonliving_Things/Vehicles/boat_10.jpg
p1030
sg21
F0.69174991175532341
sS'trials.thisTrialN'
p1031
I85
sa(dp1032
g31
g32
sg17
F479.13669628603384
sg24
I1
sg35
g39
sg14
F479.11097265640274
sg16
g36
(g70
S'\x01\x00\x00\x00'
tRp1033
sg42
g43
sg46
g47
sg15
g72
sg22
F482.54909145645797
sg64
g205
sg62
g102
sg49
g50
sS'trials.thisN'
p1034
I86
sg19
I1
sg27
g36
(g38
S'\x00\x00\x00\x00\x00\x00\x18@'
tRp1035
sg52
g53
sg23
S'1'
sg18
F480.79454276105389
sg33
g34
sg51
g11
sg20
S'1'
sg65
g36
(g77
S'\x00\x00\x00\x00\x00\x00\x00\x00'
tRp1036
sg44
g45
sg40
g41
sg25
F0.31089522037655115
sS'trials.thisIndex'
p1037
g36
(g80
S'\x06\x00\x00\x00'
tRp1038
sg26
V5
sS'trials.thisRepN'
p1039
I0
sg66
Vbedside-table
p1040
sg63
V../experiment_stimuli/bw_bc_bl/Nonliving_Things/Furniture/bedside-table_14.jpg
p1041
sg21
F1.73400306282565
sS'trials.thisTrialN'
p1042
I86
sa(dp1043
g31
g32
sg17
F484.61544822715223
sg24
I0
sg35
g39
sg14
F484.59290349204093
sg16
g36
(g70
S'\x02\x00\x00\x00'
tRp1044
sg42
g43
sg46
g47
sg15
g72
sg22
F487.52034146897495
sg64
g73
sg62
g74
sg49
g50
sS'trials.thisN'
p1045
I87
sg19
I1
sg27
g36
(g38
S'\x00\x00\x00\x00\x00\x00\x1c@'
tRp1046
sg52
g53
sg23
S'2'
sg18
F486.28651005635038
sg33
g34
sg51
g11
sg20
S'2'
sg65
g36
(g77
S'\x00\x00\x00\x00\x00\x00\x00\x00'
tRp1047
sg44
g45
sg40
g41
sg25
F0.48127116495743394
sS'trials.thisIndex'
p1048
g36
(g80
S'A\x00\x00\x00'
tRp1049
sg26
V5
sS'trials.thisRepN'
p1050
I0
sg66
Vpomfret
p1051
sg63
V../experiment_stimuli/bw_bc_bl/Living_Things/Marine_creatures/pomfret_0.jpg
p1052
sg21
F1.2128668935038149
sS'trials.thisTrialN'
p1053
I87
sa(dp1054
g31
g32
sg17
F489.75543966470286
sg24
I1
sg35
g39
sg14
F489.73410048428923
sg16
g36
(g70
S'\x02\x00\x00\x00'
tRp1055
sg42
g43
sg46
g47
sg15
g100
sg22
F495.92823389964178
sg64
g101
sg62
g102
sg49
g50
sS'trials.thisN'
p1056
I88
sg19
I0
sg27
g36
(g38
S'\x00\x00\x00\x00\x00\x00\x18@'
tRp1057
sg52
g53
sg23
S'1'
sg18
F491.41768276877701
sg33
g34
sg51
g11
sg20
S'1'
sg65
g36
(g77
S'\x00\x00\x00\x00\x00\x00\x00\x00'
tRp1058
sg44
g45
sg40
g41
sg25
F0.59134986996650696
sS'trials.thisIndex'
p1059
g36
(g80
S'[\x00\x00\x00'
tRp1060
sg26
V5
sS'trials.thisRepN'
p1061
I0
sg66
Vvan
p1062
sg63
V../experiment_stimuli/bw_bc_bl/Nonliving_Things/Vehicles/van_7.jpg
p1063
sg21
F4.4900066633708775
sS'trials.thisTrialN'
p1064
I88
sa(dp1065
g31
g32
sg17
F498.30444760527462
sg24
I1
sg35
g39
sg14
F498.27269912324846
sg16
g36
(g70
S'\x01\x00\x00\x00'
tRp1066
sg42
g43
sg46
g47
sg15
g100
sg22
F500.60843717353418
sg64
g160
sg62
g74
sg49
g50
sS'trials.thisN'
p1067
I89
sg19
I1
sg27
g36
(g38
S'\x00\x00\x00\x00\x00\x00\x1c@'
tRp1068
sg52
g53
sg23
S'1'
sg18
F499.99634857149795
sg33
g34
sg51
g11
sg20
S'1'
sg65
g36
(g77
S'\x00\x00\x00\x00\x00\x00\x00\x00'
tRp1069
sg44
g45
sg40
g41
sg25
F0.51133509026840329
sS'trials.thisIndex'
p1070
g36
(g80
S'?\x00\x00\x00'
tRp1071
sg26
V5
sS'trials.thisRepN'
p1072
I0
sg66
Vpigeon
p1073
sg63
V../experiment_stimuli/bw_bc_bl/Living_Things/Birds/pigeon_6.jpg
p1074
sg21
F0.59153047716245055
sS'trials.thisTrialN'
p1075
I89
sa(dp1076
g31
g32
sg17
F502.87941908137873
sg24
I0
sg35
g39
sg14
F502.85267815086991
sg16
g36
(g70
S'\x01\x00\x00\x00'
tRp1077
sg42
g43
sg46
g47
sg15
g72
sg22
F505.87992482632399
sg64
g217
sg62
g102
sg49
g50
sS'trials.thisN'
p1078
I90
sg19
I1
sg27
g36
(g38
S'\x00\x00\x00\x00\x00\x00\x18@'
tRp1079
sg52
g53
sg23
S'2'
sg18
F504.58634551055729
sg33
g34
sg51
g11
sg20
S'1'
sg65
g36
(g77
S'\x00\x00\x00\x00\x00\x00\x00\x00'
tRp1080
sg44
g45
sg40
g41
sg25
F1.0725638209842145
sS'trials.thisIndex'
p1081
g36
(g80
S'M\x00\x00\x00'
tRp1082
sg26
V5
sS'trials.thisRepN'
p1083
I0
sg66
Vsmall-saucepan
p1084
sg63
V../experiment_stimuli/bw_bc_bl/Nonliving_Things/Kitchen_Uten/small-saucepan_1.jpg
p1085
sg21
F1.2730050780810416
sS'trials.thisTrialN'
p1086
I90
sa(dp1087
g31
g32
sg17
F508.71929517807439
sg24
I1
sg35
g39
sg14
F508.69541675411165
sg16
g36
(g70
S'\x02\x00\x00\x00'
tRp1088
sg42
g43
sg46
g47
sg15
g72
sg22
F518.76799096539617
sg64
g88
sg62
g74
sg49
g50
sS'trials.thisN'
p1089
I91
sg19
I0
sg27
g36
(g38
S'\x00\x00\x00\x00\x00\x00\x1c@'
tRp1090
sg52
g53
sg23
S'1'
sg18
F510.4090248667635
sg33
g34
sg51
g11
sg20
S'1'
sg65
g36
(g77
S'\x00\x00\x00\x00\x00\x00\x00\x00'
tRp1091
sg44
g45
sg40
g41
sg25
F0.79194378294050694
sS'trials.thisIndex'
p1092
g36
(g80
S'2\x00\x00\x00'
tRp1093
sg26
V5
sS'trials.thisRepN'
p1094
I0
sg66
Vlynx
p1095
sg63
V../experiment_stimuli/bw_bc_bl/Living_Things/Animals/lynx_19.jpg
p1096
sg21
F8.3384008118882775
sS'trials.thisTrialN'
p1097
I91
sa(dp1098
g31
g32
sg17
F521.33118512900546
sg24
I0
sg35
g39
sg14
F521.30285759130493
sg16
g36
(g70
S'\x01\x00\x00\x00'
tRp1099
sg42
g43
sg46
g47
sg15
g100
sg22
F523.70871273474768
sg64
g240
sg62
g74
sg49
g50
sS'trials.thisN'
p1100
I92
sg19
I1
sg27
g36
(g38
S'\x00\x00\x00\x00\x00\x00\x18@'
tRp1101
sg52
g53
sg23
S'2'
sg18
F523.02650870895013
sg33
g34
sg51
g11
sg20
S'1'
sg65
g36
(g77
S'\x00\x00\x00\x00\x00\x00\x00\x00'
tRp1102
sg44
g45
sg40
g41
sg25
F0.48126827785745263
sS'trials.thisIndex'
p1103
g36
(g80
S'I\x00\x00\x00'
tRp1104
sg26
V5
sS'trials.thisRepN'
p1105
I0
sg66
Vscorpion
p1106
sg63
V../experiment_stimuli/bw_bc_bl/Living_Things/Insects/scorpion_26.jpg
p1107
sg21
F0.66166679514572024
sS'trials.thisTrialN'
p1108
I92
sa(dp1109
g31
g32
sg17
F525.94812494795769
sg24
I0
sg35
g39
sg14
F525.93292075768113
sg16
g36
(g70
S'\x01\x00\x00\x00'
tRp1110
sg42
g43
sg46
g47
sg15
g72
sg22
F528.37892363872379
sg64
g217
sg62
g102
sg49
g50
sS'trials.thisN'
p1111
I93
sg19
I1
sg27
g36
(g38
S'\x00\x00\x00\x00\x00\x00\x18@'
tRp1112
sg52
g53
sg23
S'2'
sg18
F527.63654105644673
sg33
g34
sg51
g11
sg20
S'1'
sg65
g36
(g77
S'\x00\x00\x00\x00\x00\x00\x00\x00'
tRp1113
sg44
g45
sg40
g41
sg25
F0.4311732710339129
sS'trials.thisIndex'
p1114
g36
(g80
S'B\x00\x00\x00'
tRp1115
sg26
V5
sS'trials.thisRepN'
p1116
I0
sg66
Vpot
p1117
sg63
V../experiment_stimuli/bw_bc_bl/Nonliving_Things/Kitchen_Uten/pot_6.jpg
p1118
sg21
F0.72180648380890489
sS'trials.thisTrialN'
p1119
I93
sa(dp1120
g31
g32
sg17
F530.56482481397688
sg24
I0
sg35
g39
sg14
F530.54296424426138
sg16
g36
(g70
S'\x02\x00\x00\x00'
tRp1121
sg42
g43
sg46
g47
sg15
g100
sg22
F532.76847232459113
sg64
g101
sg62
g102
sg49
g50
sS'trials.thisN'
p1122
I94
sg19
I1
sg27
g36
(g38
S'\x00\x00\x00\x00\x00\x00 @'
tRp1123
sg52
g53
sg23
S'2'
sg18
F532.2365612979047
sg33
g34
sg51
g11
sg20
S'2'
sg65
g36
(g77
S'\x00\x00\x00\x00\x00\x00\x00\x00'
tRp1124
sg44
g45
sg40
g41
sg25
F0.48126640170812607
sS'trials.thisIndex'
p1125
g36
(g80
S'V\x00\x00\x00'
tRp1126
sg26
V5
sS'trials.thisRepN'
p1127
I0
sg66
Vtractor
p1128
sg63
V../experiment_stimuli/bw_bc_bl/Nonliving_Things/Vehicles/tractor_3.jpg
p1129
sg21
F0.51136075565591455
sS'trials.thisTrialN'
p1130
I94
sa(dp1131
g31
g32
sg17
F535.01448450842872
sg24
I1
sg35
g39
sg14
F534.98262815875933
sg16
g36
(g70
S'\x01\x00\x00\x00'
tRp1132
sg42
g43
sg46
g47
sg15
g100
sg22
F544.53407796379179
sg64
g160
sg62
g74
sg49
g50
sS'trials.thisN'
p1133
I95
sg19
I1
sg27
g36
(g38
S'\x00\x00\x00\x00\x00\x00\x1a@'
tRp1134
sg52
g53
sg23
S'1'
sg18
F536.67622211063281
sg33
g34
sg51
g11
sg20
S'1'
sg65
g36
(g77
S'\x00\x00\x00\x00\x00\x00\x00\x00'
tRp1135
sg44
g45
sg40
g41
sg25
F0.741834313608706
sS'trials.thisIndex'
p1136
g36
(g80
S'"\x00\x00\x00'
tRp1137
sg26
V5
sS'trials.thisRepN'
p1138
I0
sg66
Vgoose
p1139
sg63
V../experiment_stimuli/bw_bc_bl/Living_Things/Birds/goose_5.jpg
p1140
sg21
F7.8372946796007454
sS'trials.thisTrialN'
p1141
I95
sasS'loops'
p1142
(lp1143
g1
(cpsychopy.data
TrialHandler
p1144
g3
NtRp1145
(dp1146
S'origin'
p1147
NsS'thisTrial'
p1148
(lp1149
sS'_exp'
p1150
I97317136
sg10
S'trials'
p1151
sg6
I-1
sS'thisRepN'
p1152
I1
sg28
I01
sg29
g30
sS'data'
p1153
g1
(cpsychopy.data
DataHandler
p1154
c__builtin__
dict
p1155
(dp1156
g20
cnumpy.core.multiarray
_reconstruct
p1157
(cnumpy
ndarray
p1158
(I0
tS'b'
tRp1159
(I1
(I96
I1
tg37
(S'O4'
I0
I1
tRp1160
(I3
S'|'
NNNI-1
I-1
I63
tbI00
(lp1161
S'1'
aS'1'
aS'2'
aS'1'
aS'1'
aS'1'
aS'1'
aS'2'
aS'2'
aS'2'
aS'2'
aS'2'
aS'1'
aS'2'
aS'1'
aS'1'
aS'1'
aS'1'
aS'2'
aS'1'
aS'1'
aS'2'
aS'2'
aS'2'
aS'1'
aS'2'
aS'2'
aS'1'
aS'1'
aS'2'
aS'1'
aS'1'
aS'2'
aS'1'
aS'1'
aS'2'
aS'1'
aS'1'
aS'1'
aS'2'
aS'2'
aS'1'
aS'2'
aS'1'
aS'1'
aS'1'
aS'2'
aS'2'
aS'1'
aS'1'
aS'1'
aS'1'
aS'2'
aS'2'
aS'1'
aS'1'
aS'1'
aS'2'
aS'1'
aS'2'
aS'1'
aS'1'
aS'1'
aS'1'
aS'2'
aS'2'
aS'1'
aS'1'
aS'2'
aS'1'
aS'1'
aS'1'
aS'2'
aS'1'
aS'2'
aS'1'
aS'2'
aS'1'
aS'2'
aS'2'
aS'1'
aS'1'
aS'2'
aS'2'
aS'1'
aS'2'
aS'2'
aS'2'
aS'1'
aS'1'
aS'1'
aS'1'
aS'1'
aS'1'
aS'2'
aS'1'
atbsg17
cnumpy.ma.core
_mareconstruct
p1162
(cnumpy.ma.core
MaskedArray
p1163
g1158
(I0
tp1164
S'b'
tRp1165
(I1
(I96
I1
tg37
(S'f4'
I0
I1
tRp1166
(I3
S'<'
NNNI-1
I-1
I0
tbI00
S'\x07{\xf9B\x958\xc5C\xb50\xccCX>\x0bCq\xcf=C\xb9\x98SC\x7f\x91\xefC\xd4A\xedC\x9cx\x8fBV\x9d\xa9C\xe1\x01\xc1B\xed\xcf\xadB\xda\x1c%CRh\xbfC\xfcC\x9bC\xe7\x8c\xc7C(|\x06C:\x16\xe8C<\r\xd2B\xdbn9C\xc6\x18\xddC\x94\xe4fC\x0f\xf4\x13Cd\xd3fB\xbf\xb6{CX\xaf\xb3C\x12\xcb\x9fC\t\x02\xd9C\xb3@\x83C\xd3\xdckC\x96\xb3\x85B\xef\x12^CRb\xa2C\x16_\xe7B\xed\xc0\x05D\xecC\xafC\x9aW\xd5C\xa2\x0b+C\x8fPwC\xe1~FA\x1a\xb8DCl\x1f\xaeA\x93\x831B\x06\xe6rC\x91\xe5\xc9B\xf1\xf4\x99Bp\x8d\x9dC \xfcvB\xd2 bC\x8fl\xa7C\x12\\\xfeC\x1f\xf5\xf0B\xf1Zr@\x97:WB\x88\x9c\x98C\x13\xdf\xc1CTi5Cy\rZC\x1fS\xdbBT\xd8\xcfCK^\x8dC\xdcn\x96C\xe1\xd1BB\xf8&\xf9CEP\xe1C\xc7N\xf2C\xae|\x03D\x9d\xc6\xa4C\xd3R\xd2C\x87\xac\x8fC\xcaF\x94CY\xae\x87C\x92\x98\xe3C2U\x02D\xbd\xc4\x1cCe\x06\x8aC\xcdX\x1eB\x91p\xfbC\x01\xd4\x0fCZ\xbe0C9\xe2\xabC\x9c\x11\x18C\x98\x97\x08BV\xda\xe5C\xc0\xb8MC\x1cT\xa4B&\xa4\x04D\xea\xf7\x8cA\xe6\xd8\xb5C\xd1\x0e\x01C{\x8f\xb8B\xb2\xe0\xf4C\x1ct\xdcA\x0e\x84\x80C\x14\xd4\xc9C\xcc\xaa\xbaC'
S'\x00\x00\x00\x00\x00\x00\x00\x00\x00\x00\x00\x00\x00\x00\x00\x00\x00\x00\x00\x00\x00\x00\x00\x00\x00\x00\x00\x00\x00\x00\x00\x00\x00\x00\x00\x00\x00\x00\x00\x00\x00\x00\x00\x00\x00\x00\x00\x00\x00\x00\x00\x00\x00\x00\x00\x00\x00\x00\x00\x00\x00\x00\x00\x00\x00\x00\x00\x00\x00\x00\x00\x00\x00\x00\x00\x00\x00\x00\x00\x00\x00\x00\x00\x00\x00\x00\x00\x00\x00\x00\x00\x00\x00\x00\x00\x00'
NtbsS'ran'
p1167
g1162
(g1163
g1158
g1164
S'b'
tRp1168
(I1
(I96
I1
tg1166
I00
S'\x00\x00\x80?\x00\x00\x80?\x00\x00\x80?\x00\x00\x80?\x00\x00\x80?\x00\x00\x80?\x00\x00\x80?\x00\x00\x80?\x00\x00\x80?\x00\x00\x80?\x00\x00\x80?\x00\x00\x80?\x00\x00\x80?\x00\x00\x80?\x00\x00\x80?\x00\x00\x80?\x00\x00\x80?\x00\x00\x80?\x00\x00\x80?\x00\x00\x80?\x00\x00\x80?\x00\x00\x80?\x00\x00\x80?\x00\x00\x80?\x00\x00\x80?\x00\x00\x80?\x00\x00\x80?\x00\x00\x80?\x00\x00\x80?\x00\x00\x80?\x00\x00\x80?\x00\x00\x80?\x00\x00\x80?\x00\x00\x80?\x00\x00\x80?\x00\x00\x80?\x00\x00\x80?\x00\x00\x80?\x00\x00\x80?\x00\x00\x80?\x00\x00\x80?\x00\x00\x80?\x00\x00\x80?\x00\x00\x80?\x00\x00\x80?\x00\x00\x80?\x00\x00\x80?\x00\x00\x80?\x00\x00\x80?\x00\x00\x80?\x00\x00\x80?\x00\x00\x80?\x00\x00\x80?\x00\x00\x80?\x00\x00\x80?\x00\x00\x80?\x00\x00\x80?\x00\x00\x80?\x00\x00\x80?\x00\x00\x80?\x00\x00\x80?\x00\x00\x80?\x00\x00\x80?\x00\x00\x80?\x00\x00\x80?\x00\x00\x80?\x00\x00\x80?\x00\x00\x80?\x00\x00\x80?\x00\x00\x80?\x00\x00\x80?\x00\x00\x80?\x00\x00\x80?\x00\x00\x80?\x00\x00\x80?\x00\x00\x80?\x00\x00\x80?\x00\x00\x80?\x00\x00\x80?\x00\x00\x80?\x00\x00\x80?\x00\x00\x80?\x00\x00\x80?\x00\x00\x80?\x00\x00\x80?\x00\x00\x80?\x00\x00\x80?\x00\x00\x80?\x00\x00\x80?\x00\x00\x80?\x00\x00\x80?\x00\x00\x80?\x00\x00\x80?\x00\x00\x80?\x00\x00\x80?\x00\x00\x80?'
S'\x00\x00\x00\x00\x00\x00\x00\x00\x00\x00\x00\x00\x00\x00\x00\x00\x00\x00\x00\x00\x00\x00\x00\x00\x00\x00\x00\x00\x00\x00\x00\x00\x00\x00\x00\x00\x00\x00\x00\x00\x00\x00\x00\x00\x00\x00\x00\x00\x00\x00\x00\x00\x00\x00\x00\x00\x00\x00\x00\x00\x00\x00\x00\x00\x00\x00\x00\x00\x00\x00\x00\x00\x00\x00\x00\x00\x00\x00\x00\x00\x00\x00\x00\x00\x00\x00\x00\x00\x00\x00\x00\x00\x00\x00\x00\x00'
Ntbsg24
g1162
(g1163
g1158
g1164
S'b'
tRp1169
(I1
(I96
I1
tg1166
I00
S'\x00\x00\x80?\x00\x00\x80?\x00\x00\x80?\x00\x00\x80?\x00\x00\x80?\x00\x00\x80?\x00\x00\x80?\x00\x00\x00\x00\x00\x00\x80?\x00\x00\x00\x00\x00\x00\x00\x00\x00\x00\x00\x00\x00\x00\x80?\x00\x00\x00\x00\x00\x00\x80?\x00\x00\x00\x00\x00\x00\x00\x00\x00\x00\x80?\x00\x00\x00\x00\x00\x00\x80?\x00\x00\x80?\x00\x00\x80?\x00\x00\x00\x00\x00\x00\x80?\x00\x00\x00\x00\x00\x00\x00\x00\x00\x00\x00\x00\x00\x00\x80?\x00\x00\x80?\x00\x00\x80?\x00\x00\x80?\x00\x00\x80?\x00\x00\x00\x00\x00\x00\x80?\x00\x00\x80?\x00\x00\x80?\x00\x00\x80?\x00\x00\x80?\x00\x00\x00\x00\x00\x00\x80?\x00\x00\x00\x00\x00\x00\x80?\x00\x00\x80?\x00\x00\x00\x00\x00\x00\x00\x00\x00\x00\x80?\x00\x00\x00\x00\x00\x00\x00\x00\x00\x00\x80?\x00\x00\x80?\x00\x00\x80?\x00\x00\x00\x00\x00\x00\x00\x00\x00\x00\x80?\x00\x00\x00\x00\x00\x00\x80?\x00\x00\x00\x00\x00\x00\x00\x00\x00\x00\x80?\x00\x00\x00\x00\x00\x00\x00\x00\x00\x00\x00\x00\x00\x00\x00\x00\x00\x00\x80?\x00\x00\x00\x00\x00\x00\x00\x00\x00\x00\x00\x00\x00\x00\x00\x00\x00\x00\x00\x00\x00\x00\x80?\x00\x00\x80?\x00\x00\x80?\x00\x00\x80?\x00\x00\x00\x00\x00\x00\x80?\x00\x00\x80?\x00\x00\x80?\x00\x00\x00\x00\x00\x00\x00\x00\x00\x00\x00\x00\x00\x00\x00\x00\x00\x00\x00\x00\x00\x00\x80?\x00\x00\x00\x00\x00\x00\x80?\x00\x00\x80?\x00\x00\x00\x00\x00\x00\x80?\x00\x00\x80?\x00\x00\x80?\x00\x00\x00\x00\x00\x00\x80?\x00\x00\x80?\x00\x00\x00\x00\x00\x00\x00\x00\x00\x00\x80?'
S'\x00\x00\x00\x00\x00\x00\x00\x00\x00\x00\x00\x00\x00\x00\x00\x00\x00\x00\x00\x00\x00\x00\x00\x00\x00\x00\x00\x00\x00\x00\x00\x00\x00\x00\x00\x00\x00\x00\x00\x00\x00\x00\x00\x00\x00\x00\x00\x00\x00\x00\x00\x00\x00\x00\x00\x00\x00\x00\x00\x00\x00\x00\x00\x00\x00\x00\x00\x00\x00\x00\x00\x00\x00\x00\x00\x00\x00\x00\x00\x00\x00\x00\x00\x00\x00\x00\x00\x00\x00\x00\x00\x00\x00\x00\x00\x00'
Ntbsg14
g1162
(g1163
g1158
g1164
S'b'
tRp1170
(I1
(I96
I1
tg1166
I00
S'ku\xf9B\t4\xc5Cg,\xccC\xfb5\x0bC\xef\xc7=C\x14\x94SC4\x8e\xefC\x8e=\xedC\x84m\x8fBi\x9a\xa9C\xc7\xf9\xc0B\xfb\xc0\xadBS\x16%C\xffc\xbfC~@\x9bC\xd1\x89\xc7C\xe4u\x06C\xb6\x11\xe8CF\x03\xd2BUi9C\xd4\x15\xddCf\xe1fC\n\xee\x13C\xc1\xbbfB\x8f\xaf{C\x8b\xab\xb3C#\xc8\x9fC\xc9\xfd\xd8C\xa1>\x83C\xcc\xd4kC\xa5\xaa\x85B\x1f\r^C\xc6\\\xa2C\xf8[\xe7B\xe3\xbe\x05D\x1e@\xafCZU\xd5CH\n+C\xd7KwC\xd7\'FA\xc0\xb4DC\xfb\xf5\xadA\xd6j1Bh\xe0rC\xc0\xd5\xc9B\x1f\xe9\x99B*\x88\x9dC{\xe3vB/\x1cbC\xd5i\xa7C\x03Y\xfeC\x8a\xeb\xf0B$\x19o@\xb3#WB\x9c\x98\x98C\xd9\xd9\xc1C\x8ad5CR\x08ZC\xbe@\xdbB \xd6\xcfC\xbdX\x8dC\xe1k\x96C*\xbcBB\xe8"\xf9C\xf1M\xe1C\xe4K\xf2C\xb5{\x03D\x84\xc4\xa4C\xd3O\xd2C\x1c\xa8\x8fCGD\x94C\x9e\xac\x87CT\x94\xe3CbS\x02D1\xbd\x1cC\xaf\x03\x8aC+7\x1eB%m\xfbC\x05\xcd\x0fC\xf9\xb80C<\xde\xabC\x7f\x0c\x18C\xfa|\x08B\x96\xd5\xe5C\xa5\xb4MC\x11K\xa4B\xc0\xa2\x04D;\xb0\x8cA\xb6\xd5\xb5C\xc8\x04\x01Ck\x84\xb8B\xf7\xdd\xf4C>M\xdcA\xf1\x80\x80C5\xd0\xc9Cy\xa6\xbaC'
S'\x00\x00\x00\x00\x00\x00\x00\x00\x00\x00\x00\x00\x00\x00\x00\x00\x00\x00\x00\x00\x00\x00\x00\x00\x00\x00\x00\x00\x00\x00\x00\x00\x00\x00\x00\x00\x00\x00\x00\x00\x00\x00\x00\x00\x00\x00\x00\x00\x00\x00\x00\x00\x00\x00\x00\x00\x00\x00\x00\x00\x00\x00\x00\x00\x00\x00\x00\x00\x00\x00\x00\x00\x00\x00\x00\x00\x00\x00\x00\x00\x00\x00\x00\x00\x00\x00\x00\x00\x00\x00\x00\x00\x00\x00\x00\x00'
Ntbsg16
g1157
(g1158
(I0
tS'b'
tRp1171
(I1
(I96
I1
tg1160
I00
(lp1172
g350
ag879
ag912
ag383
ag494
ag527
ag1033
ag1022
ag228
ag791
ag284
ag262
ag439
ag857
ag725
ag890
ag372
ag1011
ag306
ag483
ag967
ag571
ag406
ag193
ag615
ag824
ag747
ag956
ag637
ag582
ag216
ag549
ag758
ag328
ag1132
ag813
ag945
ag450
ag604
ag87
ag505
ag113
ag159
ag593
ag295
ag239
ag736
ag204
ag560
ag780
ag1088
ag339
ag71
ag182
ag714
ag868
ag472
ag538
ag317
ag923
ag670
ag703
ag171
ag1066
ag978
ag1044
ag1110
ag769
ag934
ag681
ag692
ag648
ag989
ag1099
ag428
ag659
ag148
ag1077
ag395
ag461
ag802
ag417
ag137
ag1000
ag516
ag251
ag1121
ag99
ag835
ag361
ag273
ag1055
ag125
ag626
ag901
ag846
atbsg15
g1157
(g1158
(I0
tS'b'
tRp1173
(I1
(I96
I1
tg1160
I00
(lp1174
g72
ag100
ag100
ag72
ag72
ag72
ag72
ag100
ag100
ag100
ag72
ag100
ag72
ag72
ag100
ag72
ag100
ag100
ag72
ag72
ag100
ag72
ag100
ag72
ag100
ag100
ag72
ag72
ag72
ag100
ag72
ag72
ag72
ag72
ag100
ag100
ag72
ag72
ag100
ag72
ag72
ag72
ag72
ag100
ag100
ag72
ag100
ag100
ag100
ag72
ag72
ag100
ag72
ag100
ag72
ag72
ag100
ag72
ag100
ag72
ag100
ag100
ag72
ag100
ag100
ag72
ag72
ag72
ag72
ag72
ag100
ag72
ag72
ag100
ag72
ag72
ag100
ag72
ag100
ag72
ag100
ag72
ag100
ag100
ag100
ag100
ag100
ag100
ag72
ag72
ag100
ag100
ag72
ag72
ag72
ag72
atbsg22
g1162
(g1163
g1158
g1164
S'b'
tRp1175
(I1
(I96
I1
tg1166
I00
S'\xdf5\xfeB\x14\x7f\xc6C\x04\xb3\xceC)\xe3\rC\xac\xaeBC\x11\x0fXCIF\xf1C:p\xeeC)\xbe\x95Bh\xb3\xaaC\xd9\xd3\xc5BBx\xb4B\xa2\xc6(C\xd1\x92\xc0C\xd1\x8c\x9cC}\xbc\xc8C\xf0\xe2\x08C\x92\xe6\xeaC\x81\x95\xd6B4\xe3;C/L\xe0CG\xd1iC\xcf\x15\x16C\x06<oBBq~C]\xd1\xb4C.\x13\xa1Ca\x0e\xdbCJm\x86C\xe6\xdeoC>\x0f\x8bB\x9f*`C@\xa5\xa3C\xd0\x17\xedB."\x08D#\x11\xb2C\xbf\xfa\xd7CI\xc2.Cz\x97yC\x81\xf8lA\xf6\x86IC\xf2\xb5\xcbA\xa8\xff9B\xe9\xfdtC~\x06\xceBZ>\x9fBU\x9d\x9eC1\x1e\x81B\x7f\xf7dCZ\xa0\xa8C\'\xb1\x01D\xc7}\xf5B\xd4<\tA\xff\xe0^B\x8d\x07\x9aC\xb28\xc4C\xa6r7C\x9a\t\\CTd\xe3BB8\xd1C\x95~\x8eCu\x87\x97CE\xb9NB\xe1M\xfaC\xe9x\xe2C\x9b\xc2\xf3C@\x18\x04DVr\xa6C*\x12\xd4C\xefH\x93C\x94^\x95C\xeb\xc6\x88C\xfb\xcf\xe4C\\\xed\x02DeR"Ce]\x8cC2\x1f)B\xa1\xf0\xfcC8\xf2\x11C{\x113CJ\x1e\xaeC3\xce\x1aCO\xc2\x15B\x15\x15\xe7C(FQC\xa9\xd8\xa9B/1\x05D)!\x9dA\xa8@\xb9C\x84w\x04C\x8f\xc4\xbcB\xd0\xf6\xf7C\x9dU\xfbA\xd0\xd8\x81C$\r\xcbC09\xbeC'
S'\x00\x00\x00\x00\x00\x00\x00\x00\x00\x00\x00\x00\x00\x00\x00\x00\x00\x00\x00\x00\x00\x00\x00\x00\x00\x00\x00\x00\x00\x00\x00\x00\x00\x00\x00\x00\x00\x00\x00\x00\x00\x00\x00\x00\x00\x00\x00\x00\x00\x00\x00\x00\x00\x00\x00\x00\x00\x00\x00\x00\x00\x00\x00\x00\x00\x00\x00\x00\x00\x00\x00\x00\x00\x00\x00\x00\x00\x00\x00\x00\x00\x00\x00\x00\x00\x00\x00\x00\x00\x00\x00\x00\x00\x00\x00\x00'
Ntbsg26
g1157
(g1158
(I0
tS'b'
tRp1176
(I1
(I96
I1
tg1160
I00
(lp1177
g36
(g80
S'\x13\x00\x00\x00'
tRp1178
ag36
(g80
S'$\x00\x00\x00'
tRp1179
ag36
(g80
S'$\x00\x00\x00'
tRp1180
ag36
(g80
S'\x15\x00\x00\x00'
tRp1181
ag36
(g80
S'\x14\x00\x00\x00'
tRp1182
ag36
(g80
S'\x15\x00\x00\x00'
tRp1183
ag36
(g80
S'+\x00\x00\x00'
tRp1184
ag36
(g80
S',\x00\x00\x00'
tRp1185
ag36
(g80
S'\x15\x00\x00\x00'
tRp1186
ag36
(g80
S'"\x00\x00\x00'
tRp1187
ag36
(g80
S'\x17\x00\x00\x00'
tRp1188
ag36
(g80
S'\x1b\x00\x00\x00'
tRp1189
ag36
(g80
S'\x12\x00\x00\x00'
tRp1190
ag36
(g80
S'#\x00\x00\x00'
tRp1191
ag36
(g80
S'%\x00\x00\x00'
tRp1192
ag36
(g80
S'&\x00\x00\x00'
tRp1193
ag36
(g80
S'\x16\x00\x00\x00'
tRp1194
ag36
(g80
S')\x00\x00\x00'
tRp1195
ag36
(g80
S'\x12\x00\x00\x00'
tRp1196
ag36
(g80
S'\x13\x00\x00\x00'
tRp1197
ag36
(g80
S'&\x00\x00\x00'
tRp1198
ag36
(g80
S'\x19\x00\x00\x00'
tRp1199
ag36
(g80
S'\x14\x00\x00\x00'
tRp1200
ag36
(g80
S'\x10\x00\x00\x00'
tRp1201
ag36
(g80
S'\x1d\x00\x00\x00'
tRp1202
ag36
(g80
S'\x1f\x00\x00\x00'
tRp1203
ag36
(g80
S'%\x00\x00\x00'
tRp1204
ag36
(g80
S'%\x00\x00\x00'
tRp1205
ag36
(g80
S'\x1a\x00\x00\x00'
tRp1206
ag36
(g80
S'\x1c\x00\x00\x00'
tRp1207
ag36
(g80
S'\x12\x00\x00\x00'
tRp1208
ag36
(g80
S'\x15\x00\x00\x00'
tRp1209
ag36
(g80
S'$\x00\x00\x00'
tRp1210
ag36
(g80
S'\x12\x00\x00\x00'
tRp1211
ag36
(g80
S'-\x00\x00\x00'
tRp1212
ag36
(g80
S'\x1e\x00\x00\x00'
tRp1213
ag36
(g80
S'$\x00\x00\x00'
tRp1214
ag36
(g80
S'\x14\x00\x00\x00'
tRp1215
ag36
(g80
S'\x1e\x00\x00\x00'
tRp1216
ag36
(g80
S'\x02\x00\x00\x00'
tRp1217
ag36
(g80
S'\x16\x00\x00\x00'
tRp1218
ag36
(g80
S'\x05\x00\x00\x00'
tRp1219
ag36
(g80
S'\r\x00\x00\x00'
tRp1220
ag36
(g80
S'\x1f\x00\x00\x00'
tRp1221
ag36
(g80
S'\x15\x00\x00\x00'
tRp1222
ag36
(g80
S'\x18\x00\x00\x00'
tRp1223
ag36
(g80
S'(\x00\x00\x00'
tRp1224
ag36
(g80
S'\x13\x00\x00\x00'
tRp1225
ag36
(g80
S'\x16\x00\x00\x00'
tRp1226
ag36
(g80
S'!\x00\x00\x00'
tRp1227
ag36
(g80
S'/\x00\x00\x00'
tRp1228
ag36
(g80
S'\x14\x00\x00\x00'
tRp1229
aS'5.0'
p1230
ag36
(g80
S'\r\x00\x00\x00'
tRp1231
ag36
(g80
S'&\x00\x00\x00'
tRp1232
ag36
(g80
S'"\x00\x00\x00'
tRp1233
ag36
(g80
S'\x14\x00\x00\x00'
tRp1234
ag36
(g80
S'\x16\x00\x00\x00'
tRp1235
ag36
(g80
S'\x11\x00\x00\x00'
tRp1236
ag36
(g80
S"'\x00\x00\x00"
tRp1237
ag36
(g80
S'#\x00\x00\x00'
tRp1238
ag36
(g80
S"'\x00\x00\x00"
tRp1239
ag36
(g80
S'\x0e\x00\x00\x00'
tRp1240
ag36
(g80
S'/\x00\x00\x00'
tRp1241
ag36
(g80
S'(\x00\x00\x00'
tRp1242
ag36
(g80
S'.\x00\x00\x00'
tRp1243
ag36
(g80
S'/\x00\x00\x00'
tRp1244
ag36
(g80
S'"\x00\x00\x00'
tRp1245
ag36
(g80
S'&\x00\x00\x00'
tRp1246
ag36
(g80
S'"\x00\x00\x00'
tRp1247
ag36
(g80
S'$\x00\x00\x00'
tRp1248
ag36
(g80
S'\x1d\x00\x00\x00'
tRp1249
ag36
(g80
S"'\x00\x00\x00"
tRp1250
ag36
(g80
S'0\x00\x00\x00'
tRp1251
ag36
(g80
S'\x11\x00\x00\x00'
tRp1252
ag36
(g80
S' \x00\x00\x00'
tRp1253
ag36
(g80
S'\x0b\x00\x00\x00'
tRp1254
ag36
(g80
S'0\x00\x00\x00'
tRp1255
ag36
(g80
S'\x16\x00\x00\x00'
tRp1256
ag36
(g80
S'\x15\x00\x00\x00'
tRp1257
ag36
(g80
S'\x1f\x00\x00\x00'
tRp1258
ag36
(g80
S'\x12\x00\x00\x00'
tRp1259
ag36
(g80
S'\n\x00\x00\x00'
tRp1260
ag36
(g80
S'*\x00\x00\x00'
tRp1261
ag36
(g80
S'\x13\x00\x00\x00'
tRp1262
ag36
(g80
S'\x19\x00\x00\x00'
tRp1263
ag36
(g80
S'.\x00\x00\x00'
tRp1264
ag36
(g80
S'\x04\x00\x00\x00'
tRp1265
ag36
(g80
S'\x1e\x00\x00\x00'
tRp1266
ag36
(g80
S'\x14\x00\x00\x00'
tRp1267
ag36
(g80
S'\x18\x00\x00\x00'
tRp1268
ag36
(g80
S'-\x00\x00\x00'
tRp1269
ag36
(g80
S'\x08\x00\x00\x00'
tRp1270
ag36
(g80
S'\x1c\x00\x00\x00'
tRp1271
ag36
(g80
S'%\x00\x00\x00'
tRp1272
ag36
(g80
S'!\x00\x00\x00'
tRp1273
atbsg21
g1162
(g1163
g1158
g1164
S'b'
tRp1274
(I1
(I96
I1
tg1166
I00
S'\x16:q?\xe88q?`\xbbZ@"\xf7\x99?\xa6\x03\\@/o@@\xd0\xf3\xdd?\x86\x161?$\xd2\xd8?8c\x17?q9q?H\x7f\xe9?\'\xb0\x0f@,\xe9=?\xeeZv?Zz@?<\xa8n?\x19\xa6~@\xdf!Z?3(\x84?\x16M\x99@\x91\xc0\xb8?E\xa63?d76?\xc7\xf6\x99?\xa4\xbd8?\xdc\xc9s?\xf4\xb8\x1f@\xd69\x9b@#\xb9\x1f@0\xa9\xa1?\x81\xd2&?H\xa8n?a\xc0\xb8?\x1e\xcb\xfa@\x136\x82@8hk@\xc6\x9c\x11@\x89\xde=?\xfc\x8c\x93?\xe6\xe1V@k\x97\x1a@\xdcz@?C*\r?\xd2\x1f\x1f?\xa2\x1d\x96?\xd1\x8b\xfb>#\x0e\xb1?\xa1\x08\xb1?3\x91W?\x17j\x05Ar\x00U?\xaf\xdc_@Q*\r?\x16:\x9b?h}G@c\xfe\x19?#\t\x08?z\x0f(@\xa9\xb3\x8f?\x91\xf3+?2\xbb\x0f?\xafF\xcd?\x8bn\x17?\x9b\x84.?9?\x9b?O\xc88?\xb1\xcd\xe1?\xc31\xf1?\x87\x8f\xb4@Xm\x17?\xe1c)?\x02OM?\xffb)?\xf8\xc6\x84@W!H@\xbb4\xad?\xd5\xf1\xa2?4c)?\xbe\xd4a?)\xa9:@\xa1[\xa9? \'\xfa?\xb9MM?\x9b\xfd\x07@(\xec\xa2?\x8a\xe8\x02?V\xea=?\xd3\xb1\xa8@\xca\xbd\xfc?\x82\xb0!?"\xae\x8f@\xe7\xed"@\xb3D\x92?W\x91W?vZ\xb1@'
S'\x00\x00\x00\x00\x00\x00\x00\x00\x00\x00\x00\x00\x00\x00\x00\x00\x00\x00\x00\x00\x00\x00\x00\x00\x00\x00\x00\x00\x00\x00\x00\x00\x00\x00\x00\x00\x00\x00\x00\x00\x00\x00\x00\x00\x00\x00\x00\x00\x00\x00\x00\x00\x00\x00\x00\x00\x00\x00\x00\x00\x00\x00\x00\x00\x00\x00\x00\x00\x00\x00\x00\x00\x00\x00\x00\x00\x00\x00\x00\x00\x00\x00\x00\x00\x00\x00\x00\x00\x00\x00\x00\x00\x00\x00\x00\x00'
NtbsS'order'
p1275
g1162
(g1163
g1158
g1164
S'b'
tRp1276
(I1
(I96
I1
tg1166
I00
S'\x00\x00\xc0A\x00\x00\x90B\x00\x00\x96B\x00\x00\xd8A\x00\x00\x14B\x00\x00 B\x00\x00\xacB\x00\x00\xaaB\x00\x00PA\x00\x00\x80B\x00\x00\x90A\x00\x00\x80A\x00\x00\x00B\x00\x00\x8cB\x00\x00hB\x00\x00\x92B\x00\x00\xd0A\x00\x00\xa8B\x00\x00\xa0A\x00\x00\x10B\x00\x00\xa0B\x00\x000B\x00\x00\xe8A\x00\x00 A\x00\x00@B\x00\x00\x86B\x00\x00pB\x00\x00\x9eB\x00\x00HB\x00\x004B\x00\x00@A\x00\x00(B\x00\x00tB\x00\x00\xb0A\x00\x00\xbeB\x00\x00\x84B\x00\x00\x9cB\x00\x00\x04B\x00\x00<B\x00\x00\x80?\x00\x00\x18B\x00\x00@@\x00\x00\xe0@\x00\x008B\x00\x00\x98A\x00\x00`A\x00\x00lB\x00\x000A\x00\x00,B\x00\x00|B\x00\x00\xb6B\x00\x00\xb8A\x00\x00\x00\x00\x00\x00\x10A\x00\x00dB\x00\x00\x8eB\x00\x00\x0cB\x00\x00$B\x00\x00\xa8A\x00\x00\x98B\x00\x00TB\x00\x00`B\x00\x00\x00A\x00\x00\xb2B\x00\x00\xa2B\x00\x00\xaeB\x00\x00\xbaB\x00\x00xB\x00\x00\x9aB\x00\x00XB\x00\x00\\B\x00\x00LB\x00\x00\xa4B\x00\x00\xb8B\x00\x00\xf8A\x00\x00PB\x00\x00\xc0@\x00\x00\xb4B\x00\x00\xe0A\x00\x00\x08B\x00\x00\x82B\x00\x00\xf0A\x00\x00\xa0@\x00\x00\xa6B\x00\x00\x1cB\x00\x00pA\x00\x00\xbcB\x00\x00\x00@\x00\x00\x88B\x00\x00\xc8A\x00\x00\x88A\x00\x00\xb0B\x00\x00\x80@\x00\x00DB\x00\x00\x94B\x00\x00\x8aB'
S'\x00\x00\x00\x00\x00\x00\x00\x00\x00\x00\x00\x00\x00\x00\x00\x00\x00\x00\x00\x00\x00\x00\x00\x00\x00\x00\x00\x00\x00\x00\x00\x00\x00\x00\x00\x00\x00\x00\x00\x00\x00\x00\x00\x00\x00\x00\x00\x00\x00\x00\x00\x00\x00\x00\x00\x00\x00\x00\x00\x00\x00\x00\x00\x00\x00\x00\x00\x00\x00\x00\x00\x00\x00\x00\x00\x00\x00\x00\x00\x00\x00\x00\x00\x00\x00\x00\x00\x00\x00\x00\x00\x00\x00\x00\x00\x00'
Ntbsg19
g1162
(g1163
g1158
g1164
S'b'
tRp1277
(I1
(I96
I1
tg1166
I00
S'\x00\x00\x80?\x00\x00\x80?\x00\x00\x80?\x00\x00\x80?\x00\x00\x00\x00\x00\x00\x80?\x00\x00\x80?\x00\x00\x80?\x00\x00\x80?\x00\x00\x80?\x00\x00\x80?\x00\x00\x80?\x00\x00\x80?\x00\x00\x80?\x00\x00\x00\x00\x00\x00\x80?\x00\x00\x80?\x00\x00\x00\x00\x00\x00\x00\x00\x00\x00\x80?\x00\x00\x80?\x00\x00\x80?\x00\x00\x80?\x00\x00\x80?\x00\x00\x80?\x00\x00\x80?\x00\x00\x80?\x00\x00\x00\x00\x00\x00\x80?\x00\x00\x80?\x00\x00\x80?\x00\x00\x80?\x00\x00\x80?\x00\x00\x00\x00\x00\x00\x80?\x00\x00\x80?\x00\x00\x80?\x00\x00\x80?\x00\x00\x80?\x00\x00\x80?\x00\x00\x80?\x00\x00\x80?\x00\x00\x80?\x00\x00\x80?\x00\x00\x80?\x00\x00\x00\x00\x00\x00\x80?\x00\x00\x80?\x00\x00\x80?\x00\x00\x00\x00\x00\x00\x00\x00\x00\x00\x80?\x00\x00\x80?\x00\x00\x80?\x00\x00\x80?\x00\x00\x00\x00\x00\x00\x80?\x00\x00\x80?\x00\x00\x00\x00\x00\x00\x80?\x00\x00\x80?\x00\x00\x80?\x00\x00\x80?\x00\x00\x80?\x00\x00\x80?\x00\x00\x80?\x00\x00\x80?\x00\x00\x00\x00\x00\x00\x80?\x00\x00\x80?\x00\x00\x80?\x00\x00\x80?\x00\x00\x00\x00\x00\x00\x80?\x00\x00\x80?\x00\x00\x00\x00\x00\x00\x80?\x00\x00\x80?\x00\x00\x80?\x00\x00\x80?\x00\x00\x80?\x00\x00\x80?\x00\x00\x00\x00\x00\x00\x80?\x00\x00\x80?\x00\x00\x00\x00\x00\x00\x80?\x00\x00\x80?\x00\x00\x80?\x00\x00\x80?\x00\x00\x80?\x00\x00\x00\x00\x00\x00\x80?\x00\x00\x80?\x00\x00\x80?\x00\x00\x00\x00'
S'\x00\x00\x00\x00\x00\x00\x00\x00\x00\x00\x00\x00\x00\x00\x00\x00\x00\x00\x00\x00\x00\x00\x00\x00\x00\x00\x00\x00\x00\x00\x00\x00\x00\x00\x00\x00\x00\x00\x00\x00\x00\x00\x00\x00\x00\x00\x00\x00\x00\x00\x00\x00\x00\x00\x00\x00\x00\x00\x00\x00\x00\x00\x00\x00\x00\x00\x00\x00\x00\x00\x00\x00\x00\x00\x00\x00\x00\x00\x00\x00\x00\x00\x00\x00\x00\x00\x00\x00\x00\x00\x00\x00\x00\x00\x00\x00'
Ntbsg27
g1157
(g1158
(I0
tS'b'
tRp1278
(I1
(I96
I1
tg1160
I00
(lp1279
g352
ag881
ag914
ag386
ag496
ag529
ag1035
ag1024
ag230
ag793
ag286
ag264
ag441
ag859
ag727
ag892
ag374
ag1013
ag308
ag485
ag969
ag573
ag408
ag195
ag617
ag826
ag749
ag958
ag639
ag584
ag219
ag551
ag760
ag330
ag1134
ag815
ag947
ag452
ag606
ag90
ag507
ag116
ag162
ag595
ag297
ag242
ag738
ag207
ag562
ag782
ag1090
ag341
ag76
ag184
ag716
ag870
ag474
ag540
ag319
ag925
ag672
ag705
ag173
ag1068
ag980
ag1046
ag1112
ag771
ag936
ag683
ag694
ag650
ag991
ag1101
ag430
ag661
ag150
ag1079
ag397
ag463
ag804
ag419
ag139
ag1002
ag518
ag253
ag1123
ag104
ag837
ag363
ag275
ag1057
ag128
ag628
ag903
ag848
atbsg23
g1157
(g1158
(I0
tS'b'
tRp1280
(I1
(I96
I1
tg1160
I00
(lp1281
S'1'
aS'1'
aS'1'
aS'1'
aS'1'
aS'1'
aS'1'
aS'2'
aS'1'
aS'3'
aS'3'
aS'3'
aS'1'
aS'2'
aS'1'
aS'2'
aS'2'
aS'1'
aS'2'
aS'1'
aS'1'
aS'1'
aS'3'
aS'1'
aS'2'
aS'2'
aS'2'
aS'1'
aS'1'
aS'1'
aS'1'
aS'1'
aS'3'
aS'1'
aS'1'
aS'1'
aS'1'
aS'1'
aS'2'
aS'1'
aS'3'
aS'1'
aS'1'
aS'2'
aS'3'
aS'1'
aS'3'
aS'2'
aS'1'
aS'1'
aS'1'
aS'2'
aS'3'
aS'1'
aS'2'
aS'1'
aS'2'
aS'2'
aS'1'
aS'2'
aS'2'
aS'2'
aS'2'
aS'1'
aS'2'
aS'2'
aS'2'
aS'2'
aS'3'
aS'1'
aS'1'
aS'1'
aS'1'
aS'2'
aS'1'
aS'1'
aS'1'
aS'2'
aS'3'
aS'2'
aS'2'
aS'2'
aS'1'
aS'2'
aS'1'
aS'1'
aS'2'
aS'1'
aS'1'
aS'1'
aS'2'
aS'1'
aS'1'
aS'3'
aS'2'
aS'1'
atbsg18
g1162
(g1163
g1158
g1164
S'b'
tRp1282
(I1
(I96
I1
tg1166
I00
S'\xddH\xfcB\x8e\x02\xc6C\xeb\xfa\xccC\xf7\xa9\x0cCY9?C\x80\x05UC\xb4e\xf0C\r\x15\xeeC[P\x92B\x15e\xaaC\xe0\xe6\xc3B\xbd\xc7\xb0B\x9d\x82&C;1\xc0C\x02\x0f\x9cC\x9eY\xc8Cr\xec\x07C\xa5\xe6\xe8C\xb8\xd6\xd4B\x9f\xd5:CY\xe4\xddC\x84ZhC\xe5\\\x15C\x1eNlB\x118}C]r\xb4C\xa7\x96\xa0CN\xcc\xd9C\xc1\xfd\x83C\xbeZmC\x15~\x88B\x89~_CK+\xa3CH*\xeaBG+\x06D\xa8\x05\xb0CM!\xd6C\x92v,CW\xd4xC\x9c2ZA+&FC\xee8\xb8A\xad\xe86B{ktC\xb8\xbd\xccB[\xdb\x9cB\xd0[\x9eC\xe3\x9e|B*\x90cC\xef1\xa8C[4\xffC@\xc9\xf3B\xa4\x8e\xa1@F\x97\\B\xb2i\x99C\x15\xa7\xc2Cc\xd36CN|[CR\x19\xdeB\xec\xa5\xd0C\xfa%\x8eC\xf6<\x97C\x03:HB\x88\xff\xf9C\x06\x1f\xe2C\xac$\xf3C\xbd\xe8\x03D\xe7\x8d\xa5CW\x1e\xd3C\x0ft\x90C;\x10\x95C\x97o\x88C\xb2f\xe4C\xb2\xc1\x02D\xea&\x1eC\x81\xca\x8aC\x80\xa0#B\rK\xfcC\x92C\x11Cd*2C\x0e\xa5\xacC8v\x19C\x08\xdc\rB\xcd\xab\xe6C\xef OCnB\xa7B$\x0f\x05D\xb7\x07\x97A?\x9b\xb6C\xc4x\x02C\xa8v\xbbBw\xb5\xf5C\xc8\xcd\xe6A\xeaC\x81C\xb9\x9e\xcaC%q\xbbC'
S'\x00\x00\x00\x00\x00\x00\x00\x00\x00\x00\x00\x00\x00\x00\x00\x00\x00\x00\x00\x00\x00\x00\x00\x00\x00\x00\x00\x00\x00\x00\x00\x00\x00\x00\x00\x00\x00\x00\x00\x00\x00\x00\x00\x00\x00\x00\x00\x00\x00\x00\x00\x00\x00\x00\x00\x00\x00\x00\x00\x00\x00\x00\x00\x00\x00\x00\x00\x00\x00\x00\x00\x00\x00\x00\x00\x00\x00\x00\x00\x00\x00\x00\x00\x00\x00\x00\x00\x00\x00\x00\x00\x00\x00\x00\x00\x00'
Ntbsg25
g1162
(g1163
g1158
g1164
S'b'
tRp1283
(I1
(I96
I1
tg1166
I00
S"\xbf\xf18>A\xb6\xb3>o\x99\n?\x13\xf68>\x1a\xeb\x94>&\x88v>\xa9-\x9f><W\x00?h\xb3\xb3>\xf3\xfe\x19?\xad\x92\x8a>5\xf0\x94>Q\n\x08?JpR?QAl>y\xa0\xd7>5n\x17?\xd8\x95<@\xe6\xfd\x19?\tl$>v\xcb\x8f>\x11\xc9\x8f>\xd7Bl>\xf0\xf18>\x1f\xf6T?\xcc\x0c\x9a>\xa8\x86W?\xa1\xd1\x14@\xcd\nC?n\xf1\xa2?\xaf\x03\xe7>\xfe\xc0W>\xcb\xe6\x02?~\xf28>\xdb\xe8=?\xac\x99\xbc?j\xeb\x94>\xfbDl>+\xd6\xb8>\xe6p\x85?\x16\x84\x1c@\x1b\x94\xae>\xf6\x03\xe7>UK\x12?\xd0\x85\x85>\t\xbdJ?\xd3\xfe\x19?)\x99\n?\xc8\xf48>\t\x00b>\xd4\xbcJ?\xd2O\x80>\x83\xc8\x04@;@l>'76?\x90Al>\xb9El>\xe1\xc8\x8f>\xedd\x80>\xdd\x05\xe7>>m\x17?\xde\\\xcd>B\xf8\xbd>\xdb\xe6\x02?\xb4h\xf6>-i\xf6>\xbe\xc2\xdc>\xd0vM>\xa5\xbcJ?CBl>n\xf6\xbd>\xf9\xf8=?q0\x9f>\xcch\xf6>8(\x84?\xedAl>f\x92\xae>\xc5I\x89?\xb4d\x80>\x94m\x17?<\x08\x08?\x85xM>\x1f\x19\xc3>\xe6\x87v>2K\x12?&\xffa>\x8dh\xf6>\xcf\xf8\xbd>+\x01\x88?s\x86\x85>\xd5\xf5\xbd>\xb4b\x17?W\xe1x?[\x01\x88?\xe9\xe7\x02?\xec\xfe\x19?"
S'\x00\x00\x00\x00\x00\x00\x00\x00\x00\x00\x00\x00\x00\x00\x00\x00\x00\x00\x00\x00\x00\x00\x00\x00\x00\x00\x00\x00\x00\x00\x00\x00\x00\x00\x00\x00\x00\x00\x00\x00\x00\x00\x00\x00\x00\x00\x00\x00\x00\x00\x00\x00\x00\x00\x00\x00\x00\x00\x00\x00\x00\x00\x00\x00\x00\x00\x00\x00\x00\x00\x00\x00\x00\x00\x00\x00\x00\x00\x00\x00\x00\x00\x00\x00\x00\x00\x00\x00\x00\x00\x00\x00\x00\x00\x00\x00'
NtbstRp1284
(dp1285
S'isNumeric'
p1286
(dp1287
g23
I00
sg20
I00
sg17
I01
sg1167
I01
sg22
I01
sg24
I01
sg14
I01
sg18
I01
sg16
I00
sg19
I01
sg26
I00
sg27
I00
sg15
I00
sg21
I01
sg1275
I01
sg25
I01
ssg1151
g1145
sS'dataTypes'
p1288
(lp1289
g1167
ag1275
ag14
ag15
ag16
ag17
ag18
ag19
ag20
ag21
ag22
ag23
ag24
ag25
ag26
ag27
asS'dataShape'
p1290
(lp1291
I96
aI1
asbsS'method'
p1292
S'random'
p1293
sS'sequenceIndices'
p1294
g1157
(g1158
(I0
tS'b'
tRp1295
(I1
(I96
I1
tg80
I01
S'4\x00\x00\x00\'\x00\x00\x00W\x00\x00\x00)\x00\x00\x00\\\x00\x00\x00R\x00\x00\x00L\x00\x00\x00*\x00\x00\x00>\x00\x00\x005\x00\x00\x00\x17\x00\x00\x00/\x00\x00\x00\x1e\x00\x00\x00\x08\x00\x00\x00-\x00\x00\x00U\x00\x00\x00\x0b\x00\x00\x00Z\x00\x00\x00\n\x00\x00\x00,\x00\x00\x00\x12\x00\x00\x00:\x00\x00\x00!\x00\x00\x003\x00\x00\x00\x00\x00\x00\x00Y\x00\x00\x00\x10\x00\x00\x00\x03\x00\x00\x00N\x00\x00\x00\x16\x00\x00\x00Q\x00\x00\x00J\x00\x00\x00\x0c\x00\x00\x00%\x00\x00\x00O\x00\x00\x008\x00\x00\x00\x13\x00\x00\x00\x04\x00\x00\x00(\x00\x00\x00T\x00\x00\x00\x05\x00\x00\x009\x00\x00\x00\x1f\x00\x00\x000\x00\x00\x00\x15\x00\x00\x00\x1d\x00\x00\x00+\x00\x00\x00&\x00\x00\x00\x18\x00\x00\x00]\x00\x00\x00\x1c\x00\x00\x00G\x00\x00\x00K\x00\x00\x00<\x00\x00\x00E\x00\x00\x00F\x00\x00\x00=\x00\x00\x006\x00\x00\x00\x0e\x00\x00\x00.\x00\x00\x00\x1a\x00\x00\x00 \x00\x00\x00C\x00\x00\x001\x00\x00\x00\t\x00\x00\x00P\x00\x00\x00#\x00\x00\x00\x19\x00\x00\x00X\x00\x00\x00_\x00\x00\x00\r\x00\x00\x007\x00\x00\x00\x01\x00\x00\x00\x0f\x00\x00\x00^\x00\x00\x00\x02\x00\x00\x00;\x00\x00\x00D\x00\x00\x00$\x00\x00\x00\x1b\x00\x00\x00\x14\x00\x00\x00@\x00\x00\x00H\x00\x00\x00S\x00\x00\x00\x11\x00\x00\x00\x07\x00\x00\x00\x06\x00\x00\x00A\x00\x00\x00[\x00\x00\x00?\x00\x00\x00M\x00\x00\x002\x00\x00\x00I\x00\x00\x00B\x00\x00\x00V\x00\x00\x00"\x00\x00\x00'
tbsS'finished'
p1296
I01
sS'nReps'
p1297
I1
sS'nRemaining'
p1298
I-1
sS'trialList'
p1299
(lp1300
g1
(cpsychopy.data
TrialType
p1301
g1155
(dp1302
g62
g102
sg63
g358
sg64
g205
sg65
g353
sg66
g357
stRp1303
ag1
(g1301
g1155
(dp1304
g62
g74
sg63
g887
sg64
g88
sg65
g882
sg66
g886
stRp1305
ag1
(g1301
g1155
(dp1306
g62
g102
sg63
g920
sg64
g205
sg65
g915
sg66
g919
stRp1307
ag1
(g1301
g1155
(dp1308
g62
g102
sg63
g392
sg64
g384
sg65
g387
sg66
g391
stRp1309
ag1
(g1301
g1155
(dp1310
g62
g74
sg63
g502
sg64
g160
sg65
g497
sg66
g501
stRp1311
ag1
(g1301
g1155
(dp1312
g62
g102
sg63
g535
sg64
g205
sg65
g530
sg66
g534
stRp1313
ag1
(g1301
g1155
(dp1314
g62
g102
sg63
g1041
sg64
g205
sg65
g1036
sg66
g1040
stRp1315
ag1
(g1301
g1155
(dp1316
g62
g102
sg63
g1030
sg64
g101
sg65
g1025
sg66
g1029
stRp1317
ag1
(g1301
g1155
(dp1318
g62
g102
sg63
g236
sg64
g205
sg65
g231
sg66
g235
stRp1319
ag1
(g1301
g1155
(dp1320
g62
g102
sg63
g799
sg64
g101
sg65
g794
sg66
g798
stRp1321
ag1
(g1301
g1155
(dp1322
g62
g74
sg63
g292
sg64
g240
sg65
g287
sg66
g291
stRp1323
ag1
(g1301
g1155
(dp1324
g62
g102
sg63
g270
sg64
g101
sg65
g265
sg66
g269
stRp1325
ag1
(g1301
g1155
(dp1326
g62
g102
sg63
g447
sg64
g114
sg65
g442
sg66
g446
stRp1327
ag1
(g1301
g1155
(dp1328
g62
g74
sg63
g865
sg64
g88
sg65
g860
sg66
g864
stRp1329
ag1
(g1301
g1155
(dp1330
g62
g102
sg63
g733
sg64
g114
sg65
g728
sg66
g732
stRp1331
ag1
(g1301
g1155
(dp1332
g62
g102
sg63
g898
sg64
g205
sg65
g893
sg66
g897
stRp1333
ag1
(g1301
g1155
(dp1334
g62
g74
sg63
g380
sg64
g88
sg65
g375
sg66
g379
stRp1335
ag1
(g1301
g1155
(dp1336
g62
g102
sg63
g1019
sg64
g114
sg65
g1014
sg66
g1018
stRp1337
ag1
(g1301
g1155
(dp1338
g62
g102
sg63
g314
sg64
g217
sg65
g309
sg66
g313
stRp1339
ag1
(g1301
g1155
(dp1340
g62
g102
sg63
g491
sg64
g205
sg65
g486
sg66
g490
stRp1341
ag1
(g1301
g1155
(dp1342
g62
g74
sg63
g975
sg64
g88
sg65
g970
sg66
g974
stRp1343
ag1
(g1301
g1155
(dp1344
g62
g74
sg63
g579
sg64
g73
sg65
g574
sg66
g578
stRp1345
ag1
(g1301
g1155
(dp1346
g62
g102
sg63
g414
sg64
g217
sg65
g409
sg66
g413
stRp1347
ag1
(g1301
g1155
(dp1348
g62
g74
sg63
g201
sg64
g73
sg65
g196
sg66
g200
stRp1349
ag1
(g1301
g1155
(dp1350
g62
g74
sg63
g623
sg64
g240
sg65
g618
sg66
g622
stRp1351
ag1
(g1301
g1155
(dp1352
g62
g102
sg63
g832
sg64
g126
sg65
g827
sg66
g831
stRp1353
ag1
(g1301
g1155
(dp1354
g62
g74
sg63
g755
sg64
g160
sg65
g750
sg66
g754
stRp1355
ag1
(g1301
g1155
(dp1356
g62
g74
sg63
g964
sg64
g88
sg65
g959
sg66
g963
stRp1357
ag1
(g1301
g1155
(dp1358
g62
g102
sg63
g645
sg64
g114
sg65
g640
sg66
g644
stRp1359
ag1
(g1301
g1155
(dp1360
g62
g102
sg63
g590
sg64
g205
sg65
g585
sg66
g589
stRp1361
ag1
(g1301
g1155
(dp1362
g62
g102
sg63
g225
sg64
g217
sg65
g220
sg66
g224
stRp1363
ag1
(g1301
g1155
(dp1364
g62
g102
sg63
g557
sg64
g217
sg65
g552
sg66
g556
stRp1365
ag1
(g1301
g1155
(dp1366
g62
g74
sg63
g766
sg64
g88
sg65
g761
sg66
g765
stRp1367
ag1
(g1301
g1155
(dp1368
g62
g74
sg63
g336
sg64
g160
sg65
g331
sg66
g335
stRp1369
ag1
(g1301
g1155
(dp1370
g62
g74
sg63
g1140
sg64
g160
sg65
g1135
sg66
g1139
stRp1371
ag1
(g1301
g1155
(dp1372
g62
g102
sg63
g821
sg64
g114
sg65
g816
sg66
g820
stRp1373
ag1
(g1301
g1155
(dp1374
g62
g102
sg63
g953
sg64
g126
sg65
g948
sg66
g952
stRp1375
ag1
(g1301
g1155
(dp1376
g62
g102
sg63
g458
sg64
g384
sg65
g453
sg66
g457
stRp1377
ag1
(g1301
g1155
(dp1378
g62
g74
sg63
g612
sg64
g160
sg65
g607
sg66
g611
stRp1379
ag1
(g1301
g1155
(dp1380
g62
g74
sg63
g96
sg64
g88
sg65
g91
sg66
g95
stRp1381
ag1
(g1301
g1155
(dp1382
g62
g74
sg63
g513
sg64
g88
sg65
g508
sg66
g512
stRp1383
ag1
(g1301
g1155
(dp1384
g62
g102
sg63
g122
sg64
g114
sg65
g117
sg66
g121
stRp1385
ag1
(g1301
g1155
(dp1386
g62
g74
sg63
g168
sg64
g160
sg65
g163
sg66
g167
stRp1387
ag1
(g1301
g1155
(dp1388
g62
g74
sg63
g601
sg64
g73
sg65
g596
sg66
g600
stRp1389
ag1
(g1301
g1155
(dp1390
g62
g74
sg63
g303
sg64
g160
sg65
g298
sg66
g302
stRp1391
ag1
(g1301
g1155
(dp1392
g62
g74
sg63
g248
sg64
g240
sg65
g243
sg66
g247
stRp1393
ag1
(g1301
g1155
(dp1394
g62
g102
sg63
g744
sg64
g205
sg65
g739
sg66
g743
stRp1395
ag1
(g1301
g1155
(dp1396
g62
g102
sg63
g213
sg64
g205
sg65
g208
sg66
g212
stRp1397
ag1
(g1301
g1155
(dp1398
g62
g74
sg63
g568
sg64
g88
sg65
g563
sg66
g567
stRp1399
ag1
(g1301
g1155
(dp1400
g62
g74
sg63
g788
sg64
g73
sg65
g783
sg66
g787
stRp1401
ag1
(g1301
g1155
(dp1402
g62
g74
sg63
g1096
sg64
g88
sg65
g1091
sg66
g1095
stRp1403
ag1
(g1301
g1155
(dp1404
g62
g74
sg63
g347
sg64
g160
sg65
g342
sg66
g346
stRp1405
ag1
(g1301
g1155
(dp1406
g62
g74
sg63
g84
sg64
g73
sg65
g78
sg66
g83
stRp1407
ag1
(g1301
g1155
(dp1408
g62
g102
sg63
g190
sg64
g114
sg65
g185
sg66
g189
stRp1409
ag1
(g1301
g1155
(dp1410
g62
g102
sg63
g722
sg64
g101
sg65
g717
sg66
g721
stRp1411
ag1
(g1301
g1155
(dp1412
g62
g74
sg63
g876
sg64
g73
sg65
g871
sg66
g875
stRp1413
ag1
(g1301
g1155
(dp1414
g62
g74
sg63
g480
sg64
g160
sg65
g475
sg66
g479
stRp1415
ag1
(g1301
g1155
(dp1416
g62
g74
sg63
g546
sg64
g160
sg65
g541
sg66
g545
stRp1417
ag1
(g1301
g1155
(dp1418
g62
g102
sg63
g325
sg64
g114
sg65
g320
sg66
g324
stRp1419
ag1
(g1301
g1155
(dp1420
g62
g74
sg63
g931
sg64
g160
sg65
g926
sg66
g930
stRp1421
ag1
(g1301
g1155
(dp1422
g62
g74
sg63
g678
sg64
g160
sg65
g673
sg66
g677
stRp1423
ag1
(g1301
g1155
(dp1424
g62
g74
sg63
g711
sg64
g160
sg65
g706
sg66
g710
stRp1425
ag1
(g1301
g1155
(dp1426
g62
g102
sg63
g179
sg64
g126
sg65
g174
sg66
g178
stRp1427
ag1
(g1301
g1155
(dp1428
g62
g74
sg63
g1074
sg64
g160
sg65
g1069
sg66
g1073
stRp1429
ag1
(g1301
g1155
(dp1430
g62
g102
sg63
g986
sg64
g101
sg65
g981
sg66
g985
stRp1431
ag1
(g1301
g1155
(dp1432
g62
g74
sg63
g1052
sg64
g73
sg65
g1047
sg66
g1051
stRp1433
ag1
(g1301
g1155
(dp1434
g62
g102
sg63
g1118
sg64
g217
sg65
g1113
sg66
g1117
stRp1435
ag1
(g1301
g1155
(dp1436
g62
g74
sg63
g777
sg64
g160
sg65
g772
sg66
g776
stRp1437
ag1
(g1301
g1155
(dp1438
g62
g74
sg63
g942
sg64
g88
sg65
g937
sg66
g941
stRp1439
ag1
(g1301
g1155
(dp1440
g62
g102
sg63
g689
sg64
g205
sg65
g684
sg66
g688
stRp1441
ag1
(g1301
g1155
(dp1442
g62
g74
sg63
g700
sg64
g160
sg65
g695
sg66
g699
stRp1443
ag1
(g1301
g1155
(dp1444
g62
g102
sg63
g656
sg64
g217
sg65
g651
sg66
g655
stRp1445
ag1
(g1301
g1155
(dp1446
g62
g102
sg63
g997
sg64
g126
sg65
g992
sg66
g996
stRp1447
ag1
(g1301
g1155
(dp1448
g62
g74
sg63
g1107
sg64
g240
sg65
g1102
sg66
g1106
stRp1449
ag1
(g1301
g1155
(dp1450
g62
g74
sg63
g436
sg64
g160
sg65
g431
sg66
g435
stRp1451
ag1
(g1301
g1155
(dp1452
g62
g74
sg63
g667
sg64
g73
sg65
g662
sg66
g666
stRp1453
ag1
(g1301
g1155
(dp1454
g62
g102
sg63
g156
sg64
g101
sg65
g151
sg66
g155
stRp1455
ag1
(g1301
g1155
(dp1456
g62
g102
sg63
g1085
sg64
g217
sg65
g1080
sg66
g1084
stRp1457
ag1
(g1301
g1155
(dp1458
g62
g102
sg63
g403
sg64
g205
sg65
g398
sg66
g402
stRp1459
ag1
(g1301
g1155
(dp1460
g62
g74
sg63
g469
sg64
g160
sg65
g464
sg66
g468
stRp1461
ag1
(g1301
g1155
(dp1462
g62
g74
sg63
g810
sg64
g73
sg65
g805
sg66
g809
stRp1463
ag1
(g1301
g1155
(dp1464
g62
g102
sg63
g425
sg64
g205
sg65
g420
sg66
g424
stRp1465
ag1
(g1301
g1155
(dp1466
g62
g74
sg63
g145
sg64
g88
sg65
g140
sg66
g144
stRp1467
ag1
(g1301
g1155
(dp1468
g62
g102
sg63
g1008
sg64
g217
sg65
g1003
sg66
g1007
stRp1469
ag1
(g1301
g1155
(dp1470
g62
g74
sg63
g524
sg64
g88
sg65
g519
sg66
g523
stRp1471
ag1
(g1301
g1155
(dp1472
g62
g74
sg63
g259
sg64
g160
sg65
g254
sg66
g258
stRp1473
ag1
(g1301
g1155
(dp1474
g62
g102
sg63
g1129
sg64
g101
sg65
g1124
sg66
g1128
stRp1475
ag1
(g1301
g1155
(dp1476
g62
g102
sg63
g110
sg64
g101
sg65
g105
sg66
g109
stRp1477
ag1
(g1301
g1155
(dp1478
g62
g102
sg63
g843
sg64
g126
sg65
g838
sg66
g842
stRp1479
ag1
(g1301
g1155
(dp1480
g62
g102
sg63
g369
sg64
g126
sg65
g364
sg66
g368
stRp1481
ag1
(g1301
g1155
(dp1482
g62
g74
sg63
g281
sg64
g88
sg65
g276
sg66
g280
stRp1483
ag1
(g1301
g1155
(dp1484
g62
g102
sg63
g1063
sg64
g101
sg65
g1058
sg66
g1062
stRp1485
ag1
(g1301
g1155
(dp1486
g62
g102
sg63
g134
sg64
g126
sg65
g129
sg66
g133
stRp1487
ag1
(g1301
g1155
(dp1488
g62
g102
sg63
g634
sg64
g205
sg65
g629
sg66
g633
stRp1489
ag1
(g1301
g1155
(dp1490
g62
g74
sg63
g909
sg64
g73
sg65
g904
sg66
g908
stRp1491
ag1
(g1301
g1155
(dp1492
g62
g74
sg63
g854
sg64
g88
sg65
g849
sg66
g853
stRp1493
asS'seed'
p1494
NsS'thisIndex'
p1495
g1137
sS'thisN'
p1496
I96
sS'thisTrialN'
p1497
I0
sS'nTotal'
p1498
I96
sS'_warnUseOfNext'
p1499
I01
sbasS'savePickle'
p1500
I00
sb.