ccopy_reg
_reconstructor
p1
(cpsychopy.data
ExperimentHandler
p2
c__builtin__
object
p3
NtRp4
(dp5
S'originPath'
p6
NsS'dataFileName'
p7
VC:\u005cDocuments and Settings\u005cExperimental user\u005cMy Documents\u005cconsciousness\u005cuncon_feat\u005cexperiment_scripts\u005cdata/out_Experiment_EEG_version_2019_jul_23_1428
p8
sS'runtimeInfo'
p9
NsS'name'
p10
VExperiment_EEG_version
p11
sS'dataNames'
p12
(lp13
S'image_onset_time'
p14
aS'response_window'
p15
aS'correctAns'
p16
aS'probe_onset'
p17
aS'discrim_resptime'
p18
aS'response.corr'
p19
aS'response.keys'
p20
aS'response.rt'
p21
aS'visible_resptime'
p22
aS'visible.keys'
p23
aS'visible.corr'
p24
aS'visible.rt'
p25
aS'probeFrames'
p26
aS'jitter2'
p27
asS'autoLog'
p28
I01
sS'extraInfo'
p29
(dp30
Vn_square
p31
V32
p32
sVexperiment_color
p33
Vbw
p34
sS'frameRate'
p35
cnumpy.core.multiarray
scalar
p36
(cnumpy
dtype
p37
(S'f8'
I0
I1
tRp38
(I3
S'<'
NNNI-1
I-1
I0
tbS'\x0c\xad\xe0\x12a\xb3X@'
tRp39
sS'date'
p40
V2019_jul_23_1428
p41
sVsession
p42
V012
p43
sVimage_size
p44
V256
p45
sVpremask_dur
p46
V20
p47
sVprobeFrames
p48
V5
sVparticipant
p49
Vout
p50
sS'expName'
p51
g11
sVpostmask_dur
p52
V20
p53
ssS'loopsUnfinished'
p54
(lp55
sS'saveWideText'
p56
I00
sS'thisEntry'
p57
(dp58
sS'version'
p59
S''
sS'_paramNamesSoFar'
p60
(lp61
S'category'
p62
aS'probe_path'
p63
aS'subcategory'
p64
aS'fixation_duration'
p65
aS'label'
p66
asS'entries'
p67
(lp68
(dp69
g31
g32
sg17
F3.7628485751338303
sg24
I1
sg35
g39
sg14
F3.7250152449123561
sg16
g36
(g37
(S'i4'
I0
I1
tRp70
(I3
S'<'
NNNI-1
I-1
I0
tbS'\x02\x00\x00\x00'
tRp71
sg42
g43
sg46
g47
sg15
S'V_nV'
p72
sg22
F6.0409661773592234
sg64
VBuildings
p73
sg62
VNonliving_Things
p74
sg49
g50
sS'trials.thisN'
p75
I0
sg19
I1
sg27
g36
(g38
S'\x00\x00\x00\x00\x00\x00 @'
tRp76
sg52
g53
sg23
S'1'
sg18
F5.0277385343797505
sg33
g34
sg51
g11
sg20
S'2'
sg65
g36
(g37
(S'i8'
I0
I1
tRp77
(I3
S'<'
NNNI-1
I-1
I0
tbS'\x00\x00\x00\x00\x00\x00\x00\x00'
tRp78
sg44
g45
sg40
g41
sg25
F0.22069414798170328
sS'trials.thisIndex'
p79
g36
(g37
(S'i4'
I0
I1
tRp80
(I3
S'<'
NNNI-1
I-1
I0
tbS'\x0e\x00\x00\x00'
tRp81
sg26
V5
sS'trials.thisRepN'
p82
I0
sg66
Vcathedral
p83
sg63
V../experiment_stimuli/bw_bc_bl/Nonliving_Things/Buildings/cathedral_6.jpg
p84
sg21
F0.98237179778516293
sS'trials.thisTrialN'
p85
I0
sa(dp86
g31
g32
sg17
F8.0124771171249449
sg24
I0
sg35
g39
sg14
F7.9942991966381669
sg16
g36
(g70
S'\x01\x00\x00\x00'
tRp87
sg42
g43
sg46
g47
sg15
S'nV_V'
p88
sg22
F10.089484097901732
sg64
VMusical_Inst
p89
sg62
g74
sg49
g50
sS'trials.thisN'
p90
I1
sg19
I1
sg27
g36
(g38
S'\x00\x00\x00\x00\x00\x00\x18@'
tRp91
sg52
g53
sg23
S'2'
sg18
F9.2870208825916052
sg33
g34
sg51
g11
sg20
S'1'
sg65
g36
(g77
S'\x00\x00\x00\x00\x00\x00\x00\x00'
tRp92
sg44
g45
sg40
g41
sg25
F0.93224782543256879
sS'trials.thisIndex'
p93
g36
(g80
S'Y\x00\x00\x00'
tRp94
sg26
V5
sS'trials.thisRepN'
p95
I0
sg66
Vtuba
p96
sg63
V../experiment_stimuli/bw_bc_bl/Nonliving_Things/Musical_Inst/tuba_1.jpg
p97
sg21
F0.78192462399601936
sS'trials.thisTrialN'
p98
I1
sa(dp99
g31
g32
sg17
F12.777468089945614
sg24
I1
sg35
g39
sg14
F12.754667075816542
sg16
g36
(g70
S'\x01\x00\x00\x00'
tRp100
sg42
g43
sg46
g47
sg15
g72
sg22
F15.260794063098729
sg64
VBirds
p101
sg62
VLiving_Things
p102
sg49
g50
sS'trials.thisN'
p103
I2
sg19
I0
sg27
g36
(g38
S'\x00\x00\x00\x00\x00\x00\x1a@'
tRp104
sg52
g53
sg23
S'1'
sg18
F14.03735799761489
sg33
g34
sg51
g11
sg20
S'2'
sg65
g36
(g77
S'\x00\x00\x00\x00\x00\x00\x00\x00'
tRp105
sg44
g45
sg40
g41
sg25
F2.2150482903234661
sS'trials.thisIndex'
p106
g36
(g80
S'&\x00\x00\x00'
tRp107
sg26
V5
sS'trials.thisRepN'
p108
I0
sg66
Vhen
p109
sg63
V../experiment_stimuli/bw_bc_bl/Living_Things/Birds/hen_14.jpg
p110
sg21
F1.202868124935776
sS'trials.thisTrialN'
p111
I2
sa(dp112
g31
g32
sg17
F19.23427469888702
sg24
I1
sg35
g39
sg14
F19.208712236955762
sg16
g36
(g70
S'\x02\x00\x00\x00'
tRp113
sg42
g43
sg46
g47
sg15
g72
sg22
F21.153592651244253
sg64
VVehicles
p114
sg62
g74
sg49
g50
sS'trials.thisN'
p115
I3
sg19
I0
sg27
g36
(g38
S'\x00\x00\x00\x00\x00\x00\x18@'
tRp116
sg52
g53
sg23
S'1'
sg18
F20.51145212398842
sg33
g34
sg51
g11
sg20
S'1'
sg65
g36
(g77
S'\x00\x00\x00\x00\x00\x00\x00\x00'
tRp117
sg44
g45
sg40
g41
sg25
F0.45120588270947337
sS'trials.thisIndex'
p118
g36
(g80
S'\x07\x00\x00\x00'
tRp119
sg26
V5
sS'trials.thisRepN'
p120
I0
sg66
Vboat
p121
sg63
V../experiment_stimuli/bw_bc_bl/Nonliving_Things/Vehicles/boat_15.jpg
p122
sg21
F0.62158692488446832
sS'trials.thisTrialN'
p123
I3
sa(dp124
g31
g32
sg17
F23.356367787811905
sg24
I1
sg35
g39
sg14
F23.337699491996318
sg16
g36
(g70
S'\x02\x00\x00\x00'
tRp125
sg42
g43
sg46
g47
sg15
g88
sg22
F25.493059679400176
sg64
VMarine_creatures
p126
sg62
g102
sg49
g50
sS'trials.thisN'
p127
I4
sg19
I0
sg27
g36
(g38
S'\x00\x00\x00\x00\x00\x00\x1c@'
tRp128
sg52
g53
sg23
S'1'
sg18
F24.640448912512511
sg33
g34
sg51
g11
sg20
S'1'
sg65
g36
(g77
S'\x00\x00\x00\x00\x00\x00\x00\x00'
tRp129
sg44
g45
sg40
g41
sg25
F0.23072089394554496
sS'trials.thisIndex'
p130
g36
(g80
S'1\x00\x00\x00'
tRp131
sg26
V5
sS'trials.thisRepN'
p132
I0
sg66
Vlobster
p133
sg63
V../experiment_stimuli/bw_bc_bl/Living_Things/Marine_creatures/lobster_23.jpg
p134
sg21
F0.83205199521034956
sS'trials.thisTrialN'
p135
I4
sa(dp136
g31
g32
sg17
F27.475819277111441
sg24
I1
sg35
g39
sg14
F27.45669011073187
sg16
g36
(g70
S'\x01\x00\x00\x00'
tRp137
sg42
g43
sg46
g47
sg15
g88
sg22
F29.531871335580945
sg64
g89
sg62
g74
sg49
g50
sS'trials.thisN'
p138
I5
sg19
I1
sg27
g36
(g38
S'\x00\x00\x00\x00\x00\x00\x18@'
tRp139
sg52
g53
sg23
S'1'
sg18
F28.769441762007773
sg33
g34
sg51
g11
sg20
S'1'
sg65
g36
(g77
S'\x00\x00\x00\x00\x00\x00\x00\x00'
tRp140
sg44
g45
sg40
g41
sg25
F0.62141956202685833
sS'trials.thisIndex'
p141
g36
(g80
S'H\x00\x00\x00'
tRp142
sg26
V5
sS'trials.thisRepN'
p143
I0
sg66
Vsaxophone
p144
sg63
V../experiment_stimuli/bw_bc_bl/Nonliving_Things/Musical_Inst/saxophone_0.jpg
p145
sg21
F0.74185225740075111
sS'trials.thisTrialN'
p146
I5
sa(dp147
g31
g32
sg17
F31.900482653174549
sg24
I0
sg35
g39
sg14
F31.88631693739444
sg16
g36
(g70
S'\x01\x00\x00\x00'
tRp148
sg42
g43
sg46
g47
sg15
g88
sg22
F34.462572077289224
sg64
g73
sg62
g74
sg49
g50
sS'trials.thisN'
p149
I6
sg19
I1
sg27
g36
(g38
S'\x00\x00\x00\x00\x00\x00\x18@'
tRp150
sg52
g53
sg23
S'2'
sg18
F33.229141724295914
sg33
g34
sg51
g11
sg20
S'1'
sg65
g36
(g77
S'\x00\x00\x00\x00\x00\x00\x00\x00'
tRp151
sg44
g45
sg40
g41
sg25
F0.64163192734122276
sS'trials.thisIndex'
p152
g36
(g80
S'#\x00\x00\x00'
tRp153
sg26
V5
sS'trials.thisRepN'
p154
I0
sg66
Vgranary
p155
sg63
V../experiment_stimuli/bw_bc_bl/Nonliving_Things/Buildings/granary_20.jpg
p156
sg21
F1.2128861788660288
sS'trials.thisTrialN'
p157
I6
sa(dp158
g31
g32
sg17
F36.848175787366927
sg24
I0
sg35
g39
sg14
F36.83709319261834
sg16
g36
(g70
S'\x02\x00\x00\x00'
tRp159
sg42
g43
sg46
g47
sg15
g72
sg22
F39.15281148860231
sg64
VKitchen_Uten
p160
sg62
g74
sg49
g50
sS'trials.thisN'
p161
I7
sg19
I1
sg27
g36
(g38
S'\x00\x00\x00\x00\x00\x00\x1e@'
tRp162
sg52
g53
sg23
S'3'
sg18
F38.159881089348346
sg33
g34
sg51
g11
sg20
S'2'
sg65
g36
(g77
S'\x00\x00\x00\x00\x00\x00\x00\x00'
tRp163
sg44
g45
sg40
g41
sg25
F0.28082849131897092
sS'trials.thisIndex'
p164
g36
(g80
S'G\x00\x00\x00'
tRp165
sg26
V5
sS'trials.thisRepN'
p166
I0
sg66
Vsaucepan
p167
sg63
V../experiment_stimuli/bw_bc_bl/Nonliving_Things/Kitchen_Uten/saucepan_7.jpg
p168
sg21
F0.97234854055568576
sS'trials.thisTrialN'
p169
I7
sa(dp170
g31
g32
sg17
F41.179506482090801
sg24
I0
sg35
g39
sg14
F41.166514355223626
sg16
g36
(g70
S'\x01\x00\x00\x00'
tRp171
sg42
g43
sg46
g47
sg15
g88
sg22
F43.001001139637083
sg64
g89
sg62
g74
sg49
g50
sS'trials.thisN'
p172
I8
sg19
I1
sg27
g36
(g38
S'\x00\x00\x00\x00\x00\x00 @'
tRp173
sg52
g53
sg23
S'2'
sg18
F42.45924011990428
sg33
g34
sg51
g11
sg20
S'1'
sg65
g36
(g77
S'\x00\x00\x00\x00\x00\x00\x00\x00'
tRp174
sg44
g45
sg40
g41
sg25
F0.89224934112280607
sS'trials.thisIndex'
p175
g36
(g80
S'X\x00\x00\x00'
tRp176
sg26
V5
sS'trials.thisRepN'
p177
I0
sg66
Vtrumpet
p178
sg63
V../experiment_stimuli/bw_bc_bl/Nonliving_Things/Musical_Inst/trumpet_4.jpg
p179
sg21
F0.52120386809110641
sS'trials.thisTrialN'
p180
I8
sa(dp181
g31
g32
sg17
F45.650488579180092
sg24
I1
sg35
g39
sg14
F45.626231415197253
sg16
g36
(g70
S'\x01\x00\x00\x00'
tRp182
sg42
g43
sg46
g47
sg15
g72
sg22
F47.851713025942445
sg64
g101
sg62
g102
sg49
g50
sS'trials.thisN'
p183
I9
sg19
I1
sg27
g36
(g38
S'\x00\x00\x00\x00\x00\x00\x1e@'
tRp184
sg52
g53
sg23
S'1'
sg18
F46.928973384667188
sg33
g34
sg51
g11
sg20
S'1'
sg65
g36
(g77
S'\x00\x00\x00\x00\x00\x00\x00\x00'
tRp185
sg44
g45
sg40
g41
sg25
F0.4411769756115973
sS'trials.thisIndex'
p186
g36
(g80
S'U\x00\x00\x00'
tRp187
sg26
V5
sS'trials.thisRepN'
p188
I0
sg66
Vtoucan
p189
sg63
V../experiment_stimuli/bw_bc_bl/Living_Things/Birds/toucan_17.jpg
p190
sg21
F0.90218938793987036
sS'trials.thisTrialN'
p191
I9
sa(dp192
g31
g32
sg17
F50.050286395475268
sg24
I1
sg35
g39
sg14
F50.025808696169406
sg16
g36
(g70
S'\x02\x00\x00\x00'
tRp193
sg42
g43
sg46
g47
sg15
g88
sg22
F52.040848071221262
sg64
VAnimals
p194
sg62
g102
sg49
g50
sS'trials.thisN'
p195
I10
sg19
I1
sg27
g36
(g38
S'\x00\x00\x00\x00\x00\x00 @'
tRp196
sg52
g53
sg23
S'1'
sg18
F51.348593687172979
sg33
g34
sg51
g11
sg20
S'2'
sg65
g36
(g77
S'\x00\x00\x00\x00\x00\x00\x00\x00'
tRp197
sg44
g45
sg40
g41
sg25
F0.48126732325181365
sS'trials.thisIndex'
p198
g36
(g80
S'T\x00\x00\x00'
tRp199
sg26
V5
sS'trials.thisRepN'
p200
I0
sg66
Vtiger
p201
sg63
V../experiment_stimuli/bw_bc_bl/Living_Things/Animals/tiger_10.jpg
p202
sg21
F0.67169408267363906
sS'trials.thisTrialN'
p203
I10
sa(dp204
g31
g32
sg17
F54.271449183113873
sg24
I1
sg35
g39
sg14
F54.25502719450742
sg16
g36
(g70
S'\x01\x00\x00\x00'
tRp205
sg42
g43
sg46
g47
sg15
g88
sg22
F56.741077630780637
sg64
VFurniture
p206
sg62
g74
sg49
g50
sS'trials.thisN'
p207
I11
sg19
I1
sg27
g36
(g38
S'\x00\x00\x00\x00\x00\x00\x18@'
tRp208
sg52
g53
sg23
S'1'
sg18
F55.577802523970604
sg33
g34
sg51
g11
sg20
S'1'
sg65
g36
(g77
S'\x00\x00\x00\x00\x00\x00\x00\x00'
tRp209
sg44
g45
sg40
g41
sg25
F0.28083002474159002
sS'trials.thisIndex'
p210
g36
(g80
S'E\x00\x00\x00'
tRp211
sg26
V5
sS'trials.thisRepN'
p212
I0
sg66
Vrocking-chair
p213
sg63
V../experiment_stimuli/bw_bc_bl/Nonliving_Things/Furniture/rocking-chair_19.jpg
p214
sg21
F1.1427222373895347
sS'trials.thisTrialN'
p215
I11
sa(dp216
g31
g32
sg17
F58.774800514802337
sg24
I1
sg35
g39
sg14
F58.754813301376998
sg16
g36
(g70
S'\x01\x00\x00\x00'
tRp217
sg42
g43
sg46
g47
sg15
g88
sg22
F60.840034366119653
sg64
g73
sg62
g74
sg49
g50
sS'trials.thisN'
p218
I12
sg19
I1
sg27
g36
(g38
S'\x00\x00\x00\x00\x00\x00\x18@'
tRp219
sg52
g53
sg23
S'1'
sg18
F60.10766383074224
sg33
g34
sg51
g11
sg20
S'1'
sg65
g36
(g77
S'\x00\x00\x00\x00\x00\x00\x00\x00'
tRp220
sg44
g45
sg40
g41
sg25
F0.20066016772761941
sS'trials.thisIndex'
p221
g36
(g80
S'\x0c\x00\x00\x00'
tRp222
sg26
V5
sS'trials.thisRepN'
p223
I0
sg66
Vcastle
p224
sg63
V../experiment_stimuli/bw_bc_bl/Nonliving_Things/Buildings/castle_1.jpg
p225
sg21
F0.71180315129458904
sS'trials.thisTrialN'
p226
I12
sa(dp227
g31
g32
sg17
F62.796975797042251
sg24
I0
sg35
g39
sg14
F62.773564924951643
sg16
g36
(g70
S'\x01\x00\x00\x00'
tRp228
sg42
g43
sg46
g47
sg15
g72
sg22
F64.838686724193394
sg64
g126
sg62
g102
sg49
g50
sS'trials.thisN'
p229
I13
sg19
I1
sg27
g36
(g38
S'\x00\x00\x00\x00\x00\x00\x1c@'
tRp230
sg52
g53
sg23
S'2'
sg18
F64.14645712217316
sg33
g34
sg51
g11
sg20
S'1'
sg65
g36
(g77
S'\x00\x00\x00\x00\x00\x00\x00\x00'
tRp231
sg44
g45
sg40
g41
sg25
F0.46122435061261058
sS'trials.thisIndex'
p232
g36
(g80
S'\x17\x00\x00\x00'
tRp233
sg26
V5
sS'trials.thisRepN'
p234
I0
sg66
Vdolphin
p235
sg63
V../experiment_stimuli/bw_bc_bl/Living_Things/Marine_creatures/dolphin_2.jpg
p236
sg21
F0.67168074427172542
sS'trials.thisTrialN'
p237
I13
sa(dp238
g31
g32
sg17
F67.053923584055156
sg24
I1
sg35
g39
sg14
F67.032845043577254
sg16
g36
(g70
S'\x01\x00\x00\x00'
tRp239
sg42
g43
sg46
g47
sg15
g72
sg22
F69.27838696911931
sg64
g101
sg62
g102
sg49
g50
sS'trials.thisN'
p240
I14
sg19
I0
sg27
g36
(g38
S'\x00\x00\x00\x00\x00\x00\x1a@'
tRp241
sg52
g53
sg23
S'1'
sg18
F68.395713138394058
sg33
g34
sg51
g11
sg20
S'2'
sg65
g36
(g77
S'\x00\x00\x00\x00\x00\x00\x00\x00'
tRp242
sg44
g45
sg40
g41
sg25
F0.29085366148501635
sS'trials.thisIndex'
p243
g36
(g80
S'3\x00\x00\x00'
tRp244
sg26
V5
sS'trials.thisRepN'
p245
I0
sg66
Vmagpie
p246
sg63
V../experiment_stimuli/bw_bc_bl/Living_Things/Birds/magpie_26.jpg
p247
sg21
F0.86210244661197066
sS'trials.thisTrialN'
p248
I14
sa(dp249
g31
g32
sg17
F71.335276901721954
sg24
I1
sg35
g39
sg14
F71.302133728284389
sg16
g36
(g70
S'\x02\x00\x00\x00'
tRp250
sg42
g43
sg46
g47
sg15
g88
sg22
F73.557698775548488
sg64
g126
sg62
g102
sg49
g50
sS'trials.thisN'
p251
I15
sg19
I0
sg27
g36
(g38
S'\x00\x00\x00\x00\x00\x00\x1a@'
tRp252
sg52
g53
sg23
S'1'
sg18
F72.695070292800665
sg33
g34
sg51
g11
sg20
S'1'
sg65
g36
(g77
S'\x00\x00\x00\x00\x00\x00\x00\x00'
tRp253
sg44
g45
sg40
g41
sg25
F0.18061359040439129
sS'trials.thisIndex'
p254
g36
(g80
S'K\x00\x00\x00'
tRp255
sg26
V5
sS'trials.thisRepN'
p256
I0
sg66
Vshark
p257
sg63
V../experiment_stimuli/bw_bc_bl/Living_Things/Marine_creatures/shark_7.jpg
p258
sg21
F0.84205867303535342
sS'trials.thisTrialN'
p259
I15
sa(dp260
g31
g32
sg17
F75.492174334824085
sg24
I0
sg35
g39
sg14
F75.471239499747753
sg16
g36
(g70
S'\x01\x00\x00\x00'
tRp261
sg42
g43
sg46
g47
sg15
g72
sg22
F77.636578399688005
sg64
g101
sg62
g102
sg49
g50
sS'trials.thisN'
p262
I16
sg19
I1
sg27
g36
(g38
S'\x00\x00\x00\x00\x00\x00\x18@'
tRp263
sg52
g53
sg23
S'2'
sg18
F76.87417083280161
sg33
g34
sg51
g11
sg20
S'1'
sg65
g36
(g77
S'\x00\x00\x00\x00\x00\x00\x00\x00'
tRp264
sg44
g45
sg40
g41
sg25
F0.45121728861704469
sS'trials.thisIndex'
p265
g36
(g80
S'\x1a\x00\x00\x00'
tRp266
sg26
V5
sS'trials.thisRepN'
p267
I0
sg66
Vduck
p268
sg63
V../experiment_stimuli/bw_bc_bl/Living_Things/Birds/duck_18.jpg
p269
sg21
F0.74184685107320547
sS'trials.thisTrialN'
p270
I16
sa(dp271
g31
g32
sg17
F79.844245919492096
sg24
I0
sg35
g39
sg14
F79.820681248325855
sg16
g36
(g70
S'\x01\x00\x00\x00'
tRp272
sg42
g43
sg46
g47
sg15
g88
sg22
F81.765390292275697
sg64
g206
sg62
g74
sg49
g50
sS'trials.thisN'
p273
I17
sg19
I1
sg27
g36
(g38
S'\x00\x00\x00\x00\x00\x00\x1a@'
tRp274
sg52
g53
sg23
S'3'
sg18
F81.223648265004158
sg33
g34
sg51
g11
sg20
S'1'
sg65
g36
(g77
S'\x00\x00\x00\x00\x00\x00\x00\x00'
tRp275
sg44
g45
sg40
g41
sg25
F0.9723416087217629
sS'trials.thisIndex'
p276
g36
(g80
S'/\x00\x00\x00'
tRp277
sg26
V5
sS'trials.thisRepN'
p278
I0
sg66
Vlectern
p279
sg63
V../experiment_stimuli/bw_bc_bl/Nonliving_Things/Furniture/lectern_20.jpg
p280
sg21
F0.52120348811149597
sS'trials.thisTrialN'
p281
I17
sa(dp282
g31
g32
sg17
F84.49033216945827
sg24
I0
sg35
g39
sg14
F84.470816597342491
sg16
g36
(g70
S'\x02\x00\x00\x00'
tRp283
sg42
g43
sg46
g47
sg15
g72
sg22
F86.756416103802621
sg64
g89
sg62
g74
sg49
g50
sS'trials.thisN'
p284
I18
sg19
I1
sg27
g36
(g38
S'\x00\x00\x00\x00\x00\x00\x1a@'
tRp285
sg52
g53
sg23
S'2'
sg18
F85.833687345962971
sg33
g34
sg51
g11
sg20
S'2'
sg65
g36
(g77
S'\x00\x00\x00\x00\x00\x00\x00\x00'
tRp286
sg44
g45
sg40
g41
sg25
F0.25076273875311017
sS'trials.thisIndex'
p287
g36
(g80
S'>\x00\x00\x00'
tRp288
sg26
V5
sS'trials.thisRepN'
p289
I0
sg66
Vpiano
p290
sg63
V../experiment_stimuli/bw_bc_bl/Nonliving_Things/Musical_Inst/piano__10.jpg
p291
sg21
F0.90218771155923605
sS'trials.thisTrialN'
p292
I18
sa(dp293
g31
g32
sg17
F88.763979148585349
sg24
I0
sg35
g39
sg14
F88.740107841789722
sg16
g36
(g70
S'\x02\x00\x00\x00'
tRp294
sg42
g43
sg46
g47
sg15
g72
sg22
F90.795228372793645
sg64
g206
sg62
g74
sg49
g50
sS'trials.thisN'
p295
I19
sg19
I1
sg27
g36
(g38
S'\x00\x00\x00\x00\x00\x00\x1c@'
tRp296
sg52
g53
sg23
S'3'
sg18
F90.102977158036083
sg33
g34
sg51
g11
sg20
S'2'
sg65
g36
(g77
S'\x00\x00\x00\x00\x00\x00\x00\x00'
tRp297
sg44
g45
sg40
g41
sg25
F0.23072044271975756
sS'trials.thisIndex'
p298
g36
(g80
S'\x1d\x00\x00\x00'
tRp299
sg26
V5
sS'trials.thisRepN'
p300
I0
sg66
Vfilling-cabinet
p301
sg63
V../experiment_stimuli/bw_bc_bl/Nonliving_Things/Furniture/filling-cabinet_13.jpg
p302
sg21
F0.67170488648116589
sS'trials.thisTrialN'
p303
I19
sa(dp304
g31
g32
sg17
F92.772987245582044
sg24
I1
sg35
g39
sg14
F92.758856781292707
sg16
g36
(g70
S'\x02\x00\x00\x00'
tRp305
sg42
g43
sg46
g47
sg15
g88
sg22
F94.803945739287883
sg64
g194
sg62
g102
sg49
g50
sS'trials.thisN'
p306
I20
sg19
I0
sg27
g36
(g38
S'\x00\x00\x00\x00\x00\x00\x18@'
tRp307
sg52
g53
sg23
S'1'
sg18
F94.081641655880958
sg33
g34
sg51
g11
sg20
S'1'
sg65
g36
(g77
S'\x00\x00\x00\x00\x00\x00\x00\x00'
tRp308
sg44
g45
sg40
g41
sg25
F0.2607933827675879
sS'trials.thisIndex'
p309
g36
(g80
S'Z\x00\x00\x00'
tRp310
sg26
V5
sS'trials.thisRepN'
p311
I0
sg66
Vturtle
p312
sg63
V../experiment_stimuli/bw_bc_bl/Living_Things/Animals/turtle_4.jpg
p313
sg21
F0.70175206381827593
sS'trials.thisTrialN'
p314
I20
sa(dp315
g31
g32
sg17
F96.816431573592126
sg24
I0
sg35
g39
sg14
F96.797677696682513
sg16
g36
(g70
S'\x01\x00\x00\x00'
tRp316
sg42
g43
sg46
g47
sg15
g72
sg22
F100.0253140241839
sg64
g194
sg62
g102
sg49
g50
sS'trials.thisN'
p317
I21
sg19
I1
sg27
g36
(g38
S'\x00\x00\x00\x00\x00\x00\x18@'
tRp318
sg52
g53
sg23
S'2'
sg18
F98.140480074100196
sg33
g34
sg51
g11
sg20
S'1'
sg65
g36
(g77
S'\x00\x00\x00\x00\x00\x00\x00\x00'
tRp319
sg44
g45
sg40
g41
sg25
F0.37103906366974115
sS'trials.thisIndex'
p320
g36
(g80
S'R\x00\x00\x00'
tRp321
sg26
V5
sS'trials.thisRepN'
p322
I0
sg66
Vtapir
p323
sg63
V../experiment_stimuli/bw_bc_bl/Living_Things/Animals/tapir_11.jpg
p324
sg21
F1.8642872874625027
sS'trials.thisTrialN'
p325
I21
sa(dp326
g31
g32
sg17
F102.14852204918861
sg24
I1
sg35
g39
sg14
F102.1292595686391
sg16
g36
(g70
S'\x02\x00\x00\x00'
tRp327
sg42
g43
sg46
g47
sg15
g72
sg22
F104.18438232457265
sg64
g160
sg62
g74
sg49
g50
sS'trials.thisN'
p328
I22
sg19
I1
sg27
g36
(g38
S'\x00\x00\x00\x00\x00\x00\x18@'
tRp329
sg52
g53
sg23
S'1'
sg18
F103.46206524502486
sg33
g34
sg51
g11
sg20
S'2'
sg65
g36
(g77
S'\x00\x00\x00\x00\x00\x00\x00\x00'
tRp330
sg44
g45
sg40
g41
sg25
F0.31074155354872346
sS'trials.thisIndex'
p331
g36
(g80
S'S\x00\x00\x00'
tRp332
sg26
V5
sS'trials.thisRepN'
p333
I0
sg66
Vteapot
p334
sg63
V../experiment_stimuli/bw_bc_bl/Nonliving_Things/Kitchen_Uten/teapot_19.jpg
p335
sg21
F0.70175295136868954
sS'trials.thisTrialN'
p336
I22
sa(dp337
g31
g32
sg17
F106.25249808048829
sg24
I1
sg35
g39
sg14
F106.22818834939972
sg16
g36
(g70
S'\x01\x00\x00\x00'
tRp338
sg42
g43
sg46
g47
sg15
g72
sg22
F109.08505161479115
sg64
g101
sg62
g102
sg49
g50
sS'trials.thisN'
p339
I23
sg19
I0
sg27
g36
(g38
S'\x00\x00\x00\x00\x00\x00\x1e@'
tRp340
sg52
g53
sg23
S'1'
sg18
F107.60107547184452
sg33
g34
sg51
g11
sg20
S'2'
sg65
g36
(g77
S'\x00\x00\x00\x00\x00\x00\x00\x00'
tRp341
sg44
g45
sg40
g41
sg25
F0.30071654450148344
sS'trials.thisIndex'
p342
g36
(g80
S'C\x00\x00\x00'
tRp343
sg26
V5
sS'trials.thisRepN'
p344
I0
sg66
Vraven
p345
sg63
V../experiment_stimuli/bw_bc_bl/Living_Things/Birds/raven_17.jpg
p346
sg21
F1.463414503261447
sS'trials.thisTrialN'
p347
I23
sa(dp348
g31
g32
sg17
F111.13871536729857
sg24
I1
sg35
g39
sg14
F111.11883856635541
sg16
g36
(g70
S'\x02\x00\x00\x00'
tRp349
sg42
g43
sg46
g47
sg15
g88
sg22
F113.43455717805773
sg64
g126
sg62
g102
sg49
g50
sS'trials.thisN'
p350
I24
sg19
I0
sg27
g36
(g38
S'\x00\x00\x00\x00\x00\x00\x1a@'
tRp351
sg52
g53
sg23
S'1'
sg18
F112.50175319705158
sg33
g34
sg51
g11
sg20
S'1'
sg65
g36
(g77
S'\x00\x00\x00\x00\x00\x00\x00\x00'
tRp352
sg44
g45
sg40
g41
sg25
F0.20067687891423702
sS'trials.thisIndex'
p353
g36
(g80
S'7\x00\x00\x00'
tRp354
sg26
V5
sS'trials.thisRepN'
p355
I0
sg66
Vnarwhal
p356
sg63
V../experiment_stimuli/bw_bc_bl/Living_Things/Marine_creatures/narwhal_19.jpg
p357
sg21
F0.91222176980227232
sS'trials.thisTrialN'
p358
I24
sa(dp359
g31
g32
sg17
F115.3883879208006
sg24
I0
sg35
g39
sg14
F115.3680847552605
sg16
g36
(g70
S'\x01\x00\x00\x00'
tRp360
sg42
g43
sg46
g47
sg15
g72
sg22
F119.28727052733302
sg64
g101
sg62
g102
sg49
g50
sS'trials.thisN'
p361
I25
sg19
I1
sg27
g36
(g38
S'\x00\x00\x00\x00\x00\x00\x18@'
tRp362
sg52
g53
sg23
S'2'
sg18
F116.77104598330334
sg33
g34
sg51
g11
sg20
S'1'
sg65
g36
(g77
S'\x00\x00\x00\x00\x00\x00\x00\x00'
tRp363
sg44
g45
sg40
g41
sg25
F0.81199323339387774
sS'trials.thisIndex'
p364
g36
(g80
S'?\x00\x00\x00'
tRp365
sg26
V5
sS'trials.thisRepN'
p366
I0
sg66
Vpigeon
p367
sg63
V../experiment_stimuli/bw_bc_bl/Living_Things/Birds/pigeon_10.jpg
p368
sg21
F2.4956668512895703
sS'trials.thisTrialN'
p369
I25
sa(dp370
g31
g32
sg17
F121.84524731431156
sg24
I1
sg35
g39
sg14
F121.83216824522242
sg16
g36
(g70
S'\x01\x00\x00\x00'
tRp371
sg42
g43
sg46
g47
sg15
g88
sg22
F123.97747833002359
sg64
g114
sg62
g74
sg49
g50
sS'trials.thisN'
p372
I26
sg19
I0
sg27
g36
(g38
S'\x00\x00\x00\x00\x00\x00\x18@'
tRp373
sg52
g53
sg23
S'1'
sg18
F123.21508721029386
sg33
g34
sg51
g11
sg20
S'2'
sg65
g36
(g77
S'\x00\x00\x00\x00\x00\x00\x00\x00'
tRp374
sg44
g45
sg40
g41
sg25
F0.28081822814419866
sS'trials.thisIndex'
p375
g36
(g80
S'@\x00\x00\x00'
tRp376
sg26
V5
sS'trials.thisRepN'
p377
I0
sg66
Vplane
p378
sg63
V../experiment_stimuli/bw_bc_bl/Nonliving_Things/Vehicles/plane_9.jpg
p379
sg21
F0.73182347044348717
sS'trials.thisTrialN'
p380
I26
sa(dp381
g31
g32
sg17
F126.00909450743347
sg24
I0
sg35
g39
sg14
F125.99121693661436
sg16
g36
(g70
S'\x02\x00\x00\x00'
tRp382
sg42
g43
sg46
g47
sg15
g72
sg22
F127.96619452396408
sg64
g73
sg62
g74
sg49
g50
sS'trials.thisN'
p383
I27
sg19
I1
sg27
g36
(g38
S'\x00\x00\x00\x00\x00\x00\x18@'
tRp384
sg52
g53
sg23
S'2'
sg18
F127.4142222572118
sg33
g34
sg51
g11
sg20
S'2'
sg65
g36
(g77
S'\x00\x00\x00\x00\x00\x00\x00\x00'
tRp385
sg44
g45
sg40
g41
sg25
F0.62157267332077026
sS'trials.thisIndex'
p386
g36
(g80
S'\x1c\x00\x00\x00'
tRp387
sg26
V5
sS'trials.thisRepN'
p388
I0
sg66
Vfactory
p389
sg63
V../experiment_stimuli/bw_bc_bl/Nonliving_Things/Buildings/factory_3.jpg
p390
sg21
F0.53138871723785996
sS'trials.thisTrialN'
p391
I27
sa(dp392
g31
g32
sg17
F130.33306201454252
sg24
I0
sg35
g39
sg14
F130.32065156893805
sg16
g36
(g70
S'\x01\x00\x00\x00'
tRp393
sg42
g43
sg46
g47
sg15
g88
sg22
F132.52609359798953
sg64
g114
sg62
g74
sg49
g50
sS'trials.thisN'
p394
I28
sg19
I1
sg27
g36
(g38
S'\x00\x00\x00\x00\x00\x00 @'
tRp395
sg52
g53
sg23
S'3'
sg18
F131.72360997740179
sg33
g34
sg51
g11
sg20
S'1'
sg65
g36
(g77
S'\x00\x00\x00\x00\x00\x00\x00\x00'
tRp396
sg44
g45
sg40
g41
sg25
F0.32092065084725618
sS'trials.thisIndex'
p397
g36
(g80
S'6\x00\x00\x00'
tRp398
sg26
V5
sS'trials.thisRepN'
p399
I0
sg66
Vmotorbike
p400
sg63
V../experiment_stimuli/bw_bc_bl/Nonliving_Things/Vehicles/motorbike_26.jpg
p401
sg21
F0.7819356881082058
sS'trials.thisTrialN'
p402
I28
sa(dp403
g31
g32
sg17
F134.59994146507233
sg24
I0
sg35
g39
sg14
F134.57992537226528
sg16
g36
(g70
S'\x02\x00\x00\x00'
tRp404
sg42
g43
sg46
g47
sg15
g88
sg22
F137.72745966957882
sg64
g101
sg62
g102
sg49
g50
sS'trials.thisN'
p405
I29
sg19
I1
sg27
g36
(g38
S'\x00\x00\x00\x00\x00\x00\x1a@'
tRp406
sg52
g53
sg23
S'3'
sg18
F135.97285729786381
sg33
g34
sg51
g11
sg20
S'2'
sg65
g36
(g77
S'\x00\x00\x00\x00\x00\x00\x00\x00'
tRp407
sg44
g45
sg40
g41
sg25
F0.48129439074546099
sS'trials.thisIndex'
p408
g36
(g80
S'"\x00\x00\x00'
tRp409
sg26
V5
sS'trials.thisRepN'
p410
I0
sg66
Vgoose
p411
sg63
V../experiment_stimuli/bw_bc_bl/Living_Things/Birds/goose_15.jpg
p412
sg21
F1.7340222732163966
sS'trials.thisTrialN'
p413
I29
sa(dp414
g31
g32
sg17
F139.9588080891408
sg24
I0
sg35
g39
sg14
F139.9415967441164
sg16
g36
(g70
S'\x01\x00\x00\x00'
tRp415
sg42
g43
sg46
g47
sg15
g88
sg22
F142.32742821145803
sg64
g206
sg62
g74
sg49
g50
sS'trials.thisN'
p416
I30
sg19
I1
sg27
g36
(g38
S'\x00\x00\x00\x00\x00\x00\x1c@'
tRp417
sg52
g53
sg23
S'2'
sg18
F141.304468838498
sg33
g34
sg51
g11
sg20
S'1'
sg65
g36
(g77
S'\x00\x00\x00\x00\x00\x00\x00\x00'
tRp418
sg44
g45
sg40
g41
sg25
F0.33094190387055278
sS'trials.thisIndex'
p419
g36
(g80
S'\x00\x00\x00\x00'
tRp420
sg26
V5
sS'trials.thisRepN'
p421
I0
sg66
VChest-of-drawers
p422
sg63
V../experiment_stimuli/bw_bc_bl/Nonliving_Things/Furniture/Chest-of-drawers_8.jpg
p423
sg21
F1.0024119508452713
sS'trials.thisTrialN'
p424
I30
sa(dp425
g31
g32
sg17
F144.40969164250419
sg24
I0
sg35
g39
sg14
F144.39128660364076
sg16
g36
(g70
S'\x02\x00\x00\x00'
tRp426
sg42
g43
sg46
g47
sg15
g88
sg22
F146.74707106687129
sg64
g194
sg62
g102
sg49
g50
sS'trials.thisN'
p427
I31
sg19
I1
sg27
g36
(g38
S'\x00\x00\x00\x00\x00\x00 @'
tRp428
sg52
g53
sg23
S'2'
sg18
F145.74414168903604
sg33
g34
sg51
g11
sg20
S'2'
sg65
g36
(g77
S'\x00\x00\x00\x00\x00\x00\x00\x00'
tRp429
sg44
g45
sg40
g41
sg25
F0.21068183472380042
sS'trials.thisIndex'
p430
g36
(g80
S'0\x00\x00\x00'
tRp431
sg26
V5
sS'trials.thisRepN'
p432
I0
sg66
Vlioness
p433
sg63
V../experiment_stimuli/bw_bc_bl/Living_Things/Animals/lioness_11.jpg
p434
sg21
F0.98236824525520205
sS'trials.thisTrialN'
p435
I31
sa(dp436
g31
g32
sg17
F148.71019673580304
sg24
I0
sg35
g39
sg14
F148.69065280305222
sg16
g36
(g70
S'\x01\x00\x00\x00'
tRp437
sg42
g43
sg46
g47
sg15
g72
sg22
F150.77581637585536
sg64
g101
sg62
g102
sg49
g50
sS'trials.thisN'
p438
I32
sg19
I1
sg27
g36
(g38
S'\x00\x00\x00\x00\x00\x00\x18@'
tRp439
sg52
g53
sg23
S'2'
sg18
F150.03347488725558
sg33
g34
sg51
g11
sg20
S'1'
sg65
g36
(g77
S'\x00\x00\x00\x00\x00\x00\x00\x00'
tRp440
sg44
g45
sg40
g41
sg25
F0.74183929478749633
sS'trials.thisIndex'
p441
g36
(g80
S'8\x00\x00\x00'
tRp442
sg26
V5
sS'trials.thisRepN'
p443
I0
sg66
Vostrich
p444
sg63
V../experiment_stimuli/bw_bc_bl/Living_Things/Birds/ostrich_11.jpg
p445
sg21
F0.72179454425349832
sS'trials.thisTrialN'
p446
I32
sa(dp447
g31
g32
sg17
F153.26625609910116
sg24
I0
sg35
g39
sg14
F153.25058379396796
sg16
g36
(g70
S'\x02\x00\x00\x00'
tRp448
sg42
g43
sg46
g47
sg15
g72
sg22
F155.67651089141145
sg64
g206
sg62
g74
sg49
g50
sS'trials.thisN'
p449
I33
sg19
I1
sg27
g36
(g38
S'\x00\x00\x00\x00\x00\x00\x18@'
tRp450
sg52
g53
sg23
S'3'
sg18
F154.58338139951229
sg33
g34
sg51
g11
sg20
S'2'
sg65
g36
(g77
S'\x00\x00\x00\x00\x00\x00\x00\x00'
tRp451
sg44
g45
sg40
g41
sg25
F0.69172749109566212
sS'trials.thisIndex'
p452
g36
(g80
S'Q\x00\x00\x00'
tRp453
sg26
V5
sS'trials.thisRepN'
p454
I0
sg66
Vtable
p455
sg63
V../experiment_stimuli/bw_bc_bl/Nonliving_Things/Furniture/table_10.jpg
p456
sg21
F1.0725644342601299
sS'trials.thisTrialN'
p457
I33
sa(dp458
g31
g32
sg17
F158.11892584059387
sg24
I0
sg35
g39
sg14
F158.10113717895001
sg16
g36
(g70
S'\x02\x00\x00\x00'
tRp459
sg42
g43
sg46
g47
sg15
g72
sg22
F159.99590499605983
sg64
g206
sg62
g74
sg49
g50
sS'trials.thisN'
p460
I34
sg19
I1
sg27
g36
(g38
S'\x00\x00\x00\x00\x00\x00\x1e@'
tRp461
sg52
g53
sg23
S'3'
sg18
F159.4138998077251
sg33
g34
sg51
g11
sg20
S'2'
sg65
g36
(g77
S'\x00\x00\x00\x00\x00\x00\x00\x00'
tRp462
sg44
g45
sg40
g41
sg25
F0.29086147388443351
sS'trials.thisIndex'
p463
g36
(g80
S'.\x00\x00\x00'
tRp464
sg26
V5
sS'trials.thisRepN'
p465
I0
sg66
Vlamp
p466
sg63
V../experiment_stimuli/bw_bc_bl/Nonliving_Things/Furniture/lamp_12.jpg
p467
sg21
F0.56144766882061958
sS'trials.thisTrialN'
p468
I34
sa(dp469
g31
g32
sg17
F162.04804272390902
sg24
I0
sg35
g39
sg14
F162.01967117935419
sg16
g36
(g70
S'\x02\x00\x00\x00'
tRp470
sg42
g43
sg46
g47
sg15
g72
sg22
F163.91443770704791
sg64
g73
sg62
g74
sg49
g50
sS'trials.thisN'
p471
I35
sg19
I1
sg27
g36
(g38
S'\x00\x00\x00\x00\x00\x00\x1e@'
tRp472
sg52
g53
sg23
S'2'
sg18
F163.31239133188501
sg33
g34
sg51
g11
sg20
S'2'
sg65
g36
(g77
S'\x00\x00\x00\x00\x00\x00\x00\x00'
tRp473
sg44
g45
sg40
g41
sg25
F0.11045970860868692
sS'trials.thisIndex'
p474
g36
(g80
S':\x00\x00\x00'
tRp475
sg26
V5
sS'trials.thisRepN'
p476
I0
sg66
Vpalace
p477
sg63
V../experiment_stimuli/bw_bc_bl/Nonliving_Things/Buildings/palace_8.jpg
p478
sg21
F0.58149046869948506
sS'trials.thisTrialN'
p479
I35
sa(dp480
g31
g32
sg17
F165.78237918065861
sg24
I1
sg35
g39
sg14
F165.75781568931416
sg16
g36
(g70
S'\x01\x00\x00\x00'
tRp481
sg42
g43
sg46
g47
sg15
g72
sg22
F167.79291229601949
sg64
g194
sg62
g102
sg49
g50
sS'trials.thisN'
p482
I36
sg19
I0
sg27
g36
(g38
S'\x00\x00\x00\x00\x00\x00\x18@'
tRp483
sg52
g53
sg23
S'1'
sg18
F167.04051380651072
sg33
g34
sg51
g11
sg20
S'2'
sg65
g36
(g77
S'\x00\x00\x00\x00\x00\x00\x00\x00'
tRp484
sg44
g45
sg40
g41
sg25
F0.24074657959863544
sS'trials.thisIndex'
p485
g36
(g80
S'2\x00\x00\x00'
tRp486
sg26
V5
sS'trials.thisRepN'
p487
I0
sg66
Vlynx
p488
sg63
V../experiment_stimuli/bw_bc_bl/Living_Things/Animals/lynx_3.jpg
p489
sg21
F0.73184124100953341
sS'trials.thisTrialN'
p490
I36
sa(dp491
g31
g32
sg17
F169.78659576829523
sg24
I0
sg35
g39
sg14
F169.76655313465744
sg16
g36
(g70
S'\x02\x00\x00\x00'
tRp492
sg42
g43
sg46
g47
sg15
g88
sg22
F172.68353105476126
sg64
g101
sg62
g102
sg49
g50
sS'trials.thisN'
p493
I37
sg19
I1
sg27
g36
(g38
S'\x00\x00\x00\x00\x00\x00\x18@'
tRp494
sg52
g53
sg23
S'2'
sg18
F171.04924025945365
sg33
g34
sg51
g11
sg20
S'2'
sg65
g36
(g77
S'\x00\x00\x00\x00\x00\x00\x00\x00'
tRp495
sg44
g45
sg40
g41
sg25
F1.1627529393881559
sS'trials.thisIndex'
p496
g36
(g80
S'9\x00\x00\x00'
tRp497
sg26
V5
sS'trials.thisRepN'
p498
I0
sg66
Vowl
p499
sg63
V../experiment_stimuli/bw_bc_bl/Living_Things/Birds/owl_6.jpg
p500
sg21
F1.6137293204665184
sS'trials.thisTrialN'
p501
I37
sa(dp502
g31
g32
sg17
F175.59696877934039
sg24
I0
sg35
g39
sg14
F175.57920041820034
sg16
g36
(g70
S'\x01\x00\x00\x00'
tRp503
sg42
g43
sg46
g47
sg15
g72
sg22
F177.54411511356011
sg64
g101
sg62
g102
sg49
g50
sS'trials.thisN'
p504
I38
sg19
I1
sg27
g36
(g38
S'\x00\x00\x00\x00\x00\x00\x18@'
tRp505
sg52
g53
sg23
S'2'
sg18
F176.85187204135582
sg33
g34
sg51
g11
sg20
S'1'
sg65
g36
(g77
S'\x00\x00\x00\x00\x00\x00\x00\x00'
tRp506
sg44
g45
sg40
g41
sg25
F0.46122174523770809
sS'trials.thisIndex'
p507
g36
(g80
S'\x04\x00\x00\x00'
tRp508
sg26
V5
sS'trials.thisRepN'
p509
I0
sg66
Vbarn-owl
p510
sg63
V../experiment_stimuli/bw_bc_bl/Living_Things/Birds/barn-owl_26.jpg
p511
sg21
F0.66166754718869925
sS'trials.thisTrialN'
p512
I38
sa(dp513
g31
g32
sg17
F179.75462923431769
sg24
I1
sg35
g39
sg14
F179.73826982779428
sg16
g36
(g70
S'\x01\x00\x00\x00'
tRp514
sg42
g43
sg46
g47
sg15
g72
sg22
F181.57289633201435
sg64
VInsects
p515
sg62
g102
sg49
g50
sS'trials.thisN'
p516
I39
sg19
I1
sg27
g36
(g38
S'\x00\x00\x00\x00\x00\x00\x18@'
tRp517
sg52
g53
sg23
S'1'
sg18
F181.00090454006568
sg33
g34
sg51
g11
sg20
S'1'
sg65
g36
(g77
S'\x00\x00\x00\x00\x00\x00\x00\x00'
tRp518
sg44
g45
sg40
g41
sg25
F0.15054293163120747
sS'trials.thisIndex'
p519
g36
(g80
S'\n\x00\x00\x00'
tRp520
sg26
V5
sS'trials.thisRepN'
p521
I0
sg66
Vbutterfly
p522
sg63
V../experiment_stimuli/bw_bc_bl/Living_Things/Insects/butterfly_10.jpg
p523
sg21
F0.55143796419724822
sS'trials.thisTrialN'
p524
I39
sa(dp525
g31
g32
sg17
F183.47526097716764
sg24
I1
sg35
g39
sg14
F183.4563541165553
sg16
g36
(g70
S'\x01\x00\x00\x00'
tRp526
sg42
g43
sg46
g47
sg15
g72
sg22
F185.48140034265816
sg64
g101
sg62
g102
sg49
g50
sS'trials.thisN'
p527
I40
sg19
I1
sg27
g36
(g38
S'\x00\x00\x00\x00\x00\x00\x18@'
tRp528
sg52
g53
sg23
S'1'
sg18
F184.73905009496957
sg33
g34
sg51
g11
sg20
S'1'
sg65
g36
(g77
S'\x00\x00\x00\x00\x00\x00\x00\x00'
tRp529
sg44
g45
sg40
g41
sg25
F0.16056280164048076
sS'trials.thisIndex'
p530
g36
(g80
S'F\x00\x00\x00'
tRp531
sg26
V5
sS'trials.thisRepN'
p532
I0
sg66
Vrooster
p533
sg63
V../experiment_stimuli/bw_bc_bl/Living_Things/Birds/rooster_17.jpg
p534
sg21
F0.72180295409634709
sS'trials.thisTrialN'
p535
I40
sa(dp536
g31
g32
sg17
F187.38982757693157
sg24
I1
sg35
g39
sg14
F187.37489240290597
sg16
g36
(g70
S'\x02\x00\x00\x00'
tRp537
sg42
g43
sg46
g47
sg15
g72
sg22
F189.36985872685909
sg64
g160
sg62
g74
sg49
g50
sS'trials.thisN'
p538
I41
sg19
I1
sg27
g36
(g38
S'\x00\x00\x00\x00\x00\x00\x1e@'
tRp539
sg52
g53
sg23
S'1'
sg18
F188.67762553039938
sg33
g34
sg51
g11
sg20
S'2'
sg65
g36
(g77
S'\x00\x00\x00\x00\x00\x00\x00\x00'
tRp540
sg44
g45
sg40
g41
sg25
F0.23071619076654315
sS'trials.thisIndex'
p541
g36
(g80
S'M\x00\x00\x00'
tRp542
sg26
V5
sS'trials.thisRepN'
p543
I0
sg66
Vsmall-saucepan
p544
sg63
V../experiment_stimuli/bw_bc_bl/Nonliving_Things/Kitchen_Uten/small-saucepan_4.jpg
p545
sg21
F0.67168727377429605
sS'trials.thisTrialN'
p546
I41
sa(dp547
g31
g32
sg17
F191.34804743342102
sg24
I1
sg35
g39
sg14
F191.33350437926129
sg16
g36
(g70
S'\x01\x00\x00\x00'
tRp548
sg42
g43
sg46
g47
sg15
g88
sg22
F197.86838702578098
sg64
g206
sg62
g74
sg49
g50
sS'trials.thisN'
p549
I42
sg19
I1
sg27
g36
(g38
S'\x00\x00\x00\x00\x00\x00\x18@'
tRp550
sg52
g53
sg23
S'1'
sg18
F192.64626856101677
sg33
g34
sg51
g11
sg20
S'1'
sg65
g36
(g77
S'\x00\x00\x00\x00\x00\x00\x00\x00'
tRp551
sg44
g45
sg40
g41
sg25
F0.65164650836959481
sS'trials.thisIndex'
p552
g36
(g80
S'\x0f\x00\x00\x00'
tRp553
sg26
V5
sS'trials.thisRepN'
p554
I0
sg66
Vchair
p555
sg63
V../experiment_stimuli/bw_bc_bl/Nonliving_Things/Furniture/chair_14.jpg
p556
sg21
F5.20156857278198
sS'trials.thisTrialN'
p557
I42
sa(dp558
g31
g32
sg17
F200.27234656130895
sg24
I1
sg35
g39
sg14
F200.25292675895616
sg16
g36
(g70
S'\x02\x00\x00\x00'
tRp559
sg42
g43
sg46
g47
sg15
g88
sg22
F202.80914096767083
sg64
g101
sg62
g102
sg49
g50
sS'trials.thisN'
p560
I43
sg19
I0
sg27
g36
(g38
S'\x00\x00\x00\x00\x00\x00\x1a@'
tRp561
sg52
g53
sg23
S'1'
sg18
F201.5857346272096
sg33
g34
sg51
g11
sg20
S'1'
sg65
g36
(g77
S'\x00\x00\x00\x00\x00\x00\x00\x00'
tRp562
sg44
g45
sg40
g41
sg25
F0.18062649993225932
sS'trials.thisIndex'
p563
g36
(g80
S'*\x00\x00\x00'
tRp564
sg26
V5
sS'trials.thisRepN'
p565
I0
sg66
Vhummingbird
p566
sg63
V../experiment_stimuli/bw_bc_bl/Living_Things/Birds/hummingbird_17.jpg
p567
sg21
F1.2028446774929762
sS'trials.thisTrialN'
p568
I43
sa(dp569
g31
g32
sg17
F204.73673792043701
sg24
I1
sg35
g39
sg14
F204.72266256436706
sg16
g36
(g70
S'\x01\x00\x00\x00'
tRp570
sg42
g43
sg46
g47
sg15
g72
sg22
F207.37911897478625
sg64
g101
sg62
g102
sg49
g50
sS'trials.thisN'
p571
I44
sg19
I0
sg27
g36
(g38
S'\x00\x00\x00\x00\x00\x00\x18@'
tRp572
sg52
g53
sg23
S'1'
sg18
F206.06548763392493
sg33
g34
sg51
g11
sg20
S'2'
sg65
g36
(g77
S'\x00\x00\x00\x00\x00\x00\x00\x00'
tRp573
sg44
g45
sg40
g41
sg25
F0.20067089376971126
sS'trials.thisIndex'
p574
g36
(g80
S'!\x00\x00\x00'
tRp575
sg26
V5
sS'trials.thisRepN'
p576
I0
sg66
Vgoldfinch
p577
sg63
V../experiment_stimuli/bw_bc_bl/Living_Things/Birds/goldfinch_18.jpg
p578
sg21
F1.2930563329719007
sS'trials.thisTrialN'
p579
I44
sa(dp580
g31
g32
sg17
F209.33284082030877
sg24
I1
sg35
g39
sg14
F209.31265327800065
sg16
g36
(g70
S'\x02\x00\x00\x00'
tRp581
sg42
g43
sg46
g47
sg15
g88
sg22
F211.38766189198941
sg64
g194
sg62
g102
sg49
g50
sS'trials.thisN'
p582
I45
sg19
I1
sg27
g36
(g38
S'\x00\x00\x00\x00\x00\x00\x1c@'
tRp583
sg52
g53
sg23
S'1'
sg18
F210.68555154651403
sg33
g34
sg51
g11
sg20
S'2'
sg65
g36
(g77
S'\x00\x00\x00\x00\x00\x00\x00\x00'
tRp584
sg44
g45
sg40
g41
sg25
F0.16056739212945104
sS'trials.thisIndex'
p585
g36
(g80
S' \x00\x00\x00'
tRp586
sg26
V5
sS'trials.thisRepN'
p587
I0
sg66
Vgiraffe
p588
sg63
V../experiment_stimuli/bw_bc_bl/Living_Things/Animals/giraffe_0.jpg
p589
sg21
F0.68154848739504814
sS'trials.thisTrialN'
p590
I45
sa(dp591
g31
g32
sg17
F213.30040816264227
sg24
I1
sg35
g39
sg14
F213.28132066875696
sg16
g36
(g70
S'\x02\x00\x00\x00'
tRp592
sg42
g43
sg46
g47
sg15
g88
sg22
F215.89765285560861
sg64
g194
sg62
g102
sg49
g50
sS'trials.thisN'
p593
I46
sg19
I1
sg27
g36
(g38
S'\x00\x00\x00\x00\x00\x00\x18@'
tRp594
sg52
g53
sg23
S'1'
sg18
F214.68425403581932
sg33
g34
sg51
g11
sg20
S'2'
sg65
g36
(g77
S'\x00\x00\x00\x00\x00\x00\x00\x00'
tRp595
sg44
g45
sg40
g41
sg25
F0.280826679430902
sS'trials.thisIndex'
p596
g36
(g80
S"'\x00\x00\x00"
tRp597
sg26
V5
sS'trials.thisRepN'
p598
I0
sg66
Vhippopotamus
p599
sg63
V../experiment_stimuli/bw_bc_bl/Living_Things/Animals/hippopotamus_5.jpg
p600
sg21
F1.1928293718956411
sS'trials.thisTrialN'
p601
I46
sa(dp602
g31
g32
sg17
F217.92451985925436
sg24
I1
sg35
g39
sg14
F217.91138915065676
sg16
g36
(g70
S'\x02\x00\x00\x00'
tRp603
sg42
g43
sg46
g47
sg15
g72
sg22
F219.85610091639683
sg64
g73
sg62
g74
sg49
g50
sS'trials.thisN'
p604
I47
sg19
I1
sg27
g36
(g38
S'\x00\x00\x00\x00\x00\x00\x1c@'
tRp605
sg52
g53
sg23
S'1'
sg18
F219.31433736719191
sg33
g34
sg51
g11
sg20
S'2'
sg65
g36
(g77
S'\x00\x00\x00\x00\x00\x00\x00\x00'
tRp606
sg44
g45
sg40
g41
sg25
F0.21068635722622275
sS'trials.thisIndex'
p607
g36
(g80
S'5\x00\x00\x00'
tRp608
sg26
V5
sS'trials.thisRepN'
p609
I0
sg66
Vmill
p610
sg63
V../experiment_stimuli/bw_bc_bl/Nonliving_Things/Buildings/mill_21.jpg
p611
sg21
F0.52120278077200055
sS'trials.thisTrialN'
p612
I47
sa(dp613
g31
g32
sg17
F221.82382418261841
sg24
I1
sg35
g39
sg14
F221.79984703101218
sg16
g36
(g70
S'\x02\x00\x00\x00'
tRp614
sg42
g43
sg46
g47
sg15
g72
sg22
F225.76912402408198
sg64
g160
sg62
g74
sg49
g50
sS'trials.thisN'
p615
I48
sg19
I1
sg27
g36
(g38
S'\x00\x00\x00\x00\x00\x00\x18@'
tRp616
sg52
g53
sg23
S'1'
sg18
F223.24290312454104
sg33
g34
sg51
g11
sg20
S'2'
sg65
g36
(g77
S'\x00\x00\x00\x00\x00\x00\x00\x00'
tRp617
sg44
g45
sg40
g41
sg25
F0.22068997146561742
sS'trials.thisIndex'
p618
g36
(g80
S'\x1e\x00\x00\x00'
tRp619
sg26
V5
sS'trials.thisRepN'
p620
I0
sg66
Vfondue
p621
sg63
V../experiment_stimuli/bw_bc_bl/Nonliving_Things/Kitchen_Uten/fondue_10.jpg
p622
sg21
F2.5056822854094207
sS'trials.thisTrialN'
p623
I48
sa(dp624
g31
g32
sg17
F227.73544238461182
sg24
I0
sg35
g39
sg14
F227.72275146888569
sg16
g36
(g70
S'\x01\x00\x00\x00'
tRp625
sg42
g43
sg46
g47
sg15
g88
sg22
F229.78787227533758
sg64
g114
sg62
g74
sg49
g50
sS'trials.thisN'
p626
I49
sg19
I1
sg27
g36
(g38
S'\x00\x00\x00\x00\x00\x00\x1a@'
tRp627
sg52
g53
sg23
S'3'
sg18
F229.17581074079499
sg33
g34
sg51
g11
sg20
S'1'
sg65
g36
(g77
S'\x00\x00\x00\x00\x00\x00\x00\x00'
tRp628
sg44
g45
sg40
g41
sg25
F0.26078750705346465
sS'trials.thisIndex'
p629
g36
(g80
S'\t\x00\x00\x00'
tRp630
sg26
V5
sS'trials.thisRepN'
p631
I0
sg66
Vbus
p632
sg63
V../experiment_stimuli/bw_bc_bl/Nonliving_Things/Vehicles/bus_25.jpg
p633
sg21
F0.59150878572836518
sS'trials.thisTrialN'
p634
I49
sa(dp635
g31
g32
sg17
F231.79834148846567
sg24
I0
sg35
g39
sg14
F231.78158115409315
sg16
g36
(g70
S'\x01\x00\x00\x00'
tRp636
sg42
g43
sg46
g47
sg15
g72
sg22
F234.22756873862818
sg64
g126
sg62
g102
sg49
g50
sS'trials.thisN'
p637
I50
sg19
I1
sg27
g36
(g38
S'\x00\x00\x00\x00\x00\x00\x1c@'
tRp638
sg52
g53
sg23
S'3'
sg18
F233.22463211650029
sg33
g34
sg51
g11
sg20
S'1'
sg65
g36
(g77
S'\x00\x00\x00\x00\x00\x00\x00\x00'
tRp639
sg44
g45
sg40
g41
sg25
F0.27093627396970987
sS'trials.thisIndex'
p640
g36
(g80
S'+\x00\x00\x00'
tRp641
sg26
V5
sS'trials.thisRepN'
p642
I0
sg66
Vkiller-whale
p643
sg63
V../experiment_stimuli/bw_bc_bl/Living_Things/Marine_creatures/killer-whale_26.jpg
p644
sg21
F0.98239114694297314
sS'trials.thisTrialN'
p645
I50
sa(dp646
g31
g32
sg17
F236.25042419461533
sg24
I0
sg35
g39
sg14
F236.23127587791532
sg16
g36
(g70
S'\x02\x00\x00\x00'
tRp647
sg42
g43
sg46
g47
sg15
g72
sg22
F238.70729690324515
sg64
g206
sg62
g74
sg49
g50
sS'trials.thisN'
p648
I51
sg19
I1
sg27
g36
(g38
S'\x00\x00\x00\x00\x00\x00\x18@'
tRp649
sg52
g53
sg23
S'3'
sg18
F237.65427835285664
sg33
g34
sg51
g11
sg20
S'2'
sg65
g36
(g77
S'\x00\x00\x00\x00\x00\x00\x00\x00'
tRp650
sg44
g45
sg40
g41
sg25
F0.44102026708424091
sS'trials.thisIndex'
p651
g36
(g80
S']\x00\x00\x00'
tRp652
sg26
V5
sS'trials.thisRepN'
p653
I0
sg66
Vwardrobe
p654
sg63
V../experiment_stimuli/bw_bc_bl/Nonliving_Things/Furniture/wardrobe_9.jpg
p655
sg21
F1.0324702109210193
sS'trials.thisTrialN'
p656
I51
sa(dp657
g31
g32
sg17
F240.9014692818746
sg24
I0
sg35
g39
sg14
F240.88139762217179
sg16
g36
(g70
S'\x01\x00\x00\x00'
tRp658
sg42
g43
sg46
g47
sg15
g88
sg22
F243.08683173032477
sg64
g206
sg62
g74
sg49
g50
sS'trials.thisN'
p659
I52
sg19
I1
sg27
g36
(g38
S'\x00\x00\x00\x00\x00\x00\x18@'
tRp660
sg52
g53
sg23
S'3'
sg18
F242.27433859277517
sg33
g34
sg51
g11
sg20
S'1'
sg65
g36
(g77
S'\x00\x00\x00\x00\x00\x00\x00\x00'
tRp661
sg44
g45
sg40
g41
sg25
F0.27082106424495578
sS'trials.thisIndex'
p662
g36
(g80
S'\x08\x00\x00\x00'
tRp663
sg26
V5
sS'trials.thisRepN'
p664
I0
sg66
Vbookcase
p665
sg63
V../experiment_stimuli/bw_bc_bl/Nonliving_Things/Furniture/bookcase_10.jpg
p666
sg21
F0.79194543324410915
sS'trials.thisTrialN'
p667
I52
sa(dp668
g31
g32
sg17
F245.10793817508966
sg24
I0
sg35
g39
sg14
F245.09057171177119
sg16
g36
(g70
S'\x02\x00\x00\x00'
tRp669
sg42
g43
sg46
g47
sg15
g88
sg22
F247.7770478297025
sg64
g101
sg62
g102
sg49
g50
sS'trials.thisN'
p670
I53
sg19
I1
sg27
g36
(g38
S'\x00\x00\x00\x00\x00\x00\x1c@'
tRp671
sg52
g53
sg23
S'3'
sg18
F246.46346632624045
sg33
g34
sg51
g11
sg20
S'2'
sg65
g36
(g77
S'\x00\x00\x00\x00\x00\x00\x00\x00'
tRp672
sg44
g45
sg40
g41
sg25
F0.32092395517975092
sS'trials.thisIndex'
p673
g36
(g80
S';\x00\x00\x00'
tRp674
sg26
V5
sS'trials.thisRepN'
p675
I0
sg66
Vpartridge
p676
sg63
V../experiment_stimuli/bw_bc_bl/Living_Things/Birds/partridge_25.jpg
p677
sg21
F1.2930350587703288
sS'trials.thisTrialN'
p678
I53
sa(dp679
g31
g32
sg17
F249.84982749726623
sg24
I0
sg35
g39
sg14
F249.83089055074379
sg16
g36
(g70
S'\x01\x00\x00\x00'
tRp680
sg42
g43
sg46
g47
sg15
g88
sg22
F253.65986372763291
sg64
g114
sg62
g74
sg49
g50
sS'trials.thisN'
p681
I54
sg19
I1
sg27
g36
(g38
S'\x00\x00\x00\x00\x00\x00\x18@'
tRp682
sg52
g53
sg23
S'2'
sg18
F251.18374029034749
sg33
g34
sg51
g11
sg20
S'1'
sg65
g36
(g77
S'\x00\x00\x00\x00\x00\x00\x00\x00'
tRp683
sg44
g45
sg40
g41
sg25
F0.67168434150516987
sS'trials.thisIndex'
p684
g36
(g80
S'L\x00\x00\x00'
tRp685
sg26
V5
sS'trials.thisRepN'
p686
I0
sg66
Vship
p687
sg63
V../experiment_stimuli/bw_bc_bl/Nonliving_Things/Vehicles/ship_4.jpg
p688
sg21
F2.4555799663066864
sS'trials.thisTrialN'
p689
I54
sa(dp690
g31
g32
sg17
F256.07724226592109
sg24
I1
sg35
g39
sg14
F256.06445823796093
sg16
g36
(g70
S'\x01\x00\x00\x00'
tRp691
sg42
g43
sg46
g47
sg15
g88
sg22
F258.00934087811038
sg64
g206
sg62
g74
sg49
g50
sS'trials.thisN'
p692
I55
sg19
I1
sg27
g36
(g38
S'\x00\x00\x00\x00\x00\x00\x18@'
tRp693
sg52
g53
sg23
S'1'
sg18
F257.39726806152612
sg33
g34
sg51
g11
sg20
S'1'
sg65
g36
(g77
S'\x00\x00\x00\x00\x00\x00\x00\x00'
tRp694
sg44
g45
sg40
g41
sg25
F0.65165862487629056
sS'trials.thisIndex'
p695
g36
(g80
S'\x06\x00\x00\x00'
tRp696
sg26
V5
sS'trials.thisRepN'
p697
I0
sg66
Vbedside-table
p698
sg63
V../experiment_stimuli/bw_bc_bl/Nonliving_Things/Furniture/bedside-table_12.jpg
p699
sg21
F0.59150854870676994
sS'trials.thisTrialN'
p700
I55
sa(dp701
g31
g32
sg17
F260.4140631495975
sg24
I1
sg35
g39
sg14
F260.39388520503417
sg16
g36
(g70
S'\x02\x00\x00\x00'
tRp702
sg42
g43
sg46
g47
sg15
g72
sg22
F262.42897486081347
sg64
g206
sg62
g74
sg49
g50
sS'trials.thisN'
p703
I56
sg19
I0
sg27
g36
(g38
S'\x00\x00\x00\x00\x00\x00\x18@'
tRp704
sg52
g53
sg23
S'1'
sg18
F261.77680785069242
sg33
g34
sg51
g11
sg20
S'1'
sg65
g36
(g77
S'\x00\x00\x00\x00\x00\x00\x00\x00'
tRp705
sg44
g45
sg40
g41
sg25
F0.2006734237074852
sS'trials.thisIndex'
p706
g36
(g80
S'\x13\x00\x00\x00'
tRp707
sg26
V5
sS'trials.thisRepN'
p708
I0
sg66
Vcouch
p709
sg63
V../experiment_stimuli/bw_bc_bl/Nonliving_Things/Furniture/couch_7.jpg
p710
sg21
F0.63159490004181862
sS'trials.thisTrialN'
p711
I56
sa(dp712
g31
g32
sg17
F264.38104764511809
sg24
I0
sg35
g39
sg14
F264.36252710362896
sg16
g36
(g70
S'\x01\x00\x00\x00'
tRp713
sg42
g43
sg46
g47
sg15
g72
sg22
F267.36972252465785
sg64
g101
sg62
g102
sg49
g50
sS'trials.thisN'
p714
I57
sg19
I1
sg27
g36
(g38
S'\x00\x00\x00\x00\x00\x00\x1a@'
tRp715
sg52
g53
sg23
S'3'
sg18
F265.75546579202637
sg33
g34
sg51
g11
sg20
S'1'
sg65
g36
(g77
S'\x00\x00\x00\x00\x00\x00\x00\x00'
tRp716
sg44
g45
sg40
g41
sg25
F0.62157263560220599
sS'trials.thisIndex'
p717
g36
(g80
S'O\x00\x00\x00'
tRp718
sg26
V5
sS'trials.thisRepN'
p719
I0
sg66
Vsparrow
p720
sg63
V../experiment_stimuli/bw_bc_bl/Living_Things/Birds/sparrow_6.jpg
p721
sg21
F1.5936935958452523
sS'trials.thisTrialN'
p722
I57
sa(dp723
g31
g32
sg17
F269.74076297366992
sg24
I0
sg35
g39
sg14
F269.72420735144988
sg16
g36
(g70
S'\x01\x00\x00\x00'
tRp724
sg42
g43
sg46
g47
sg15
g88
sg22
F275.92836223449558
sg64
g73
sg62
g74
sg49
g50
sS'trials.thisN'
p725
I58
sg19
I1
sg27
g36
(g38
S'\x00\x00\x00\x00\x00\x00\x18@'
tRp726
sg52
g53
sg23
S'3'
sg18
F271.09709809022024
sg33
g34
sg51
g11
sg20
S'1'
sg65
g36
(g77
S'\x00\x00\x00\x00\x00\x00\x00\x00'
tRp727
sg44
g45
sg40
g41
sg25
F0.56145647307857871
sS'trials.thisIndex'
p728
g36
(g80
S'\x11\x00\x00\x00'
tRp729
sg26
V5
sS'trials.thisRepN'
p730
I0
sg66
Vchurch
p731
sg63
V../experiment_stimuli/bw_bc_bl/Nonliving_Things/Buildings/church_2.jpg
p732
sg21
F4.8107050904072821
sS'trials.thisTrialN'
p733
I58
sa(dp734
g31
g32
sg17
F278.23770832736045
sg24
I1
sg35
g39
sg14
F278.2227182444185
sg16
g36
(g70
S'\x01\x00\x00\x00'
tRp735
sg42
g43
sg46
g47
sg15
g88
sg22
F280.317925686948
sg64
g114
sg62
g74
sg49
g50
sS'trials.thisN'
p736
I59
sg19
I1
sg27
g36
(g38
S'\x00\x00\x00\x00\x00\x00\x18@'
tRp737
sg52
g53
sg23
S'1'
sg18
F279.58558705681935
sg33
g34
sg51
g11
sg20
S'1'
sg65
g36
(g77
S'\x00\x00\x00\x00\x00\x00\x00\x00'
tRp738
sg44
g45
sg40
g41
sg25
F0.15053791692480445
sS'trials.thisIndex'
p739
g36
(g80
S'W\x00\x00\x00'
tRp740
sg26
V5
sS'trials.thisRepN'
p741
I0
sg66
Vtrain
p742
sg63
V../experiment_stimuli/bw_bc_bl/Nonliving_Things/Vehicles/train_8.jpg
p743
sg21
F0.71177772665396333
sS'trials.thisTrialN'
p744
I59
sa(dp745
g31
g32
sg17
F282.21628272067755
sg24
I1
sg35
g39
sg14
F282.20137258432806
sg16
g36
(g70
S'\x02\x00\x00\x00'
tRp746
sg42
g43
sg46
g47
sg15
g72
sg22
F284.48701057536528
sg64
VTools
p747
sg62
g74
sg49
g50
sS'trials.thisN'
p748
I60
sg19
I1
sg27
g36
(g38
S'\x00\x00\x00\x00\x00\x00\x18@'
tRp749
sg52
g53
sg23
S'1'
sg18
F283.58428735798225
sg33
g34
sg51
g11
sg20
S'2'
sg65
g36
(g77
S'\x00\x00\x00\x00\x00\x00\x00\x00'
tRp750
sg44
g45
sg40
g41
sg25
F0.20065093506127596
sS'trials.thisIndex'
p751
g36
(g80
S'%\x00\x00\x00'
tRp752
sg26
V5
sS'trials.thisRepN'
p753
I0
sg66
Vhammer
p754
sg63
V../experiment_stimuli/bw_bc_bl/Nonliving_Things/Tools/hammer_2.jpg
p755
sg21
F0.88216170109808445
sS'trials.thisTrialN'
p756
I60
sa(dp757
g31
g32
sg17
F286.43661487102509
sg24
I0
sg35
g39
sg14
F286.42056147614494
sg16
g36
(g70
S'\x02\x00\x00\x00'
tRp758
sg42
g43
sg46
g47
sg15
g88
sg22
F288.525861362461
sg64
g101
sg62
g102
sg49
g50
sS'trials.thisN'
p759
I61
sg19
I1
sg27
g36
(g38
S'\x00\x00\x00\x00\x00\x00\x1a@'
tRp760
sg52
g53
sg23
S'2'
sg18
F287.81350118340924
sg33
g34
sg51
g11
sg20
S'2'
sg65
g36
(g77
S'\x00\x00\x00\x00\x00\x00\x00\x00'
tRp761
sg44
g45
sg40
g41
sg25
F0.51133595500141382
sS'trials.thisIndex'
p762
g36
(g80
S'J\x00\x00\x00'
tRp763
sg26
V5
sS'trials.thisRepN'
p764
I0
sg66
Vseagull
p765
sg63
V../experiment_stimuli/bw_bc_bl/Living_Things/Birds/seagull_22.jpg
p766
sg21
F0.69176483293995261
sS'trials.thisTrialN'
p767
I61
sa(dp768
g31
g32
sg17
F290.79458911390975
sg24
I1
sg35
g39
sg14
F290.77003532182425
sg16
g36
(g70
S'\x01\x00\x00\x00'
tRp769
sg42
g43
sg46
g47
sg15
g72
sg22
F292.6647962029092
sg64
g194
sg62
g102
sg49
g50
sS'trials.thisN'
p770
I62
sg19
I1
sg27
g36
(g38
S'\x00\x00\x00\x00\x00\x00\x1c@'
tRp771
sg52
g53
sg23
S'1'
sg18
F292.16297443863004
sg33
g34
sg51
g11
sg20
S'1'
sg65
g36
(g77
S'\x00\x00\x00\x00\x00\x00\x00\x00'
tRp772
sg44
g45
sg40
g41
sg25
F0.59150960901752114
sS'trials.thisIndex'
p773
g36
(g80
S'\x10\x00\x00\x00'
tRp774
sg26
V5
sS'trials.thisRepN'
p775
I0
sg66
Vcheetah
p776
sg63
V../experiment_stimuli/bw_bc_bl/Living_Things/Animals/cheetah_0.jpg
p777
sg21
F0.48127511283382773
sS'trials.thisTrialN'
p778
I62
sa(dp779
g31
g32
sg17
F295.00758241396397
sg24
I0
sg35
g39
sg14
F294.98921946529299
sg16
g36
(g70
S'\x01\x00\x00\x00'
tRp780
sg42
g43
sg46
g47
sg15
g72
sg22
F296.94415837293491
sg64
g126
sg62
g102
sg49
g50
sS'trials.thisN'
p781
I63
sg19
I1
sg27
g36
(g38
S'\x00\x00\x00\x00\x00\x00\x1a@'
tRp782
sg52
g53
sg23
S'2'
sg18
F296.41223502997309
sg33
g34
sg51
g11
sg20
S'1'
sg65
g36
(g77
S'\x00\x00\x00\x00\x00\x00\x00\x00'
tRp783
sg44
g45
sg40
g41
sg25
F0.29085521399974823
sS'trials.thisIndex'
p784
g36
(g80
S'P\x00\x00\x00'
tRp785
sg26
V5
sS'trials.thisRepN'
p786
I0
sg66
Vsperm-whale
p787
sg63
V../experiment_stimuli/bw_bc_bl/Living_Things/Marine_creatures/sperm-whale_18.jpg
p788
sg21
F0.51134334970265627
sS'trials.thisTrialN'
p789
I63
sa(dp790
g31
g32
sg17
F298.9827287052758
sg24
I1
sg35
g39
sg14
F298.96789129357785
sg16
g36
(g70
S'\x02\x00\x00\x00'
tRp791
sg42
g43
sg46
g47
sg15
g88
sg22
F301.22349242307246
sg64
g515
sg62
g102
sg49
g50
sS'trials.thisN'
p792
I64
sg19
I1
sg27
g36
(g38
S'\x00\x00\x00\x00\x00\x00\x18@'
tRp793
sg52
g53
sg23
S'1'
sg18
F300.38086147373542
sg33
g34
sg51
g11
sg20
S'2'
sg65
g36
(g77
S'\x00\x00\x00\x00\x00\x00\x00\x00'
tRp794
sg44
g45
sg40
g41
sg25
F0.28083687089383602
sS'trials.thisIndex'
p795
g36
(g80
S'I\x00\x00\x00'
tRp796
sg26
V5
sS'trials.thisRepN'
p797
I0
sg66
Vscorpion
p798
sg63
V../experiment_stimuli/bw_bc_bl/Living_Things/Insects/scorpion_16.jpg
p799
sg21
F0.8220535502769053
sS'trials.thisTrialN'
p800
I64
sa(dp801
g31
g32
sg17
F303.25250104954466
sg24
I0
sg35
g39
sg14
F303.2371836733073
sg16
g36
(g70
S'\x01\x00\x00\x00'
tRp802
sg42
g43
sg46
g47
sg15
g72
sg22
F305.32236438523978
sg64
g194
sg62
g102
sg49
g50
sS'trials.thisN'
p803
I65
sg19
I1
sg27
g36
(g38
S'\x00\x00\x00\x00\x00\x00\x18@'
tRp804
sg52
g53
sg23
S'3'
sg18
F304.65016913926229
sg33
g34
sg51
g11
sg20
S'1'
sg65
g36
(g77
S'\x00\x00\x00\x00\x00\x00\x00\x00'
tRp805
sg44
g45
sg40
g41
sg25
F0.74183127610012889
sS'trials.thisIndex'
p806
g36
(g80
S'D\x00\x00\x00'
tRp807
sg26
V5
sS'trials.thisRepN'
p808
I0
sg66
Vrhino
p809
sg63
V../experiment_stimuli/bw_bc_bl/Living_Things/Animals/rhino_1.jpg
p810
sg21
F0.64161870209500194
sS'trials.thisTrialN'
p811
I65
sa(dp812
g31
g32
sg17
F307.81892149010673
sg24
I0
sg35
g39
sg14
F307.79710968304425
sg16
g36
(g70
S'\x01\x00\x00\x00'
tRp813
sg42
g43
sg46
g47
sg15
g88
sg22
F310.41347476094961
sg64
g73
sg62
g74
sg49
g50
sS'trials.thisN'
p814
I66
sg19
I1
sg27
g36
(g38
S'\x00\x00\x00\x00\x00\x00\x1c@'
tRp815
sg52
g53
sg23
S'3'
sg18
F309.18002368276939
sg33
g34
sg51
g11
sg20
S'1'
sg65
g36
(g77
S'\x00\x00\x00\x00\x00\x00\x00\x00'
tRp816
sg44
g45
sg40
g41
sg25
F0.34096028096973896
sS'trials.thisIndex'
p817
g36
(g80
S')\x00\x00\x00'
tRp818
sg26
V5
sS'trials.thisRepN'
p819
I0
sg66
Vhouse
p820
sg63
V../experiment_stimuli/bw_bc_bl/Nonliving_Things/Buildings/house_5.jpg
p821
sg21
F1.2128894496709108
sS'trials.thisTrialN'
p822
I66
sa(dp823
g31
g32
sg17
F312.5095400470309
sg24
I0
sg35
g39
sg14
F312.48733003810048
sg16
g36
(g70
S'\x01\x00\x00\x00'
tRp824
sg42
g43
sg46
g47
sg15
g88
sg22
F315.44442123826593
sg64
g206
sg62
g74
sg49
g50
sS'trials.thisN'
p825
I67
sg19
I1
sg27
g36
(g38
S'\x00\x00\x00\x00\x00\x00\x18@'
tRp826
sg52
g53
sg23
S'3'
sg18
F313.84018152952194
sg33
g34
sg51
g11
sg20
S'1'
sg65
g36
(g77
S'\x00\x00\x00\x00\x00\x00\x00\x00'
tRp827
sg44
g45
sg40
g41
sg25
F1.5736411651596427
sS'trials.thisIndex'
p828
g36
(g80
S'\x05\x00\x00\x00'
tRp829
sg26
V5
sS'trials.thisRepN'
p830
I0
sg66
Vbed
p831
sg63
V../experiment_stimuli/bw_bc_bl/Nonliving_Things/Furniture/bed_21.jpg
p832
sg21
F1.583459235727787
sS'trials.thisTrialN'
p833
I67
sa(dp834
g31
g32
sg17
F318.76712469803169
sg24
I1
sg35
g39
sg14
F318.75096787232906
sg16
g36
(g70
S'\x01\x00\x00\x00'
tRp835
sg42
g43
sg46
g47
sg15
g72
sg22
F324.84489886369556
sg64
g126
sg62
g102
sg49
g50
sS'trials.thisN'
p836
I68
sg19
I0
sg27
g36
(g38
S'\x00\x00\x00\x00\x00\x00\x1c@'
tRp837
sg52
g53
sg23
S'1'
sg18
F320.08377318829298
sg33
g34
sg51
g11
sg20
S'2'
sg65
g36
(g77
S'\x00\x00\x00\x00\x00\x00\x00\x00'
tRp838
sg44
g45
sg40
g41
sg25
F0.31090780347585678
sS'trials.thisIndex'
p839
g36
(g80
S'A\x00\x00\x00'
tRp840
sg26
V5
sS'trials.thisRepN'
p841
I0
sg66
Vpomfret
p842
sg63
V../experiment_stimuli/bw_bc_bl/Living_Things/Marine_creatures/pomfret_7.jpg
p843
sg21
F4.7405635020695627
sS'trials.thisTrialN'
p844
I68
sa(dp845
g31
g32
sg17
F326.90786658087745
sg24
I0
sg35
g39
sg14
F326.88869096385315
sg16
g36
(g70
S'\x02\x00\x00\x00'
tRp846
sg42
g43
sg46
g47
sg15
g72
sg22
F329.02398060727865
sg64
g160
sg62
g74
sg49
g50
sS'trials.thisN'
p847
I69
sg19
I1
sg27
g36
(g38
S'\x00\x00\x00\x00\x00\x00\x1c@'
tRp848
sg52
g53
sg23
S'3'
sg18
F328.25156353926286
sg33
g34
sg51
g11
sg20
S'2'
sg65
g36
(g77
S'\x00\x00\x00\x00\x00\x00\x00\x00'
tRp849
sg44
g45
sg40
g41
sg25
F0.55142185930162668
sS'trials.thisIndex'
p850
g36
(g80
S'\x1f\x00\x00\x00'
tRp851
sg26
V5
sS'trials.thisRepN'
p852
I0
sg66
Vfrying-pan
p853
sg63
V../experiment_stimuli/bw_bc_bl/Nonliving_Things/Kitchen_Uten/frying-pan_25.jpg
p854
sg21
F0.75186569849029183
sS'trials.thisTrialN'
p855
I69
sa(dp856
g31
g32
sg17
F331.33625204116106
sg24
I1
sg35
g39
sg14
F331.3083111802116
sg16
g36
(g70
S'\x01\x00\x00\x00'
tRp857
sg42
g43
sg46
g47
sg15
g88
sg22
F334.17518674768507
sg64
g206
sg62
g74
sg49
g50
sS'trials.thisN'
p858
I70
sg19
I1
sg27
g36
(g38
S'\x00\x00\x00\x00\x00\x00\x18@'
tRp859
sg52
g53
sg23
S'1'
sg18
F332.64111958211288
sg33
g34
sg51
g11
sg20
S'1'
sg65
g36
(g77
S'\x00\x00\x00\x00\x00\x00\x00\x00'
tRp860
sg44
g45
sg40
g41
sg25
F0.22069347510114312
sS'trials.thisIndex'
p861
g36
(g80
S'\x02\x00\x00\x00'
tRp862
sg26
V5
sS'trials.thisRepN'
p863
I0
sg66
Varmchair
p864
sg63
V../experiment_stimuli/bw_bc_bl/Nonliving_Things/Furniture/armchair_22.jpg
p865
sg21
F1.5135231791064143
sS'trials.thisTrialN'
p866
I70
sa(dp867
g31
g32
sg17
F336.14617435820401
sg24
I0
sg35
g39
sg14
F336.12882366543636
sg16
g36
(g70
S'\x01\x00\x00\x00'
tRp868
sg42
g43
sg46
g47
sg15
g88
sg22
F338.02360922656953
sg64
g114
sg62
g74
sg49
g50
sS'trials.thisN'
p869
I71
sg19
I1
sg27
g36
(g38
S'\x00\x00\x00\x00\x00\x00\x1a@'
tRp870
sg52
g53
sg23
S'3'
sg18
F337.49168266961351
sg33
g34
sg51
g11
sg20
S'1'
sg65
g36
(g77
S'\x00\x00\x00\x00\x00\x00\x00\x00'
tRp871
sg44
g45
sg40
g41
sg25
F0.88214033329859376
sS'trials.thisIndex'
p872
g36
(g80
S'V\x00\x00\x00'
tRp873
sg26
V5
sS'trials.thisRepN'
p874
I0
sg66
Vtractor
p875
sg63
V../experiment_stimuli/bw_bc_bl/Nonliving_Things/Vehicles/tractor_11.jpg
p876
sg21
F0.51134658651426435
sS'trials.thisTrialN'
p877
I71
sa(dp878
g31
g32
sg17
F340.66992971533909
sg24
I1
sg35
g39
sg14
F340.63863796554506
sg16
g36
(g70
S'\x01\x00\x00\x00'
tRp879
sg42
g43
sg46
g47
sg15
g72
sg22
F343.22495508752763
sg64
g126
sg62
g102
sg49
g50
sS'trials.thisN'
p880
I72
sg19
I0
sg27
g36
(g38
S'\x00\x00\x00\x00\x00\x00\x1a@'
tRp881
sg52
g53
sg23
S'1'
sg18
F341.97143804794177
sg33
g34
sg51
g11
sg20
S'2'
sg65
g36
(g77
S'\x00\x00\x00\x00\x00\x00\x00\x00'
tRp882
sg44
g45
sg40
g41
sg25
F0.1806140448898077
sS'trials.thisIndex'
p883
g36
(g80
S'\x15\x00\x00\x00'
tRp884
sg26
V5
sS'trials.thisRepN'
p885
I0
sg66
Vcrab
p886
sg63
V../experiment_stimuli/bw_bc_bl/Living_Things/Marine_creatures/crab_26.jpg
p887
sg21
F1.2329395725391805
sS'trials.thisTrialN'
p888
I72
sa(dp889
g31
g32
sg17
F345.16061265720055
sg24
I0
sg35
g39
sg14
F345.13842924172059
sg16
g36
(g70
S'\x01\x00\x00\x00'
tRp890
sg42
g43
sg46
g47
sg15
g88
sg22
F348.00530848558992
sg64
g160
sg62
g74
sg49
g50
sS'trials.thisN'
p891
I73
sg19
I1
sg27
g36
(g38
S'\x00\x00\x00\x00\x00\x00\x1a@'
tRp892
sg52
g53
sg23
S'3'
sg18
F346.48125624656677
sg33
g34
sg51
g11
sg20
S'1'
sg65
g36
(g77
S'\x00\x00\x00\x00\x00\x00\x00\x00'
tRp893
sg44
g45
sg40
g41
sg25
F1.1427074591629207
sS'trials.thisIndex'
p894
g36
(g80
S'B\x00\x00\x00'
tRp895
sg26
V5
sS'trials.thisRepN'
p896
I0
sg66
Vpot
p897
sg63
V../experiment_stimuli/bw_bc_bl/Nonliving_Things/Kitchen_Uten/pot_7.jpg
p898
sg21
F1.5034942599013448
sS'trials.thisTrialN'
p899
I73
sa(dp900
g31
g32
sg17
F350.9083096832037
sg24
I0
sg35
g39
sg14
F350.88093526381999
sg16
g36
(g70
S'\x01\x00\x00\x00'
tRp901
sg42
g43
sg46
g47
sg15
g72
sg22
F352.89596583042294
sg64
g101
sg62
g102
sg49
g50
sS'trials.thisN'
p902
I74
sg19
I1
sg27
g36
(g38
S'\x00\x00\x00\x00\x00\x00\x1a@'
tRp903
sg52
g53
sg23
S'2'
sg18
F352.20371607411653
sg33
g34
sg51
g11
sg20
S'1'
sg65
g36
(g77
S'\x00\x00\x00\x00\x00\x00\x00\x00'
tRp904
sg44
g45
sg40
g41
sg25
F0.42113706283271313
sS'trials.thisIndex'
p905
g36
(g80
S',\x00\x00\x00'
tRp906
sg26
V5
sS'trials.thisRepN'
p907
I0
sg66
Vkiwi
p908
sg63
V../experiment_stimuli/bw_bc_bl/Living_Things/Birds/kiwi_24.jpg
p909
sg21
F0.67168518388643861
sS'trials.thisTrialN'
p910
I74
sa(dp911
g31
g32
sg17
F355.07288333866745
sg24
I0
sg35
g39
sg14
F355.0500053553842
sg16
g36
(g70
S'\x02\x00\x00\x00'
tRp912
sg42
g43
sg46
g47
sg15
g72
sg22
F357.05501603707671
sg64
g114
sg62
g74
sg49
g50
sS'trials.thisN'
p913
I75
sg19
I1
sg27
g36
(g38
S'\x00\x00\x00\x00\x00\x00\x1a@'
tRp914
sg52
g53
sg23
S'3'
sg18
F356.35275730583817
sg33
g34
sg51
g11
sg20
S'2'
sg65
g36
(g77
S'\x00\x00\x00\x00\x00\x00\x00\x00'
tRp915
sg44
g45
sg40
g41
sg25
F0.52135085873305798
sS'trials.thisIndex'
p916
g36
(g80
S'[\x00\x00\x00'
tRp917
sg26
V5
sS'trials.thisRepN'
p918
I0
sg66
Vvan
p919
sg63
V../experiment_stimuli/bw_bc_bl/Nonliving_Things/Vehicles/van_2.jpg
p920
sg21
F0.68171245185658336
sS'trials.thisTrialN'
p921
I75
sa(dp922
g31
g32
sg17
F359.32293468434364
sg24
I1
sg35
g39
sg14
F359.30928623350337
sg16
g36
(g70
S'\x01\x00\x00\x00'
tRp923
sg42
g43
sg46
g47
sg15
g88
sg22
F361.52461040066555
sg64
g89
sg62
g74
sg49
g50
sS'trials.thisN'
p924
I76
sg19
I1
sg27
g36
(g38
S'\x00\x00\x00\x00\x00\x00\x1e@'
tRp925
sg52
g53
sg23
S'1'
sg18
F360.58196010487154
sg33
g34
sg51
g11
sg20
S'1'
sg65
g36
(g77
S'\x00\x00\x00\x00\x00\x00\x00\x00'
tRp926
sg44
g45
sg40
g41
sg25
F0.43116557179018855
sS'trials.thisIndex'
p927
g36
(g80
S'$\x00\x00\x00'
tRp928
sg26
V5
sS'trials.thisRepN'
p929
I0
sg66
Vguitar
p930
sg63
V../experiment_stimuli/bw_bc_bl/Nonliving_Things/Musical_Inst/guitar_15.jpg
p931
sg21
F0.92207859549671412
sS'trials.thisTrialN'
p932
I76
sa(dp933
g31
g32
sg17
F363.71298833470792
sg24
I1
sg35
g39
sg14
F363.68881867732853
sg16
g36
(g70
S'\x01\x00\x00\x00'
tRp934
sg42
g43
sg46
g47
sg15
g72
sg22
F365.70386001095176
sg64
g101
sg62
g102
sg49
g50
sS'trials.thisN'
p935
I77
sg19
I0
sg27
g36
(g38
S'\x00\x00\x00\x00\x00\x00\x18@'
tRp936
sg52
g53
sg23
S'1'
sg18
F365.0015877308324
sg33
g34
sg51
g11
sg20
S'2'
sg65
g36
(g77
S'\x00\x00\x00\x00\x00\x00\x00\x00'
tRp937
sg44
g45
sg40
g41
sg25
F0.23071073601022363
sS'trials.thisIndex'
p938
g36
(g80
S'=\x00\x00\x00'
tRp939
sg26
V5
sS'trials.thisRepN'
p940
I0
sg66
Vpenguin
p941
sg63
V../experiment_stimuli/bw_bc_bl/Living_Things/Birds/penguin_3.jpg
p942
sg21
F0.68171091796830297
sS'trials.thisTrialN'
p943
I77
sa(dp944
g31
g32
sg17
F367.68896902306005
sg24
I0
sg35
g39
sg14
F367.66749713756144
sg16
g36
(g70
S'\x02\x00\x00\x00'
tRp945
sg42
g43
sg46
g47
sg15
g72
sg22
F370.97533090412617
sg64
g89
sg62
g74
sg49
g50
sS'trials.thisN'
p946
I78
sg19
I1
sg27
g36
(g38
S'\x00\x00\x00\x00\x00\x00\x18@'
tRp947
sg52
g53
sg23
S'3'
sg18
F369.01032052608207
sg33
g34
sg51
g11
sg20
S'2'
sg65
g36
(g77
S'\x00\x00\x00\x00\x00\x00\x00\x00'
tRp948
sg44
g45
sg40
g41
sg25
F0.21067192545160651
sS'trials.thisIndex'
p949
g36
(g80
S'\x19\x00\x00\x00'
tRp950
sg26
V5
sS'trials.thisRepN'
p951
I0
sg66
Vdrum
p952
sg63
V../experiment_stimuli/bw_bc_bl/Nonliving_Things/Musical_Inst/drum_19.jpg
p953
sg21
F1.9444605428725481
sS'trials.thisTrialN'
p954
I78
sa(dp955
g31
g32
sg17
F372.93436637660488
sg24
I1
sg35
g39
sg14
F372.91892797499895
sg16
g36
(g70
S'\x02\x00\x00\x00'
tRp956
sg42
g43
sg46
g47
sg15
g88
sg22
F375.6154326130636
sg64
g194
sg62
g102
sg49
g50
sS'trials.thisN'
p957
I79
sg19
I1
sg27
g36
(g38
S'\x00\x00\x00\x00\x00\x00\x1a@'
tRp958
sg52
g53
sg23
S'1'
sg18
F374.23168816789985
sg33
g34
sg51
g11
sg20
S'2'
sg65
g36
(g77
S'\x00\x00\x00\x00\x00\x00\x00\x00'
tRp959
sg44
g45
sg40
g41
sg25
F0.90218263259157538
sS'trials.thisIndex'
p960
g36
(g80
S'\x14\x00\x00\x00'
tRp961
sg26
V5
sS'trials.thisRepN'
p962
I0
sg66
Vcow
p963
sg63
V../experiment_stimuli/bw_bc_bl/Living_Things/Animals/cow_23.jpg
p964
sg21
F1.3631943878717721
sS'trials.thisTrialN'
p965
I79
sa(dp966
g31
g32
sg17
F378.27655936405063
sg24
I1
sg35
g39
sg14
F378.25053593702614
sg16
g36
(g70
S'\x01\x00\x00\x00'
tRp967
sg42
g43
sg46
g47
sg15
g88
sg22
F382.41024483600631
sg64
g160
sg62
g74
sg49
g50
sS'trials.thisN'
p968
I80
sg19
I1
sg27
g36
(g38
S'\x00\x00\x00\x00\x00\x00\x1a@'
tRp969
sg52
g53
sg23
S'1'
sg18
F379.60338439838961
sg33
g34
sg51
g11
sg20
S'1'
sg65
g36
(g77
S'\x00\x00\x00\x00\x00\x00\x00\x00'
tRp970
sg44
g45
sg40
g41
sg25
F0.53137564938515425
sS'trials.thisIndex'
p971
g36
(g80
S'\x16\x00\x00\x00'
tRp972
sg26
V5
sS'trials.thisRepN'
p973
I0
sg66
Vcup
p974
sg63
V../experiment_stimuli/bw_bc_bl/Nonliving_Things/Kitchen_Uten/cup_6.jpg
p975
sg21
F2.7863085945136845
sS'trials.thisTrialN'
p976
I80
sa(dp977
g31
g32
sg17
F384.69729353301227
sg24
I1
sg35
g39
sg14
F384.6745252404362
sg16
g36
(g70
S'\x02\x00\x00\x00'
tRp978
sg42
g43
sg46
g47
sg15
g88
sg22
F386.81983496434987
sg64
g126
sg62
g102
sg49
g50
sS'trials.thisN'
p979
I81
sg19
I1
sg27
g36
(g38
S'\x00\x00\x00\x00\x00\x00\x18@'
tRp980
sg52
g53
sg23
S'1'
sg18
F386.04741812217981
sg33
g34
sg51
g11
sg20
S'2'
sg65
g36
(g77
S'\x00\x00\x00\x00\x00\x00\x00\x00'
tRp981
sg44
g45
sg40
g41
sg25
F1.4133050222881138
sS'trials.thisIndex'
p982
g36
(g80
S'^\x00\x00\x00'
tRp983
sg26
V5
sS'trials.thisRepN'
p984
I0
sg66
Vwhale
p985
sg63
V../experiment_stimuli/bw_bc_bl/Living_Things/Marine_creatures/whale_11.jpg
p986
sg21
F0.75186809664592147
sS'trials.thisTrialN'
p987
I81
sa(dp988
g31
g32
sg17
F390.00257274368778
sg24
I0
sg35
g39
sg14
F389.96604855032638
sg16
g36
(g70
S'\x02\x00\x00\x00'
tRp989
sg42
g43
sg46
g47
sg15
g88
sg22
F391.94100714521483
sg64
g194
sg62
g102
sg49
g50
sS'trials.thisN'
p990
I82
sg19
I1
sg27
g36
(g38
S'\x00\x00\x00\x00\x00\x00\x18@'
tRp991
sg52
g53
sg23
S'2'
sg18
F391.37902964744717
sg33
g34
sg51
g11
sg20
S'2'
sg65
g36
(g77
S'\x00\x00\x00\x00\x00\x00\x00\x00'
tRp992
sg44
g45
sg40
g41
sg25
F0.57146245986223221
sS'trials.thisIndex'
p993
g36
(g80
S'\x01\x00\x00\x00'
tRp994
sg26
V5
sS'trials.thisRepN'
p995
I0
sg66
Varmadillo
p996
sg63
V../experiment_stimuli/bw_bc_bl/Living_Things/Animals/armadillo_8.jpg
p997
sg21
F0.54141497006639838
sS'trials.thisTrialN'
p998
I82
sa(dp999
g31
g32
sg17
F394.2662835936062
sg24
I0
sg35
g39
sg14
F394.24536588974297
sg16
g36
(g70
S'\x02\x00\x00\x00'
tRp1000
sg42
g43
sg46
g47
sg15
g88
sg22
F396.24035835266113
sg64
g194
sg62
g102
sg49
g50
sS'trials.thisN'
p1001
I83
sg19
I1
sg27
g36
(g38
S'\x00\x00\x00\x00\x00\x00\x18@'
tRp1002
sg52
g53
sg23
S'3'
sg18
F395.61826129024848
sg33
g34
sg51
g11
sg20
S'2'
sg65
g36
(g77
S'\x00\x00\x00\x00\x00\x00\x00\x00'
tRp1003
sg44
g45
sg40
g41
sg25
F0.26079229637980461
sS'trials.thisIndex'
p1004
g36
(g80
S'\x1b\x00\x00\x00'
tRp1005
sg26
V5
sS'trials.thisRepN'
p1006
I0
sg66
Velephant
p1007
sg63
V../experiment_stimuli/bw_bc_bl/Living_Things/Animals/elephant_14.jpg
p1008
sg21
F0.60153696313500404
sS'trials.thisTrialN'
p1009
I83
sa(dp1010
g31
g32
sg17
F398.26133513730019
sg24
I0
sg35
g39
sg14
F398.23404806572944
sg16
g36
(g70
S'\x02\x00\x00\x00'
tRp1011
sg42
g43
sg46
g47
sg15
g72
sg22
F401.07072647986934
sg64
g114
sg62
g74
sg49
g50
sS'trials.thisN'
p1012
I84
sg19
I1
sg27
g36
(g38
S'\x00\x00\x00\x00\x00\x00\x1c@'
tRp1013
sg52
g53
sg23
S'3'
sg18
F399.59691950213164
sg33
g34
sg51
g11
sg20
S'2'
sg65
g36
(g77
S'\x00\x00\x00\x00\x00\x00\x00\x00'
tRp1014
sg44
g45
sg40
g41
sg25
F0.55143850902095437
sS'trials.thisIndex'
p1015
g36
(g80
S'\x0b\x00\x00\x00'
tRp1016
sg26
V5
sS'trials.thisRepN'
p1017
I0
sg66
Vcar
p1018
sg63
V../experiment_stimuli/bw_bc_bl/Nonliving_Things/Vehicles/car_16.jpg
p1019
sg21
F1.4532271651551127
sS'trials.thisTrialN'
p1020
I84
sa(dp1021
g31
g32
sg17
F403.37997313821688
sg24
I0
sg35
g39
sg14
F403.35520287835971
sg16
g36
(g70
S'\x02\x00\x00\x00'
tRp1022
sg42
g43
sg46
g47
sg15
g72
sg22
F405.69092745520175
sg64
g206
sg62
g74
sg49
g50
sS'trials.thisN'
p1023
I85
sg19
I1
sg27
g36
(g38
S'\x00\x00\x00\x00\x00\x00\x18@'
tRp1024
sg52
g53
sg23
S'2'
sg18
F404.70806589955464
sg33
g34
sg51
g11
sg20
S'2'
sg65
g36
(g77
S'\x00\x00\x00\x00\x00\x00\x00\x00'
tRp1025
sg44
g45
sg40
g41
sg25
F0.49128670804202557
sS'trials.thisIndex'
p1026
g36
(g80
S'N\x00\x00\x00'
tRp1027
sg26
V5
sS'trials.thisRepN'
p1028
I0
sg66
Vsofa
p1029
sg63
V../experiment_stimuli/bw_bc_bl/Nonliving_Things/Furniture/sofa_21.jpg
p1030
sg21
F0.96232689311727881
sS'trials.thisTrialN'
p1031
I85
sa(dp1032
g31
g32
sg17
F407.92580379964784
sg24
I1
sg35
g39
sg14
F407.91513528674841
sg16
g36
(g70
S'\x01\x00\x00\x00'
tRp1033
sg42
g43
sg46
g47
sg15
g72
sg22
F412.22521857032552
sg64
g126
sg62
g102
sg49
g50
sS'trials.thisN'
p1034
I86
sg19
I0
sg27
g36
(g38
S'\x00\x00\x00\x00\x00\x00 @'
tRp1035
sg52
g53
sg23
S'1'
sg18
F409.23795722099021
sg33
g34
sg51
g11
sg20
S'2'
sg65
g36
(g77
S'\x00\x00\x00\x00\x00\x00\x00\x00'
tRp1036
sg44
g45
sg40
g41
sg25
F0.38104741089046001
sS'trials.thisIndex'
p1037
g36
(g80
S'4\x00\x00\x00'
tRp1038
sg26
V5
sS'trials.thisRepN'
p1039
I0
sg66
Vmanatee
p1040
sg63
V../experiment_stimuli/bw_bc_bl/Living_Things/Marine_creatures/manatee_19.jpg
p1041
sg21
F2.966707818210125
sS'trials.thisTrialN'
p1042
I86
sa(dp1043
g31
g32
sg17
F414.36154254432768
sg24
I1
sg35
g39
sg14
F414.33913431549445
sg16
g36
(g70
S'\x01\x00\x00\x00'
tRp1044
sg42
g43
sg46
g47
sg15
g72
sg22
F417.5768109569326
sg64
g194
sg62
g102
sg49
g50
sS'trials.thisN'
p1045
I87
sg19
I0
sg27
g36
(g38
S'\x00\x00\x00\x00\x00\x00\x18@'
tRp1046
sg52
g53
sg23
S'1'
sg18
F415.70199158694595
sg33
g34
sg51
g11
sg20
S'2'
sg65
g36
(g77
S'\x00\x00\x00\x00\x00\x00\x00\x00'
tRp1047
sg44
g45
sg40
g41
sg25
F0.31088654790073633
sS'trials.thisIndex'
p1048
g36
(g80
S'(\x00\x00\x00'
tRp1049
sg26
V5
sS'trials.thisRepN'
p1050
I0
sg66
Vhorse
p1051
sg63
V../experiment_stimuli/bw_bc_bl/Living_Things/Animals/horse_16.jpg
p1052
sg21
F1.854263823479414
sS'trials.thisTrialN'
p1053
I87
sa(dp1054
g31
g32
sg17
F419.64752481598407
sg24
I0
sg35
g39
sg14
F419.62061872566119
sg16
g36
(g70
S'\x01\x00\x00\x00'
tRp1055
sg42
g43
sg46
g47
sg15
g72
sg22
F421.65568729909137
sg64
g515
sg62
g102
sg49
g50
sS'trials.thisN'
p1056
I88
sg19
I1
sg27
g36
(g38
S'\x00\x00\x00\x00\x00\x00\x1a@'
tRp1057
sg52
g53
sg23
S'3'
sg18
F421.00353614566848
sg33
g34
sg51
g11
sg20
S'1'
sg65
g36
(g77
S'\x00\x00\x00\x00\x00\x00\x00\x00'
tRp1058
sg44
g45
sg40
g41
sg25
F0.79194416292011738
sS'trials.thisIndex'
p1059
g36
(g80
S'\x18\x00\x00\x00'
tRp1060
sg26
V5
sS'trials.thisRepN'
p1061
I0
sg66
Vdragonfly
p1062
sg63
V../experiment_stimuli/bw_bc_bl/Living_Things/Insects/dragonfly_5.jpg
p1063
sg21
F0.63160203164443374
sS'trials.thisTrialN'
p1064
I88
sa(dp1065
g31
g32
sg17
F424.21187655255198
sg24
I1
sg35
g39
sg14
F424.19057196239009
sg16
g36
(g70
S'\x01\x00\x00\x00'
tRp1066
sg42
g43
sg46
g47
sg15
g72
sg22
F426.17554631084204
sg64
g101
sg62
g102
sg49
g50
sS'trials.thisN'
p1067
I89
sg19
I0
sg27
g36
(g38
S'\x00\x00\x00\x00\x00\x00\x18@'
tRp1068
sg52
g53
sg23
S'1'
sg18
F425.54342276230454
sg33
g34
sg51
g11
sg20
S'2'
sg65
g36
(g77
S'\x00\x00\x00\x00\x00\x00\x00\x00'
tRp1069
sg44
g45
sg40
g41
sg25
F0.20065298350527883
sS'trials.thisIndex'
p1070
g36
(g80
S'<\x00\x00\x00'
tRp1071
sg26
V5
sS'trials.thisRepN'
p1072
I0
sg66
Vpelican
p1073
sg63
V../experiment_stimuli/bw_bc_bl/Living_Things/Birds/pelican_0.jpg
p1074
sg21
F0.61155952094122767
sS'trials.thisTrialN'
p1075
I89
sa(dp1076
g31
g32
sg17
F428.1273983377032
sg24
I1
sg35
g39
sg14
F428.10910897841677
sg16
g36
(g70
S'\x01\x00\x00\x00'
tRp1077
sg42
g43
sg46
g47
sg15
g88
sg22
F430.72548009362072
sg64
g160
sg62
g74
sg49
g50
sS'trials.thisN'
p1078
I90
sg19
I1
sg27
g36
(g38
S'\x00\x00\x00\x00\x00\x00\x18@'
tRp1079
sg52
g53
sg23
S'1'
sg18
F429.48200224665925
sg33
g34
sg51
g11
sg20
S'1'
sg65
g36
(g77
S'\x00\x00\x00\x00\x00\x00\x00\x00'
tRp1080
sg44
g45
sg40
g41
sg25
F0.77190435538068414
sS'trials.thisIndex'
p1081
g36
(g80
S'\x12\x00\x00\x00'
tRp1082
sg26
V5
sS'trials.thisRepN'
p1083
I0
sg66
Vcoking-pot
p1084
sg63
V../experiment_stimuli/bw_bc_bl/Nonliving_Things/Kitchen_Uten/coking-pot_9.jpg
p1085
sg21
F1.2229210450313985
sS'trials.thisTrialN'
p1086
I90
sa(dp1087
g31
g32
sg17
F433.25173704465851
sg24
I0
sg35
g39
sg14
F433.23027108749375
sg16
g36
(g70
S'\x01\x00\x00\x00'
tRp1088
sg42
g43
sg46
g47
sg15
g88
sg22
F436.11703498661518
sg64
g747
sg62
g74
sg49
g50
sS'trials.thisN'
p1089
I91
sg19
I1
sg27
g36
(g38
S'\x00\x00\x00\x00\x00\x00\x1a@'
tRp1090
sg52
g53
sg23
S'3'
sg18
F434.63322559371591
sg33
g34
sg51
g11
sg20
S'1'
sg65
g36
(g77
S'\x00\x00\x00\x00\x00\x00\x00\x00'
tRp1091
sg44
g45
sg40
g41
sg25
F0.74184271553531289
sS'trials.thisIndex'
p1092
g36
(g80
S'\x03\x00\x00\x00'
tRp1093
sg26
V5
sS'trials.thisRepN'
p1094
I0
sg66
Vaxe
p1095
sg63
V../experiment_stimuli/bw_bc_bl/Nonliving_Things/Tools/axe_23.jpg
p1096
sg21
F1.4632519786246121
sS'trials.thisTrialN'
p1097
I91
sa(dp1098
g31
g32
sg17
F438.62260419735685
sg24
I0
sg35
g39
sg14
F438.60196481039748
sg16
g36
(g70
S'\x02\x00\x00\x00'
tRp1099
sg42
g43
sg46
g47
sg15
g88
sg22
F440.73726398404688
sg64
g194
sg62
g102
sg49
g50
sS'trials.thisN'
p1100
I92
sg19
I1
sg27
g36
(g38
S'\x00\x00\x00\x00\x00\x00\x18@'
tRp1101
sg52
g53
sg23
S'3'
sg18
F439.97485150024295
sg33
g34
sg51
g11
sg20
S'2'
sg65
g36
(g77
S'\x00\x00\x00\x00\x00\x00\x00\x00'
tRp1102
sg44
g45
sg40
g41
sg25
F0.32091902988031507
sS'trials.thisIndex'
p1103
g36
(g80
S'\r\x00\x00\x00'
tRp1104
sg26
V5
sS'trials.thisRepN'
p1105
I0
sg66
Vcat
p1106
sg63
V../experiment_stimuli/bw_bc_bl/Living_Things/Animals/cat_7.jpg
p1107
sg21
F0.74184689298272133
sS'trials.thisTrialN'
p1108
I92
sa(dp1109
g31
g32
sg17
F442.80416116630659
sg24
I0
sg35
g39
sg14
F442.79107508948073
sg16
g36
(g70
S'\x01\x00\x00\x00'
tRp1110
sg42
g43
sg46
g47
sg15
g72
sg22
F445.01657937280834
sg64
g194
sg62
g102
sg49
g50
sS'trials.thisN'
p1111
I93
sg19
I1
sg27
g36
(g38
S'\x00\x00\x00\x00\x00\x00\x1a@'
tRp1112
sg52
g53
sg23
S'3'
sg18
F444.12388452887535
sg33
g34
sg51
g11
sg20
S'1'
sg65
g36
(g77
S'\x00\x00\x00\x00\x00\x00\x00\x00'
tRp1113
sg44
g45
sg40
g41
sg25
F0.25076681794598699
sS'trials.thisIndex'
p1114
g36
(g80
S'_\x00\x00\x00'
tRp1115
sg26
V5
sS'trials.thisRepN'
p1116
I0
sg66
Vzebra
p1117
sg63
V../experiment_stimuli/bw_bc_bl/Living_Things/Animals/zebra_9.jpg
p1118
sg21
F0.87214371142908931
sS'trials.thisTrialN'
p1119
I93
sa(dp1120
g31
g32
sg17
F447.0208096713759
sg24
I1
sg35
g39
sg14
F447.00024631386623
sg16
g36
(g70
S'\x02\x00\x00\x00'
tRp1121
sg42
g43
sg46
g47
sg15
g88
sg22
F450.81921403855085
sg64
g515
sg62
g102
sg49
g50
sS'trials.thisN'
p1122
I94
sg19
I0
sg27
g36
(g38
S'\x00\x00\x00\x00\x00\x00\x1a@'
tRp1123
sg52
g53
sg23
S'1'
sg18
F448.32304591359571
sg33
g34
sg51
g11
sg20
S'1'
sg65
g36
(g77
S'\x00\x00\x00\x00\x00\x00\x00\x00'
tRp1124
sg44
g45
sg40
g41
sg25
F0.21067854901775718
sS'trials.thisIndex'
p1125
g36
(g80
S'-\x00\x00\x00'
tRp1126
sg26
V5
sS'trials.thisRepN'
p1127
I0
sg66
Vladybird
p1128
sg63
V../experiment_stimuli/bw_bc_bl/Living_Things/Insects/ladybird_14.jpg
p1129
sg21
F2.4756214465014637
sS'trials.thisTrialN'
p1130
I94
sa(dp1131
g31
g32
sg17
F452.77724146516994
sg24
I1
sg35
g39
sg14
F452.76278820727021
sg16
g36
(g70
S'\x02\x00\x00\x00'
tRp1132
sg42
g43
sg46
g47
sg15
g72
sg22
F455.12859415262938
sg64
g89
sg62
g74
sg49
g50
sS'trials.thisN'
p1133
I95
sg19
I1
sg27
g36
(g38
S'\x00\x00\x00\x00\x00\x00\x1a@'
tRp1134
sg52
g53
sg23
S'1'
sg18
F454.11565004428849
sg33
g34
sg51
g11
sg20
S'2'
sg65
g36
(g77
S'\x00\x00\x00\x00\x00\x00\x00\x00'
tRp1135
sg44
g45
sg40
g41
sg25
F0.77189775789156556
sS'trials.thisIndex'
p1136
g36
(g80
S'\\\x00\x00\x00'
tRp1137
sg26
V5
sS'trials.thisRepN'
p1138
I0
sg66
Vviolin
p1139
sg63
V../experiment_stimuli/bw_bc_bl/Nonliving_Things/Musical_Inst/violin_25.jpg
p1140
sg21
F0.99239212600514293
sS'trials.thisTrialN'
p1141
I95
sasS'loops'
p1142
(lp1143
g1
(cpsychopy.data
TrialHandler
p1144
g3
NtRp1145
(dp1146
S'origin'
p1147
NsS'thisTrial'
p1148
(lp1149
sS'_exp'
p1150
I97317136
sg10
S'trials'
p1151
sg6
I-1
sS'thisRepN'
p1152
I1
sg28
I01
sg29
g30
sS'data'
p1153
g1
(cpsychopy.data
DataHandler
p1154
c__builtin__
dict
p1155
(dp1156
g20
cnumpy.core.multiarray
_reconstruct
p1157
(cnumpy
ndarray
p1158
(I0
tS'b'
tRp1159
(I1
(I96
I1
tg37
(S'O4'
I0
I1
tRp1160
(I3
S'|'
NNNI-1
I-1
I63
tbI00
(lp1161
S'1'
aS'2'
aS'1'
aS'1'
aS'1'
aS'1'
aS'1'
aS'1'
aS'1'
aS'1'
aS'1'
aS'2'
aS'1'
aS'2'
aS'2'
aS'1'
aS'1'
aS'1'
aS'1'
aS'1'
aS'2'
aS'2'
aS'1'
aS'1'
aS'1'
aS'2'
aS'1'
aS'2'
aS'2'
aS'2'
aS'2'
aS'2'
aS'2'
aS'2'
aS'2'
aS'1'
aS'1'
aS'2'
aS'2'
aS'2'
aS'2'
aS'1'
aS'1'
aS'1'
aS'1'
aS'1'
aS'2'
aS'1'
aS'2'
aS'1'
aS'2'
aS'2'
aS'2'
aS'2'
aS'1'
aS'1'
aS'1'
aS'2'
aS'2'
aS'2'
aS'2'
aS'2'
aS'2'
aS'1'
aS'2'
aS'2'
aS'1'
aS'2'
aS'1'
aS'1'
aS'1'
aS'2'
aS'1'
aS'2'
aS'2'
aS'1'
aS'1'
aS'2'
aS'2'
aS'1'
aS'1'
aS'2'
aS'1'
aS'2'
aS'2'
aS'1'
aS'1'
aS'1'
aS'1'
aS'1'
aS'1'
aS'2'
aS'2'
aS'2'
aS'2'
aS'1'
atbsg17
cnumpy.ma.core
_mareconstruct
p1162
(cnumpy.ma.core
MaskedArray
p1163
g1158
(I0
tp1164
S'b'
tRp1165
(I1
(I96
I1
tg37
(S'f4'
I0
I1
tRp1166
(I3
S'<'
NNNI-1
I-1
I0
tbI00
S't\xf5\x0bCT\x00\xc3C\n\xab\xa5C9\xa0\xd8C\xd3\x98/C9A\x9cC\xe3\t\x80C\xcb\xdf\x99A\xc7\xe6pCF\xbccC/\xc13Cs!\xc7Ce\x19kB\xb1O\xdbC\x83\xd2p@\x1aY?C\xb5e\x91C\xd1\xde\x86CO\x10\xd6C\x005\x82C\x99w\xbaC\xc0U\xaaCf#\xbdC\x1a0{B\xe2\xd2\xd1C0\xd8\xb7C\xfe\xfb\x96B\x16"\xc5C\xa8\x04\xfcB(\x87\xb1B\xe6\xd2]C5t\xa3C5UQC\x9b\xbcLC\x96\x99\x06C04\xffAV\xa9\xb3C\xaf\x1b\x8dC\x82pLA\xe8LUCG.\xcfC\xd2\xe8\x99C\xb9EHC`\xccgCCt\xafC\xaa\x82\xdfCr\x1e\x1eCA\xb0\x9fB\xe2h\x10C\xd7\xd9\xbaAJ\xc8%C\x9c\x1b\x86B\x81\xf6\xcbC\xad\xecYCDU\x02C\x06G\xdeB\xcf\xb5\x14C^\xc9)CM\x0c"C\xa2\x1buC\x1f\x1b\xd4CC\xdb\xb5C\r\xfb\xa8B\xdb\xc6\xe6B\xc4\xb0\xf3B1b\x9fC\x8f\x94\xacCG\x81\xd4BR\xa0\x97C\xf7\x15YB\xaby7C\x88d\x13Bz\xce\xdbA\xca}\x95C\xe37\x8fC\xa9\xab\x8eB\x8e\xd9yC\xccc;C\xa3\xb0\xc9C\xc60\x84C\xf8\x80\x93C)D\x19C\x03\xa2\xc1B\x0bL\xccB~3HB\x1a\x9a6B\xb6\x12\xa8Cm\x1e\x8bC\xd1\xb7$B\x1b3\x00A\xc5\x8b\xb9BT\x89\xb1C}c\xe2C\x1c@lCAY\xc0C\xeff\xddC'
S'\x00\x00\x00\x00\x00\x00\x00\x00\x00\x00\x00\x00\x00\x00\x00\x00\x00\x00\x00\x00\x00\x00\x00\x00\x00\x00\x00\x00\x00\x00\x00\x00\x00\x00\x00\x00\x00\x00\x00\x00\x00\x00\x00\x00\x00\x00\x00\x00\x00\x00\x00\x00\x00\x00\x00\x00\x00\x00\x00\x00\x00\x00\x00\x00\x00\x00\x00\x00\x00\x00\x00\x00\x00\x00\x00\x00\x00\x00\x00\x00\x00\x00\x00\x00\x00\x00\x00\x00\x00\x00\x00\x00\x00\x00\x00\x00'
NtbsS'ran'
p1167
g1162
(g1163
g1158
g1164
S'b'
tRp1168
(I1
(I96
I1
tg1166
I00
S'\x00\x00\x80?\x00\x00\x80?\x00\x00\x80?\x00\x00\x80?\x00\x00\x80?\x00\x00\x80?\x00\x00\x80?\x00\x00\x80?\x00\x00\x80?\x00\x00\x80?\x00\x00\x80?\x00\x00\x80?\x00\x00\x80?\x00\x00\x80?\x00\x00\x80?\x00\x00\x80?\x00\x00\x80?\x00\x00\x80?\x00\x00\x80?\x00\x00\x80?\x00\x00\x80?\x00\x00\x80?\x00\x00\x80?\x00\x00\x80?\x00\x00\x80?\x00\x00\x80?\x00\x00\x80?\x00\x00\x80?\x00\x00\x80?\x00\x00\x80?\x00\x00\x80?\x00\x00\x80?\x00\x00\x80?\x00\x00\x80?\x00\x00\x80?\x00\x00\x80?\x00\x00\x80?\x00\x00\x80?\x00\x00\x80?\x00\x00\x80?\x00\x00\x80?\x00\x00\x80?\x00\x00\x80?\x00\x00\x80?\x00\x00\x80?\x00\x00\x80?\x00\x00\x80?\x00\x00\x80?\x00\x00\x80?\x00\x00\x80?\x00\x00\x80?\x00\x00\x80?\x00\x00\x80?\x00\x00\x80?\x00\x00\x80?\x00\x00\x80?\x00\x00\x80?\x00\x00\x80?\x00\x00\x80?\x00\x00\x80?\x00\x00\x80?\x00\x00\x80?\x00\x00\x80?\x00\x00\x80?\x00\x00\x80?\x00\x00\x80?\x00\x00\x80?\x00\x00\x80?\x00\x00\x80?\x00\x00\x80?\x00\x00\x80?\x00\x00\x80?\x00\x00\x80?\x00\x00\x80?\x00\x00\x80?\x00\x00\x80?\x00\x00\x80?\x00\x00\x80?\x00\x00\x80?\x00\x00\x80?\x00\x00\x80?\x00\x00\x80?\x00\x00\x80?\x00\x00\x80?\x00\x00\x80?\x00\x00\x80?\x00\x00\x80?\x00\x00\x80?\x00\x00\x80?\x00\x00\x80?\x00\x00\x80?\x00\x00\x80?\x00\x00\x80?\x00\x00\x80?\x00\x00\x80?\x00\x00\x80?'
S'\x00\x00\x00\x00\x00\x00\x00\x00\x00\x00\x00\x00\x00\x00\x00\x00\x00\x00\x00\x00\x00\x00\x00\x00\x00\x00\x00\x00\x00\x00\x00\x00\x00\x00\x00\x00\x00\x00\x00\x00\x00\x00\x00\x00\x00\x00\x00\x00\x00\x00\x00\x00\x00\x00\x00\x00\x00\x00\x00\x00\x00\x00\x00\x00\x00\x00\x00\x00\x00\x00\x00\x00\x00\x00\x00\x00\x00\x00\x00\x00\x00\x00\x00\x00\x00\x00\x00\x00\x00\x00\x00\x00\x00\x00\x00\x00'
Ntbsg24
g1162
(g1163
g1158
g1164
S'b'
tRp1169
(I1
(I96
I1
tg1166
I00
S'\x00\x00\x00\x00\x00\x00\x00\x00\x00\x00\x80?\x00\x00\x00\x00\x00\x00\x00\x00\x00\x00\x00\x00\x00\x00\x80?\x00\x00\x80?\x00\x00\x00\x00\x00\x00\x00\x00\x00\x00\x80?\x00\x00\x00\x00\x00\x00\x80?\x00\x00\x00\x00\x00\x00\x80?\x00\x00\x80?\x00\x00\x80?\x00\x00\x00\x00\x00\x00\x80?\x00\x00\x80?\x00\x00\x80?\x00\x00\x80?\x00\x00\x80?\x00\x00\x00\x00\x00\x00\x00\x00\x00\x00\x00\x00\x00\x00\x00\x00\x00\x00\x00\x00\x00\x00\x00\x00\x00\x00\x00\x00\x00\x00\x80?\x00\x00\x00\x00\x00\x00\x80?\x00\x00\x80?\x00\x00\x00\x00\x00\x00\x00\x00\x00\x00\x80?\x00\x00\x80?\x00\x00\x80?\x00\x00\x80?\x00\x00\x80?\x00\x00\x00\x00\x00\x00\x80?\x00\x00\x00\x00\x00\x00\x00\x00\x00\x00\x80?\x00\x00\x00\x00\x00\x00\x00\x00\x00\x00\x00\x00\x00\x00\x80?\x00\x00\x80?\x00\x00\x80?\x00\x00\x80?\x00\x00\x80?\x00\x00\x00\x00\x00\x00\x80?\x00\x00\x00\x00\x00\x00\x00\x00\x00\x00\x00\x00\x00\x00\x00\x00\x00\x00\x80?\x00\x00\x80?\x00\x00\x00\x00\x00\x00\x00\x00\x00\x00\x80?\x00\x00\x80?\x00\x00\x00\x00\x00\x00\x80?\x00\x00\x00\x00\x00\x00\x80?\x00\x00\x80?\x00\x00\x00\x00\x00\x00\x80?\x00\x00\x80?\x00\x00\x00\x00\x00\x00\x80?\x00\x00\x00\x00\x00\x00\x80?\x00\x00\x00\x00\x00\x00\x00\x00\x00\x00\x00\x00\x00\x00\x00\x00\x00\x00\x00\x00\x00\x00\x80?\x00\x00\x80?\x00\x00\x80?\x00\x00\x00\x00\x00\x00\x80?\x00\x00\x00\x00\x00\x00\x00\x00\x00\x00\x80?\x00\x00\x00\x00\x00\x00\x80?\x00\x00\x00\x00\x00\x00\x80?\x00\x00\x00\x00'
S'\x00\x00\x00\x00\x00\x00\x00\x00\x00\x00\x00\x00\x00\x00\x00\x00\x00\x00\x00\x00\x00\x00\x00\x00\x00\x00\x00\x00\x00\x00\x00\x00\x00\x00\x00\x00\x00\x00\x00\x00\x00\x00\x00\x00\x00\x00\x00\x00\x00\x00\x00\x00\x00\x00\x00\x00\x00\x00\x00\x00\x00\x00\x00\x00\x00\x00\x00\x00\x00\x00\x00\x00\x00\x00\x00\x00\x00\x00\x00\x00\x00\x00\x00\x00\x00\x00\x00\x00\x00\x00\x00\x00\x00\x00\x00\x00'
Ntbsg14
g1162
(g1163
g1158
g1164
S'b'
tRp1170
(I1
(I96
I1
tg1166
I00
S'\x0c\xf1\x0bC\xa7\xfb\xc2Cw\xa7\xa5Cz\x9d\xd8CF\x94/Ca>\x9cC@\x08\x80Cq\xab\x99A\xa3\xe1pC\x06\xb9cC\xff\xbc3C\xf5\x1d\xc7C\xee\x04kB\rM\xdbC\xa6fn@aU?C\x91b\x91C\xb3\xdc\x86C\xf7\r\xd6Ck2\x82C\x9fu\xbaC\xbfQ\xaaC\x12 \xbdC!\x18{Bp\xcf\xd1Cq\xd5\xb7CF\xf1\x96Bh\x1f\xc5C\x81\xfb\xfbB\xefz\xb1B\xc3\xcc]C\xc1q\xa3C\nPQC\x00\xb9LCv\x94\x06C-\x17\xffA\x97\xa7\xb3C\xc7\x19\x8dC\x1e\x13LA\x05HUCi+\xcfC\x08\xe6\x99C\xc0@HC\x16\xc8gC\xc2p\xafC\x08\x80\xdfC\xe4\x19\x1eC0\xa4\x9fB+d\x10C\x9c\xb3\xbaA\x00\xc2%C\xd1\x10\x86B#\xf5\xcbCQ\xe9YC\x16R\x02C\xd8<\xdeB\xcf\xb0\x14C=\xc4)C\t\x05"C0\x17uCe\x18\xd4C+\xd8\xb5C\x0f\xf1\xa8Bv\xbc\xe6B\x12\xaa\xf3B `\x9fC\xb8\x91\xacC\xd5t\xd4B\\\x9e\x97C&\x05YB\xd4t7C/Y\x13BM\xa7\xdbA\xe4{\x95C\xd55\x8fC\xb1\x9a\x8eB\xb5\xd4yC\xf9_;Cw\xad\xc9Cg.\x84C\x9f~\x93C&@\x19Ci\x98\xc1B.B\xccBn\x1aHBC\x816B}\x10\xa8C\x82\x1c\x8bC\x83\xaa$BM\xd1\xff@\x89\x84\xb9Bg\x86\xb1C\xa3a\xe2C5;lCWV\xc0CBe\xddC'
S'\x00\x00\x00\x00\x00\x00\x00\x00\x00\x00\x00\x00\x00\x00\x00\x00\x00\x00\x00\x00\x00\x00\x00\x00\x00\x00\x00\x00\x00\x00\x00\x00\x00\x00\x00\x00\x00\x00\x00\x00\x00\x00\x00\x00\x00\x00\x00\x00\x00\x00\x00\x00\x00\x00\x00\x00\x00\x00\x00\x00\x00\x00\x00\x00\x00\x00\x00\x00\x00\x00\x00\x00\x00\x00\x00\x00\x00\x00\x00\x00\x00\x00\x00\x00\x00\x00\x00\x00\x00\x00\x00\x00\x00\x00\x00\x00'
Ntbsg16
g1157
(g1158
(I0
tS'b'
tRp1171
(I1
(I96
I1
tg1160
I00
(lp1172
g415
ag989
ag857
ag1088
ag503
ag824
ag691
ag113
ag658
ag625
ag514
ag1011
ag217
ag1099
ag71
ag548
ag769
ag724
ag1077
ag702
ag956
ag879
ag967
ag228
ag1055
ag945
ag261
ag1000
ag382
ag294
ag614
ag846
ag581
ag570
ag404
ag148
ag923
ag746
ag100
ag592
ag1044
ag813
ag559
ag636
ag901
ag1121
ag459
ag272
ag426
ag125
ag481
ag239
ag1033
ag603
ag393
ag349
ag437
ag492
ag470
ag669
ag1066
ag934
ag283
ag360
ag371
ag835
ag890
ag338
ag802
ag205
ag526
ag159
ag137
ag791
ag758
ag250
ag680
ag537
ag1022
ag713
ag780
ag448
ag316
ag327
ag193
ag182
ag868
ag735
ag171
ag87
ag305
ag912
ag1132
ag647
ag978
ag1110
atbsg15
g1157
(g1158
(I0
tS'b'
tRp1173
(I1
(I96
I1
tg1160
I00
(lp1174
g88
ag88
ag88
ag88
ag72
ag88
ag88
ag72
ag88
ag88
ag72
ag72
ag88
ag88
ag72
ag88
ag72
ag88
ag88
ag72
ag88
ag72
ag88
ag72
ag72
ag72
ag72
ag88
ag72
ag72
ag72
ag72
ag88
ag72
ag88
ag88
ag88
ag72
ag72
ag88
ag72
ag88
ag88
ag72
ag72
ag88
ag72
ag88
ag88
ag88
ag72
ag72
ag72
ag72
ag88
ag88
ag72
ag88
ag72
ag88
ag72
ag72
ag72
ag72
ag88
ag72
ag88
ag72
ag72
ag88
ag72
ag72
ag88
ag88
ag88
ag88
ag88
ag72
ag72
ag72
ag72
ag72
ag72
ag72
ag88
ag72
ag88
ag88
ag88
ag88
ag88
ag72
ag72
ag72
ag88
ag72
atbsg22
g1162
(g1163
g1158
g1164
S'b'
tRp1175
(I1
(I96
I1
tg1166
I00
S"\xd2S\x0eCs\xf8\xc3Cm\x16\xa7C\xfb\x0e\xdaCK\x8b1C\xe3\xb8\x9dC2\x01\x81C\x8f:\xa9A;\x16sC\xb2\xc9eC\xa9\x925C\x0e\x89\xc8C2\\sB_^\xdcC\x98O\xc1@O\xdeEC\x18U\x92C\xd5\xf6\x89C\xdd\\\xd7C\xe96\x83C\xc6\xce\xbbC\xcb\x9c\xabC\x834\xbfCh\xad\x81B\xee\xd3\xd2C\xd8|\xb9C\xeeE\x9bB\xc4\x1e\xc6C\xb1\xee\xffB(\x97\xb5B\xe5\xc4aC\x12\x83\xa4C>cSC\x0eaOC;\xba\tC\xac\xd9\tB&\xc3\xb4CV>\x8eC6,tA\xcd\xe5WC\xd5\xc9\xd0C\xed4\x9bC$\xcfJCB:jC\xafr\xb0C\xdch\xe1C\xf4\xfe\x1fC\xe1\x87\xa3B@\xbf\x12C\xc9\xf1\xcbA\xfc\xca'C\x89\x8e\x8aB\xd4\x1c\xceC)\xdb[C\xae\x86\x04C~\xde\xe2B\x9c\xc6\x16C\xfc\xae,C\x19\xea#C\xed\xc6wCx\x16\xd5C\x18\xda\xb6CI\x83\xadB\x15\x93\xeeBx\xf4\xf7B&l\xa2C\xae\x00\xaeC\x8c+\xdaBC\xa9\x98C\xdd\xf6bB={9C{\x9c\x1cBFA\xecA\x9b\x9c\x96COC\x90C\x8b\x1d\x93B\xed\xa8}C\xaf^=Cp\xd8\xcaCS\xaf\x85C\xdax\x94C0\xad\x1bC\xf6\x0c\xc8Bg^\xd0B\xd4)PB'h?B\x06\x03\xa9C\xb2(\x8cC\x06\x01,B\x87n!A\x9f\x9b\xbdB\x0b\x87\xb2Cv\x90\xe3C\x11\xb5nC\xf0h\xc1C\x1f\x82\xdeC"
S'\x00\x00\x00\x00\x00\x00\x00\x00\x00\x00\x00\x00\x00\x00\x00\x00\x00\x00\x00\x00\x00\x00\x00\x00\x00\x00\x00\x00\x00\x00\x00\x00\x00\x00\x00\x00\x00\x00\x00\x00\x00\x00\x00\x00\x00\x00\x00\x00\x00\x00\x00\x00\x00\x00\x00\x00\x00\x00\x00\x00\x00\x00\x00\x00\x00\x00\x00\x00\x00\x00\x00\x00\x00\x00\x00\x00\x00\x00\x00\x00\x00\x00\x00\x00\x00\x00\x00\x00\x00\x00\x00\x00\x00\x00\x00\x00'
Ntbsg26
g1157
(g1158
(I0
tS'b'
tRp1176
(I1
(I96
I1
tg1160
I00
(lp1177
g36
(g80
S'\r\x00\x00\x00'
tRp1178
ag36
(g80
S'\x0f\x00\x00\x00'
tRp1179
ag36
(g80
S'\t\x00\x00\x00'
tRp1180
ag36
(g80
S'\x11\x00\x00\x00'
tRp1181
ag36
(g80
S'\x04\x00\x00\x00'
tRp1182
ag36
(g80
S'\x0c\x00\x00\x00'
tRp1183
ag36
(g80
S'\x0b\x00\x00\x00'
tRp1184
ag36
(g80
S'\x06\x00\x00\x00'
tRp1185
ag36
(g80
S'\x10\x00\x00\x00'
tRp1186
ag36
(g80
S'\x17\x00\x00\x00'
tRp1187
ag36
(g80
S'\x03\x00\x00\x00'
tRp1188
ag36
(g80
S'\x0c\x00\x00\x00'
tRp1189
ag36
(g80
S'\x0c\x00\x00\x00'
tRp1190
ag36
(g80
S'\x0e\x00\x00\x00'
tRp1191
aS'5.0'
p1192
ag36
(g80
S'\x08\x00\x00\x00'
tRp1193
ag36
(g80
S'\x0f\x00\x00\x00'
tRp1194
ag36
(g80
S'\x0e\x00\x00\x00'
tRp1195
ag36
(g80
S'\x0e\x00\x00\x00'
tRp1196
ag36
(g80
S'\x0e\x00\x00\x00'
tRp1197
ag36
(g80
S'\x08\x00\x00\x00'
tRp1198
ag36
(g80
S'\t\x00\x00\x00'
tRp1199
ag36
(g80
S'\x0b\x00\x00\x00'
tRp1200
ag36
(g80
S'\x0e\x00\x00\x00'
tRp1201
ag36
(g80
S'\x0e\x00\x00\x00'
tRp1202
ag36
(g80
S'\n\x00\x00\x00'
tRp1203
ag36
(g80
S'\x11\x00\x00\x00'
tRp1204
ag36
(g80
S'\x0e\x00\x00\x00'
tRp1205
ag36
(g80
S'\x13\x00\x00\x00'
tRp1206
ag36
(g80
S'\x0c\x00\x00\x00'
tRp1207
ag36
(g80
S'\x14\x00\x00\x00'
tRp1208
ag36
(g80
S'\x0c\x00\x00\x00'
tRp1209
ag36
(g80
S'\x0e\x00\x00\x00'
tRp1210
ag36
(g80
S'\x0b\x00\x00\x00'
tRp1211
ag36
(g80
S'\x10\x00\x00\x00'
tRp1212
ag36
(g80
S'\x0b\x00\x00\x00'
tRp1213
ag36
(g80
S'\x04\x00\x00\x00'
tRp1214
ag36
(g80
S'\x0f\x00\x00\x00'
tRp1215
ag36
(g80
S'\x05\x00\x00\x00'
tRp1216
ag36
(g80
S'\x11\x00\x00\x00'
tRp1217
ag36
(g80
S'\x0c\x00\x00\x00'
tRp1218
ag36
(g80
S'\x0f\x00\x00\x00'
tRp1219
ag36
(g80
S'\n\x00\x00\x00'
tRp1220
ag36
(g80
S'\x15\x00\x00\x00'
tRp1221
ag36
(g80
S'\x08\x00\x00\x00'
tRp1222
ag36
(g80
S'\t\x00\x00\x00'
tRp1223
ag36
(g80
S'\x08\x00\x00\x00'
tRp1224
ag36
(g80
S'\x10\x00\x00\x00'
tRp1225
ag36
(g80
S'\x0c\x00\x00\x00'
tRp1226
ag36
(g80
S'\x07\x00\x00\x00'
tRp1227
ag36
(g80
S'\x04\x00\x00\x00'
tRp1228
ag36
(g80
S'\r\x00\x00\x00'
tRp1229
ag36
(g80
S'\t\x00\x00\x00'
tRp1230
ag36
(g80
S'\x12\x00\x00\x00'
tRp1231
ag36
(g80
S'\x12\x00\x00\x00'
tRp1232
ag36
(g80
S'\x0f\x00\x00\x00'
tRp1233
ag36
(g80
S'\x0b\x00\x00\x00'
tRp1234
ag36
(g80
S'\x05\x00\x00\x00'
tRp1235
ag36
(g80
S'\x05\x00\x00\x00'
tRp1236
ag36
(g80
S'\x0e\x00\x00\x00'
tRp1237
ag36
(g80
S'\x0c\x00\x00\x00'
tRp1238
ag36
(g80
S'\x07\x00\x00\x00'
tRp1239
ag36
(g80
S'\r\x00\x00\x00'
tRp1240
ag36
(g80
S'\x11\x00\x00\x00'
tRp1241
ag36
(g80
S'\x10\x00\x00\x00'
tRp1242
ag36
(g80
S'\t\x00\x00\x00'
tRp1243
ag36
(g80
S'\x0b\x00\x00\x00'
tRp1244
ag36
(g80
S'\r\x00\x00\x00'
tRp1245
ag36
(g80
S'\x12\x00\x00\x00'
tRp1246
ag36
(g80
S'\t\x00\x00\x00'
tRp1247
ag36
(g80
S'\x05\x00\x00\x00'
tRp1248
ag36
(g80
S'\n\x00\x00\x00'
tRp1249
ag36
(g80
S'\x08\x00\x00\x00'
tRp1250
ag36
(g80
S'\x11\x00\x00\x00'
tRp1251
ag36
(g80
S'\x10\x00\x00\x00'
tRp1252
ag36
(g80
S'\x0f\x00\x00\x00'
tRp1253
ag36
(g80
S'\x0c\x00\x00\x00'
tRp1254
ag36
(g80
S'\x07\x00\x00\x00'
tRp1255
ag36
(g80
S'\n\x00\x00\x00'
tRp1256
ag36
(g80
S'\x10\x00\x00\x00'
tRp1257
ag36
(g80
S'\x12\x00\x00\x00'
tRp1258
ag36
(g80
S'\n\x00\x00\x00'
tRp1259
ag36
(g80
S'\x0b\x00\x00\x00'
tRp1260
ag36
(g80
S'\n\x00\x00\x00'
tRp1261
ag36
(g80
S'\x08\x00\x00\x00'
tRp1262
ag36
(g80
S'\x06\x00\x00\x00'
tRp1263
ag36
(g80
S'\x0c\x00\x00\x00'
tRp1264
ag36
(g80
S'\x0c\x00\x00\x00'
tRp1265
ag36
(g80
S'\x07\x00\x00\x00'
tRp1266
ag36
(g80
S'\x06\x00\x00\x00'
tRp1267
ag36
(g80
S'\t\x00\x00\x00'
tRp1268
ag36
(g80
S'\x07\x00\x00\x00'
tRp1269
ag36
(g80
S'\x0c\x00\x00\x00'
tRp1270
ag36
(g80
S'\x13\x00\x00\x00'
tRp1271
ag36
(g80
S'\x0e\x00\x00\x00'
tRp1272
ag36
(g80
S'\x0b\x00\x00\x00'
tRp1273
atbsg21
g1162
(g1163
g1158
g1164
S'b'
tRp1274
(I1
(I96
I1
tg1166
I00
S"\tO\x80?,\x9a\n?!\xbb\xc1?\xd7K\xbb?\x0bc)?\xcb\xae\xca?\x1bm\x17?R \x1f?\xf0\xbcJ?\x1fm\x17?\n+\r?Y\x03\xba?\xbb86?\xae\xe9=?\xb8|{?@s\xa6@\xb1i\xf6>L\xf1\x99@\xad\x88\x9c?4\xb0!?'}\xae?\xf7\xd0\x9d?\xe1R2@E\xf3+?\xac\xb0!?\x15\xe4\xf8?\xad\xe9=?T\xfe\x19?\x17\t\x08?\xda\xf4+?\x19] @Ez@?\xf6y.?\xdf\x82\xa5?q\xf4\xdd?\xdb?\x9b?X\rl?Y\xd5a?\x95\xf7\x99?\xa2\xae\x98?\x84X\xed?\xf6?\x9b?\xd0\xf6\x99?\xfc}{?\x8f\xf3+?\x95p\x1e@\t\xbb\x0f?\x98m\x05?||{?\\\x01U?\xf3Y;?\xbf\xb2\\?\x8a\xde=@\x8cm\x05?\xf0,H?^\x87i?\x87\xc78?\xaf\x8e\xce?\x8f\xdc\x14?,\x82\xa5?*\x8f\x1c?\x9b\x84.?\xc6\xf5f?\x01\xb9\x1f@\xc8X;?\xb2\xb2\x97@\x80r\xc0?+Q\xbb? A$?\xb9D\x92?\x14\xc88?\xd5\xebx?\x08\xea=?\x1arR?\x80\x171?(\x91W?9(\x1d@\xb2\xf3+?\x0e[v?'\xfe\xcb?f\xe7\x02?\xcbI\x89?\xf7\xa0\xee?\x15\xa63?%\xf4+?\xe2\xf5f?\x9c\xe7\x02?\x1176?\x9em\x05?6,H?\x06\xa63?\xb5\x84.?i\r~?\xfc'\x84?mz@?\xcfD_?"
S'\x00\x00\x00\x00\x00\x00\x00\x00\x00\x00\x00\x00\x00\x00\x00\x00\x00\x00\x00\x00\x00\x00\x00\x00\x00\x00\x00\x00\x00\x00\x00\x00\x00\x00\x00\x00\x00\x00\x00\x00\x00\x00\x00\x00\x00\x00\x00\x00\x00\x00\x00\x00\x00\x00\x00\x00\x00\x00\x00\x00\x00\x00\x00\x00\x00\x00\x00\x00\x00\x00\x00\x00\x00\x00\x00\x00\x00\x00\x00\x00\x00\x00\x00\x00\x00\x00\x00\x00\x00\x00\x00\x00\x00\x00\x00\x00'
NtbsS'order'
p1275
g1162
(g1163
g1158
g1164
S'b'
tRp1276
(I1
(I96
I1
tg1166
I00
S'\x00\x00\xf0A\x00\x00\xa4B\x00\x00\x8cB\x00\x00\xb6B\x00\x00\x18B\x00\x00\x86B\x00\x00\\B\x00\x00@@\x00\x00PB\x00\x00DB\x00\x00\x1cB\x00\x00\xa8B\x00\x00@A\x00\x00\xb8B\x00\x00\x00\x00\x00\x00(B\x00\x00xB\x00\x00hB\x00\x00\xb4B\x00\x00`B\x00\x00\x9eB\x00\x00\x90B\x00\x00\xa0B\x00\x00PA\x00\x00\xb0B\x00\x00\x9cB\x00\x00\x80A\x00\x00\xa6B\x00\x00\xd8A\x00\x00\x98A\x00\x00@B\x00\x00\x8aB\x00\x004B\x00\x000B\x00\x00\xe8A\x00\x00\xc0@\x00\x00\x98B\x00\x00pB\x00\x00\x00@\x00\x008B\x00\x00\xaeB\x00\x00\x84B\x00\x00,B\x00\x00HB\x00\x00\x94B\x00\x00\xbcB\x00\x00\x08B\x00\x00\x88A\x00\x00\xf8A\x00\x00\x80@\x00\x00\x10B\x00\x00`A\x00\x00\xacB\x00\x00<B\x00\x00\xe0A\x00\x00\xc0A\x00\x00\x00B\x00\x00\x14B\x00\x00\x0cB\x00\x00TB\x00\x00\xb2B\x00\x00\x9aB\x00\x00\x90A\x00\x00\xc8A\x00\x00\xd0A\x00\x00\x88B\x00\x00\x92B\x00\x00\xb8A\x00\x00\x82B\x00\x000A\x00\x00 B\x00\x00\xe0@\x00\x00\xa0@\x00\x00\x80B\x00\x00tB\x00\x00pA\x00\x00XB\x00\x00$B\x00\x00\xaaB\x00\x00dB\x00\x00|B\x00\x00\x04B\x00\x00\xa8A\x00\x00\xb0A\x00\x00 A\x00\x00\x10A\x00\x00\x8eB\x00\x00lB\x00\x00\x00A\x00\x00\x80?\x00\x00\xa0A\x00\x00\x96B\x00\x00\xbeB\x00\x00LB\x00\x00\xa2B\x00\x00\xbaB'
S'\x00\x00\x00\x00\x00\x00\x00\x00\x00\x00\x00\x00\x00\x00\x00\x00\x00\x00\x00\x00\x00\x00\x00\x00\x00\x00\x00\x00\x00\x00\x00\x00\x00\x00\x00\x00\x00\x00\x00\x00\x00\x00\x00\x00\x00\x00\x00\x00\x00\x00\x00\x00\x00\x00\x00\x00\x00\x00\x00\x00\x00\x00\x00\x00\x00\x00\x00\x00\x00\x00\x00\x00\x00\x00\x00\x00\x00\x00\x00\x00\x00\x00\x00\x00\x00\x00\x00\x00\x00\x00\x00\x00\x00\x00\x00\x00'
Ntbsg19
g1162
(g1163
g1158
g1164
S'b'
tRp1277
(I1
(I96
I1
tg1166
I00
S'\x00\x00\x80?\x00\x00\x80?\x00\x00\x80?\x00\x00\x80?\x00\x00\x80?\x00\x00\x80?\x00\x00\x80?\x00\x00\x00\x00\x00\x00\x80?\x00\x00\x80?\x00\x00\x80?\x00\x00\x80?\x00\x00\x80?\x00\x00\x80?\x00\x00\x80?\x00\x00\x80?\x00\x00\x80?\x00\x00\x80?\x00\x00\x80?\x00\x00\x00\x00\x00\x00\x80?\x00\x00\x00\x00\x00\x00\x80?\x00\x00\x80?\x00\x00\x80?\x00\x00\x80?\x00\x00\x80?\x00\x00\x80?\x00\x00\x80?\x00\x00\x80?\x00\x00\x80?\x00\x00\x80?\x00\x00\x80?\x00\x00\x00\x00\x00\x00\x80?\x00\x00\x80?\x00\x00\x80?\x00\x00\x80?\x00\x00\x00\x00\x00\x00\x80?\x00\x00\x00\x00\x00\x00\x80?\x00\x00\x00\x00\x00\x00\x80?\x00\x00\x80?\x00\x00\x00\x00\x00\x00\x80?\x00\x00\x80?\x00\x00\x80?\x00\x00\x00\x00\x00\x00\x00\x00\x00\x00\x00\x00\x00\x00\x00\x00\x00\x00\x80?\x00\x00\x80?\x00\x00\x00\x00\x00\x00\x80?\x00\x00\x80?\x00\x00\x80?\x00\x00\x80?\x00\x00\x00\x00\x00\x00\x00\x00\x00\x00\x80?\x00\x00\x80?\x00\x00\x00\x00\x00\x00\x00\x00\x00\x00\x80?\x00\x00\x00\x00\x00\x00\x80?\x00\x00\x80?\x00\x00\x80?\x00\x00\x80?\x00\x00\x80?\x00\x00\x80?\x00\x00\x80?\x00\x00\x00\x00\x00\x00\x80?\x00\x00\x80?\x00\x00\x80?\x00\x00\x80?\x00\x00\x80?\x00\x00\x80?\x00\x00\x80?\x00\x00\x80?\x00\x00\x80?\x00\x00\x80?\x00\x00\x80?\x00\x00\x80?\x00\x00\x80?\x00\x00\x80?\x00\x00\x00\x00\x00\x00\x80?\x00\x00\x80?\x00\x00\x80?\x00\x00\x80?\x00\x00\x80?'
S'\x00\x00\x00\x00\x00\x00\x00\x00\x00\x00\x00\x00\x00\x00\x00\x00\x00\x00\x00\x00\x00\x00\x00\x00\x00\x00\x00\x00\x00\x00\x00\x00\x00\x00\x00\x00\x00\x00\x00\x00\x00\x00\x00\x00\x00\x00\x00\x00\x00\x00\x00\x00\x00\x00\x00\x00\x00\x00\x00\x00\x00\x00\x00\x00\x00\x00\x00\x00\x00\x00\x00\x00\x00\x00\x00\x00\x00\x00\x00\x00\x00\x00\x00\x00\x00\x00\x00\x00\x00\x00\x00\x00\x00\x00\x00\x00'
Ntbsg27
g1157
(g1158
(I0
tS'b'
tRp1278
(I1
(I96
I1
tg1160
I00
(lp1279
g417
ag991
ag859
ag1090
ag505
ag826
ag693
ag116
ag660
ag627
ag517
ag1013
ag219
ag1101
ag76
ag550
ag771
ag726
ag1079
ag704
ag958
ag881
ag969
ag230
ag1057
ag947
ag263
ag1002
ag384
ag296
ag616
ag848
ag583
ag572
ag406
ag150
ag925
ag749
ag104
ag594
ag1046
ag815
ag561
ag638
ag903
ag1123
ag461
ag274
ag428
ag128
ag483
ag241
ag1035
ag605
ag395
ag351
ag439
ag494
ag472
ag671
ag1068
ag936
ag285
ag362
ag373
ag837
ag892
ag340
ag804
ag208
ag528
ag162
ag139
ag793
ag760
ag252
ag682
ag539
ag1024
ag715
ag782
ag450
ag318
ag329
ag196
ag184
ag870
ag737
ag173
ag91
ag307
ag914
ag1134
ag649
ag980
ag1112
atbsg23
g1157
(g1158
(I0
tS'b'
tRp1280
(I1
(I96
I1
tg1160
I00
(lp1281
S'2'
aS'2'
aS'1'
aS'3'
aS'2'
aS'3'
aS'1'
aS'1'
aS'3'
aS'3'
aS'1'
aS'3'
aS'1'
aS'3'
aS'1'
aS'1'
aS'1'
aS'3'
aS'1'
aS'1'
aS'1'
aS'1'
aS'1'
aS'2'
aS'3'
aS'3'
aS'2'
aS'3'
aS'2'
aS'3'
aS'1'
aS'3'
aS'1'
aS'1'
aS'3'
aS'2'
aS'1'
aS'1'
aS'1'
aS'1'
aS'1'
aS'3'
aS'1'
aS'3'
aS'2'
aS'1'
aS'3'
aS'3'
aS'2'
aS'1'
aS'1'
aS'1'
aS'1'
aS'1'
aS'3'
aS'1'
aS'2'
aS'2'
aS'2'
aS'3'
aS'1'
aS'1'
aS'2'
aS'2'
aS'1'
aS'1'
aS'3'
aS'1'
aS'3'
aS'1'
aS'1'
aS'3'
aS'1'
aS'1'
aS'2'
aS'1'
aS'2'
aS'1'
aS'2'
aS'3'
aS'2'
aS'3'
aS'2'
aS'1'
aS'1'
aS'1'
aS'3'
aS'1'
aS'2'
aS'2'
aS'1'
aS'3'
aS'1'
aS'3'
aS'1'
aS'3'
atbsg18
g1162
(g1163
g1158
g1164
S'b'
tRp1282
(I1
(I96
I1
tg1166
I00
S"\xf2M\rC\x84\xb0\xc3C\x10R\xa6C\x0eQ\xd9C\x14\xda0C\x8b\xeb\x9cC\xda\xb2\x80Ct\x17\xa4A;FrC\x02-eC;\x005Ch\xcc\xc7C?npB\xc8\xfc\xdbC<\xe3\xa0@r\xa5@C\xdc\x14\x92Cn\x8c\x87C\xb2\xbd\xd6Cn\xe3\x82C\xa8\x1d\xbbCX\xfc\xaaC<\xcd\xbdC\xfcJ\x80Bt\x80\xd2CR\x81\xb8C\x93\xbf\x99B#\xcf\xc5C\x15\xd4\xfeB\xb94\xb4B/>_C3 \xa4C\x80\xafRC\xc4\x10NC\r\xf9\x07C\xa4\xea\x04B~J\xb4C\xca\xca\x8dC\x05\x99`A+\xafVC\xdb\xd9\xcfC\x0b\x97\x9aC\xf3\x95IC\x819iC\x13\x1a\xb0CZ)\xe0C\xf5i\x1fC\x82r\xa2B\x80\xbe\x11C\xa4\x1f\xc5A_\n'C\x9b\xca\x88Bu\x9e\xccCxP[C?\xb9\x03C\xe6\x00\xe1B\x92\x08\x16C\x9b\x0c+C\xf9O#C\xa6vvC\x8f\xc5\xd4C4\x80\xb6C\xd9\xaa\xabB\xc7\x8a\xe9B n\xf6B\xb9\n\xa0C\x9a=\xadC\xc03\xd7B9S\x98C\xabO^B2\xbd8C\xb8\xa3\x18B\xd1'\xe6A\xc00\x96C!\xe8\x8fC\xe0c\x91B\n/{Cy\xad<C\xa2Z\xcaC\xb3\xe0\x84C\xc44\x94CX\x95\x1aC\xedG\xc4B\x94\xec\xceB\xf6dMBE\xb7;B\xef\xbe\xa8C\xf5\xca\x8bCC\xd6)B\xa3\x97\x14A\xcd)\xbcB'-\xb2C\xce\x0e\xe3C\x7f\xa7mC\x12\x06\xc1C\xdb\x0f\xdeC"
S'\x00\x00\x00\x00\x00\x00\x00\x00\x00\x00\x00\x00\x00\x00\x00\x00\x00\x00\x00\x00\x00\x00\x00\x00\x00\x00\x00\x00\x00\x00\x00\x00\x00\x00\x00\x00\x00\x00\x00\x00\x00\x00\x00\x00\x00\x00\x00\x00\x00\x00\x00\x00\x00\x00\x00\x00\x00\x00\x00\x00\x00\x00\x00\x00\x00\x00\x00\x00\x00\x00\x00\x00\x00\x00\x00\x00\x00\x00\x00\x00\x00\x00\x00\x00\x00\x00\x00\x00\x00\x00\x00\x00\x00\x00\x00\x00'
Ntbsg25
g1162
(g1163
g1158
g1164
S'b'
tRp1283
(I1
(I96
I1
tg1166
I00
S"8q\xa9>]K\x12?x\xfda>g\xe9=?B%\xec>\x13m\xc9?\x1a\xd3&?u\x04\xe7>\x0f\xa9\x8a>\xf1\x85\x85>\xed'\x1a>\x13+\r?\xdcyM>\x80O\xa4>\xa6\xfda>N\xd2&?,m\x17?\x9d\xbb\x0f?\x86\x9bE?V}M>q\xf5f?\xe3\xf28><\x08\x08?\x99%\xec>\xda\xbcJ?b\xbaW>\xf4\x05\xe7>\x91\x86\x85>c\x1f\x1f?\xfbAl>\x8d\xfca>\xfc)\r?\xc7k$>\xac|M>8l\xf6>\xfdA$?\xbc\xc1\xdc>pwM>Z\xc3\r@\x84\xc8\x8f>\x86,\x9f>Y\x92\xae>'\xf68>)\xb8\x8a>G\x9f\xd7>\x1e\xbcW>\xcc\xeb\x94>a\xebx?\xfb\xbcW>\x19Bl>E\x86v>\xc5\xea\x94>\xa5\x18\xc3>*\xbeW>\xb6O\xa4>=~M>.\xe9=?\x17\xd5\x94?\xb38\xe2=%P\xa4>\xfawM>o?l>\xf9c\x80>\xca\xdeO?h\xc7\x8f>O/\x9f>=D\x92?\x85\xf7\x99>\xa8\xe8=?\xf4\xc8\x8f>\x93j$>\xc1\xc8\x8f>Z\x15\x1f?\xda\xc9\x8f>\xea\xe6\x02?\xc5\xf28>\x81\xf3+?\xdd@l>\xee\x89\xfb>b\x1f\x1f?\xfa\xea\x94>\x0e\x151?\xd5\xf8\xbd>\x84\x19\x9f>\xach\xf6>\xf3\xe1\xe1>\xf3\xd3a?\x9d&\x1a>tjd?\xcb\xa7n?\xb6\x86\x85>@w\x05?\x17\x9bE?i\xcd\xe1>.\xe7\xb4?\x82d\x80>"
S'\x00\x00\x00\x00\x00\x00\x00\x00\x00\x00\x00\x00\x00\x00\x00\x00\x00\x00\x00\x00\x00\x00\x00\x00\x00\x00\x00\x00\x00\x00\x00\x00\x00\x00\x00\x00\x00\x00\x00\x00\x00\x00\x00\x00\x00\x00\x00\x00\x00\x00\x00\x00\x00\x00\x00\x00\x00\x00\x00\x00\x00\x00\x00\x00\x00\x00\x00\x00\x00\x00\x00\x00\x00\x00\x00\x00\x00\x00\x00\x00\x00\x00\x00\x00\x00\x00\x00\x00\x00\x00\x00\x00\x00\x00\x00\x00'
NtbstRp1284
(dp1285
S'isNumeric'
p1286
(dp1287
g23
I00
sg20
I00
sg17
I01
sg1167
I01
sg22
I01
sg24
I01
sg14
I01
sg18
I01
sg16
I00
sg19
I01
sg26
I00
sg27
I00
sg15
I00
sg21
I01
sg1275
I01
sg25
I01
ssg1151
g1145
sS'dataTypes'
p1288
(lp1289
g1167
ag1275
ag14
ag15
ag16
ag17
ag18
ag19
ag20
ag21
ag22
ag23
ag24
ag25
ag26
ag27
asS'dataShape'
p1290
(lp1291
I96
aI1
asbsS'method'
p1292
S'random'
p1293
sS'sequenceIndices'
p1294
g1157
(g1158
(I0
tS'b'
tRp1295
(I1
(I96
I1
tg80
I01
S'\x0e\x00\x00\x00Y\x00\x00\x00&\x00\x00\x00\x07\x00\x00\x001\x00\x00\x00H\x00\x00\x00#\x00\x00\x00G\x00\x00\x00X\x00\x00\x00U\x00\x00\x00T\x00\x00\x00E\x00\x00\x00\x0c\x00\x00\x00\x17\x00\x00\x003\x00\x00\x00K\x00\x00\x00\x1a\x00\x00\x00/\x00\x00\x00>\x00\x00\x00\x1d\x00\x00\x00Z\x00\x00\x00R\x00\x00\x00S\x00\x00\x00C\x00\x00\x007\x00\x00\x00?\x00\x00\x00@\x00\x00\x00\x1c\x00\x00\x006\x00\x00\x00"\x00\x00\x00\x00\x00\x00\x000\x00\x00\x008\x00\x00\x00Q\x00\x00\x00.\x00\x00\x00:\x00\x00\x002\x00\x00\x009\x00\x00\x00\x04\x00\x00\x00\n\x00\x00\x00F\x00\x00\x00M\x00\x00\x00\x0f\x00\x00\x00*\x00\x00\x00!\x00\x00\x00 \x00\x00\x00\'\x00\x00\x005\x00\x00\x00\x1e\x00\x00\x00\t\x00\x00\x00+\x00\x00\x00]\x00\x00\x00\x08\x00\x00\x00;\x00\x00\x00L\x00\x00\x00\x06\x00\x00\x00\x13\x00\x00\x00O\x00\x00\x00\x11\x00\x00\x00W\x00\x00\x00%\x00\x00\x00J\x00\x00\x00\x10\x00\x00\x00P\x00\x00\x00I\x00\x00\x00D\x00\x00\x00)\x00\x00\x00\x05\x00\x00\x00A\x00\x00\x00\x1f\x00\x00\x00\x02\x00\x00\x00V\x00\x00\x00\x15\x00\x00\x00B\x00\x00\x00,\x00\x00\x00[\x00\x00\x00$\x00\x00\x00=\x00\x00\x00\x19\x00\x00\x00\x14\x00\x00\x00\x16\x00\x00\x00^\x00\x00\x00\x01\x00\x00\x00\x1b\x00\x00\x00\x0b\x00\x00\x00N\x00\x00\x004\x00\x00\x00(\x00\x00\x00\x18\x00\x00\x00<\x00\x00\x00\x12\x00\x00\x00\x03\x00\x00\x00\r\x00\x00\x00_\x00\x00\x00-\x00\x00\x00\\\x00\x00\x00'
tbsS'finished'
p1296
I01
sS'nReps'
p1297
I1
sS'nRemaining'
p1298
I-1
sS'trialList'
p1299
(lp1300
g1
(cpsychopy.data
TrialType
p1301
g1155
(dp1302
g62
g74
sg63
g423
sg64
g206
sg65
g418
sg66
g422
stRp1303
ag1
(g1301
g1155
(dp1304
g62
g102
sg63
g997
sg64
g194
sg65
g992
sg66
g996
stRp1305
ag1
(g1301
g1155
(dp1306
g62
g74
sg63
g865
sg64
g206
sg65
g860
sg66
g864
stRp1307
ag1
(g1301
g1155
(dp1308
g62
g74
sg63
g1096
sg64
g747
sg65
g1091
sg66
g1095
stRp1309
ag1
(g1301
g1155
(dp1310
g62
g102
sg63
g511
sg64
g101
sg65
g506
sg66
g510
stRp1311
ag1
(g1301
g1155
(dp1312
g62
g74
sg63
g832
sg64
g206
sg65
g827
sg66
g831
stRp1313
ag1
(g1301
g1155
(dp1314
g62
g74
sg63
g699
sg64
g206
sg65
g694
sg66
g698
stRp1315
ag1
(g1301
g1155
(dp1316
g62
g74
sg63
g122
sg64
g114
sg65
g117
sg66
g121
stRp1317
ag1
(g1301
g1155
(dp1318
g62
g74
sg63
g666
sg64
g206
sg65
g661
sg66
g665
stRp1319
ag1
(g1301
g1155
(dp1320
g62
g74
sg63
g633
sg64
g114
sg65
g628
sg66
g632
stRp1321
ag1
(g1301
g1155
(dp1322
g62
g102
sg63
g523
sg64
g515
sg65
g518
sg66
g522
stRp1323
ag1
(g1301
g1155
(dp1324
g62
g74
sg63
g1019
sg64
g114
sg65
g1014
sg66
g1018
stRp1325
ag1
(g1301
g1155
(dp1326
g62
g74
sg63
g225
sg64
g73
sg65
g220
sg66
g224
stRp1327
ag1
(g1301
g1155
(dp1328
g62
g102
sg63
g1107
sg64
g194
sg65
g1102
sg66
g1106
stRp1329
ag1
(g1301
g1155
(dp1330
g62
g74
sg63
g84
sg64
g73
sg65
g78
sg66
g83
stRp1331
ag1
(g1301
g1155
(dp1332
g62
g74
sg63
g556
sg64
g206
sg65
g551
sg66
g555
stRp1333
ag1
(g1301
g1155
(dp1334
g62
g102
sg63
g777
sg64
g194
sg65
g772
sg66
g776
stRp1335
ag1
(g1301
g1155
(dp1336
g62
g74
sg63
g732
sg64
g73
sg65
g727
sg66
g731
stRp1337
ag1
(g1301
g1155
(dp1338
g62
g74
sg63
g1085
sg64
g160
sg65
g1080
sg66
g1084
stRp1339
ag1
(g1301
g1155
(dp1340
g62
g74
sg63
g710
sg64
g206
sg65
g705
sg66
g709
stRp1341
ag1
(g1301
g1155
(dp1342
g62
g102
sg63
g964
sg64
g194
sg65
g959
sg66
g963
stRp1343
ag1
(g1301
g1155
(dp1344
g62
g102
sg63
g887
sg64
g126
sg65
g882
sg66
g886
stRp1345
ag1
(g1301
g1155
(dp1346
g62
g74
sg63
g975
sg64
g160
sg65
g970
sg66
g974
stRp1347
ag1
(g1301
g1155
(dp1348
g62
g102
sg63
g236
sg64
g126
sg65
g231
sg66
g235
stRp1349
ag1
(g1301
g1155
(dp1350
g62
g102
sg63
g1063
sg64
g515
sg65
g1058
sg66
g1062
stRp1351
ag1
(g1301
g1155
(dp1352
g62
g74
sg63
g953
sg64
g89
sg65
g948
sg66
g952
stRp1353
ag1
(g1301
g1155
(dp1354
g62
g102
sg63
g269
sg64
g101
sg65
g264
sg66
g268
stRp1355
ag1
(g1301
g1155
(dp1356
g62
g102
sg63
g1008
sg64
g194
sg65
g1003
sg66
g1007
stRp1357
ag1
(g1301
g1155
(dp1358
g62
g74
sg63
g390
sg64
g73
sg65
g385
sg66
g389
stRp1359
ag1
(g1301
g1155
(dp1360
g62
g74
sg63
g302
sg64
g206
sg65
g297
sg66
g301
stRp1361
ag1
(g1301
g1155
(dp1362
g62
g74
sg63
g622
sg64
g160
sg65
g617
sg66
g621
stRp1363
ag1
(g1301
g1155
(dp1364
g62
g74
sg63
g854
sg64
g160
sg65
g849
sg66
g853
stRp1365
ag1
(g1301
g1155
(dp1366
g62
g102
sg63
g589
sg64
g194
sg65
g584
sg66
g588
stRp1367
ag1
(g1301
g1155
(dp1368
g62
g102
sg63
g578
sg64
g101
sg65
g573
sg66
g577
stRp1369
ag1
(g1301
g1155
(dp1370
g62
g102
sg63
g412
sg64
g101
sg65
g407
sg66
g411
stRp1371
ag1
(g1301
g1155
(dp1372
g62
g74
sg63
g156
sg64
g73
sg65
g151
sg66
g155
stRp1373
ag1
(g1301
g1155
(dp1374
g62
g74
sg63
g931
sg64
g89
sg65
g926
sg66
g930
stRp1375
ag1
(g1301
g1155
(dp1376
g62
g74
sg63
g755
sg64
g747
sg65
g750
sg66
g754
stRp1377
ag1
(g1301
g1155
(dp1378
g62
g102
sg63
g110
sg64
g101
sg65
g105
sg66
g109
stRp1379
ag1
(g1301
g1155
(dp1380
g62
g102
sg63
g600
sg64
g194
sg65
g595
sg66
g599
stRp1381
ag1
(g1301
g1155
(dp1382
g62
g102
sg63
g1052
sg64
g194
sg65
g1047
sg66
g1051
stRp1383
ag1
(g1301
g1155
(dp1384
g62
g74
sg63
g821
sg64
g73
sg65
g816
sg66
g820
stRp1385
ag1
(g1301
g1155
(dp1386
g62
g102
sg63
g567
sg64
g101
sg65
g562
sg66
g566
stRp1387
ag1
(g1301
g1155
(dp1388
g62
g102
sg63
g644
sg64
g126
sg65
g639
sg66
g643
stRp1389
ag1
(g1301
g1155
(dp1390
g62
g102
sg63
g909
sg64
g101
sg65
g904
sg66
g908
stRp1391
ag1
(g1301
g1155
(dp1392
g62
g102
sg63
g1129
sg64
g515
sg65
g1124
sg66
g1128
stRp1393
ag1
(g1301
g1155
(dp1394
g62
g74
sg63
g467
sg64
g206
sg65
g462
sg66
g466
stRp1395
ag1
(g1301
g1155
(dp1396
g62
g74
sg63
g280
sg64
g206
sg65
g275
sg66
g279
stRp1397
ag1
(g1301
g1155
(dp1398
g62
g102
sg63
g434
sg64
g194
sg65
g429
sg66
g433
stRp1399
ag1
(g1301
g1155
(dp1400
g62
g102
sg63
g134
sg64
g126
sg65
g129
sg66
g133
stRp1401
ag1
(g1301
g1155
(dp1402
g62
g102
sg63
g489
sg64
g194
sg65
g484
sg66
g488
stRp1403
ag1
(g1301
g1155
(dp1404
g62
g102
sg63
g247
sg64
g101
sg65
g242
sg66
g246
stRp1405
ag1
(g1301
g1155
(dp1406
g62
g102
sg63
g1041
sg64
g126
sg65
g1036
sg66
g1040
stRp1407
ag1
(g1301
g1155
(dp1408
g62
g74
sg63
g611
sg64
g73
sg65
g606
sg66
g610
stRp1409
ag1
(g1301
g1155
(dp1410
g62
g74
sg63
g401
sg64
g114
sg65
g396
sg66
g400
stRp1411
ag1
(g1301
g1155
(dp1412
g62
g102
sg63
g357
sg64
g126
sg65
g352
sg66
g356
stRp1413
ag1
(g1301
g1155
(dp1414
g62
g102
sg63
g445
sg64
g101
sg65
g440
sg66
g444
stRp1415
ag1
(g1301
g1155
(dp1416
g62
g102
sg63
g500
sg64
g101
sg65
g495
sg66
g499
stRp1417
ag1
(g1301
g1155
(dp1418
g62
g74
sg63
g478
sg64
g73
sg65
g473
sg66
g477
stRp1419
ag1
(g1301
g1155
(dp1420
g62
g102
sg63
g677
sg64
g101
sg65
g672
sg66
g676
stRp1421
ag1
(g1301
g1155
(dp1422
g62
g102
sg63
g1074
sg64
g101
sg65
g1069
sg66
g1073
stRp1423
ag1
(g1301
g1155
(dp1424
g62
g102
sg63
g942
sg64
g101
sg65
g937
sg66
g941
stRp1425
ag1
(g1301
g1155
(dp1426
g62
g74
sg63
g291
sg64
g89
sg65
g286
sg66
g290
stRp1427
ag1
(g1301
g1155
(dp1428
g62
g102
sg63
g368
sg64
g101
sg65
g363
sg66
g367
stRp1429
ag1
(g1301
g1155
(dp1430
g62
g74
sg63
g379
sg64
g114
sg65
g374
sg66
g378
stRp1431
ag1
(g1301
g1155
(dp1432
g62
g102
sg63
g843
sg64
g126
sg65
g838
sg66
g842
stRp1433
ag1
(g1301
g1155
(dp1434
g62
g74
sg63
g898
sg64
g160
sg65
g893
sg66
g897
stRp1435
ag1
(g1301
g1155
(dp1436
g62
g102
sg63
g346
sg64
g101
sg65
g341
sg66
g345
stRp1437
ag1
(g1301
g1155
(dp1438
g62
g102
sg63
g810
sg64
g194
sg65
g805
sg66
g809
stRp1439
ag1
(g1301
g1155
(dp1440
g62
g74
sg63
g214
sg64
g206
sg65
g209
sg66
g213
stRp1441
ag1
(g1301
g1155
(dp1442
g62
g102
sg63
g534
sg64
g101
sg65
g529
sg66
g533
stRp1443
ag1
(g1301
g1155
(dp1444
g62
g74
sg63
g168
sg64
g160
sg65
g163
sg66
g167
stRp1445
ag1
(g1301
g1155
(dp1446
g62
g74
sg63
g145
sg64
g89
sg65
g140
sg66
g144
stRp1447
ag1
(g1301
g1155
(dp1448
g62
g102
sg63
g799
sg64
g515
sg65
g794
sg66
g798
stRp1449
ag1
(g1301
g1155
(dp1450
g62
g102
sg63
g766
sg64
g101
sg65
g761
sg66
g765
stRp1451
ag1
(g1301
g1155
(dp1452
g62
g102
sg63
g258
sg64
g126
sg65
g253
sg66
g257
stRp1453
ag1
(g1301
g1155
(dp1454
g62
g74
sg63
g688
sg64
g114
sg65
g683
sg66
g687
stRp1455
ag1
(g1301
g1155
(dp1456
g62
g74
sg63
g545
sg64
g160
sg65
g540
sg66
g544
stRp1457
ag1
(g1301
g1155
(dp1458
g62
g74
sg63
g1030
sg64
g206
sg65
g1025
sg66
g1029
stRp1459
ag1
(g1301
g1155
(dp1460
g62
g102
sg63
g721
sg64
g101
sg65
g716
sg66
g720
stRp1461
ag1
(g1301
g1155
(dp1462
g62
g102
sg63
g788
sg64
g126
sg65
g783
sg66
g787
stRp1463
ag1
(g1301
g1155
(dp1464
g62
g74
sg63
g456
sg64
g206
sg65
g451
sg66
g455
stRp1465
ag1
(g1301
g1155
(dp1466
g62
g102
sg63
g324
sg64
g194
sg65
g319
sg66
g323
stRp1467
ag1
(g1301
g1155
(dp1468
g62
g74
sg63
g335
sg64
g160
sg65
g330
sg66
g334
stRp1469
ag1
(g1301
g1155
(dp1470
g62
g102
sg63
g202
sg64
g194
sg65
g197
sg66
g201
stRp1471
ag1
(g1301
g1155
(dp1472
g62
g102
sg63
g190
sg64
g101
sg65
g185
sg66
g189
stRp1473
ag1
(g1301
g1155
(dp1474
g62
g74
sg63
g876
sg64
g114
sg65
g871
sg66
g875
stRp1475
ag1
(g1301
g1155
(dp1476
g62
g74
sg63
g743
sg64
g114
sg65
g738
sg66
g742
stRp1477
ag1
(g1301
g1155
(dp1478
g62
g74
sg63
g179
sg64
g89
sg65
g174
sg66
g178
stRp1479
ag1
(g1301
g1155
(dp1480
g62
g74
sg63
g97
sg64
g89
sg65
g92
sg66
g96
stRp1481
ag1
(g1301
g1155
(dp1482
g62
g102
sg63
g313
sg64
g194
sg65
g308
sg66
g312
stRp1483
ag1
(g1301
g1155
(dp1484
g62
g74
sg63
g920
sg64
g114
sg65
g915
sg66
g919
stRp1485
ag1
(g1301
g1155
(dp1486
g62
g74
sg63
g1140
sg64
g89
sg65
g1135
sg66
g1139
stRp1487
ag1
(g1301
g1155
(dp1488
g62
g74
sg63
g655
sg64
g206
sg65
g650
sg66
g654
stRp1489
ag1
(g1301
g1155
(dp1490
g62
g102
sg63
g986
sg64
g126
sg65
g981
sg66
g985
stRp1491
ag1
(g1301
g1155
(dp1492
g62
g102
sg63
g1118
sg64
g194
sg65
g1113
sg66
g1117
stRp1493
asS'seed'
p1494
NsS'thisIndex'
p1495
g1137
sS'thisN'
p1496
I96
sS'thisTrialN'
p1497
I0
sS'nTotal'
p1498
I96
sS'_warnUseOfNext'
p1499
I01
sbasS'savePickle'
p1500
I00
sb.