ccopy_reg
_reconstructor
p1
(cpsychopy.data
ExperimentHandler
p2
c__builtin__
object
p3
NtRp4
(dp5
S'originPath'
p6
NsS'dataFileName'
p7
VC:\u005cDocuments and Settings\u005cExperimental user\u005cMy Documents\u005cconsciousness\u005cuncon_feat\u005cexperiment_scripts\u005cdata/ana_Experiment_EEG_version_2019_may_27_1549
p8
sS'runtimeInfo'
p9
NsS'name'
p10
VExperiment_EEG_version
p11
sS'dataNames'
p12
(lp13
S'image_onset_time'
p14
aS'response_window'
p15
aS'correctAns'
p16
aS'probe_onset'
p17
aS'discrim_resptime'
p18
aS'response.corr'
p19
aS'response.keys'
p20
aS'response.rt'
p21
aS'visible_resptime'
p22
aS'visible.keys'
p23
aS'visible.corr'
p24
aS'visible.rt'
p25
aS'probeFrames'
p26
aS'jitter2'
p27
asS'autoLog'
p28
I01
sS'extraInfo'
p29
(dp30
Vn_square
p31
V32
p32
sVexperiment_color
p33
Vbw
p34
sS'frameRate'
p35
cnumpy.core.multiarray
scalar
p36
(cnumpy
dtype
p37
(S'f8'
I0
I1
tRp38
(I3
S'<'
NNNI-1
I-1
I0
tbS'\x99\x99\xd6\xb6+\xf2X@'
tRp39
sS'date'
p40
V2019_may_27_1549
p41
sVsession
p42
V010
p43
sVimage_size
p44
V256
p45
sVpremask_dur
p46
V20
p47
sVprobeFrames
p48
V5
sVparticipant
p49
Vana
p50
sS'expName'
p51
g11
sVpostmask_dur
p52
V20
p53
ssS'loopsUnfinished'
p54
(lp55
sS'saveWideText'
p56
I00
sS'thisEntry'
p57
(dp58
sS'version'
p59
S''
sS'_paramNamesSoFar'
p60
(lp61
S'category'
p62
aS'probe_path'
p63
aS'subcategory'
p64
aS'fixation_duration'
p65
aS'label'
p66
asS'entries'
p67
(lp68
(dp69
g31
g32
sg17
F3.7482982922811061
sg24
I0
sg35
g39
sg14
F3.7240209185983986
sg16
g36
(g37
(S'i4'
I0
I1
tRp70
(I3
S'<'
NNNI-1
I-1
I0
tbS'\x02\x00\x00\x00'
tRp71
sg42
g43
sg46
g47
sg15
S'V_nV'
p72
sg22
F7.4029322986025363
sg64
VVehicles
p73
sg62
VNonliving_Things
p74
sg49
g50
sS'trials.thisN'
p75
I0
sg19
I0
sg27
g36
(g38
S'\x00\x00\x00\x00\x00\x00\x18@'
tRp76
sg52
g53
sg23
S'2'
sg18
F5.0167354235891253
sg33
g34
sg51
g11
sg20
S'1'
sg65
g36
(g37
(S'i8'
I0
I1
tRp77
(I3
S'<'
NNNI-1
I-1
I0
tbS'\x00\x00\x00\x00\x00\x00\x00\x00'
tRp78
sg44
g45
sg40
g41
sg25
F0.90220159804448485
sS'trials.thisIndex'
p79
g36
(g37
(S'i4'
I0
I1
tRp80
(I3
S'<'
NNNI-1
I-1
I0
tbS'\x07\x00\x00\x00'
tRp81
sg26
V5
sS'trials.thisRepN'
p82
I0
sg66
Vboat
p83
sg63
V../experiment_stimuli/bw_bc_bl/Nonliving_Things/Vehicles/boat_20.jpg
p84
sg21
F2.3553544783499092
sS'trials.thisTrialN'
p85
I0
sa(dp86
g31
g32
sg17
F10.042638937244192
sg24
I1
sg35
g39
sg14
F10.03774262429215
sg16
g36
(g70
S'\x01\x00\x00\x00'
tRp87
sg42
g43
sg46
g47
sg15
g72
sg22
F16.943388567073271
sg64
VMarine_creatures
p88
sg62
VLiving_Things
p89
sg49
g50
sS'trials.thisN'
p90
I1
sg19
I0
sg27
g36
(g38
S'\x00\x00\x00\x00\x00\x00\x18@'
tRp91
sg52
g53
sg23
S'1'
sg18
F11.300388165283948
sg33
g34
sg51
g11
sg20
S'2'
sg65
g36
(g77
S'\x00\x00\x00\x00\x00\x00\x00\x00'
tRp92
sg44
g45
sg40
g41
sg25
F0.5614546884316951
sS'trials.thisIndex'
p93
g36
(g80
S'\x17\x00\x00\x00'
tRp94
sg26
V5
sS'trials.thisRepN'
p95
I0
sg66
Vdolphin
p96
sg63
V../experiment_stimuli/bw_bc_bl/Living_Things/Marine_creatures/dolphin_24.jpg
p97
sg21
F5.622448620852083
sS'trials.thisTrialN'
p98
I1
sa(dp99
g31
g32
sg17
F19.243092796765268
sg24
I0
sg35
g39
sg14
F19.237740588141605
sg16
g36
(g70
S'\x02\x00\x00\x00'
tRp100
sg42
g43
sg46
g47
sg15
g72
sg22
F22.244911539368331
sg64
g73
sg62
g74
sg49
g50
sS'trials.thisN'
p101
I2
sg19
I1
sg27
g36
(g38
S'\x00\x00\x00\x00\x00\x00\x18@'
tRp102
sg52
g53
sg23
S'3'
sg18
F20.520427364623174
sg33
g34
sg51
g11
sg20
S'2'
sg65
g36
(g77
S'\x00\x00\x00\x00\x00\x00\x00\x00'
tRp103
sg44
g45
sg40
g41
sg25
F0.45120191015303135
sS'trials.thisIndex'
p104
g36
(g80
S'L\x00\x00\x00'
tRp105
sg26
V5
sS'trials.thisRepN'
p106
I0
sg66
Vship
p107
sg63
V../experiment_stimuli/bw_bc_bl/Nonliving_Things/Vehicles/ship_25.jpg
p108
sg21
F1.7039367510005832
sS'trials.thisTrialN'
p109
I2
sa(dp110
g31
g32
sg17
F24.434010612778366
sg24
I0
sg35
g39
sg14
F24.429033218417317
sg16
g36
(g70
S'\x02\x00\x00\x00'
tRp111
sg42
g43
sg46
g47
sg15
g72
sg22
F27.145582786994055
sg64
VKitchen_Uten
p112
sg62
g74
sg49
g50
sS'trials.thisN'
p113
I3
sg19
I1
sg27
g36
(g38
S'\x00\x00\x00\x00\x00\x00\x18@'
tRp114
sg52
g53
sg23
S'3'
sg18
F25.681653041858226
sg33
g34
sg51
g11
sg20
S'2'
sg65
g36
(g77
S'\x00\x00\x00\x00\x00\x00\x00\x00'
tRp115
sg44
g45
sg40
g41
sg25
F0.42115550627931952
sS'trials.thisIndex'
p116
g36
(g80
S'\x1f\x00\x00\x00'
tRp117
sg26
V5
sS'trials.thisRepN'
p118
I0
sg66
Vfrying-pan
p119
sg63
V../experiment_stimuli/bw_bc_bl/Nonliving_Things/Kitchen_Uten/frying-pan_21.jpg
p120
sg21
F1.4433783928398043
sS'trials.thisTrialN'
p121
I3
sa(dp122
g31
g32
sg17
F29.305097690084949
sg24
I1
sg35
g39
sg14
F29.299617704702541
sg16
g36
(g70
S'\x02\x00\x00\x00'
tRp123
sg42
g43
sg46
g47
sg15
S'nV_V'
p124
sg22
F32.086296562338248
sg64
g88
sg62
g89
sg49
g50
sS'trials.thisN'
p125
I4
sg19
I1
sg27
g36
(g38
S'\x00\x00\x00\x00\x00\x00\x1a@'
tRp126
sg52
g53
sg23
S'1'
sg18
F30.532200717600062
sg33
g34
sg51
g11
sg20
S'2'
sg65
g36
(g77
S'\x00\x00\x00\x00\x00\x00\x00\x00'
tRp127
sg44
g45
sg40
g41
sg25
F0.31089902855455875
sS'trials.thisIndex'
p128
g36
(g80
S'P\x00\x00\x00'
tRp129
sg26
V5
sS'trials.thisRepN'
p130
I0
sg66
Vsperm-whale
p131
sg63
V../experiment_stimuli/bw_bc_bl/Living_Things/Marine_creatures/sperm-whale_6.jpg
p132
sg21
F1.5335597137454897
sS'trials.thisTrialN'
p133
I4
sa(dp134
g31
g32
sg17
F34.135137809673324
sg24
I0
sg35
g39
sg14
F34.130117802880704
sg16
g36
(g70
S'\x01\x00\x00\x00'
tRp135
sg42
g43
sg46
g47
sg15
g124
sg22
F36.535986873554066
sg64
VFurniture
p136
sg62
g74
sg49
g50
sS'trials.thisN'
p137
I5
sg19
I1
sg27
g36
(g38
S'\x00\x00\x00\x00\x00\x00\x18@'
tRp138
sg52
g53
sg23
S'3'
sg18
F35.372722833883017
sg33
g34
sg51
g11
sg20
S'1'
sg65
g36
(g77
S'\x00\x00\x00\x00\x00\x00\x00\x00'
tRp139
sg44
g45
sg40
g41
sg25
F0.30086972867138684
sS'trials.thisIndex'
p140
g36
(g80
S'.\x00\x00\x00'
tRp141
sg26
V5
sS'trials.thisRepN'
p142
I0
sg66
Vlamp
p143
sg63
V../experiment_stimuli/bw_bc_bl/Nonliving_Things/Furniture/lamp_14.jpg
p144
sg21
F1.1427247882820666
sS'trials.thisTrialN'
p145
I5
sa(dp146
g31
g32
sg17
F38.574817354558036
sg24
I1
sg35
g39
sg14
F38.569767554756254
sg16
g36
(g70
S'\x01\x00\x00\x00'
tRp147
sg42
g43
sg46
g47
sg15
g72
sg22
F40.544556419597939
sg64
VBirds
p148
sg62
g89
sg49
g50
sS'trials.thisN'
p149
I6
sg19
I0
sg27
g36
(g38
S'\x00\x00\x00\x00\x00\x00\x18@'
tRp150
sg52
g53
sg23
S'1'
sg18
F39.802346804644912
sg33
g34
sg51
g11
sg20
S'2'
sg65
g36
(g77
S'\x00\x00\x00\x00\x00\x00\x00\x00'
tRp151
sg44
g45
sg40
g41
sg25
F0.33094377932138741
sS'trials.thisIndex'
p152
g36
(g80
S'!\x00\x00\x00'
tRp153
sg26
V5
sS'trials.thisRepN'
p154
I0
sg66
Vgoldfinch
p155
sg63
V../experiment_stimuli/bw_bc_bl/Living_Things/Birds/goldfinch_21.jpg
p156
sg21
F0.72163734911009669
sS'trials.thisTrialN'
p157
I6
sa(dp158
g31
g32
sg17
F42.614552003331482
sg24
I0
sg35
g39
sg14
F42.608550668228418
sg16
g36
(g70
S'\x02\x00\x00\x00'
tRp159
sg42
g43
sg46
g47
sg15
g72
sg22
F44.613530585309491
sg64
VBuildings
p160
sg62
g74
sg49
g50
sS'trials.thisN'
p161
I7
sg19
I1
sg27
g36
(g38
S'\x00\x00\x00\x00\x00\x00\x1e@'
tRp162
sg52
g53
sg23
S'2'
sg18
F43.851147996494547
sg33
g34
sg51
g11
sg20
S'2'
sg65
g36
(g77
S'\x00\x00\x00\x00\x00\x00\x00\x00'
tRp163
sg44
g45
sg40
g41
sg25
F0.34097999637015164
sS'trials.thisIndex'
p164
g36
(g80
S':\x00\x00\x00'
tRp165
sg26
V5
sS'trials.thisRepN'
p166
I0
sg66
Vpalace
p167
sg63
V../experiment_stimuli/bw_bc_bl/Nonliving_Things/Buildings/palace_14.jpg
p168
sg21
F0.74184149596840143
sS'trials.thisTrialN'
p169
I7
sa(dp170
g31
g32
sg17
F46.692325230920687
sg24
I1
sg35
g39
sg14
F46.68741363263689
sg16
g36
(g70
S'\x02\x00\x00\x00'
tRp171
sg42
g43
sg46
g47
sg15
g124
sg22
F48.792668369365856
sg64
g148
sg62
g89
sg49
g50
sS'trials.thisN'
p172
I8
sg19
I1
sg27
g36
(g38
S'\x00\x00\x00\x00\x00\x00\x18@'
tRp173
sg52
g53
sg23
S'1'
sg18
F47.920003792038187
sg33
g34
sg51
g11
sg20
S'2'
sg65
g36
(g77
S'\x00\x00\x00\x00\x00\x00\x00\x00'
tRp174
sg44
g45
sg40
g41
sg25
F0.35099712712690234
sS'trials.thisIndex'
p175
g36
(g80
S'9\x00\x00\x00'
tRp176
sg26
V5
sS'trials.thisRepN'
p177
I0
sg66
Vowl
p178
sg63
V../experiment_stimuli/bw_bc_bl/Living_Things/Birds/owl_3.jpg
p179
sg21
F0.85209868382662535
sS'trials.thisTrialN'
p180
I8
sa(dp181
g31
g32
sg17
F50.882046543527395
sg24
I0
sg35
g39
sg14
F50.876526796026155
sg16
g36
(g70
S'\x01\x00\x00\x00'
tRp182
sg42
g43
sg46
g47
sg15
g124
sg22
F53.272396629909053
sg64
g136
sg62
g74
sg49
g50
sS'trials.thisN'
p183
I9
sg19
I1
sg27
g36
(g38
S'\x00\x00\x00\x00\x00\x00\x18@'
tRp184
sg52
g53
sg23
S'3'
sg18
F52.139162577688694
sg33
g34
sg51
g11
sg20
S'1'
sg65
g36
(g77
S'\x00\x00\x00\x00\x00\x00\x00\x00'
tRp185
sg44
g45
sg40
g41
sg25
F0.29084956389851868
sS'trials.thisIndex'
p186
g36
(g80
S'\x13\x00\x00\x00'
tRp187
sg26
V5
sS'trials.thisRepN'
p188
I0
sg66
Vcouch
p189
sg63
V../experiment_stimuli/bw_bc_bl/Nonliving_Things/Furniture/couch_9.jpg
p190
sg21
F1.1126773618161678
sS'trials.thisTrialN'
p191
I9
sa(dp192
g31
g32
sg17
F55.301100305048749
sg24
I1
sg35
g39
sg14
F55.296131338691339
sg16
g36
(g70
S'\x01\x00\x00\x00'
tRp193
sg42
g43
sg46
g47
sg15
g72
sg22
F57.271072332747281
sg64
g148
sg62
g89
sg49
g50
sS'trials.thisN'
p194
I10
sg19
I1
sg27
g36
(g38
S'\x00\x00\x00\x00\x00\x00\x1a@'
tRp195
sg52
g53
sg23
S'1'
sg18
F56.528705351985991
sg33
g34
sg51
g11
sg20
S'1'
sg65
g36
(g77
S'\x00\x00\x00\x00\x00\x00\x00\x00'
tRp196
sg44
g45
sg40
g41
sg25
F0.31090549472719431
sS'trials.thisIndex'
p197
g36
(g80
S'?\x00\x00\x00'
tRp198
sg26
V5
sS'trials.thisRepN'
p199
I0
sg66
Vpigeon
p200
sg63
V../experiment_stimuli/bw_bc_bl/Living_Things/Birds/pigeon_14.jpg
p201
sg21
F0.72181689948774874
sS'trials.thisTrialN'
p202
I10
sa(dp203
g31
g32
sg17
F59.319793736329302
sg24
I0
sg35
g39
sg14
F59.314863566309214
sg16
g36
(g70
S'\x02\x00\x00\x00'
tRp204
sg42
g43
sg46
g47
sg15
g72
sg22
F61.901127110002562
sg64
g160
sg62
g74
sg49
g50
sS'trials.thisN'
p205
I11
sg19
I1
sg27
g36
(g38
S'\x00\x00\x00\x00\x00\x00\x1a@'
tRp206
sg52
g53
sg23
S'2'
sg18
F60.577510693809018
sg33
g34
sg51
g11
sg20
S'2'
sg65
g36
(g77
S'\x00\x00\x00\x00\x00\x00\x00\x00'
tRp207
sg44
g45
sg40
g41
sg25
F2.4554075004998595
sS'trials.thisIndex'
p208
g36
(g80
S'\x0c\x00\x00\x00'
tRp209
sg26
V5
sS'trials.thisRepN'
p210
I0
sg66
Vcastle
p211
sg63
V../experiment_stimuli/bw_bc_bl/Nonliving_Things/Buildings/castle_6.jpg
p212
sg21
F1.3030523797497153
sS'trials.thisTrialN'
p213
I11
sa(dp214
g31
g32
sg17
F66.094584075501189
sg24
I0
sg35
g39
sg14
F66.089591068215668
sg16
g36
(g70
S'\x01\x00\x00\x00'
tRp215
sg42
g43
sg46
g47
sg15
g72
sg22
F67.964296851074323
sg64
g148
sg62
g89
sg49
g50
sS'trials.thisN'
p216
I12
sg19
I1
sg27
g36
(g38
S'\x00\x00\x00\x00\x00\x00\x18@'
tRp217
sg52
g53
sg23
S'2'
sg18
F67.342216827906668
sg33
g34
sg51
g11
sg20
S'1'
sg65
g36
(g77
S'\x00\x00\x00\x00\x00\x00\x00\x00'
tRp218
sg44
g45
sg40
g41
sg25
F0.51135644712485373
sS'trials.thisIndex'
p219
g36
(g80
S'O\x00\x00\x00'
tRp220
sg26
V5
sS'trials.thisRepN'
p221
I0
sg66
Vsparrow
p222
sg63
V../experiment_stimuli/bw_bc_bl/Living_Things/Birds/sparrow_5.jpg
p223
sg21
F0.60153893404640257
sS'trials.thisTrialN'
p224
I12
sa(dp225
g31
g32
sg17
F70.213596972171217
sg24
I1
sg35
g39
sg14
F70.208550150040537
sg16
g36
(g70
S'\x01\x00\x00\x00'
tRp226
sg42
g43
sg46
g47
sg15
g72
sg22
F71.963012500666082
sg64
g88
sg62
g89
sg49
g50
sS'trials.thisN'
p227
I13
sg19
I1
sg27
g36
(g38
S'\x00\x00\x00\x00\x00\x00\x18@'
tRp228
sg52
g53
sg23
S'1'
sg18
F71.451151568209752
sg33
g34
sg51
g11
sg20
S'1'
sg65
g36
(g77
S'\x00\x00\x00\x00\x00\x00\x00\x00'
tRp229
sg44
g45
sg40
g41
sg25
F0.23074559774249792
sS'trials.thisIndex'
p230
g36
(g80
S'K\x00\x00\x00'
tRp231
sg26
V5
sS'trials.thisRepN'
p232
I0
sg66
Vshark
p233
sg63
V../experiment_stimuli/bw_bc_bl/Living_Things/Marine_creatures/shark_12.jpg
p234
sg21
F0.49129958800040185
sS'trials.thisTrialN'
p235
I13
sa(dp236
g31
g32
sg17
F73.931949065532535
sg24
I0
sg35
g39
sg14
F73.926629209890962
sg16
g36
(g70
S'\x02\x00\x00\x00'
tRp237
sg42
g43
sg46
g47
sg15
g72
sg22
F76.663229900877923
sg64
VMusical_Inst
p238
sg62
g74
sg49
g50
sS'trials.thisN'
p239
I14
sg19
I1
sg27
g36
(g38
S'\x00\x00\x00\x00\x00\x00\x18@'
tRp240
sg52
g53
sg23
S'2'
sg18
F75.179252522066236
sg33
g34
sg51
g11
sg20
S'2'
sg65
g36
(g77
S'\x00\x00\x00\x00\x00\x00\x00\x00'
tRp241
sg44
g45
sg40
g41
sg25
F0.34097637981176376
sS'trials.thisIndex'
p242
g36
(g80
S'X\x00\x00\x00'
tRp243
sg26
V5
sS'trials.thisRepN'
p244
I0
sg66
Vtrumpet
p245
sg63
V../experiment_stimuli/bw_bc_bl/Nonliving_Things/Musical_Inst/trumpet_2.jpg
p246
sg21
F1.4634109665639699
sS'trials.thisTrialN'
p247
I14
sa(dp248
g31
g32
sg17
F78.742394462460652
sg24
I1
sg35
g39
sg14
F78.737102075945586
sg16
g36
(g70
S'\x02\x00\x00\x00'
tRp249
sg42
g43
sg46
g47
sg15
g124
sg22
F81.583910733927041
sg64
VAnimals
p250
sg62
g89
sg49
g50
sS'trials.thisN'
p251
I15
sg19
I0
sg27
g36
(g38
S'\x00\x00\x00\x00\x00\x00\x18@'
tRp252
sg52
g53
sg23
S'1'
sg18
F79.979693516856059
sg33
g34
sg51
g11
sg20
S'1'
sg65
g36
(g77
S'\x00\x00\x00\x00\x00\x00\x00\x00'
tRp253
sg44
g45
sg40
g41
sg25
F0.53137191268615425
sS'trials.thisIndex'
p254
g36
(g80
S'\x10\x00\x00\x00'
tRp255
sg26
V5
sS'trials.thisRepN'
p256
I0
sg66
Vcheetah
p257
sg63
V../experiment_stimuli/bw_bc_bl/Living_Things/Animals/cheetah_19.jpg
p258
sg21
F1.5836767216678709
sS'trials.thisTrialN'
p259
I15
sa(dp260
g31
g32
sg17
F83.853925490519032
sg24
I0
sg35
g39
sg14
F83.848199674161151
sg16
g36
(g70
S'\x02\x00\x00\x00'
tRp261
sg42
g43
sg46
g47
sg15
g72
sg22
F86.073676647618413
sg64
g136
sg62
g74
sg49
g50
sS'trials.thisN'
p262
I16
sg19
I1
sg27
g36
(g38
S'\x00\x00\x00\x00\x00\x00\x18@'
tRp263
sg52
g53
sg23
S'2'
sg18
F85.110851794248447
sg33
g34
sg51
g11
sg20
S'2'
sg65
g36
(g77
S'\x00\x00\x00\x00\x00\x00\x00\x00'
tRp264
sg44
g45
sg40
g41
sg25
F0.35098846210166812
sS'trials.thisIndex'
p265
g36
(g80
S'\x1d\x00\x00\x00'
tRp266
sg26
V5
sS'trials.thisRepN'
p267
I0
sg66
Vfilling-cabinet
p268
sg63
V../experiment_stimuli/bw_bc_bl/Nonliving_Things/Furniture/filling-cabinet_1.jpg
p269
sg21
F0.9422738435678184
sS'trials.thisTrialN'
p270
I16
sa(dp271
g31
g32
sg17
F88.164173561846837
sg24
I1
sg35
g39
sg14
F88.1575736340601
sg16
g36
(g70
S'\x02\x00\x00\x00'
tRp272
sg42
g43
sg46
g47
sg15
g124
sg22
F90.082390541443601
sg64
g148
sg62
g89
sg49
g50
sS'trials.thisN'
p273
I17
sg19
I1
sg27
g36
(g38
S'\x00\x00\x00\x00\x00\x00 @'
tRp274
sg52
g53
sg23
S'1'
sg18
F89.410195378819481
sg33
g34
sg51
g11
sg20
S'2'
sg65
g36
(g77
S'\x00\x00\x00\x00\x00\x00\x00\x00'
tRp275
sg44
g45
sg40
g41
sg25
F0.2207026588730514
sS'trials.thisIndex'
p276
g36
(g80
S'F\x00\x00\x00'
tRp277
sg26
V5
sS'trials.thisRepN'
p278
I0
sg66
Vrooster
p279
sg63
V../experiment_stimuli/bw_bc_bl/Living_Things/Birds/rooster_12.jpg
p280
sg21
F0.65164561104029417
sS'trials.thisTrialN'
p281
I17
sa(dp282
g31
g32
sg17
F92.040985765866935
sg24
I1
sg35
g39
sg14
F92.036003701854497
sg16
g36
(g70
S'\x01\x00\x00\x00'
tRp283
sg42
g43
sg46
g47
sg15
g124
sg22
F93.940788193140179
sg64
g160
sg62
g74
sg49
g50
sS'trials.thisN'
p284
I18
sg19
I1
sg27
g36
(g38
S'\x00\x00\x00\x00\x00\x00\x18@'
tRp285
sg52
g53
sg23
S'1'
sg18
F93.3086804789491
sg33
g34
sg51
g11
sg20
S'1'
sg65
g36
(g77
S'\x00\x00\x00\x00\x00\x00\x00\x00'
tRp286
sg44
g45
sg40
g41
sg25
F0.22071678657084703
sS'trials.thisIndex'
p287
g36
(g80
S'\x1c\x00\x00\x00'
tRp288
sg26
V5
sS'trials.thisRepN'
p289
I0
sg66
Vfactory
p290
sg63
V../experiment_stimuli/bw_bc_bl/Nonliving_Things/Buildings/factory_13.jpg
p291
sg21
F0.61155263264663517
sS'trials.thisTrialN'
p292
I18
sa(dp293
g31
g32
sg17
F95.899387853452936
sg24
I0
sg35
g39
sg14
F95.894386639352888
sg16
g36
(g70
S'\x02\x00\x00\x00'
tRp294
sg42
g43
sg46
g47
sg15
g124
sg22
F98.490676764864475
sg64
g148
sg62
g89
sg49
g50
sS'trials.thisN'
p295
I19
sg19
I1
sg27
g36
(g38
S'\x00\x00\x00\x00\x00\x00\x18@'
tRp296
sg52
g53
sg23
S'3'
sg18
F97.187105204677209
sg33
g34
sg51
g11
sg20
S'2'
sg65
g36
(g77
S'\x00\x00\x00\x00\x00\x00\x00\x00'
tRp297
sg44
g45
sg40
g41
sg25
F0.39108303422108293
sS'trials.thisIndex'
p298
g36
(g80
S'<\x00\x00\x00'
tRp299
sg26
V5
sS'trials.thisRepN'
p300
I0
sg66
Vpelican
p301
sg63
V../experiment_stimuli/bw_bc_bl/Living_Things/Birds/pelican_12.jpg
p302
sg21
F1.2830241478513926
sS'trials.thisTrialN'
p303
I19
sa(dp304
g31
g32
sg17
F100.61971136764623
sg24
I0
sg35
g39
sg14
F100.61465318826959
sg16
g36
(g70
S'\x01\x00\x00\x00'
tRp305
sg42
g43
sg46
g47
sg15
g124
sg22
F102.72991771413945
sg64
g73
sg62
g74
sg49
g50
sS'trials.thisN'
p306
I20
sg19
I1
sg27
g36
(g38
S'\x00\x00\x00\x00\x00\x00\x18@'
tRp307
sg52
g53
sg23
S'3'
sg18
F101.87729842867702
sg33
g34
sg51
g11
sg20
S'1'
sg65
g36
(g77
S'\x00\x00\x00\x00\x00\x00\x00\x00'
tRp308
sg44
g45
sg40
g41
sg25
F0.52138913050293922
sS'trials.thisIndex'
p309
g36
(g80
S'@\x00\x00\x00'
tRp310
sg26
V5
sS'trials.thisRepN'
p311
I0
sg66
Vplane
p312
sg63
V../experiment_stimuli/bw_bc_bl/Nonliving_Things/Vehicles/plane_25.jpg
p313
sg21
F0.8320545949973166
sS'trials.thisTrialN'
p314
I20
sa(dp315
g31
g32
sg17
F104.98920315830037
sg24
I1
sg35
g39
sg14
F104.98415873060003
sg16
g36
(g70
S'\x01\x00\x00\x00'
tRp316
sg42
g43
sg46
g47
sg15
g72
sg22
F107.15953278308734
sg64
g148
sg62
g89
sg49
g50
sS'trials.thisN'
p317
I21
sg19
I0
sg27
g36
(g38
S'\x00\x00\x00\x00\x00\x00\x18@'
tRp318
sg52
g53
sg23
S'1'
sg18
F106.22675704001449
sg33
g34
sg51
g11
sg20
S'2'
sg65
g36
(g77
S'\x00\x00\x00\x00\x00\x00\x00\x00'
tRp319
sg44
g45
sg40
g41
sg25
F1.3130811082664877
sS'trials.thisIndex'
p320
g36
(g80
S'*\x00\x00\x00'
tRp321
sg26
V5
sS'trials.thisRepN'
p322
I0
sg66
Vhummingbird
p323
sg63
V../experiment_stimuli/bw_bc_bl/Living_Things/Birds/hummingbird_20.jpg
p324
sg21
F0.91221830761060119
sS'trials.thisTrialN'
p325
I21
sa(dp326
g31
g32
sg17
F110.21068214206025
sg24
I0
sg35
g39
sg14
F110.20550283277407
sg16
g36
(g70
S'\x01\x00\x00\x00'
tRp327
sg42
g43
sg46
g47
sg15
g72
sg22
F112.2606442947872
sg64
g250
sg62
g89
sg49
g50
sS'trials.thisN'
p328
I22
sg19
I1
sg27
g36
(g38
S'\x00\x00\x00\x00\x00\x00\x1a@'
tRp329
sg52
g53
sg23
S'3'
sg18
F111.47817496350035
sg33
g34
sg51
g11
sg20
S'1'
sg65
g36
(g77
S'\x00\x00\x00\x00\x00\x00\x00\x00'
tRp330
sg44
g45
sg40
g41
sg25
F0.40111090964637697
sS'trials.thisIndex'
p331
g36
(g80
S"'\x00\x00\x00"
tRp332
sg26
V5
sS'trials.thisRepN'
p333
I0
sg66
Vhippopotamus
p334
sg63
V../experiment_stimuli/bw_bc_bl/Living_Things/Animals/hippopotamus_17.jpg
p335
sg21
F0.7618826711550355
sS'trials.thisTrialN'
p336
I22
sa(dp337
g31
g32
sg17
F114.39985496993177
sg24
I1
sg35
g39
sg14
F114.39461097377352
sg16
g36
(g70
S'\x01\x00\x00\x00'
tRp338
sg42
g43
sg46
g47
sg15
g72
sg22
F116.43970014760271
sg64
g250
sg62
g89
sg49
g50
sS'trials.thisN'
p339
I23
sg19
I0
sg27
g36
(g38
S'\x00\x00\x00\x00\x00\x00\x1a@'
tRp340
sg52
g53
sg23
S'1'
sg18
F115.63721251999959
sg33
g34
sg51
g11
sg20
S'2'
sg65
g36
(g77
S'\x00\x00\x00\x00\x00\x00\x00\x00'
tRp341
sg44
g45
sg40
g41
sg25
F0.26099590864032507
sS'trials.thisIndex'
p342
g36
(g80
S'Z\x00\x00\x00'
tRp343
sg26
V5
sS'trials.thisRepN'
p344
I0
sg66
Vturtle
p345
sg63
V../experiment_stimuli/bw_bc_bl/Living_Things/Animals/turtle_22.jpg
p346
sg21
F0.78192341839894652
sS'trials.thisTrialN'
p347
I23
sa(dp348
g31
g32
sg17
F118.43945268820971
sg24
I0
sg35
g39
sg14
F118.43339743698016
sg16
g36
(g70
S'\x02\x00\x00\x00'
tRp349
sg42
g43
sg46
g47
sg15
g124
sg22
F120.5185935923364
sg64
g250
sg62
g89
sg49
g50
sS'trials.thisN'
p350
I24
sg19
I1
sg27
g36
(g38
S'\x00\x00\x00\x00\x00\x00\x1c@'
tRp351
sg52
g53
sg23
S'3'
sg18
F119.6960407635197
sg33
g34
sg51
g11
sg20
S'2'
sg65
g36
(g77
S'\x00\x00\x00\x00\x00\x00\x00\x00'
tRp352
sg44
g45
sg40
g41
sg25
F0.23075765743851662
sS'trials.thisIndex'
p353
g36
(g80
S'_\x00\x00\x00'
tRp354
sg26
V5
sS'trials.thisRepN'
p355
I0
sg66
Vzebra
p356
sg63
V../experiment_stimuli/bw_bc_bl/Living_Things/Animals/zebra_11.jpg
p357
sg21
F0.8019724206533283
sS'trials.thisTrialN'
p358
I24
sa(dp359
g31
g32
sg17
F122.48804295435548
sg24
I0
sg35
g39
sg14
F122.48219430167228
sg16
g36
(g70
S'\x02\x00\x00\x00'
tRp360
sg42
g43
sg46
g47
sg15
g124
sg22
F124.34689258481376
sg64
g148
sg62
g89
sg49
g50
sS'trials.thisN'
p361
I25
sg19
I1
sg27
g36
(g38
S'\x00\x00\x00\x00\x00\x00\x1c@'
tRp362
sg52
g53
sg23
S'2'
sg18
F123.72480018972419
sg33
g34
sg51
g11
sg20
S'2'
sg65
g36
(g77
S'\x00\x00\x00\x00\x00\x00\x00\x00'
tRp363
sg44
g45
sg40
g41
sg25
F0.59150239336304367
sS'trials.thisIndex'
p364
g36
(g80
S',\x00\x00\x00'
tRp365
sg26
V5
sS'trials.thisRepN'
p366
I0
sg66
Vkiwi
p367
sg63
V../experiment_stimuli/bw_bc_bl/Living_Things/Birds/kiwi_18.jpg
p368
sg21
F0.60153558803722262
sS'trials.thisTrialN'
p369
I25
sa(dp370
g31
g32
sg17
F126.67638389207423
sg24
I1
sg35
g39
sg14
F126.67131263040937
sg16
g36
(g70
S'\x02\x00\x00\x00'
tRp371
sg42
g43
sg46
g47
sg15
g124
sg22
F128.3155545333866
sg64
g250
sg62
g89
sg49
g50
sS'trials.thisN'
p372
I26
sg19
I0
sg27
g36
(g38
S'\x00\x00\x00\x00\x00\x00\x18@'
tRp373
sg52
g53
sg23
S'1'
sg18
F127.90388365089893
sg33
g34
sg51
g11
sg20
S'1'
sg65
g36
(g77
S'\x00\x00\x00\x00\x00\x00\x00\x00'
tRp374
sg44
g45
sg40
g41
sg25
F0.25077179190702736
sS'trials.thisIndex'
p375
g36
(g80
S'2\x00\x00\x00'
tRp376
sg26
V5
sS'trials.thisRepN'
p377
I0
sg66
Vlynx
p378
sg63
V../experiment_stimuli/bw_bc_bl/Living_Things/Animals/lynx_8.jpg
p379
sg21
F0.38108079042285681
sS'trials.thisTrialN'
p380
I26
sa(dp381
g31
g32
sg17
F130.30518783186562
sg24
I1
sg35
g39
sg14
F130.29919077130035
sg16
g36
(g70
S'\x02\x00\x00\x00'
tRp382
sg42
g43
sg46
g47
sg15
g72
sg22
F132.53467169567011
sg64
g160
sg62
g74
sg49
g50
sS'trials.thisN'
p383
I27
sg19
I1
sg27
g36
(g38
S'\x00\x00\x00\x00\x00\x00\x18@'
tRp384
sg52
g53
sg23
S'1'
sg18
F131.54179512569681
sg33
g34
sg51
g11
sg20
S'2'
sg65
g36
(g77
S'\x00\x00\x00\x00\x00\x00\x00\x00'
tRp385
sg44
g45
sg40
g41
sg25
F0.29084799997508526
sS'trials.thisIndex'
p386
g36
(g80
S')\x00\x00\x00'
tRp387
sg26
V5
sS'trials.thisRepN'
p388
I0
sg66
Vhouse
p389
sg63
V../experiment_stimuli/bw_bc_bl/Nonliving_Things/Buildings/house_10.jpg
p390
sg21
F0.97233816119842231
sS'trials.thisTrialN'
p391
I27
sa(dp392
g31
g32
sg17
F134.56432144739665
sg24
I0
sg35
g39
sg14
F134.55846420070156
sg16
g36
(g70
S'\x02\x00\x00\x00'
tRp393
sg42
g43
sg46
g47
sg15
g124
sg22
F136.67368018929847
sg64
g88
sg62
g89
sg49
g50
sS'trials.thisN'
p394
I28
sg19
I1
sg27
g36
(g38
S'\x00\x00\x00\x00\x00\x00\x1e@'
tRp395
sg52
g53
sg23
S'3'
sg18
F135.82109583960846
sg33
g34
sg51
g11
sg20
S'2'
sg65
g36
(g77
S'\x00\x00\x00\x00\x00\x00\x00\x00'
tRp396
sg44
g45
sg40
g41
sg25
F0.26088761724531651
sS'trials.thisIndex'
p397
g36
(g80
S'^\x00\x00\x00'
tRp398
sg26
V5
sS'trials.thisRepN'
p399
I0
sg66
Vwhale
p400
sg63
V../experiment_stimuli/bw_bc_bl/Living_Things/Marine_creatures/whale_7.jpg
p401
sg21
F0.83203863655216992
sS'trials.thisTrialN'
p402
I28
sa(dp403
g31
g32
sg17
F138.67248237156309
sg24
I1
sg35
g39
sg14
F138.66739697474986
sg16
g36
(g70
S'\x02\x00\x00\x00'
tRp404
sg42
g43
sg46
g47
sg15
g72
sg22
F140.50210923654959
sg64
VTools
p405
sg62
g74
sg49
g50
sS'trials.thisN'
p406
I29
sg19
I1
sg27
g36
(g38
S'\x00\x00\x00\x00\x00\x00\x18@'
tRp407
sg52
g53
sg23
S'1'
sg18
F139.89997538994066
sg33
g34
sg51
g11
sg20
S'2'
sg65
g36
(g77
S'\x00\x00\x00\x00\x00\x00\x00\x00'
tRp408
sg44
g45
sg40
g41
sg25
F0.22069953102618456
sS'trials.thisIndex'
p409
g36
(g80
S'\x03\x00\x00\x00'
tRp410
sg26
V5
sS'trials.thisRepN'
p411
I0
sg66
Vaxe
p412
sg63
V../experiment_stimuli/bw_bc_bl/Nonliving_Things/Tools/axe_25.jpg
p413
sg21
F0.58158511435613036
sS'trials.thisTrialN'
p414
I29
sa(dp415
g31
g32
sg17
F142.4607257572934
sg24
I0
sg35
g39
sg14
F142.4556210373994
sg16
g36
(g70
S'\x02\x00\x00\x00'
tRp416
sg42
g43
sg46
g47
sg15
g124
sg22
F144.69112207065336
sg64
g250
sg62
g89
sg49
g50
sS'trials.thisN'
p417
I30
sg19
I1
sg27
g36
(g38
S'\x00\x00\x00\x00\x00\x00\x1e@'
tRp418
sg52
g53
sg23
S'2'
sg18
F143.71827293559909
sg33
g34
sg51
g11
sg20
S'2'
sg65
g36
(g77
S'\x00\x00\x00\x00\x00\x00\x00\x00'
tRp419
sg44
g45
sg40
g41
sg25
F0.43117034016177058
sS'trials.thisIndex'
p420
g36
(g80
S'\r\x00\x00\x00'
tRp421
sg26
V5
sS'trials.thisRepN'
p422
I0
sg66
Vcat
p423
sg63
V../experiment_stimuli/bw_bc_bl/Living_Things/Animals/cat_0.jpg
p424
sg21
F0.95229208352975547
sS'trials.thisTrialN'
p425
I30
sa(dp426
g31
g32
sg17
F146.86195452208631
sg24
I0
sg35
g39
sg14
F146.85518821678124
sg16
g36
(g70
S'\x01\x00\x00\x00'
tRp427
sg42
g43
sg46
g47
sg15
g72
sg22
F149.25103302136995
sg64
g250
sg62
g89
sg49
g50
sS'trials.thisN'
p428
I31
sg19
I1
sg27
g36
(g38
S'\x00\x00\x00\x00\x00\x00\x18@'
tRp429
sg52
g53
sg23
S'2'
sg18
F148.10782207059674
sg33
g34
sg51
g11
sg20
S'1'
sg65
g36
(g77
S'\x00\x00\x00\x00\x00\x00\x00\x00'
tRp430
sg44
g45
sg40
g41
sg25
F0.4109579639043659
sS'trials.thisIndex'
p431
g36
(g80
S'T\x00\x00\x00'
tRp432
sg26
V5
sS'trials.thisRepN'
p433
I0
sg66
Vtiger
p434
sg63
V../experiment_stimuli/bw_bc_bl/Living_Things/Animals/tiger_22.jpg
p435
sg21
F1.1226650797761977
sS'trials.thisTrialN'
p436
I31
sa(dp437
g31
g32
sg17
F151.4000984726008
sg24
I0
sg35
g39
sg14
F151.39506792812608
sg16
g36
(g70
S'\x02\x00\x00\x00'
tRp438
sg42
g43
sg46
g47
sg15
g124
sg22
F154.55261638411321
sg64
g250
sg62
g89
sg49
g50
sS'trials.thisN'
p439
I32
sg19
I1
sg27
g36
(g38
S'\x00\x00\x00\x00\x00\x00\x18@'
tRp440
sg52
g53
sg23
S'2'
sg18
F152.63765857601538
sg33
g34
sg51
g11
sg20
S'2'
sg65
g36
(g77
S'\x00\x00\x00\x00\x00\x00\x00\x00'
tRp441
sg44
g45
sg40
g41
sg25
F0.32094153156504035
sS'trials.thisIndex'
p442
g36
(g80
S'\x01\x00\x00\x00'
tRp443
sg26
V5
sS'trials.thisRepN'
p444
I0
sg66
Varmadillo
p445
sg63
V../experiment_stimuli/bw_bc_bl/Living_Things/Animals/armadillo_17.jpg
p446
sg21
F1.8943716853391379
sS'trials.thisTrialN'
p447
I32
sa(dp448
g31
g32
sg17
F156.61152578447945
sg24
I1
sg35
g39
sg14
F156.60638988460414
sg16
g36
(g70
S'\x02\x00\x00\x00'
tRp449
sg42
g43
sg46
g47
sg15
g124
sg22
F159.19266530731693
sg64
g250
sg62
g89
sg49
g50
sS'trials.thisN'
p450
I33
sg19
I0
sg27
g36
(g38
S'\x00\x00\x00\x00\x00\x00\x1a@'
tRp451
sg52
g53
sg23
S'1'
sg18
F157.83898107009009
sg33
g34
sg51
g11
sg20
S'1'
sg65
g36
(g77
S'\x00\x00\x00\x00\x00\x00\x00\x00'
tRp452
sg44
g45
sg40
g41
sg25
F0.26080305082723498
sS'trials.thisIndex'
p453
g36
(g80
S' \x00\x00\x00'
tRp454
sg26
V5
sS'trials.thisRepN'
p455
I0
sg66
Vgiraffe
p456
sg63
V../experiment_stimuli/bw_bc_bl/Living_Things/Animals/giraffe_22.jpg
p457
sg21
F1.3331226143054664
sS'trials.thisTrialN'
p458
I33
sa(dp459
g31
g32
sg17
F161.19133510813117
sg24
I0
sg35
g39
sg14
F161.18634470226243
sg16
g36
(g70
S'\x02\x00\x00\x00'
tRp460
sg42
g43
sg46
g47
sg15
g72
sg22
F163.21141374530271
sg64
g136
sg62
g74
sg49
g50
sS'trials.thisN'
p461
I34
sg19
I1
sg27
g36
(g38
S'\x00\x00\x00\x00\x00\x00\x1a@'
tRp462
sg52
g53
sg23
S'2'
sg18
F162.44899631850421
sg33
g34
sg51
g11
sg20
S'2'
sg65
g36
(g77
S'\x00\x00\x00\x00\x00\x00\x00\x00'
tRp463
sg44
g45
sg40
g41
sg25
F0.55142673826776445
sS'trials.thisIndex'
p464
g36
(g80
S'\x02\x00\x00\x00'
tRp465
sg26
V5
sS'trials.thisRepN'
p466
I0
sg66
Varmchair
p467
sg63
V../experiment_stimuli/bw_bc_bl/Nonliving_Things/Furniture/armchair_14.jpg
p468
sg21
F0.74185788328759372
sS'trials.thisTrialN'
p469
I34
sa(dp470
g31
g32
sg17
F165.50081725441851
sg24
I0
sg35
g39
sg14
F165.49574627075344
sg16
g36
(g70
S'\x01\x00\x00\x00'
tRp471
sg42
g43
sg46
g47
sg15
g124
sg22
F167.41050926595926
sg64
g136
sg62
g74
sg49
g50
sS'trials.thisN'
p472
I35
sg19
I1
sg27
g36
(g38
S'\x00\x00\x00\x00\x00\x00\x1c@'
tRp473
sg52
g53
sg23
S'3'
sg18
F166.74834118131548
sg33
g34
sg51
g11
sg20
S'1'
sg65
g36
(g77
S'\x00\x00\x00\x00\x00\x00\x00\x00'
tRp474
sg44
g45
sg40
g41
sg25
F0.21067497157491744
sS'trials.thisIndex'
p475
g36
(g80
S'\x05\x00\x00\x00'
tRp476
sg26
V5
sS'trials.thisRepN'
p477
I0
sg66
Vbed
p478
sg63
V../experiment_stimuli/bw_bc_bl/Nonliving_Things/Furniture/bed_2.jpg
p479
sg21
F0.641618074150756
sS'trials.thisTrialN'
p480
I35
sa(dp481
g31
g32
sg17
F169.35926116490737
sg24
I1
sg35
g39
sg14
F169.35411287425086
sg16
g36
(g70
S'\x01\x00\x00\x00'
tRp482
sg42
g43
sg46
g47
sg15
g72
sg22
F171.18875320837833
sg64
VInsects
p483
sg62
g89
sg49
g50
sS'trials.thisN'
p484
I36
sg19
I0
sg27
g36
(g38
S'\x00\x00\x00\x00\x00\x00\x1e@'
tRp485
sg52
g53
sg23
S'1'
sg18
F170.58668427052908
sg33
g34
sg51
g11
sg20
S'2'
sg65
g36
(g77
S'\x00\x00\x00\x00\x00\x00\x00\x00'
tRp486
sg44
g45
sg40
g41
sg25
F0.19065005914308131
sS'trials.thisIndex'
p487
g36
(g80
S'\x18\x00\x00\x00'
tRp488
sg26
V5
sS'trials.thisRepN'
p489
I0
sg66
Vdragonfly
p490
sg63
V../experiment_stimuli/bw_bc_bl/Living_Things/Insects/dragonfly_4.jpg
p491
sg21
F0.58150985650718212
sS'trials.thisTrialN'
p492
I36
sa(dp493
g31
g32
sg17
F173.11749655543827
sg24
I0
sg35
g39
sg14
F173.11227119457908
sg16
g36
(g70
S'\x01\x00\x00\x00'
tRp494
sg42
g43
sg46
g47
sg15
g72
sg22
F175.12731311796233
sg64
g250
sg62
g89
sg49
g50
sS'trials.thisN'
p495
I37
sg19
I1
sg27
g36
(g38
S'\x00\x00\x00\x00\x00\x00\x1a@'
tRp496
sg52
g53
sg23
S'3'
sg18
F174.37491984083317
sg33
g34
sg51
g11
sg20
S'1'
sg65
g36
(g77
S'\x00\x00\x00\x00\x00\x00\x00\x00'
tRp497
sg44
g45
sg40
g41
sg25
F0.25076176202856004
sS'trials.thisIndex'
p498
g36
(g80
S'\x1b\x00\x00\x00'
tRp499
sg26
V5
sS'trials.thisRepN'
p500
I0
sg66
Velephant
p501
sg63
V../experiment_stimuli/bw_bc_bl/Living_Things/Animals/elephant_3.jpg
p502
sg21
F0.73183155315928161
sS'trials.thisTrialN'
p503
I37
sa(dp504
g31
g32
sg17
F177.117642872734
sg24
I1
sg35
g39
sg14
F177.11097362986766
sg16
g36
(g70
S'\x01\x00\x00\x00'
tRp505
sg42
g43
sg46
g47
sg15
g124
sg22
F179.89767047949135
sg64
g73
sg62
g74
sg49
g50
sS'trials.thisN'
p506
I38
sg19
I0
sg27
g36
(g38
S'\x00\x00\x00\x00\x00\x00\x1e@'
tRp507
sg52
g53
sg23
S'1'
sg18
F178.35357043193653
sg33
g34
sg51
g11
sg20
S'2'
sg65
g36
(g77
S'\x00\x00\x00\x00\x00\x00\x00\x00'
tRp508
sg44
g45
sg40
g41
sg25
F2.0045800732914358
sS'trials.thisIndex'
p509
g36
(g80
S'6\x00\x00\x00'
tRp510
sg26
V5
sS'trials.thisRepN'
p511
I0
sg66
Vmotorbike
p512
sg63
V../experiment_stimuli/bw_bc_bl/Nonliving_Things/Vehicles/motorbike_10.jpg
p513
sg21
F1.5235392744652927
sS'trials.thisTrialN'
p514
I38
sa(dp515
g31
g32
sg17
F183.64022648544051
sg24
I1
sg35
g39
sg14
F183.63517446047626
sg16
g36
(g70
S'\x02\x00\x00\x00'
tRp516
sg42
g43
sg46
g47
sg15
g72
sg22
F186.97304014954716
sg64
g405
sg62
g74
sg49
g50
sS'trials.thisN'
p517
I39
sg19
I1
sg27
g36
(g38
S'\x00\x00\x00\x00\x00\x00\x18@'
tRp518
sg52
g53
sg23
S'1'
sg18
F184.89779754681513
sg33
g34
sg51
g11
sg20
S'2'
sg65
g36
(g77
S'\x00\x00\x00\x00\x00\x00\x00\x00'
tRp519
sg44
g45
sg40
g41
sg25
F0.54140036297030747
sS'trials.thisIndex'
p520
g36
(g80
S'%\x00\x00\x00'
tRp521
sg26
V5
sS'trials.thisRepN'
p522
I0
sg66
Vhammer
p523
sg63
V../experiment_stimuli/bw_bc_bl/Nonliving_Things/Tools/hammer_6.jpg
p524
sg21
F2.054699799278751
sS'trials.thisTrialN'
p525
I39
sa(dp526
g31
g32
sg17
F189.25241123489104
sg24
I0
sg35
g39
sg14
F189.24735573586076
sg16
g36
(g70
S'\x02\x00\x00\x00'
tRp527
sg42
g43
sg46
g47
sg15
g124
sg22
F191.66325794486329
sg64
g148
sg62
g89
sg49
g50
sS'trials.thisN'
p528
I40
sg19
I1
sg27
g36
(g38
S'\x00\x00\x00\x00\x00\x00\x18@'
tRp529
sg52
g53
sg23
S'3'
sg18
F190.53004747093655
sg33
g34
sg51
g11
sg20
S'2'
sg65
g36
(g77
S'\x00\x00\x00\x00\x00\x00\x00\x00'
tRp530
sg44
g45
sg40
g41
sg25
F0.340962297283113
sS'trials.thisIndex'
p531
g36
(g80
S'\x1a\x00\x00\x00'
tRp532
sg26
V5
sS'trials.thisRepN'
p533
I0
sg66
Vduck
p534
sg63
V../experiment_stimuli/bw_bc_bl/Living_Things/Birds/duck_13.jpg
p535
sg21
F1.1126380127388984
sS'trials.thisTrialN'
p536
I40
sa(dp537
g31
g32
sg17
F193.74236814980395
sg24
I0
sg35
g39
sg14
F193.73711520247161
sg16
g36
(g70
S'\x01\x00\x00\x00'
tRp538
sg42
g43
sg46
g47
sg15
g72
sg22
F195.83229488460347
sg64
g148
sg62
g89
sg49
g50
sS'trials.thisN'
p539
I41
sg19
I1
sg27
g36
(g38
S'\x00\x00\x00\x00\x00\x00\x18@'
tRp540
sg52
g53
sg23
S'3'
sg18
F194.99976293533109
sg33
g34
sg51
g11
sg20
S'1'
sg65
g36
(g77
S'\x00\x00\x00\x00\x00\x00\x00\x00'
tRp541
sg44
g45
sg40
g41
sg25
F0.20065525406971574
sS'trials.thisIndex'
p542
g36
(g80
S';\x00\x00\x00'
tRp543
sg26
V5
sS'trials.thisRepN'
p544
I0
sg66
Vpartridge
p545
sg63
V../experiment_stimuli/bw_bc_bl/Living_Things/Birds/partridge_14.jpg
p546
sg21
F0.81199128483422101
sS'trials.thisTrialN'
p547
I41
sa(dp548
g31
g32
sg17
F197.77095327759162
sg24
I1
sg35
g39
sg14
F197.76587962126359
sg16
g36
(g70
S'\x02\x00\x00\x00'
tRp549
sg42
g43
sg46
g47
sg15
g72
sg22
F199.60052557545714
sg64
g136
sg62
g74
sg49
g50
sS'trials.thisN'
p550
I42
sg19
I0
sg27
g36
(g38
S'\x00\x00\x00\x00\x00\x00\x18@'
tRp551
sg52
g53
sg23
S'1'
sg18
F199.00847650947981
sg33
g34
sg51
g11
sg20
S'1'
sg65
g36
(g77
S'\x00\x00\x00\x00\x00\x00\x00\x00'
tRp552
sg44
g45
sg40
g41
sg25
F0.34098443621769547
sS'trials.thisIndex'
p553
g36
(g80
S'\x0f\x00\x00\x00'
tRp554
sg26
V5
sS'trials.thisRepN'
p555
I0
sg66
Vchair
p556
sg63
V../experiment_stimuli/bw_bc_bl/Nonliving_Things/Furniture/chair_23.jpg
p557
sg21
F0.57147223316133022
sS'trials.thisTrialN'
p558
I42
sa(dp559
g31
g32
sg17
F201.67977385013364
sg24
I0
sg35
g39
sg14
F201.67437472427264
sg16
g36
(g70
S'\x01\x00\x00\x00'
tRp560
sg42
g43
sg46
g47
sg15
g124
sg22
F203.7696030898951
sg64
g112
sg62
g74
sg49
g50
sS'trials.thisN'
p561
I43
sg19
I1
sg27
g36
(g38
S'\x00\x00\x00\x00\x00\x00\x18@'
tRp562
sg52
g53
sg23
S'3'
sg18
F202.93701883684844
sg33
g34
sg51
g11
sg20
S'1'
sg65
g36
(g77
S'\x00\x00\x00\x00\x00\x00\x00\x00'
tRp563
sg44
g45
sg40
g41
sg25
F0.28083447436802089
sS'trials.thisIndex'
p564
g36
(g80
S'S\x00\x00\x00'
tRp565
sg26
V5
sS'trials.thisRepN'
p566
I0
sg66
Vteapot
p567
sg63
V../experiment_stimuli/bw_bc_bl/Nonliving_Things/Kitchen_Uten/teapot_11.jpg
p568
sg21
F0.81202775030396879
sS'trials.thisTrialN'
p569
I43
sa(dp570
g31
g32
sg17
F205.78829926531762
sg24
I1
sg35
g39
sg14
F205.78330726921558
sg16
g36
(g70
S'\x01\x00\x00\x00'
tRp571
sg42
g43
sg46
g47
sg15
g124
sg22
F208.50022041914053
sg64
g73
sg62
g74
sg49
g50
sS'trials.thisN'
p572
I44
sg19
I1
sg27
g36
(g38
S'\x00\x00\x00\x00\x00\x00\x18@'
tRp573
sg52
g53
sg23
S'1'
sg18
F207.02591147716157
sg33
g34
sg51
g11
sg20
S'1'
sg65
g36
(g77
S'\x00\x00\x00\x00\x00\x00\x00\x00'
tRp574
sg44
g45
sg40
g41
sg25
F0.36100850254297256
sS'trials.thisIndex'
p575
g36
(g80
S'V\x00\x00\x00'
tRp576
sg26
V5
sS'trials.thisRepN'
p577
I0
sg66
Vtractor
p578
sg63
V../experiment_stimuli/bw_bc_bl/Nonliving_Things/Vehicles/tractor_9.jpg
p579
sg21
F1.4537470634095371
sS'trials.thisTrialN'
p580
I44
sa(dp581
g31
g32
sg17
F210.59885064163245
sg24
I0
sg35
g39
sg14
F210.59376671444625
sg16
g36
(g70
S'\x01\x00\x00\x00'
tRp582
sg42
g43
sg46
g47
sg15
g124
sg22
F212.76918343896978
sg64
g136
sg62
g74
sg49
g50
sS'trials.thisN'
p583
I45
sg19
I1
sg27
g36
(g38
S'\x00\x00\x00\x00\x00\x00\x18@'
tRp584
sg52
g53
sg23
S'2'
sg18
F211.84638774488121
sg33
g34
sg51
g11
sg20
S'1'
sg65
g36
(g77
S'\x00\x00\x00\x00\x00\x00\x00\x00'
tRp585
sg44
g45
sg40
g41
sg25
F0.37102702865377069
sS'trials.thisIndex'
p586
g36
(g80
S'/\x00\x00\x00'
tRp587
sg26
V5
sS'trials.thisRepN'
p588
I0
sg66
Vlectern
p589
sg63
V../experiment_stimuli/bw_bc_bl/Nonliving_Things/Furniture/lectern_16.jpg
p590
sg21
F0.90223347721621394
sS'trials.thisTrialN'
p591
I45
sa(dp592
g31
g32
sg17
F214.87813401361927
sg24
I1
sg35
g39
sg14
F214.8730690414086
sg16
g36
(g70
S'\x02\x00\x00\x00'
tRp593
sg42
g43
sg46
g47
sg15
g124
sg22
F218.07050089584664
sg64
g148
sg62
g89
sg49
g50
sS'trials.thisN'
p594
I46
sg19
I1
sg27
g36
(g38
S'\x00\x00\x00\x00\x00\x00\x1a@'
tRp595
sg52
g53
sg23
S'1'
sg18
F216.11568445176817
sg33
g34
sg51
g11
sg20
S'2'
sg65
g36
(g77
S'\x00\x00\x00\x00\x00\x00\x00\x00'
tRp596
sg44
g45
sg40
g41
sg25
F0.43115787021815777
sS'trials.thisIndex'
p597
g36
(g80
S'&\x00\x00\x00'
tRp598
sg26
V5
sS'trials.thisRepN'
p599
I0
sg66
Vhen
p600
sg63
V../experiment_stimuli/bw_bc_bl/Living_Things/Birds/hen_6.jpg
p601
sg21
F1.9342711966019124
sS'trials.thisTrialN'
p602
I46
sa(dp603
g31
g32
sg17
F220.23983060568571
sg24
I0
sg35
g39
sg14
F220.23472810746171
sg16
g36
(g70
S'\x01\x00\x00\x00'
tRp604
sg42
g43
sg46
g47
sg15
g72
sg22
F222.36000182456337
sg64
g148
sg62
g89
sg49
g50
sS'trials.thisN'
p605
I47
sg19
I1
sg27
g36
(g38
S'\x00\x00\x00\x00\x00\x00\x1e@'
tRp606
sg52
g53
sg23
S'3'
sg18
F221.49738041171804
sg33
g34
sg51
g11
sg20
S'1'
sg65
g36
(g77
S'\x00\x00\x00\x00\x00\x00\x00\x00'
tRp607
sg44
g45
sg40
g41
sg25
F0.78191232425160706
sS'trials.thisIndex'
p608
g36
(g80
S'"\x00\x00\x00'
tRp609
sg26
V5
sS'trials.thisRepN'
p610
I0
sg66
Vgoose
p611
sg63
V../experiment_stimuli/bw_bc_bl/Living_Things/Birds/goose_7.jpg
p612
sg21
F0.84207032015547156
sS'trials.thisTrialN'
p613
I47
sa(dp614
g31
g32
sg17
F224.88118485640734
sg24
I1
sg35
g39
sg14
F224.87481897766702
sg16
g36
(g70
S'\x02\x00\x00\x00'
tRp615
sg42
g43
sg46
g47
sg15
g72
sg22
F227.22054875153117
sg64
g73
sg62
g74
sg49
g50
sS'trials.thisN'
p616
I48
sg19
I1
sg27
g36
(g38
S'\x00\x00\x00\x00\x00\x00\x18@'
tRp617
sg52
g53
sg23
S'1'
sg18
F226.10739462985657
sg33
g34
sg51
g11
sg20
S'2'
sg65
g36
(g77
S'\x00\x00\x00\x00\x00\x00\x00\x00'
tRp618
sg44
g45
sg40
g41
sg25
F0.65164508088491857
sS'trials.thisIndex'
p619
g36
(g80
S'\x0b\x00\x00\x00'
tRp620
sg26
V5
sS'trials.thisRepN'
p621
I0
sg66
Vcar
p622
sg63
V../experiment_stimuli/bw_bc_bl/Nonliving_Things/Vehicles/car_4.jpg
p623
sg21
F1.0925998936872929
sS'trials.thisTrialN'
p624
I48
sa(dp625
g31
g32
sg17
F229.61030362802558
sg24
I1
sg35
g39
sg14
F229.60510439053178
sg16
g36
(g70
S'\x01\x00\x00\x00'
tRp626
sg42
g43
sg46
g47
sg15
g72
sg22
F231.69027103926055
sg64
g250
sg62
g89
sg49
g50
sS'trials.thisN'
p627
I49
sg19
I1
sg27
g36
(g38
S'\x00\x00\x00\x00\x00\x00\x1e@'
tRp628
sg52
g53
sg23
S'1'
sg18
F230.84770445944741
sg33
g34
sg51
g11
sg20
S'1'
sg65
g36
(g77
S'\x00\x00\x00\x00\x00\x00\x00\x00'
tRp629
sg44
g45
sg40
g41
sg25
F0.46122318808920681
sS'trials.thisIndex'
p630
g36
(g80
S'(\x00\x00\x00'
tRp631
sg26
V5
sS'trials.thisRepN'
p632
I0
sg66
Vhorse
p633
sg63
V../experiment_stimuli/bw_bc_bl/Living_Things/Animals/horse_21.jpg
p634
sg21
F0.82201486662961543
sS'trials.thisTrialN'
p635
I49
sa(dp636
g31
g32
sg17
F233.88946126122028
sg24
I0
sg35
g39
sg14
F233.88440596568398
sg16
g36
(g70
S'\x01\x00\x00\x00'
tRp637
sg42
g43
sg46
g47
sg15
g72
sg22
F236.16001529269852
sg64
g88
sg62
g89
sg49
g50
sS'trials.thisN'
p638
I50
sg19
I1
sg27
g36
(g38
S'\x00\x00\x00\x00\x00\x00\x18@'
tRp639
sg52
g53
sg23
S'2'
sg18
F235.14705843501724
sg33
g34
sg51
g11
sg20
S'1'
sg65
g36
(g77
S'\x00\x00\x00\x00\x00\x00\x00\x00'
tRp640
sg44
g45
sg40
g41
sg25
F2.0446872697211802
sS'trials.thisIndex'
p641
g36
(g80
S'+\x00\x00\x00'
tRp642
sg26
V5
sS'trials.thisRepN'
p643
I0
sg66
Vkiller-whale
p644
sg63
V../experiment_stimuli/bw_bc_bl/Living_Things/Marine_creatures/killer-whale_18.jpg
p645
sg21
F0.99239817843772471
sS'trials.thisTrialN'
p646
I50
sa(dp647
g31
g32
sg17
F239.94270634045824
sg24
I0
sg35
g39
sg14
F239.93756382004358
sg16
g36
(g70
S'\x01\x00\x00\x00'
tRp648
sg42
g43
sg46
g47
sg15
g124
sg22
F242.13282449729741
sg64
g136
sg62
g74
sg49
g50
sS'trials.thisN'
p649
I51
sg19
I1
sg27
g36
(g38
S'\x00\x00\x00\x00\x00\x00\x1c@'
tRp650
sg52
g53
sg23
S'3'
sg18
F241.20021239877678
sg33
g34
sg51
g11
sg20
S'1'
sg65
g36
(g77
S'\x00\x00\x00\x00\x00\x00\x00\x00'
tRp651
sg44
g45
sg40
g41
sg25
F0.7919588799122721
sS'trials.thisIndex'
p652
g36
(g80
S'Q\x00\x00\x00'
tRp653
sg26
V5
sS'trials.thisRepN'
p654
I0
sg66
Vtable
p655
sg63
V../experiment_stimuli/bw_bc_bl/Nonliving_Things/Furniture/table_14.jpg
p656
sg21
F0.91205458459444344
sS'trials.thisTrialN'
p657
I51
sa(dp658
g31
g32
sg17
F244.66413367330097
sg24
I1
sg35
g39
sg14
F244.6578254934866
sg16
g36
(g70
S'\x02\x00\x00\x00'
tRp659
sg42
g43
sg46
g47
sg15
g72
sg22
F246.6127199549228
sg64
g112
sg62
g74
sg49
g50
sS'trials.thisN'
p660
I52
sg19
I0
sg27
g36
(g38
S'\x00\x00\x00\x00\x00\x00\x18@'
tRp661
sg52
g53
sg23
S'1'
sg18
F245.89041182189249
sg33
g34
sg51
g11
sg20
S'1'
sg65
g36
(g77
S'\x00\x00\x00\x00\x00\x00\x00\x00'
tRp662
sg44
g45
sg40
g41
sg25
F0.34098174818791449
sS'trials.thisIndex'
p663
g36
(g80
S'M\x00\x00\x00'
tRp664
sg26
V5
sS'trials.thisRepN'
p665
I0
sg66
Vsmall-saucepan
p666
sg63
V../experiment_stimuli/bw_bc_bl/Nonliving_Things/Kitchen_Uten/small-saucepan_8.jpg
p667
sg21
F0.70176157006062567
sS'trials.thisTrialN'
p668
I52
sa(dp669
g31
g32
sg17
F248.6915508818347
sg24
I0
sg35
g39
sg14
F248.68658401700668
sg16
g36
(g70
S'\x01\x00\x00\x00'
tRp670
sg42
g43
sg46
g47
sg15
g124
sg22
F251.11252846592106
sg64
g136
sg62
g74
sg49
g50
sS'trials.thisN'
p671
I53
sg19
I1
sg27
g36
(g38
S'\x00\x00\x00\x00\x00\x00\x1c@'
tRp672
sg52
g53
sg23
S'3'
sg18
F249.94923253194429
sg33
g34
sg51
g11
sg20
S'1'
sg65
g36
(g77
S'\x00\x00\x00\x00\x00\x00\x00\x00'
tRp673
sg44
g45
sg40
g41
sg25
F0.37104482529684901
sS'trials.thisIndex'
p674
g36
(g80
S'\x06\x00\x00\x00'
tRp675
sg26
V5
sS'trials.thisRepN'
p676
I0
sg66
Vbedside-table
p677
sg63
V../experiment_stimuli/bw_bc_bl/Nonliving_Things/Furniture/bedside-table_0.jpg
p678
sg21
F1.1427093679085374
sS'trials.thisTrialN'
p679
I53
sa(dp680
g31
g32
sg17
F253.22168243210763
sg24
I1
sg35
g39
sg14
F253.21643656375818
sg16
g36
(g70
S'\x01\x00\x00\x00'
tRp681
sg42
g43
sg46
g47
sg15
g124
sg22
F258.40836504218169
sg64
g136
sg62
g74
sg49
g50
sS'trials.thisN'
p682
I54
sg19
I1
sg27
g36
(g38
S'\x00\x00\x00\x00\x00\x00\x1e@'
tRp683
sg52
g53
sg23
S'1'
sg18
F254.44902086630464
sg33
g34
sg51
g11
sg20
S'1'
sg65
g36
(g77
S'\x00\x00\x00\x00\x00\x00\x00\x00'
tRp684
sg44
g45
sg40
g41
sg25
F1.764058931497857
sS'trials.thisIndex'
p685
g36
(g80
S'E\x00\x00\x00'
tRp686
sg26
V5
sS'trials.thisRepN'
p687
I0
sg66
Vrocking-chair
p688
sg63
V../experiment_stimuli/bw_bc_bl/Nonliving_Things/Furniture/rocking-chair_21.jpg
p689
sg21
F3.9388007516972721
sS'trials.thisTrialN'
p690
I54
sa(dp691
g31
g32
sg17
F261.91053306986578
sg24
I0
sg35
g39
sg14
F261.90533409942873
sg16
g36
(g70
S'\x02\x00\x00\x00'
tRp692
sg42
g43
sg46
g47
sg15
g124
sg22
F264.41142471227795
sg64
g88
sg62
g89
sg49
g50
sS'trials.thisN'
p693
I55
sg19
I1
sg27
g36
(g38
S'\x00\x00\x00\x00\x00\x00\x18@'
tRp694
sg52
g53
sg23
S'2'
sg18
F263.1780013164971
sg33
g34
sg51
g11
sg20
S'2'
sg65
g36
(g77
S'\x00\x00\x00\x00\x00\x00\x00\x00'
tRp695
sg44
g45
sg40
g41
sg25
F0.74183873296715319
sS'trials.thisIndex'
p696
g36
(g80
S'7\x00\x00\x00'
tRp697
sg26
V5
sS'trials.thisRepN'
p698
I0
sg66
Vnarwhal
p699
sg63
V../experiment_stimuli/bw_bc_bl/Living_Things/Marine_creatures/narwhal_25.jpg
p700
sg21
F1.2128713740967214
sS'trials.thisTrialN'
p701
I55
sa(dp702
g31
g32
sg17
F266.89128198591061
sg24
I1
sg35
g39
sg14
F266.88617266458459
sg16
g36
(g70
S'\x02\x00\x00\x00'
tRp703
sg42
g43
sg46
g47
sg15
g124
sg22
F268.72077597328462
sg64
g250
sg62
g89
sg49
g50
sS'trials.thisN'
p704
I56
sg19
I1
sg27
g36
(g38
S'\x00\x00\x00\x00\x00\x00\x1c@'
tRp705
sg52
g53
sg23
S'1'
sg18
F268.13877896592021
sg33
g34
sg51
g11
sg20
S'2'
sg65
g36
(g77
S'\x00\x00\x00\x00\x00\x00\x00\x00'
tRp706
sg44
g45
sg40
g41
sg25
F1.0424907726701349
sS'trials.thisIndex'
p707
g36
(g80
S'0\x00\x00\x00'
tRp708
sg26
V5
sS'trials.thisRepN'
p709
I0
sg66
Vlioness
p710
sg63
V../experiment_stimuli/bw_bc_bl/Living_Things/Animals/lioness_21.jpg
p711
sg21
F0.5614471361041069
sS'trials.thisTrialN'
p712
I56
sa(dp713
g31
g32
sg17
F271.50258674961515
sg24
I1
sg35
g39
sg14
F271.49618616863154
sg16
g36
(g70
S'\x01\x00\x00\x00'
tRp714
sg42
g43
sg46
g47
sg15
g72
sg22
F273.39093884872273
sg64
g88
sg62
g89
sg49
g50
sS'trials.thisN'
p715
I57
sg19
I0
sg27
g36
(g38
S'\x00\x00\x00\x00\x00\x00\x1c@'
tRp716
sg52
g53
sg23
S'1'
sg18
F272.77887443406507
sg33
g34
sg51
g11
sg20
S'2'
sg65
g36
(g77
S'\x00\x00\x00\x00\x00\x00\x00\x00'
tRp717
sg44
g45
sg40
g41
sg25
F0.42113889707252383
sS'trials.thisIndex'
p718
g36
(g80
S'A\x00\x00\x00'
tRp719
sg26
V5
sS'trials.thisRepN'
p720
I0
sg66
Vpomfret
p721
sg63
V../experiment_stimuli/bw_bc_bl/Living_Things/Marine_creatures/pomfret_16.jpg
p722
sg21
F0.59151488216593862
sS'trials.thisTrialN'
p723
I57
sa(dp724
g31
g32
sg17
F275.55033587757498
sg24
I0
sg35
g39
sg14
F275.5449854391627
sg16
g36
(g70
S'\x01\x00\x00\x00'
tRp725
sg42
g43
sg46
g47
sg15
g72
sg22
F277.85048795863986
sg64
g148
sg62
g89
sg49
g50
sS'trials.thisN'
p726
I58
sg19
I1
sg27
g36
(g38
S'\x00\x00\x00\x00\x00\x00\x1a@'
tRp727
sg52
g53
sg23
S'2'
sg18
F276.86776250647381
sg33
g34
sg51
g11
sg20
S'1'
sg65
g36
(g77
S'\x00\x00\x00\x00\x00\x00\x00\x00'
tRp728
sg44
g45
sg40
g41
sg25
F1.3531702673062682
sS'trials.thisIndex'
p729
g36
(g80
S'\x04\x00\x00\x00'
tRp730
sg26
V5
sS'trials.thisRepN'
p731
I0
sg66
Vbarn-owl
p732
sg63
V../experiment_stimuli/bw_bc_bl/Living_Things/Birds/barn-owl_7.jpg
p733
sg21
F0.96216096472926438
sS'trials.thisTrialN'
p734
I58
sa(dp735
g31
g32
sg17
F280.94439031463116
sg24
I0
sg35
g39
sg14
F280.93670454132371
sg16
g36
(g70
S'\x02\x00\x00\x00'
tRp736
sg42
g43
sg46
g47
sg15
g124
sg22
F283.11210211575963
sg64
g148
sg62
g89
sg49
g50
sS'trials.thisN'
p737
I59
sg19
I0
sg27
g36
(g38
S'\x00\x00\x00\x00\x00\x00\x1e@'
tRp738
sg52
g53
sg23
S'2'
sg18
F282.23943933541887
sg33
g34
sg51
g11
sg20
S'1'
sg65
g36
(g77
S'\x00\x00\x00\x00\x00\x00\x00\x00'
tRp739
sg44
g45
sg40
g41
sg25
F0.13060547178611159
sS'trials.thisIndex'
p740
g36
(g80
S'3\x00\x00\x00'
tRp741
sg26
V5
sS'trials.thisRepN'
p742
I0
sg66
Vmagpie
p743
sg63
V../experiment_stimuli/bw_bc_bl/Living_Things/Birds/magpie_7.jpg
p744
sg21
F0.85208953777328134
sS'trials.thisTrialN'
p745
I59
sa(dp746
g31
g32
sg17
F284.98053787532263
sg24
I0
sg35
g39
sg14
F284.97549610584974
sg16
g36
(g70
S'\x02\x00\x00\x00'
tRp747
sg42
g43
sg46
g47
sg15
g124
sg22
F288.23322587111033
sg64
g483
sg62
g89
sg49
g50
sS'trials.thisN'
p748
I60
sg19
I0
sg27
g36
(g38
S'\x00\x00\x00\x00\x00\x00\x18@'
tRp749
sg52
g53
sg23
S'2'
sg18
F286.26819933275692
sg33
g34
sg51
g11
sg20
S'1'
sg65
g36
(g77
S'\x00\x00\x00\x00\x00\x00\x00\x00'
tRp750
sg44
g45
sg40
g41
sg25
F1.313083570683375
sS'trials.thisIndex'
p751
g36
(g80
S'-\x00\x00\x00'
tRp752
sg26
V5
sS'trials.thisRepN'
p753
I0
sg66
Vladybird
p754
sg63
V../experiment_stimuli/bw_bc_bl/Living_Things/Insects/ladybird_15.jpg
p755
sg21
F1.9444560096599162
sS'trials.thisTrialN'
p756
I60
sa(dp757
g31
g32
sg17
F291.28423778479919
sg24
I0
sg35
g39
sg14
F291.27919613546692
sg16
g36
(g70
S'\x01\x00\x00\x00'
tRp758
sg42
g43
sg46
g47
sg15
g124
sg22
F293.37437964044511
sg64
g238
sg62
g74
sg49
g50
sS'trials.thisN'
p759
I61
sg19
I1
sg27
g36
(g38
S'\x00\x00\x00\x00\x00\x00\x18@'
tRp760
sg52
g53
sg23
S'3'
sg18
F292.56188783305697
sg33
g34
sg51
g11
sg20
S'1'
sg65
g36
(g77
S'\x00\x00\x00\x00\x00\x00\x00\x00'
tRp761
sg44
g45
sg40
g41
sg25
F0.39108171500265598
sS'trials.thisIndex'
p762
g36
(g80
S'\x19\x00\x00\x00'
tRp763
sg26
V5
sS'trials.thisRepN'
p764
I0
sg66
Vdrum
p765
sg63
V../experiment_stimuli/bw_bc_bl/Nonliving_Things/Musical_Inst/drum_9.jpg
p766
sg21
F0.7919493573717773
sS'trials.thisTrialN'
p767
I61
sa(dp768
g31
g32
sg17
F295.50343889323995
sg24
I0
sg35
g39
sg14
F295.49836717266589
sg16
g36
(g70
S'\x02\x00\x00\x00'
tRp769
sg42
g43
sg46
g47
sg15
g72
sg22
F299.14681772980839
sg64
g136
sg62
g74
sg49
g50
sS'trials.thisN'
p770
I62
sg19
I1
sg27
g36
(g38
S'\x00\x00\x00\x00\x00\x00\x1a@'
tRp771
sg52
g53
sg23
S'3'
sg18
F296.77103645005263
sg33
g34
sg51
g11
sg20
S'2'
sg65
g36
(g77
S'\x00\x00\x00\x00\x00\x00\x00\x00'
tRp772
sg44
g45
sg40
g41
sg25
F1.00242167734541
sS'trials.thisIndex'
p773
g36
(g80
S']\x00\x00\x00'
tRp774
sg26
V5
sS'trials.thisRepN'
p775
I0
sg66
Vwardrobe
p776
sg63
V../experiment_stimuli/bw_bc_bl/Nonliving_Things/Furniture/wardrobe_20.jpg
p777
sg21
F2.355198078090325
sS'trials.thisTrialN'
p778
I62
sa(dp779
g31
g32
sg17
F301.88737648050301
sg24
I1
sg35
g39
sg14
F301.88226929842494
sg16
g36
(g70
S'\x02\x00\x00\x00'
tRp780
sg42
g43
sg46
g47
sg15
g72
sg22
F306.81367630837485
sg64
g238
sg62
g74
sg49
g50
sS'trials.thisN'
p781
I63
sg19
I1
sg27
g36
(g38
S'\x00\x00\x00\x00\x00\x00\x18@'
tRp782
sg52
g53
sg23
S'1'
sg18
F303.12485005916096
sg33
g34
sg51
g11
sg20
S'2'
sg65
g36
(g77
S'\x00\x00\x00\x00\x00\x00\x00\x00'
tRp783
sg44
g45
sg40
g41
sg25
F0.26078901346772909
sS'trials.thisIndex'
p784
g36
(g80
S'$\x00\x00\x00'
tRp785
sg26
V5
sS'trials.thisRepN'
p786
I0
sg66
Vguitar
p787
sg63
V../experiment_stimuli/bw_bc_bl/Nonliving_Things/Musical_Inst/guitar_2.jpg
p788
sg21
F3.6682317396625876
sS'trials.thisTrialN'
p789
I63
sa(dp790
g31
g32
sg17
F308.81254284689203
sg24
I1
sg35
g39
sg14
F308.80730271548964
sg16
g36
(g70
S'\x01\x00\x00\x00'
tRp791
sg42
g43
sg46
g47
sg15
g124
sg22
F310.66182455793023
sg64
g160
sg62
g74
sg49
g50
sS'trials.thisN'
p792
I64
sg19
I0
sg27
g36
(g38
S'\x00\x00\x00\x00\x00\x00\x18@'
tRp793
sg52
g53
sg23
S'1'
sg18
F310.05992770427838
sg33
g34
sg51
g11
sg20
S'2'
sg65
g36
(g77
S'\x00\x00\x00\x00\x00\x00\x00\x00'
tRp794
sg44
g45
sg40
g41
sg25
F0.30088036763481796
sS'trials.thisIndex'
p795
g36
(g80
S'\x11\x00\x00\x00'
tRp796
sg26
V5
sS'trials.thisRepN'
p797
I0
sg66
Vchurch
p798
sg63
V../experiment_stimuli/bw_bc_bl/Nonliving_Things/Buildings/church_3.jpg
p799
sg21
F0.58133223815821111
sS'trials.thisTrialN'
p800
I64
sa(dp801
g31
g32
sg17
F312.70082440506667
sg24
I1
sg35
g39
sg14
F312.6957778420765
sg16
g36
(g70
S'\x02\x00\x00\x00'
tRp802
sg42
g43
sg46
g47
sg15
g72
sg22
F314.70074913930148
sg64
g112
sg62
g74
sg49
g50
sS'trials.thisN'
p803
I65
sg19
I1
sg27
g36
(g38
S'\x00\x00\x00\x00\x00\x00\x1a@'
tRp804
sg52
g53
sg23
S'1'
sg18
F313.98846970126033
sg33
g34
sg51
g11
sg20
S'2'
sg65
g36
(g77
S'\x00\x00\x00\x00\x00\x00\x00\x00'
tRp805
sg44
g45
sg40
g41
sg25
F0.30072891106829047
sS'trials.thisIndex'
p806
g36
(g80
S'\x12\x00\x00\x00'
tRp807
sg26
V5
sS'trials.thisRepN'
p808
I0
sg66
Vcoking-pot
p809
sg63
V../experiment_stimuli/bw_bc_bl/Nonliving_Things/Kitchen_Uten/coking-pot_17.jpg
p810
sg21
F0.68171017314307392
sS'trials.thisTrialN'
p811
I65
sa(dp812
g31
g32
sg17
F316.73966987850145
sg24
I1
sg35
g39
sg14
F316.73453586967662
sg16
g36
(g70
S'\x02\x00\x00\x00'
tRp813
sg42
g43
sg46
g47
sg15
g124
sg22
F322.45763600734062
sg64
g148
sg62
g89
sg49
g50
sS'trials.thisN'
p814
I66
sg19
I1
sg27
g36
(g38
S'\x00\x00\x00\x00\x00\x00\x1a@'
tRp815
sg52
g53
sg23
S'1'
sg18
F318.02724797604606
sg33
g34
sg51
g11
sg20
S'2'
sg65
g36
(g77
S'\x00\x00\x00\x00\x00\x00\x00\x00'
tRp816
sg44
g45
sg40
g41
sg25
F1.0122730366420001
sS'trials.thisIndex'
p817
g36
(g80
S'8\x00\x00\x00'
tRp818
sg26
V5
sS'trials.thisRepN'
p819
I0
sg66
Vostrich
p820
sg63
V../experiment_stimuli/bw_bc_bl/Living_Things/Birds/ostrich_22.jpg
p821
sg21
F4.4098346827086061
sS'trials.thisTrialN'
p822
I66
sa(dp823
g31
g32
sg17
F325.20795670128427
sg24
I0
sg35
g39
sg14
F325.20295348367654
sg16
g36
(g70
S'\x01\x00\x00\x00'
tRp824
sg42
g43
sg46
g47
sg15
g72
sg22
F332.54956532176584
sg64
g250
sg62
g89
sg49
g50
sS'trials.thisN'
p825
I67
sg19
I1
sg27
g36
(g38
S'\x00\x00\x00\x00\x00\x00\x1e@'
tRp826
sg52
g53
sg23
S'3'
sg18
F326.50568831898272
sg33
g34
sg51
g11
sg20
S'1'
sg65
g36
(g77
S'\x00\x00\x00\x00\x00\x00\x00\x00'
tRp827
sg44
g45
sg40
g41
sg25
F0.37104452424682677
sS'trials.thisIndex'
p828
g36
(g80
S'\x14\x00\x00\x00'
tRp829
sg26
V5
sS'trials.thisRepN'
p830
I0
sg66
Vcow
p831
sg63
V../experiment_stimuli/bw_bc_bl/Living_Things/Animals/cow_16.jpg
p832
sg21
F6.0233254961203784
sS'trials.thisTrialN'
p833
I67
sa(dp834
g31
g32
sg17
F334.65855188434944
sg24
I0
sg35
g39
sg14
F334.6534990509972
sg16
g36
(g70
S'\x02\x00\x00\x00'
tRp835
sg42
g43
sg46
g47
sg15
g72
sg22
F337.53040372137912
sg64
g136
sg62
g74
sg49
g50
sS'trials.thisN'
p836
I68
sg19
I1
sg27
g36
(g38
S'\x00\x00\x00\x00\x00\x00\x1c@'
tRp837
sg52
g53
sg23
S'3'
sg18
F335.92616796353832
sg33
g34
sg51
g11
sg20
S'2'
sg65
g36
(g77
S'\x00\x00\x00\x00\x00\x00\x00\x00'
tRp838
sg44
g45
sg40
g41
sg25
F0.95229982794262469
sS'trials.thisIndex'
p839
g36
(g80
S'N\x00\x00\x00'
tRp840
sg26
V5
sS'trials.thisRepN'
p841
I0
sg66
Vsofa
p842
sg63
V../experiment_stimuli/bw_bc_bl/Nonliving_Things/Furniture/sofa_5.jpg
p843
sg21
F1.5836874058004469
sS'trials.thisTrialN'
p844
I68
sa(dp845
g31
g32
sg17
F340.22062354674563
sg24
I0
sg35
g39
sg14
F340.21558500640094
sg16
g36
(g70
S'\x02\x00\x00\x00'
tRp846
sg42
g43
sg46
g47
sg15
g124
sg22
F347.09118573646992
sg64
g250
sg62
g89
sg49
g50
sS'trials.thisN'
p847
I69
sg19
I1
sg27
g36
(g38
S'\x00\x00\x00\x00\x00\x00\x1a@'
tRp848
sg52
g53
sg23
S'3'
sg18
F341.46821768698283
sg33
g34
sg51
g11
sg20
S'2'
sg65
g36
(g77
S'\x00\x00\x00\x00\x00\x00\x00\x00'
tRp849
sg44
g45
sg40
g41
sg25
F0.68171301134862006
sS'trials.thisIndex'
p850
g36
(g80
S'D\x00\x00\x00'
tRp851
sg26
V5
sS'trials.thisRepN'
p852
I0
sg66
Vrhino
p853
sg63
V../experiment_stimuli/bw_bc_bl/Living_Things/Animals/rhino_7.jpg
p854
sg21
F5.6024094151798636
sS'trials.thisTrialN'
p855
I69
sa(dp856
g31
g32
sg17
F349.51102218590677
sg24
I0
sg35
g39
sg14
F349.50579651282169
sg16
g36
(g70
S'\x01\x00\x00\x00'
tRp857
sg42
g43
sg46
g47
sg15
g124
sg22
F351.75137349171564
sg64
g112
sg62
g74
sg49
g50
sS'trials.thisN'
p858
I70
sg19
I1
sg27
g36
(g38
S'\x00\x00\x00\x00\x00\x00\x1c@'
tRp859
sg52
g53
sg23
S'3'
sg18
F350.74838891252875
sg33
g34
sg51
g11
sg20
S'1'
sg65
g36
(g77
S'\x00\x00\x00\x00\x00\x00\x00\x00'
tRp860
sg44
g45
sg40
g41
sg25
F0.43117847153916955
sS'trials.thisIndex'
p861
g36
(g80
S'G\x00\x00\x00'
tRp862
sg26
V5
sS'trials.thisRepN'
p863
I0
sg66
Vsaucepan
p864
sg63
V../experiment_stimuli/bw_bc_bl/Nonliving_Things/Kitchen_Uten/saucepan_6.jpg
p865
sg21
F0.98238152824342251
sS'trials.thisTrialN'
p866
I70
sa(dp867
g31
g32
sg17
F353.92047170875594
sg24
I1
sg35
g39
sg14
F353.91537684574723
sg16
g36
(g70
S'\x02\x00\x00\x00'
tRp868
sg42
g43
sg46
g47
sg15
g124
sg22
F355.40925822942518
sg64
g483
sg62
g89
sg49
g50
sS'trials.thisN'
p869
I71
sg19
I1
sg27
g36
(g38
S'\x00\x00\x00\x00\x00\x00\x18@'
tRp870
sg52
g53
sg23
S'1'
sg18
F355.14796705031767
sg33
g34
sg51
g11
sg20
S'2'
sg65
g36
(g77
S'\x00\x00\x00\x00\x00\x00\x00\x00'
tRp871
sg44
g45
sg40
g41
sg25
F0.15056769317016006
sS'trials.thisIndex'
p872
g36
(g80
S'\n\x00\x00\x00'
tRp873
sg26
V5
sS'trials.thisRepN'
p874
I0
sg66
Vbutterfly
p875
sg63
V../experiment_stimuli/bw_bc_bl/Living_Things/Insects/butterfly_21.jpg
p876
sg21
F0.23072683438658714
sS'trials.thisTrialN'
p877
I71
sa(dp878
g31
g32
sg17
F357.29791886871681
sg24
I0
sg35
g39
sg14
F357.29271519882604
sg16
g36
(g70
S'\x02\x00\x00\x00'
tRp879
sg42
g43
sg46
g47
sg15
g124
sg22
F362.93562164343894
sg64
g88
sg62
g89
sg49
g50
sS'trials.thisN'
p880
I72
sg19
I0
sg27
g36
(g38
S'\x00\x00\x00\x00\x00\x00\x1a@'
tRp881
sg52
g53
sg23
S'2'
sg18
F358.54534743214026
sg33
g34
sg51
g11
sg20
S'1'
sg65
g36
(g77
S'\x00\x00\x00\x00\x00\x00\x00\x00'
tRp882
sg44
g45
sg40
g41
sg25
F0.68170142127200961
sS'trials.thisIndex'
p883
g36
(g80
S'\x15\x00\x00\x00'
tRp884
sg26
V5
sS'trials.thisRepN'
p885
I0
sg66
Vcrab
p886
sg63
V../experiment_stimuli/bw_bc_bl/Living_Things/Marine_creatures/crab_19.jpg
p887
sg21
F4.3697276068851352
sS'trials.thisTrialN'
p888
I72
sa(dp889
g31
g32
sg17
F365.35553535120562
sg24
I1
sg35
g39
sg14
F365.35023784451187
sg16
g36
(g70
S'\x02\x00\x00\x00'
tRp890
sg42
g43
sg46
g47
sg15
g124
sg22
F368.20710629434325
sg64
g148
sg62
g89
sg49
g50
sS'trials.thisN'
p891
I73
sg19
I0
sg27
g36
(g38
S'\x00\x00\x00\x00\x00\x00\x1a@'
tRp892
sg52
g53
sg23
S'1'
sg18
F366.5928401988931
sg33
g34
sg51
g11
sg20
S'1'
sg65
g36
(g77
S'\x00\x00\x00\x00\x00\x00\x00\x00'
tRp893
sg44
g45
sg40
g41
sg25
F0.23057024320587516
sS'trials.thisIndex'
p894
g36
(g80
S'=\x00\x00\x00'
tRp895
sg26
V5
sS'trials.thisRepN'
p896
I0
sg66
Vpenguin
p897
sg63
V../experiment_stimuli/bw_bc_bl/Living_Things/Birds/penguin_20.jpg
p898
sg21
F1.5936898638028651
sS'trials.thisTrialN'
p899
I73
sa(dp900
g31
g32
sg17
F370.17732763011009
sg24
I0
sg35
g39
sg14
F370.17072104848921
sg16
g36
(g70
S'\x01\x00\x00\x00'
tRp901
sg42
g43
sg46
g47
sg15
g124
sg22
F372.62671774695627
sg64
g160
sg62
g74
sg49
g50
sS'trials.thisN'
p902
I74
sg19
I1
sg27
g36
(g38
S'\x00\x00\x00\x00\x00\x00\x18@'
tRp903
sg52
g53
sg23
S'3'
sg18
F371.45341279124841
sg33
g34
sg51
g11
sg20
S'1'
sg65
g36
(g77
S'\x00\x00\x00\x00\x00\x00\x00\x00'
tRp904
sg44
g45
sg40
g41
sg25
F0.40109195839613676
sS'trials.thisIndex'
p905
g36
(g80
S'#\x00\x00\x00'
tRp906
sg26
V5
sS'trials.thisRepN'
p907
I0
sg66
Vgranary
p908
sg63
V../experiment_stimuli/bw_bc_bl/Nonliving_Things/Buildings/granary_1.jpg
p909
sg21
F1.1527314609847963
sS'trials.thisTrialN'
p910
I74
sa(dp911
g31
g32
sg17
F374.76620295573957
sg24
I1
sg35
g39
sg14
F374.76069961721078
sg16
g36
(g70
S'\x01\x00\x00\x00'
tRp912
sg42
g43
sg46
g47
sg15
g72
sg22
F376.28466248000041
sg64
g483
sg62
g89
sg49
g50
sS'trials.thisN'
p913
I75
sg19
I0
sg27
g36
(g38
S'\x00\x00\x00\x00\x00\x00\x1a@'
tRp914
sg52
g53
sg23
S'1'
sg18
F376.0032999117393
sg33
g34
sg51
g11
sg20
S'2'
sg65
g36
(g77
S'\x00\x00\x00\x00\x00\x00\x00\x00'
tRp915
sg44
g45
sg40
g41
sg25
F0.26079107308760285
sS'trials.thisIndex'
p916
g36
(g80
S'I\x00\x00\x00'
tRp917
sg26
V5
sS'trials.thisRepN'
p918
I0
sg66
Vscorpion
p919
sg63
V../experiment_stimuli/bw_bc_bl/Living_Things/Insects/scorpion_4.jpg
p920
sg21
F0.26079881377518177
sS'trials.thisTrialN'
p921
I75
sa(dp922
g31
g32
sg17
F378.28359906631522
sg24
I0
sg35
g39
sg14
F378.27834724332206
sg16
g36
(g70
S'\x02\x00\x00\x00'
tRp923
sg42
g43
sg46
g47
sg15
g72
sg22
F380.37353601888753
sg64
g160
sg62
g74
sg49
g50
sS'trials.thisN'
p924
I76
sg19
I1
sg27
g36
(g38
S'\x00\x00\x00\x00\x00\x00\x18@'
tRp925
sg52
g53
sg23
S'3'
sg18
F379.55101982480846
sg33
g34
sg51
g11
sg20
S'2'
sg65
g36
(g77
S'\x00\x00\x00\x00\x00\x00\x00\x00'
tRp926
sg44
g45
sg40
g41
sg25
F0.82201331434771419
sS'trials.thisIndex'
p927
g36
(g80
S'\x0e\x00\x00\x00'
tRp928
sg26
V5
sS'trials.thisRepN'
p929
I0
sg66
Vcathedral
p930
sg63
V../experiment_stimuli/bw_bc_bl/Nonliving_Things/Buildings/cathedral_21.jpg
p931
sg21
F0.80196911212988198
sS'trials.thisTrialN'
p932
I76
sa(dp933
g31
g32
sg17
F382.93378195352852
sg24
I1
sg35
g39
sg14
F382.92848740564659
sg16
g36
(g70
S'\x01\x00\x00\x00'
tRp934
sg42
g43
sg46
g47
sg15
g124
sg22
F384.48248496954329
sg64
g112
sg62
g74
sg49
g50
sS'trials.thisN'
p935
I77
sg19
I0
sg27
g36
(g38
S'\x00\x00\x00\x00\x00\x00\x1e@'
tRp936
sg52
g53
sg23
S'1'
sg18
F384.17106389557011
sg33
g34
sg51
g11
sg20
S'2'
sg65
g36
(g77
S'\x00\x00\x00\x00\x00\x00\x00\x00'
tRp937
sg44
g45
sg40
g41
sg25
F0.34096278599463403
sS'trials.thisIndex'
p938
g36
(g80
S'\x1e\x00\x00\x00'
tRp939
sg26
V5
sS'trials.thisRepN'
p940
I0
sg66
Vfondue
p941
sg63
V../experiment_stimuli/bw_bc_bl/Nonliving_Things/Kitchen_Uten/fondue_2.jpg
p942
sg21
F0.29086631909012794
sS'trials.thisTrialN'
p943
I77
sa(dp944
g31
g32
sg17
F386.56328513519838
sg24
I1
sg35
g39
sg14
F386.55635148263536
sg16
g36
(g70
S'\x02\x00\x00\x00'
tRp945
sg42
g43
sg46
g47
sg15
g124
sg22
F388.15044651390053
sg64
g148
sg62
g89
sg49
g50
sS'trials.thisN'
p946
I78
sg19
I0
sg27
g36
(g38
S'\x00\x00\x00\x00\x00\x00\x1a@'
tRp947
sg52
g53
sg23
S'1'
sg18
F387.81900170422159
sg33
g34
sg51
g11
sg20
S'1'
sg65
g36
(g77
S'\x00\x00\x00\x00\x00\x00\x00\x00'
tRp948
sg44
g45
sg40
g41
sg25
F0.23073149239644408
sS'trials.thisIndex'
p949
g36
(g80
S'U\x00\x00\x00'
tRp950
sg26
V5
sS'trials.thisRepN'
p951
I0
sg66
Vtoucan
p952
sg63
V../experiment_stimuli/bw_bc_bl/Living_Things/Birds/toucan_19.jpg
p953
sg21
F0.31090518250130117
sS'trials.thisTrialN'
p954
I78
sa(dp955
g31
g32
sg17
F390.11927644861862
sg24
I0
sg35
g39
sg14
F390.11408693296835
sg16
g36
(g70
S'\x02\x00\x00\x00'
tRp956
sg42
g43
sg46
g47
sg15
g72
sg22
F392.15915571223013
sg64
g238
sg62
g74
sg49
g50
sS'trials.thisN'
p957
I79
sg19
I1
sg27
g36
(g38
S'\x00\x00\x00\x00\x00\x00\x18@'
tRp958
sg52
g53
sg23
S'3'
sg18
F391.39677020953968
sg33
g34
sg51
g11
sg20
S'2'
sg65
g36
(g77
S'\x00\x00\x00\x00\x00\x00\x00\x00'
tRp959
sg44
g45
sg40
g41
sg25
F0.3710411221254617
sS'trials.thisIndex'
p960
g36
(g80
S'Y\x00\x00\x00'
tRp961
sg26
V5
sS'trials.thisRepN'
p962
I0
sg66
Vtuba
p963
sg63
V../experiment_stimuli/bw_bc_bl/Nonliving_Things/Musical_Inst/tuba_10.jpg
p964
sg21
F0.74184149620123208
sS'trials.thisTrialN'
p965
I79
sa(dp966
g31
g32
sg17
F394.26826698379591
sg24
I0
sg35
g39
sg14
F394.26310495636426
sg16
g36
(g70
S'\x02\x00\x00\x00'
tRp967
sg42
g43
sg46
g47
sg15
g72
sg22
F396.58883604290895
sg64
g112
sg62
g74
sg49
g50
sS'trials.thisN'
p968
I80
sg19
I1
sg27
g36
(g38
S'\x00\x00\x00\x00\x00\x00\x18@'
tRp969
sg52
g53
sg23
S'2'
sg18
F395.51572993025184
sg33
g34
sg51
g11
sg20
S'2'
sg65
g36
(g77
S'\x00\x00\x00\x00\x00\x00\x00\x00'
tRp970
sg44
g45
sg40
g41
sg25
F0.34096622955985367
sS'trials.thisIndex'
p971
g36
(g80
S'\x16\x00\x00\x00'
tRp972
sg26
V5
sS'trials.thisRepN'
p973
I0
sg66
Vcup
p974
sg63
V../experiment_stimuli/bw_bc_bl/Nonliving_Things/Kitchen_Uten/cup_25.jpg
p975
sg21
F1.0525483281817287
sS'trials.thisTrialN'
p976
I80
sa(dp977
g31
g32
sg17
F398.6680012922734
sg24
I1
sg35
g39
sg14
F398.66269055265002
sg16
g36
(g70
S'\x02\x00\x00\x00'
tRp978
sg42
g43
sg46
g47
sg15
g124
sg22
F400.79795207781717
sg64
g88
sg62
g89
sg49
g50
sS'trials.thisN'
p979
I81
sg19
I0
sg27
g36
(g38
S'\x00\x00\x00\x00\x00\x00\x18@'
tRp980
sg52
g53
sg23
S'1'
sg18
F399.9152896059677
sg33
g34
sg51
g11
sg20
S'1'
sg65
g36
(g77
S'\x00\x00\x00\x00\x00\x00\x00\x00'
tRp981
sg44
g45
sg40
g41
sg25
F0.34096316597424448
sS'trials.thisIndex'
p982
g36
(g80
S'1\x00\x00\x00'
tRp983
sg26
V5
sS'trials.thisRepN'
p984
I0
sg66
Vlobster
p985
sg63
V../experiment_stimuli/bw_bc_bl/Living_Things/Marine_creatures/lobster_10.jpg
p986
sg21
F0.86210759310051799
sS'trials.thisTrialN'
p987
I81
sa(dp988
g31
g32
sg17
F402.87696606596
sg24
I0
sg35
g39
sg14
F402.87182191805914
sg16
g36
(g70
S'\x02\x00\x00\x00'
tRp989
sg42
g43
sg46
g47
sg15
g72
sg22
F405.18748356285505
sg64
g73
sg62
g74
sg49
g50
sS'trials.thisN'
p990
I82
sg19
I1
sg27
g36
(g38
S'\x00\x00\x00\x00\x00\x00\x1c@'
tRp991
sg52
g53
sg23
S'3'
sg18
F404.12445030943491
sg33
g34
sg51
g11
sg20
S'2'
sg65
g36
(g77
S'\x00\x00\x00\x00\x00\x00\x00\x00'
tRp992
sg44
g45
sg40
g41
sg25
F0.38106712140142918
sS'trials.thisIndex'
p993
g36
(g80
S'\t\x00\x00\x00'
tRp994
sg26
V5
sS'trials.thisRepN'
p995
I0
sg66
Vbus
p996
sg63
V../experiment_stimuli/bw_bc_bl/Nonliving_Things/Vehicles/bus_14.jpg
p997
sg21
F1.0424939084332436
sS'trials.thisTrialN'
p998
I82
sa(dp999
g31
g32
sg17
F407.30682490952313
sg24
I1
sg35
g39
sg14
F407.30147493747063
sg16
g36
(g70
S'\x01\x00\x00\x00'
tRp1000
sg42
g43
sg46
g47
sg15
g124
sg22
F408.9356514508836
sg64
g160
sg62
g74
sg49
g50
sS'trials.thisN'
p1001
I83
sg19
I1
sg27
g36
(g38
S'\x00\x00\x00\x00\x00\x00\x1a@'
tRp1002
sg52
g53
sg23
S'1'
sg18
F408.53402978554368
sg33
g34
sg51
g11
sg20
S'1'
sg65
g36
(g77
S'\x00\x00\x00\x00\x00\x00\x00\x00'
tRp1003
sg44
g45
sg40
g41
sg25
F0.54141027620062232
sS'trials.thisIndex'
p1004
g36
(g80
S'5\x00\x00\x00'
tRp1005
sg26
V5
sS'trials.thisRepN'
p1006
I0
sg66
Vmill
p1007
sg63
V../experiment_stimuli/bw_bc_bl/Nonliving_Things/Buildings/mill_4.jpg
p1008
sg21
F0.38105856883339584
sS'trials.thisTrialN'
p1009
I83
sa(dp1010
g31
g32
sg17
F411.21497529977933
sg24
I1
sg35
g39
sg14
F411.20994539069943
sg16
g36
(g70
S'\x01\x00\x00\x00'
tRp1011
sg42
g43
sg46
g47
sg15
g72
sg22
F413.26509041665122
sg64
g88
sg62
g89
sg49
g50
sS'trials.thisN'
p1012
I84
sg19
I0
sg27
g36
(g38
S'\x00\x00\x00\x00\x00\x00\x18@'
tRp1013
sg52
g53
sg23
S'1'
sg18
F412.46257286472246
sg33
g34
sg51
g11
sg20
S'2'
sg65
g36
(g77
S'\x00\x00\x00\x00\x00\x00\x00\x00'
tRp1014
sg44
g45
sg40
g41
sg25
F1.4934843855444342
sS'trials.thisIndex'
p1015
g36
(g80
S'4\x00\x00\x00'
tRp1016
sg26
V5
sS'trials.thisRepN'
p1017
I0
sg66
Vmanatee
p1018
sg63
V../experiment_stimuli/bw_bc_bl/Living_Things/Marine_creatures/manatee_6.jpg
p1019
sg21
F0.78194533125497401
sS'trials.thisTrialN'
p1020
I84
sa(dp1021
g31
g32
sg17
F416.49664922198281
sg24
I0
sg35
g39
sg14
F416.49143709405325
sg16
g36
(g70
S'\x01\x00\x00\x00'
tRp1022
sg42
g43
sg46
g47
sg15
g124
sg22
F420.37050694948994
sg64
g238
sg62
g74
sg49
g50
sS'trials.thisN'
p1023
I85
sg19
I1
sg27
g36
(g38
S'\x00\x00\x00\x00\x00\x00\x18@'
tRp1024
sg52
g53
sg23
S'2'
sg18
F417.76410489762202
sg33
g34
sg51
g11
sg20
S'1'
sg65
g36
(g77
S'\x00\x00\x00\x00\x00\x00\x00\x00'
tRp1025
sg44
g45
sg40
g41
sg25
F0.90218845522031188
sS'trials.thisIndex'
p1026
g36
(g80
S'>\x00\x00\x00'
tRp1027
sg26
V5
sS'trials.thisRepN'
p1028
I0
sg66
Vpiano
p1029
sg63
V../experiment_stimuli/bw_bc_bl/Nonliving_Things/Musical_Inst/piano__26.jpg
p1030
sg21
F2.5858595420140773
sS'trials.thisTrialN'
p1031
I85
sa(dp1032
g31
g32
sg17
F423.01064099185169
sg24
I0
sg35
g39
sg14
F423.00559235783294
sg16
g36
(g70
S'\x01\x00\x00\x00'
tRp1033
sg42
g43
sg46
g47
sg15
g124
sg22
F428.07728401292115
sg64
g136
sg62
g74
sg49
g50
sS'trials.thisN'
p1034
I86
sg19
I1
sg27
g36
(g38
S'\x00\x00\x00\x00\x00\x00\x18@'
tRp1035
sg52
g53
sg23
S'2'
sg18
F424.26824931218289
sg33
g34
sg51
g11
sg20
S'1'
sg65
g36
(g77
S'\x00\x00\x00\x00\x00\x00\x00\x00'
tRp1036
sg44
g45
sg40
g41
sg25
F0.99240365205332637
sS'trials.thisIndex'
p1037
g36
(g80
S'\x08\x00\x00\x00'
tRp1038
sg26
V5
sS'trials.thisRepN'
p1039
I0
sg66
Vbookcase
p1040
sg63
V../experiment_stimuli/bw_bc_bl/Nonliving_Things/Furniture/bookcase_26.jpg
p1041
sg21
F3.78847232228145
sS'trials.thisTrialN'
p1042
I86
sa(dp1043
g31
g32
sg17
F430.80770238628611
sg24
I0
sg35
g39
sg14
F430.80255299434066
sg16
g36
(g70
S'\x02\x00\x00\x00'
tRp1044
sg42
g43
sg46
g47
sg15
g72
sg22
F433.29861747985706
sg64
g73
sg62
g74
sg49
g50
sS'trials.thisN'
p1045
I87
sg19
I1
sg27
g36
(g38
S'\x00\x00\x00\x00\x00\x00\x1a@'
tRp1046
sg52
g53
sg23
S'2'
sg18
F432.05516937072389
sg33
g34
sg51
g11
sg20
S'2'
sg65
g36
(g77
S'\x00\x00\x00\x00\x00\x00\x00\x00'
tRp1047
sg44
g45
sg40
g41
sg25
F0.71176974242553115
sS'trials.thisIndex'
p1048
g36
(g80
S'[\x00\x00\x00'
tRp1049
sg26
V5
sS'trials.thisRepN'
p1050
I0
sg66
Vvan
p1051
sg63
V../experiment_stimuli/bw_bc_bl/Nonliving_Things/Vehicles/van_16.jpg
p1052
sg21
F1.2228904187213629
sS'trials.thisTrialN'
p1053
I87
sa(dp1054
g31
g32
sg17
F435.7488940495532
sg24
I1
sg35
g39
sg14
F435.74329078034498
sg16
g36
(g70
S'\x02\x00\x00\x00'
tRp1055
sg42
g43
sg46
g47
sg15
g124
sg22
F437.377354611177
sg64
g148
sg62
g89
sg49
g50
sS'trials.thisN'
p1056
I88
sg19
I0
sg27
g36
(g38
S'\x00\x00\x00\x00\x00\x00\x18@'
tRp1057
sg52
g53
sg23
S'1'
sg18
F436.98589348816313
sg33
g34
sg51
g11
sg20
S'1'
sg65
g36
(g77
S'\x00\x00\x00\x00\x00\x00\x00\x00'
tRp1058
sg44
g45
sg40
g41
sg25
F0.24075180012732744
sS'trials.thisIndex'
p1059
g36
(g80
S'C\x00\x00\x00'
tRp1060
sg26
V5
sS'trials.thisRepN'
p1061
I0
sg66
Vraven
p1062
sg63
V../experiment_stimuli/bw_bc_bl/Living_Things/Birds/raven_5.jpg
p1063
sg21
F0.37088541011326015
sS'trials.thisTrialN'
p1064
I88
sa(dp1065
g31
g32
sg17
F439.35649530799128
sg24
I0
sg35
g39
sg14
F439.35114515549503
sg16
g36
(g70
S'\x01\x00\x00\x00'
tRp1066
sg42
g43
sg46
g47
sg15
g72
sg22
F441.99755244678818
sg64
g148
sg62
g89
sg49
g50
sS'trials.thisN'
p1067
I89
sg19
I1
sg27
g36
(g38
S'\x00\x00\x00\x00\x00\x00\x18@'
tRp1068
sg52
g53
sg23
S'2'
sg18
F440.61378680588678
sg33
g34
sg51
g11
sg20
S'1'
sg65
g36
(g77
S'\x00\x00\x00\x00\x00\x00\x00\x00'
tRp1069
sg44
g45
sg40
g41
sg25
F0.82202024245634675
sS'trials.thisIndex'
p1070
g36
(g80
S'J\x00\x00\x00'
tRp1071
sg26
V5
sS'trials.thisRepN'
p1072
I0
sg66
Vseagull
p1073
sg63
V../experiment_stimuli/bw_bc_bl/Living_Things/Birds/seagull_1.jpg
p1074
sg21
F1.3632096082437783
sS'trials.thisTrialN'
p1075
I89
sa(dp1076
g31
g32
sg17
F444.55807916680351
sg24
I1
sg35
g39
sg14
F444.5524429732468
sg16
g36
(g70
S'\x01\x00\x00\x00'
tRp1077
sg42
g43
sg46
g47
sg15
g124
sg22
F449.13318062224425
sg64
g238
sg62
g74
sg49
g50
sS'trials.thisN'
p1078
I90
sg19
I0
sg27
g36
(g38
S'\x00\x00\x00\x00\x00\x00\x18@'
tRp1079
sg52
g53
sg23
S'1'
sg18
F445.80506950384006
sg33
g34
sg51
g11
sg20
S'2'
sg65
g36
(g77
S'\x00\x00\x00\x00\x00\x00\x00\x00'
tRp1080
sg44
g45
sg40
g41
sg25
F3.0366681683808565
sS'trials.thisIndex'
p1081
g36
(g80
S'H\x00\x00\x00'
tRp1082
sg26
V5
sS'trials.thisRepN'
p1083
I0
sg66
Vsaxophone
p1084
sg63
V../experiment_stimuli/bw_bc_bl/Nonliving_Things/Musical_Inst/saxophone_11.jpg
p1085
sg21
F3.3075541795697063
sS'trials.thisTrialN'
p1086
I90
sa(dp1087
g31
g32
sg17
F453.90816494752653
sg24
I1
sg35
g39
sg14
F453.90278985910118
sg16
g36
(g70
S'\x02\x00\x00\x00'
tRp1088
sg42
g43
sg46
g47
sg15
g124
sg22
F457.76183528732508
sg64
g250
sg62
g89
sg49
g50
sS'trials.thisN'
p1089
I91
sg19
I1
sg27
g36
(g38
S'\x00\x00\x00\x00\x00\x00\x18@'
tRp1090
sg52
g53
sg23
S'1'
sg18
F455.1754383360967
sg33
g34
sg51
g11
sg20
S'2'
sg65
g36
(g77
S'\x00\x00\x00\x00\x00\x00\x00\x00'
tRp1091
sg44
g45
sg40
g41
sg25
F0.17065851460210979
sS'trials.thisIndex'
p1092
g36
(g80
S'R\x00\x00\x00'
tRp1093
sg26
V5
sS'trials.thisRepN'
p1094
I0
sg66
Vtapir
p1095
sg63
V../experiment_stimuli/bw_bc_bl/Living_Things/Animals/tapir_4.jpg
p1096
sg21
F2.5658406591974199
sS'trials.thisTrialN'
p1097
I91
sa(dp1098
g31
g32
sg17
F459.670682430733
sg24
I0
sg35
g39
sg14
F459.66529744793661
sg16
g36
(g70
S'\x02\x00\x00\x00'
tRp1099
sg42
g43
sg46
g47
sg15
g72
sg22
F461.68032996566035
sg64
g112
sg62
g74
sg49
g50
sS'trials.thisN'
p1100
I92
sg19
I1
sg27
g36
(g38
S'\x00\x00\x00\x00\x00\x00\x18@'
tRp1101
sg52
g53
sg23
S'3'
sg18
F460.96803023060784
sg33
g34
sg51
g11
sg20
S'2'
sg65
g36
(g77
S'\x00\x00\x00\x00\x00\x00\x00\x00'
tRp1102
sg44
g45
sg40
g41
sg25
F0.31090517528355122
sS'trials.thisIndex'
p1103
g36
(g80
S'B\x00\x00\x00'
tRp1104
sg26
V5
sS'trials.thisRepN'
p1105
I0
sg66
Vpot
p1106
sg63
V../experiment_stimuli/bw_bc_bl/Nonliving_Things/Kitchen_Uten/pot_5.jpg
p1107
sg21
F0.69174767611548305
sS'trials.thisTrialN'
p1108
I92
sa(dp1109
g31
g32
sg17
F463.7293738455046
sg24
I0
sg35
g39
sg14
F463.72412872547284
sg16
g36
(g70
S'\x02\x00\x00\x00'
tRp1110
sg42
g43
sg46
g47
sg15
g72
sg22
F465.64894488849677
sg64
g136
sg62
g74
sg49
g50
sS'trials.thisN'
p1111
I93
sg19
I1
sg27
g36
(g38
S'\x00\x00\x00\x00\x00\x00\x1a@'
tRp1112
sg52
g53
sg23
S'3'
sg18
F465.00681376131251
sg33
g34
sg51
g11
sg20
S'2'
sg65
g36
(g77
S'\x00\x00\x00\x00\x00\x00\x00\x00'
tRp1113
sg44
g45
sg40
g41
sg25
F0.22069649351760745
sS'trials.thisIndex'
p1114
g36
(g80
S'\x00\x00\x00\x00'
tRp1115
sg26
V5
sS'trials.thisRepN'
p1116
I0
sg66
VChest-of-drawers
p1117
sg63
V../experiment_stimuli/bw_bc_bl/Nonliving_Things/Furniture/Chest-of-drawers_17.jpg
p1118
sg21
F0.62158075952902436
sS'trials.thisTrialN'
p1119
I93
sa(dp1120
g31
g32
sg17
F467.60946671268903
sg24
I0
sg35
g39
sg14
F467.60255472920835
sg16
g36
(g70
S'\x02\x00\x00\x00'
tRp1121
sg42
g43
sg46
g47
sg15
g72
sg22
F469.40712358057499
sg64
g238
sg62
g74
sg49
g50
sS'trials.thisN'
p1122
I94
sg19
I1
sg27
g36
(g38
S'\x00\x00\x00\x00\x00\x00\x1c@'
tRp1123
sg52
g53
sg23
S'3'
sg18
F468.87523291981779
sg33
g34
sg51
g11
sg20
S'2'
sg65
g36
(g77
S'\x00\x00\x00\x00\x00\x00\x00\x00'
tRp1124
sg44
g45
sg40
g41
sg25
F0.32091968972235918
sS'trials.thisIndex'
p1125
g36
(g80
S'\\\x00\x00\x00'
tRp1126
sg26
V5
sS'trials.thisRepN'
p1127
I0
sg66
Vviolin
p1128
sg63
V../experiment_stimuli/bw_bc_bl/Nonliving_Things/Musical_Inst/violin_2.jpg
p1129
sg21
F0.51134018460288644
sS'trials.thisTrialN'
p1130
I94
sa(dp1131
g31
g32
sg17
F471.47625486832112
sg24
I1
sg35
g39
sg14
F471.47096362453885
sg16
g36
(g70
S'\x02\x00\x00\x00'
tRp1132
sg42
g43
sg46
g47
sg15
g72
sg22
F473.48584168986417
sg64
g73
sg62
g74
sg49
g50
sS'trials.thisN'
p1133
I95
sg19
I1
sg27
g36
(g38
S'\x00\x00\x00\x00\x00\x00\x18@'
tRp1134
sg52
g53
sg23
S'1'
sg18
F472.71356854285114
sg33
g34
sg51
g11
sg20
S'2'
sg65
g36
(g77
S'\x00\x00\x00\x00\x00\x00\x00\x00'
tRp1135
sg44
g45
sg40
g41
sg25
F0.38105280231684446
sS'trials.thisIndex'
p1136
g36
(g80
S'W\x00\x00\x00'
tRp1137
sg26
V5
sS'trials.thisRepN'
p1138
I0
sg66
Vtrain
p1139
sg63
V../experiment_stimuli/bw_bc_bl/Nonliving_Things/Vehicles/train_14.jpg
p1140
sg21
F0.75170376827009022
sS'trials.thisTrialN'
p1141
I95
sasS'loops'
p1142
(lp1143
g1
(cpsychopy.data
TrialHandler
p1144
g3
NtRp1145
(dp1146
S'origin'
p1147
NsS'thisTrial'
p1148
(lp1149
sS'_exp'
p1150
I97317136
sg10
S'trials'
p1151
sg6
I-1
sS'thisRepN'
p1152
I1
sg28
I01
sg29
g30
sS'data'
p1153
g1
(cpsychopy.data
DataHandler
p1154
c__builtin__
dict
p1155
(dp1156
g20
cnumpy.core.multiarray
_reconstruct
p1157
(cnumpy
ndarray
p1158
(I0
tS'b'
tRp1159
(I1
(I96
I1
tg37
(S'O4'
I0
I1
tRp1160
(I3
S'|'
NNNI-1
I-1
I63
tbI00
(lp1161
S'2'
aS'2'
aS'2'
aS'2'
aS'1'
aS'1'
aS'1'
aS'1'
aS'1'
aS'2'
aS'2'
aS'2'
aS'2'
aS'2'
aS'2'
aS'1'
aS'1'
aS'2'
aS'2'
aS'1'
aS'1'
aS'1'
aS'2'
aS'2'
aS'2'
aS'1'
aS'2'
aS'1'
aS'1'
aS'2'
aS'2'
aS'2'
aS'1'
aS'2'
aS'1'
aS'1'
aS'2'
aS'2'
aS'2'
aS'1'
aS'1'
aS'2'
aS'2'
aS'1'
aS'2'
aS'1'
aS'1'
aS'1'
aS'2'
aS'1'
aS'1'
aS'1'
aS'2'
aS'1'
aS'2'
aS'2'
aS'2'
aS'2'
aS'2'
aS'1'
aS'2'
aS'1'
aS'1'
aS'1'
aS'1'
aS'2'
aS'2'
aS'1'
aS'2'
aS'1'
aS'2'
aS'1'
aS'2'
aS'2'
aS'1'
aS'1'
aS'2'
aS'1'
aS'2'
aS'1'
aS'2'
aS'1'
aS'2'
aS'1'
aS'1'
aS'1'
aS'1'
aS'2'
aS'2'
aS'2'
aS'2'
aS'2'
aS'2'
aS'2'
aS'2'
aS'2'
atbsg17
cnumpy.ma.core
_mareconstruct
p1162
(cnumpy.ma.core
MaskedArray
p1163
g1158
(I0
tp1164
S'b'
tRp1165
(I1
(I96
I1
tg37
(S'f4'
I0
I1
tRp1166
(I3
S'<'
NNNI-1
I-1
I0
tbI00
S'\\\xdd\xe7Cmf\x17C\xfb0!C(\xac\nCq\xc6\x89C6\x80%C\t\xb1xC\x1f\xe4o@]\x81\xd3C@p\xc9C\xd2\xf5\xb0C\x95\xe1`CxGmB\xf2u\x0eCM$\xbdC]\xc5EC\x1b|\x9dB\x01h\x9aC\xb5Y\x9cC7\x87KB\x9e\x9a\xa2C"\xa6\xb2CW"\xc5C\xa6\xae A\xf9[)Cb\xa4\x91C\x9e@=C\x14\x1e-C\xfc\x14\xb8B6\xb5\xa7B\x86w\xbfC\xdbx\xc3A\x8d\x9c\x1cC\x9dL\x1aBf=\\C\xb3\x16\xb9C\x96\xf1\x96C\xe6\xa37C\xcd\xe0VC\xdfk\xdcB=\x9ceC!N\x02Cy\xfa\xd1B\xb4\xe3iC\xe1\xf9\xf4B\x82}\x8eCb\x8a\x08BN\x99RC\x16r\x85C\x81U\xc7COZ\xfdB\xe2x\x8cC\x84\x9b\xcdCF\xa7\xcbC\x1e\x1e1C\x8c\xf4\x82C\xae^\x9eC\xf1\xc4:BMu*B\x0c\xbeAC}\xcc\xbfB\x82\xad\xb6C\x92?\xd0CT4]BK=\xc9BU\xc0\x87C\xd9\xd5\xe5C\xdc\xdf\xd9C=\x1c\xaaC\xc08}C\x0fT\xb0Bi\xc1\xaeCoG\xdeC\x13b\xbbC\xa2\xad\xdbC]m\x8cB\xdb\xf1\x99A\x05\xaatCKT\xa7Cm0\x84B\xd7p\xeaAU\xf1oC?\xf4\xe2C\x06\xaeIC\xa9\xdc\x12C\x1aH\xc1C\xce\xc9MC\xf6\xbc\xebC(\xdd\x93BD\x0f\xc3C\xba\xcc\xe4Bcg\xd7C\x03\xce\xe9Cq\xc0\x93Cw\x90\x06C\x00\xe1\xecB'
S'\x00\x00\x00\x00\x00\x00\x00\x00\x00\x00\x00\x00\x00\x00\x00\x00\x00\x00\x00\x00\x00\x00\x00\x00\x00\x00\x00\x00\x00\x00\x00\x00\x00\x00\x00\x00\x00\x00\x00\x00\x00\x00\x00\x00\x00\x00\x00\x00\x00\x00\x00\x00\x00\x00\x00\x00\x00\x00\x00\x00\x00\x00\x00\x00\x00\x00\x00\x00\x00\x00\x00\x00\x00\x00\x00\x00\x00\x00\x00\x00\x00\x00\x00\x00\x00\x00\x00\x00\x00\x00\x00\x00\x00\x00\x00\x00'
NtbsS'ran'
p1167
g1162
(g1163
g1158
g1164
S'b'
tRp1168
(I1
(I96
I1
tg1166
I00
S'\x00\x00\x80?\x00\x00\x80?\x00\x00\x80?\x00\x00\x80?\x00\x00\x80?\x00\x00\x80?\x00\x00\x80?\x00\x00\x80?\x00\x00\x80?\x00\x00\x80?\x00\x00\x80?\x00\x00\x80?\x00\x00\x80?\x00\x00\x80?\x00\x00\x80?\x00\x00\x80?\x00\x00\x80?\x00\x00\x80?\x00\x00\x80?\x00\x00\x80?\x00\x00\x80?\x00\x00\x80?\x00\x00\x80?\x00\x00\x80?\x00\x00\x80?\x00\x00\x80?\x00\x00\x80?\x00\x00\x80?\x00\x00\x80?\x00\x00\x80?\x00\x00\x80?\x00\x00\x80?\x00\x00\x80?\x00\x00\x80?\x00\x00\x80?\x00\x00\x80?\x00\x00\x80?\x00\x00\x80?\x00\x00\x80?\x00\x00\x80?\x00\x00\x80?\x00\x00\x80?\x00\x00\x80?\x00\x00\x80?\x00\x00\x80?\x00\x00\x80?\x00\x00\x80?\x00\x00\x80?\x00\x00\x80?\x00\x00\x80?\x00\x00\x80?\x00\x00\x80?\x00\x00\x80?\x00\x00\x80?\x00\x00\x80?\x00\x00\x80?\x00\x00\x80?\x00\x00\x80?\x00\x00\x80?\x00\x00\x80?\x00\x00\x80?\x00\x00\x80?\x00\x00\x80?\x00\x00\x80?\x00\x00\x80?\x00\x00\x80?\x00\x00\x80?\x00\x00\x80?\x00\x00\x80?\x00\x00\x80?\x00\x00\x80?\x00\x00\x80?\x00\x00\x80?\x00\x00\x80?\x00\x00\x80?\x00\x00\x80?\x00\x00\x80?\x00\x00\x80?\x00\x00\x80?\x00\x00\x80?\x00\x00\x80?\x00\x00\x80?\x00\x00\x80?\x00\x00\x80?\x00\x00\x80?\x00\x00\x80?\x00\x00\x80?\x00\x00\x80?\x00\x00\x80?\x00\x00\x80?\x00\x00\x80?\x00\x00\x80?\x00\x00\x80?\x00\x00\x80?\x00\x00\x80?\x00\x00\x80?'
S'\x00\x00\x00\x00\x00\x00\x00\x00\x00\x00\x00\x00\x00\x00\x00\x00\x00\x00\x00\x00\x00\x00\x00\x00\x00\x00\x00\x00\x00\x00\x00\x00\x00\x00\x00\x00\x00\x00\x00\x00\x00\x00\x00\x00\x00\x00\x00\x00\x00\x00\x00\x00\x00\x00\x00\x00\x00\x00\x00\x00\x00\x00\x00\x00\x00\x00\x00\x00\x00\x00\x00\x00\x00\x00\x00\x00\x00\x00\x00\x00\x00\x00\x00\x00\x00\x00\x00\x00\x00\x00\x00\x00\x00\x00\x00\x00'
Ntbsg24
g1162
(g1163
g1158
g1164
S'b'
tRp1169
(I1
(I96
I1
tg1166
I00
S'\x00\x00\x00\x00\x00\x00\x00\x00\x00\x00\x00\x00\x00\x00\x80?\x00\x00\x00\x00\x00\x00\x00\x00\x00\x00\x00\x00\x00\x00\x00\x00\x00\x00\x00\x00\x00\x00\x00\x00\x00\x00\x80?\x00\x00\x80?\x00\x00\x00\x00\x00\x00\x00\x00\x00\x00\x00\x00\x00\x00\x80?\x00\x00\x80?\x00\x00\x80?\x00\x00\x80?\x00\x00\x00\x00\x00\x00\x00\x00\x00\x00\x00\x00\x00\x00\x00\x00\x00\x00\x80?\x00\x00\x80?\x00\x00\x00\x00\x00\x00\x00\x00\x00\x00\x00\x00\x00\x00\x80?\x00\x00\x00\x00\x00\x00\x80?\x00\x00\x00\x00\x00\x00\x80?\x00\x00\x80?\x00\x00\x00\x00\x00\x00\x00\x00\x00\x00\x80?\x00\x00\x80?\x00\x00\x80?\x00\x00\x00\x00\x00\x00\x80?\x00\x00\x80?\x00\x00\x80?\x00\x00\x00\x00\x00\x00\x00\x00\x00\x00\x00\x00\x00\x00\x00\x00\x00\x00\x00\x00\x00\x00\x80?\x00\x00\x80?\x00\x00\x80?\x00\x00\x00\x00\x00\x00\x80?\x00\x00\x80?\x00\x00\x80?\x00\x00\x00\x00\x00\x00\x80?\x00\x00\x80?\x00\x00\x00\x00\x00\x00\x00\x00\x00\x00\x00\x00\x00\x00\x80?\x00\x00\x00\x00\x00\x00\x80?\x00\x00\x00\x00\x00\x00\x80?\x00\x00\x00\x00\x00\x00\x80?\x00\x00\x00\x00\x00\x00\x80?\x00\x00\x80?\x00\x00\x00\x00\x00\x00\x80?\x00\x00\x80?\x00\x00\x00\x00\x00\x00\x80?\x00\x00\x00\x00\x00\x00\x80?\x00\x00\x00\x00\x00\x00\x00\x00\x00\x00\x80?\x00\x00\x00\x00\x00\x00\x80?\x00\x00\x00\x00\x00\x00\x00\x00\x00\x00\x80?\x00\x00\x80?\x00\x00\x80?\x00\x00\x00\x00\x00\x00\x00\x00\x00\x00\x80?\x00\x00\x00\x00\x00\x00\x00\x00\x00\x00\x00\x00\x00\x00\x00\x00\x00\x00\x00\x00'
S'\x00\x00\x00\x00\x00\x00\x00\x00\x00\x00\x00\x00\x00\x00\x00\x00\x00\x00\x00\x00\x00\x00\x00\x00\x00\x00\x00\x00\x00\x00\x00\x00\x00\x00\x00\x00\x00\x00\x00\x00\x00\x00\x00\x00\x00\x00\x00\x00\x00\x00\x00\x00\x00\x00\x00\x00\x00\x00\x00\x00\x00\x00\x00\x00\x00\x00\x00\x00\x00\x00\x00\x00\x00\x00\x00\x00\x00\x00\x00\x00\x00\x00\x00\x00\x00\x00\x00\x00\x00\x00\x00\x00\x00\x00\x00\x00'
Ntbsg14
g1162
(g1163
g1158
g1164
S'b'
tRp1170
(I1
(I96
I1
tg1166
I00
S'\xb0\xdc\xe7C#e\x17C\xb4/!C\xdb\xaa\nC\xc2\xc5\x89C\xe9~%C\xc4\xafxC\\Vn@\xb7\x80\xd3C\x98o\xc9C+\xf5\xb0C\xf4\xdf`ClBmB\xa4t\x0eC\xa1#\xbdC\x11\xc4ECey\x9dBVg\x9aC\x0fY\x9cC\x90\x81KB\xfa\x99\xa2Cx\xa5\xb2C\xad!\xc5C\x98\x9a A\xa7Z)C\xbd\xa3\x91CS?=C\xbe\x1c-Co\x12\xb8BG\xb2\xa7B\xd9v\xbfC\xa9n\xc3A<\x9b\x1cCqG\x1aB\x17<\\C\xda\x15\xb9C\xee\xf0\x96C\x9b\xa27C\x81\xdfVC8i\xdcB\xe8\x9aeC\x98L\x02C\xe4\xf7\xd1Bh\xe2iC\xe2\xf6\xf4B\xdd|\x8eC>\x85\x08B\x01\x98RCnq\x85C\xd3T\xc7C\xb6W\xfdB\xe6w\x8cC\xdf\x9a\xcdC\x97\xa6\xcbCi\x1c1C\xe2\xf3\x82C\x05^\x9eC\xe9\xbf:B(o*B\xb4\xbcAC\xed\xc9\xbfB\xd5\xac\xb6C\xe7>\xd0C=/]B\xb4:\xc9B\x83\xbf\x87C(\xd5\xe5C$\xdf\xd9C\x98\x1b\xaaCh7}C\xadP\xb0B\xbe\xc0\xaeC\xb6F\xdeC_a\xbbC\xf2\xac\xdbC\xc7j\x8cB\xe5\xe6\x99Ag\xa8tC\xa6S\xa7C\xdf-\x84B\x9ee\xeaA\x04\xf0oC\x8f\xf3\xe2C\xa4\xacIC\xee\xda\x12C7G\xc1C\x87\xc8MCI\xbc\xebCo\xda\x93B\x9a\x0e\xc3C\n\xca\xe4B\xbaf\xd7C!\xcd\xe9C\xca\xbf\x93C\xf8\x8e\x06C\xe6\xdd\xecB'
S'\x00\x00\x00\x00\x00\x00\x00\x00\x00\x00\x00\x00\x00\x00\x00\x00\x00\x00\x00\x00\x00\x00\x00\x00\x00\x00\x00\x00\x00\x00\x00\x00\x00\x00\x00\x00\x00\x00\x00\x00\x00\x00\x00\x00\x00\x00\x00\x00\x00\x00\x00\x00\x00\x00\x00\x00\x00\x00\x00\x00\x00\x00\x00\x00\x00\x00\x00\x00\x00\x00\x00\x00\x00\x00\x00\x00\x00\x00\x00\x00\x00\x00\x00\x00\x00\x00\x00\x00\x00\x00\x00\x00\x00\x00\x00\x00'
Ntbsg16
g1157
(g1158
(I0
tS'b'
tRp1171
(I1
(I96
I1
tg1160
I00
(lp1172
g1110
ag438
ag460
ag404
ag725
ag471
ag670
ag71
ag1033
ag989
ag868
ag615
ag204
ag416
ag923
ag549
ag249
ag791
ag802
ag182
ag824
ag879
ag967
ag87
ag482
ag758
ag527
ag494
ag283
ag261
ag934
ag111
ag449
ag147
ag604
ag901
ag780
ag516
ag593
ag327
ag626
ag382
ag316
ag637
ag360
ag747
ag135
ag582
ag703
ag978
ag371
ag736
ag1011
ag1000
ag505
ag692
ag813
ag171
ag159
ag538
ag294
ag890
ag1022
ag193
ag305
ag714
ag1099
ag1055
ag846
ag681
ag272
ag857
ag1077
ag912
ag1066
ag226
ag100
ag659
ag835
ag215
ag123
ag648
ag1088
ag560
ag427
ag945
ag571
ag1132
ag237
ag956
ag338
ag1044
ag1121
ag769
ag393
ag349
atbsg15
g1157
(g1158
(I0
tS'b'
tRp1173
(I1
(I96
I1
tg1160
I00
(lp1174
g72
ag124
ag72
ag72
ag72
ag124
ag124
ag72
ag124
ag72
ag124
ag72
ag72
ag124
ag72
ag72
ag124
ag124
ag72
ag124
ag72
ag124
ag72
ag72
ag72
ag124
ag124
ag72
ag124
ag72
ag124
ag72
ag124
ag72
ag72
ag124
ag72
ag72
ag124
ag72
ag72
ag72
ag72
ag72
ag124
ag124
ag124
ag124
ag124
ag124
ag124
ag124
ag72
ag124
ag124
ag124
ag124
ag124
ag72
ag72
ag124
ag124
ag124
ag72
ag124
ag72
ag72
ag124
ag124
ag124
ag124
ag124
ag124
ag72
ag72
ag72
ag72
ag72
ag72
ag72
ag124
ag124
ag124
ag124
ag72
ag124
ag124
ag72
ag72
ag72
ag72
ag72
ag72
ag72
ag124
ag124
atbsg22
g1162
(g1163
g1158
g1164
S'b'
tRp1175
(I1
(I96
I1
tg1166
I00
S'\x11\xd3\xe8Cx\x8d\x1aC\x1f6#C\x8a\x80\x0cC\xdd\xec\x8aC\x17i\'C\xcf\x1c{C\xd2\xe4\xec@\xe4\t\xd6C\xff\x97\xcaCc\xb4\xb1Cv8cC\xc1\x9awB\xed\xb0\x10C\xd0/\xbeC\xbc\x99GC\xf6*\xa3B\xb7T\x9bC\xb2Y\x9dC\xef\x16UBXF\xa6C\xc2w\xb5C_K\xc6C\x0f\x8c\x87AR0+C\xec\xaf\x92C\xcb\xa9?C\x98 /C\xaf\xe1\xbbB\xb9%\xacB\xc2=\xc0C\'*\xd9AS1\x1fC\xa0-"B)\\^C8P\xbaC\'h\x99C\x19\xf9:C\x0c\x12ZCs\x85\xe0B\xb6\xb0gC\xe0\x88\x04C\xaeQ\xd6B\xf7(lC\x9c\xb1\xf8B\xda\x1d\x90C\xda$\x12B\xe9\xc4TCB\\\x86C#f\xc8C\xc8P\x00CY\x8e\x8dC\xee\xa1\xceC\xc3w\xccC\xce\xe53C\xaa4\x84C\x94:\xa1C\xb1+CBAt2B\x11\xd5CC:\xfb\xc4B\x82\x1a\xb8Cm/\xd2C\x94\x15eB\xb8u\xcdB\n\xb2\x88C\x15\xd7\xe6CM\xb0\xdaC\xac\x8b\xadCE4\x81C/*\xb4B-\xe0\xafC\x0c\x91\xe0Cp$\xbcC\xb0\xff\xdcC\x10\xed\x8fB\x94\xf5\xb1A\xdb\x9cvC\xe4\xc3\xa8C\xb8\xed\x87B^X\x00B\x01"rC\x84\xe1\xe4C\x05\xc5KCD@\x15CB\x13\xc2C\x0e\x80PC0\xbe\xecC\x93S\x99B_\x14\xc4C \xe1\xe8B9\xa6\xd8C\x1d\xb4\xeaC\xcb\x92\x95Cv\xac\x08C\x85\t\xf1B'
S'\x00\x00\x00\x00\x00\x00\x00\x00\x00\x00\x00\x00\x00\x00\x00\x00\x00\x00\x00\x00\x00\x00\x00\x00\x00\x00\x00\x00\x00\x00\x00\x00\x00\x00\x00\x00\x00\x00\x00\x00\x00\x00\x00\x00\x00\x00\x00\x00\x00\x00\x00\x00\x00\x00\x00\x00\x00\x00\x00\x00\x00\x00\x00\x00\x00\x00\x00\x00\x00\x00\x00\x00\x00\x00\x00\x00\x00\x00\x00\x00\x00\x00\x00\x00\x00\x00\x00\x00\x00\x00\x00\x00\x00\x00\x00\x00'
Ntbsg26
g1157
(g1158
(I0
tS'b'
tRp1176
(I1
(I96
I1
tg1160
I00
(lp1177
g36
(g80
S'\x06\x00\x00\x00'
tRp1178
ag36
(g80
S'\x02\x00\x00\x00'
tRp1179
ag36
(g80
S'\x04\x00\x00\x00'
tRp1180
ag36
(g80
S'\x01\x00\x00\x00'
tRp1181
ag36
(g80
S'\t\x00\x00\x00'
tRp1182
ag36
(g80
S'\x03\x00\x00\x00'
tRp1183
ag36
(g80
S'\x04\x00\x00\x00'
tRp1184
aS'5.0'
p1185
ag36
(g80
S'\x04\x00\x00\x00'
tRp1186
ag36
(g80
S'\x03\x00\x00\x00'
tRp1187
aI1
ag36
(g80
S'\x01\x00\x00\x00'
tRp1188
ag36
(g80
S'\x04\x00\x00\x00'
tRp1189
ag36
(g80
S'\x04\x00\x00\x00'
tRp1190
ag36
(g80
S'\x05\x00\x00\x00'
tRp1191
ag36
(g80
S'\x02\x00\x00\x00'
tRp1192
ag36
(g80
S'\x02\x00\x00\x00'
tRp1193
ag36
(g80
S'\x03\x00\x00\x00'
tRp1194
ag36
(g80
S'\x06\x00\x00\x00'
tRp1195
ag36
(g80
S'\x04\x00\x00\x00'
tRp1196
ag36
(g80
S'\x08\x00\x00\x00'
tRp1197
ag36
(g80
S'\x03\x00\x00\x00'
tRp1198
ag36
(g80
S'\x03\x00\x00\x00'
tRp1199
aS'4.0'
p1200
ag36
(g80
S'\x01\x00\x00\x00'
tRp1201
ag36
(g80
S'\x06\x00\x00\x00'
tRp1202
ag36
(g80
S'\x06\x00\x00\x00'
tRp1203
ag36
(g80
S'\x04\x00\x00\x00'
tRp1204
ag36
(g80
S'\x05\x00\x00\x00'
tRp1205
ag36
(g80
S'\x04\x00\x00\x00'
tRp1206
ag36
(g80
S'\x02\x00\x00\x00'
tRp1207
ag36
(g80
S'\x03\x00\x00\x00'
tRp1208
ag36
(g80
S'\x01\x00\x00\x00'
tRp1209
aI1
ag36
(g80
S'\x03\x00\x00\x00'
tRp1210
ag36
(g80
S'\x05\x00\x00\x00'
tRp1211
ag36
(g80
S'\x02\x00\x00\x00'
tRp1212
ag36
(g80
S'\x04\x00\x00\x00'
tRp1213
ag36
(g80
S'\x02\x00\x00\x00'
tRp1214
ag36
(g80
S'\x05\x00\x00\x00'
tRp1215
ag36
(g80
S'\x02\x00\x00\x00'
tRp1216
ag36
(g80
S'\x02\x00\x00\x00'
tRp1217
ag36
(g80
S'\x02\x00\x00\x00'
tRp1218
ag36
(g80
S'\x04\x00\x00\x00'
tRp1219
ag36
(g80
S'\x02\x00\x00\x00'
tRp1220
ag36
(g80
S'\x07\x00\x00\x00'
tRp1221
ag36
(g80
S'\x02\x00\x00\x00'
tRp1222
ag36
(g80
S'\x03\x00\x00\x00'
tRp1223
ag36
(g80
S'\x03\x00\x00\x00'
tRp1224
ag36
(g80
S'\x02\x00\x00\x00'
tRp1225
ag36
(g80
S'\x01\x00\x00\x00'
tRp1226
ag36
(g80
S'\x08\x00\x00\x00'
tRp1227
ag36
(g80
S'\x03\x00\x00\x00'
tRp1228
ag36
(g80
S'\x01\x00\x00\x00'
tRp1229
ag36
(g80
S'\x02\x00\x00\x00'
tRp1230
ag36
(g80
S'\x04\x00\x00\x00'
tRp1231
ag36
(g80
S'\x07\x00\x00\x00'
tRp1232
ag36
(g80
S'\x01\x00\x00\x00'
tRp1233
ag36
(g80
S'\x02\x00\x00\x00'
tRp1234
ag36
(g80
S'\x04\x00\x00\x00'
tRp1235
ag36
(g80
S'\x07\x00\x00\x00'
tRp1236
ag36
(g80
S'\x02\x00\x00\x00'
tRp1237
ag36
(g80
S'\x05\x00\x00\x00'
tRp1238
ag36
(g80
S'\x01\x00\x00\x00'
tRp1239
ag36
(g80
S'\x04\x00\x00\x00'
tRp1240
ag36
(g80
S'\x06\x00\x00\x00'
tRp1241
ag36
(g80
S'\x08\x00\x00\x00'
tRp1242
ag36
(g80
S'\x02\x00\x00\x00'
tRp1243
ag36
(g80
S'\x03\x00\x00\x00'
tRp1244
ag36
(g80
S'\x01\x00\x00\x00'
tRp1245
ag36
(g80
S'\x03\x00\x00\x00'
tRp1246
ag36
(g80
S'\x01\x00\x00\x00'
tRp1247
ag36
(g80
S'\x03\x00\x00\x00'
tRp1248
ag36
(g80
S'\x02\x00\x00\x00'
tRp1249
ag36
(g80
S'\x04\x00\x00\x00'
tRp1250
ag36
(g80
S'\x02\x00\x00\x00'
tRp1251
ag36
(g80
S'\x06\x00\x00\x00'
tRp1252
aI1
ag36
(g80
S'\x05\x00\x00\x00'
tRp1253
ag36
(g80
S'\x03\x00\x00\x00'
tRp1254
ag36
(g80
S'\x01\x00\x00\x00'
tRp1255
ag36
(g80
S'\x03\x00\x00\x00'
tRp1256
ag36
(g80
S'\x05\x00\x00\x00'
tRp1257
ag36
(g80
S'\x04\x00\x00\x00'
tRp1258
ag36
(g80
S'\x03\x00\x00\x00'
tRp1259
ag36
(g80
S'\x03\x00\x00\x00'
tRp1260
ag36
(g80
S'\x01\x00\x00\x00'
tRp1261
ag36
(g80
S'\x02\x00\x00\x00'
tRp1262
ag36
(g80
S'\x03\x00\x00\x00'
tRp1263
ag36
(g80
S'\x06\x00\x00\x00'
tRp1264
ag36
(g80
S'\x02\x00\x00\x00'
tRp1265
ag36
(g80
S'\x03\x00\x00\x00'
tRp1266
ag36
(g80
S'\x04\x00\x00\x00'
tRp1267
ag36
(g80
S'\x04\x00\x00\x00'
tRp1268
ag36
(g80
S'\x04\x00\x00\x00'
tRp1269
ag36
(g80
S'\x04\x00\x00\x00'
tRp1270
atbsg21
g1162
(g1163
g1158
g1164
S'b'
tRp1271
(I1
(I96
I1
tg1166
I00
S'\xeb\x1f\x1f?\xc5z\xf2?f\xea=?\xc3\xe2\x14?.Pv?\x15A$?MD\x92?!\xbe\x16@Uvr@qp\x85?\xa8Cl>P\xda\x8b?l\xca\xa6?j\xc9s?\xd9MM?\x01L\x12?\xeb\xb5\xca?1\xd2\x14?\x8f\x84.?6l\x8e?\x15\xbf\xc0@\xcf\xd4\x8b@\xe7\xb9\x86?\x19\xeb\xb3@\xd4\xdd\x14?1\xbdJ?\xecj\x8e?PY;?\xb7\x8e\x1c?\xdc8q?n\xec\x94>\xa0\xc0\xb8?\xc3\xa3\xaa?:\xbd8?\xec\x91W?\xb4\x8c\x93?O\xc4j@4\x80\x03@3\x96\xf7?\xbe\nC?\x91oR?\'\xebx?$\x87i?\xcf\r~?<\xfe\x19?\xef\xe3\xf8?\xceD\x92?\xc6\xf8f?\x00\xbb\x0f?\x15\xb3\\?\x05\x1d\xc3>\x8a"Z?\x92-H?\x1c\x1a\xc3>V\x03\xc3?_?\x9b?^\x1d\x8d@$#Z?S\xe9=?\xa9\xdeO?#:\xa4?\x08\xfe\xcb?\xb9~%@\xfe\xc88?\x88\x01U?\x85m\x17?`\x161?\xb1\xe4\xbd>\xf0F\xb3@P\x15|@?\xd2&?[}{?\xf8\xaeS@l\x87\x85>\xa7}\xae?\x9f\x8b\xfb>\x99\x1a\xda?\xa5\xa63?E\xb6\xca?u\xfe\x19?\xafK\xc4?i|i?\xbc6$@\r\xe1O?}\xb3\x8f?\xf7.\x9f>b\x14\xba?\xa8o@?\rQ\xbb?S\xe9=?",H?\xac\x87\x9c?1\xe7\x02?\x91\xbb\x16@|\x00U?\x11NM?'
S'\x00\x00\x00\x00\x00\x00\x00\x00\x00\x00\x00\x00\x00\x00\x00\x00\x00\x00\x00\x00\x00\x00\x00\x00\x00\x00\x00\x00\x00\x00\x00\x00\x00\x00\x00\x00\x00\x00\x00\x00\x00\x00\x00\x00\x00\x00\x00\x00\x00\x00\x00\x00\x00\x00\x00\x00\x00\x00\x00\x00\x00\x00\x00\x00\x00\x00\x00\x00\x00\x00\x00\x00\x00\x00\x00\x00\x00\x00\x00\x00\x00\x00\x00\x00\x00\x00\x00\x00\x00\x00\x00\x00\x00\x00\x00\x00'
NtbsS'order'
p1272
g1162
(g1163
g1158
g1164
S'b'
tRp1273
(I1
(I96
I1
tg1166
I00
S'\x00\x00\xbaB\x00\x00\x00B\x00\x00\x08B\x00\x00\xe8A\x00\x00hB\x00\x00\x0cB\x00\x00TB\x00\x00\x00\x00\x00\x00\xacB\x00\x00\xa4B\x00\x00\x8eB\x00\x00@B\x00\x000A\x00\x00\xf0A\x00\x00\x98B\x00\x00(B\x00\x00pA\x00\x00\x80B\x00\x00\x82B\x00\x00\x10A\x00\x00\x86B\x00\x00\x90B\x00\x00\xa0B\x00\x00\x80?\x00\x00\x10B\x00\x00tB\x00\x00 B\x00\x00\x14B\x00\x00\x90A\x00\x00\x80A\x00\x00\x9aB\x00\x00@@\x00\x00\x04B\x00\x00\xc0@\x00\x00<B\x00\x00\x94B\x00\x00|B\x00\x00\x1cB\x00\x008B\x00\x00\xb0A\x00\x00DB\x00\x00\xd8A\x00\x00\xa8A\x00\x00HB\x00\x00\xc8A\x00\x00pB\x00\x00\xa0@\x00\x004B\x00\x00`B\x00\x00\xa2B\x00\x00\xd0A\x00\x00lB\x00\x00\xa8B\x00\x00\xa6B\x00\x00\x18B\x00\x00\\B\x00\x00\x84B\x00\x00\x00A\x00\x00\xe0@\x00\x00$B\x00\x00\x98A\x00\x00\x92B\x00\x00\xaaB\x00\x00 A\x00\x00\xa0A\x00\x00dB\x00\x00\xb8B\x00\x00\xb0B\x00\x00\x8aB\x00\x00XB\x00\x00\x88A\x00\x00\x8cB\x00\x00\xb4B\x00\x00\x96B\x00\x00\xb2B\x00\x00PA\x00\x00\x00@\x00\x00PB\x00\x00\x88B\x00\x00@A\x00\x00\x80@\x00\x00LB\x00\x00\xb6B\x00\x00,B\x00\x00\xf8A\x00\x00\x9cB\x00\x000B\x00\x00\xbeB\x00\x00`A\x00\x00\x9eB\x00\x00\xb8A\x00\x00\xaeB\x00\x00\xbcB\x00\x00xB\x00\x00\xe0A\x00\x00\xc0A'
S'\x00\x00\x00\x00\x00\x00\x00\x00\x00\x00\x00\x00\x00\x00\x00\x00\x00\x00\x00\x00\x00\x00\x00\x00\x00\x00\x00\x00\x00\x00\x00\x00\x00\x00\x00\x00\x00\x00\x00\x00\x00\x00\x00\x00\x00\x00\x00\x00\x00\x00\x00\x00\x00\x00\x00\x00\x00\x00\x00\x00\x00\x00\x00\x00\x00\x00\x00\x00\x00\x00\x00\x00\x00\x00\x00\x00\x00\x00\x00\x00\x00\x00\x00\x00\x00\x00\x00\x00\x00\x00\x00\x00\x00\x00\x00\x00'
Ntbsg19
g1162
(g1163
g1158
g1164
S'b'
tRp1274
(I1
(I96
I1
tg1166
I00
S'\x00\x00\x80?\x00\x00\x80?\x00\x00\x80?\x00\x00\x80?\x00\x00\x80?\x00\x00\x80?\x00\x00\x80?\x00\x00\x00\x00\x00\x00\x80?\x00\x00\x80?\x00\x00\x80?\x00\x00\x80?\x00\x00\x80?\x00\x00\x80?\x00\x00\x80?\x00\x00\x00\x00\x00\x00\x00\x00\x00\x00\x00\x00\x00\x00\x80?\x00\x00\x80?\x00\x00\x80?\x00\x00\x00\x00\x00\x00\x80?\x00\x00\x00\x00\x00\x00\x00\x00\x00\x00\x80?\x00\x00\x80?\x00\x00\x80?\x00\x00\x80?\x00\x00\x80?\x00\x00\x00\x00\x00\x00\x80?\x00\x00\x00\x00\x00\x00\x00\x00\x00\x00\x80?\x00\x00\x80?\x00\x00\x80?\x00\x00\x80?\x00\x00\x80?\x00\x00\x80?\x00\x00\x80?\x00\x00\x80?\x00\x00\x00\x00\x00\x00\x80?\x00\x00\x80?\x00\x00\x00\x00\x00\x00\x80?\x00\x00\x80?\x00\x00\x80?\x00\x00\x00\x00\x00\x00\x00\x00\x00\x00\x00\x00\x00\x00\x00\x00\x00\x00\x80?\x00\x00\x00\x00\x00\x00\x80?\x00\x00\x80?\x00\x00\x80?\x00\x00\x80?\x00\x00\x80?\x00\x00\x80?\x00\x00\x00\x00\x00\x00\x80?\x00\x00\x80?\x00\x00\x80?\x00\x00\x00\x00\x00\x00\x80?\x00\x00\x00\x00\x00\x00\x80?\x00\x00\x80?\x00\x00\x80?\x00\x00\x80?\x00\x00\x00\x00\x00\x00\x00\x00\x00\x00\x80?\x00\x00\x80?\x00\x00\x80?\x00\x00\x00\x00\x00\x00\x80?\x00\x00\x80?\x00\x00\x80?\x00\x00\x80?\x00\x00\x80?\x00\x00\x80?\x00\x00\x80?\x00\x00\x00\x00\x00\x00\x80?\x00\x00\x80?\x00\x00\x80?\x00\x00\x80?\x00\x00\x00\x00\x00\x00\x80?\x00\x00\x80?\x00\x00\x80?\x00\x00\x80?\x00\x00\x80?'
S'\x00\x00\x00\x00\x00\x00\x00\x00\x00\x00\x00\x00\x00\x00\x00\x00\x00\x00\x00\x00\x00\x00\x00\x00\x00\x00\x00\x00\x00\x00\x00\x00\x00\x00\x00\x00\x00\x00\x00\x00\x00\x00\x00\x00\x00\x00\x00\x00\x00\x00\x00\x00\x00\x00\x00\x00\x00\x00\x00\x00\x00\x00\x00\x00\x00\x00\x00\x00\x00\x00\x00\x00\x00\x00\x00\x00\x00\x00\x00\x00\x00\x00\x00\x00\x00\x00\x00\x00\x00\x00\x00\x00\x00\x00\x00\x00'
Ntbsg27
g1157
(g1158
(I0
tS'b'
tRp1275
(I1
(I96
I1
tg1160
I00
(lp1276
g1112
ag440
ag462
ag407
ag727
ag473
ag672
ag76
ag1035
ag991
ag870
ag617
ag206
ag418
ag925
ag551
ag252
ag793
ag804
ag184
ag826
ag881
ag969
ag91
ag485
ag760
ag529
ag496
ag285
ag263
ag936
ag114
ag451
ag150
ag606
ag903
ag782
ag518
ag595
ag329
ag628
ag384
ag318
ag639
ag362
ag749
ag138
ag584
ag705
ag980
ag373
ag738
ag1013
ag1002
ag507
ag694
ag815
ag173
ag162
ag540
ag296
ag892
ag1024
ag195
ag307
ag716
ag1101
ag1057
ag848
ag683
ag274
ag859
ag1079
ag914
ag1068
ag228
ag102
ag661
ag837
ag217
ag126
ag650
ag1090
ag562
ag429
ag947
ag573
ag1134
ag240
ag958
ag340
ag1046
ag1123
ag771
ag395
ag351
atbsg23
g1157
(g1158
(I0
tS'b'
tRp1277
(I1
(I96
I1
tg1160
I00
(lp1278
S'3'
aS'2'
aS'2'
aS'1'
aS'2'
aS'3'
aS'3'
aS'2'
aS'2'
aS'3'
aS'1'
aS'1'
aS'2'
aS'2'
aS'3'
aS'1'
aS'1'
aS'1'
aS'1'
aS'3'
aS'3'
aS'2'
aS'2'
aS'1'
aS'1'
aS'3'
aS'3'
aS'3'
aS'1'
aS'2'
aS'1'
aS'3'
aS'1'
aS'1'
aS'3'
aS'3'
aS'1'
aS'1'
aS'1'
aS'3'
aS'1'
aS'1'
aS'1'
aS'2'
aS'2'
aS'2'
aS'3'
aS'2'
aS'1'
aS'1'
aS'1'
aS'2'
aS'1'
aS'1'
aS'1'
aS'2'
aS'1'
aS'1'
aS'2'
aS'3'
aS'3'
aS'1'
aS'2'
aS'1'
aS'3'
aS'1'
aS'3'
aS'1'
aS'3'
aS'1'
aS'1'
aS'3'
aS'1'
aS'1'
aS'2'
aS'1'
aS'3'
aS'1'
aS'3'
aS'2'
aS'1'
aS'3'
aS'1'
aS'3'
aS'2'
aS'1'
aS'1'
aS'1'
aS'2'
aS'3'
aS'1'
aS'2'
aS'3'
aS'3'
aS'3'
aS'3'
atbsg18
g1162
(g1163
g1158
g1164
S'b'
tRp1279
(I1
(I96
I1
tg1166
I00
S'\xdf\x80\xe8C>\xa3\x18C\xf1r"Ce\xe6\x0bC\x13o\x8aC\x93\xbf&C\x01\xf3yC\x19\x89\xa0@V"\xd4C\xee\x0f\xcaC\xf1\x92\xb1C~\x1bbC_OrB\xe1\xb7\x0fC\x88\xc6\xbdC,\x02GC\x9a\xf5\x9fB\xac\x07\x9bC\x86\xfe\x9cC\x81\x8ePB\xba@\xa3C\xceE\xb3C\x03\xc2\xc5Cd\xce4A1\x96*C\xecG\x92C\xb1\x87>C\xfb_.C\x0b\x9e\xbaB\xc28\xaaB\xe5\x15\xc0C\x07t\xcdA\xc7\xd6\x1dC\x9a5\x1fBT\x7f]C\t\xba\xb9C\xfb\x8f\x97C\xd6\xe58C\x9d\x1dXC\xd3\xf4\xdeB\x03\xd9fC\xb3\x8a\x03C\x19t\xd4B\xa6%kC\x19s\xf7BT"\x8fC\xab}\rB\xad\xd8SC\xc4\x11\x86C(\xf5\xc7C\xca\xce\xffB\xa6\x1e\x8dC6;\xceC[D\xccC\x84Z2C\xc9\x96\x83C}\x03\x9fC\x15\xae?B\x93g/B\xf0\xffBC\xcc_\xc2B\xe2K\xb7C\xce\xe1\xd0Ce\x1dbB-\xc1\xcbB\xb2c\x88C\xe8{\xe6C2~\xdaC\xef\xbb\xaaC\xf3r~C\x05\xd2\xb2B\xcb_\xafC\r\xe7\xdeCl\x00\xbcC\x91N\xdcC\xfd\xe6\x8eB\xd6)\xa4A\xf2\xe3uC\x8d\xf6\xa7C7\xaf\x86B\xf2A\xf4AA3qCu\x96\xe3C\xe0\xefJC\x9a\x1b\x14C\xd5\xe8\xc1C\xa2\x06OCV[\xecC\xc7[\x96B\xc9\xb2\xc3CAF\xe7B\x10\x07\xd8C\x08p\xeaC\xb1b\x94C3\xd2\x07C_d\xefB'
S'\x00\x00\x00\x00\x00\x00\x00\x00\x00\x00\x00\x00\x00\x00\x00\x00\x00\x00\x00\x00\x00\x00\x00\x00\x00\x00\x00\x00\x00\x00\x00\x00\x00\x00\x00\x00\x00\x00\x00\x00\x00\x00\x00\x00\x00\x00\x00\x00\x00\x00\x00\x00\x00\x00\x00\x00\x00\x00\x00\x00\x00\x00\x00\x00\x00\x00\x00\x00\x00\x00\x00\x00\x00\x00\x00\x00\x00\x00\x00\x00\x00\x00\x00\x00\x00\x00\x00\x00\x00\x00\x00\x00\x00\x00\x00\x00'
Ntbsg25
g1162
(g1163
g1158
g1164
S'b'
tRp1280
(I1
(I96
I1
tg1166
I00
S'C\xfea>sR\xa4>M*\r?\x0f\xffa>\xaf4\xad?.\xbbW>\x96\xf9\xbd>\xaf\xf6f?*\x0e~?;\x1b\xc3>k.\x1a>6\xd2&?f%\x1d@\\\xc2\xdc>woR?\x83\x95\xae>\xfd\x07\x08?\xfe\x0c\x9a>$\xf9\x99><\xea\x94>\x8c\xf9\xbd>\xfc\x83.? \x93\xae>\x7f\xbb\x0f?\xc59C>\xdd;\xc8>\x9c\x92\xae>\xd8c\x80>\x95\x03b>\xc2\xb4\xb3>\xad\x92\xae>\xb2\xa1\xd7>\xfa\x87\x85>wq\xa9>h+H?\xed[\xcd>#\x86\x85>7\x99\n?\xb9\xc0\xdc>i^\xcd>r%\xec>\x07\xea\x94>\x0b\x13\xa8?(\xdc\x02@\xb3l\x17?\x1f\x13\xa8?\x99\x0b\x9a>A\xf7\xbd>Vp\x85?\xb9\x92\xae>)e\x80>q\xbd\x05>\x7f*\xbf?\xdd\x99\n?\nK\x00@%\xe9=?*\x92\x81?\xe5\xb5\xb3>\xee\x94\xae>\x92xM>\t<\xc8>\x9b\x1al>\xd3\xf5f?\x01/\x9f>\xc2y\x05?\x84\x9f\xd7>\xf7.\x9f>\xa4\x87v>\xbe\x84.?\xaf\xcc\xe1?\xe1\xffa>m\xc3\xdc>\xc5XB@h\x86\x85>\xeboR?\x93Hl>\xf0\x03\xe7>)\x95\xae>\xec\xc9s?B\xe8\x02?(.\x9f>\xd1\xbdJ?\x1b\xc1.>\x89\xc9\x8f>\x15i\xd2>\xe0Dl>\x1b\xd6\xb8>Z\x19\xc3>u\x94\xae>\x1a\xf9\xbd>A\xa1\x85>\x8b66?\x96O\xa4>[O\x80?\x10\x93\x85>\xbcKl>'
S'\x00\x00\x00\x00\x00\x00\x00\x00\x00\x00\x00\x00\x00\x00\x00\x00\x00\x00\x00\x00\x00\x00\x00\x00\x00\x00\x00\x00\x00\x00\x00\x00\x00\x00\x00\x00\x00\x00\x00\x00\x00\x00\x00\x00\x00\x00\x00\x00\x00\x00\x00\x00\x00\x00\x00\x00\x00\x00\x00\x00\x00\x00\x00\x00\x00\x00\x00\x00\x00\x00\x00\x00\x00\x00\x00\x00\x00\x00\x00\x00\x00\x00\x00\x00\x00\x00\x00\x00\x00\x00\x00\x00\x00\x00\x00\x00'
NtbstRp1281
(dp1282
S'isNumeric'
p1283
(dp1284
g23
I00
sg20
I00
sg17
I01
sg1167
I01
sg22
I01
sg24
I01
sg14
I01
sg18
I01
sg16
I00
sg19
I01
sg26
I00
sg27
I00
sg15
I00
sg21
I01
sg1272
I01
sg25
I01
ssg1151
g1145
sS'dataTypes'
p1285
(lp1286
g1167
ag1272
ag14
ag15
ag16
ag17
ag18
ag19
ag20
ag21
ag22
ag23
ag24
ag25
ag26
ag27
asS'dataShape'
p1287
(lp1288
I96
aI1
asbsS'method'
p1289
S'random'
p1290
sS'sequenceIndices'
p1291
g1157
(g1158
(I0
tS'b'
tRp1292
(I1
(I96
I1
tg80
I01
S'\x07\x00\x00\x00\x17\x00\x00\x00L\x00\x00\x00\x1f\x00\x00\x00P\x00\x00\x00.\x00\x00\x00!\x00\x00\x00:\x00\x00\x009\x00\x00\x00\x13\x00\x00\x00?\x00\x00\x00\x0c\x00\x00\x00O\x00\x00\x00K\x00\x00\x00X\x00\x00\x00\x10\x00\x00\x00\x1d\x00\x00\x00F\x00\x00\x00\x1c\x00\x00\x00<\x00\x00\x00@\x00\x00\x00*\x00\x00\x00\'\x00\x00\x00Z\x00\x00\x00_\x00\x00\x00,\x00\x00\x002\x00\x00\x00)\x00\x00\x00^\x00\x00\x00\x03\x00\x00\x00\r\x00\x00\x00T\x00\x00\x00\x01\x00\x00\x00 \x00\x00\x00\x02\x00\x00\x00\x05\x00\x00\x00\x18\x00\x00\x00\x1b\x00\x00\x006\x00\x00\x00%\x00\x00\x00\x1a\x00\x00\x00;\x00\x00\x00\x0f\x00\x00\x00S\x00\x00\x00V\x00\x00\x00/\x00\x00\x00&\x00\x00\x00"\x00\x00\x00\x0b\x00\x00\x00(\x00\x00\x00+\x00\x00\x00Q\x00\x00\x00M\x00\x00\x00\x06\x00\x00\x00E\x00\x00\x007\x00\x00\x000\x00\x00\x00A\x00\x00\x00\x04\x00\x00\x003\x00\x00\x00-\x00\x00\x00\x19\x00\x00\x00]\x00\x00\x00$\x00\x00\x00\x11\x00\x00\x00\x12\x00\x00\x008\x00\x00\x00\x14\x00\x00\x00N\x00\x00\x00D\x00\x00\x00G\x00\x00\x00\n\x00\x00\x00\x15\x00\x00\x00=\x00\x00\x00#\x00\x00\x00I\x00\x00\x00\x0e\x00\x00\x00\x1e\x00\x00\x00U\x00\x00\x00Y\x00\x00\x00\x16\x00\x00\x001\x00\x00\x00\t\x00\x00\x005\x00\x00\x004\x00\x00\x00>\x00\x00\x00\x08\x00\x00\x00[\x00\x00\x00C\x00\x00\x00J\x00\x00\x00H\x00\x00\x00R\x00\x00\x00B\x00\x00\x00\x00\x00\x00\x00\\\x00\x00\x00W\x00\x00\x00'
tbsS'finished'
p1293
I01
sS'nReps'
p1294
I1
sS'nRemaining'
p1295
I-1
sS'trialList'
p1296
(lp1297
g1
(cpsychopy.data
TrialType
p1298
g1155
(dp1299
g62
g74
sg63
g1118
sg64
g136
sg65
g1113
sg66
g1117
stRp1300
ag1
(g1298
g1155
(dp1301
g62
g89
sg63
g446
sg64
g250
sg65
g441
sg66
g445
stRp1302
ag1
(g1298
g1155
(dp1303
g62
g74
sg63
g468
sg64
g136
sg65
g463
sg66
g467
stRp1304
ag1
(g1298
g1155
(dp1305
g62
g74
sg63
g413
sg64
g405
sg65
g408
sg66
g412
stRp1306
ag1
(g1298
g1155
(dp1307
g62
g89
sg63
g733
sg64
g148
sg65
g728
sg66
g732
stRp1308
ag1
(g1298
g1155
(dp1309
g62
g74
sg63
g479
sg64
g136
sg65
g474
sg66
g478
stRp1310
ag1
(g1298
g1155
(dp1311
g62
g74
sg63
g678
sg64
g136
sg65
g673
sg66
g677
stRp1312
ag1
(g1298
g1155
(dp1313
g62
g74
sg63
g84
sg64
g73
sg65
g78
sg66
g83
stRp1314
ag1
(g1298
g1155
(dp1315
g62
g74
sg63
g1041
sg64
g136
sg65
g1036
sg66
g1040
stRp1316
ag1
(g1298
g1155
(dp1317
g62
g74
sg63
g997
sg64
g73
sg65
g992
sg66
g996
stRp1318
ag1
(g1298
g1155
(dp1319
g62
g89
sg63
g876
sg64
g483
sg65
g871
sg66
g875
stRp1320
ag1
(g1298
g1155
(dp1321
g62
g74
sg63
g623
sg64
g73
sg65
g618
sg66
g622
stRp1322
ag1
(g1298
g1155
(dp1323
g62
g74
sg63
g212
sg64
g160
sg65
g207
sg66
g211
stRp1324
ag1
(g1298
g1155
(dp1325
g62
g89
sg63
g424
sg64
g250
sg65
g419
sg66
g423
stRp1326
ag1
(g1298
g1155
(dp1327
g62
g74
sg63
g931
sg64
g160
sg65
g926
sg66
g930
stRp1328
ag1
(g1298
g1155
(dp1329
g62
g74
sg63
g557
sg64
g136
sg65
g552
sg66
g556
stRp1330
ag1
(g1298
g1155
(dp1331
g62
g89
sg63
g258
sg64
g250
sg65
g253
sg66
g257
stRp1332
ag1
(g1298
g1155
(dp1333
g62
g74
sg63
g799
sg64
g160
sg65
g794
sg66
g798
stRp1334
ag1
(g1298
g1155
(dp1335
g62
g74
sg63
g810
sg64
g112
sg65
g805
sg66
g809
stRp1336
ag1
(g1298
g1155
(dp1337
g62
g74
sg63
g190
sg64
g136
sg65
g185
sg66
g189
stRp1338
ag1
(g1298
g1155
(dp1339
g62
g89
sg63
g832
sg64
g250
sg65
g827
sg66
g831
stRp1340
ag1
(g1298
g1155
(dp1341
g62
g89
sg63
g887
sg64
g88
sg65
g882
sg66
g886
stRp1342
ag1
(g1298
g1155
(dp1343
g62
g74
sg63
g975
sg64
g112
sg65
g970
sg66
g974
stRp1344
ag1
(g1298
g1155
(dp1345
g62
g89
sg63
g97
sg64
g88
sg65
g92
sg66
g96
stRp1346
ag1
(g1298
g1155
(dp1347
g62
g89
sg63
g491
sg64
g483
sg65
g486
sg66
g490
stRp1348
ag1
(g1298
g1155
(dp1349
g62
g74
sg63
g766
sg64
g238
sg65
g761
sg66
g765
stRp1350
ag1
(g1298
g1155
(dp1351
g62
g89
sg63
g535
sg64
g148
sg65
g530
sg66
g534
stRp1352
ag1
(g1298
g1155
(dp1353
g62
g89
sg63
g502
sg64
g250
sg65
g497
sg66
g501
stRp1354
ag1
(g1298
g1155
(dp1355
g62
g74
sg63
g291
sg64
g160
sg65
g286
sg66
g290
stRp1356
ag1
(g1298
g1155
(dp1357
g62
g74
sg63
g269
sg64
g136
sg65
g264
sg66
g268
stRp1358
ag1
(g1298
g1155
(dp1359
g62
g74
sg63
g942
sg64
g112
sg65
g937
sg66
g941
stRp1360
ag1
(g1298
g1155
(dp1361
g62
g74
sg63
g120
sg64
g112
sg65
g115
sg66
g119
stRp1362
ag1
(g1298
g1155
(dp1363
g62
g89
sg63
g457
sg64
g250
sg65
g452
sg66
g456
stRp1364
ag1
(g1298
g1155
(dp1365
g62
g89
sg63
g156
sg64
g148
sg65
g151
sg66
g155
stRp1366
ag1
(g1298
g1155
(dp1367
g62
g89
sg63
g612
sg64
g148
sg65
g607
sg66
g611
stRp1368
ag1
(g1298
g1155
(dp1369
g62
g74
sg63
g909
sg64
g160
sg65
g904
sg66
g908
stRp1370
ag1
(g1298
g1155
(dp1371
g62
g74
sg63
g788
sg64
g238
sg65
g783
sg66
g787
stRp1372
ag1
(g1298
g1155
(dp1373
g62
g74
sg63
g524
sg64
g405
sg65
g519
sg66
g523
stRp1374
ag1
(g1298
g1155
(dp1375
g62
g89
sg63
g601
sg64
g148
sg65
g596
sg66
g600
stRp1376
ag1
(g1298
g1155
(dp1377
g62
g89
sg63
g335
sg64
g250
sg65
g330
sg66
g334
stRp1378
ag1
(g1298
g1155
(dp1379
g62
g89
sg63
g634
sg64
g250
sg65
g629
sg66
g633
stRp1380
ag1
(g1298
g1155
(dp1381
g62
g74
sg63
g390
sg64
g160
sg65
g385
sg66
g389
stRp1382
ag1
(g1298
g1155
(dp1383
g62
g89
sg63
g324
sg64
g148
sg65
g319
sg66
g323
stRp1384
ag1
(g1298
g1155
(dp1385
g62
g89
sg63
g645
sg64
g88
sg65
g640
sg66
g644
stRp1386
ag1
(g1298
g1155
(dp1387
g62
g89
sg63
g368
sg64
g148
sg65
g363
sg66
g367
stRp1388
ag1
(g1298
g1155
(dp1389
g62
g89
sg63
g755
sg64
g483
sg65
g750
sg66
g754
stRp1390
ag1
(g1298
g1155
(dp1391
g62
g74
sg63
g144
sg64
g136
sg65
g139
sg66
g143
stRp1392
ag1
(g1298
g1155
(dp1393
g62
g74
sg63
g590
sg64
g136
sg65
g585
sg66
g589
stRp1394
ag1
(g1298
g1155
(dp1395
g62
g89
sg63
g711
sg64
g250
sg65
g706
sg66
g710
stRp1396
ag1
(g1298
g1155
(dp1397
g62
g89
sg63
g986
sg64
g88
sg65
g981
sg66
g985
stRp1398
ag1
(g1298
g1155
(dp1399
g62
g89
sg63
g379
sg64
g250
sg65
g374
sg66
g378
stRp1400
ag1
(g1298
g1155
(dp1401
g62
g89
sg63
g744
sg64
g148
sg65
g739
sg66
g743
stRp1402
ag1
(g1298
g1155
(dp1403
g62
g89
sg63
g1019
sg64
g88
sg65
g1014
sg66
g1018
stRp1404
ag1
(g1298
g1155
(dp1405
g62
g74
sg63
g1008
sg64
g160
sg65
g1003
sg66
g1007
stRp1406
ag1
(g1298
g1155
(dp1407
g62
g74
sg63
g513
sg64
g73
sg65
g508
sg66
g512
stRp1408
ag1
(g1298
g1155
(dp1409
g62
g89
sg63
g700
sg64
g88
sg65
g695
sg66
g699
stRp1410
ag1
(g1298
g1155
(dp1411
g62
g89
sg63
g821
sg64
g148
sg65
g816
sg66
g820
stRp1412
ag1
(g1298
g1155
(dp1413
g62
g89
sg63
g179
sg64
g148
sg65
g174
sg66
g178
stRp1414
ag1
(g1298
g1155
(dp1415
g62
g74
sg63
g168
sg64
g160
sg65
g163
sg66
g167
stRp1416
ag1
(g1298
g1155
(dp1417
g62
g89
sg63
g546
sg64
g148
sg65
g541
sg66
g545
stRp1418
ag1
(g1298
g1155
(dp1419
g62
g89
sg63
g302
sg64
g148
sg65
g297
sg66
g301
stRp1420
ag1
(g1298
g1155
(dp1421
g62
g89
sg63
g898
sg64
g148
sg65
g893
sg66
g897
stRp1422
ag1
(g1298
g1155
(dp1423
g62
g74
sg63
g1030
sg64
g238
sg65
g1025
sg66
g1029
stRp1424
ag1
(g1298
g1155
(dp1425
g62
g89
sg63
g201
sg64
g148
sg65
g196
sg66
g200
stRp1426
ag1
(g1298
g1155
(dp1427
g62
g74
sg63
g313
sg64
g73
sg65
g308
sg66
g312
stRp1428
ag1
(g1298
g1155
(dp1429
g62
g89
sg63
g722
sg64
g88
sg65
g717
sg66
g721
stRp1430
ag1
(g1298
g1155
(dp1431
g62
g74
sg63
g1107
sg64
g112
sg65
g1102
sg66
g1106
stRp1432
ag1
(g1298
g1155
(dp1433
g62
g89
sg63
g1063
sg64
g148
sg65
g1058
sg66
g1062
stRp1434
ag1
(g1298
g1155
(dp1435
g62
g89
sg63
g854
sg64
g250
sg65
g849
sg66
g853
stRp1436
ag1
(g1298
g1155
(dp1437
g62
g74
sg63
g689
sg64
g136
sg65
g684
sg66
g688
stRp1438
ag1
(g1298
g1155
(dp1439
g62
g89
sg63
g280
sg64
g148
sg65
g275
sg66
g279
stRp1440
ag1
(g1298
g1155
(dp1441
g62
g74
sg63
g865
sg64
g112
sg65
g860
sg66
g864
stRp1442
ag1
(g1298
g1155
(dp1443
g62
g74
sg63
g1085
sg64
g238
sg65
g1080
sg66
g1084
stRp1444
ag1
(g1298
g1155
(dp1445
g62
g89
sg63
g920
sg64
g483
sg65
g915
sg66
g919
stRp1446
ag1
(g1298
g1155
(dp1447
g62
g89
sg63
g1074
sg64
g148
sg65
g1069
sg66
g1073
stRp1448
ag1
(g1298
g1155
(dp1449
g62
g89
sg63
g234
sg64
g88
sg65
g229
sg66
g233
stRp1450
ag1
(g1298
g1155
(dp1451
g62
g74
sg63
g108
sg64
g73
sg65
g103
sg66
g107
stRp1452
ag1
(g1298
g1155
(dp1453
g62
g74
sg63
g667
sg64
g112
sg65
g662
sg66
g666
stRp1454
ag1
(g1298
g1155
(dp1455
g62
g74
sg63
g843
sg64
g136
sg65
g838
sg66
g842
stRp1456
ag1
(g1298
g1155
(dp1457
g62
g89
sg63
g223
sg64
g148
sg65
g218
sg66
g222
stRp1458
ag1
(g1298
g1155
(dp1459
g62
g89
sg63
g132
sg64
g88
sg65
g127
sg66
g131
stRp1460
ag1
(g1298
g1155
(dp1461
g62
g74
sg63
g656
sg64
g136
sg65
g651
sg66
g655
stRp1462
ag1
(g1298
g1155
(dp1463
g62
g89
sg63
g1096
sg64
g250
sg65
g1091
sg66
g1095
stRp1464
ag1
(g1298
g1155
(dp1465
g62
g74
sg63
g568
sg64
g112
sg65
g563
sg66
g567
stRp1466
ag1
(g1298
g1155
(dp1467
g62
g89
sg63
g435
sg64
g250
sg65
g430
sg66
g434
stRp1468
ag1
(g1298
g1155
(dp1469
g62
g89
sg63
g953
sg64
g148
sg65
g948
sg66
g952
stRp1470
ag1
(g1298
g1155
(dp1471
g62
g74
sg63
g579
sg64
g73
sg65
g574
sg66
g578
stRp1472
ag1
(g1298
g1155
(dp1473
g62
g74
sg63
g1140
sg64
g73
sg65
g1135
sg66
g1139
stRp1474
ag1
(g1298
g1155
(dp1475
g62
g74
sg63
g246
sg64
g238
sg65
g241
sg66
g245
stRp1476
ag1
(g1298
g1155
(dp1477
g62
g74
sg63
g964
sg64
g238
sg65
g959
sg66
g963
stRp1478
ag1
(g1298
g1155
(dp1479
g62
g89
sg63
g346
sg64
g250
sg65
g341
sg66
g345
stRp1480
ag1
(g1298
g1155
(dp1481
g62
g74
sg63
g1052
sg64
g73
sg65
g1047
sg66
g1051
stRp1482
ag1
(g1298
g1155
(dp1483
g62
g74
sg63
g1129
sg64
g238
sg65
g1124
sg66
g1128
stRp1484
ag1
(g1298
g1155
(dp1485
g62
g74
sg63
g777
sg64
g136
sg65
g772
sg66
g776
stRp1486
ag1
(g1298
g1155
(dp1487
g62
g89
sg63
g401
sg64
g88
sg65
g396
sg66
g400
stRp1488
ag1
(g1298
g1155
(dp1489
g62
g89
sg63
g357
sg64
g250
sg65
g352
sg66
g356
stRp1490
asS'seed'
p1491
NsS'thisIndex'
p1492
g1137
sS'thisN'
p1493
I96
sS'thisTrialN'
p1494
I0
sS'nTotal'
p1495
I96
sS'_warnUseOfNext'
p1496
I01
sbasS'savePickle'
p1497
I00
sb.