ccopy_reg
_reconstructor
p1
(cpsychopy.data
ExperimentHandler
p2
c__builtin__
object
p3
NtRp4
(dp5
S'originPath'
p6
NsS'dataFileName'
p7
VC:\u005cDocuments and Settings\u005cExperimental user\u005cMy Documents\u005cconsciousness\u005cuncon_feat\u005cexperiment_scripts\u005cdata/ana_Experiment_EEG_version_2019_may_21_1601
p8
sS'runtimeInfo'
p9
NsS'name'
p10
VExperiment_EEG_version
p11
sS'dataNames'
p12
(lp13
S'image_onset_time'
p14
aS'response_window'
p15
aS'correctAns'
p16
aS'probe_onset'
p17
aS'discrim_resptime'
p18
aS'response.corr'
p19
aS'response.keys'
p20
aS'response.rt'
p21
aS'visible_resptime'
p22
aS'visible.keys'
p23
aS'visible.corr'
p24
aS'visible.rt'
p25
aS'probeFrames'
p26
aS'jitter2'
p27
asS'autoLog'
p28
I01
sS'extraInfo'
p29
(dp30
Vn_square
p31
V32
p32
sVexperiment_color
p33
Vbw
p34
sS'frameRate'
p35
cnumpy.core.multiarray
scalar
p36
(cnumpy
dtype
p37
(S'f8'
I0
I1
tRp38
(I3
S'<'
NNNI-1
I-1
I0
tbS'\xb35\xb7  \xf2X@'
tRp39
sS'date'
p40
V2019_may_21_1601
p41
sVsession
p42
V001
p43
sVimage_size
p44
V256
p45
sVpremask_dur
p46
V20
p47
sVprobeFrames
p48
V5
sVparticipant
p49
Vana
p50
sS'expName'
p51
g11
sVpostmask_dur
p52
V20
p53
ssS'loopsUnfinished'
p54
(lp55
sS'saveWideText'
p56
I00
sS'thisEntry'
p57
(dp58
sS'version'
p59
S''
sS'_paramNamesSoFar'
p60
(lp61
S'category'
p62
aS'probe_path'
p63
aS'subcategory'
p64
aS'fixation_duration'
p65
aS'label'
p66
asS'entries'
p67
(lp68
(dp69
g31
g32
sg17
F3.7363776698475704
sg24
I0
sg35
g39
sg14
F3.7153921322897077
sg16
g36
(g37
(S'i4'
I0
I1
tRp70
(I3
S'<'
NNNI-1
I-1
I0
tbS'\x01\x00\x00\x00'
tRp71
sg42
g43
sg46
g47
sg15
S'V_nV'
p72
sg22
F5.9210866035427898
sg64
VAnimals
p73
sg62
VLiving_Things
p74
sg49
g50
sS'trials.thisN'
p75
I0
sg19
I0
sg27
g36
(g38
S'\x00\x00\x00\x00\x00\x00\x18@'
tRp76
sg52
g53
sg23
S'2'
sg18
F4.9980549842584878
sg33
g34
sg51
g11
sg20
S'2'
sg65
g36
(g37
(S'i8'
I0
I1
tRp77
(I3
S'<'
NNNI-1
I-1
I0
tbS'\x00\x00\x00\x00\x00\x00\x00\x00'
tRp78
sg44
g45
sg40
g41
sg25
F3.9888909970177338
sS'trials.thisIndex'
p79
g36
(g37
(S'i4'
I0
I1
tRp80
(I3
S'<'
NNNI-1
I-1
I0
tbS'\r\x00\x00\x00'
tRp81
sg26
V5
sS'trials.thisRepN'
p82
I0
sg66
Vcat
p83
sg63
V../experiment_stimuli/bw_bc_bl/Living_Things/Animals/cat_26.jpg
p84
sg21
F0.89217973395716399
sS'trials.thisTrialN'
p85
I0
sa(dp86
g31
g32
sg17
F11.647424675989896
sg24
I0
sg35
g39
sg14
F11.642604910884984
sg16
g36
(g70
S'\x02\x00\x00\x00'
tRp87
sg42
g43
sg46
g47
sg15
S'nV_V'
p88
sg22
F14.118639796157368
sg64
VInsects
p89
sg62
g74
sg49
g50
sS'trials.thisN'
p90
I1
sg19
I0
sg27
g36
(g38
S'\x00\x00\x00\x00\x00\x00\x18@'
tRp91
sg52
g53
sg23
S'2'
sg18
F12.905248485621996
sg33
g34
sg51
g11
sg20
S'1'
sg65
g36
(g77
S'\x00\x00\x00\x00\x00\x00\x00\x00'
tRp92
sg44
g45
sg40
g41
sg25
F2.7161368491360918
sS'trials.thisIndex'
p93
g36
(g80
S'\n\x00\x00\x00'
tRp94
sg26
V5
sS'trials.thisRepN'
p95
I0
sg66
Vbutterfly
p96
sg63
V../experiment_stimuli/bw_bc_bl/Living_Things/Insects/butterfly_26.jpg
p97
sg21
F1.1928326913621277
sS'trials.thisTrialN'
p98
I1
sa(dp99
g31
g32
sg17
F18.572383090504445
sg24
I0
sg35
g39
sg14
F18.567645778879523
sg16
g36
(g70
S'\x01\x00\x00\x00'
tRp100
sg42
g43
sg46
g47
sg15
g88
sg22
F21.023612492950633
sg64
VFurniture
p101
sg62
VNonliving_Things
p102
sg49
g50
sS'trials.thisN'
p103
I2
sg19
I1
sg27
g36
(g38
S'\x00\x00\x00\x00\x00\x00\x18@'
tRp104
sg52
g53
sg23
S'3'
sg18
F19.820271485950798
sg33
g34
sg51
g11
sg20
S'1'
sg65
g36
(g77
S'\x00\x00\x00\x00\x00\x00\x00\x00'
tRp105
sg44
g45
sg40
g41
sg25
F2.1248442381620407
sS'trials.thisIndex'
p106
g36
(g80
S'\x02\x00\x00\x00'
tRp107
sg26
V5
sS'trials.thisRepN'
p108
I0
sg66
Varmchair
p109
sg63
V../experiment_stimuli/bw_bc_bl/Nonliving_Things/Furniture/armchair_26.jpg
p110
sg21
F1.182802252122201
sS'trials.thisTrialN'
p111
I2
sa(dp112
g31
g32
sg17
F24.88661013089586
sg24
I1
sg35
g39
sg14
F24.881371510680765
sg16
g36
(g70
S'\x01\x00\x00\x00'
tRp113
sg42
g43
sg46
g47
sg15
g88
sg22
F29.482034017099068
sg64
VBuildings
p114
sg62
g102
sg49
g50
sS'trials.thisN'
p115
I3
sg19
I0
sg27
g36
(g38
S'\x00\x00\x00\x00\x00\x00\x18@'
tRp116
sg52
g53
sg23
S'1'
sg18
F26.113954223110341
sg33
g34
sg51
g11
sg20
S'2'
sg65
g36
(g77
S'\x00\x00\x00\x00\x00\x00\x00\x00'
tRp117
sg44
g45
sg40
g41
sg25
F2.1448815567418933
sS'trials.thisIndex'
p118
g36
(g80
S'\x0c\x00\x00\x00'
tRp119
sg26
V5
sS'trials.thisRepN'
p120
I0
sg66
Vcastle
p121
sg63
V../experiment_stimuli/bw_bc_bl/Nonliving_Things/Buildings/castle_24.jpg
p122
sg21
F3.3475090585416183
sS'trials.thisTrialN'
p123
I3
sa(dp124
g31
g32
sg17
F33.365415231790394
sg24
I0
sg35
g39
sg14
F33.359821124002337
sg16
g36
(g70
S'\x01\x00\x00\x00'
tRp125
sg42
g43
sg46
g47
sg15
g72
sg22
F36.076350433635525
sg64
VMarine_creatures
p126
sg62
g74
sg49
g50
sS'trials.thisN'
p127
I4
sg19
I1
sg27
g36
(g38
S'\x00\x00\x00\x00\x00\x00\x18@'
tRp128
sg52
g53
sg23
S'3'
sg18
F34.622450830647722
sg33
g34
sg51
g11
sg20
S'1'
sg65
g36
(g77
S'\x00\x00\x00\x00\x00\x00\x00\x00'
tRp129
sg44
g45
sg40
g41
sg25
F1.4433631183346733
sS'trials.thisIndex'
p130
g36
(g80
S'7\x00\x00\x00'
tRp131
sg26
V5
sS'trials.thisRepN'
p132
I0
sg66
Vnarwhal
p133
sg63
V../experiment_stimuli/bw_bc_bl/Living_Things/Marine_creatures/narwhal_6.jpg
p134
sg21
F1.4333405024372041
sS'trials.thisTrialN'
p135
I4
sa(dp136
g31
g32
sg17
F39.257446664618328
sg24
I0
sg35
g39
sg14
F39.25260596734006
sg16
g36
(g70
S'\x02\x00\x00\x00'
tRp137
sg42
g43
sg46
g47
sg15
g72
sg22
F43.993586475378834
sg64
g101
sg62
g102
sg49
g50
sS'trials.thisN'
p138
I5
sg19
I1
sg27
g36
(g38
S'\x00\x00\x00\x00\x00\x00\x18@'
tRp139
sg52
g53
sg23
S'2'
sg18
F40.485194762004539
sg33
g34
sg51
g11
sg20
S'2'
sg65
g36
(g77
S'\x00\x00\x00\x00\x00\x00\x00\x00'
tRp140
sg44
g45
sg40
g41
sg25
F1.9143833686830476
sS'trials.thisIndex'
p141
g36
(g80
S'Q\x00\x00\x00'
tRp142
sg26
V5
sS'trials.thisRepN'
p143
I0
sg66
Vtable
p144
sg63
V../experiment_stimuli/bw_bc_bl/Nonliving_Things/Furniture/table_13.jpg
p145
sg21
F3.4878453044220805
sS'trials.thisTrialN'
p146
I5
sa(dp147
g31
g32
sg17
F47.645603435696103
sg24
I0
sg35
g39
sg14
F47.640846226015128
sg16
g36
(g70
S'\x02\x00\x00\x00'
tRp148
sg42
g43
sg46
g47
sg15
g72
sg22
F50.46748531574849
sg64
g101
sg62
g102
sg49
g50
sS'trials.thisN'
p149
I6
sg19
I0
sg27
g36
(g38
S'\x00\x00\x00\x00\x00\x00\x18@'
tRp150
sg52
g53
sg23
S'2'
sg18
F48.873425513505936
sg33
g34
sg51
g11
sg20
S'1'
sg65
g36
(g77
S'\x00\x00\x00\x00\x00\x00\x00\x00'
tRp151
sg44
g45
sg40
g41
sg25
F3.1270277160219848
sS'trials.thisIndex'
p152
g36
(g80
S'\x1d\x00\x00\x00'
tRp153
sg26
V5
sS'trials.thisRepN'
p154
I0
sg66
Vfilling-cabinet
p155
sg63
V../experiment_stimuli/bw_bc_bl/Nonliving_Things/Furniture/filling-cabinet_12.jpg
p156
sg21
F1.573489062837325
sS'trials.thisTrialN'
p157
I6
sa(dp158
g31
g32
sg17
F55.332411570940167
sg24
I1
sg35
g39
sg14
F55.327552516711876
sg16
g36
(g70
S'\x01\x00\x00\x00'
tRp159
sg42
g43
sg46
g47
sg15
g72
sg22
F59.557374758762307
sg64
g73
sg62
g74
sg49
g50
sS'trials.thisN'
p160
I7
sg19
I0
sg27
g36
(g38
S'\x00\x00\x00\x00\x00\x00\x1a@'
tRp161
sg52
g53
sg23
S'1'
sg18
F56.560133018181659
sg33
g34
sg51
g11
sg20
S'2'
sg65
g36
(g77
S'\x00\x00\x00\x00\x00\x00\x00\x00'
tRp162
sg44
g45
sg40
g41
sg25
F1.2729847424197942
sS'trials.thisIndex'
p163
g36
(g80
S"'\x00\x00\x00"
tRp164
sg26
V5
sS'trials.thisRepN'
p165
I0
sg66
Vhippopotamus
p166
sg63
V../experiment_stimuli/bw_bc_bl/Living_Things/Animals/hippopotamus_2.jpg
p167
sg21
F2.9766919332323596
sS'trials.thisTrialN'
p168
I7
sa(dp169
g31
g32
sg17
F62.568168199504726
sg24
I0
sg35
g39
sg14
F62.563301562564448
sg16
g36
(g70
S'\x01\x00\x00\x00'
tRp170
sg42
g43
sg46
g47
sg15
g72
sg22
F68.607089216820896
sg64
VBirds
p171
sg62
g74
sg49
g50
sS'trials.thisN'
p172
I8
sg19
I1
sg27
g36
(g38
S'\x00\x00\x00\x00\x00\x00\x1c@'
tRp173
sg52
g53
sg23
S'2'
sg18
F63.815911330049857
sg33
g34
sg51
g11
sg20
S'1'
sg65
g36
(g77
S'\x00\x00\x00\x00\x00\x00\x00\x00'
tRp174
sg44
g45
sg40
g41
sg25
F2.164934566244483
sS'trials.thisIndex'
p175
g36
(g80
S';\x00\x00\x00'
tRp176
sg26
V5
sS'trials.thisRepN'
p177
I0
sg66
Vpartridge
p178
sg63
V../experiment_stimuli/bw_bc_bl/Living_Things/Birds/partridge_10.jpg
p179
sg21
F4.7706170910969377
sS'trials.thisTrialN'
p180
I8
sa(dp181
g31
g32
sg17
F72.50999595283065
sg24
I0
sg35
g39
sg14
F72.504894638899714
sg16
g36
(g70
S'\x02\x00\x00\x00'
tRp182
sg42
g43
sg46
g47
sg15
g88
sg22
F77.075450474862009
sg64
g171
sg62
g74
sg49
g50
sS'trials.thisN'
p183
I9
sg19
I1
sg27
g36
(g38
S'\x00\x00\x00\x00\x00\x00\x18@'
tRp184
sg52
g53
sg23
S'2'
sg18
F73.74749424145557
sg33
g34
sg51
g11
sg20
S'2'
sg65
g36
(g77
S'\x00\x00\x00\x00\x00\x00\x00\x00'
tRp185
sg44
g45
sg40
g41
sg25
F1.5836638873443007
sS'trials.thisIndex'
p186
g36
(g80
S'3\x00\x00\x00'
tRp187
sg26
V5
sS'trials.thisRepN'
p188
I0
sg66
Vmagpie
p189
sg63
V../experiment_stimuli/bw_bc_bl/Living_Things/Birds/magpie_4.jpg
p190
sg21
F3.3074142117984593
sS'trials.thisTrialN'
p191
I9
sa(dp192
g31
g32
sg17
F80.396829651552252
sg24
I0
sg35
g39
sg14
F80.392048881971277
sg16
g36
(g70
S'\x02\x00\x00\x00'
tRp193
sg42
g43
sg46
g47
sg15
g72
sg22
F85.012738124118187
sg64
g101
sg62
g102
sg49
g50
sS'trials.thisN'
p194
I10
sg19
I0
sg27
g36
(g38
S'\x00\x00\x00\x00\x00\x00\x1a@'
tRp195
sg52
g53
sg23
S'2'
sg18
F81.624620447633788
sg33
g34
sg51
g11
sg20
S'1'
sg65
g36
(g77
S'\x00\x00\x00\x00\x00\x00\x00\x00'
tRp196
sg44
g45
sg40
g41
sg25
F1.6437921311007813
sS'trials.thisIndex'
p197
g36
(g80
S'/\x00\x00\x00'
tRp198
sg26
V5
sS'trials.thisRepN'
p199
I0
sg66
Vlectern
p200
sg63
V../experiment_stimuli/bw_bc_bl/Nonliving_Things/Furniture/lectern_8.jpg
p201
sg21
F3.3675510007888079
sS'trials.thisTrialN'
p202
I10
sa(dp203
g31
g32
sg17
F88.39524830901064
sg24
I1
sg35
g39
sg14
F88.38942071585916
sg16
g36
(g70
S'\x01\x00\x00\x00'
tRp204
sg42
g43
sg46
g47
sg15
g72
sg22
F92.669195362832397
sg64
g73
sg62
g74
sg49
g50
sS'trials.thisN'
p205
I11
sg19
I0
sg27
g36
(g38
S'\x00\x00\x00\x00\x00\x00 @'
tRp206
sg52
g53
sg23
S'1'
sg18
F89.622009826591238
sg33
g34
sg51
g11
sg20
S'2'
sg65
g36
(g77
S'\x00\x00\x00\x00\x00\x00\x00\x00'
tRp207
sg44
g45
sg40
g41
sg25
F1.6137258514063433
sS'trials.thisIndex'
p208
g36
(g80
S'Z\x00\x00\x00'
tRp209
sg26
V5
sS'trials.thisRepN'
p210
I0
sg66
Vturtle
p211
sg63
V../experiment_stimuli/bw_bc_bl/Living_Things/Animals/turtle_20.jpg
p212
sg21
F3.0266447705216706
sS'trials.thisTrialN'
p213
I11
sa(dp214
g31
g32
sg17
F96.02164317376446
sg24
I0
sg35
g39
sg14
F96.016008814796805
sg16
g36
(g70
S'\x02\x00\x00\x00'
tRp215
sg42
g43
sg46
g47
sg15
g88
sg22
F98.211427835631184
sg64
g73
sg62
g74
sg49
g50
sS'trials.thisN'
p216
I12
sg19
I1
sg27
g36
(g38
S'\x00\x00\x00\x00\x00\x00\x1c@'
tRp217
sg52
g53
sg23
S'3'
sg18
F97.278652457636781
sg33
g34
sg51
g11
sg20
S'2'
sg65
g36
(g77
S'\x00\x00\x00\x00\x00\x00\x00\x00'
tRp218
sg44
g45
sg40
g41
sg25
F1.794123568572104
sS'trials.thisIndex'
p219
g36
(g80
S'\x01\x00\x00\x00'
tRp220
sg26
V5
sS'trials.thisRepN'
p221
I0
sg66
Varmadillo
p222
sg63
V../experiment_stimuli/bw_bc_bl/Living_Things/Animals/armadillo_16.jpg
p223
sg21
F0.91221763484645635
sS'trials.thisTrialN'
p224
I12
sa(dp225
g31
g32
sg17
F101.74336316238623
sg24
I0
sg35
g39
sg14
F101.73844399256632
sg16
g36
(g70
S'\x02\x00\x00\x00'
tRp226
sg42
g43
sg46
g47
sg15
g88
sg22
F104.27460763335694
sg64
g171
sg62
g74
sg49
g50
sS'trials.thisN'
p227
I13
sg19
I0
sg27
g36
(g38
S'\x00\x00\x00\x00\x00\x00\x1c@'
tRp228
sg52
g53
sg23
S'2'
sg18
F102.98104921530467
sg33
g34
sg51
g11
sg20
S'1'
sg65
g36
(g77
S'\x00\x00\x00\x00\x00\x00\x00\x00'
tRp229
sg44
g45
sg40
g41
sg25
F2.4455395891563967
sS'trials.thisIndex'
p230
g36
(g80
S'O\x00\x00\x00'
tRp231
sg26
V5
sS'trials.thisRepN'
p232
I0
sg66
Vsparrow
p233
sg63
V../experiment_stimuli/bw_bc_bl/Living_Things/Birds/sparrow_26.jpg
p234
sg21
F1.272990140831098
sS'trials.thisTrialN'
p235
I13
sa(dp236
g31
g32
sg17
F108.45853905857075
sg24
I1
sg35
g39
sg14
F108.45303591573611
sg16
g36
(g70
S'\x02\x00\x00\x00'
tRp237
sg42
g43
sg46
g47
sg15
g72
sg22
F112.47243461897597
sg64
g101
sg62
g102
sg49
g50
sS'trials.thisN'
p238
I14
sg19
I0
sg27
g36
(g38
S'\x00\x00\x00\x00\x00\x00\x1e@'
tRp239
sg52
g53
sg23
S'1'
sg18
F109.68562222563196
sg33
g34
sg51
g11
sg20
S'1'
sg65
g36
(g77
S'\x00\x00\x00\x00\x00\x00\x00\x00'
tRp240
sg44
g45
sg40
g41
sg25
F2.2050095598679036
sS'trials.thisIndex'
p241
g36
(g80
S'\x0f\x00\x00\x00'
tRp242
sg26
V5
sS'trials.thisRepN'
p243
I0
sg66
Vchair
p244
sg63
V../experiment_stimuli/bw_bc_bl/Nonliving_Things/Furniture/chair_12.jpg
p245
sg21
F2.766240973258391
sS'trials.thisTrialN'
p246
I14
sa(dp247
g31
g32
sg17
F116.4152947186958
sg24
I0
sg35
g39
sg14
F116.41033580875956
sg16
g36
(g70
S'\x02\x00\x00\x00'
tRp248
sg42
g43
sg46
g47
sg15
g72
sg22
F122.08330222091172
sg64
g114
sg62
g102
sg49
g50
sS'trials.thisN'
p249
I15
sg19
I1
sg27
g36
(g38
S'\x00\x00\x00\x00\x00\x00\x18@'
tRp250
sg52
g53
sg23
S'2'
sg18
F117.65294091496617
sg33
g34
sg51
g11
sg20
S'2'
sg65
g36
(g77
S'\x00\x00\x00\x00\x00\x00\x00\x00'
tRp251
sg44
g45
sg40
g41
sg25
F1.5636130502680317
sS'trials.thisIndex'
p252
g36
(g80
S'\x1c\x00\x00\x00'
tRp253
sg26
V5
sS'trials.thisRepN'
p254
I0
sg66
Vfactory
p255
sg63
V../experiment_stimuli/bw_bc_bl/Nonliving_Things/Buildings/factory_24.jpg
p256
sg21
F4.4098121043061838
sS'trials.thisTrialN'
p257
I15
sa(dp258
g31
g32
sg17
F125.38476229598746
sg24
I1
sg35
g39
sg14
F125.37983892322518
sg16
g36
(g70
S'\x02\x00\x00\x00'
tRp259
sg42
g43
sg46
g47
sg15
g88
sg22
F129.12861033284571
sg64
g73
sg62
g74
sg49
g50
sS'trials.thisN'
p260
I16
sg19
I1
sg27
g36
(g38
S'\x00\x00\x00\x00\x00\x00\x1a@'
tRp261
sg52
g53
sg23
S'1'
sg18
F126.61241965426598
sg33
g34
sg51
g11
sg20
S'2'
sg65
g36
(g77
S'\x00\x00\x00\x00\x00\x00\x00\x00'
tRp262
sg44
g45
sg40
g41
sg25
F2.5958790035219863
sS'trials.thisIndex'
p263
g36
(g80
S'D\x00\x00\x00'
tRp264
sg26
V5
sS'trials.thisRepN'
p265
I0
sg66
Vrhino
p266
sg63
V../experiment_stimuli/bw_bc_bl/Living_Things/Animals/rhino_14.jpg
p267
sg21
F2.4956460745306686
sS'trials.thisTrialN'
p268
I16
sa(dp269
g31
g32
sg17
F133.46293875097763
sg24
I0
sg35
g39
sg14
F133.45740551094059
sg16
g36
(g70
S'\x01\x00\x00\x00'
tRp270
sg42
g43
sg46
g47
sg15
g88
sg22
F136.39445233123843
sg64
VVehicles
p271
sg62
g102
sg49
g50
sS'trials.thisN'
p272
I17
sg19
I1
sg27
g36
(g38
S'\x00\x00\x00\x00\x00\x00\x1e@'
tRp273
sg52
g53
sg23
S'2'
sg18
F134.72004769463092
sg33
g34
sg51
g11
sg20
S'1'
sg65
g36
(g77
S'\x00\x00\x00\x00\x00\x00\x00\x00'
tRp274
sg44
g45
sg40
g41
sg25
F1.3932532380567864
sS'trials.thisIndex'
p275
g36
(g80
S'@\x00\x00\x00'
tRp276
sg26
V5
sS'trials.thisRepN'
p277
I0
sg66
Vplane
p278
sg63
V../experiment_stimuli/bw_bc_bl/Nonliving_Things/Vehicles/plane_24.jpg
p279
sg21
F1.653834197903052
sS'trials.thisTrialN'
p280
I17
sa(dp281
g31
g32
sg17
F139.52665722114034
sg24
I0
sg35
g39
sg14
F139.52057757542934
sg16
g36
(g70
S'\x01\x00\x00\x00'
tRp282
sg42
g43
sg46
g47
sg15
g72
sg22
F141.50553432828747
sg64
g171
sg62
g74
sg49
g50
sS'trials.thisN'
p283
I18
sg19
I1
sg27
g36
(g38
S'\x00\x00\x00\x00\x00\x00\x1a@'
tRp284
sg52
g53
sg23
S'2'
sg18
F140.77320959069766
sg33
g34
sg51
g11
sg20
S'1'
sg65
g36
(g77
S'\x00\x00\x00\x00\x00\x00\x00\x00'
tRp285
sg44
g45
sg40
g41
sg25
F2.0947943979408592
sS'trials.thisIndex'
p286
g36
(g80
S'&\x00\x00\x00'
tRp287
sg26
V5
sS'trials.thisRepN'
p288
I0
sg66
Vhen
p289
sg63
V../experiment_stimuli/bw_bc_bl/Living_Things/Birds/hen_23.jpg
p290
sg21
F0.71177316328976303
sS'trials.thisTrialN'
p291
I18
sa(dp292
g31
g32
sg17
F145.33798335504252
sg24
I1
sg35
g39
sg14
F145.33321302139666
sg16
g36
(g70
S'\x01\x00\x00\x00'
tRp293
sg42
g43
sg46
g47
sg15
g88
sg22
F151.09640837088227
sg64
VKitchen_Uten
p294
sg62
g102
sg49
g50
sS'trials.thisN'
p295
I19
sg19
I1
sg27
g36
(g38
S'\x00\x00\x00\x00\x00\x00\x18@'
tRp296
sg52
g53
sg23
S'1'
sg18
F146.57581896218471
sg33
g34
sg51
g11
sg20
S'1'
sg65
g36
(g77
S'\x00\x00\x00\x00\x00\x00\x00\x00'
tRp297
sg44
g45
sg40
g41
sg25
F1.6137176185147837
sS'trials.thisIndex'
p298
g36
(g80
S'G\x00\x00\x00'
tRp299
sg26
V5
sS'trials.thisRepN'
p300
I0
sg66
Vsaucepan
p301
sg63
V../experiment_stimuli/bw_bc_bl/Nonliving_Things/Kitchen_Uten/saucepan_22.jpg
p302
sg21
F4.5000321166589856
sS'trials.thisTrialN'
p303
I19
sa(dp304
g31
g32
sg17
F154.44792901852634
sg24
I0
sg35
g39
sg14
F154.44302357395645
sg16
g36
(g70
S'\x02\x00\x00\x00'
tRp305
sg42
g43
sg46
g47
sg15
g72
sg22
F157.33005533623509
sg64
g114
sg62
g102
sg49
g50
sS'trials.thisN'
p306
I20
sg19
I1
sg27
g36
(g38
S'\x00\x00\x00\x00\x00\x00\x18@'
tRp307
sg52
g53
sg23
S'3'
sg18
F155.71568911802024
sg33
g34
sg51
g11
sg20
S'2'
sg65
g36
(g77
S'\x00\x00\x00\x00\x00\x00\x00\x00'
tRp308
sg44
g45
sg40
g41
sg25
F1.6237472832435742
sS'trials.thisIndex'
p309
g36
(g80
S'#\x00\x00\x00'
tRp310
sg26
V5
sS'trials.thisRepN'
p311
I0
sg66
Vgranary
p312
sg63
V../experiment_stimuli/bw_bc_bl/Nonliving_Things/Buildings/granary_23.jpg
p313
sg21
F1.5938050199765712
sS'trials.thisTrialN'
p314
I20
sa(dp315
g31
g32
sg17
F160.69219174527097
sg24
I0
sg35
g39
sg14
F160.68659839709289
sg16
g36
(g70
S'\x02\x00\x00\x00'
tRp316
sg42
g43
sg46
g47
sg15
g72
sg22
F164.33516383194365
sg64
VTools
p317
sg62
g102
sg49
g50
sS'trials.thisN'
p318
I21
sg19
I1
sg27
g36
(g38
S'\x00\x00\x00\x00\x00\x00\x18@'
tRp319
sg52
g53
sg23
S'3'
sg18
F161.93922243872657
sg33
g34
sg51
g11
sg20
S'2'
sg65
g36
(g77
S'\x00\x00\x00\x00\x00\x00\x00\x00'
tRp320
sg44
g45
sg40
g41
sg25
F5.3719001264544204
sS'trials.thisIndex'
p321
g36
(g80
S'\x03\x00\x00\x00'
tRp322
sg26
V5
sS'trials.thisRepN'
p323
I0
sg66
Vaxe
p324
sg63
V../experiment_stimuli/bw_bc_bl/Nonliving_Things/Tools/axe_4.jpg
p325
sg21
F2.3753938679583371
sS'trials.thisTrialN'
p326
I21
sa(dp327
g31
g32
sg17
F171.44481297337916
sg24
I1
sg35
g39
sg14
F171.43997283966746
sg16
g36
(g70
S'\x01\x00\x00\x00'
tRp328
sg42
g43
sg46
g47
sg15
g72
sg22
F178.98706210730597
sg64
g171
sg62
g74
sg49
g50
sS'trials.thisN'
p329
I22
sg19
I1
sg27
g36
(g38
S'\x00\x00\x00\x00\x00\x00\x1e@'
tRp330
sg52
g53
sg23
S'1'
sg18
F172.67255251808092
sg33
g34
sg51
g11
sg20
S'1'
sg65
g36
(g77
S'\x00\x00\x00\x00\x00\x00\x00\x00'
tRp331
sg44
g45
sg40
g41
sg25
F1.2529593489598483
sS'trials.thisIndex'
p332
g36
(g80
S'"\x00\x00\x00'
tRp333
sg26
V5
sS'trials.thisRepN'
p334
I0
sg66
Vgoose
p335
sg63
V../experiment_stimuli/bw_bc_bl/Living_Things/Birds/goose_25.jpg
p336
sg21
F6.2939457222819328
sS'trials.thisTrialN'
p337
I22
sa(dp338
g31
g32
sg17
F181.97771196439862
sg24
I0
sg35
g39
sg14
F181.97286631236784
sg16
g36
(g70
S'\x02\x00\x00\x00'
tRp339
sg42
g43
sg46
g47
sg15
g72
sg22
F183.86764368007425
sg64
g294
sg62
g102
sg49
g50
sS'trials.thisN'
p340
I23
sg19
I1
sg27
g36
(g38
S'\x00\x00\x00\x00\x00\x00\x1e@'
tRp341
sg52
g53
sg23
S'3'
sg18
F183.21547423419543
sg33
g34
sg51
g11
sg20
S'2'
sg65
g36
(g77
S'\x00\x00\x00\x00\x00\x00\x00\x00'
tRp342
sg44
g45
sg40
g41
sg25
F1.2730071295518428
sS'trials.thisIndex'
p343
g36
(g80
S'\x1f\x00\x00\x00'
tRp344
sg26
V5
sS'trials.thisRepN'
p345
I0
sg66
Vfrying-pan
p346
sg63
V../experiment_stimuli/bw_bc_bl/Nonliving_Things/Kitchen_Uten/frying-pan_14.jpg
p347
sg21
F0.63160983414854854
sS'trials.thisTrialN'
p348
I23
sa(dp349
g31
g32
sg17
F186.87836932844948
sg24
I1
sg35
g39
sg14
F186.87352465384174
sg16
g36
(g70
S'\x01\x00\x00\x00'
tRp350
sg42
g43
sg46
g47
sg15
g72
sg22
F190.46201156196184
sg64
g171
sg62
g74
sg49
g50
sS'trials.thisN'
p351
I24
sg19
I0
sg27
g36
(g38
S'\x00\x00\x00\x00\x00\x00\x1a@'
tRp352
sg52
g53
sg23
S'1'
sg18
F188.10610614030156
sg33
g34
sg51
g11
sg20
S'2'
sg65
g36
(g77
S'\x00\x00\x00\x00\x00\x00\x00\x00'
tRp353
sg44
g45
sg40
g41
sg25
F1.1527385511435568
sS'trials.thisIndex'
p354
g36
(g80
S'\x1a\x00\x00\x00'
tRp355
sg26
V5
sS'trials.thisRepN'
p356
I0
sg66
Vduck
p357
sg63
V../experiment_stimuli/bw_bc_bl/Living_Things/Birds/duck_5.jpg
p358
sg21
F2.3353010024875402
sS'trials.thisTrialN'
p359
I24
sa(dp360
g31
g32
sg17
F193.35318627592642
sg24
I0
sg35
g39
sg14
F193.34759911568835
sg16
g36
(g70
S'\x01\x00\x00\x00'
tRp361
sg42
g43
sg46
g47
sg15
g88
sg22
F195.74343712697737
sg64
g317
sg62
g102
sg49
g50
sS'trials.thisN'
p362
I25
sg19
I1
sg27
g36
(g38
S'\x00\x00\x00\x00\x00\x00\x1a@'
tRp363
sg52
g53
sg23
S'2'
sg18
F194.600228303927
sg33
g34
sg51
g11
sg20
S'1'
sg65
g36
(g77
S'\x00\x00\x00\x00\x00\x00\x00\x00'
tRp364
sg44
g45
sg40
g41
sg25
F1.6037032996537164
sS'trials.thisIndex'
p365
g36
(g80
S'%\x00\x00\x00'
tRp366
sg26
V5
sS'trials.thisRepN'
p367
I0
sg66
Vhammer
p368
sg63
V../experiment_stimuli/bw_bc_bl/Nonliving_Things/Tools/hammer_7.jpg
p369
sg21
F1.1226659594103694
sS'trials.thisTrialN'
p370
I25
sa(dp371
g31
g32
sg17
F199.08533439342864
sg24
I0
sg35
g39
sg14
F199.08006049180403
sg16
g36
(g70
S'\x02\x00\x00\x00'
tRp372
sg42
g43
sg46
g47
sg15
g88
sg22
F201.22536237689201
sg64
g171
sg62
g74
sg49
g50
sS'trials.thisN'
p373
I26
sg19
I1
sg27
g36
(g38
S'\x00\x00\x00\x00\x00\x00\x18@'
tRp374
sg52
g53
sg23
S'3'
sg18
F200.3226667259587
sg33
g34
sg51
g11
sg20
S'2'
sg65
g36
(g77
S'\x00\x00\x00\x00\x00\x00\x00\x00'
tRp375
sg44
g45
sg40
g41
sg25
F1.6538385626627132
sS'trials.thisIndex'
p376
g36
(g80
S'!\x00\x00\x00'
tRp377
sg26
V5
sS'trials.thisRepN'
p378
I0
sg66
Vgoldfinch
p379
sg63
V../experiment_stimuli/bw_bc_bl/Living_Things/Birds/goldfinch_19.jpg
p380
sg21
F0.87212379195261747
sS'trials.thisTrialN'
p381
I26
sa(dp382
g31
g32
sg17
F204.61781137436628
sg24
I1
sg35
g39
sg14
F204.61208711448126
sg16
g36
(g70
S'\x02\x00\x00\x00'
tRp383
sg42
g43
sg46
g47
sg15
g72
sg22
F207.01795757957734
sg64
VMusical_Inst
p384
sg62
g102
sg49
g50
sS'trials.thisN'
p385
I27
sg19
I1
sg27
g36
(g38
S'\x00\x00\x00\x00\x00\x00\x18@'
tRp386
sg52
g53
sg23
S'1'
sg18
F205.84467236418277
sg33
g34
sg51
g11
sg20
S'2'
sg65
g36
(g77
S'\x00\x00\x00\x00\x00\x00\x00\x00'
tRp387
sg44
g45
sg40
g41
sg25
F1.623750087688677
sS'trials.thisIndex'
p388
g36
(g80
S'X\x00\x00\x00'
tRp389
sg26
V5
sS'trials.thisRepN'
p390
I0
sg66
Vtrumpet
p391
sg63
V../experiment_stimuli/bw_bc_bl/Nonliving_Things/Musical_Inst/trumpet_22.jpg
p392
sg21
F1.1527359157335013
sS'trials.thisTrialN'
p393
I27
sa(dp394
g31
g32
sg17
F210.37945276871324
sg24
I1
sg35
g39
sg14
F210.37462440179661
sg16
g36
(g70
S'\x02\x00\x00\x00'
tRp395
sg42
g43
sg46
g47
sg15
g88
sg22
F213.10122499184217
sg64
g73
sg62
g74
sg49
g50
sS'trials.thisN'
p396
I28
sg19
I0
sg27
g36
(g38
S'\x00\x00\x00\x00\x00\x00\x18@'
tRp397
sg52
g53
sg23
S'1'
sg18
F211.61722925235517
sg33
g34
sg51
g11
sg20
S'1'
sg65
g36
(g77
S'\x00\x00\x00\x00\x00\x00\x00\x00'
tRp398
sg44
g45
sg40
g41
sg25
F5.0111161731183529
sS'trials.thisIndex'
p399
g36
(g80
S'R\x00\x00\x00'
tRp400
sg26
V5
sS'trials.thisRepN'
p401
I0
sg66
Vtapir
p402
sg63
V../experiment_stimuli/bw_bc_bl/Living_Things/Animals/tapir_3.jpg
p403
sg21
F1.4634283612249419
sS'trials.thisTrialN'
p404
I28
sa(dp405
g31
g32
sg17
F219.85016546805855
sg24
I0
sg35
g39
sg14
F219.8452063400764
sg16
g36
(g70
S'\x01\x00\x00\x00'
tRp406
sg42
g43
sg46
g47
sg15
g72
sg22
F221.77001084911171
sg64
g126
sg62
g74
sg49
g50
sS'trials.thisN'
p407
I29
sg19
I1
sg27
g36
(g38
S'\x00\x00\x00\x00\x00\x00\x1e@'
tRp408
sg52
g53
sg23
S'3'
sg18
F221.09783509233966
sg33
g34
sg51
g11
sg20
S'1'
sg65
g36
(g77
S'\x00\x00\x00\x00\x00\x00\x00\x00'
tRp409
sg44
g45
sg40
g41
sg25
F1.4032708728918806
sS'trials.thisIndex'
p410
g36
(g80
S'1\x00\x00\x00'
tRp411
sg26
V5
sS'trials.thisRepN'
p412
I0
sg66
Vlobster
p413
sg63
V../experiment_stimuli/bw_bc_bl/Living_Things/Marine_creatures/lobster_18.jpg
p414
sg21
F0.65164306235965341
sS'trials.thisTrialN'
p415
I29
sa(dp416
g31
g32
sg17
F224.91269638598897
sg24
I0
sg35
g39
sg14
F224.90620950551238
sg16
g36
(g70
S'\x02\x00\x00\x00'
tRp417
sg42
g43
sg46
g47
sg15
g88
sg22
F227.36219136614818
sg64
g73
sg62
g74
sg49
g50
sS'trials.thisN'
p418
I30
sg19
I0
sg27
g36
(g38
S'\x00\x00\x00\x00\x00\x00\x18@'
tRp419
sg52
g53
sg23
S'2'
sg18
F226.13879074773286
sg33
g34
sg51
g11
sg20
S'1'
sg65
g36
(g77
S'\x00\x00\x00\x00\x00\x00\x00\x00'
tRp420
sg44
g45
sg40
g41
sg25
F2.8063199445605278
sS'trials.thisIndex'
p421
g36
(g80
S'_\x00\x00\x00'
tRp422
sg26
V5
sS'trials.thisRepN'
p423
I0
sg66
Vzebra
p424
sg63
V../experiment_stimuli/bw_bc_bl/Living_Things/Animals/zebra_8.jpg
p425
sg21
F1.2028385590529069
sS'trials.thisTrialN'
p426
I30
sa(dp427
g31
g32
sg17
F231.90787302795798
sg24
I1
sg35
g39
sg14
F231.90141382731963
sg16
g36
(g70
S'\x01\x00\x00\x00'
tRp428
sg42
g43
sg46
g47
sg15
g88
sg22
F234.25717539386824
sg64
g271
sg62
g102
sg49
g50
sS'trials.thisN'
p429
I31
sg19
I1
sg27
g36
(g38
S'\x00\x00\x00\x00\x00\x00\x1c@'
tRp430
sg52
g53
sg23
S'1'
sg18
F233.13399540039245
sg33
g34
sg51
g11
sg20
S'1'
sg65
g36
(g77
S'\x00\x00\x00\x00\x00\x00\x00\x00'
tRp431
sg44
g45
sg40
g41
sg25
F1.182789575541392
sS'trials.thisIndex'
p432
g36
(g80
S'\x0b\x00\x00\x00'
tRp433
sg26
V5
sS'trials.thisRepN'
p434
I0
sg66
Vcar
p435
sg63
V../experiment_stimuli/bw_bc_bl/Nonliving_Things/Vehicles/car_11.jpg
p436
sg21
F1.1026242087827995
sS'trials.thisTrialN'
p437
I31
sa(dp438
g31
g32
sg17
F237.17772114218678
sg24
I0
sg35
g39
sg14
F237.17287729436066
sg16
g36
(g70
S'\x02\x00\x00\x00'
tRp439
sg42
g43
sg46
g47
sg15
g72
sg22
F240.6410426289076
sg64
g294
sg62
g102
sg49
g50
sS'trials.thisN'
p440
I32
sg19
I1
sg27
g36
(g38
S'\x00\x00\x00\x00\x00\x00\x18@'
tRp441
sg52
g53
sg23
S'2'
sg18
F238.41548457345925
sg33
g34
sg51
g11
sg20
S'2'
sg65
g36
(g77
S'\x00\x00\x00\x00\x00\x00\x00\x00'
tRp442
sg44
g45
sg40
g41
sg25
F1.1427028037142009
sS'trials.thisIndex'
p443
g36
(g80
S'S\x00\x00\x00'
tRp444
sg26
V5
sS'trials.thisRepN'
p445
I0
sg66
Vteapot
p446
sg63
V../experiment_stimuli/bw_bc_bl/Nonliving_Things/Kitchen_Uten/teapot_24.jpg
p447
sg21
F2.2050171988084912
sS'trials.thisTrialN'
p448
I32
sa(dp449
g31
g32
sg17
F243.5217905221507
sg24
I0
sg35
g39
sg14
F243.51666727266274
sg16
g36
(g70
S'\x02\x00\x00\x00'
tRp450
sg42
g43
sg46
g47
sg15
g88
sg22
F246.47372747189365
sg64
g73
sg62
g74
sg49
g50
sS'trials.thisN'
p451
I33
sg19
I1
sg27
g36
(g38
S'\x00\x00\x00\x00\x00\x00\x18@'
tRp452
sg52
g53
sg23
S'2'
sg18
F244.74925037566572
sg33
g34
sg51
g11
sg20
S'2'
sg65
g36
(g77
S'\x00\x00\x00\x00\x00\x00\x00\x00'
tRp453
sg44
g45
sg40
g41
sg25
F1.5435792208882049
sS'trials.thisIndex'
p454
g36
(g80
S'2\x00\x00\x00'
tRp455
sg26
V5
sS'trials.thisRepN'
p456
I0
sg66
Vlynx
p457
sg63
V../experiment_stimuli/bw_bc_bl/Living_Things/Animals/lynx_0.jpg
p458
sg21
F1.7039303299970925
sS'trials.thisTrialN'
p459
I33
sa(dp460
g31
g32
sg17
F249.75516763061751
sg24
I1
sg35
g39
sg14
F249.75021831446793
sg16
g36
(g70
S'\x02\x00\x00\x00'
tRp461
sg42
g43
sg46
g47
sg15
g88
sg22
F252.82755547156557
sg64
g89
sg62
g74
sg49
g50
sS'trials.thisN'
p462
I34
sg19
I1
sg27
g36
(g38
S'\x00\x00\x00\x00\x00\x00\x18@'
tRp463
sg52
g53
sg23
S'1'
sg18
F250.98280347767286
sg33
g34
sg51
g11
sg20
S'2'
sg65
g36
(g77
S'\x00\x00\x00\x00\x00\x00\x00\x00'
tRp464
sg44
g45
sg40
g41
sg25
F0.86209380382206291
sS'trials.thisIndex'
p465
g36
(g80
S'-\x00\x00\x00'
tRp466
sg26
V5
sS'trials.thisRepN'
p467
I0
sg66
Vladybird
p468
sg63
V../experiment_stimuli/bw_bc_bl/Living_Things/Insects/ladybird_23.jpg
p469
sg21
F1.8241903861053288
sS'trials.thisTrialN'
p470
I34
sa(dp471
g31
g32
sg17
F255.42840443749446
sg24
I0
sg35
g39
sg14
F255.42254974332172
sg16
g36
(g70
S'\x02\x00\x00\x00'
tRp472
sg42
g43
sg46
g47
sg15
g88
sg22
F259.61229220998939
sg64
g126
sg62
g74
sg49
g50
sS'trials.thisN'
p473
I35
sg19
I1
sg27
g36
(g38
S'\x00\x00\x00\x00\x00\x00\x1e@'
tRp474
sg52
g53
sg23
S'2'
sg18
F256.66515896632336
sg33
g34
sg51
g11
sg20
S'2'
sg65
g36
(g77
S'\x00\x00\x00\x00\x00\x00\x00\x00'
tRp475
sg44
g45
sg40
g41
sg25
F2.1248386743245646
sS'trials.thisIndex'
p476
g36
(g80
S'^\x00\x00\x00'
tRp477
sg26
V5
sS'trials.thisRepN'
p478
I0
sg66
Vwhale
p479
sg63
V../experiment_stimuli/bw_bc_bl/Living_Things/Marine_creatures/whale_12.jpg
p480
sg21
F2.9265920642064884
sS'trials.thisTrialN'
p481
I35
sa(dp482
g31
g32
sg17
F263.47498474712484
sg24
I1
sg35
g39
sg14
F263.4700501866173
sg16
g36
(g70
S'\x02\x00\x00\x00'
tRp483
sg42
g43
sg46
g47
sg15
g72
sg22
F265.87590403936338
sg64
g384
sg62
g102
sg49
g50
sS'trials.thisN'
p484
I36
sg19
I1
sg27
g36
(g38
S'\x00\x00\x00\x00\x00\x00\x18@'
tRp485
sg52
g53
sg23
S'1'
sg18
F264.70262818434276
sg33
g34
sg51
g11
sg20
S'2'
sg65
g36
(g77
S'\x00\x00\x00\x00\x00\x00\x00\x00'
tRp486
sg44
g45
sg40
g41
sg25
F1.0926057547330856
sS'trials.thisIndex'
p487
g36
(g80
S'H\x00\x00\x00'
tRp488
sg26
V5
sS'trials.thisRepN'
p489
I0
sg66
Vsaxophone
p490
sg63
V../experiment_stimuli/bw_bc_bl/Nonliving_Things/Musical_Inst/saxophone_17.jpg
p491
sg21
F1.1527314987033606
sS'trials.thisTrialN'
p492
I36
sa(dp493
g31
g32
sg17
F268.70621740329079
sg24
I0
sg35
g39
sg14
F268.70142177667003
sg16
g36
(g70
S'\x01\x00\x00\x00'
tRp494
sg42
g43
sg46
g47
sg15
g72
sg22
F270.93731599941384
sg64
g126
sg62
g74
sg49
g50
sS'trials.thisN'
p495
I37
sg19
I1
sg27
g36
(g38
S'\x00\x00\x00\x00\x00\x00\x1e@'
tRp496
sg52
g53
sg23
S'3'
sg18
F269.96406232134905
sg33
g34
sg51
g11
sg20
S'1'
sg65
g36
(g77
S'\x00\x00\x00\x00\x00\x00\x00\x00'
tRp497
sg44
g45
sg40
g41
sg25
F1.0024046930484474
sS'trials.thisIndex'
p498
g36
(g80
S'+\x00\x00\x00'
tRp499
sg26
V5
sS'trials.thisRepN'
p500
I0
sg66
Vkiller-whale
p501
sg63
V../experiment_stimuli/bw_bc_bl/Living_Things/Marine_creatures/killer-whale_25.jpg
p502
sg21
F0.95269037852995098
sS'trials.thisTrialN'
p503
I37
sa(dp504
g31
g32
sg17
F273.6779128361959
sg24
I0
sg35
g39
sg14
F273.67222557973582
sg16
g36
(g70
S'\x02\x00\x00\x00'
tRp505
sg42
g43
sg46
g47
sg15
g72
sg22
F282.72255467204377
sg64
g294
sg62
g102
sg49
g50
sS'trials.thisN'
p506
I38
sg19
I0
sg27
g36
(g38
S'\x00\x00\x00\x00\x00\x00\x18@'
tRp507
sg52
g53
sg23
S'2'
sg18
F274.91483393008821
sg33
g34
sg51
g11
sg20
S'1'
sg65
g36
(g77
S'\x00\x00\x00\x00\x00\x00\x00\x00'
tRp508
sg44
g45
sg40
g41
sg25
F1.1326843721326441
sS'trials.thisIndex'
p509
g36
(g80
S'\x12\x00\x00\x00'
tRp510
sg26
V5
sS'trials.thisRepN'
p511
I0
sg66
Vcoking-pot
p512
sg63
V../experiment_stimuli/bw_bc_bl/Nonliving_Things/Kitchen_Uten/coking-pot_18.jpg
p513
sg21
F7.7871558860642835
sS'trials.thisTrialN'
p514
I38
sa(dp515
g31
g32
sg17
F285.59392707201187
sg24
I1
sg35
g39
sg14
F285.58814490307122
sg16
g36
(g70
S'\x01\x00\x00\x00'
tRp516
sg42
g43
sg46
g47
sg15
g72
sg22
F288.36482145625632
sg64
g171
sg62
g74
sg49
g50
sS'trials.thisN'
p517
I39
sg19
I0
sg27
g36
(g38
S'\x00\x00\x00\x00\x00\x00\x1a@'
tRp518
sg52
g53
sg23
S'1'
sg18
F286.82071645744145
sg33
g34
sg51
g11
sg20
S'2'
sg65
g36
(g77
S'\x00\x00\x00\x00\x00\x00\x00\x00'
tRp519
sg44
g45
sg40
g41
sg25
F0.85207277804147452
sS'trials.thisIndex'
p520
g36
(g80
S'=\x00\x00\x00'
tRp521
sg26
V5
sS'trials.thisRepN'
p522
I0
sg66
Vpenguin
p523
sg63
V../experiment_stimuli/bw_bc_bl/Living_Things/Birds/penguin_14.jpg
p524
sg21
F1.5235369513975456
sS'trials.thisTrialN'
p525
I39
sa(dp526
g31
g32
sg17
F290.95467172656208
sg24
I0
sg35
g39
sg14
F290.94978859345429
sg16
g36
(g70
S'\x02\x00\x00\x00'
tRp527
sg42
g43
sg46
g47
sg15
g72
sg22
F293.95698247721884
sg64
g114
sg62
g102
sg49
g50
sS'trials.thisN'
p528
I40
sg19
I0
sg27
g36
(g38
S'\x00\x00\x00\x00\x00\x00\x18@'
tRp529
sg52
g53
sg23
S'2'
sg18
F292.20241099235136
sg33
g34
sg51
g11
sg20
S'1'
sg65
g36
(g77
S'\x00\x00\x00\x00\x00\x00\x00\x00'
tRp530
sg44
g45
sg40
g41
sg25
F1.5536161934724078
sS'trials.thisIndex'
p531
g36
(g80
S'5\x00\x00\x00'
tRp532
sg26
V5
sS'trials.thisRepN'
p533
I0
sg66
Vmill
p534
sg63
V../experiment_stimuli/bw_bc_bl/Nonliving_Things/Buildings/mill_14.jpg
p535
sg21
F1.7339924448169768
sS'trials.thisTrialN'
p536
I40
sa(dp537
g31
g32
sg17
F297.24924719124101
sg24
I1
sg35
g39
sg14
F297.24347756360658
sg16
g36
(g70
S'\x01\x00\x00\x00'
tRp538
sg42
g43
sg46
g47
sg15
g72
sg22
F300.44107024290133
sg64
g73
sg62
g74
sg49
g50
sS'trials.thisN'
p539
I41
sg19
I0
sg27
g36
(g38
S'\x00\x00\x00\x00\x00\x00\x18@'
tRp540
sg52
g53
sg23
S'1'
sg18
F298.48607256473042
sg33
g34
sg51
g11
sg20
S'2'
sg65
g36
(g77
S'\x00\x00\x00\x00\x00\x00\x00\x00'
tRp541
sg44
g45
sg40
g41
sg25
F1.4133172367000952
sS'trials.thisIndex'
p542
g36
(g80
S'\x1b\x00\x00\x00'
tRp543
sg26
V5
sS'trials.thisRepN'
p544
I0
sg66
Velephant
p545
sg63
V../experiment_stimuli/bw_bc_bl/Living_Things/Animals/elephant_0.jpg
p546
sg21
F1.9344328523147851
sS'trials.thisTrialN'
p547
I41
sa(dp548
g31
g32
sg17
F303.59301867359318
sg24
I0
sg35
g39
sg14
F303.5872720265761
sg16
g36
(g70
S'\x01\x00\x00\x00'
tRp549
sg42
g43
sg46
g47
sg15
g88
sg22
F305.64238440268673
sg64
g101
sg62
g102
sg49
g50
sS'trials.thisN'
p550
I42
sg19
I1
sg27
g36
(g38
S'\x00\x00\x00\x00\x00\x00\x1a@'
tRp551
sg52
g53
sg23
S'3'
sg18
F304.84990993258543
sg33
g34
sg51
g11
sg20
S'1'
sg65
g36
(g77
S'\x00\x00\x00\x00\x00\x00\x00\x00'
tRp552
sg44
g45
sg40
g41
sg25
F0.76188466360326856
sS'trials.thisIndex'
p553
g36
(g80
S'\x05\x00\x00\x00'
tRp554
sg26
V5
sS'trials.thisRepN'
p555
I0
sg66
Vbed
p556
sg63
V../experiment_stimuli/bw_bc_bl/Nonliving_Things/Furniture/bed_1.jpg
p557
sg21
F0.77190572710242122
sS'trials.thisTrialN'
p558
I42
sa(dp559
g31
g32
sg17
F308.14193089469336
sg24
I0
sg35
g39
sg14
F308.13714521133807
sg16
g36
(g70
S'\x01\x00\x00\x00'
tRp560
sg42
g43
sg46
g47
sg15
g88
sg22
F310.28244675812311
sg64
g101
sg62
g102
sg49
g50
sS'trials.thisN'
p561
I43
sg19
I1
sg27
g36
(g38
S'\x00\x00\x00\x00\x00\x00\x1a@'
tRp562
sg52
g53
sg23
S'3'
sg18
F309.37975693051703
sg33
g34
sg51
g11
sg20
S'1'
sg65
g36
(g77
S'\x00\x00\x00\x00\x00\x00\x00\x00'
tRp563
sg44
g45
sg40
g41
sg25
F0.87213883688673377
sS'trials.thisIndex'
p564
g36
(g80
S']\x00\x00\x00'
tRp565
sg26
V5
sS'trials.thisRepN'
p566
I0
sg66
Vwardrobe
p567
sg63
V../experiment_stimuli/bw_bc_bl/Nonliving_Things/Furniture/wardrobe_22.jpg
p568
sg21
F0.88214205810800195
sS'trials.thisTrialN'
p569
I43
sa(dp570
g31
g32
sg17
F312.89331657695584
sg24
I0
sg35
g39
sg14
F312.88747799140401
sg16
g36
(g70
S'\x02\x00\x00\x00'
tRp571
sg42
g43
sg46
g47
sg15
g72
sg22
F318.0193047253415
sg64
g384
sg62
g102
sg49
g50
sS'trials.thisN'
p572
I44
sg19
I1
sg27
g36
(g38
S'\x00\x00\x00\x00\x00\x00\x18@'
tRp573
sg52
g53
sg23
S'2'
sg18
F314.12007444398478
sg33
g34
sg51
g11
sg20
S'2'
sg65
g36
(g77
S'\x00\x00\x00\x00\x00\x00\x00\x00'
tRp574
sg44
g45
sg40
g41
sg25
F1.2729907688917592
sS'trials.thisIndex'
p575
g36
(g80
S'\\\x00\x00\x00'
tRp576
sg26
V5
sS'trials.thisRepN'
p577
I0
sg66
Vviolin
p578
sg63
V../experiment_stimuli/bw_bc_bl/Nonliving_Things/Musical_Inst/violin_1.jpg
p579
sg21
F3.8786684175720438
sS'trials.thisTrialN'
p580
I44
sa(dp581
g31
g32
sg17
F321.03203507082071
sg24
I1
sg35
g39
sg14
F321.02517436456401
sg16
g36
(g70
S'\x02\x00\x00\x00'
tRp582
sg42
g43
sg46
g47
sg15
g72
sg22
F323.2205945168389
sg64
g294
sg62
g102
sg49
g50
sS'trials.thisN'
p583
I45
sg19
I0
sg27
g36
(g38
S'\x00\x00\x00\x00\x00\x00\x18@'
tRp584
sg52
g53
sg23
S'1'
sg18
F322.25775714823976
sg33
g34
sg51
g11
sg20
S'1'
sg65
g36
(g77
S'\x00\x00\x00\x00\x00\x00\x00\x00'
tRp585
sg44
g45
sg40
g41
sg25
F0.62158173345960677
sS'trials.thisIndex'
p586
g36
(g80
S'\x1e\x00\x00\x00'
tRp587
sg26
V5
sS'trials.thisRepN'
p588
I0
sg66
Vfondue
p589
sg63
V../experiment_stimuli/bw_bc_bl/Nonliving_Things/Kitchen_Uten/fondue_18.jpg
p590
sg21
F0.94227465917356312
sS'trials.thisTrialN'
p591
I45
sa(dp592
g31
g32
sg17
F325.57994675729424
sg24
I0
sg35
g39
sg14
F325.57505935360678
sg16
g36
(g70
S'\x02\x00\x00\x00'
tRp593
sg42
g43
sg46
g47
sg15
g88
sg22
F328.23169717122801
sg64
g126
sg62
g74
sg49
g50
sS'trials.thisN'
p594
I46
sg19
I0
sg27
g36
(g38
S'\x00\x00\x00\x00\x00\x00\x1e@'
tRp595
sg52
g53
sg23
S'3'
sg18
F326.8276919479249
sg33
g34
sg51
g11
sg20
S'1'
sg65
g36
(g77
S'\x00\x00\x00\x00\x00\x00\x00\x00'
tRp596
sg44
g45
sg40
g41
sg25
F1.3732064352370799
sS'trials.thisIndex'
p597
g36
(g80
S'A\x00\x00\x00'
tRp598
sg26
V5
sS'trials.thisRepN'
p599
I0
sg66
Vpomfret
p600
sg63
V../experiment_stimuli/bw_bc_bl/Living_Things/Marine_creatures/pomfret_1.jpg
p601
sg21
F1.383444931358099
sS'trials.thisTrialN'
p602
I46
sa(dp603
g31
g32
sg17
F331.34248617989942
sg24
I1
sg35
g39
sg14
F331.33759783289861
sg16
g36
(g70
S'\x01\x00\x00\x00'
tRp604
sg42
g43
sg46
g47
sg15
g88
sg22
F334.15434758691117
sg64
g271
sg62
g102
sg49
g50
sS'trials.thisN'
p605
I47
sg19
I0
sg27
g36
(g38
S'\x00\x00\x00\x00\x00\x00\x1a@'
tRp606
sg52
g53
sg23
S'1'
sg18
F332.57017060555518
sg33
g34
sg51
g11
sg20
S'2'
sg65
g36
(g77
S'\x00\x00\x00\x00\x00\x00\x00\x00'
tRp607
sg44
g45
sg40
g41
sg25
F0.61154655006248504
sS'trials.thisIndex'
p608
g36
(g80
S'L\x00\x00\x00'
tRp609
sg26
V5
sS'trials.thisRepN'
p610
I0
sg66
Vship
p611
sg63
V../experiment_stimuli/bw_bc_bl/Nonliving_Things/Vehicles/ship_13.jpg
p612
sg21
F1.5636235839920118
sS'trials.thisTrialN'
p613
I47
sa(dp614
g31
g32
sg17
F336.50479457865003
sg24
I0
sg35
g39
sg14
F336.49880995799322
sg16
g36
(g70
S'\x02\x00\x00\x00'
tRp615
sg42
g43
sg46
g47
sg15
g72
sg22
F339.1852847954724
sg64
g101
sg62
g102
sg49
g50
sS'trials.thisN'
p616
I48
sg19
I1
sg27
g36
(g38
S'\x00\x00\x00\x00\x00\x00\x1e@'
tRp617
sg52
g53
sg23
S'3'
sg18
F337.75144442042802
sg33
g34
sg51
g11
sg20
S'2'
sg65
g36
(g77
S'\x00\x00\x00\x00\x00\x00\x00\x00'
tRp618
sg44
g45
sg40
g41
sg25
F0.87211609643418342
sS'trials.thisIndex'
p619
g36
(g80
S'N\x00\x00\x00'
tRp620
sg26
V5
sS'trials.thisRepN'
p621
I0
sg66
Vsofa
p622
sg63
V../experiment_stimuli/bw_bc_bl/Nonliving_Things/Furniture/sofa_6.jpg
p623
sg21
F1.4133055337006226
sS'trials.thisTrialN'
p624
I48
sa(dp625
g31
g32
sg17
F341.79629626253154
sg24
I1
sg35
g39
sg14
F341.7903375136666
sg16
g36
(g70
S'\x02\x00\x00\x00'
tRp626
sg42
g43
sg46
g47
sg15
g88
sg22
F344.71732010971755
sg64
g73
sg62
g74
sg49
g50
sS'trials.thisN'
p627
I49
sg19
I0
sg27
g36
(g38
S'\x00\x00\x00\x00\x00\x00\x1a@'
tRp628
sg52
g53
sg23
S'1'
sg18
F343.02289710566401
sg33
g34
sg51
g11
sg20
S'1'
sg65
g36
(g77
S'\x00\x00\x00\x00\x00\x00\x00\x00'
tRp629
sg44
g45
sg40
g41
sg25
F0.54139353614300489
sS'trials.thisIndex'
p630
g36
(g80
S'T\x00\x00\x00'
tRp631
sg26
V5
sS'trials.thisRepN'
p632
I0
sg66
Vtiger
p633
sg63
V../experiment_stimuli/bw_bc_bl/Living_Things/Animals/tiger_6.jpg
p634
sg21
F1.673865997698158
sS'trials.thisTrialN'
p635
I49
sa(dp636
g31
g32
sg17
F346.99649187445175
sg24
I0
sg35
g39
sg14
F346.99162433913443
sg16
g36
(g70
S'\x01\x00\x00\x00'
tRp637
sg42
g43
sg46
g47
sg15
g72
sg22
F348.96656542341225
sg64
g126
sg62
g74
sg49
g50
sS'trials.thisN'
p638
I50
sg19
I1
sg27
g36
(g38
S'\x00\x00\x00\x00\x00\x00\x1c@'
tRp639
sg52
g53
sg23
S'3'
sg18
F348.25427507166751
sg33
g34
sg51
g11
sg20
S'1'
sg65
g36
(g77
S'\x00\x00\x00\x00\x00\x00\x00\x00'
tRp640
sg44
g45
sg40
g41
sg25
F0.92220790171995759
sS'trials.thisIndex'
p641
g36
(g80
S'\x17\x00\x00\x00'
tRp642
sg26
V5
sS'trials.thisRepN'
p643
I0
sg66
Vdolphin
p644
sg63
V../experiment_stimuli/bw_bc_bl/Living_Things/Marine_creatures/dolphin_0.jpg
p645
sg21
F0.69172718760091811
sS'trials.thisTrialN'
p646
I50
sa(dp647
g31
g32
sg17
F351.62659228616394
sg24
I1
sg35
g39
sg14
F351.62168361607473
sg16
g36
(g70
S'\x01\x00\x00\x00'
tRp648
sg42
g43
sg46
g47
sg15
g88
sg22
F354.09776368876919
sg64
g114
sg62
g102
sg49
g50
sS'trials.thisN'
p649
I51
sg19
I1
sg27
g36
(g38
S'\x00\x00\x00\x00\x00\x00\x18@'
tRp650
sg52
g53
sg23
S'1'
sg18
F352.85427109501325
sg33
g34
sg51
g11
sg20
S'1'
sg65
g36
(g77
S'\x00\x00\x00\x00\x00\x00\x00\x00'
tRp651
sg44
g45
sg40
g41
sg25
F2.074731019558385
sS'trials.thisIndex'
p652
g36
(g80
S'\x0e\x00\x00\x00'
tRp653
sg26
V5
sS'trials.thisRepN'
p654
I0
sg66
Vcathedral
p655
sg63
V../experiment_stimuli/bw_bc_bl/Nonliving_Things/Buildings/cathedral_8.jpg
p656
sg21
F1.2229192603845149
sS'trials.thisTrialN'
p657
I51
sa(dp658
g31
g32
sg17
F357.91035981941968
sg24
I0
sg35
g39
sg14
F357.90535120700952
sg16
g36
(g70
S'\x02\x00\x00\x00'
tRp659
sg42
g43
sg46
g47
sg15
g72
sg22
F360.52152213430963
sg64
g294
sg62
g102
sg49
g50
sS'trials.thisN'
p660
I52
sg19
I0
sg27
g36
(g38
S'\x00\x00\x00\x00\x00\x00\x1c@'
tRp661
sg52
g53
sg23
S'2'
sg18
F359.14795552776195
sg33
g34
sg51
g11
sg20
S'1'
sg65
g36
(g77
S'\x00\x00\x00\x00\x00\x00\x00\x00'
tRp662
sg44
g45
sg40
g41
sg25
F1.3932838244363666
sS'trials.thisIndex'
p663
g36
(g80
S'B\x00\x00\x00'
tRp664
sg26
V5
sS'trials.thisRepN'
p665
I0
sg66
Vpot
p666
sg63
V../experiment_stimuli/bw_bc_bl/Nonliving_Things/Kitchen_Uten/pot_17.jpg
p667
sg21
F1.3530027543893084
sS'trials.thisTrialN'
p668
I52
sa(dp669
g31
g32
sg17
F363.65279974439181
sg24
I1
sg35
g39
sg14
F363.64783348469064
sg16
g36
(g70
S'\x01\x00\x00\x00'
tRp670
sg42
g43
sg46
g47
sg15
g72
sg22
F366.08363704034127
sg64
g126
sg62
g74
sg49
g50
sS'trials.thisN'
p671
I53
sg19
I0
sg27
g36
(g38
S'\x00\x00\x00\x00\x00\x00\x18@'
tRp672
sg52
g53
sg23
S'1'
sg18
F364.88041516311932
sg33
g34
sg51
g11
sg20
S'2'
sg65
g36
(g77
S'\x00\x00\x00\x00\x00\x00\x00\x00'
tRp673
sg44
g45
sg40
g41
sg25
F1.4331849894952029
sS'trials.thisIndex'
p674
g36
(g80
S'\x15\x00\x00\x00'
tRp675
sg26
V5
sS'trials.thisRepN'
p676
I0
sg66
Vcrab
p677
sg63
V../experiment_stimuli/bw_bc_bl/Living_Things/Marine_creatures/crab_8.jpg
p678
sg21
F1.1826401681173593
sS'trials.thisTrialN'
p679
I53
sa(dp680
g31
g32
sg17
F369.25490116793662
sg24
I0
sg35
g39
sg14
F369.25001438078471
sg16
g36
(g70
S'\x02\x00\x00\x00'
tRp681
sg42
g43
sg46
g47
sg15
g72
sg22
F371.53565698524471
sg64
g271
sg62
g102
sg49
g50
sS'trials.thisN'
p682
I54
sg19
I1
sg27
g36
(g38
S'\x00\x00\x00\x00\x00\x00\x1a@'
tRp683
sg52
g53
sg23
S'3'
sg18
F370.50264248636086
sg33
g34
sg51
g11
sg20
S'2'
sg65
g36
(g77
S'\x00\x00\x00\x00\x00\x00\x00\x00'
tRp684
sg44
g45
sg40
g41
sg25
F0.60152754303999245
sS'trials.thisIndex'
p685
g36
(g80
S'W\x00\x00\x00'
tRp686
sg26
V5
sS'trials.thisRepN'
p687
I0
sg66
Vtrain
p688
sg63
V../experiment_stimuli/bw_bc_bl/Nonliving_Things/Vehicles/train_17.jpg
p689
sg21
F1.0124345154035836
sS'trials.thisTrialN'
p690
I54
sa(dp691
g31
g32
sg17
F373.87491090816911
sg24
I1
sg35
g39
sg14
F373.8700599441072
sg16
g36
(g70
S'\x01\x00\x00\x00'
tRp692
sg42
g43
sg46
g47
sg15
g88
sg22
F376.31605583103374
sg64
g101
sg62
g102
sg49
g50
sS'trials.thisN'
p693
I55
sg19
I0
sg27
g36
(g38
S'\x00\x00\x00\x00\x00\x00\x18@'
tRp694
sg52
g53
sg23
S'1'
sg18
F375.10264352103695
sg33
g34
sg51
g11
sg20
S'2'
sg65
g36
(g77
S'\x00\x00\x00\x00\x00\x00\x00\x00'
tRp695
sg44
g45
sg40
g41
sg25
F1.2628169256495312
sS'trials.thisIndex'
p696
g36
(g80
S'\x00\x00\x00\x00'
tRp697
sg26
V5
sS'trials.thisRepN'
p698
I0
sg66
VChest-of-drawers
p699
sg63
V../experiment_stimuli/bw_bc_bl/Nonliving_Things/Furniture/Chest-of-drawers_1.jpg
p700
sg21
F1.1928168418817222
sS'trials.thisTrialN'
p701
I55
sa(dp702
g31
g32
sg17
F379.31682223884854
sg24
I0
sg35
g39
sg14
F379.31189534708392
sg16
g36
(g70
S'\x02\x00\x00\x00'
tRp703
sg42
g43
sg46
g47
sg15
g88
sg22
F381.57744867529254
sg64
g171
sg62
g74
sg49
g50
sS'trials.thisN'
p704
I56
sg19
I1
sg27
g36
(g38
S'\x00\x00\x00\x00\x00\x00\x18@'
tRp705
sg52
g53
sg23
S'3'
sg18
F380.56451676855795
sg33
g34
sg51
g11
sg20
S'2'
sg65
g36
(g77
S'\x00\x00\x00\x00\x00\x00\x00\x00'
tRp706
sg44
g45
sg40
g41
sg25
F0.85207906004507095
sS'trials.thisIndex'
p707
g36
(g80
S'9\x00\x00\x00'
tRp708
sg26
V5
sS'trials.thisRepN'
p709
I0
sg66
Vowl
p710
sg63
V../experiment_stimuli/bw_bc_bl/Living_Things/Birds/owl_15.jpg
p711
sg21
F0.99239011073950678
sS'trials.thisTrialN'
p712
I56
sa(dp713
g31
g32
sg17
F384.16737279423978
sg24
I1
sg35
g39
sg14
F384.16243544779718
sg16
g36
(g70
S'\x02\x00\x00\x00'
tRp714
sg42
g43
sg46
g47
sg15
g72
sg22
F387.05938128603157
sg64
g271
sg62
g102
sg49
g50
sS'trials.thisN'
p715
I57
sg19
I0
sg27
g36
(g38
S'\x00\x00\x00\x00\x00\x00\x1a@'
tRp716
sg52
g53
sg23
S'1'
sg18
F385.39501852076501
sg33
g34
sg51
g11
sg20
S'1'
sg65
g36
(g77
S'\x00\x00\x00\x00\x00\x00\x00\x00'
tRp717
sg44
g45
sg40
g41
sg25
F0.33094789949245751
sS'trials.thisIndex'
p718
g36
(g80
S'V\x00\x00\x00'
tRp719
sg26
V5
sS'trials.thisRepN'
p720
I0
sg66
Vtractor
p721
sg63
V../experiment_stimuli/bw_bc_bl/Nonliving_Things/Vehicles/tractor_0.jpg
p722
sg21
F1.6437998643377796
sS'trials.thisTrialN'
p723
I57
sa(dp724
g31
g32
sg17
F389.12807443714701
sg24
I0
sg35
g39
sg14
F389.12322092812974
sg16
g36
(g70
S'\x01\x00\x00\x00'
tRp725
sg42
g43
sg46
g47
sg15
g72
sg22
F391.29859318316448
sg64
g171
sg62
g74
sg49
g50
sS'trials.thisN'
p726
I58
sg19
I1
sg27
g36
(g38
S'\x00\x00\x00\x00\x00\x00\x1a@'
tRp727
sg52
g53
sg23
S'3'
sg18
F390.36582445912063
sg33
g34
sg51
g11
sg20
S'1'
sg65
g36
(g77
S'\x00\x00\x00\x00\x00\x00\x00\x00'
tRp728
sg44
g45
sg40
g41
sg25
F0.76187575038056821
sS'trials.thisIndex'
p729
g36
(g80
S'F\x00\x00\x00'
tRp730
sg26
V5
sS'trials.thisRepN'
p731
I0
sg66
Vrooster
p732
sg63
V../experiment_stimuli/bw_bc_bl/Living_Things/Birds/rooster_14.jpg
p733
sg21
F0.91221088671591133
sS'trials.thisTrialN'
p734
I58
sa(dp735
g31
g32
sg17
F393.79828381980769
sg24
I0
sg35
g39
sg14
F393.79337153676897
sg16
g36
(g70
S'\x01\x00\x00\x00'
tRp736
sg42
g43
sg46
g47
sg15
g88
sg22
F395.90861895750277
sg64
g271
sg62
g102
sg49
g50
sS'trials.thisN'
p737
I59
sg19
I1
sg27
g36
(g38
S'\x00\x00\x00\x00\x00\x00\x18@'
tRp738
sg52
g53
sg23
S'3'
sg18
F395.02595676400233
sg33
g34
sg51
g11
sg20
S'1'
sg65
g36
(g77
S'\x00\x00\x00\x00\x00\x00\x00\x00'
tRp739
sg44
g45
sg40
g41
sg25
F2.184970399714075
sS'trials.thisIndex'
p740
g36
(g80
S'\x07\x00\x00\x00'
tRp741
sg26
V5
sS'trials.thisRepN'
p742
I0
sg66
Vboat
p743
sg63
V../experiment_stimuli/bw_bc_bl/Nonliving_Things/Vehicles/boat_14.jpg
p744
sg21
F0.86210011958610266
sS'trials.thisTrialN'
p745
I59
sa(dp746
g31
g32
sg17
F399.83360771916341
sg24
I1
sg35
g39
sg14
F399.82648544176482
sg16
g36
(g70
S'\x02\x00\x00\x00'
tRp747
sg42
g43
sg46
g47
sg15
g72
sg22
F402.73344614042435
sg64
g114
sg62
g102
sg49
g50
sS'trials.thisN'
p748
I60
sg19
I0
sg27
g36
(g38
S'\x00\x00\x00\x00\x00\x00\x18@'
tRp749
sg52
g53
sg23
S'1'
sg18
F401.06910607800819
sg33
g34
sg51
g11
sg20
S'1'
sg65
g36
(g77
S'\x00\x00\x00\x00\x00\x00\x00\x00'
tRp750
sg44
g45
sg40
g41
sg25
F2.2952142644207925
sS'trials.thisIndex'
p751
g36
(g80
S':\x00\x00\x00'
tRp752
sg26
V5
sS'trials.thisRepN'
p753
I0
sg66
Vpalace
p754
sg63
V../experiment_stimuli/bw_bc_bl/Nonliving_Things/Buildings/palace_9.jpg
p755
sg21
F1.6437936463626102
sS'trials.thisTrialN'
p756
I60
sa(dp757
g31
g32
sg17
F406.7664186488837
sg24
I0
sg35
g39
sg14
F406.76156651577912
sg16
g36
(g70
S'\x01\x00\x00\x00'
tRp758
sg42
g43
sg46
g47
sg15
g88
sg22
F409.18749511113856
sg64
g384
sg62
g102
sg49
g50
sS'trials.thisN'
p759
I61
sg19
I1
sg27
g36
(g38
S'\x00\x00\x00\x00\x00\x00\x1e@'
tRp760
sg52
g53
sg23
S'3'
sg18
F408.03424781537615
sg33
g34
sg51
g11
sg20
S'1'
sg65
g36
(g77
S'\x00\x00\x00\x00\x00\x00\x00\x00'
tRp761
sg44
g45
sg40
g41
sg25
F1.2328981439350173
sS'trials.thisIndex'
p762
g36
(g80
S'$\x00\x00\x00'
tRp763
sg26
V5
sS'trials.thisRepN'
p764
I0
sg66
Vguitar
p765
sg63
V../experiment_stimuli/bw_bc_bl/Nonliving_Things/Musical_Inst/guitar_25.jpg
p766
sg21
F1.1326846278971061
sS'trials.thisTrialN'
p767
I61
sa(dp768
g31
g32
sg17
F412.1581994718872
sg24
I0
sg35
g39
sg14
F412.15328981296625
sg16
g36
(g70
S'\x01\x00\x00\x00'
tRp769
sg42
g43
sg46
g47
sg15
g72
sg22
F414.57920608157292
sg64
g171
sg62
g74
sg49
g50
sS'trials.thisN'
p770
I62
sg19
I1
sg27
g36
(g38
S'\x00\x00\x00\x00\x00\x00\x1a@'
tRp771
sg52
g53
sg23
S'3'
sg18
F413.40591520816088
sg33
g34
sg51
g11
sg20
S'1'
sg65
g36
(g77
S'\x00\x00\x00\x00\x00\x00\x00\x00'
tRp772
sg44
g45
sg40
g41
sg25
F0.95214128866791725
sS'trials.thisIndex'
p773
g36
(g80
S'?\x00\x00\x00'
tRp774
sg26
V5
sS'trials.thisRepN'
p775
I0
sg66
Vpigeon
p776
sg63
V../experiment_stimuli/bw_bc_bl/Living_Things/Birds/pigeon_23.jpg
p777
sg21
F1.1527365210931748
sS'trials.thisTrialN'
p778
I62
sa(dp779
g31
g32
sg17
F417.26925044285599
sg24
I1
sg35
g39
sg14
F417.26440005016048
sg16
g36
(g70
S'\x02\x00\x00\x00'
tRp780
sg42
g43
sg46
g47
sg15
g72
sg22
F419.35960784810595
sg64
g101
sg62
g102
sg49
g50
sS'trials.thisN'
p781
I63
sg19
I0
sg27
g36
(g38
S'\x00\x00\x00\x00\x00\x00\x1c@'
tRp782
sg52
g53
sg23
S'1'
sg18
F418.49698032252491
sg33
g34
sg51
g11
sg20
S'1'
sg65
g36
(g77
S'\x00\x00\x00\x00\x00\x00\x00\x00'
tRp783
sg44
g45
sg40
g41
sg25
F0.45119695924222469
sS'trials.thisIndex'
p784
g36
(g80
S'\x08\x00\x00\x00'
tRp785
sg26
V5
sS'trials.thisRepN'
p786
I0
sg66
Vbookcase
p787
sg63
V../experiment_stimuli/bw_bc_bl/Nonliving_Things/Furniture/bookcase_11.jpg
p788
sg21
F0.84205560607369989
sS'trials.thisTrialN'
p789
I63
sa(dp790
g31
g32
sg17
F421.54847775190137
sg24
I1
sg35
g39
sg14
F421.54370706481859
sg16
g36
(g70
S'\x01\x00\x00\x00'
tRp791
sg42
g43
sg46
g47
sg15
g72
sg22
F424.1400004948955
sg64
g171
sg62
g74
sg49
g50
sS'trials.thisN'
p792
I64
sg19
I0
sg27
g36
(g38
S'\x00\x00\x00\x00\x00\x00\x1e@'
tRp793
sg52
g53
sg23
S'1'
sg18
F422.7863153553335
sg33
g34
sg51
g11
sg20
S'2'
sg65
g36
(g77
S'\x00\x00\x00\x00\x00\x00\x00\x00'
tRp794
sg44
g45
sg40
g41
sg25
F0.35098238696809858
sS'trials.thisIndex'
p795
g36
(g80
S'\x04\x00\x00\x00'
tRp796
sg26
V5
sS'trials.thisRepN'
p797
I0
sg66
Vbarn-owl
p798
sg63
V../experiment_stimuli/bw_bc_bl/Living_Things/Birds/barn-owl_11.jpg
p799
sg21
F1.3331268173642457
sS'trials.thisTrialN'
p800
I64
sa(dp801
g31
g32
sg17
F426.22866557410453
sg24
I0
sg35
g39
sg14
F426.22389136825223
sg16
g36
(g70
S'\x01\x00\x00\x00'
tRp802
sg42
g43
sg46
g47
sg15
g72
sg22
F428.61972186085768
sg64
g126
sg62
g74
sg49
g50
sS'trials.thisN'
p803
I65
sg19
I1
sg27
g36
(g38
S'\x00\x00\x00\x00\x00\x00\x18@'
tRp804
sg52
g53
sg23
S'3'
sg18
F427.48652418411803
sg33
g34
sg51
g11
sg20
S'1'
sg65
g36
(g77
S'\x00\x00\x00\x00\x00\x00\x00\x00'
tRp805
sg44
g45
sg40
g41
sg25
F1.4732651447411627
sS'trials.thisIndex'
p806
g36
(g80
S'K\x00\x00\x00'
tRp807
sg26
V5
sS'trials.thisRepN'
p808
I0
sg66
Vshark
p809
sg63
V../experiment_stimuli/bw_bc_bl/Living_Things/Marine_creatures/shark_9.jpg
p810
sg21
F1.102624291437678
sS'trials.thisTrialN'
p811
I65
sa(dp812
g31
g32
sg17
F431.83201122435275
sg24
I0
sg35
g39
sg14
F431.82604940747842
sg16
g36
(g70
S'\x02\x00\x00\x00'
tRp813
sg42
g43
sg46
g47
sg15
g72
sg22
F434.8131875032559
sg64
g384
sg62
g102
sg49
g50
sS'trials.thisN'
p814
I66
sg19
I1
sg27
g36
(g38
S'\x00\x00\x00\x00\x00\x00 @'
tRp815
sg52
g53
sg23
S'2'
sg18
F433.05864054441918
sg33
g34
sg51
g11
sg20
S'2'
sg65
g36
(g77
S'\x00\x00\x00\x00\x00\x00\x00\x00'
tRp816
sg44
g45
sg40
g41
sg25
F0.99237851705402136
sS'trials.thisIndex'
p817
g36
(g80
S'\x19\x00\x00\x00'
tRp818
sg26
V5
sS'trials.thisRepN'
p819
I0
sg66
Vdrum
p820
sg63
V../experiment_stimuli/bw_bc_bl/Nonliving_Things/Musical_Inst/drum_2.jpg
p821
sg21
F1.7339969068998471
sS'trials.thisTrialN'
p822
I66
sa(dp823
g31
g32
sg17
F437.54327138885856
sg24
I1
sg35
g39
sg14
F437.53848258568905
sg16
g36
(g70
S'\x02\x00\x00\x00'
tRp824
sg42
g43
sg46
g47
sg15
g88
sg22
F442.1992748772027
sg64
g89
sg62
g74
sg49
g50
sS'trials.thisN'
p825
I67
sg19
I1
sg27
g36
(g38
S'\x00\x00\x00\x00\x00\x00\x18@'
tRp826
sg52
g53
sg23
S'1'
sg18
F438.78108150768094
sg33
g34
sg51
g11
sg20
S'2'
sg65
g36
(g77
S'\x00\x00\x00\x00\x00\x00\x00\x00'
tRp827
sg44
g45
sg40
g41
sg25
F3.698277004994452
sS'trials.thisIndex'
p828
g36
(g80
S'\x18\x00\x00\x00'
tRp829
sg26
V5
sS'trials.thisRepN'
p830
I0
sg66
Vdragonfly
p831
sg63
V../experiment_stimuli/bw_bc_bl/Living_Things/Insects/dragonfly_16.jpg
p832
sg21
F3.3976285287644714
sS'trials.thisTrialN'
p833
I67
sa(dp834
g31
g32
sg17
F447.63651000382379
sg24
I0
sg35
g39
sg14
F447.63041333213914
sg16
g36
(g70
S'\x02\x00\x00\x00'
tRp835
sg42
g43
sg46
g47
sg15
g88
sg22
F449.82583261968102
sg64
g171
sg62
g74
sg49
g50
sS'trials.thisN'
p836
I68
sg19
I1
sg27
g36
(g38
S'\x00\x00\x00\x00\x00\x00\x18@'
tRp837
sg52
g53
sg23
S'2'
sg18
F448.88304125331342
sg33
g34
sg51
g11
sg20
S'2'
sg65
g36
(g77
S'\x00\x00\x00\x00\x00\x00\x00\x00'
tRp838
sg44
g45
sg40
g41
sg25
F0.99239470821339637
sS'trials.thisIndex'
p839
g36
(g80
S'8\x00\x00\x00'
tRp840
sg26
V5
sS'trials.thisRepN'
p841
I0
sg66
Vostrich
p842
sg63
V../experiment_stimuli/bw_bc_bl/Living_Things/Birds/ostrich_6.jpg
p843
sg21
F0.92223637865390629
sS'trials.thisTrialN'
p844
I68
sa(dp845
g31
g32
sg17
F452.55597211001441
sg24
I1
sg35
g39
sg14
F452.55111108184792
sg16
g36
(g70
S'\x02\x00\x00\x00'
tRp846
sg42
g43
sg46
g47
sg15
g88
sg22
F454.7966324564768
sg64
g171
sg62
g74
sg49
g50
sS'trials.thisN'
p847
I69
sg19
I0
sg27
g36
(g38
S'\x00\x00\x00\x00\x00\x00\x1a@'
tRp848
sg52
g53
sg23
S'1'
sg18
F453.78370661719237
sg33
g34
sg51
g11
sg20
S'1'
sg65
g36
(g77
S'\x00\x00\x00\x00\x00\x00\x00\x00'
tRp849
sg44
g45
sg40
g41
sg25
F0.79194495896808803
sS'trials.thisIndex'
p850
g36
(g80
S'J\x00\x00\x00'
tRp851
sg26
V5
sS'trials.thisRepN'
p852
I0
sg66
Vseagull
p853
sg63
V../experiment_stimuli/bw_bc_bl/Living_Things/Birds/seagull_0.jpg
p854
sg21
F0.99238408834207803
sS'trials.thisTrialN'
p855
I69
sa(dp856
g31
g32
sg17
F457.3263132913271
sg24
I0
sg35
g39
sg14
F457.32147750374861
sg16
g36
(g70
S'\x02\x00\x00\x00'
tRp857
sg42
g43
sg46
g47
sg15
g88
sg22
F459.24629517807625
sg64
g73
sg62
g74
sg49
g50
sS'trials.thisN'
p858
I70
sg19
I1
sg27
g36
(g38
S'\x00\x00\x00\x00\x00\x00\x18@'
tRp859
sg52
g53
sg23
S'3'
sg18
F458.58414153684862
sg33
g34
sg51
g11
sg20
S'2'
sg65
g36
(g77
S'\x00\x00\x00\x00\x00\x00\x00\x00'
tRp860
sg44
g45
sg40
g41
sg25
F0.4211282996693626
sS'trials.thisIndex'
p861
g36
(g80
S'(\x00\x00\x00'
tRp862
sg26
V5
sS'trials.thisRepN'
p863
I0
sg66
Vhorse
p864
sg63
V../experiment_stimuli/bw_bc_bl/Living_Things/Animals/horse_14.jpg
p865
sg21
F0.64161140518262982
sS'trials.thisTrialN'
p866
I70
sa(dp867
g31
g32
sg17
F461.4052720888285
sg24
I0
sg35
g39
sg14
F461.40035212924704
sg16
g36
(g70
S'\x01\x00\x00\x00'
tRp868
sg42
g43
sg46
g47
sg15
g72
sg22
F463.40535719296895
sg64
g171
sg62
g74
sg49
g50
sS'trials.thisN'
p869
I71
sg19
I1
sg27
g36
(g38
S'\x00\x00\x00\x00\x00\x00\x18@'
tRp870
sg52
g53
sg23
S'3'
sg18
F462.65298061084468
sg33
g34
sg51
g11
sg20
S'1'
sg65
g36
(g77
S'\x00\x00\x00\x00\x00\x00\x00\x00'
tRp871
sg44
g45
sg40
g41
sg25
F2.0446770214475691
sS'trials.thisIndex'
p872
g36
(g80
S',\x00\x00\x00'
tRp873
sg26
V5
sS'trials.thisRepN'
p874
I0
sg66
Vkiwi
p875
sg63
V../experiment_stimuli/bw_bc_bl/Living_Things/Birds/kiwi_12.jpg
p876
sg21
F0.73181691381614655
sS'trials.thisTrialN'
p877
I71
sa(dp878
g31
g32
sg17
F467.18771047855262
sg24
I1
sg35
g39
sg14
F467.18292224279139
sg16
g36
(g70
S'\x01\x00\x00\x00'
tRp879
sg42
g43
sg46
g47
sg15
g72
sg22
F469.9395673123654
sg64
g171
sg62
g74
sg49
g50
sS'trials.thisN'
p880
I72
sg19
I0
sg27
g36
(g38
S'\x00\x00\x00\x00\x00\x00\x1a@'
tRp881
sg52
g53
sg23
S'1'
sg18
F468.41550560144242
sg33
g34
sg51
g11
sg20
S'2'
sg65
g36
(g77
S'\x00\x00\x00\x00\x00\x00\x00\x00'
tRp882
sg44
g45
sg40
g41
sg25
F0.33093671151436865
sS'trials.thisIndex'
p883
g36
(g80
S'<\x00\x00\x00'
tRp884
sg26
V5
sS'trials.thisRepN'
p885
I0
sg66
Vpelican
p886
sg63
V../experiment_stimuli/bw_bc_bl/Living_Things/Birds/pelican_6.jpg
p887
sg21
F1.4934748406521976
sS'trials.thisTrialN'
p888
I72
sa(dp889
g31
g32
sg17
F472.008217426599
sg24
I0
sg35
g39
sg14
F472.00341067591216
sg16
g36
(g70
S'\x01\x00\x00\x00'
tRp890
sg42
g43
sg46
g47
sg15
g88
sg22
F474.01828109449707
sg64
g271
sg62
g102
sg49
g50
sS'trials.thisN'
p891
I73
sg19
I1
sg27
g36
(g38
S'\x00\x00\x00\x00\x00\x00\x18@'
tRp892
sg52
g53
sg23
S'3'
sg18
F473.24600910197478
sg33
g34
sg51
g11
sg20
S'1'
sg65
g36
(g77
S'\x00\x00\x00\x00\x00\x00\x00\x00'
tRp893
sg44
g45
sg40
g41
sg25
F0.75192033662460744
sS'trials.thisIndex'
p894
g36
(g80
S'6\x00\x00\x00'
tRp895
sg26
V5
sS'trials.thisRepN'
p896
I0
sg66
Vmotorbike
p897
sg63
V../experiment_stimuli/bw_bc_bl/Nonliving_Things/Vehicles/motorbike_24.jpg
p898
sg21
F0.75170091120526195
sS'trials.thisTrialN'
p899
I73
sa(dp900
g31
g32
sg17
F476.51069342903793
sg24
I0
sg35
g39
sg14
F476.50318310840521
sg16
g36
(g70
S'\x01\x00\x00\x00'
tRp901
sg42
g43
sg46
g47
sg15
g72
sg22
F478.97923806856852
sg64
g89
sg62
g74
sg49
g50
sS'trials.thisN'
p902
I74
sg19
I0
sg27
g36
(g38
S'\x00\x00\x00\x00\x00\x00\x18@'
tRp903
sg52
g53
sg23
S'3'
sg18
F477.73577922629192
sg33
g34
sg51
g11
sg20
S'2'
sg65
g36
(g77
S'\x00\x00\x00\x00\x00\x00\x00\x00'
tRp904
sg44
g45
sg40
g41
sg25
F0.65163107367698103
sS'trials.thisIndex'
p905
g36
(g80
S'I\x00\x00\x00'
tRp906
sg26
V5
sS'trials.thisRepN'
p907
I0
sg66
Vscorpion
p908
sg63
V../experiment_stimuli/bw_bc_bl/Living_Things/Insects/scorpion_8.jpg
p909
sg21
F1.2229138580150902
sS'trials.thisTrialN'
p910
I74
sa(dp911
g31
g32
sg17
F481.36852927098516
sg24
I1
sg35
g39
sg14
F481.36375314032193
sg16
g36
(g70
S'\x02\x00\x00\x00'
tRp912
sg42
g43
sg46
g47
sg15
g72
sg22
F484.00014352612197
sg64
g101
sg62
g102
sg49
g50
sS'trials.thisN'
p913
I75
sg19
I0
sg27
g36
(g38
S'\x00\x00\x00\x00\x00\x00 @'
tRp914
sg52
g53
sg23
S'1'
sg18
F482.59634221717715
sg33
g34
sg51
g11
sg20
S'1'
sg65
g36
(g77
S'\x00\x00\x00\x00\x00\x00\x00\x00'
tRp915
sg44
g45
sg40
g41
sg25
F0.31074227509088814
sS'trials.thisIndex'
p916
g36
(g80
S'\x13\x00\x00\x00'
tRp917
sg26
V5
sS'trials.thisRepN'
p918
I0
sg66
Vcouch
p919
sg63
V../experiment_stimuli/bw_bc_bl/Nonliving_Things/Furniture/couch_22.jpg
p920
sg21
F1.3832359869265929
sS'trials.thisTrialN'
p921
I75
sa(dp922
g31
g32
sg17
F486.04871468362398
sg24
I0
sg35
g39
sg14
F486.04392444400582
sg16
g36
(g70
S'\x02\x00\x00\x00'
tRp923
sg42
g43
sg46
g47
sg15
g72
sg22
F488.16919411614072
sg64
g271
sg62
g102
sg49
g50
sS'trials.thisN'
p924
I76
sg19
I1
sg27
g36
(g38
S'\x00\x00\x00\x00\x00\x00\x18@'
tRp925
sg52
g53
sg23
S'3'
sg18
F487.30657501146197
sg33
g34
sg51
g11
sg20
S'2'
sg65
g36
(g77
S'\x00\x00\x00\x00\x00\x00\x00\x00'
tRp926
sg44
g45
sg40
g41
sg25
F0.53138064930681139
sS'trials.thisIndex'
p927
g36
(g80
S'[\x00\x00\x00'
tRp928
sg26
V5
sS'trials.thisRepN'
p929
I0
sg66
Vvan
p930
sg63
V../experiment_stimuli/bw_bc_bl/Nonliving_Things/Vehicles/van_4.jpg
p931
sg21
F0.84206350788008422
sS'trials.thisTrialN'
p932
I76
sa(dp933
g31
g32
sg17
F490.43822401075158
sg24
I1
sg35
g39
sg14
F490.43347284616902
sg16
g36
(g70
S'\x01\x00\x00\x00'
tRp934
sg42
g43
sg46
g47
sg15
g88
sg22
F493.10993039491586
sg64
g114
sg62
g102
sg49
g50
sS'trials.thisN'
p935
I77
sg19
I0
sg27
g36
(g38
S'\x00\x00\x00\x00\x00\x00\x18@'
tRp936
sg52
g53
sg23
S'1'
sg18
F491.67608003504574
sg33
g34
sg51
g11
sg20
S'2'
sg65
g36
(g77
S'\x00\x00\x00\x00\x00\x00\x00\x00'
tRp937
sg44
g45
sg40
g41
sg25
F0.2106820804765448
sS'trials.thisIndex'
p938
g36
(g80
S')\x00\x00\x00'
tRp939
sg26
V5
sS'trials.thisRepN'
p940
I0
sg66
Vhouse
p941
sg63
V../experiment_stimuli/bw_bc_bl/Nonliving_Things/Buildings/house_13.jpg
p942
sg21
F1.4133021763991565
sS'trials.thisTrialN'
p943
I77
sa(dp944
g31
g32
sg17
F495.05834634380881
sg24
I0
sg35
g39
sg14
F495.05351689422969
sg16
g36
(g70
S'\x01\x00\x00\x00'
tRp945
sg42
g43
sg46
g47
sg15
g72
sg22
F499.40363315423019
sg64
g73
sg62
g74
sg49
g50
sS'trials.thisN'
p946
I78
sg19
I1
sg27
g36
(g38
S'\x00\x00\x00\x00\x00\x00\x18@'
tRp947
sg52
g53
sg23
S'2'
sg18
F496.31616187130567
sg33
g34
sg51
g11
sg20
S'1'
sg65
g36
(g77
S'\x00\x00\x00\x00\x00\x00\x00\x00'
tRp948
sg44
g45
sg40
g41
sg25
F0.37101925781462342
sS'trials.thisIndex'
p949
g36
(g80
S' \x00\x00\x00'
tRp950
sg26
V5
sS'trials.thisRepN'
p951
I0
sg66
Vgiraffe
p952
sg63
V../experiment_stimuli/bw_bc_bl/Living_Things/Animals/giraffe_23.jpg
p953
sg21
F3.0669017314212397
sS'trials.thisTrialN'
p954
I78
sa(dp955
g31
g32
sg17
F501.51375704642851
sg24
I0
sg35
g39
sg14
F501.50754150433931
sg16
g36
(g70
S'\x01\x00\x00\x00'
tRp956
sg42
g43
sg46
g47
sg15
g88
sg22
F503.67291142523754
sg64
g101
sg62
g102
sg49
g50
sS'trials.thisN'
p957
I79
sg19
I1
sg27
g36
(g38
S'\x00\x00\x00\x00\x00\x00\x1a@'
tRp958
sg52
g53
sg23
S'2'
sg18
F502.76017229398713
sg33
g34
sg51
g11
sg20
S'1'
sg65
g36
(g77
S'\x00\x00\x00\x00\x00\x00\x00\x00'
tRp959
sg44
g45
sg40
g41
sg25
F1.2429225078085437
sS'trials.thisIndex'
p960
g36
(g80
S'.\x00\x00\x00'
tRp961
sg26
V5
sS'trials.thisRepN'
p962
I0
sg66
Vlamp
p963
sg63
V../experiment_stimuli/bw_bc_bl/Nonliving_Things/Furniture/lamp_15.jpg
p964
sg21
F0.8921817789087072
sS'trials.thisTrialN'
p965
I79
sa(dp966
g31
g32
sg17
F506.65356970368885
sg24
I0
sg35
g39
sg14
F506.64872018666938
sg16
g36
(g70
S'\x02\x00\x00\x00'
tRp967
sg42
g43
sg46
g47
sg15
g72
sg22
F511.8406513039954
sg64
g294
sg62
g102
sg49
g50
sS'trials.thisN'
p968
I80
sg19
I1
sg27
g36
(g38
S'\x00\x00\x00\x00\x00\x00\x18@'
tRp969
sg52
g53
sg23
S'2'
sg18
F507.90134911925998
sg33
g34
sg51
g11
sg20
S'2'
sg65
g36
(g77
S'\x00\x00\x00\x00\x00\x00\x00\x00'
tRp970
sg44
g45
sg40
g41
sg25
F0.87211688223760575
sS'trials.thisIndex'
p971
g36
(g80
S'M\x00\x00\x00'
tRp972
sg26
V5
sS'trials.thisRepN'
p973
I0
sg66
Vsmall-saucepan
p974
sg63
V../experiment_stimuli/bw_bc_bl/Nonliving_Things/Kitchen_Uten/small-saucepan_22.jpg
p975
sg21
F3.918747648014687
sS'trials.thisTrialN'
p976
I80
sa(dp977
g31
g32
sg17
F514.4604753741296
sg24
I1
sg35
g39
sg14
F514.45569413085468
sg16
g36
(g70
S'\x02\x00\x00\x00'
tRp978
sg42
g43
sg46
g47
sg15
g72
sg22
F518.43500299821608
sg64
g384
sg62
g102
sg49
g50
sS'trials.thisN'
p979
I81
sg19
I1
sg27
g36
(g38
S'\x00\x00\x00\x00\x00\x00\x18@'
tRp980
sg52
g53
sg23
S'1'
sg18
F515.68828534288332
sg33
g34
sg51
g11
sg20
S'2'
sg65
g36
(g77
S'\x00\x00\x00\x00\x00\x00\x00\x00'
tRp981
sg44
g45
sg40
g41
sg25
F0.46122446982190013
sS'trials.thisIndex'
p982
g36
(g80
S'>\x00\x00\x00'
tRp983
sg26
V5
sS'trials.thisRepN'
p984
I0
sg66
Vpiano
p985
sg63
V../experiment_stimuli/bw_bc_bl/Nonliving_Things/Musical_Inst/piano__23.jpg
p986
sg21
F2.7261757689993829
sS'trials.thisTrialN'
p987
I81
sa(dp988
g31
g32
sg17
F520.63536863599438
sg24
I0
sg35
g39
sg14
F520.62911383085884
sg16
g36
(g70
S'\x02\x00\x00\x00'
tRp989
sg42
g43
sg46
g47
sg15
g88
sg22
F522.91474808601197
sg64
g73
sg62
g74
sg49
g50
sS'trials.thisN'
p990
I82
sg19
I1
sg27
g36
(g38
S'\x00\x00\x00\x00\x00\x00\x1a@'
tRp991
sg52
g53
sg23
S'2'
sg18
F521.88174472225364
sg33
g34
sg51
g11
sg20
S'2'
sg65
g36
(g77
S'\x00\x00\x00\x00\x00\x00\x00\x00'
tRp992
sg44
g45
sg40
g41
sg25
F0.50130954233463854
sS'trials.thisIndex'
p993
g36
(g80
S'0\x00\x00\x00'
tRp994
sg26
V5
sS'trials.thisRepN'
p995
I0
sg66
Vlioness
p996
sg63
V../experiment_stimuli/bw_bc_bl/Living_Things/Animals/lioness_23.jpg
p997
sg21
F1.0124507633736357
sS'trials.thisTrialN'
p998
I82
sa(dp999
g31
g32
sg17
F525.15375489578582
sg24
I1
sg35
g39
sg14
F525.14894117170479
sg16
g36
(g70
S'\x02\x00\x00\x00'
tRp1000
sg42
g43
sg46
g47
sg15
g88
sg22
F527.57486509799492
sg64
g73
sg62
g74
sg49
g50
sS'trials.thisN'
p1001
I83
sg19
I0
sg27
g36
(g38
S'\x00\x00\x00\x00\x00\x00\x1a@'
tRp1002
sg52
g53
sg23
S'1'
sg18
F526.3915459997952
sg33
g34
sg51
g11
sg20
S'1'
sg65
g36
(g77
S'\x00\x00\x00\x00\x00\x00\x00\x00'
tRp1003
sg44
g45
sg40
g41
sg25
F0.3710190961137414
sS'trials.thisIndex'
p1004
g36
(g80
S'\x14\x00\x00\x00'
tRp1005
sg26
V5
sS'trials.thisRepN'
p1006
I0
sg66
Vcow
p1007
sg63
V../experiment_stimuli/bw_bc_bl/Living_Things/Animals/cow_24.jpg
p1008
sg21
F1.162752422853373
sS'trials.thisTrialN'
p1009
I83
sa(dp1010
g31
g32
sg17
F529.68513151444495
sg24
I0
sg35
g39
sg14
F529.67879044776782
sg16
g36
(g70
S'\x02\x00\x00\x00'
tRp1011
sg42
g43
sg46
g47
sg15
g72
sg22
F531.98445887421258
sg64
g271
sg62
g102
sg49
g50
sS'trials.thisN'
p1012
I84
sg19
I1
sg27
g36
(g38
S'\x00\x00\x00\x00\x00\x00 @'
tRp1013
sg52
g53
sg23
S'3'
sg18
F530.94144165783655
sg33
g34
sg51
g11
sg20
S'2'
sg65
g36
(g77
S'\x00\x00\x00\x00\x00\x00\x00\x00'
tRp1014
sg44
g45
sg40
g41
sg25
F0.55141634354367852
sS'trials.thisIndex'
p1015
g36
(g80
S'\t\x00\x00\x00'
tRp1016
sg26
V5
sS'trials.thisRepN'
p1017
I0
sg66
Vbus
p1018
sg63
V../experiment_stimuli/bw_bc_bl/Nonliving_Things/Vehicles/bus_9.jpg
p1019
sg21
F1.0224465825594962
sS'trials.thisTrialN'
p1020
I84
sa(dp1021
g31
g32
sg17
F534.2736444841139
sg24
I0
sg35
g39
sg14
F534.26876824221108
sg16
g36
(g70
S'\x01\x00\x00\x00'
tRp1022
sg42
g43
sg46
g47
sg15
g72
sg22
F536.34391927474644
sg64
g73
sg62
g74
sg49
g50
sS'trials.thisN'
p1023
I85
sg19
I1
sg27
g36
(g38
S'\x00\x00\x00\x00\x00\x00\x1a@'
tRp1024
sg52
g53
sg23
S'2'
sg18
F535.52139826503117
sg33
g34
sg51
g11
sg20
S'1'
sg65
g36
(g77
S'\x00\x00\x00\x00\x00\x00\x00\x00'
tRp1025
sg44
g45
sg40
g41
sg25
F0.4311512652784586
sS'trials.thisIndex'
p1026
g36
(g80
S'\x10\x00\x00\x00'
tRp1027
sg26
V5
sS'trials.thisRepN'
p1028
I0
sg66
Vcheetah
p1029
sg63
V../experiment_stimuli/bw_bc_bl/Living_Things/Animals/cheetah_23.jpg
p1030
sg21
F0.8019732964457944
sS'trials.thisTrialN'
p1031
I85
sa(dp1032
g31
g32
sg17
F538.51579331303947
sg24
I1
sg35
g39
sg14
F538.50798348896205
sg16
g36
(g70
S'\x01\x00\x00\x00'
tRp1033
sg42
g43
sg46
g47
sg15
g72
sg22
F541.91602386115119
sg64
g126
sg62
g74
sg49
g50
sS'trials.thisN'
p1034
I86
sg19
I1
sg27
g36
(g38
S'\x00\x00\x00\x00\x00\x00 @'
tRp1035
sg52
g53
sg23
S'1'
sg18
F539.74056732526515
sg33
g34
sg51
g11
sg20
S'1'
sg65
g36
(g77
S'\x00\x00\x00\x00\x00\x00\x00\x00'
tRp1036
sg44
g45
sg40
g41
sg25
F0.47108688484877348
sS'trials.thisIndex'
p1037
g36
(g80
S'4\x00\x00\x00'
tRp1038
sg26
V5
sS'trials.thisRepN'
p1039
I0
sg66
Vmanatee
p1040
sg63
V../experiment_stimuli/bw_bc_bl/Living_Things/Marine_creatures/manatee_4.jpg
p1041
sg21
F2.1549011610914022
sS'trials.thisTrialN'
p1042
I86
sa(dp1043
g31
g32
sg17
F544.12503314169589
sg24
I0
sg35
g39
sg14
F544.12018852727488
sg16
g36
(g70
S'\x02\x00\x00\x00'
tRp1044
sg42
g43
sg46
g47
sg15
g88
sg22
F546.2154001070885
sg64
g171
sg62
g74
sg49
g50
sS'trials.thisN'
p1045
I87
sg19
I1
sg27
g36
(g38
S'\x00\x00\x00\x00\x00\x00\x18@'
tRp1046
sg52
g53
sg23
S'2'
sg18
F545.36279293789994
sg33
g34
sg51
g11
sg20
S'2'
sg65
g36
(g77
S'\x00\x00\x00\x00\x00\x00\x00\x00'
tRp1047
sg44
g45
sg40
g41
sg25
F0.5113353761844337
sS'trials.thisIndex'
p1048
g36
(g80
S'U\x00\x00\x00'
tRp1049
sg26
V5
sS'trials.thisRepN'
p1050
I0
sg66
Vtoucan
p1051
sg63
V../experiment_stimuli/bw_bc_bl/Living_Things/Birds/toucan_15.jpg
p1052
sg21
F0.83204757259227335
sS'trials.thisTrialN'
p1053
I87
sa(dp1054
g31
g32
sg17
F548.46439080755226
sg24
I0
sg35
g39
sg14
F548.4596188236028
sg16
g36
(g70
S'\x02\x00\x00\x00'
tRp1055
sg42
g43
sg46
g47
sg15
g72
sg22
F550.68511732702609
sg64
g114
sg62
g102
sg49
g50
sS'trials.thisN'
p1056
I88
sg19
I1
sg27
g36
(g38
S'\x00\x00\x00\x00\x00\x00\x1a@'
tRp1057
sg52
g53
sg23
S'3'
sg18
F549.70223497087136
sg33
g34
sg51
g11
sg20
S'2'
sg65
g36
(g77
S'\x00\x00\x00\x00\x00\x00\x00\x00'
tRp1058
sg44
g45
sg40
g41
sg25
F0.45119989162776619
sS'trials.thisIndex'
p1059
g36
(g80
S'\x11\x00\x00\x00'
tRp1060
sg26
V5
sS'trials.thisRepN'
p1061
I0
sg66
Vchurch
p1062
sg63
V../experiment_stimuli/bw_bc_bl/Nonliving_Things/Buildings/church_10.jpg
p1063
sg21
F0.96231948130298406
sS'trials.thisTrialN'
p1064
I88
sa(dp1065
g31
g32
sg17
F552.87412504840177
sg24
I0
sg35
g39
sg14
F552.86920870526228
sg16
g36
(g70
S'\x02\x00\x00\x00'
tRp1066
sg42
g43
sg46
g47
sg15
g88
sg22
F555.94657665526029
sg64
g171
sg62
g74
sg49
g50
sS'trials.thisN'
p1067
I89
sg19
I0
sg27
g36
(g38
S'\x00\x00\x00\x00\x00\x00\x1e@'
tRp1068
sg52
g53
sg23
S'2'
sg18
F554.10179061675444
sg33
g34
sg51
g11
sg20
S'1'
sg65
g36
(g77
S'\x00\x00\x00\x00\x00\x00\x00\x00'
tRp1069
sg44
g45
sg40
g41
sg25
F0.92222799127921462
sS'trials.thisIndex'
p1070
g36
(g80
S'*\x00\x00\x00'
tRp1071
sg26
V5
sS'trials.thisRepN'
p1072
I0
sg66
Vhummingbird
p1073
sg63
V../experiment_stimuli/bw_bc_bl/Living_Things/Birds/hummingbird_9.jpg
p1074
sg21
F1.8242122654337436
sS'trials.thisTrialN'
p1075
I89
sa(dp1076
g31
g32
sg17
F558.60654733842239
sg24
I1
sg35
g39
sg14
F558.60166975448374
sg16
g36
(g70
S'\x01\x00\x00\x00'
tRp1077
sg42
g43
sg46
g47
sg15
g72
sg22
F563.70325480087195
sg64
g126
sg62
g74
sg49
g50
sS'trials.thisN'
p1078
I90
sg19
I0
sg27
g36
(g38
S'\x00\x00\x00\x00\x00\x00 @'
tRp1079
sg52
g53
sg23
S'1'
sg18
F559.84427516511641
sg33
g34
sg51
g11
sg20
S'2'
sg65
g36
(g77
S'\x00\x00\x00\x00\x00\x00\x00\x00'
tRp1080
sg44
g45
sg40
g41
sg25
F1.9143819251330569
sS'trials.thisIndex'
p1081
g36
(g80
S'P\x00\x00\x00'
tRp1082
sg26
V5
sS'trials.thisRepN'
p1083
I0
sg66
Vsperm-whale
p1084
sg63
V../experiment_stimuli/bw_bc_bl/Living_Things/Marine_creatures/sperm-whale_4.jpg
p1085
sg21
F3.8384067424340174
sS'trials.thisTrialN'
p1086
I90
sa(dp1087
g31
g32
sg17
F567.35566022223793
sg24
I0
sg35
g39
sg14
F567.35069050395396
sg16
g36
(g70
S'\x02\x00\x00\x00'
tRp1088
sg42
g43
sg46
g47
sg15
g72
sg22
F569.47593597695231
sg64
g384
sg62
g102
sg49
g50
sS'trials.thisN'
p1089
I91
sg19
I1
sg27
g36
(g38
S'\x00\x00\x00\x00\x00\x00\x18@'
tRp1090
sg52
g53
sg23
S'3'
sg18
F568.61333998874761
sg33
g34
sg51
g11
sg20
S'2'
sg65
g36
(g77
S'\x00\x00\x00\x00\x00\x00\x00\x00'
tRp1091
sg44
g45
sg40
g41
sg25
F0.51132885355036706
sS'trials.thisIndex'
p1092
g36
(g80
S'Y\x00\x00\x00'
tRp1093
sg26
V5
sS'trials.thisRepN'
p1094
I0
sg66
Vtuba
p1095
sg63
V../experiment_stimuli/bw_bc_bl/Nonliving_Things/Musical_Inst/tuba_24.jpg
p1096
sg21
F0.84205144026782364
sS'trials.thisTrialN'
p1097
I91
sa(dp1098
g31
g32
sg17
F571.72499089490157
sg24
I0
sg35
g39
sg14
F571.72020498604979
sg16
g36
(g70
S'\x01\x00\x00\x00'
tRp1099
sg42
g43
sg46
g47
sg15
g72
sg22
F573.58491292363033
sg64
g171
sg62
g74
sg49
g50
sS'trials.thisN'
p1100
I92
sg19
I0
sg27
g36
(g38
S'\x00\x00\x00\x00\x00\x00\x1e@'
tRp1101
sg52
g53
sg23
S'2'
sg18
F572.95277004805394
sg33
g34
sg51
g11
sg20
S'2'
sg65
g36
(g77
S'\x00\x00\x00\x00\x00\x00\x00\x00'
tRp1102
sg44
g45
sg40
g41
sg25
F0.280844263616018
sS'trials.thisIndex'
p1103
g36
(g80
S'C\x00\x00\x00'
tRp1104
sg26
V5
sS'trials.thisRepN'
p1105
I0
sg66
Vraven
p1106
sg63
V../experiment_stimuli/bw_bc_bl/Living_Things/Birds/raven_0.jpg
p1107
sg21
F0.61156627151649445
sS'trials.thisTrialN'
p1108
I92
sa(dp1109
g31
g32
sg17
F575.603585655801
sg24
I1
sg35
g39
sg14
F575.59862100158352
sg16
g36
(g70
S'\x01\x00\x00\x00'
tRp1110
sg42
g43
sg46
g47
sg15
g88
sg22
F577.32303164724726
sg64
g101
sg62
g102
sg49
g50
sS'trials.thisN'
p1111
I93
sg19
I0
sg27
g36
(g38
S'\x00\x00\x00\x00\x00\x00 @'
tRp1112
sg52
g53
sg23
S'1'
sg18
F576.83121533750091
sg33
g34
sg51
g11
sg20
S'2'
sg65
g36
(g77
S'\x00\x00\x00\x00\x00\x00\x00\x00'
tRp1113
sg44
g45
sg40
g41
sg25
F0.32091777632012963
sS'trials.thisIndex'
p1114
g36
(g80
S'E\x00\x00\x00'
tRp1115
sg26
V5
sS'trials.thisRepN'
p1116
I0
sg66
Vrocking-chair
p1117
sg63
V../experiment_stimuli/bw_bc_bl/Nonliving_Things/Furniture/rocking-chair_7.jpg
p1118
sg21
F0.47125508554745466
sS'trials.thisTrialN'
p1119
I93
sa(dp1120
g31
g32
sg17
F579.3816560478881
sg24
I0
sg35
g39
sg14
F579.37683735403698
sg16
g36
(g70
S'\x02\x00\x00\x00'
tRp1121
sg42
g43
sg46
g47
sg15
g72
sg22
F581.63237108895555
sg64
g101
sg62
g102
sg49
g50
sS'trials.thisN'
p1122
I94
sg19
I1
sg27
g36
(g38
S'\x00\x00\x00\x00\x00\x00\x18@'
tRp1123
sg52
g53
sg23
S'3'
sg18
F580.62946794461459
sg33
g34
sg51
g11
sg20
S'2'
sg65
g36
(g77
S'\x00\x00\x00\x00\x00\x00\x00\x00'
tRp1124
sg44
g45
sg40
g41
sg25
F1.0725515903905034
sS'trials.thisIndex'
p1125
g36
(g80
S'\x06\x00\x00\x00'
tRp1126
sg26
V5
sS'trials.thisRepN'
p1127
I0
sg66
Vbedside-table
p1128
sg63
V../experiment_stimuli/bw_bc_bl/Nonliving_Things/Furniture/bedside-table_24.jpg
p1129
sg21
F0.98236060026101768
sS'trials.thisTrialN'
p1130
I94
sa(dp1131
g31
g32
sg17
F584.44421619852073
sg24
I0
sg35
g39
sg14
F584.43783911725041
sg16
g36
(g70
S'\x01\x00\x00\x00'
tRp1132
sg42
g43
sg46
g47
sg15
g88
sg22
F586.60320089908782
sg64
g294
sg62
g102
sg49
g50
sS'trials.thisN'
p1133
I95
sg19
I1
sg27
g36
(g38
S'\x00\x00\x00\x00\x00\x00\x1e@'
tRp1134
sg52
g53
sg23
S'3'
sg18
F585.68044335138984
sg33
g34
sg51
g11
sg20
S'1'
sg65
g36
(g77
S'\x00\x00\x00\x00\x00\x00\x00\x00'
tRp1135
sg44
g45
sg40
g41
sg25
F0.53137910808436573
sS'trials.thisIndex'
p1136
g36
(g80
S'\x16\x00\x00\x00'
tRp1137
sg26
V5
sS'trials.thisRepN'
p1138
I0
sg66
Vcup
p1139
sg63
V../experiment_stimuli/bw_bc_bl/Nonliving_Things/Kitchen_Uten/cup_7.jpg
p1140
sg21
F0.90219028235878795
sS'trials.thisTrialN'
p1141
I95
sasS'loops'
p1142
(lp1143
g1
(cpsychopy.data
TrialHandler
p1144
g3
NtRp1145
(dp1146
S'origin'
p1147
NsS'thisTrial'
p1148
(lp1149
sS'_exp'
p1150
I98255120
sg10
S'trials'
p1151
sg6
I-1
sS'thisRepN'
p1152
I1
sg28
I01
sg29
g30
sS'data'
p1153
g1
(cpsychopy.data
DataHandler
p1154
c__builtin__
dict
p1155
(dp1156
g20
cnumpy.core.multiarray
_reconstruct
p1157
(cnumpy
ndarray
p1158
(I0
tS'b'
tRp1159
(I1
(I96
I1
tg37
(S'O4'
I0
I1
tRp1160
(I3
S'|'
NNNI-1
I-1
I63
tbI00
(lp1161
S'2'
aS'2'
aS'1'
aS'2'
aS'2'
aS'1'
aS'2'
aS'1'
aS'1'
aS'2'
aS'1'
aS'1'
aS'2'
aS'2'
aS'1'
aS'1'
aS'1'
aS'2'
aS'1'
aS'1'
aS'1'
aS'2'
aS'1'
aS'1'
aS'2'
aS'2'
aS'2'
aS'2'
aS'2'
aS'1'
aS'1'
aS'2'
aS'1'
aS'2'
aS'1'
aS'2'
aS'1'
aS'1'
aS'1'
aS'2'
aS'2'
aS'2'
aS'1'
aS'1'
aS'1'
aS'2'
aS'1'
aS'1'
aS'2'
aS'1'
aS'2'
aS'2'
aS'1'
aS'1'
aS'1'
aS'1'
aS'2'
aS'2'
aS'1'
aS'1'
aS'2'
aS'2'
aS'2'
aS'1'
aS'1'
aS'1'
aS'1'
aS'2'
aS'2'
aS'2'
aS'1'
aS'1'
aS'2'
aS'2'
aS'1'
aS'1'
aS'2'
aS'2'
aS'2'
aS'1'
aS'2'
aS'2'
aS'1'
aS'2'
aS'1'
aS'2'
aS'1'
aS'2'
aS'2'
aS'2'
aS'2'
aS'2'
aS'2'
aS'1'
aS'2'
aS'1'
atbsg17
cnumpy.ma.core
_mareconstruct
p1162
(cnumpy.ma.core
MaskedArray
p1163
g1158
(I0
tp1164
S'b'
tRp1165
(I1
(I96
I1
tg37
(S'f4'
I0
I1
tRp1166
(I3
S'<'
NNNI-1
I-1
I0
tbI00
S'\xfd\xef\xbaC\x15\x0b\xc0B>\x94\x94A3\xb1 C5\xc6\xd2C\xe8\xcb\x97Cm\xd8\x10D.\xe6\xc4Cw\xa2\xd0C\xd9k\x04D\xda[:Aj\xe8gC\xc7\x17\xc7A\xd0 o@4\xd0\xafC\xc6\xea\xd8B\x83\x91\x05D\xb9\x1d\tD\xc6\xd6\x88C,\xaf\xf0C\xd7I\x03D\x8f\xd3\xb5Cn\x1c\x12D\x8d\x7f\xadC\x8a\xc5\xdaC\x7f\xea\xd7C\xdd\xe0:C\xe7\x9f\x94C\xa2\xd4\xe8B\x19\x95>B\x1a\x84\xa0CK\xfa5Cx\x87\xf7C\xd8\x15GC\xdfq+C\xabr\x1aC\x1ab\xcbCjZAC\xd3\x86\x0bCdT]B\xc5\xa9\xe4C\x188\xf5C\xf27\nDeZ\x86C\xe0\xb3\xe6CS\xc1yC\xc3\xc1\xfaC-\xcb\xa0B\xaa(\x02D\xa4\xd9[C\x94\x85sC\x1e\x05\x91B\x03\xa1\x06D3z\x91C\r\x01\xecC/v\x05By\xd1\xdfC\x8e\xa8\xbdC\xb4\xea\xc7C\xceEzB\x07\x98\xe9C\x06\xcc\x8eCx\x9d\x00D@\x14\xceC\x83v\x05C<\xca\xa2C\x87\xf4\xb2Cf\xee\x0eD\x00\xc5\xfaB\xa1\xe6\x0fDe\x90\xc2C\x86V\x11C\xcc\xbc\x83C^A\xeeC*G\xe2CE\x1d\xd5C\xd7\xab\xa5C\xa8S\xfdC\x9d@\xa8C\x9a|\xcbB\xd2\xa6\x0bD\xa0\x07\x1dB$aRC\x7f-mC\xed\xe5\xaaC\x01\x08\x08Dl\x15\xc0C\xa1\xa0\xb8C)\x9eLC\xc3\xd6\rD^\xca\xb0B<\x06\xf3CXr\x9cC+\x12\x9aC\xacm\x7fC\xa6\xe9`C'
S'\x00\x00\x00\x00\x00\x00\x00\x00\x00\x00\x00\x00\x00\x00\x00\x00\x00\x00\x00\x00\x00\x00\x00\x00\x00\x00\x00\x00\x00\x00\x00\x00\x00\x00\x00\x00\x00\x00\x00\x00\x00\x00\x00\x00\x00\x00\x00\x00\x00\x00\x00\x00\x00\x00\x00\x00\x00\x00\x00\x00\x00\x00\x00\x00\x00\x00\x00\x00\x00\x00\x00\x00\x00\x00\x00\x00\x00\x00\x00\x00\x00\x00\x00\x00\x00\x00\x00\x00\x00\x00\x00\x00\x00\x00\x00\x00'
NtbsS'ran'
p1167
g1162
(g1163
g1158
g1164
S'b'
tRp1168
(I1
(I96
I1
tg1166
I00
S'\x00\x00\x80?\x00\x00\x80?\x00\x00\x80?\x00\x00\x80?\x00\x00\x80?\x00\x00\x80?\x00\x00\x80?\x00\x00\x80?\x00\x00\x80?\x00\x00\x80?\x00\x00\x80?\x00\x00\x80?\x00\x00\x80?\x00\x00\x80?\x00\x00\x80?\x00\x00\x80?\x00\x00\x80?\x00\x00\x80?\x00\x00\x80?\x00\x00\x80?\x00\x00\x80?\x00\x00\x80?\x00\x00\x80?\x00\x00\x80?\x00\x00\x80?\x00\x00\x80?\x00\x00\x80?\x00\x00\x80?\x00\x00\x80?\x00\x00\x80?\x00\x00\x80?\x00\x00\x80?\x00\x00\x80?\x00\x00\x80?\x00\x00\x80?\x00\x00\x80?\x00\x00\x80?\x00\x00\x80?\x00\x00\x80?\x00\x00\x80?\x00\x00\x80?\x00\x00\x80?\x00\x00\x80?\x00\x00\x80?\x00\x00\x80?\x00\x00\x80?\x00\x00\x80?\x00\x00\x80?\x00\x00\x80?\x00\x00\x80?\x00\x00\x80?\x00\x00\x80?\x00\x00\x80?\x00\x00\x80?\x00\x00\x80?\x00\x00\x80?\x00\x00\x80?\x00\x00\x80?\x00\x00\x80?\x00\x00\x80?\x00\x00\x80?\x00\x00\x80?\x00\x00\x80?\x00\x00\x80?\x00\x00\x80?\x00\x00\x80?\x00\x00\x80?\x00\x00\x80?\x00\x00\x80?\x00\x00\x80?\x00\x00\x80?\x00\x00\x80?\x00\x00\x80?\x00\x00\x80?\x00\x00\x80?\x00\x00\x80?\x00\x00\x80?\x00\x00\x80?\x00\x00\x80?\x00\x00\x80?\x00\x00\x80?\x00\x00\x80?\x00\x00\x80?\x00\x00\x80?\x00\x00\x80?\x00\x00\x80?\x00\x00\x80?\x00\x00\x80?\x00\x00\x80?\x00\x00\x80?\x00\x00\x80?\x00\x00\x80?\x00\x00\x80?\x00\x00\x80?\x00\x00\x80?\x00\x00\x80?'
S'\x00\x00\x00\x00\x00\x00\x00\x00\x00\x00\x00\x00\x00\x00\x00\x00\x00\x00\x00\x00\x00\x00\x00\x00\x00\x00\x00\x00\x00\x00\x00\x00\x00\x00\x00\x00\x00\x00\x00\x00\x00\x00\x00\x00\x00\x00\x00\x00\x00\x00\x00\x00\x00\x00\x00\x00\x00\x00\x00\x00\x00\x00\x00\x00\x00\x00\x00\x00\x00\x00\x00\x00\x00\x00\x00\x00\x00\x00\x00\x00\x00\x00\x00\x00\x00\x00\x00\x00\x00\x00\x00\x00\x00\x00\x00\x00'
Ntbsg24
g1162
(g1163
g1158
g1164
S'b'
tRp1169
(I1
(I96
I1
tg1166
I00
S'\x00\x00\x80?\x00\x00\x00\x00\x00\x00\x00\x00\x00\x00\x00\x00\x00\x00\x80?\x00\x00\x00\x00\x00\x00\x00\x00\x00\x00\x00\x00\x00\x00\x80?\x00\x00\x00\x00\x00\x00\x00\x00\x00\x00\x80?\x00\x00\x80?\x00\x00\x00\x00\x00\x00\x80?\x00\x00\x80?\x00\x00\x00\x00\x00\x00\x00\x00\x00\x00\x00\x00\x00\x00\x80?\x00\x00\x80?\x00\x00\x80?\x00\x00\x00\x00\x00\x00\x00\x00\x00\x00\x80?\x00\x00\x00\x00\x00\x00\x80?\x00\x00\x80?\x00\x00\x00\x00\x00\x00\x00\x00\x00\x00\x80?\x00\x00\x00\x00\x00\x00\x00\x00\x00\x00\x00\x00\x00\x00\x80?\x00\x00\x00\x00\x00\x00\x00\x00\x00\x00\x00\x00\x00\x00\x00\x00\x00\x00\x80?\x00\x00\x00\x00\x00\x00\x80?\x00\x00\x00\x00\x00\x00\x00\x00\x00\x00\x00\x00\x00\x00\x80?\x00\x00\x00\x00\x00\x00\x00\x00\x00\x00\x00\x00\x00\x00\x00\x00\x00\x00\x00\x00\x00\x00\x00\x00\x00\x00\x80?\x00\x00\x00\x00\x00\x00\x00\x00\x00\x00\x00\x00\x00\x00\x00\x00\x00\x00\x00\x00\x00\x00\x80?\x00\x00\x00\x00\x00\x00\x80?\x00\x00\x80?\x00\x00\x80?\x00\x00\x00\x00\x00\x00\x00\x00\x00\x00\x00\x00\x00\x00\x00\x00\x00\x00\x00\x00\x00\x00\x80?\x00\x00\x80?\x00\x00\x00\x00\x00\x00\x80?\x00\x00\x80?\x00\x00\x00\x00\x00\x00\x80?\x00\x00\x00\x00\x00\x00\x80?\x00\x00\x00\x00\x00\x00\x00\x00\x00\x00\x00\x00\x00\x00\x80?\x00\x00\x00\x00\x00\x00\x80?\x00\x00\x00\x00\x00\x00\x80?\x00\x00\x00\x00\x00\x00\x80?\x00\x00\x00\x00\x00\x00\x80?\x00\x00\x00\x00\x00\x00\x80?\x00\x00\x00\x00\x00\x00\x00\x00\x00\x00\x00\x00\x00\x00\x00\x00\x00\x00\x00\x00'
S'\x00\x00\x00\x00\x00\x00\x00\x00\x00\x00\x00\x00\x00\x00\x00\x00\x00\x00\x00\x00\x00\x00\x00\x00\x00\x00\x00\x00\x00\x00\x00\x00\x00\x00\x00\x00\x00\x00\x00\x00\x00\x00\x00\x00\x00\x00\x00\x00\x00\x00\x00\x00\x00\x00\x00\x00\x00\x00\x00\x00\x00\x00\x00\x00\x00\x00\x00\x00\x00\x00\x00\x00\x00\x00\x00\x00\x00\x00\x00\x00\x00\x00\x00\x00\x00\x00\x00\x00\x00\x00\x00\x00\x00\x00\x00\x00'
Ntbsg14
g1162
(g1163
g1158
g1164
S'b'
tRp1170
(I1
(I96
I1
tg1166
I00
S'^\xef\xbaC2\x08\xc0B\x8a\x8a\x94A\xc5\xaf C\x98\xc5\xd2C,\xcb\x97C\x1e\xd8\x10D\x8d\xe5\xc4C\xd8\xa1\xd0Cqk\x04D\x1cH:A\xc3\xe6gC\r\r\xc7A\xfc\xc8m@\x93\xcf\xafC\xf4\xe7\xd8B3\x91\x05Dj\x1d\tD\x0b\xd6\x88C\x8f\xae\xf0C\x88I\x03D\xec\xd2\xb5C\x06\x1c\x12D\xee~\xadC\xed\xc4\xdaC\xbc\xe9\xd7C\x9f\xdf:C*\x9f\x94C\x18\xd2\xe8B:\x90>B9\x83\xa0C\x0e\xf95C\xda\x86\xf7C\x7f\x14GC\xa2p+Cjq\x1aC{a\xcbC\xfcXACE\x85\x0bCjO]B&\xa9\xe4C|7\xf5C\xa17\nD\xc8Y\x86C?\xb3\xe6C\x0e\xc0yC\xf7\xc0\xfaC\xbb\xc8\xa0BC(\x02D_\xd8[CD\x84sC\x82\x02\x91B\x83\xa0\x06D\x93y\x91Cp\x00\xecCup\x05B\xb1\xd0\xdfC\xec\xa7\xbdC\xca\xe9\xc7C\xd2@zBj\x97\xe9CH\xcb\x8eC*\x9d\x00D\x9f\x13\xceC\x19u\x05C\x9c\xc9\xa2C\xe3\xf3\xb2C\x18\xee\x0eDz\xc2\xfaBP\xe6\x0fD\xc6\x8f\xc2CMU\x11C+\xbc\x83Ch@\xeeC\x8bF\xe2C\xa8\x1c\xd5C6\xab\xa5C\tS\xfdC\xd9?\xa8C\x15z\xcbB\x82\xa6\x0bD\xab\x02\x1dB\xe7_RCB,mC*\xe5\xaaC\xb1\x07\x08D\xcb\x14\xc0C\x00\xa0\xb8C\xb2\x9cLCr\xd6\rDb\xc7\xb0B\x9f\x05\xf3C\x99q\x9cC\x8e\x11\x9aC,l\x7fC\xfd\xe7`C'
S'\x00\x00\x00\x00\x00\x00\x00\x00\x00\x00\x00\x00\x00\x00\x00\x00\x00\x00\x00\x00\x00\x00\x00\x00\x00\x00\x00\x00\x00\x00\x00\x00\x00\x00\x00\x00\x00\x00\x00\x00\x00\x00\x00\x00\x00\x00\x00\x00\x00\x00\x00\x00\x00\x00\x00\x00\x00\x00\x00\x00\x00\x00\x00\x00\x00\x00\x00\x00\x00\x00\x00\x00\x00\x00\x00\x00\x00\x00\x00\x00\x00\x00\x00\x00\x00\x00\x00\x00\x00\x00\x00\x00\x00\x00\x00\x00'
Ntbsg16
g1157
(g1158
(I0
tS'b'
tRp1171
(I1
(I96
I1
tg1160
I00
(lp1172
g692
ag215
ag100
ag316
ag791
ag549
ag1121
ag736
ag780
ag1011
ag87
ag428
ag113
ag71
ag648
ag237
ag1022
ag1055
ag505
ag912
ag1000
ag670
ag1132
ag637
ag824
ag813
ag350
ag538
ag248
ag148
ag582
ag339
ag945
ag372
ag328
ag305
ag758
ag361
ag282
ag159
ag857
ag934
ag1066
ag494
ag868
ag461
ag956
ag193
ag989
ag406
ag450
ag182
ag1033
ag527
ag890
ag125
ag835
ag703
ag747
ag170
ag879
ag516
ag978
ag769
ag270
ag593
ag659
ag1099
ag259
ag1110
ag725
ag293
ag483
ag901
ag846
ag802
ag604
ag967
ag615
ag226
ag1077
ag137
ag395
ag439
ag626
ag1044
ag714
ag681
ag383
ag1088
ag204
ag923
ag571
ag560
ag472
ag417
atbsg15
g1157
(g1158
(I0
tS'b'
tRp1173
(I1
(I96
I1
tg1160
I00
(lp1174
g88
ag88
ag88
ag72
ag72
ag88
ag72
ag88
ag72
ag72
ag88
ag88
ag88
ag72
ag88
ag72
ag72
ag72
ag72
ag72
ag88
ag72
ag88
ag72
ag88
ag72
ag72
ag72
ag72
ag72
ag72
ag72
ag72
ag88
ag72
ag72
ag88
ag88
ag72
ag72
ag88
ag88
ag88
ag72
ag72
ag88
ag88
ag72
ag88
ag72
ag88
ag88
ag72
ag72
ag88
ag72
ag88
ag88
ag72
ag72
ag72
ag72
ag72
ag72
ag88
ag88
ag72
ag72
ag88
ag88
ag72
ag88
ag72
ag72
ag88
ag72
ag88
ag72
ag72
ag88
ag72
ag72
ag88
ag72
ag88
ag88
ag72
ag72
ag72
ag72
ag72
ag72
ag72
ag88
ag88
ag88
atbsg22
g1162
(g1163
g1158
g1164
S'b'
tRp1175
(I1
(I96
I1
tg1166
I00
S'u(\xbcC@l\xc4B\\0\xa8A\xcdU$C\xec\x11\xd4C:\xd2\x98Cyh\x11DN\xf4\xc5C\x08\xae\xd1C\x01\xff\x04D\xf3\xe5aA\xd6AjC5\xdb\xebA\x8by\xbd@\x84\x0c\xb1C\xe3\xf1\xe0B\x03\x16\x06D\xd9\xab\tD}\\\x8dC\x05\x00\xf2C\xcb\xe4\x03D\xb5\n\xb7C\x9b\xa6\x12D\xb8{\xaeC\x82\x19\xddC\x17h\xd9CFv>Cu8\x96C\xa7*\xf4B\xb4\xdeIB<\x9c\xa1C\x1e\xde7C\xaa\xb3\xf9C\xb19IC\xb0\xfc2C\x7fT\x1dC\x00\x98\xccCR\xbeCCk\x81\rC\xc0:nB\x87\x9f\xe5C\x12\x8e\xf6C\x95\xfc\nD\xfaw\x87C\xe3\xb3\xe7C\xdb\xd3|C"\xd6\xfbC\x86\x06\xaaB\x8b\xba\x02D\x1f\xc5]CFyvC\xa1&\x9aB\xa0z\x07D~\xfa\x92CW\x02\xedC/N\x10B\xb5\xe9\xe0C\xea\xc9\xbeC\xe2]\xc9C\xd46\x89BD\xf8\xeaC\xb2.\x90C\xd7\x9b\x01D#J\xcfC\xfbd\x08C\xa8\x1d\xa4C\xc1B\xb4Coe\x0fD\xed \x01C\xadT\x10D8\xa6\xc3C\xae\x18\x17C\x1e\xf0\x84CX}\xefC\xf8e\xe3CSO\xd6C\xc2\x13\xa7C\x9a\xeb\xffC\xb7\x97\xa9C\x99\x8c\xd0B\x02\xed\x0cDo\xf9/B\xea\x19UC\x1b\xa4pC\xd1[\xacC\xc9\x8d\x08D\x9a\x87\xc1C\x90\xc4\xb9C\x99\x04OCv^\x0eD\xa1V\xb9B\xa8\x15\xf4Cy\x02\x9fC\'$\x9bC`\xce\x81C\xb9\\cC'
S'\x00\x00\x00\x00\x00\x00\x00\x00\x00\x00\x00\x00\x00\x00\x00\x00\x00\x00\x00\x00\x00\x00\x00\x00\x00\x00\x00\x00\x00\x00\x00\x00\x00\x00\x00\x00\x00\x00\x00\x00\x00\x00\x00\x00\x00\x00\x00\x00\x00\x00\x00\x00\x00\x00\x00\x00\x00\x00\x00\x00\x00\x00\x00\x00\x00\x00\x00\x00\x00\x00\x00\x00\x00\x00\x00\x00\x00\x00\x00\x00\x00\x00\x00\x00\x00\x00\x00\x00\x00\x00\x00\x00\x00\x00\x00\x00'
Ntbsg26
g1157
(g1158
(I0
tS'b'
tRp1176
(I1
(I96
I1
tg1160
I00
(lp1177
g36
(g80
S'\x01\x00\x00\x00'
tRp1178
ag36
(g80
S'\x04\x00\x00\x00'
tRp1179
aS'3.0'
p1180
ag36
(g80
S'\x03\x00\x00\x00'
tRp1181
ag36
(g80
S'\x02\x00\x00\x00'
tRp1182
ag36
(g80
S'\x04\x00\x00\x00'
tRp1183
ag36
(g80
S'\x03\x00\x00\x00'
tRp1184
aI1
aI1
ag36
(g80
S'\x04\x00\x00\x00'
tRp1185
aS'4.0'
p1186
aI1
ag36
(g80
S'\x01\x00\x00\x00'
tRp1187
aS'5.0'
p1188
ag36
(g80
S'\x01\x00\x00\x00'
tRp1189
ag36
(g80
S'\x01\x00\x00\x00'
tRp1190
ag36
(g80
S'\x02\x00\x00\x00'
tRp1191
ag36
(g80
S'\x01\x00\x00\x00'
tRp1192
ag36
(g80
S'\x02\x00\x00\x00'
tRp1193
aI1
ag36
(g80
S'\x02\x00\x00\x00'
tRp1194
ag36
(g80
S'\x01\x00\x00\x00'
tRp1195
aI1
ag36
(g80
S'\x04\x00\x00\x00'
tRp1196
aI1
ag36
(g80
S'\x01\x00\x00\x00'
tRp1197
aI1
ag36
(g80
S'\x02\x00\x00\x00'
tRp1198
ag36
(g80
S'\x02\x00\x00\x00'
tRp1199
aI1
aI1
ag36
(g80
S'\x02\x00\x00\x00'
tRp1200
ag36
(g80
S'\x04\x00\x00\x00'
tRp1201
ag36
(g80
S'\x02\x00\x00\x00'
tRp1202
aI1
ag36
(g80
S'\x05\x00\x00\x00'
tRp1203
ag36
(g80
S'\x04\x00\x00\x00'
tRp1204
ag36
(g80
S'\x03\x00\x00\x00'
tRp1205
ag36
(g80
S'\x03\x00\x00\x00'
tRp1206
aI1
ag36
(g80
S'\x04\x00\x00\x00'
tRp1207
ag36
(g80
S'\x01\x00\x00\x00'
tRp1208
aI1
ag36
(g80
S'\x04\x00\x00\x00'
tRp1209
ag36
(g80
S'\x02\x00\x00\x00'
tRp1210
aI1
ag36
(g80
S'\x03\x00\x00\x00'
tRp1211
ag36
(g80
S'\x01\x00\x00\x00'
tRp1212
ag36
(g80
S'\x03\x00\x00\x00'
tRp1213
ag36
(g80
S'\x03\x00\x00\x00'
tRp1214
ag36
(g80
S'\x01\x00\x00\x00'
tRp1215
ag36
(g80
S'\x02\x00\x00\x00'
tRp1216
ag36
(g80
S'\x01\x00\x00\x00'
tRp1217
ag36
(g80
S'\x03\x00\x00\x00'
tRp1218
ag36
(g80
S'\x02\x00\x00\x00'
tRp1219
ag36
(g80
S'\x04\x00\x00\x00'
tRp1220
ag36
(g80
S'\x02\x00\x00\x00'
tRp1221
ag36
(g80
S'\x03\x00\x00\x00'
tRp1222
aI1
ag36
(g80
S'\x03\x00\x00\x00'
tRp1223
aI1
ag36
(g80
S'\x01\x00\x00\x00'
tRp1224
ag36
(g80
S'\x01\x00\x00\x00'
tRp1225
ag36
(g80
S'\x02\x00\x00\x00'
tRp1226
ag36
(g80
S'\x04\x00\x00\x00'
tRp1227
ag36
(g80
S'\x03\x00\x00\x00'
tRp1228
ag36
(g80
S'\x02\x00\x00\x00'
tRp1229
ag36
(g80
S'\x01\x00\x00\x00'
tRp1230
ag36
(g80
S'\x01\x00\x00\x00'
tRp1231
aI1
ag36
(g80
S'\x02\x00\x00\x00'
tRp1232
ag36
(g80
S'\x02\x00\x00\x00'
tRp1233
ag36
(g80
S'\x01\x00\x00\x00'
tRp1234
aI1
ag36
(g80
S'\x01\x00\x00\x00'
tRp1235
ag36
(g80
S'\x04\x00\x00\x00'
tRp1236
ag36
(g80
S'\x01\x00\x00\x00'
tRp1237
ag36
(g80
S'\x02\x00\x00\x00'
tRp1238
ag36
(g80
S'\x03\x00\x00\x00'
tRp1239
ag36
(g80
S'\x02\x00\x00\x00'
tRp1240
aI1
ag36
(g80
S'\x01\x00\x00\x00'
tRp1241
ag36
(g80
S'\x02\x00\x00\x00'
tRp1242
ag36
(g80
S'\x02\x00\x00\x00'
tRp1243
aI1
ag36
(g80
S'\x02\x00\x00\x00'
tRp1244
aI1
ag36
(g80
S'\x03\x00\x00\x00'
tRp1245
aI1
ag36
(g80
S'\x04\x00\x00\x00'
tRp1246
aI1
ag36
(g80
S'\x04\x00\x00\x00'
tRp1247
aI1
ag36
(g80
S'\x02\x00\x00\x00'
tRp1248
ag36
(g80
S'\x02\x00\x00\x00'
tRp1249
aI1
atbsg21
g1162
(g1163
g1158
g1164
S'b'
tRp1250
(I1
(I96
I1
tg1166
I00
S'9\xae\x98?\x18\x87i?\x10f\x97?t\x06\x18@\xe6\xa3\xaa?\x9d\x9bE?\xfc{{?\x98\xb2\\?\xf5\x90W?\x88\xdf\x82?\xbe\xae\x98?\xca"\x8d?\x97=V@\xe4ed?\x9e\x88\x9c?\x18\n1@\x1fNM?\x92Zv?b0\xf9@\xe0\r\xb1?\x12\xd5\x94?\xc1`\x97?\xf1\xf5f?\x08\x151?\xbfrY@\x9c\xf3\xdd?\x92u\x15@\x7f\x9b\xf7?.\x1d\x8d@\x17h\xc9?\xe98q?/\xb1!?\x1eHD@\x81C_?\x01h\xc9@\xce\x01\xcc?\xcf\xfb\x90?\x85\xb3\x8f?\xc466?\x1f\x82>@\xa5@$?\x16\xe7\xb4?\xca\x7f\xe9?\x84\xe3s?ZX;?\x12\x7f\xe9?\x06fd?\xf5\x85W@\xfd\x97\x81?\x14\xd2&?d\x1a\xda?\xad\xacS@\xe7\xe9\t@w\xf3\xdd?yo@?\xb4w\xb7?\xaf\x17l?G\r~?\xd5g\xd2?\xe5\xa8\x98@/*\xbf?B\x03\xc3?\xaay.@\xdf\x8c\x93?\xd7\xb0\xd3?\xb9\x14\xb1?2/\xad?\x9b\x8f\x1c?\xaa\xb8\x1f@YH\xf1>\xa7\x86i?C\x00\x90@\xb5\x8c\x93?q\x88\x9c?\xe2\x0c~?\xcb"\x8d?\xd1$\xc8?\xc3\xccz@2\xe7\xb4?W\xf1\xa2?u\xa8u@\xdc8_@\x9fQ\xbb?\x00\x1f\r@>A\xd6?\x12\x01U?\th\xd2?t\x97\x81?\xda\x8c\x93?\xaf\x90W?\x8c\xb4A@y\x91W?\x1a<x@\x10\xd4a?IM;@\x9d\xf6\x99?'
S'\x00\x00\x00\x00\x00\x00\x00\x00\x00\x00\x00\x00\x00\x00\x00\x00\x00\x00\x00\x00\x00\x00\x00\x00\x00\x00\x00\x00\x00\x00\x00\x00\x00\x00\x00\x00\x00\x00\x00\x00\x00\x00\x00\x00\x00\x00\x00\x00\x00\x00\x00\x00\x00\x00\x00\x00\x00\x00\x00\x00\x00\x00\x00\x00\x00\x00\x00\x00\x00\x00\x00\x00\x00\x00\x00\x00\x00\x00\x00\x00\x00\x00\x00\x00\x00\x00\x00\x00\x00\x00\x00\x00\x00\x00\x00\x00'
NtbsS'order'
p1251
g1162
(g1163
g1158
g1164
S'b'
tRp1252
(I1
(I96
I1
tg1166
I00
S'\x00\x00\\B\x00\x00@A\x00\x00\x00@\x00\x00\xa8A\x00\x00\x80B\x00\x00(B\x00\x00\xbcB\x00\x00lB\x00\x00|B\x00\x00\xa8B\x00\x00\x80?\x00\x00\xf8A\x00\x00@@\x00\x00\x00\x00\x00\x00LB\x00\x00`A\x00\x00\xaaB\x00\x00\xb0B\x00\x00\x18B\x00\x00\x96B\x00\x00\xa6B\x00\x00TB\x00\x00\xbeB\x00\x00HB\x00\x00\x86B\x00\x00\x84B\x00\x00\xc0A\x00\x00$B\x00\x00pA\x00\x00\xc0@\x00\x004B\x00\x00\xb8A\x00\x00\x9cB\x00\x00\xd0A\x00\x00\xb0A\x00\x00\xa0A\x00\x00tB\x00\x00\xc8A\x00\x00\x90A\x00\x00\xe0@\x00\x00\x8cB\x00\x00\x9aB\x00\x00\xb2B\x00\x00\x14B\x00\x00\x8eB\x00\x00\x08B\x00\x00\x9eB\x00\x00 A\x00\x00\xa4B\x00\x00\xe8A\x00\x00\x04B\x00\x00\x10A\x00\x00\xacB\x00\x00 B\x00\x00\x92B\x00\x00\x80@\x00\x00\x88B\x00\x00`B\x00\x00pB\x00\x00\x00A\x00\x00\x90B\x00\x00\x1cB\x00\x00\xa2B\x00\x00xB\x00\x00\x88A\x00\x008B\x00\x00PB\x00\x00\xb8B\x00\x00\x80A\x00\x00\xbaB\x00\x00hB\x00\x00\x98A\x00\x00\x10B\x00\x00\x94B\x00\x00\x8aB\x00\x00\x82B\x00\x00<B\x00\x00\xa0B\x00\x00@B\x00\x00PA\x00\x00\xb4B\x00\x00\xa0@\x00\x00\xe0A\x00\x00\x00B\x00\x00DB\x00\x00\xaeB\x00\x00dB\x00\x00XB\x00\x00\xd8A\x00\x00\xb6B\x00\x000A\x00\x00\x98B\x00\x000B\x00\x00,B\x00\x00\x0cB\x00\x00\xf0A'
S'\x00\x00\x00\x00\x00\x00\x00\x00\x00\x00\x00\x00\x00\x00\x00\x00\x00\x00\x00\x00\x00\x00\x00\x00\x00\x00\x00\x00\x00\x00\x00\x00\x00\x00\x00\x00\x00\x00\x00\x00\x00\x00\x00\x00\x00\x00\x00\x00\x00\x00\x00\x00\x00\x00\x00\x00\x00\x00\x00\x00\x00\x00\x00\x00\x00\x00\x00\x00\x00\x00\x00\x00\x00\x00\x00\x00\x00\x00\x00\x00\x00\x00\x00\x00\x00\x00\x00\x00\x00\x00\x00\x00\x00\x00\x00\x00'
Ntbsg19
g1162
(g1163
g1158
g1164
S'b'
tRp1253
(I1
(I96
I1
tg1166
I00
S'\x00\x00\x00\x00\x00\x00\x80?\x00\x00\x80?\x00\x00\x80?\x00\x00\x00\x00\x00\x00\x80?\x00\x00\x80?\x00\x00\x80?\x00\x00\x00\x00\x00\x00\x80?\x00\x00\x00\x00\x00\x00\x80?\x00\x00\x00\x00\x00\x00\x00\x00\x00\x00\x80?\x00\x00\x00\x00\x00\x00\x80?\x00\x00\x80?\x00\x00\x00\x00\x00\x00\x00\x00\x00\x00\x00\x00\x00\x00\x00\x00\x00\x00\x80?\x00\x00\x80?\x00\x00\x80?\x00\x00\x80?\x00\x00\x00\x00\x00\x00\x00\x00\x00\x00\x80?\x00\x00\x00\x00\x00\x00\x00\x00\x00\x00\x80?\x00\x00\x80?\x00\x00\x80?\x00\x00\x80?\x00\x00\x80?\x00\x00\x80?\x00\x00\x80?\x00\x00\x80?\x00\x00\x00\x00\x00\x00\x80?\x00\x00\x00\x00\x00\x00\x00\x00\x00\x00\x80?\x00\x00\x80?\x00\x00\x80?\x00\x00\x80?\x00\x00\x00\x00\x00\x00\x80?\x00\x00\x80?\x00\x00\x80?\x00\x00\x80?\x00\x00\x80?\x00\x00\x00\x00\x00\x00\x80?\x00\x00\x80?\x00\x00\x80?\x00\x00\x80?\x00\x00\x00\x00\x00\x00\x80?\x00\x00\x00\x00\x00\x00\x00\x00\x00\x00\x80?\x00\x00\x80?\x00\x00\x80?\x00\x00\x00\x00\x00\x00\x00\x00\x00\x00\x00\x00\x00\x00\x80?\x00\x00\x00\x00\x00\x00\x80?\x00\x00\x80?\x00\x00\x80?\x00\x00\x00\x00\x00\x00\x00\x00\x00\x00\x80?\x00\x00\x00\x00\x00\x00\x80?\x00\x00\x80?\x00\x00\x00\x00\x00\x00\x00\x00\x00\x00\x80?\x00\x00\x00\x00\x00\x00\x80?\x00\x00\x00\x00\x00\x00\x80?\x00\x00\x00\x00\x00\x00\x80?\x00\x00\x80?\x00\x00\x80?\x00\x00\x00\x00\x00\x00\x80?\x00\x00\x80?\x00\x00\x80?\x00\x00\x80?\x00\x00\x00\x00'
S'\x00\x00\x00\x00\x00\x00\x00\x00\x00\x00\x00\x00\x00\x00\x00\x00\x00\x00\x00\x00\x00\x00\x00\x00\x00\x00\x00\x00\x00\x00\x00\x00\x00\x00\x00\x00\x00\x00\x00\x00\x00\x00\x00\x00\x00\x00\x00\x00\x00\x00\x00\x00\x00\x00\x00\x00\x00\x00\x00\x00\x00\x00\x00\x00\x00\x00\x00\x00\x00\x00\x00\x00\x00\x00\x00\x00\x00\x00\x00\x00\x00\x00\x00\x00\x00\x00\x00\x00\x00\x00\x00\x00\x00\x00\x00\x00'
Ntbsg27
g1157
(g1158
(I0
tS'b'
tRp1254
(I1
(I96
I1
tg1160
I00
(lp1255
g694
ag217
ag104
ag319
ag793
ag551
ag1123
ag738
ag782
ag1013
ag91
ag430
ag116
ag76
ag650
ag239
ag1024
ag1057
ag507
ag914
ag1002
ag672
ag1134
ag639
ag826
ag815
ag352
ag540
ag250
ag150
ag584
ag341
ag947
ag374
ag330
ag307
ag760
ag363
ag284
ag161
ag859
ag936
ag1068
ag496
ag870
ag463
ag958
ag195
ag991
ag408
ag452
ag184
ag1035
ag529
ag892
ag128
ag837
ag705
ag749
ag173
ag881
ag518
ag980
ag771
ag273
ag595
ag661
ag1101
ag261
ag1112
ag727
ag296
ag485
ag903
ag848
ag804
ag606
ag969
ag617
ag228
ag1079
ag139
ag397
ag441
ag628
ag1046
ag716
ag683
ag386
ag1090
ag206
ag925
ag573
ag562
ag474
ag419
atbsg23
g1157
(g1158
(I0
tS'b'
tRp1256
(I1
(I96
I1
tg1160
I00
(lp1257
S'1'
aS'3'
aS'3'
aS'3'
aS'1'
aS'3'
aS'3'
aS'3'
aS'1'
aS'3'
aS'2'
aS'1'
aS'1'
aS'2'
aS'1'
aS'1'
aS'2'
aS'3'
aS'2'
aS'1'
aS'1'
aS'1'
aS'3'
aS'3'
aS'1'
aS'2'
aS'1'
aS'1'
aS'2'
aS'2'
aS'1'
aS'3'
aS'2'
aS'3'
aS'1'
aS'3'
aS'3'
aS'2'
aS'2'
aS'1'
aS'3'
aS'1'
aS'2'
aS'3'
aS'3'
aS'1'
aS'2'
aS'2'
aS'2'
aS'3'
aS'2'
aS'2'
aS'1'
aS'2'
aS'3'
aS'3'
aS'2'
aS'3'
aS'1'
aS'2'
aS'1'
aS'1'
aS'1'
aS'3'
aS'2'
aS'3'
aS'2'
aS'2'
aS'1'
aS'1'
aS'3'
aS'1'
aS'1'
aS'3'
aS'1'
aS'3'
aS'1'
aS'2'
aS'3'
aS'2'
aS'1'
aS'2'
aS'1'
aS'2'
aS'1'
aS'2'
aS'1'
aS'3'
aS'1'
aS'3'
aS'1'
aS'3'
aS'2'
aS'3'
aS'2'
aS'2'
atbsg18
g1162
(g1163
g1158
g1164
S'b'
tRp1258
(I1
(I96
I1
tg1166
I00
S'#\x8d\xbbC\xac\x8e\xc2B\xea\x8f\x9eAq\xf0!C\xa6d\xd3C\xcal\x98CI(\x11DS\x83\xc5C\x9d?\xd1CA\xbc\x04D\xe6{NAN"iCa\xe9\xd0A\x11\xf0\x9f@Ym\xb0C\n_\xdbB_\xe1\x05D\xf1l\tD\x19u\x89CUL\xf1C\x0f\x99\x03D\xb1p\xb6C\x8ck\x12D\x8c \xaeC\xfac\xdbC\x82\x87\xd8C*\x1b<C8>\x95CNN\xebBc~CB\xfe \xa1C)77Cx(\xf8C\x9aRHC,\xac,C7\xb7\x1bCb\x04\xccC\xa9\x99BC\xf1\xc5\x0cC\x94=bB\xc5J\xe5C\x8a\xd6\xf5C\x84\x86\nDf\xfb\x86C\x95S\xe7C\x99\xfbzCMa\xfbC\xce?\xa3Box\x02D\x0c\x19]C\xcf\xbftC\xb8~\x93Be\xef\x06D\xe9\x19\x92C}\x9f\xecCd}\nB\x07q\xe0CBH\xbeC\xd8\x88\xc8C~C\x7fB/5\xeaC\ri\x8fC\r\xec\x00D\xf5\xb3\xceCU\xb8\x06C\xf2i\xa3C\xf0\x92\xb3C\xfa<\x0fD\x8f9\xfdB35\x10D\xd3.\xc3Ci\x93\x12C\xf0Y\x84C.\xde\xeeCP\xe4\xe2CF\xbe\xd5C\xfbH\xa6C_\xf3\xfdC/\xe0\xa8CL\xf6\xcdB\t\xf6\x0bD\xd7\xf0!B\x03\x9eSC]jnC\xee\x82\xabC8W\x08D\x90\xb2\xc0CW@\xb9C<\xd8MCA\'\x0eDx>\xb3B>\xa7\xf3C_\x0f\x9dC\x9c\xb0\x9aC$U\x80C\x88#bC'
S'\x00\x00\x00\x00\x00\x00\x00\x00\x00\x00\x00\x00\x00\x00\x00\x00\x00\x00\x00\x00\x00\x00\x00\x00\x00\x00\x00\x00\x00\x00\x00\x00\x00\x00\x00\x00\x00\x00\x00\x00\x00\x00\x00\x00\x00\x00\x00\x00\x00\x00\x00\x00\x00\x00\x00\x00\x00\x00\x00\x00\x00\x00\x00\x00\x00\x00\x00\x00\x00\x00\x00\x00\x00\x00\x00\x00\x00\x00\x00\x00\x00\x00\x00\x00\x00\x00\x00\x00\x00\x00\x00\x00\x00\x00\x00\x00'
Ntbsg25
g1162
(g1163
g1158
g1164
S'b'
tRp1259
(I1
(I96
I1
tg1166
I00
S'\xfc\xa3\xa1?\xd7\xa5\xe5?s\xfd\x07@\x9b\xe6\xab@\xf7\xb3\xb3>\xe0\nC?_I\x89?\x8e\xd6\x0b@J\x03\xe7>\x9f)\r?0\xd5-@\xa6e\x97?\xbdE\t@\xfdI\x7f@e\xc8\x04@\xe0\x1e\r@\xdc\xbf\xdc>\xac\x03\xe7>\xcd\xfb\x90?\x9d\x19\x9f>7\xf6\xbd>\x9br\xb7?v\x08\x08?\xd1\x15l?\x92\xb0l@\x85\x0c~?\xf0\x8c\x93?\x94\xe7\xb4?y$\xc8?9!H@\xfb\x1f\x1f?\xe6\xf1\xa2?<\xf6\xbd>\xfb\xb0\xd3?\xf9`\xa0?\xf3\xd6\xcf?\x9b\xcf\x9d?&F\xcd?\x1d\x11\x06@*\xf1\xa2?!\x9e\xd7>\x0b\xbdW>"\x17l?\xccN\x80?\xfd\xdb\x02@.\xb2\\?\x16\x18\x9f?\xc8g\xd2?\xd2U\x00?a\x9e\xb3?\x01\x94\xc5?\x80\xb5\xca?M2\xf1>\xe5\xdc\xc6?\xda}@?\x1f\xc0\xb8?\x94\r~?\xda!Z?\xca\xe4\x12@J\x8e\n@\x89p\xa9>q!Z?\x9d%\xec>\x88\xbfs?\x1fV\xb2?:\xc5\xaf? W\xb2?\xd2\xca\x8f>\xe2"&@VO\xa4>J\nC?M\x8e\xce?\x81\xda\x8b?K\xd1&?\xe8\xbcJ?\xf4\x93\xbc?Q\x8e\x1c?\rC_?\x00C_?\xb8\x83\x1c@x\n\xf5?\x84\n\xf5?\x10[\xa0@\x16D\x92?\xc4\x98\n?\xe0\xe6\x02?\x01r\xa9>\xb6\xfd\x19?\x0b\xd7\xcf?s\xe6\x02?\x92\x8e\xce?\x90\x08\x08?]\xf1\xa2?~D_?[\xfd\x07@\xbf\x9a3@'
S'\x00\x00\x00\x00\x00\x00\x00\x00\x00\x00\x00\x00\x00\x00\x00\x00\x00\x00\x00\x00\x00\x00\x00\x00\x00\x00\x00\x00\x00\x00\x00\x00\x00\x00\x00\x00\x00\x00\x00\x00\x00\x00\x00\x00\x00\x00\x00\x00\x00\x00\x00\x00\x00\x00\x00\x00\x00\x00\x00\x00\x00\x00\x00\x00\x00\x00\x00\x00\x00\x00\x00\x00\x00\x00\x00\x00\x00\x00\x00\x00\x00\x00\x00\x00\x00\x00\x00\x00\x00\x00\x00\x00\x00\x00\x00\x00'
NtbstRp1260
(dp1261
S'isNumeric'
p1262
(dp1263
g23
I00
sg20
I00
sg17
I01
sg1167
I01
sg22
I01
sg24
I01
sg14
I01
sg18
I01
sg16
I00
sg19
I01
sg26
I00
sg27
I00
sg15
I00
sg21
I01
sg1251
I01
sg25
I01
ssg1151
g1145
sS'dataTypes'
p1264
(lp1265
g1167
ag1251
ag14
ag15
ag16
ag17
ag18
ag19
ag20
ag21
ag22
ag23
ag24
ag25
ag26
ag27
asS'dataShape'
p1266
(lp1267
I96
aI1
asbsS'method'
p1268
S'random'
p1269
sS'sequenceIndices'
p1270
g1157
(g1158
(I0
tS'b'
tRp1271
(I1
(I96
I1
tg80
I01
S'\r\x00\x00\x00\n\x00\x00\x00\x02\x00\x00\x00\x0c\x00\x00\x007\x00\x00\x00Q\x00\x00\x00\x1d\x00\x00\x00\'\x00\x00\x00;\x00\x00\x003\x00\x00\x00/\x00\x00\x00Z\x00\x00\x00\x01\x00\x00\x00O\x00\x00\x00\x0f\x00\x00\x00\x1c\x00\x00\x00D\x00\x00\x00@\x00\x00\x00&\x00\x00\x00G\x00\x00\x00#\x00\x00\x00\x03\x00\x00\x00"\x00\x00\x00\x1f\x00\x00\x00\x1a\x00\x00\x00%\x00\x00\x00!\x00\x00\x00X\x00\x00\x00R\x00\x00\x001\x00\x00\x00_\x00\x00\x00\x0b\x00\x00\x00S\x00\x00\x002\x00\x00\x00-\x00\x00\x00^\x00\x00\x00H\x00\x00\x00+\x00\x00\x00\x12\x00\x00\x00=\x00\x00\x005\x00\x00\x00\x1b\x00\x00\x00\x05\x00\x00\x00]\x00\x00\x00\\\x00\x00\x00\x1e\x00\x00\x00A\x00\x00\x00L\x00\x00\x00N\x00\x00\x00T\x00\x00\x00\x17\x00\x00\x00\x0e\x00\x00\x00B\x00\x00\x00\x15\x00\x00\x00W\x00\x00\x00\x00\x00\x00\x009\x00\x00\x00V\x00\x00\x00F\x00\x00\x00\x07\x00\x00\x00:\x00\x00\x00$\x00\x00\x00?\x00\x00\x00\x08\x00\x00\x00\x04\x00\x00\x00K\x00\x00\x00\x19\x00\x00\x00\x18\x00\x00\x008\x00\x00\x00J\x00\x00\x00(\x00\x00\x00,\x00\x00\x00<\x00\x00\x006\x00\x00\x00I\x00\x00\x00\x13\x00\x00\x00[\x00\x00\x00)\x00\x00\x00 \x00\x00\x00.\x00\x00\x00M\x00\x00\x00>\x00\x00\x000\x00\x00\x00\x14\x00\x00\x00\t\x00\x00\x00\x10\x00\x00\x004\x00\x00\x00U\x00\x00\x00\x11\x00\x00\x00*\x00\x00\x00P\x00\x00\x00Y\x00\x00\x00C\x00\x00\x00E\x00\x00\x00\x06\x00\x00\x00\x16\x00\x00\x00'
tbsS'finished'
p1272
I01
sS'nReps'
p1273
I1
sS'nRemaining'
p1274
I-1
sS'trialList'
p1275
(lp1276
g1
(cpsychopy.data
TrialType
p1277
g1155
(dp1278
g62
g102
sg63
g700
sg64
g101
sg65
g695
sg66
g699
stRp1279
ag1
(g1277
g1155
(dp1280
g62
g74
sg63
g223
sg64
g73
sg65
g218
sg66
g222
stRp1281
ag1
(g1277
g1155
(dp1282
g62
g102
sg63
g110
sg64
g101
sg65
g105
sg66
g109
stRp1283
ag1
(g1277
g1155
(dp1284
g62
g102
sg63
g325
sg64
g317
sg65
g320
sg66
g324
stRp1285
ag1
(g1277
g1155
(dp1286
g62
g74
sg63
g799
sg64
g171
sg65
g794
sg66
g798
stRp1287
ag1
(g1277
g1155
(dp1288
g62
g102
sg63
g557
sg64
g101
sg65
g552
sg66
g556
stRp1289
ag1
(g1277
g1155
(dp1290
g62
g102
sg63
g1129
sg64
g101
sg65
g1124
sg66
g1128
stRp1291
ag1
(g1277
g1155
(dp1292
g62
g102
sg63
g744
sg64
g271
sg65
g739
sg66
g743
stRp1293
ag1
(g1277
g1155
(dp1294
g62
g102
sg63
g788
sg64
g101
sg65
g783
sg66
g787
stRp1295
ag1
(g1277
g1155
(dp1296
g62
g102
sg63
g1019
sg64
g271
sg65
g1014
sg66
g1018
stRp1297
ag1
(g1277
g1155
(dp1298
g62
g74
sg63
g97
sg64
g89
sg65
g92
sg66
g96
stRp1299
ag1
(g1277
g1155
(dp1300
g62
g102
sg63
g436
sg64
g271
sg65
g431
sg66
g435
stRp1301
ag1
(g1277
g1155
(dp1302
g62
g102
sg63
g122
sg64
g114
sg65
g117
sg66
g121
stRp1303
ag1
(g1277
g1155
(dp1304
g62
g74
sg63
g84
sg64
g73
sg65
g78
sg66
g83
stRp1305
ag1
(g1277
g1155
(dp1306
g62
g102
sg63
g656
sg64
g114
sg65
g651
sg66
g655
stRp1307
ag1
(g1277
g1155
(dp1308
g62
g102
sg63
g245
sg64
g101
sg65
g240
sg66
g244
stRp1309
ag1
(g1277
g1155
(dp1310
g62
g74
sg63
g1030
sg64
g73
sg65
g1025
sg66
g1029
stRp1311
ag1
(g1277
g1155
(dp1312
g62
g102
sg63
g1063
sg64
g114
sg65
g1058
sg66
g1062
stRp1313
ag1
(g1277
g1155
(dp1314
g62
g102
sg63
g513
sg64
g294
sg65
g508
sg66
g512
stRp1315
ag1
(g1277
g1155
(dp1316
g62
g102
sg63
g920
sg64
g101
sg65
g915
sg66
g919
stRp1317
ag1
(g1277
g1155
(dp1318
g62
g74
sg63
g1008
sg64
g73
sg65
g1003
sg66
g1007
stRp1319
ag1
(g1277
g1155
(dp1320
g62
g74
sg63
g678
sg64
g126
sg65
g673
sg66
g677
stRp1321
ag1
(g1277
g1155
(dp1322
g62
g102
sg63
g1140
sg64
g294
sg65
g1135
sg66
g1139
stRp1323
ag1
(g1277
g1155
(dp1324
g62
g74
sg63
g645
sg64
g126
sg65
g640
sg66
g644
stRp1325
ag1
(g1277
g1155
(dp1326
g62
g74
sg63
g832
sg64
g89
sg65
g827
sg66
g831
stRp1327
ag1
(g1277
g1155
(dp1328
g62
g102
sg63
g821
sg64
g384
sg65
g816
sg66
g820
stRp1329
ag1
(g1277
g1155
(dp1330
g62
g74
sg63
g358
sg64
g171
sg65
g353
sg66
g357
stRp1331
ag1
(g1277
g1155
(dp1332
g62
g74
sg63
g546
sg64
g73
sg65
g541
sg66
g545
stRp1333
ag1
(g1277
g1155
(dp1334
g62
g102
sg63
g256
sg64
g114
sg65
g251
sg66
g255
stRp1335
ag1
(g1277
g1155
(dp1336
g62
g102
sg63
g156
sg64
g101
sg65
g151
sg66
g155
stRp1337
ag1
(g1277
g1155
(dp1338
g62
g102
sg63
g590
sg64
g294
sg65
g585
sg66
g589
stRp1339
ag1
(g1277
g1155
(dp1340
g62
g102
sg63
g347
sg64
g294
sg65
g342
sg66
g346
stRp1341
ag1
(g1277
g1155
(dp1342
g62
g74
sg63
g953
sg64
g73
sg65
g948
sg66
g952
stRp1343
ag1
(g1277
g1155
(dp1344
g62
g74
sg63
g380
sg64
g171
sg65
g375
sg66
g379
stRp1345
ag1
(g1277
g1155
(dp1346
g62
g74
sg63
g336
sg64
g171
sg65
g331
sg66
g335
stRp1347
ag1
(g1277
g1155
(dp1348
g62
g102
sg63
g313
sg64
g114
sg65
g308
sg66
g312
stRp1349
ag1
(g1277
g1155
(dp1350
g62
g102
sg63
g766
sg64
g384
sg65
g761
sg66
g765
stRp1351
ag1
(g1277
g1155
(dp1352
g62
g102
sg63
g369
sg64
g317
sg65
g364
sg66
g368
stRp1353
ag1
(g1277
g1155
(dp1354
g62
g74
sg63
g290
sg64
g171
sg65
g285
sg66
g289
stRp1355
ag1
(g1277
g1155
(dp1356
g62
g74
sg63
g167
sg64
g73
sg65
g162
sg66
g166
stRp1357
ag1
(g1277
g1155
(dp1358
g62
g74
sg63
g865
sg64
g73
sg65
g860
sg66
g864
stRp1359
ag1
(g1277
g1155
(dp1360
g62
g102
sg63
g942
sg64
g114
sg65
g937
sg66
g941
stRp1361
ag1
(g1277
g1155
(dp1362
g62
g74
sg63
g1074
sg64
g171
sg65
g1069
sg66
g1073
stRp1363
ag1
(g1277
g1155
(dp1364
g62
g74
sg63
g502
sg64
g126
sg65
g497
sg66
g501
stRp1365
ag1
(g1277
g1155
(dp1366
g62
g74
sg63
g876
sg64
g171
sg65
g871
sg66
g875
stRp1367
ag1
(g1277
g1155
(dp1368
g62
g74
sg63
g469
sg64
g89
sg65
g464
sg66
g468
stRp1369
ag1
(g1277
g1155
(dp1370
g62
g102
sg63
g964
sg64
g101
sg65
g959
sg66
g963
stRp1371
ag1
(g1277
g1155
(dp1372
g62
g102
sg63
g201
sg64
g101
sg65
g196
sg66
g200
stRp1373
ag1
(g1277
g1155
(dp1374
g62
g74
sg63
g997
sg64
g73
sg65
g992
sg66
g996
stRp1375
ag1
(g1277
g1155
(dp1376
g62
g74
sg63
g414
sg64
g126
sg65
g409
sg66
g413
stRp1377
ag1
(g1277
g1155
(dp1378
g62
g74
sg63
g458
sg64
g73
sg65
g453
sg66
g457
stRp1379
ag1
(g1277
g1155
(dp1380
g62
g74
sg63
g190
sg64
g171
sg65
g185
sg66
g189
stRp1381
ag1
(g1277
g1155
(dp1382
g62
g74
sg63
g1041
sg64
g126
sg65
g1036
sg66
g1040
stRp1383
ag1
(g1277
g1155
(dp1384
g62
g102
sg63
g535
sg64
g114
sg65
g530
sg66
g534
stRp1385
ag1
(g1277
g1155
(dp1386
g62
g102
sg63
g898
sg64
g271
sg65
g893
sg66
g897
stRp1387
ag1
(g1277
g1155
(dp1388
g62
g74
sg63
g134
sg64
g126
sg65
g129
sg66
g133
stRp1389
ag1
(g1277
g1155
(dp1390
g62
g74
sg63
g843
sg64
g171
sg65
g838
sg66
g842
stRp1391
ag1
(g1277
g1155
(dp1392
g62
g74
sg63
g711
sg64
g171
sg65
g706
sg66
g710
stRp1393
ag1
(g1277
g1155
(dp1394
g62
g102
sg63
g755
sg64
g114
sg65
g750
sg66
g754
stRp1395
ag1
(g1277
g1155
(dp1396
g62
g74
sg63
g179
sg64
g171
sg65
g174
sg66
g178
stRp1397
ag1
(g1277
g1155
(dp1398
g62
g74
sg63
g887
sg64
g171
sg65
g882
sg66
g886
stRp1399
ag1
(g1277
g1155
(dp1400
g62
g74
sg63
g524
sg64
g171
sg65
g519
sg66
g523
stRp1401
ag1
(g1277
g1155
(dp1402
g62
g102
sg63
g986
sg64
g384
sg65
g981
sg66
g985
stRp1403
ag1
(g1277
g1155
(dp1404
g62
g74
sg63
g777
sg64
g171
sg65
g772
sg66
g776
stRp1405
ag1
(g1277
g1155
(dp1406
g62
g102
sg63
g279
sg64
g271
sg65
g274
sg66
g278
stRp1407
ag1
(g1277
g1155
(dp1408
g62
g74
sg63
g601
sg64
g126
sg65
g596
sg66
g600
stRp1409
ag1
(g1277
g1155
(dp1410
g62
g102
sg63
g667
sg64
g294
sg65
g662
sg66
g666
stRp1411
ag1
(g1277
g1155
(dp1412
g62
g74
sg63
g1107
sg64
g171
sg65
g1102
sg66
g1106
stRp1413
ag1
(g1277
g1155
(dp1414
g62
g74
sg63
g267
sg64
g73
sg65
g262
sg66
g266
stRp1415
ag1
(g1277
g1155
(dp1416
g62
g102
sg63
g1118
sg64
g101
sg65
g1113
sg66
g1117
stRp1417
ag1
(g1277
g1155
(dp1418
g62
g74
sg63
g733
sg64
g171
sg65
g728
sg66
g732
stRp1419
ag1
(g1277
g1155
(dp1420
g62
g102
sg63
g302
sg64
g294
sg65
g297
sg66
g301
stRp1421
ag1
(g1277
g1155
(dp1422
g62
g102
sg63
g491
sg64
g384
sg65
g486
sg66
g490
stRp1423
ag1
(g1277
g1155
(dp1424
g62
g74
sg63
g909
sg64
g89
sg65
g904
sg66
g908
stRp1425
ag1
(g1277
g1155
(dp1426
g62
g74
sg63
g854
sg64
g171
sg65
g849
sg66
g853
stRp1427
ag1
(g1277
g1155
(dp1428
g62
g74
sg63
g810
sg64
g126
sg65
g805
sg66
g809
stRp1429
ag1
(g1277
g1155
(dp1430
g62
g102
sg63
g612
sg64
g271
sg65
g607
sg66
g611
stRp1431
ag1
(g1277
g1155
(dp1432
g62
g102
sg63
g975
sg64
g294
sg65
g970
sg66
g974
stRp1433
ag1
(g1277
g1155
(dp1434
g62
g102
sg63
g623
sg64
g101
sg65
g618
sg66
g622
stRp1435
ag1
(g1277
g1155
(dp1436
g62
g74
sg63
g234
sg64
g171
sg65
g229
sg66
g233
stRp1437
ag1
(g1277
g1155
(dp1438
g62
g74
sg63
g1085
sg64
g126
sg65
g1080
sg66
g1084
stRp1439
ag1
(g1277
g1155
(dp1440
g62
g102
sg63
g145
sg64
g101
sg65
g140
sg66
g144
stRp1441
ag1
(g1277
g1155
(dp1442
g62
g74
sg63
g403
sg64
g73
sg65
g398
sg66
g402
stRp1443
ag1
(g1277
g1155
(dp1444
g62
g102
sg63
g447
sg64
g294
sg65
g442
sg66
g446
stRp1445
ag1
(g1277
g1155
(dp1446
g62
g74
sg63
g634
sg64
g73
sg65
g629
sg66
g633
stRp1447
ag1
(g1277
g1155
(dp1448
g62
g74
sg63
g1052
sg64
g171
sg65
g1047
sg66
g1051
stRp1449
ag1
(g1277
g1155
(dp1450
g62
g102
sg63
g722
sg64
g271
sg65
g717
sg66
g721
stRp1451
ag1
(g1277
g1155
(dp1452
g62
g102
sg63
g689
sg64
g271
sg65
g684
sg66
g688
stRp1453
ag1
(g1277
g1155
(dp1454
g62
g102
sg63
g392
sg64
g384
sg65
g387
sg66
g391
stRp1455
ag1
(g1277
g1155
(dp1456
g62
g102
sg63
g1096
sg64
g384
sg65
g1091
sg66
g1095
stRp1457
ag1
(g1277
g1155
(dp1458
g62
g74
sg63
g212
sg64
g73
sg65
g207
sg66
g211
stRp1459
ag1
(g1277
g1155
(dp1460
g62
g102
sg63
g931
sg64
g271
sg65
g926
sg66
g930
stRp1461
ag1
(g1277
g1155
(dp1462
g62
g102
sg63
g579
sg64
g384
sg65
g574
sg66
g578
stRp1463
ag1
(g1277
g1155
(dp1464
g62
g102
sg63
g568
sg64
g101
sg65
g563
sg66
g567
stRp1465
ag1
(g1277
g1155
(dp1466
g62
g74
sg63
g480
sg64
g126
sg65
g475
sg66
g479
stRp1467
ag1
(g1277
g1155
(dp1468
g62
g74
sg63
g425
sg64
g73
sg65
g420
sg66
g424
stRp1469
asS'seed'
p1470
NsS'thisIndex'
p1471
g1137
sS'thisN'
p1472
I96
sS'thisTrialN'
p1473
I0
sS'nTotal'
p1474
I96
sS'_warnUseOfNext'
p1475
I01
sbasS'savePickle'
p1476
I00
sb.