ccopy_reg
_reconstructor
p1
(cpsychopy.data
ExperimentHandler
p2
c__builtin__
object
p3
NtRp4
(dp5
S'originPath'
p6
NsS'dataFileName'
p7
VC:\u005cDocuments and Settings\u005cExperimental user\u005cMy Documents\u005cconsciousness\u005cuncon_feat\u005cexperiment_scripts\u005cdata/alba_Experiment_EEG_version_2019_jun_13_1045
p8
sS'runtimeInfo'
p9
NsS'name'
p10
VExperiment_EEG_version
p11
sS'dataNames'
p12
(lp13
S'image_onset_time'
p14
aS'response_window'
p15
aS'correctAns'
p16
aS'probe_onset'
p17
aS'discrim_resptime'
p18
aS'response.corr'
p19
aS'response.keys'
p20
aS'response.rt'
p21
aS'visible_resptime'
p22
aS'visible.keys'
p23
aS'visible.corr'
p24
aS'visible.rt'
p25
aS'probeFrames'
p26
aS'jitter2'
p27
asS'autoLog'
p28
I01
sS'extraInfo'
p29
(dp30
Vn_square
p31
V32
p32
sVexperiment_color
p33
Vbw
p34
sS'frameRate'
p35
cnumpy.core.multiarray
scalar
p36
(cnumpy
dtype
p37
(S'f8'
I0
I1
tRp38
(I3
S'<'
NNNI-1
I-1
I0
tbS'\xc5)\xaf:\x07\xf2X@'
tRp39
sS'date'
p40
V2019_jun_13_1045
p41
sVsession
p42
V018
p43
sVimage_size
p44
V256
p45
sVpremask_dur
p46
V20
p47
sVprobeFrames
p48
V5
sVparticipant
p49
Valba
p50
sS'expName'
p51
g11
sVpostmask_dur
p52
V20
p53
ssS'loopsUnfinished'
p54
(lp55
sS'saveWideText'
p56
I00
sS'thisEntry'
p57
(dp58
sS'version'
p59
S''
sS'_paramNamesSoFar'
p60
(lp61
S'category'
p62
aS'probe_path'
p63
aS'subcategory'
p64
aS'fixation_duration'
p65
aS'label'
p66
asS'entries'
p67
(lp68
(dp69
g31
g32
sg17
F3.7373789977282286
sg24
I1
sg35
g39
sg14
F3.7167507102712989
sg16
g36
(g37
(S'i4'
I0
I1
tRp70
(I3
S'<'
NNNI-1
I-1
I0
tbS'\x01\x00\x00\x00'
tRp71
sg42
g43
sg46
g47
sg15
S'V_nV'
p72
sg22
F5.371271691750735
sg64
VBirds
p73
sg62
VLiving_Things
p74
sg49
g50
sS'trials.thisN'
p75
I0
sg19
I1
sg27
g36
(g38
S'\x00\x00\x00\x00\x00\x00\x18@'
tRp76
sg52
g53
sg23
S'1'
sg18
F4.9994401861913502
sg33
g34
sg51
g11
sg20
S'1'
sg65
g36
(g37
(S'i8'
I0
I1
tRp77
(I3
S'<'
NNNI-1
I-1
I0
tbS'\x00\x00\x00\x00\x00\x00\x00\x00'
tRp78
sg44
g45
sg40
g41
sg25
F0.18060686811804771
sS'trials.thisIndex'
p79
g36
(g37
(S'i4'
I0
I1
tRp80
(I3
S'<'
NNNI-1
I-1
I0
tbS'?\x00\x00\x00'
tRp81
sg26
V5
sS'trials.thisRepN'
p82
I0
sg66
Vpigeon
p83
sg63
V../experiment_stimuli/bw_bc_bl/Living_Things/Birds/pigeon_17.jpg
p84
sg21
F0.34097725246101618
sS'trials.thisTrialN'
p85
I0
sa(dp86
g31
g32
sg17
F7.2893733610399067
sg24
I0
sg35
g39
sg14
F7.284504858776927
sg16
g36
(g70
S'\x02\x00\x00\x00'
tRp87
sg42
g43
sg46
g47
sg15
S'nV_V'
p88
sg22
F9.7605408532544971
sg64
VMarine_creatures
p89
sg62
g74
sg49
g50
sS'trials.thisN'
p90
I1
sg19
I1
sg27
g36
(g38
S'\x00\x00\x00\x00\x00\x00\x1a@'
tRp91
sg52
g53
sg23
S'3'
sg18
F8.5872352886945009
sg33
g34
sg51
g11
sg20
S'2'
sg65
g36
(g77
S'\x00\x00\x00\x00\x00\x00\x00\x00'
tRp92
sg44
g45
sg40
g41
sg25
F0.21068612532690167
sS'trials.thisIndex'
p93
g36
(g80
S'+\x00\x00\x00'
tRp94
sg26
V5
sS'trials.thisRepN'
p95
I0
sg66
Vkiller-whale
p96
sg63
V../experiment_stimuli/bw_bc_bl/Living_Things/Marine_creatures/killer-whale_22.jpg
p97
sg21
F1.1527514229528606
sS'trials.thisTrialN'
p98
I1
sa(dp99
g31
g32
sg17
F11.709011516068131
sg24
I0
sg35
g39
sg14
F11.704108112491667
sg16
g36
(g70
S'\x02\x00\x00\x00'
tRp100
sg42
g43
sg46
g47
sg15
g88
sg22
F13.428478529676795
sg64
VInsects
p101
sg62
g74
sg49
g50
sS'trials.thisN'
p102
I2
sg19
I1
sg27
g36
(g38
S'\x00\x00\x00\x00\x00\x00\x18@'
tRp103
sg52
g53
sg23
S'3'
sg18
F12.986796175129712
sg33
g34
sg51
g11
sg20
S'2'
sg65
g36
(g77
S'\x00\x00\x00\x00\x00\x00\x00\x00'
tRp104
sg44
g45
sg40
g41
sg25
F0.22054614964872599
sS'trials.thisIndex'
p105
g36
(g80
S'-\x00\x00\x00'
tRp106
sg26
V5
sS'trials.thisRepN'
p107
I0
sg66
Vladybird
p108
sg63
V../experiment_stimuli/bw_bc_bl/Living_Things/Insects/ladybird_16.jpg
p109
sg21
F0.42113965284079313
sS'trials.thisTrialN'
p110
I2
sa(dp111
g31
g32
sg17
F15.387912516482174
sg24
I0
sg35
g39
sg14
F15.382106607314199
sg16
g36
(g70
S'\x02\x00\x00\x00'
tRp112
sg42
g43
sg46
g47
sg15
g88
sg22
F17.106334262993187
sg64
g73
sg62
g74
sg49
g50
sS'trials.thisN'
p113
I3
sg19
I1
sg27
g36
(g38
S'\x00\x00\x00\x00\x00\x00\x18@'
tRp114
sg52
g53
sg23
S'3'
sg18
F16.634737239219248
sg33
g34
sg51
g11
sg20
S'2'
sg65
g36
(g77
S'\x00\x00\x00\x00\x00\x00\x00\x00'
tRp115
sg44
g45
sg40
g41
sg25
F0.15054792305454612
sS'trials.thisIndex'
p116
g36
(g80
S'U\x00\x00\x00'
tRp117
sg26
V5
sS'trials.thisRepN'
p118
I0
sg66
Vtoucan
p119
sg63
V../experiment_stimuli/bw_bc_bl/Living_Things/Birds/toucan_9.jpg
p120
sg21
F0.4510445250198245
sS'trials.thisTrialN'
p121
I3
sa(dp122
g31
g32
sg17
F18.994898254051805
sg24
I1
sg35
g39
sg14
F18.989951956085861
sg16
g36
(g70
S'\x01\x00\x00\x00'
tRp123
sg42
g43
sg46
g47
sg15
g88
sg22
F20.303466918878257
sg64
VKitchen_Uten
p124
sg62
VNonliving_Things
p125
sg49
g50
sS'trials.thisN'
p126
I4
sg19
I1
sg27
g36
(g38
S'\x00\x00\x00\x00\x00\x00\x1a@'
tRp127
sg52
g53
sg23
S'1'
sg18
F20.222524458076805
sg33
g34
sg51
g11
sg20
S'1'
sg65
g36
(g77
S'\x00\x00\x00\x00\x00\x00\x00\x00'
tRp128
sg44
g45
sg40
g41
sg25
F0.2006524121388793
sS'trials.thisIndex'
p129
g36
(g80
S'\x1e\x00\x00\x00'
tRp130
sg26
V5
sS'trials.thisRepN'
p131
I0
sg66
Vfondue
p132
sg63
V../experiment_stimuli/bw_bc_bl/Nonliving_Things/Kitchen_Uten/fondue_17.jpg
p133
sg21
F0.060377778019756079
sS'trials.thisTrialN'
p134
I4
sa(dp135
g31
g32
sg17
F22.242712330538779
sg24
I1
sg35
g39
sg14
F22.237007611431181
sg16
g36
(g70
S'\x02\x00\x00\x00'
tRp136
sg42
g43
sg46
g47
sg15
g88
sg22
F23.520433486439288
sg64
g73
sg62
g74
sg49
g50
sS'trials.thisN'
p137
I5
sg19
I0
sg27
g36
(g38
S'\x00\x00\x00\x00\x00\x00\x18@'
tRp138
sg52
g53
sg23
S'1'
sg18
F23.479608909226954
sg33
g34
sg51
g11
sg20
S'1'
sg65
g36
(g77
S'\x00\x00\x00\x00\x00\x00\x00\x00'
tRp139
sg44
g45
sg40
g41
sg25
F0.20065227663144469
sS'trials.thisIndex'
p140
g36
(g80
S'\x1a\x00\x00\x00'
tRp141
sg26
V5
sS'trials.thisRepN'
p142
I0
sg66
Vduck
p143
sg63
V../experiment_stimuli/bw_bc_bl/Living_Things/Birds/duck_2.jpg
p144
sg21
F0.02027220232412219
sS'trials.thisTrialN'
p145
I5
sa(dp146
g31
g32
sg17
F25.458869382739067
sg24
I0
sg35
g39
sg14
F25.453993362374604
sg16
g36
(g70
S'\x02\x00\x00\x00'
tRp147
sg42
g43
sg46
g47
sg15
g88
sg22
F28.180577257182449
sg64
g73
sg62
g74
sg49
g50
sS'trials.thisN'
p148
I6
sg19
I1
sg27
g36
(g38
S'\x00\x00\x00\x00\x00\x00\x18@'
tRp149
sg52
g53
sg23
S'3'
sg18
F26.716640132945031
sg33
g34
sg51
g11
sg20
S'2'
sg65
g36
(g77
S'\x00\x00\x00\x00\x00\x00\x00\x00'
tRp150
sg44
g45
sg40
g41
sg25
F0.38175509264692664
sS'trials.thisIndex'
p151
g36
(g80
S'J\x00\x00\x00'
tRp152
sg26
V5
sS'trials.thisRepN'
p153
I0
sg66
Vseagull
p154
sg63
V../experiment_stimuli/bw_bc_bl/Living_Things/Birds/seagull_5.jpg
p155
sg21
F1.4433782799169421
sS'trials.thisTrialN'
p156
I6
sa(dp157
g31
g32
sg17
F30.300022741779685
sg24
I1
sg35
g39
sg14
F30.294536948204041
sg16
g36
(g70
S'\x01\x00\x00\x00'
tRp158
sg42
g43
sg46
g47
sg15
g72
sg22
F31.708228510338813
sg64
VAnimals
p159
sg62
g74
sg49
g50
sS'trials.thisN'
p160
I7
sg19
I1
sg27
g36
(g38
S'\x00\x00\x00\x00\x00\x00\x1e@'
tRp161
sg52
g53
sg23
S'1'
sg18
F31.537119637709111
sg33
g34
sg51
g11
sg20
S'1'
sg65
g36
(g77
S'\x00\x00\x00\x00\x00\x00\x00\x00'
tRp162
sg44
g45
sg40
g41
sg25
F0.25076561886817217
sS'trials.thisIndex'
p163
g36
(g80
S'0\x00\x00\x00'
tRp164
sg26
V5
sS'trials.thisRepN'
p165
I0
sg66
Vlioness
p166
sg63
V../experiment_stimuli/bw_bc_bl/Living_Things/Animals/lioness_19.jpg
p167
sg21
F0.15055835526436567
sS'trials.thisTrialN'
p168
I7
sa(dp169
g31
g32
sg17
F33.696890807710588
sg24
I1
sg35
g39
sg14
F33.691902526188642
sg16
g36
(g70
S'\x01\x00\x00\x00'
tRp170
sg42
g43
sg46
g47
sg15
g72
sg22
F36.39844560995698
sg64
g73
sg62
g74
sg49
g50
sS'trials.thisN'
p171
I8
sg19
I1
sg27
g36
(g38
S'\x00\x00\x00\x00\x00\x00\x1a@'
tRp172
sg52
g53
sg23
S'1'
sg18
F34.944526289589703
sg33
g34
sg51
g11
sg20
S'1'
sg65
g36
(g77
S'\x00\x00\x00\x00\x00\x00\x00\x00'
tRp173
sg44
g45
sg40
g41
sg25
F0.20066021988168359
sS'trials.thisIndex'
p174
g36
(g80
S',\x00\x00\x00'
tRp175
sg26
V5
sS'trials.thisRepN'
p176
I0
sg66
Vkiwi
p177
sg63
V../experiment_stimuli/bw_bc_bl/Living_Things/Birds/kiwi_6.jpg
p178
sg21
F1.4333462240174413
sS'trials.thisTrialN'
p179
I8
sa(dp180
g31
g32
sg17
F38.336813515052199
sg24
I0
sg35
g39
sg14
F38.331989369820803
sg16
g36
(g70
S'\x02\x00\x00\x00'
tRp181
sg42
g43
sg46
g47
sg15
g88
sg22
F40.477306288667023
sg64
g101
sg62
g74
sg49
g50
sS'trials.thisN'
p182
I9
sg19
I1
sg27
g36
(g38
S'\x00\x00\x00\x00\x00\x00\x18@'
tRp183
sg52
g53
sg23
S'3'
sg18
F39.604665116872638
sg33
g34
sg51
g11
sg20
S'2'
sg65
g36
(g77
S'\x00\x00\x00\x00\x00\x00\x00\x00'
tRp184
sg44
g45
sg40
g41
sg25
F0.56144336517900229
sS'trials.thisIndex'
p185
g36
(g80
S'\n\x00\x00\x00'
tRp186
sg26
V5
sS'trials.thisRepN'
p187
I0
sg66
Vbutterfly
p188
sg63
V../experiment_stimuli/bw_bc_bl/Living_Things/Insects/butterfly_13.jpg
p189
sg21
F0.85208207136020064
sS'trials.thisTrialN'
p190
I9
sa(dp191
g31
g32
sg17
F42.77662451332435
sg24
I1
sg35
g39
sg14
F42.771639712154865
sg16
g36
(g70
S'\x02\x00\x00\x00'
tRp192
sg42
g43
sg46
g47
sg15
g88
sg22
F46.289944817312062
sg64
g89
sg62
g74
sg49
g50
sS'trials.thisN'
p193
I10
sg19
I0
sg27
g36
(g38
S'\x00\x00\x00\x00\x00\x00\x18@'
tRp194
sg52
g53
sg23
S'1'
sg18
F44.014245957601815
sg33
g34
sg51
g11
sg20
S'1'
sg65
g36
(g77
S'\x00\x00\x00\x00\x00\x00\x00\x00'
tRp195
sg44
g45
sg40
g41
sg25
F0.20067382557317615
sS'trials.thisIndex'
p196
g36
(g80
S'\x15\x00\x00\x00'
tRp197
sg26
V5
sS'trials.thisRepN'
p198
I0
sg66
Vcrab
p199
sg63
V../experiment_stimuli/bw_bc_bl/Living_Things/Marine_creatures/crab_18.jpg
p200
sg21
F2.2551484922878444
sS'trials.thisTrialN'
p201
I10
sa(dp202
g31
g32
sg17
F48.22838711598888
sg24
I0
sg35
g39
sg14
F48.22349246032536
sg16
g36
(g70
S'\x01\x00\x00\x00'
tRp203
sg42
g43
sg46
g47
sg15
g72
sg22
F50.489065307192504
sg64
g159
sg62
g74
sg49
g50
sS'trials.thisN'
p204
I11
sg19
I1
sg27
g36
(g38
S'\x00\x00\x00\x00\x00\x00\x1c@'
tRp205
sg52
g53
sg23
S'3'
sg18
F49.496163117233664
sg33
g34
sg51
g11
sg20
S'1'
sg65
g36
(g77
S'\x00\x00\x00\x00\x00\x00\x00\x00'
tRp206
sg44
g45
sg40
g41
sg25
F0.26080577215179801
sS'trials.thisIndex'
p207
g36
(g80
S' \x00\x00\x00'
tRp208
sg26
V5
sS'trials.thisRepN'
p209
I0
sg66
Vgiraffe
p210
sg63
V../experiment_stimuli/bw_bc_bl/Living_Things/Animals/giraffe_10.jpg
p211
sg21
F0.97234746161848307
sS'trials.thisTrialN'
p212
I11
sa(dp213
g31
g32
sg17
F52.487663470208645
sg24
I1
sg35
g39
sg14
F52.482758291997015
sg16
g36
(g70
S'\x02\x00\x00\x00'
tRp214
sg42
g43
sg46
g47
sg15
g88
sg22
F53.926513618789613
sg64
g89
sg62
g74
sg49
g50
sS'trials.thisN'
p215
I12
sg19
I0
sg27
g36
(g38
S'\x00\x00\x00\x00\x00\x00\x1a@'
tRp216
sg52
g53
sg23
S'1'
sg18
F53.725357537623495
sg33
g34
sg51
g11
sg20
S'1'
sg65
g36
(g77
S'\x00\x00\x00\x00\x00\x00\x00\x00'
tRp217
sg44
g45
sg40
g41
sg25
F2.1747866505756974
sS'trials.thisIndex'
p218
g36
(g80
S'K\x00\x00\x00'
tRp219
sg26
V5
sS'trials.thisRepN'
p220
I0
sg66
Vshark
p221
sg63
V../experiment_stimuli/bw_bc_bl/Living_Things/Marine_creatures/shark_20.jpg
p222
sg21
F0.18060983438044786
sS'trials.thisTrialN'
p223
I12
sa(dp224
g31
g32
sg17
F57.839361434336752
sg24
I0
sg35
g39
sg14
F57.834383727516979
sg16
g36
(g70
S'\x01\x00\x00\x00'
tRp225
sg42
g43
sg46
g47
sg15
g88
sg22
F60.160073352511972
sg64
VFurniture
p226
sg62
g125
sg49
g50
sS'trials.thisN'
p227
I13
sg19
I1
sg27
g36
(g38
S'\x00\x00\x00\x00\x00\x00\x18@'
tRp228
sg52
g53
sg23
S'2'
sg18
F59.087011457420886
sg33
g34
sg51
g11
sg20
S'1'
sg65
g36
(g77
S'\x00\x00\x00\x00\x00\x00\x00\x00'
tRp229
sg44
g45
sg40
g41
sg25
F0.48131021996960044
sS'trials.thisIndex'
p230
g36
(g80
S'/\x00\x00\x00'
tRp231
sg26
V5
sS'trials.thisRepN'
p232
I0
sg66
Vlectern
p233
sg63
V../experiment_stimuli/bw_bc_bl/Nonliving_Things/Furniture/lectern_24.jpg
p234
sg21
F1.0525155765935779
sS'trials.thisTrialN'
p235
I13
sa(dp236
g31
g32
sg17
F62.379083396401256
sg24
I1
sg35
g39
sg14
F62.374256679788232
sg16
g36
(g70
S'\x02\x00\x00\x00'
tRp237
sg42
g43
sg46
g47
sg15
g72
sg22
F64.589543295558542
sg64
g226
sg62
g125
sg49
g50
sS'trials.thisN'
p238
I14
sg19
I1
sg27
g36
(g38
S'\x00\x00\x00\x00\x00\x00\x1a@'
tRp239
sg52
g53
sg23
S'1'
sg18
F63.616861263290048
sg33
g34
sg51
g11
sg20
S'2'
sg65
g36
(g77
S'\x00\x00\x00\x00\x00\x00\x00\x00'
tRp240
sg44
g45
sg40
g41
sg25
F0.18060714611783624
sS'trials.thisIndex'
p241
g36
(g80
S']\x00\x00\x00'
tRp242
sg26
V5
sS'trials.thisRepN'
p243
I0
sg66
Vwardrobe
p244
sg63
V../experiment_stimuli/bw_bc_bl/Nonliving_Things/Furniture/wardrobe_21.jpg
p245
sg21
F0.95213799551129341
sS'trials.thisTrialN'
p246
I14
sa(dp247
g31
g32
sg17
F66.508206366095692
sg24
I0
sg35
g39
sg14
F66.503230591770262
sg16
g36
(g70
S'\x01\x00\x00\x00'
tRp248
sg42
g43
sg46
g47
sg15
g72
sg22
F70.55268342839554
sg64
g159
sg62
g74
sg49
g50
sS'trials.thisN'
p249
I15
sg19
I1
sg27
g36
(g38
S'\x00\x00\x00\x00\x00\x00\x18@'
tRp250
sg52
g53
sg23
S'3'
sg18
F67.77590349689126
sg33
g34
sg51
g11
sg20
S'1'
sg65
g36
(g77
S'\x00\x00\x00\x00\x00\x00\x00\x00'
tRp251
sg44
g45
sg40
g41
sg25
F0.28082626732066274
sS'trials.thisIndex'
p252
g36
(g80
S'\r\x00\x00\x00'
tRp253
sg26
V5
sS'trials.thisRepN'
p254
I0
sg66
Vcat
p255
sg63
V../experiment_stimuli/bw_bc_bl/Living_Things/Animals/cat_10.jpg
p256
sg21
F2.7562229251489043
sS'trials.thisTrialN'
p257
I15
sa(dp258
g31
g32
sg17
F72.571352627128363
sg24
I1
sg35
g39
sg14
F72.566417107358575
sg16
g36
(g70
S'\x01\x00\x00\x00'
tRp259
sg42
g43
sg46
g47
sg15
g88
sg22
F73.979954160284251
sg64
g226
sg62
g125
sg49
g50
sS'trials.thisN'
p260
I16
sg19
I0
sg27
g36
(g38
S'\x00\x00\x00\x00\x00\x00\x1a@'
tRp261
sg52
g53
sg23
S'1'
sg18
F73.819032837171108
sg33
g34
sg51
g11
sg20
S'2'
sg65
g36
(g77
S'\x00\x00\x00\x00\x00\x00\x00\x00'
tRp262
sg44
g45
sg40
g41
sg25
F0.15055476874113083
sS'trials.thisIndex'
p263
g36
(g80
S'\x02\x00\x00\x00'
tRp264
sg26
V5
sS'trials.thisRepN'
p265
I0
sg66
Varmchair
p266
sg63
V../experiment_stimuli/bw_bc_bl/Nonliving_Things/Furniture/armchair_20.jpg
p267
sg21
F0.14037644071504474
sS'trials.thisTrialN'
p268
I16
sa(dp269
g31
g32
sg17
F75.868575390893966
sg24
I0
sg35
g39
sg14
F75.863574841991067
sg16
g36
(g70
S'\x01\x00\x00\x00'
tRp270
sg42
g43
sg46
g47
sg15
g88
sg22
F79.021084380801767
sg64
VVehicles
p271
sg62
g125
sg49
g50
sS'trials.thisN'
p272
I17
sg19
I1
sg27
g36
(g38
S'\x00\x00\x00\x00\x00\x00\x1e@'
tRp273
sg52
g53
sg23
S'3'
sg18
F77.136247156653553
sg33
g34
sg51
g11
sg20
S'1'
sg65
g36
(g77
S'\x00\x00\x00\x00\x00\x00\x00\x00'
tRp274
sg44
g45
sg40
g41
sg25
F0.25081234751269221
sS'trials.thisIndex'
p275
g36
(g80
S'\x0b\x00\x00\x00'
tRp276
sg26
V5
sS'trials.thisRepN'
p277
I0
sg66
Vcar
p278
sg63
V../experiment_stimuli/bw_bc_bl/Nonliving_Things/Vehicles/car_12.jpg
p279
sg21
F1.86427859403193
sS'trials.thisTrialN'
p280
I17
sa(dp281
g31
g32
sg17
F81.009605082683265
sg24
I1
sg35
g39
sg14
F81.004758667200804
sg16
g36
(g70
S'\x01\x00\x00\x00'
tRp282
sg42
g43
sg46
g47
sg15
g72
sg22
F82.508650640491396
sg64
g159
sg62
g74
sg49
g50
sS'trials.thisN'
p283
I18
sg19
I1
sg27
g36
(g38
S'\x00\x00\x00\x00\x00\x00\x1a@'
tRp284
sg52
g53
sg23
S'1'
sg18
F82.247366085648537
sg33
g34
sg51
g11
sg20
S'1'
sg65
g36
(g77
S'\x00\x00\x00\x00\x00\x00\x00\x00'
tRp285
sg44
g45
sg40
g41
sg25
F0.23072266578674316
sS'trials.thisIndex'
p286
g36
(g80
S'(\x00\x00\x00'
tRp287
sg26
V5
sS'trials.thisRepN'
p288
I0
sg66
Vhorse
p289
sg63
V../experiment_stimuli/bw_bc_bl/Living_Things/Animals/horse_24.jpg
p290
sg21
F0.24074574047699571
sS'trials.thisTrialN'
p291
I18
sa(dp292
g31
g32
sg17
F84.478594506625086
sg24
I0
sg35
g39
sg14
F84.472289356403053
sg16
g36
(g70
S'\x01\x00\x00\x00'
tRp293
sg42
g43
sg46
g47
sg15
g72
sg22
F86.807851324789226
sg64
g73
sg62
g74
sg49
g50
sS'trials.thisN'
p294
I19
sg19
I1
sg27
g36
(g38
S'\x00\x00\x00\x00\x00\x00\x1a@'
tRp295
sg52
g53
sg23
S'3'
sg18
F85.74495881004259
sg33
g34
sg51
g11
sg20
S'1'
sg65
g36
(g77
S'\x00\x00\x00\x00\x00\x00\x00\x00'
tRp296
sg44
g45
sg40
g41
sg25
F0.26081362972036004
sS'trials.thisIndex'
p297
g36
(g80
S'O\x00\x00\x00'
tRp298
sg26
V5
sS'trials.thisRepN'
p299
I0
sg66
Vsparrow
p300
sg63
V../experiment_stimuli/bw_bc_bl/Living_Things/Birds/sparrow_9.jpg
p301
sg21
F1.0423357076942921
sS'trials.thisTrialN'
p302
I19
sa(dp303
g31
g32
sg17
F88.80656222673133
sg24
I0
sg35
g39
sg14
F88.801705021876842
sg16
g36
(g70
S'\x01\x00\x00\x00'
tRp304
sg42
g43
sg46
g47
sg15
g88
sg22
F90.556163891684264
sg64
g226
sg62
g125
sg49
g50
sS'trials.thisN'
p305
I20
sg19
I1
sg27
g36
(g38
S'\x00\x00\x00\x00\x00\x00\x1a@'
tRp306
sg52
g53
sg23
S'3'
sg18
F90.054329067468643
sg33
g34
sg51
g11
sg20
S'1'
sg65
g36
(g77
S'\x00\x00\x00\x00\x00\x00\x00\x00'
tRp307
sg44
g45
sg40
g41
sg25
F0.21074982779100537
sS'trials.thisIndex'
p308
g36
(g80
S'\x00\x00\x00\x00'
tRp309
sg26
V5
sS'trials.thisRepN'
p310
I0
sg66
VChest-of-drawers
p311
sg63
V../experiment_stimuli/bw_bc_bl/Nonliving_Things/Furniture/Chest-of-drawers_7.jpg
p312
sg21
F0.48128120880573988
sS'trials.thisTrialN'
p313
I20
sa(dp314
g31
g32
sg17
F92.504730090498924
sg24
I1
sg35
g39
sg14
F92.499746067915112
sg16
g36
(g70
S'\x01\x00\x00\x00'
tRp315
sg42
g43
sg46
g47
sg15
g88
sg22
F93.993626718409359
sg64
VBuildings
p316
sg62
g125
sg49
g50
sS'trials.thisN'
p317
I21
sg19
I0
sg27
g36
(g38
S'\x00\x00\x00\x00\x00\x00\x1e@'
tRp318
sg52
g53
sg23
S'1'
sg18
F93.732325922697783
sg33
g34
sg51
g11
sg20
S'2'
sg65
g36
(g77
S'\x00\x00\x00\x00\x00\x00\x00\x00'
tRp319
sg44
g45
sg40
g41
sg25
F0.10048847459256649
sS'trials.thisIndex'
p320
g36
(g80
S'#\x00\x00\x00'
tRp321
sg26
V5
sS'trials.thisRepN'
p322
I0
sg66
Vgranary
p323
sg63
V../experiment_stimuli/bw_bc_bl/Nonliving_Things/Buildings/granary_16.jpg
p324
sg21
F0.24074004497379065
sS'trials.thisTrialN'
p325
I21
sa(dp326
g31
g32
sg17
F95.831871106289327
sg24
I0
sg35
g39
sg14
F95.826983108650893
sg16
g36
(g70
S'\x01\x00\x00\x00'
tRp327
sg42
g43
sg46
g47
sg15
g88
sg22
F97.801926474552602
sg64
VMusical_Inst
p328
sg62
g125
sg49
g50
sS'trials.thisN'
p329
I22
sg19
I1
sg27
g36
(g38
S'\x00\x00\x00\x00\x00\x00\x1a@'
tRp330
sg52
g53
sg23
S'3'
sg18
F97.079602488316596
sg33
g34
sg51
g11
sg20
S'1'
sg65
g36
(g77
S'\x00\x00\x00\x00\x00\x00\x00\x00'
tRp331
sg44
g45
sg40
g41
sg25
F0.5313914455473423
sS'trials.thisIndex'
p332
g36
(g80
S'\x19\x00\x00\x00'
tRp333
sg26
V5
sS'trials.thisRepN'
p334
I0
sg66
Vdrum
p335
sg63
V../experiment_stimuli/bw_bc_bl/Nonliving_Things/Musical_Inst/drum_16.jpg
p336
sg21
F0.70176821714267135
sS'trials.thisTrialN'
p337
I22
sa(dp338
g31
g32
sg17
F100.07304925331846
sg24
I1
sg35
g39
sg14
F100.06619356200099
sg16
g36
(g70
S'\x01\x00\x00\x00'
tRp339
sg42
g43
sg46
g47
sg15
g72
sg22
F101.41976554878056
sg64
g101
sg62
g74
sg49
g50
sS'trials.thisN'
p340
I23
sg19
I1
sg27
g36
(g38
S'\x00\x00\x00\x00\x00\x00\x18@'
tRp341
sg52
g53
sg23
S'1'
sg18
F101.29877493949607
sg33
g34
sg51
g11
sg20
S'1'
sg65
g36
(g77
S'\x00\x00\x00\x00\x00\x00\x00\x00'
tRp342
sg44
g45
sg40
g41
sg25
F0.24073989782482386
sS'trials.thisIndex'
p343
g36
(g80
S'I\x00\x00\x00'
tRp344
sg26
V5
sS'trials.thisRepN'
p345
I0
sg66
Vscorpion
p346
sg63
V../experiment_stimuli/bw_bc_bl/Living_Things/Insects/scorpion_17.jpg
p347
sg21
F0.10044441092759371
sS'trials.thisTrialN'
p348
I23
sa(dp349
g31
g32
sg17
F103.39842099742964
sg24
I1
sg35
g39
sg14
F103.39342676429078
sg16
g36
(g70
S'\x01\x00\x00\x00'
tRp350
sg42
g43
sg46
g47
sg15
g72
sg22
F104.90739619871601
sg64
g73
sg62
g74
sg49
g50
sS'trials.thisN'
p351
I24
sg19
I0
sg27
g36
(g38
S'\x00\x00\x00\x00\x00\x00\x18@'
tRp352
sg52
g53
sg23
S'1'
sg18
F104.64604743383825
sg33
g34
sg51
g11
sg20
S'2'
sg65
g36
(g77
S'\x00\x00\x00\x00\x00\x00\x00\x00'
tRp353
sg44
g45
sg40
g41
sg25
F0.16059847408905625
sS'trials.thisIndex'
p354
g36
(g80
S'3\x00\x00\x00'
tRp355
sg26
V5
sS'trials.thisRepN'
p356
I0
sg66
Vmagpie
p357
sg63
V../experiment_stimuli/bw_bc_bl/Living_Things/Birds/magpie_19.jpg
p358
sg21
F0.24077039817348123
sS'trials.thisTrialN'
p359
I24
sa(dp360
g31
g32
sg17
F106.80575927067548
sg24
I0
sg35
g39
sg14
F106.80083484109491
sg16
g36
(g70
S'\x01\x00\x00\x00'
tRp361
sg42
g43
sg46
g47
sg15
g88
sg22
F109.61762905679643
sg64
g124
sg62
g125
sg49
g50
sS'trials.thisN'
p362
I25
sg19
I0
sg27
g36
(g38
S'\x00\x00\x00\x00\x00\x00\x1c@'
tRp363
sg52
g53
sg23
S'3'
sg18
F108.07352056540549
sg33
g34
sg51
g11
sg20
S'2'
sg65
g36
(g77
S'\x00\x00\x00\x00\x00\x00\x00\x00'
tRp364
sg44
g45
sg40
g41
sg25
F0.14057620475068688
sS'trials.thisIndex'
p365
g36
(g80
S'S\x00\x00\x00'
tRp366
sg26
V5
sS'trials.thisRepN'
p367
I0
sg66
Vteapot
p368
sg63
V../experiment_stimuli/bw_bc_bl/Nonliving_Things/Kitchen_Uten/teapot_23.jpg
p369
sg21
F1.523548218421638
sS'trials.thisTrialN'
p370
I25
sa(dp371
g31
g32
sg17
F111.49586524767801
sg24
I1
sg35
g39
sg14
F111.49103240296245
sg16
g36
(g70
S'\x01\x00\x00\x00'
tRp372
sg42
g43
sg46
g47
sg15
g72
sg22
F113.05506547400728
sg64
g73
sg62
g74
sg49
g50
sS'trials.thisN'
p373
I26
sg19
I1
sg27
g36
(g38
S'\x00\x00\x00\x00\x00\x00\x18@'
tRp374
sg52
g53
sg23
S'1'
sg18
F112.74366323044524
sg33
g34
sg51
g11
sg20
S'1'
sg65
g36
(g77
S'\x00\x00\x00\x00\x00\x00\x00\x00'
tRp375
sg44
g45
sg40
g41
sg25
F0.4010905041359365
sS'trials.thisIndex'
p376
g36
(g80
S'\x04\x00\x00\x00'
tRp377
sg26
V5
sS'trials.thisRepN'
p378
I0
sg66
Vbarn-owl
p379
sg63
V../experiment_stimuli/bw_bc_bl/Living_Things/Birds/barn-owl_23.jpg
p380
sg21
F0.28082793299108744
sS'trials.thisTrialN'
p381
I26
sa(dp382
g31
g32
sg17
F115.19474302977324
sg24
I0
sg35
g39
sg14
F115.18907190440223
sg16
g36
(g70
S'\x01\x00\x00\x00'
tRp383
sg42
g43
sg46
g47
sg15
g88
sg22
F118.00585161242634
sg64
g271
sg62
g125
sg49
g50
sS'trials.thisN'
p384
I27
sg19
I1
sg27
g36
(g38
S'\x00\x00\x00\x00\x00\x00\x18@'
tRp385
sg52
g53
sg23
S'3'
sg18
F116.45171314803883
sg33
g34
sg51
g11
sg20
S'1'
sg65
g36
(g77
S'\x00\x00\x00\x00\x00\x00\x00\x00'
tRp386
sg44
g45
sg40
g41
sg25
F0.29085336858406663
sS'trials.thisIndex'
p387
g36
(g80
S'W\x00\x00\x00'
tRp388
sg26
V5
sS'trials.thisRepN'
p389
I0
sg66
Vtrain
p390
sg63
V../experiment_stimuli/bw_bc_bl/Nonliving_Things/Vehicles/train_25.jpg
p391
sg21
F1.5335640520788729
sS'trials.thisTrialN'
p392
I27
sa(dp393
g31
g32
sg17
F120.03538024192676
sg24
I0
sg35
g39
sg14
F120.02959182858467
sg16
g36
(g70
S'\x01\x00\x00\x00'
tRp394
sg42
g43
sg46
g47
sg15
g88
sg22
F123.01673092041165
sg64
g124
sg62
g125
sg49
g50
sS'trials.thisN'
p395
I28
sg19
I1
sg27
g36
(g38
S'\x00\x00\x00\x00\x00\x00\x18@'
tRp396
sg52
g53
sg23
S'3'
sg18
F121.27219364186749
sg33
g34
sg51
g11
sg20
S'1'
sg65
g36
(g77
S'\x00\x00\x00\x00\x00\x00\x00\x00'
tRp397
sg44
g45
sg40
g41
sg25
F0.25077868299558759
sS'trials.thisIndex'
p398
g36
(g80
S'G\x00\x00\x00'
tRp399
sg26
V5
sS'trials.thisRepN'
p400
I0
sg66
Vsaucepan
p401
sg63
V../experiment_stimuli/bw_bc_bl/Nonliving_Things/Kitchen_Uten/saucepan_0.jpg
p402
sg21
F1.7239758134819567
sS'trials.thisTrialN'
p403
I28
sa(dp404
g31
g32
sg17
F125.00522375432774
sg24
I1
sg35
g39
sg14
F125.00039396248758
sg16
g36
(g70
S'\x01\x00\x00\x00'
tRp405
sg42
g43
sg46
g47
sg15
g88
sg22
F126.63444145908579
sg64
g124
sg62
g125
sg49
g50
sS'trials.thisN'
p406
I29
sg19
I0
sg27
g36
(g38
S'\x00\x00\x00\x00\x00\x00\x18@'
tRp407
sg52
g53
sg23
S'1'
sg18
F126.23298484738916
sg33
g34
sg51
g11
sg20
S'2'
sg65
g36
(g77
S'\x00\x00\x00\x00\x00\x00\x00\x00'
tRp408
sg44
g45
sg40
g41
sg25
F0.18061767658218741
sS'trials.thisIndex'
p409
g36
(g80
S'\x16\x00\x00\x00'
tRp410
sg26
V5
sS'trials.thisRepN'
p411
I0
sg66
Vcup
p412
sg63
V../experiment_stimuli/bw_bc_bl/Nonliving_Things/Kitchen_Uten/cup_20.jpg
p413
sg21
F0.38089847378432751
sS'trials.thisTrialN'
p414
I29
sa(dp415
g31
g32
sg17
F128.5530338389799
sg24
I1
sg35
g39
sg14
F128.5481084883213
sg16
g36
(g70
S'\x02\x00\x00\x00'
tRp416
sg42
g43
sg46
g47
sg15
g72
sg22
F129.94177188258618
sg64
g226
sg62
g125
sg49
g50
sS'trials.thisN'
p417
I30
sg19
I0
sg27
g36
(g38
S'\x00\x00\x00\x00\x00\x00\x1c@'
tRp418
sg52
g53
sg23
S'1'
sg18
F129.79071166645736
sg33
g34
sg51
g11
sg20
S'1'
sg65
g36
(g77
S'\x00\x00\x00\x00\x00\x00\x00\x00'
tRp419
sg44
g45
sg40
g41
sg25
F1.683887526858598
sS'trials.thisIndex'
p420
g36
(g80
S'\x06\x00\x00\x00'
tRp421
sg26
V5
sS'trials.thisRepN'
p422
I0
sg66
Vbedside-table
p423
sg63
V../experiment_stimuli/bw_bc_bl/Nonliving_Things/Furniture/bedside-table_21.jpg
p424
sg21
F0.13050908967852592
sS'trials.thisTrialN'
p425
I30
sa(dp426
g31
g32
sg17
F133.36445310525596
sg24
I0
sg35
g39
sg14
F133.35856539243832
sg16
g36
(g70
S'\x01\x00\x00\x00'
tRp427
sg42
g43
sg46
g47
sg15
g88
sg22
F135.50386247690767
sg64
g316
sg62
g125
sg49
g50
sS'trials.thisN'
p428
I31
sg19
I1
sg27
g36
(g38
S'\x00\x00\x00\x00\x00\x00\x1a@'
tRp429
sg52
g53
sg23
S'3'
sg18
F134.63123751571402
sg33
g34
sg51
g11
sg20
S'1'
sg65
g36
(g77
S'\x00\x00\x00\x00\x00\x00\x00\x00'
tRp430
sg44
g45
sg40
g41
sg25
F0.32091527990996838
sS'trials.thisIndex'
p431
g36
(g80
S')\x00\x00\x00'
tRp432
sg26
V5
sS'trials.thisRepN'
p433
I0
sg66
Vhouse
p434
sg63
V../experiment_stimuli/bw_bc_bl/Nonliving_Things/Buildings/house_26.jpg
p435
sg21
F0.85208548093214631
sS'trials.thisTrialN'
p436
I31
sa(dp437
g31
g32
sg17
F137.56250526476651
sg24
I0
sg35
g39
sg14
F137.55770852137357
sg16
g36
(g70
S'\x01\x00\x00\x00'
tRp438
sg42
g43
sg46
g47
sg15
g88
sg22
F140.62500568665564
sg64
g226
sg62
g125
sg49
g50
sS'trials.thisN'
p439
I32
sg19
I1
sg27
g36
(g38
S'\x00\x00\x00\x00\x00\x00\x18@'
tRp440
sg52
g53
sg23
S'3'
sg18
F138.81032882630825
sg33
g34
sg51
g11
sg20
S'1'
sg65
g36
(g77
S'\x00\x00\x00\x00\x00\x00\x00\x00'
tRp441
sg44
g45
sg40
g41
sg25
F0.7318090982735157
sS'trials.thisIndex'
p442
g36
(g80
S'N\x00\x00\x00'
tRp443
sg26
V5
sS'trials.thisRepN'
p444
I0
sg66
Vsofa
p445
sg63
V../experiment_stimuli/bw_bc_bl/Nonliving_Things/Furniture/sofa_4.jpg
p446
sg21
F1.7941388166509569
sS'trials.thisTrialN'
p447
I32
sa(dp448
g31
g32
sg17
F143.09477741736919
sg24
I1
sg35
g39
sg14
F143.08972600894049
sg16
g36
(g70
S'\x02\x00\x00\x00'
tRp449
sg42
g43
sg46
g47
sg15
g72
sg22
F144.66379097290337
sg64
g328
sg62
g125
sg49
g50
sS'trials.thisN'
p450
I33
sg19
I1
sg27
g36
(g38
S'\x00\x00\x00\x00\x00\x00\x18@'
tRp451
sg52
g53
sg23
S'1'
sg18
F144.32230266463012
sg33
g34
sg51
g11
sg20
S'2'
sg65
g36
(g77
S'\x00\x00\x00\x00\x00\x00\x00\x00'
tRp452
sg44
g45
sg40
g41
sg25
F0.12048756796866655
sS'trials.thisIndex'
p453
g36
(g80
S'X\x00\x00\x00'
tRp454
sg26
V5
sS'trials.thisRepN'
p455
I0
sg66
Vtrumpet
p456
sg63
V../experiment_stimuli/bw_bc_bl/Nonliving_Things/Musical_Inst/trumpet_14.jpg
p457
sg21
F0.32092979829758406
sS'trials.thisTrialN'
p458
I33
sa(dp459
g31
g32
sg17
F146.52204442815855
sg24
I0
sg35
g39
sg14
F146.51717414800078
sg16
g36
(g70
S'\x01\x00\x00\x00'
tRp460
sg42
g43
sg46
g47
sg15
g72
sg22
F149.67467063805088
sg64
g89
sg62
g74
sg49
g50
sS'trials.thisN'
p461
I34
sg19
I1
sg27
g36
(g38
S'\x00\x00\x00\x00\x00\x00\x18@'
tRp462
sg52
g53
sg23
S'3'
sg18
F147.76979419356212
sg33
g34
sg51
g11
sg20
S'1'
sg65
g36
(g77
S'\x00\x00\x00\x00\x00\x00\x00\x00'
tRp463
sg44
g45
sg40
g41
sg25
F0.17065496183931828
sS'trials.thisIndex'
p464
g36
(g80
S'4\x00\x00\x00'
tRp465
sg26
V5
sS'trials.thisRepN'
p466
I0
sg66
Vmanatee
p467
sg63
V../experiment_stimuli/bw_bc_bl/Living_Things/Marine_creatures/manatee_13.jpg
p468
sg21
F1.8843248896300793
sS'trials.thisTrialN'
p469
I34
sa(dp470
g31
g32
sg17
F151.58408550312743
sg24
I1
sg35
g39
sg14
F151.57817526441067
sg16
g36
(g70
S'\x02\x00\x00\x00'
tRp471
sg42
g43
sg46
g47
sg15
g88
sg22
F152.96181020047516
sg64
g73
sg62
g74
sg49
g50
sS'trials.thisN'
p472
I35
sg19
I1
sg27
g36
(g38
S'\x00\x00\x00\x00\x00\x00\x1e@'
tRp473
sg52
g53
sg23
S'1'
sg18
F152.81076464196667
sg33
g34
sg51
g11
sg20
S'2'
sg65
g36
(g77
S'\x00\x00\x00\x00\x00\x00\x00\x00'
tRp474
sg44
g45
sg40
g41
sg25
F0.1505505358800292
sS'trials.thisIndex'
p475
g36
(g80
S'<\x00\x00\x00'
tRp476
sg26
V5
sS'trials.thisRepN'
p477
I0
sg66
Vpelican
p478
sg63
V../experiment_stimuli/bw_bc_bl/Living_Things/Birds/pelican_14.jpg
p479
sg21
F0.13050705567002296
sS'trials.thisTrialN'
p480
I35
sa(dp481
g31
g32
sg17
F154.85030610579997
sg24
I1
sg35
g39
sg14
F154.84527800465003
sg16
g36
(g70
S'\x01\x00\x00\x00'
tRp482
sg42
g43
sg46
g47
sg15
g88
sg22
F156.51955701922998
sg64
VTools
p483
sg62
g125
sg49
g50
sS'trials.thisN'
p484
I36
sg19
I0
sg27
g36
(g38
S'\x00\x00\x00\x00\x00\x00 @'
tRp485
sg52
g53
sg23
S'1'
sg18
F156.10792166227475
sg33
g34
sg51
g11
sg20
S'2'
sg65
g36
(g77
S'\x00\x00\x00\x00\x00\x00\x00\x00'
tRp486
sg44
g45
sg40
g41
sg25
F0.17059001978486776
sS'trials.thisIndex'
p487
g36
(g80
S'%\x00\x00\x00'
tRp488
sg26
V5
sS'trials.thisRepN'
p489
I0
sg66
Vhammer
p490
sg63
V../experiment_stimuli/bw_bc_bl/Nonliving_Things/Tools/hammer_1.jpg
p491
sg21
F0.39107515104115009
sS'trials.thisTrialN'
p492
I36
sa(dp493
g31
g32
sg17
F158.42801433010027
sg24
I0
sg35
g39
sg14
F158.42305708490312
sg16
g36
(g70
S'\x01\x00\x00\x00'
tRp494
sg42
g43
sg46
g47
sg15
g88
sg22
F161.36009011650458
sg64
g226
sg62
g125
sg49
g50
sS'trials.thisN'
p495
I37
sg19
I1
sg27
g36
(g38
S'\x00\x00\x00\x00\x00\x00\x18@'
tRp496
sg52
g53
sg23
S'3'
sg18
F159.69573394861072
sg33
g34
sg51
g11
sg20
S'1'
sg65
g36
(g77
S'\x00\x00\x00\x00\x00\x00\x00\x00'
tRp497
sg44
g45
sg40
g41
sg25
F0.26078373519703746
sS'trials.thisIndex'
p498
g36
(g80
S'.\x00\x00\x00'
tRp499
sg26
V5
sS'trials.thisRepN'
p500
I0
sg66
Vlamp
p501
sg63
V../experiment_stimuli/bw_bc_bl/Nonliving_Things/Furniture/lamp_9.jpg
p502
sg21
F1.6438096687197685
sS'trials.thisTrialN'
p503
I37
sa(dp504
g31
g32
sg17
F163.35865542246029
sg24
I1
sg35
g39
sg14
F163.35377577040344
sg16
g36
(g70
S'\x01\x00\x00\x00'
tRp505
sg42
g43
sg46
g47
sg15
g72
sg22
F164.87772397510707
sg64
g89
sg62
g74
sg49
g50
sS'trials.thisN'
p506
I38
sg19
I0
sg27
g36
(g38
S'\x00\x00\x00\x00\x00\x00\x1c@'
tRp507
sg52
g53
sg23
S'1'
sg18
F164.60640056757256
sg33
g34
sg51
g11
sg20
S'2'
sg65
g36
(g77
S'\x00\x00\x00\x00\x00\x00\x00\x00'
tRp508
sg44
g45
sg40
g41
sg25
F0.18090227013453841
sS'trials.thisIndex'
p509
g36
(g80
S'A\x00\x00\x00'
tRp510
sg26
V5
sS'trials.thisRepN'
p511
I0
sg66
Vpomfret
p512
sg63
V../experiment_stimuli/bw_bc_bl/Living_Things/Marine_creatures/pomfret_13.jpg
p513
sg21
F0.25076108146458864
sS'trials.thisTrialN'
p514
I38
sa(dp515
g31
g32
sg17
F166.79801279725507
sg24
I0
sg35
g39
sg14
F166.79124758206308
sg16
g36
(g70
S'\x02\x00\x00\x00'
tRp516
sg42
g43
sg46
g47
sg15
g72
sg22
F170.1091025499627
sg64
g226
sg62
g125
sg49
g50
sS'trials.thisN'
p517
I39
sg19
I1
sg27
g36
(g38
S'\x00\x00\x00\x00\x00\x00\x18@'
tRp518
sg52
g53
sg23
S'3'
sg18
F168.05389868281782
sg33
g34
sg51
g11
sg20
S'2'
sg65
g36
(g77
S'\x00\x00\x00\x00\x00\x00\x00\x00'
tRp519
sg44
g45
sg40
g41
sg25
F0.25076353643089533
sS'trials.thisIndex'
p520
g36
(g80
S'\x1d\x00\x00\x00'
tRp521
sg26
V5
sS'trials.thisRepN'
p522
I0
sg66
Vfilling-cabinet
p523
sg63
V../experiment_stimuli/bw_bc_bl/Nonliving_Things/Furniture/filling-cabinet_19.jpg
p524
sg21
F2.0346533004194498
sS'trials.thisTrialN'
p525
I39
sa(dp526
g31
g32
sg17
F172.09965641843155
sg24
I1
sg35
g39
sg14
F172.09277384774759
sg16
g36
(g70
S'\x02\x00\x00\x00'
tRp527
sg42
g43
sg46
g47
sg15
g88
sg22
F174.20802090410143
sg64
g159
sg62
g74
sg49
g50
sS'trials.thisN'
p528
I40
sg19
I0
sg27
g36
(g38
S'\x00\x00\x00\x00\x00\x00\x18@'
tRp529
sg52
g53
sg23
S'1'
sg18
F173.33538055187091
sg33
g34
sg51
g11
sg20
S'1'
sg65
g36
(g77
S'\x00\x00\x00\x00\x00\x00\x00\x00'
tRp530
sg44
g45
sg40
g41
sg25
F0.2106784600764513
sS'trials.thisIndex'
p531
g36
(g80
S'\x1b\x00\x00\x00'
tRp532
sg26
V5
sS'trials.thisRepN'
p533
I0
sg66
Velephant
p534
sg63
V../experiment_stimuli/bw_bc_bl/Living_Things/Animals/elephant_9.jpg
p535
sg21
F0.85208078939467669
sS'trials.thisTrialN'
p536
I40
sa(dp537
g31
g32
sg17
F176.15642715385184
sg24
I0
sg35
g39
sg14
F176.15160242235288
sg16
g36
(g70
S'\x01\x00\x00\x00'
tRp538
sg42
g43
sg46
g47
sg15
g72
sg22
F180.3313240846619
sg64
g89
sg62
g74
sg49
g50
sS'trials.thisN'
p539
I41
sg19
I1
sg27
g36
(g38
S'\x00\x00\x00\x00\x00\x00\x1a@'
tRp540
sg52
g53
sg23
S'2'
sg18
F177.42426617676392
sg33
g34
sg51
g11
sg20
S'1'
sg65
g36
(g77
S'\x00\x00\x00\x00\x00\x00\x00\x00'
tRp541
sg44
g45
sg40
g41
sg25
F0.1608400009572506
sS'trials.thisIndex'
p542
g36
(g80
S'P\x00\x00\x00'
tRp543
sg26
V5
sS'trials.thisRepN'
p544
I0
sg66
Vsperm-whale
p545
sg63
V../experiment_stimuli/bw_bc_bl/Living_Things/Marine_creatures/sperm-whale_10.jpg
p546
sg21
F2.8865092061460018
sS'trials.thisTrialN'
p547
I41
sa(dp548
g31
g32
sg17
F182.22957580490038
sg24
I0
sg35
g39
sg14
F182.22481908369809
sg16
g36
(g70
S'\x02\x00\x00\x00'
tRp549
sg42
g43
sg46
g47
sg15
g72
sg22
F184.06948321033269
sg64
g124
sg62
g125
sg49
g50
sS'trials.thisN'
p550
I42
sg19
I0
sg27
g36
(g38
S'\x00\x00\x00\x00\x00\x00\x18@'
tRp551
sg52
g53
sg23
S'3'
sg18
F183.48744559846818
sg33
g34
sg51
g11
sg20
S'1'
sg65
g36
(g77
S'\x00\x00\x00\x00\x00\x00\x00\x00'
tRp552
sg44
g45
sg40
g41
sg25
F0.21072686510160565
sS'trials.thisIndex'
p553
g36
(g80
S'\x12\x00\x00\x00'
tRp554
sg26
V5
sS'trials.thisRepN'
p555
I0
sg66
Vcoking-pot
p556
sg63
V../experiment_stimuli/bw_bc_bl/Nonliving_Things/Kitchen_Uten/coking-pot_22.jpg
p557
sg21
F0.56145189143717289
sS'trials.thisTrialN'
p558
I42
sa(dp559
g31
g32
sg17
F186.01791655411944
sg24
I0
sg35
g39
sg14
F186.01303670648485
sg16
g36
(g70
S'\x01\x00\x00\x00'
tRp560
sg42
g43
sg46
g47
sg15
g88
sg22
F188.35879665706307
sg64
g271
sg62
g125
sg49
g50
sS'trials.thisN'
p561
I43
sg19
I0
sg27
g36
(g38
S'\x00\x00\x00\x00\x00\x00\x1a@'
tRp562
sg52
g53
sg23
S'2'
sg18
F187.24562014825642
sg33
g34
sg51
g11
sg20
S'2'
sg65
g36
(g77
S'\x00\x00\x00\x00\x00\x00\x00\x00'
tRp563
sg44
g45
sg40
g41
sg25
F0.23072316218167543
sS'trials.thisIndex'
p564
g36
(g80
S'[\x00\x00\x00'
tRp565
sg26
V5
sS'trials.thisRepN'
p566
I0
sg66
Vvan
p567
sg63
V../experiment_stimuli/bw_bc_bl/Nonliving_Things/Vehicles/van_19.jpg
p568
sg21
F1.0926139084622264
sS'trials.thisTrialN'
p569
I43
sa(dp570
g31
g32
sg17
F190.32735166326165
sg24
I1
sg35
g39
sg14
F190.32242399686947
sg16
g36
(g70
S'\x02\x00\x00\x00'
tRp571
sg42
g43
sg46
g47
sg15
g72
sg22
F191.70604498591274
sg64
g226
sg62
g125
sg49
g50
sS'trials.thisN'
p572
I44
sg19
I0
sg27
g36
(g38
S'\x00\x00\x00\x00\x00\x00 @'
tRp573
sg52
g53
sg23
S'1'
sg18
F191.5549946455285
sg33
g34
sg51
g11
sg20
S'1'
sg65
g36
(g77
S'\x00\x00\x00\x00\x00\x00\x00\x00'
tRp574
sg44
g45
sg40
g41
sg25
F0.28082717349752784
sS'trials.thisIndex'
p575
g36
(g80
S'E\x00\x00\x00'
tRp576
sg26
V5
sS'trials.thisRepN'
p577
I0
sg66
Vrocking-chair
p578
sg63
V../experiment_stimuli/bw_bc_bl/Nonliving_Things/Furniture/rocking-chair_12.jpg
p579
sg21
F0.13051398051902652
sS'trials.thisTrialN'
p580
I44
sa(dp581
g31
g32
sg17
F193.72485767537728
sg24
I0
sg35
g39
sg14
F193.71979528106749
sg16
g36
(g70
S'\x01\x00\x00\x00'
tRp582
sg42
g43
sg46
g47
sg15
g72
sg22
F195.34395168256015
sg64
g159
sg62
g74
sg49
g50
sS'trials.thisN'
p583
I45
sg19
I1
sg27
g36
(g38
S'\x00\x00\x00\x00\x00\x00\x18@'
tRp584
sg52
g53
sg23
S'2'
sg18
F194.97241264255717
sg33
g34
sg51
g11
sg20
S'1'
sg65
g36
(g77
S'\x00\x00\x00\x00\x00\x00\x00\x00'
tRp585
sg44
g45
sg40
g41
sg25
F0.14052032213658094
sS'trials.thisIndex'
p586
g36
(g80
S'\x10\x00\x00\x00'
tRp587
sg26
V5
sS'trials.thisRepN'
p588
I0
sg66
Vcheetah
p589
sg63
V../experiment_stimuli/bw_bc_bl/Living_Things/Animals/cheetah_9.jpg
p590
sg21
F0.35099555971100926
sS'trials.thisTrialN'
p591
I45
sa(dp592
g31
g32
sg17
F197.22238573152572
sg24
I1
sg35
g39
sg14
F197.21739257359877
sg16
g36
(g70
S'\x02\x00\x00\x00'
tRp593
sg42
g43
sg46
g47
sg15
g72
sg22
F199.59319092473015
sg64
g483
sg62
g125
sg49
g50
sS'trials.thisN'
p594
I46
sg19
I1
sg27
g36
(g38
S'\x00\x00\x00\x00\x00\x00\x18@'
tRp595
sg52
g53
sg23
S'1'
sg18
F198.45999996224418
sg33
g34
sg51
g11
sg20
S'2'
sg65
g36
(g77
S'\x00\x00\x00\x00\x00\x00\x00\x00'
tRp596
sg44
g45
sg40
g41
sg25
F0.1104553840123117
sS'trials.thisIndex'
p597
g36
(g80
S'\x03\x00\x00\x00'
tRp598
sg26
V5
sS'trials.thisRepN'
p599
I0
sg66
Vaxe
p600
sg63
V../experiment_stimuli/bw_bc_bl/Nonliving_Things/Tools/axe_6.jpg
p601
sg21
F1.1126479562371969
sS'trials.thisTrialN'
p602
I46
sa(dp603
g31
g32
sg17
F201.44152444275096
sg24
I1
sg35
g39
sg14
F201.43656778801233
sg16
g36
(g70
S'\x02\x00\x00\x00'
tRp604
sg42
g43
sg46
g47
sg15
g72
sg22
F203.58188468404114
sg64
g226
sg62
g125
sg49
g50
sS'trials.thisN'
p605
I47
sg19
I1
sg27
g36
(g38
S'\x00\x00\x00\x00\x00\x00\x1a@'
tRp606
sg52
g53
sg23
S'1'
sg18
F202.70923268189654
sg33
g34
sg51
g11
sg20
S'2'
sg65
g36
(g77
S'\x00\x00\x00\x00\x00\x00\x00\x00'
tRp607
sg44
g45
sg40
g41
sg25
F0.52146134385839105
sS'trials.thisIndex'
p608
g36
(g80
S'\x13\x00\x00\x00'
tRp609
sg26
V5
sS'trials.thisRepN'
p610
I0
sg66
Vcouch
p611
sg63
V../experiment_stimuli/bw_bc_bl/Nonliving_Things/Furniture/couch_23.jpg
p612
sg21
F0.85210121748968959
sS'trials.thisTrialN'
p613
I47
sa(dp614
g31
g32
sg17
F205.84096056781709
sg24
I0
sg35
g39
sg14
F205.83613067446277
sg16
g36
(g70
S'\x01\x00\x00\x00'
tRp615
sg42
g43
sg46
g47
sg15
g88
sg22
F208.16184793785214
sg64
g271
sg62
g125
sg49
g50
sS'trials.thisN'
p616
I48
sg19
I1
sg27
g36
(g38
S'\x00\x00\x00\x00\x00\x00 @'
tRp617
sg52
g53
sg23
S'3'
sg18
F207.11882800748572
sg33
g34
sg51
g11
sg20
S'1'
sg65
g36
(g77
S'\x00\x00\x00\x00\x00\x00\x00\x00'
tRp618
sg44
g45
sg40
g41
sg25
F0.26078285556286573
sS'trials.thisIndex'
p619
g36
(g80
S'\x07\x00\x00\x00'
tRp620
sg26
V5
sS'trials.thisRepN'
p621
I0
sg66
Vboat
p622
sg63
V../experiment_stimuli/bw_bc_bl/Nonliving_Things/Vehicles/boat_23.jpg
p623
sg21
F1.0224647214636207
sS'trials.thisTrialN'
p624
I48
sa(dp625
g31
g32
sg17
F210.1605364754796
sg24
I1
sg35
g39
sg14
F210.15552391577512
sg16
g36
(g70
S'\x02\x00\x00\x00'
tRp626
sg42
g43
sg46
g47
sg15
g72
sg22
F215.11679096799344
sg64
g316
sg62
g125
sg49
g50
sS'trials.thisN'
p627
I49
sg19
I0
sg27
g36
(g38
S'\x00\x00\x00\x00\x00\x00\x1a@'
tRp628
sg52
g53
sg23
S'1'
sg18
F211.40814497228712
sg33
g34
sg51
g11
sg20
S'1'
sg65
g36
(g77
S'\x00\x00\x00\x00\x00\x00\x00\x00'
tRp629
sg44
g45
sg40
g41
sg25
F0.26078417105600238
sS'trials.thisIndex'
p630
g36
(g80
S'\x0e\x00\x00\x00'
tRp631
sg26
V5
sS'trials.thisRepN'
p632
I0
sg66
Vcathedral
p633
sg63
V../experiment_stimuli/bw_bc_bl/Nonliving_Things/Buildings/cathedral_16.jpg
p634
sg21
F3.688084770925343
sS'trials.thisTrialN'
p635
I49
sa(dp636
g31
g32
sg17
F217.11790429055691
sg24
I0
sg35
g39
sg14
F217.11064217984676
sg16
g36
(g70
S'\x01\x00\x00\x00'
tRp637
sg42
g43
sg46
g47
sg15
g72
sg22
F219.22571662161499
sg64
g159
sg62
g74
sg49
g50
sS'trials.thisN'
p638
I50
sg19
I1
sg27
g36
(g38
S'\x00\x00\x00\x00\x00\x00\x1c@'
tRp639
sg52
g53
sg23
S'3'
sg18
F218.3833074234426
sg33
g34
sg51
g11
sg20
S'1'
sg65
g36
(g77
S'\x00\x00\x00\x00\x00\x00\x00\x00'
tRp640
sg44
g45
sg40
g41
sg25
F0.21073114313185215
sS'trials.thisIndex'
p641
g36
(g80
S"'\x00\x00\x00"
tRp642
sg26
V5
sS'trials.thisRepN'
p643
I0
sg66
Vhippopotamus
p644
sg63
V../experiment_stimuli/bw_bc_bl/Living_Things/Animals/hippopotamus_20.jpg
p645
sg21
F0.82185341790318489
sS'trials.thisTrialN'
p646
I50
sa(dp647
g31
g32
sg17
F221.17445751745254
sg24
I1
sg35
g39
sg14
F221.16947141988203
sg16
g36
(g70
S'\x02\x00\x00\x00'
tRp648
sg42
g43
sg46
g47
sg15
g72
sg22
F223.20452761324123
sg64
g328
sg62
g125
sg49
g50
sS'trials.thisN'
p649
I51
sg19
I1
sg27
g36
(g38
S'\x00\x00\x00\x00\x00\x00\x1a@'
tRp650
sg52
g53
sg23
S'1'
sg18
F222.43211367866024
sg33
g34
sg51
g11
sg20
S'2'
sg65
g36
(g77
S'\x00\x00\x00\x00\x00\x00\x00\x00'
tRp651
sg44
g45
sg40
g41
sg25
F0.14059801632538438
sS'trials.thisIndex'
p652
g36
(g80
S'>\x00\x00\x00'
tRp653
sg26
V5
sS'trials.thisRepN'
p654
I0
sg66
Vpiano
p655
sg63
V../experiment_stimuli/bw_bc_bl/Nonliving_Things/Musical_Inst/piano__21.jpg
p656
sg21
F0.75185948796570301
sS'trials.thisTrialN'
p657
I51
sa(dp658
g31
g32
sg17
F225.08282190095633
sg24
I1
sg35
g39
sg14
F225.07797048939392
sg16
g36
(g70
S'\x01\x00\x00\x00'
tRp659
sg42
g43
sg46
g47
sg15
g72
sg22
F227.58407708676532
sg64
g159
sg62
g74
sg49
g50
sS'trials.thisN'
p660
I52
sg19
I1
sg27
g36
(g38
S'\x00\x00\x00\x00\x00\x00\x1a@'
tRp661
sg52
g53
sg23
S'1'
sg18
F226.35063430806622
sg33
g34
sg51
g11
sg20
S'1'
sg65
g36
(g77
S'\x00\x00\x00\x00\x00\x00\x00\x00'
tRp662
sg44
g45
sg40
g41
sg25
F0.27080425666645169
sS'trials.thisIndex'
p663
g36
(g80
S'R\x00\x00\x00'
tRp664
sg26
V5
sS'trials.thisRepN'
p665
I0
sg66
Vtapir
p666
sg63
V../experiment_stimuli/bw_bc_bl/Living_Things/Animals/tapir_2.jpg
p667
sg21
F1.2128845355473459
sS'trials.thisTrialN'
p668
I52
sa(dp669
g31
g32
sg17
F229.59276317292824
sg24
I0
sg35
g39
sg14
F229.58779234904796
sg16
g36
(g70
S'\x01\x00\x00\x00'
tRp670
sg42
g43
sg46
g47
sg15
g72
sg22
F240.22152608446777
sg64
g101
sg62
g74
sg49
g50
sS'trials.thisN'
p671
I53
sg19
I1
sg27
g36
(g38
S'\x00\x00\x00\x00\x00\x00\x18@'
tRp672
sg52
g53
sg23
S'3'
sg18
F230.88048824155703
sg33
g34
sg51
g11
sg20
S'1'
sg65
g36
(g77
S'\x00\x00\x00\x00\x00\x00\x00\x00'
tRp673
sg44
g45
sg40
g41
sg25
F0.34098398126661777
sS'trials.thisIndex'
p674
g36
(g80
S'\x18\x00\x00\x00'
tRp675
sg26
V5
sS'trials.thisRepN'
p676
I0
sg66
Vdragonfly
p677
sg63
V../experiment_stimuli/bw_bc_bl/Living_Things/Insects/dragonfly_0.jpg
p678
sg21
F9.3204913102090359
sS'trials.thisTrialN'
p679
I53
sa(dp680
g31
g32
sg17
F242.30018451763317
sg24
I0
sg35
g39
sg14
F242.29538774024695
sg16
g36
(g70
S'\x01\x00\x00\x00'
tRp681
sg42
g43
sg46
g47
sg15
g88
sg22
F244.14006966771558
sg64
g124
sg62
g125
sg49
g50
sS'trials.thisN'
p682
I54
sg19
I1
sg27
g36
(g38
S'\x00\x00\x00\x00\x00\x00\x18@'
tRp683
sg52
g53
sg23
S'3'
sg18
F243.55804072134197
sg33
g34
sg51
g11
sg20
S'1'
sg65
g36
(g77
S'\x00\x00\x00\x00\x00\x00\x00\x00'
tRp684
sg44
g45
sg40
g41
sg25
F0.26078320108354092
sS'trials.thisIndex'
p685
g36
(g80
S'B\x00\x00\x00'
tRp686
sg26
V5
sS'trials.thisRepN'
p687
I0
sg66
Vpot
p688
sg63
V../experiment_stimuli/bw_bc_bl/Nonliving_Things/Kitchen_Uten/pot_20.jpg
p689
sg21
F0.56146877072751522
sS'trials.thisTrialN'
p690
I54
sa(dp691
g31
g32
sg17
F246.1385159380734
sg24
I1
sg35
g39
sg14
F246.13373767910525
sg16
g36
(g70
S'\x02\x00\x00\x00'
tRp692
sg42
g43
sg46
g47
sg15
g88
sg22
F247.5372771047987
sg64
g73
sg62
g74
sg49
g50
sS'trials.thisN'
p693
I55
sg19
I0
sg27
g36
(g38
S'\x00\x00\x00\x00\x00\x00\x1e@'
tRp694
sg52
g53
sg23
S'1'
sg18
F247.3663243688643
sg33
g34
sg51
g11
sg20
S'1'
sg65
g36
(g77
S'\x00\x00\x00\x00\x00\x00\x00\x00'
tRp695
sg44
g45
sg40
g41
sg25
F0.21067652059718966
sS'trials.thisIndex'
p696
g36
(g80
S'=\x00\x00\x00'
tRp697
sg26
V5
sS'trials.thisRepN'
p698
I0
sg66
Vpenguin
p699
sg63
V../experiment_stimuli/bw_bc_bl/Living_Things/Birds/penguin_10.jpg
p700
sg21
F0.15040632337331772
sS'trials.thisTrialN'
p701
I55
sa(dp702
g31
g32
sg17
F249.48583178129047
sg24
I0
sg35
g39
sg14
F249.48101666243747
sg16
g36
(g70
S'\x01\x00\x00\x00'
tRp703
sg42
g43
sg46
g47
sg15
g88
sg22
F253.94135053129867
sg64
g226
sg62
g125
sg49
g50
sS'trials.thisN'
p704
I56
sg19
I1
sg27
g36
(g38
S'\x00\x00\x00\x00\x00\x00\x18@'
tRp705
sg52
g53
sg23
S'3'
sg18
F250.74367040209472
sg33
g34
sg51
g11
sg20
S'1'
sg65
g36
(g77
S'\x00\x00\x00\x00\x00\x00\x00\x00'
tRp706
sg44
g45
sg40
g41
sg25
F0.2307723113335669
sS'trials.thisIndex'
p707
g36
(g80
S'\x0f\x00\x00\x00'
tRp708
sg26
V5
sS'trials.thisRepN'
p709
I0
sg66
Vchair
p710
sg63
V../experiment_stimuli/bw_bc_bl/Nonliving_Things/Furniture/chair_0.jpg
p711
sg21
F3.1771400962024927
sS'trials.thisTrialN'
p712
I56
sa(dp713
g31
g32
sg17
F255.91113097919151
sg24
I1
sg35
g39
sg14
F255.90497987205163
sg16
g36
(g70
S'\x02\x00\x00\x00'
tRp714
sg42
g43
sg46
g47
sg15
g88
sg22
F257.26860230509192
sg64
g159
sg62
g74
sg49
g50
sS'trials.thisN'
p715
I57
sg19
I0
sg27
g36
(g38
S'\x00\x00\x00\x00\x00\x00\x1c@'
tRp716
sg52
g53
sg23
S'1'
sg18
F257.13756930222735
sg33
g34
sg51
g11
sg20
S'1'
sg65
g36
(g77
S'\x00\x00\x00\x00\x00\x00\x00\x00'
tRp717
sg44
g45
sg40
g41
sg25
F0.2407427066937089
sS'trials.thisIndex'
p718
g36
(g80
S'\x14\x00\x00\x00'
tRp719
sg26
V5
sS'trials.thisRepN'
p720
I0
sg66
Vcow
p721
sg63
V../experiment_stimuli/bw_bc_bl/Living_Things/Animals/cow_26.jpg
p722
sg21
F0.11047474527731538
sS'trials.thisTrialN'
p723
I57
sa(dp724
g31
g32
sg17
F259.24705122271553
sg24
I0
sg35
g39
sg14
F259.24224674655125
sg16
g36
(g70
S'\x02\x00\x00\x00'
tRp725
sg42
g43
sg46
g47
sg15
g72
sg22
F260.87649177340791
sg64
g328
sg62
g125
sg49
g50
sS'trials.thisN'
p726
I58
sg19
I0
sg27
g36
(g38
S'\x00\x00\x00\x00\x00\x00\x18@'
tRp727
sg52
g53
sg23
S'3'
sg18
F260.50488303927705
sg33
g34
sg51
g11
sg20
S'1'
sg65
g36
(g77
S'\x00\x00\x00\x00\x00\x00\x00\x00'
tRp728
sg44
g45
sg40
g41
sg25
F0.18063942389562726
sS'trials.thisIndex'
p729
g36
(g80
S'\\\x00\x00\x00'
tRp730
sg26
V5
sS'trials.thisRepN'
p731
I0
sg66
Vviolin
p732
sg63
V../experiment_stimuli/bw_bc_bl/Nonliving_Things/Musical_Inst/violin_22.jpg
p733
sg21
F0.3510159426368773
sS'trials.thisTrialN'
p734
I58
sa(dp735
g31
g32
sg17
F262.79478141013533
sg24
I1
sg35
g39
sg14
F262.78994806157425
sg16
g36
(g70
S'\x02\x00\x00\x00'
tRp736
sg42
g43
sg46
g47
sg15
g88
sg22
F264.36402133805677
sg64
g73
sg62
g74
sg49
g50
sS'trials.thisN'
p737
I59
sg19
I1
sg27
g36
(g38
S'\x00\x00\x00\x00\x00\x00\x1a@'
tRp738
sg52
g53
sg23
S'1'
sg18
F264.02252990193665
sg33
g34
sg51
g11
sg20
S'2'
sg65
g36
(g77
S'\x00\x00\x00\x00\x00\x00\x00\x00'
tRp739
sg44
g45
sg40
g41
sg25
F0.13050887500867248
sS'trials.thisIndex'
p740
g36
(g80
S'F\x00\x00\x00'
tRp741
sg26
V5
sS'trials.thisRepN'
p742
I0
sg66
Vrooster
p743
sg63
V../experiment_stimuli/bw_bc_bl/Living_Things/Birds/rooster_5.jpg
p744
sg21
F0.32092478405684233
sS'trials.thisTrialN'
p745
I59
sa(dp746
g31
g32
sg17
F266.23222456034273
sg24
I1
sg35
g39
sg14
F266.22744801593944
sg16
g36
(g70
S'\x02\x00\x00\x00'
tRp747
sg42
g43
sg46
g47
sg15
g72
sg22
F267.64114264538512
sg64
g226
sg62
g125
sg49
g50
sS'trials.thisN'
p748
I60
sg19
I0
sg27
g36
(g38
S'\x00\x00\x00\x00\x00\x00\x1e@'
tRp749
sg52
g53
sg23
S'1'
sg18
F267.4700237242505
sg33
g34
sg51
g11
sg20
S'1'
sg65
g36
(g77
S'\x00\x00\x00\x00\x00\x00\x00\x00'
tRp750
sg44
g45
sg40
g41
sg25
F1.2930338652804494
sS'trials.thisIndex'
p751
g36
(g80
S'Q\x00\x00\x00'
tRp752
sg26
V5
sS'trials.thisRepN'
p753
I0
sg66
Vtable
p754
sg63
V../experiment_stimuli/bw_bc_bl/Nonliving_Things/Furniture/table_20.jpg
p755
sg21
F0.15055243810638785
sS'trials.thisTrialN'
p756
I60
sa(dp757
g31
g32
sg17
F270.67333133285865
sg24
I0
sg35
g39
sg14
F270.66707810666412
sg16
g36
(g70
S'\x01\x00\x00\x00'
tRp758
sg42
g43
sg46
g47
sg15
g88
sg22
F273.40367033937946
sg64
g328
sg62
g125
sg49
g50
sS'trials.thisN'
p759
I61
sg19
I1
sg27
g36
(g38
S'\x00\x00\x00\x00\x00\x00\x18@'
tRp760
sg52
g53
sg23
S'3'
sg18
F271.94976842449978
sg33
g34
sg51
g11
sg20
S'1'
sg65
g36
(g77
S'\x00\x00\x00\x00\x00\x00\x00\x00'
tRp761
sg44
g45
sg40
g41
sg25
F0.34095795126631856
sS'trials.thisIndex'
p762
g36
(g80
S'H\x00\x00\x00'
tRp763
sg26
V5
sS'trials.thisRepN'
p764
I0
sg66
Vsaxophone
p765
sg63
V../experiment_stimuli/bw_bc_bl/Nonliving_Things/Musical_Inst/saxophone_5.jpg
p766
sg21
F1.4333492498844862
sS'trials.thisTrialN'
p767
I61
sa(dp768
g31
g32
sg17
F275.48237248277292
sg24
I1
sg35
g39
sg14
F275.47752623585984
sg16
g36
(g70
S'\x02\x00\x00\x00'
tRp769
sg42
g43
sg46
g47
sg15
g88
sg22
F277.02136709587649
sg64
g73
sg62
g74
sg49
g50
sS'trials.thisN'
p770
I62
sg19
I1
sg27
g36
(g38
S'\x00\x00\x00\x00\x00\x00\x1c@'
tRp771
sg52
g53
sg23
S'1'
sg18
F276.73015908244997
sg33
g34
sg51
g11
sg20
S'2'
sg65
g36
(g77
S'\x00\x00\x00\x00\x00\x00\x00\x00'
tRp772
sg44
g45
sg40
g41
sg25
F0.13053678860887885
sS'trials.thisIndex'
p773
g36
(g80
S'*\x00\x00\x00'
tRp774
sg26
V5
sS'trials.thisRepN'
p775
I0
sg66
Vhummingbird
p776
sg63
V../experiment_stimuli/bw_bc_bl/Living_Things/Birds/hummingbird_12.jpg
p777
sg21
F0.2706553228199482
sS'trials.thisTrialN'
p778
I62
sa(dp779
g31
g32
sg17
F278.88972473703325
sg24
I0
sg35
g39
sg14
F278.88494344428182
sg16
g36
(g70
S'\x02\x00\x00\x00'
tRp780
sg42
g43
sg46
g47
sg15
g72
sg22
F281.89213371137157
sg64
g316
sg62
g125
sg49
g50
sS'trials.thisN'
p781
I63
sg19
I1
sg27
g36
(g38
S'\x00\x00\x00\x00\x00\x00\x18@'
tRp782
sg52
g53
sg23
S'3'
sg18
F280.14758655661717
sg33
g34
sg51
g11
sg20
S'2'
sg65
g36
(g77
S'\x00\x00\x00\x00\x00\x00\x00\x00'
tRp783
sg44
g45
sg40
g41
sg25
F0.59151437086984515
sS'trials.thisIndex'
p784
g36
(g80
S':\x00\x00\x00'
tRp785
sg26
V5
sS'trials.thisRepN'
p786
I0
sg66
Vpalace
p787
sg63
V../experiment_stimuli/bw_bc_bl/Nonliving_Things/Buildings/palace_1.jpg
p788
sg21
F1.7239867909811437
sS'trials.thisTrialN'
p789
I63
sa(dp790
g31
g32
sg17
F284.22126858402044
sg24
I1
sg35
g39
sg14
F284.21653913659975
sg16
g36
(g70
S'\x01\x00\x00\x00'
tRp791
sg42
g43
sg46
g47
sg15
g88
sg22
F285.49995407182723
sg64
g316
sg62
g125
sg49
g50
sS'trials.thisN'
p792
I64
sg19
I1
sg27
g36
(g38
S'\x00\x00\x00\x00\x00\x00\x1e@'
tRp793
sg52
g53
sg23
S'1'
sg18
F285.44911465328187
sg33
g34
sg51
g11
sg20
S'1'
sg65
g36
(g77
S'\x00\x00\x00\x00\x00\x00\x00\x00'
tRp794
sg44
g45
sg40
g41
sg25
F0.21068697515875101
sS'trials.thisIndex'
p795
g36
(g80
S'\x0c\x00\x00\x00'
tRp796
sg26
V5
sS'trials.thisRepN'
p797
I0
sg66
Vcastle
p798
sg63
V../experiment_stimuli/bw_bc_bl/Nonliving_Things/Buildings/castle_22.jpg
p799
sg21
F0.030296054668724537
sS'trials.thisTrialN'
p800
I64
sa(dp801
g31
g32
sg17
F287.44842618936673
sg24
I1
sg35
g39
sg14
F287.44356801081449
sg16
g36
(g70
S'\x01\x00\x00\x00'
tRp802
sg42
g43
sg46
g47
sg15
g88
sg22
F288.93740953784436
sg64
g124
sg62
g125
sg49
g50
sS'trials.thisN'
p803
I65
sg19
I1
sg27
g36
(g38
S'\x00\x00\x00\x00\x00\x00\x1e@'
tRp804
sg52
g53
sg23
S'1'
sg18
F288.70619925903156
sg33
g34
sg51
g11
sg20
S'1'
sg65
g36
(g77
S'\x00\x00\x00\x00\x00\x00\x00\x00'
tRp805
sg44
g45
sg40
g41
sg25
F0.40109213953837752
sS'trials.thisIndex'
p806
g36
(g80
S'M\x00\x00\x00'
tRp807
sg26
V5
sS'trials.thisRepN'
p808
I0
sg66
Vsmall-saucepan
p809
sg63
V../experiment_stimuli/bw_bc_bl/Nonliving_Things/Kitchen_Uten/small-saucepan_13.jpg
p810
sg21
F0.20064643444493413
sS'trials.thisTrialN'
p811
I65
sa(dp812
g31
g32
sg17
F291.07617899402976
sg24
I0
sg35
g39
sg14
F291.07145052775741
sg16
g36
(g70
S'\x02\x00\x00\x00'
tRp813
sg42
g43
sg46
g47
sg15
g72
sg22
F293.37709756754339
sg64
g226
sg62
g125
sg49
g50
sS'trials.thisN'
p814
I66
sg19
I1
sg27
g36
(g38
S'\x00\x00\x00\x00\x00\x00\x1e@'
tRp815
sg52
g53
sg23
S'3'
sg18
F292.35411926684901
sg33
g34
sg51
g11
sg20
S'2'
sg65
g36
(g77
S'\x00\x00\x00\x00\x00\x00\x00\x00'
tRp816
sg44
g45
sg40
g41
sg25
F0.15055380994454026
sS'trials.thisIndex'
p817
g36
(g80
S'\x05\x00\x00\x00'
tRp818
sg26
V5
sS'trials.thisRepN'
p819
I0
sg66
Vbed
p820
sg63
V../experiment_stimuli/bw_bc_bl/Nonliving_Things/Furniture/bed_9.jpg
p821
sg21
F1.0024090874940157
sS'trials.thisTrialN'
p822
I66
sa(dp823
g31
g32
sg17
F295.2666707765311
sg24
I1
sg35
g39
sg14
F295.26055449945852
sg16
g36
(g70
S'\x02\x00\x00\x00'
tRp824
sg42
g43
sg46
g47
sg15
g72
sg22
F296.764463968575
sg64
g271
sg62
g125
sg49
g50
sS'trials.thisN'
p825
I67
sg19
I0
sg27
g36
(g38
S'\x00\x00\x00\x00\x00\x00\x1a@'
tRp826
sg52
g53
sg23
S'1'
sg18
F296.50314097106457
sg33
g34
sg51
g11
sg20
S'1'
sg65
g36
(g77
S'\x00\x00\x00\x00\x00\x00\x00\x00'
tRp827
sg44
g45
sg40
g41
sg25
F0.22070029750466347
sS'trials.thisIndex'
p828
g36
(g80
S'L\x00\x00\x00'
tRp829
sg26
V5
sS'trials.thisRepN'
p830
I0
sg66
Vship
p831
sg63
V../experiment_stimuli/bw_bc_bl/Nonliving_Things/Vehicles/ship_18.jpg
p832
sg21
F0.240750334225595
sS'trials.thisTrialN'
p833
I67
sa(dp834
g31
g32
sg17
F298.72299219062552
sg24
I0
sg35
g39
sg14
F298.71807371173054
sg16
g36
(g70
S'\x02\x00\x00\x00'
tRp835
sg42
g43
sg46
g47
sg15
g72
sg22
F303.04810503777117
sg64
g271
sg62
g125
sg49
g50
sS'trials.thisN'
p836
I68
sg19
I1
sg27
g36
(g38
S'\x00\x00\x00\x00\x00\x00\x18@'
tRp837
sg52
g53
sg23
S'3'
sg18
F299.99072769237682
sg33
g34
sg51
g11
sg20
S'2'
sg65
g36
(g77
S'\x00\x00\x00\x00\x00\x00\x00\x00'
tRp838
sg44
g45
sg40
g41
sg25
F0.15055476501584053
sS'trials.thisIndex'
p839
g36
(g80
S'6\x00\x00\x00'
tRp840
sg26
V5
sS'trials.thisRepN'
p841
I0
sg66
Vmotorbike
p842
sg63
V../experiment_stimuli/bw_bc_bl/Nonliving_Things/Vehicles/motorbike_25.jpg
p843
sg21
F3.0368331805802882
sS'trials.thisTrialN'
p844
I68
sa(dp845
g31
g32
sg17
F304.93789154477417
sg24
I1
sg35
g39
sg14
F304.93156539089978
sg16
g36
(g70
S'\x01\x00\x00\x00'
tRp846
sg42
g43
sg46
g47
sg15
g88
sg22
F306.84636515192688
sg64
g316
sg62
g125
sg49
g50
sS'trials.thisN'
p847
I69
sg19
I1
sg27
g36
(g38
S'\x00\x00\x00\x00\x00\x00\x1a@'
tRp848
sg52
g53
sg23
S'1'
sg18
F306.18418935732916
sg33
g34
sg51
g11
sg20
S'1'
sg65
g36
(g77
S'\x00\x00\x00\x00\x00\x00\x00\x00'
tRp849
sg44
g45
sg40
g41
sg25
F0.20065423939377069
sS'trials.thisIndex'
p850
g36
(g80
S'5\x00\x00\x00'
tRp851
sg26
V5
sS'trials.thisRepN'
p852
I0
sg66
Vmill
p853
sg63
V../experiment_stimuli/bw_bc_bl/Nonliving_Things/Buildings/mill_1.jpg
p854
sg21
F0.64162369072437286
sS'trials.thisTrialN'
p855
I69
sa(dp856
g31
g32
sg17
F308.78614459000528
sg24
I0
sg35
g39
sg14
F308.77994162216783
sg16
g36
(g70
S'\x01\x00\x00\x00'
tRp857
sg42
g43
sg46
g47
sg15
g88
sg22
F311.49647784885019
sg64
g328
sg62
g125
sg49
g50
sS'trials.thisN'
p858
I70
sg19
I1
sg27
g36
(g38
S'\x00\x00\x00\x00\x00\x00\x18@'
tRp859
sg52
g53
sg23
S'3'
sg18
F310.04257697891444
sg33
g34
sg51
g11
sg20
S'1'
sg65
g36
(g77
S'\x00\x00\x00\x00\x00\x00\x00\x00'
tRp860
sg44
g45
sg40
g41
sg25
F0.19068122794851661
sS'trials.thisIndex'
p861
g36
(g80
S'Y\x00\x00\x00'
tRp862
sg26
V5
sS'trials.thisRepN'
p863
I0
sg66
Vtuba
p864
sg63
V../experiment_stimuli/bw_bc_bl/Nonliving_Things/Musical_Inst/tuba_21.jpg
p865
sg21
F1.4333466188982129
sS'trials.thisTrialN'
p866
I70
sa(dp867
g31
g32
sg17
F313.42480028886348
sg24
I0
sg35
g39
sg14
F313.42001778958365
sg16
g36
(g70
S'\x01\x00\x00\x00'
tRp868
sg42
g43
sg46
g47
sg15
g72
sg22
F315.25447667157277
sg64
g73
sg62
g74
sg49
g50
sS'trials.thisN'
p869
I71
sg19
I1
sg27
g36
(g38
S'\x00\x00\x00\x00\x00\x00\x18@'
tRp870
sg52
g53
sg23
S'3'
sg18
F314.67265144782141
sg33
g34
sg51
g11
sg20
S'1'
sg65
g36
(g77
S'\x00\x00\x00\x00\x00\x00\x00\x00'
tRp871
sg44
g45
sg40
g41
sg25
F0.16057647485285997
sS'trials.thisIndex'
p872
g36
(g80
S'9\x00\x00\x00'
tRp873
sg26
V5
sS'trials.thisRepN'
p874
I0
sg66
Vowl
p875
sg63
V../experiment_stimuli/bw_bc_bl/Living_Things/Birds/owl_20.jpg
p876
sg21
F0.5612889165058732
sS'trials.thisTrialN'
p877
I71
sa(dp878
g31
g32
sg17
F317.15425926819444
sg24
I1
sg35
g39
sg14
F317.14812484476715
sg16
g36
(g70
S'\x02\x00\x00\x00'
tRp879
sg42
g43
sg46
g47
sg15
g88
sg22
F318.62200242839754
sg64
g159
sg62
g74
sg49
g50
sS'trials.thisN'
p880
I72
sg19
I0
sg27
g36
(g38
S'\x00\x00\x00\x00\x00\x00\x18@'
tRp881
sg52
g53
sg23
S'1'
sg18
F318.38070208299905
sg33
g34
sg51
g11
sg20
S'1'
sg65
g36
(g77
S'\x00\x00\x00\x00\x00\x00\x00\x00'
tRp882
sg44
g45
sg40
g41
sg25
F0.2206927677616477
sS'trials.thisIndex'
p883
g36
(g80
S'D\x00\x00\x00'
tRp884
sg26
V5
sS'trials.thisRepN'
p885
I0
sg66
Vrhino
p886
sg63
V../experiment_stimuli/bw_bc_bl/Living_Things/Animals/rhino_19.jpg
p887
sg21
F0.22072767000645399
sS'trials.thisTrialN'
p888
I72
sa(dp889
g31
g32
sg17
F320.58033616049215
sg24
I1
sg35
g39
sg14
F320.57557709282264
sg16
g36
(g70
S'\x02\x00\x00\x00'
tRp890
sg42
g43
sg46
g47
sg15
g88
sg22
F322.05945345433429
sg64
g73
sg62
g74
sg49
g50
sS'trials.thisN'
p891
I73
sg19
I0
sg27
g36
(g38
S'\x00\x00\x00\x00\x00\x00\x1c@'
tRp892
sg52
g53
sg23
S'1'
sg18
F321.81817879714072
sg33
g34
sg51
g11
sg20
S'1'
sg65
g36
(g77
S'\x00\x00\x00\x00\x00\x00\x00\x00'
tRp893
sg44
g45
sg40
g41
sg25
F0.20065412251278758
sS'trials.thisIndex'
p894
g36
(g80
S'C\x00\x00\x00'
tRp895
sg26
V5
sS'trials.thisRepN'
p896
I0
sg66
Vraven
p897
sg63
V../experiment_stimuli/bw_bc_bl/Living_Things/Birds/raven_8.jpg
p898
sg21
F0.2207066398113966
sS'trials.thisTrialN'
p899
I73
sa(dp900
g31
g32
sg17
F323.99923977907747
sg24
I0
sg35
g39
sg14
F323.99300425546244
sg16
g36
(g70
S'\x02\x00\x00\x00'
tRp901
sg42
g43
sg46
g47
sg15
g88
sg22
F325.9378805635497
sg64
g73
sg62
g74
sg49
g50
sS'trials.thisN'
p902
I74
sg19
I1
sg27
g36
(g38
S'\x00\x00\x00\x00\x00\x00\x18@'
tRp903
sg52
g53
sg23
S'2'
sg18
F325.25565032288432
sg33
g34
sg51
g11
sg20
S'2'
sg65
g36
(g77
S'\x00\x00\x00\x00\x00\x00\x00\x00'
tRp904
sg44
g45
sg40
g41
sg25
F0.68170568812638521
sS'trials.thisIndex'
p905
g36
(g80
S'8\x00\x00\x00'
tRp906
sg26
V5
sS'trials.thisRepN'
p907
I0
sg66
Vostrich
p908
sg63
V../experiment_stimuli/bw_bc_bl/Living_Things/Birds/ostrich_4.jpg
p909
sg21
F0.66166898282244802
sS'trials.thisTrialN'
p910
I74
sa(dp911
g31
g32
sg17
F328.35732571035624
sg24
I0
sg35
g39
sg14
F328.35248515941203
sg16
g36
(g70
S'\x01\x00\x00\x00'
tRp912
sg42
g43
sg46
g47
sg15
g72
sg22
F330.5278504374437
sg64
g73
sg62
g74
sg49
g50
sS'trials.thisN'
p913
I75
sg19
I1
sg27
g36
(g38
S'\x00\x00\x00\x00\x00\x00\x18@'
tRp914
sg52
g53
sg23
S'2'
sg18
F329.61513242591172
sg33
g34
sg51
g11
sg20
S'1'
sg65
g36
(g77
S'\x00\x00\x00\x00\x00\x00\x00\x00'
tRp915
sg44
g45
sg40
g41
sg25
F0.31088864896446466
sS'trials.thisIndex'
p916
g36
(g80
S'"\x00\x00\x00'
tRp917
sg26
V5
sS'trials.thisRepN'
p918
I0
sg66
Vgoose
p919
sg63
V../experiment_stimuli/bw_bc_bl/Living_Things/Birds/goose_20.jpg
p920
sg21
F0.89216503873467445
sS'trials.thisTrialN'
p921
I75
sa(dp922
g31
g32
sg17
F332.57941793929785
sg24
I1
sg35
g39
sg14
F332.57166058383882
sg16
g36
(g70
S'\x01\x00\x00\x00'
tRp923
sg42
g43
sg46
g47
sg15
g72
sg22
F334.03532227640972
sg64
g73
sg62
g74
sg49
g50
sS'trials.thisN'
p924
I76
sg19
I1
sg27
g36
(g38
S'\x00\x00\x00\x00\x00\x00\x18@'
tRp925
sg52
g53
sg23
S'1'
sg18
F333.81427565263584
sg33
g34
sg51
g11
sg20
S'1'
sg65
g36
(g77
S'\x00\x00\x00\x00\x00\x00\x00\x00'
tRp926
sg44
g45
sg40
g41
sg25
F0.18061005603522062
sS'trials.thisIndex'
p927
g36
(g80
S';\x00\x00\x00'
tRp928
sg26
V5
sS'trials.thisRepN'
p929
I0
sg66
Vpartridge
p930
sg63
V../experiment_stimuli/bw_bc_bl/Living_Things/Birds/partridge_23.jpg
p931
sg21
F0.20050101215019822
sS'trials.thisTrialN'
p932
I76
sa(dp933
g31
g32
sg17
F335.9551729504019
sg24
I1
sg35
g39
sg14
F335.94899509148672
sg16
g36
(g70
S'\x02\x00\x00\x00'
tRp934
sg42
g43
sg46
g47
sg15
g88
sg22
F338.92594986315817
sg64
g89
sg62
g74
sg49
g50
sS'trials.thisN'
p935
I77
sg19
I0
sg27
g36
(g38
S'\x00\x00\x00\x00\x00\x00\x18@'
tRp936
sg52
g53
sg23
S'1'
sg18
F337.21165011730045
sg33
g34
sg51
g11
sg20
S'1'
sg65
g36
(g77
S'\x00\x00\x00\x00\x00\x00\x00\x00'
tRp937
sg44
g45
sg40
g41
sg25
F0.24076875858008862
sS'trials.thisIndex'
p938
g36
(g80
S'7\x00\x00\x00'
tRp939
sg26
V5
sS'trials.thisRepN'
p940
I0
sg66
Vnarwhal
p941
sg63
V../experiment_stimuli/bw_bc_bl/Living_Things/Marine_creatures/narwhal_13.jpg
p942
sg21
F1.6937460587359965
sS'trials.thisTrialN'
p943
I77
sa(dp944
g31
g32
sg17
F340.90453636134043
sg24
I0
sg35
g39
sg14
F340.89976150821894
sg16
g36
(g70
S'\x01\x00\x00\x00'
tRp945
sg42
g43
sg46
g47
sg15
g72
sg22
F343.43590148771182
sg64
g159
sg62
g74
sg49
g50
sS'trials.thisN'
p946
I78
sg19
I1
sg27
g36
(g38
S'\x00\x00\x00\x00\x00\x00\x1a@'
tRp947
sg52
g53
sg23
S'3'
sg18
F342.19247261155397
sg33
g34
sg51
g11
sg20
S'1'
sg65
g36
(g77
S'\x00\x00\x00\x00\x00\x00\x00\x00'
tRp948
sg44
g45
sg40
g41
sg25
F0.28083494771271944
sS'trials.thisIndex'
p949
g36
(g80
S'T\x00\x00\x00'
tRp950
sg26
V5
sS'trials.thisRepN'
p951
I0
sg66
Vtiger
p952
sg63
V../experiment_stimuli/bw_bc_bl/Living_Things/Animals/tiger_18.jpg
p953
sg21
F1.2228848622180521
sS'trials.thisTrialN'
p954
I78
sa(dp955
g31
g32
sg17
F345.45450066123158
sg24
I0
sg35
g39
sg14
F345.44964896747842
sg16
g36
(g70
S'\x02\x00\x00\x00'
tRp956
sg42
g43
sg46
g47
sg15
g88
sg22
F347.1740706320852
sg64
g159
sg62
g74
sg49
g50
sS'trials.thisN'
p957
I79
sg19
I1
sg27
g36
(g38
S'\x00\x00\x00\x00\x00\x00\x18@'
tRp958
sg52
g53
sg23
S'3'
sg18
F346.71229847101495
sg33
g34
sg51
g11
sg20
S'2'
sg65
g36
(g77
S'\x00\x00\x00\x00\x00\x00\x00\x00'
tRp959
sg44
g45
sg40
g41
sg25
F0.35098989447578788
sS'trials.thisIndex'
p960
g36
(g80
S'_\x00\x00\x00'
tRp961
sg26
V5
sS'trials.thisRepN'
p962
I0
sg66
Vzebra
p963
sg63
V../experiment_stimuli/bw_bc_bl/Living_Things/Animals/zebra_6.jpg
p964
sg21
F0.4412068915553391
sS'trials.thisTrialN'
p965
I79
sa(dp966
g31
g32
sg17
F349.26276487670839
sg24
I1
sg35
g39
sg14
F349.25792970880866
sg16
g36
(g70
S'\x02\x00\x00\x00'
tRp967
sg42
g43
sg46
g47
sg15
g72
sg22
F350.83182557858527
sg64
g226
sg62
g125
sg49
g50
sS'trials.thisN'
p968
I80
sg19
I0
sg27
g36
(g38
S'\x00\x00\x00\x00\x00\x00\x1a@'
tRp969
sg52
g53
sg23
S'1'
sg18
F350.50054631149396
sg33
g34
sg51
g11
sg20
S'1'
sg65
g36
(g77
S'\x00\x00\x00\x00\x00\x00\x00\x00'
tRp970
sg44
g45
sg40
g41
sg25
F0.32092856150120497
sS'trials.thisIndex'
p971
g36
(g80
S'\x08\x00\x00\x00'
tRp972
sg26
V5
sS'trials.thisRepN'
p973
I0
sg66
Vbookcase
p974
sg63
V../experiment_stimuli/bw_bc_bl/Nonliving_Things/Furniture/bookcase_2.jpg
p975
sg21
F0.3107457491569221
sS'trials.thisTrialN'
p976
I80
sa(dp977
g31
g32
sg17
F352.90063266037032
sg24
I0
sg35
g39
sg14
F352.89583881152794
sg16
g36
(g70
S'\x02\x00\x00\x00'
tRp978
sg42
g43
sg46
g47
sg15
g72
sg22
F354.97098283655941
sg64
g316
sg62
g125
sg49
g50
sS'trials.thisN'
p979
I81
sg19
I1
sg27
g36
(g38
S'\x00\x00\x00\x00\x00\x00\x1c@'
tRp980
sg52
g53
sg23
S'2'
sg18
F354.15850049909204
sg33
g34
sg51
g11
sg20
S'2'
sg65
g36
(g77
S'\x00\x00\x00\x00\x00\x00\x00\x00'
tRp981
sg44
g45
sg40
g41
sg25
F2.0847817780449986
sS'trials.thisIndex'
p982
g36
(g80
S'\x11\x00\x00\x00'
tRp983
sg26
V5
sS'trials.thisRepN'
p984
I0
sg66
Vchurch
p985
sg63
V../experiment_stimuli/bw_bc_bl/Nonliving_Things/Buildings/church_20.jpg
p986
sg21
F0.7919520940631628
sS'trials.thisTrialN'
p987
I81
sa(dp988
g31
g32
sg17
F358.79358871188015
sg24
I1
sg35
g39
sg14
F358.78864765446633
sg16
g36
(g70
S'\x01\x00\x00\x00'
tRp989
sg42
g43
sg46
g47
sg15
g72
sg22
F360.22222798457369
sg64
g89
sg62
g74
sg49
g50
sS'trials.thisN'
p990
I82
sg19
I1
sg27
g36
(g38
S'\x00\x00\x00\x00\x00\x00\x18@'
tRp991
sg52
g53
sg23
S'1'
sg18
F360.05129896616563
sg33
g34
sg51
g11
sg20
S'1'
sg65
g36
(g77
S'\x00\x00\x00\x00\x00\x00\x00\x00'
tRp992
sg44
g45
sg40
g41
sg25
F0.18060941714793444
sS'trials.thisIndex'
p993
g36
(g80
S'^\x00\x00\x00'
tRp994
sg26
V5
sS'trials.thisRepN'
p995
I0
sg66
Vwhale
p996
sg63
V../experiment_stimuli/bw_bc_bl/Living_Things/Marine_creatures/whale_6.jpg
p997
sg21
F0.14952031010761857
sS'trials.thisTrialN'
p998
I82
sa(dp999
g31
g32
sg17
F362.14227384002879
sg24
I1
sg35
g39
sg14
F362.13592190481722
sg16
g36
(g70
S'\x02\x00\x00\x00'
tRp1000
sg42
g43
sg46
g47
sg15
g72
sg22
F363.65974702453241
sg64
g316
sg62
g125
sg49
g50
sS'trials.thisN'
p1001
I83
sg19
I0
sg27
g36
(g38
S'\x00\x00\x00\x00\x00\x00\x18@'
tRp1002
sg52
g53
sg23
S'1'
sg18
F363.41861809836701
sg33
g34
sg51
g11
sg20
S'1'
sg65
g36
(g77
S'\x00\x00\x00\x00\x00\x00\x00\x00'
tRp1003
sg44
g45
sg40
g41
sg25
F1.6037085964344442
sS'trials.thisIndex'
p1004
g36
(g80
S'\x1c\x00\x00\x00'
tRp1005
sg26
V5
sS'trials.thisRepN'
p1006
I0
sg66
Vfactory
p1007
sg63
V../experiment_stimuli/bw_bc_bl/Nonliving_Things/Buildings/factory_7.jpg
p1008
sg21
F0.22054676990956068
sS'trials.thisTrialN'
p1009
I83
sa(dp1010
g31
g32
sg17
F367.00133487489074
sg24
I1
sg35
g39
sg14
F366.99649091809988
sg16
g36
(g70
S'\x01\x00\x00\x00'
tRp1011
sg42
g43
sg46
g47
sg15
g72
sg22
F368.9814318139106
sg64
g89
sg62
g74
sg49
g50
sS'trials.thisN'
p1012
I84
sg19
I1
sg27
g36
(g38
S'\x00\x00\x00\x00\x00\x00\x18@'
tRp1013
sg52
g53
sg23
S'1'
sg18
F368.29923133598641
sg33
g34
sg51
g11
sg20
S'1'
sg65
g36
(g77
S'\x00\x00\x00\x00\x00\x00\x00\x00'
tRp1014
sg44
g45
sg40
g41
sg25
F0.36085429787635803
sS'trials.thisIndex'
p1015
g36
(g80
S'1\x00\x00\x00'
tRp1016
sg26
V5
sS'trials.thisRepN'
p1017
I0
sg66
Vlobster
p1018
sg63
V../experiment_stimuli/bw_bc_bl/Living_Things/Marine_creatures/lobster_11.jpg
p1019
sg21
F0.66166875697672367
sS'trials.thisTrialN'
p1020
I84
sa(dp1021
g31
g32
sg17
F371.09163064928725
sg24
I0
sg35
g39
sg14
F371.08538285130635
sg16
g36
(g70
S'\x01\x00\x00\x00'
tRp1022
sg42
g43
sg46
g47
sg15
g72
sg22
F372.83983325120062
sg64
g159
sg62
g74
sg49
g50
sS'trials.thisN'
p1023
I85
sg19
I1
sg27
g36
(g38
S'\x00\x00\x00\x00\x00\x00\x1e@'
tRp1024
sg52
g53
sg23
S'2'
sg18
F372.4181809630245
sg33
g34
sg51
g11
sg20
S'1'
sg65
g36
(g77
S'\x00\x00\x00\x00\x00\x00\x00\x00'
tRp1025
sg44
g45
sg40
g41
sg25
F0.33078960841521621
sS'trials.thisIndex'
p1026
g36
(g80
S'Z\x00\x00\x00'
tRp1027
sg26
V5
sS'trials.thisRepN'
p1028
I0
sg66
Vturtle
p1029
sg63
V../experiment_stimuli/bw_bc_bl/Living_Things/Animals/turtle_19.jpg
p1030
sg21
F0.40110198874026537
sS'trials.thisTrialN'
p1031
I85
sa(dp1032
g31
g32
sg17
F374.91858725855127
sg24
I0
sg35
g39
sg14
F374.91370708774775
sg16
g36
(g70
S'\x01\x00\x00\x00'
tRp1033
sg42
g43
sg46
g47
sg15
g72
sg22
F377.56009925529361
sg64
g73
sg62
g74
sg49
g50
sS'trials.thisN'
p1034
I86
sg19
I1
sg27
g36
(g38
S'\x00\x00\x00\x00\x00\x00\x1c@'
tRp1035
sg52
g53
sg23
S'3'
sg18
F376.23648710967973
sg33
g34
sg51
g11
sg20
S'1'
sg65
g36
(g77
S'\x00\x00\x00\x00\x00\x00\x00\x00'
tRp1036
sg44
g45
sg40
g41
sg25
F0.42114906990900636
sS'trials.thisIndex'
p1037
g36
(g80
S'!\x00\x00\x00'
tRp1038
sg26
V5
sS'trials.thisRepN'
p1039
I0
sg66
Vgoldfinch
p1040
sg63
V../experiment_stimuli/bw_bc_bl/Living_Things/Birds/goldfinch_10.jpg
p1041
sg21
F1.3030679053626955
sS'trials.thisTrialN'
p1042
I86
sa(dp1043
g31
g32
sg17
F379.72890567220747
sg24
I0
sg35
g39
sg14
F379.72418401390314
sg16
g36
(g70
S'\x01\x00\x00\x00'
tRp1044
sg42
g43
sg46
g47
sg15
g88
sg22
F381.63895776029676
sg64
g271
sg62
g125
sg49
g50
sS'trials.thisN'
p1045
I87
sg19
I1
sg27
g36
(g38
S'\x00\x00\x00\x00\x00\x00\x18@'
tRp1046
sg52
g53
sg23
S'3'
sg18
F381.01688359444961
sg33
g34
sg51
g11
sg20
S'1'
sg65
g36
(g77
S'\x00\x00\x00\x00\x00\x00\x00\x00'
tRp1047
sg44
g45
sg40
g41
sg25
F0.51135407481342554
sS'trials.thisIndex'
p1048
g36
(g80
S'\t\x00\x00\x00'
tRp1049
sg26
V5
sS'trials.thisRepN'
p1050
I0
sg66
Vbus
p1051
sg63
V../experiment_stimuli/bw_bc_bl/Nonliving_Things/Vehicles/bus_4.jpg
p1052
sg21
F0.60153802763670683
sS'trials.thisTrialN'
p1053
I87
sa(dp1054
g31
g32
sg17
F383.88969643646851
sg24
I0
sg35
g39
sg14
F383.88320907438174
sg16
g36
(g70
S'\x01\x00\x00\x00'
tRp1055
sg42
g43
sg46
g47
sg15
g72
sg22
F386.57972776051611
sg64
g159
sg62
g74
sg49
g50
sS'trials.thisN'
p1056
I88
sg19
I1
sg27
g36
(g38
S'\x00\x00\x00\x00\x00\x00\x1e@'
tRp1057
sg52
g53
sg23
S'3'
sg18
F385.15587861835957
sg33
g34
sg51
g11
sg20
S'1'
sg65
g36
(g77
S'\x00\x00\x00\x00\x00\x00\x00\x00'
tRp1058
sg44
g45
sg40
g41
sg25
F0.5113356951624155
sS'trials.thisIndex'
p1059
g36
(g80
S'2\x00\x00\x00'
tRp1060
sg26
V5
sS'trials.thisRepN'
p1061
I0
sg66
Vlynx
p1062
sg63
V../experiment_stimuli/bw_bc_bl/Living_Things/Animals/lynx_24.jpg
p1063
sg21
F1.4032996734604239
sS'trials.thisTrialN'
p1064
I88
sa(dp1065
g31
g32
sg17
F388.82875490840524
sg24
I1
sg35
g39
sg14
F388.82394806761295
sg16
g36
(g70
S'\x02\x00\x00\x00'
tRp1066
sg42
g43
sg46
g47
sg15
g88
sg22
F390.21763614891097
sg64
g89
sg62
g74
sg49
g50
sS'trials.thisN'
p1067
I89
sg19
I0
sg27
g36
(g38
S'\x00\x00\x00\x00\x00\x00\x1c@'
tRp1068
sg52
g53
sg23
S'1'
sg18
F390.06656135758385
sg33
g34
sg51
g11
sg20
S'1'
sg65
g36
(g77
S'\x00\x00\x00\x00\x00\x00\x00\x00'
tRp1069
sg44
g45
sg40
g41
sg25
F0.21067590406164527
sS'trials.thisIndex'
p1070
g36
(g80
S'\x17\x00\x00\x00'
tRp1071
sg26
V5
sS'trials.thisRepN'
p1072
I0
sg66
Vdolphin
p1073
sg63
V../experiment_stimuli/bw_bc_bl/Living_Things/Marine_creatures/dolphin_9.jpg
p1074
sg21
F0.13051282614469528
sS'trials.thisTrialN'
p1075
I89
sa(dp1076
g31
g32
sg17
F392.16757287736982
sg24
I0
sg35
g39
sg14
F392.16121834795922
sg16
g36
(g70
S'\x01\x00\x00\x00'
tRp1077
sg42
g43
sg46
g47
sg15
g72
sg22
F395.98013809137046
sg64
g159
sg62
g74
sg49
g50
sS'trials.thisN'
p1078
I90
sg19
I1
sg27
g36
(g38
S'\x00\x00\x00\x00\x00\x00\x1e@'
tRp1079
sg52
g53
sg23
S'3'
sg18
F393.43386944476515
sg33
g34
sg51
g11
sg20
S'1'
sg65
g36
(g77
S'\x00\x00\x00\x00\x00\x00\x00\x00'
tRp1080
sg44
g45
sg40
g41
sg25
F0.43115402106195688
sS'trials.thisIndex'
p1081
g36
(g80
S'\x01\x00\x00\x00'
tRp1082
sg26
V5
sS'trials.thisRepN'
p1083
I0
sg66
Varmadillo
p1084
sg63
V../experiment_stimuli/bw_bc_bl/Living_Things/Animals/armadillo_0.jpg
p1085
sg21
F2.5257221250794828
sS'trials.thisTrialN'
p1086
I90
sa(dp1087
g31
g32
sg17
F398.14887684769928
sg24
I0
sg35
g39
sg14
F398.14420638792217
sg16
g36
(g70
S'\x01\x00\x00\x00'
tRp1088
sg42
g43
sg46
g47
sg15
g88
sg22
F402.7649044720456
sg64
g124
sg62
g125
sg49
g50
sS'trials.thisN'
p1089
I91
sg19
I1
sg27
g36
(g38
S'\x00\x00\x00\x00\x00\x00\x18@'
tRp1090
sg52
g53
sg23
S'3'
sg18
F399.3868106668815
sg33
g34
sg51
g11
sg20
S'1'
sg65
g36
(g77
S'\x00\x00\x00\x00\x00\x00\x00\x00'
tRp1091
sg44
g45
sg40
g41
sg25
F0.37102447589859366
sS'trials.thisIndex'
p1092
g36
(g80
S'\x1f\x00\x00\x00'
tRp1093
sg26
V5
sS'trials.thisRepN'
p1094
I0
sg66
Vfrying-pan
p1095
sg63
V../experiment_stimuli/bw_bc_bl/Nonliving_Things/Kitchen_Uten/frying-pan_10.jpg
p1096
sg21
F3.3575276741757989
sS'trials.thisTrialN'
p1097
I91
sa(dp1098
g31
g32
sg17
F404.88366482732818
sg24
I1
sg35
g39
sg14
F404.87886023428291
sg16
g36
(g70
S'\x01\x00\x00\x00'
tRp1099
sg42
g43
sg46
g47
sg15
g88
sg22
F406.26249655010179
sg64
g271
sg62
g125
sg49
g50
sS'trials.thisN'
p1100
I92
sg19
I1
sg27
g36
(g38
S'\x00\x00\x00\x00\x00\x00\x18@'
tRp1101
sg52
g53
sg23
S'1'
sg18
F406.11144549911842
sg33
g34
sg51
g11
sg20
S'1'
sg65
g36
(g77
S'\x00\x00\x00\x00\x00\x00\x00\x00'
tRp1102
sg44
g45
sg40
g41
sg25
F2.796337369363755
sS'trials.thisIndex'
p1103
g36
(g80
S'V\x00\x00\x00'
tRp1104
sg26
V5
sS'trials.thisRepN'
p1105
I0
sg66
Vtractor
p1106
sg63
V../experiment_stimuli/bw_bc_bl/Nonliving_Things/Vehicles/tractor_22.jpg
p1107
sg21
F0.13050933368504047
sS'trials.thisTrialN'
p1108
I92
sa(dp1109
g31
g32
sg17
F410.79647378576919
sg24
I0
sg35
g39
sg14
F410.79170473385602
sg16
g36
(g70
S'\x02\x00\x00\x00'
tRp1110
sg42
g43
sg46
g47
sg15
g72
sg22
F414.32989264093339
sg64
g271
sg62
g125
sg49
g50
sS'trials.thisN'
p1111
I93
sg19
I0
sg27
g36
(g38
S'\x00\x00\x00\x00\x00\x00\x1c@'
tRp1112
sg52
g53
sg23
S'2'
sg18
F412.05435044784099
sg33
g34
sg51
g11
sg20
S'1'
sg65
g36
(g77
S'\x00\x00\x00\x00\x00\x00\x00\x00'
tRp1113
sg44
g45
sg40
g41
sg25
F0.33093887707218528
sS'trials.thisIndex'
p1114
g36
(g80
S'@\x00\x00\x00'
tRp1115
sg26
V5
sS'trials.thisRepN'
p1116
I0
sg66
Vplane
p1117
sg63
V../experiment_stimuli/bw_bc_bl/Nonliving_Things/Vehicles/plane_1.jpg
p1118
sg21
F2.2549712881445885
sS'trials.thisTrialN'
p1119
I93
sa(dp1120
g31
g32
sg17
F416.40874837618321
sg24
I0
sg35
g39
sg14
F416.40390417072922
sg16
g36
(g70
S'\x01\x00\x00\x00'
tRp1121
sg42
g43
sg46
g47
sg15
g72
sg22
F418.24857208319008
sg64
g73
sg62
g74
sg49
g50
sS'trials.thisN'
p1122
I94
sg19
I0
sg27
g36
(g38
S'\x00\x00\x00\x00\x00\x00\x18@'
tRp1123
sg52
g53
sg23
S'2'
sg18
F417.65653880639002
sg33
g34
sg51
g11
sg20
S'2'
sg65
g36
(g77
S'\x00\x00\x00\x00\x00\x00\x00\x00'
tRp1124
sg44
g45
sg40
g41
sg25
F0.27080656168982387
sS'trials.thisIndex'
p1125
g36
(g80
S'&\x00\x00\x00'
tRp1126
sg26
V5
sS'trials.thisRepN'
p1127
I0
sg66
Vhen
p1128
sg63
V../experiment_stimuli/bw_bc_bl/Living_Things/Birds/hen_9.jpg
p1129
sg21
F0.57147376704961061
sS'trials.thisTrialN'
p1130
I94
sa(dp1131
g31
g32
sg17
F420.26712712179869
sg24
I1
sg35
g39
sg14
F420.26229342771694
sg16
g36
(g70
S'\x01\x00\x00\x00'
tRp1132
sg42
g43
sg46
g47
sg15
g88
sg22
F421.71610064478591
sg64
g328
sg62
g125
sg49
g50
sS'trials.thisN'
p1133
I95
sg19
I0
sg27
g36
(g38
S'\x00\x00\x00\x00\x00\x00\x1e@'
tRp1134
sg52
g53
sg23
S'1'
sg18
F421.50489878607914
sg33
g34
sg51
g11
sg20
S'2'
sg65
g36
(g77
S'\x00\x00\x00\x00\x00\x00\x00\x00'
tRp1135
sg44
g45
sg40
g41
sg25
F0.1906366003677249
sS'trials.thisIndex'
p1136
g36
(g80
S'$\x00\x00\x00'
tRp1137
sg26
V5
sS'trials.thisRepN'
p1138
I0
sg66
Vguitar
p1139
sg63
V../experiment_stimuli/bw_bc_bl/Nonliving_Things/Musical_Inst/guitar_17.jpg
p1140
sg21
F0.19063506321981549
sS'trials.thisTrialN'
p1141
I95
sasS'loops'
p1142
(lp1143
g1
(cpsychopy.data
TrialHandler
p1144
g3
NtRp1145
(dp1146
S'origin'
p1147
NsS'thisTrial'
p1148
(lp1149
sS'_exp'
p1150
I97317136
sg10
S'trials'
p1151
sg6
I-1
sS'thisRepN'
p1152
I1
sg28
I01
sg29
g30
sS'data'
p1153
g1
(cpsychopy.data
DataHandler
p1154
c__builtin__
dict
p1155
(dp1156
g20
cnumpy.core.multiarray
_reconstruct
p1157
(cnumpy
ndarray
p1158
(I0
tS'b'
tRp1159
(I1
(I96
I1
tg37
(S'O4'
I0
I1
tRp1160
(I3
S'|'
NNNI-1
I-1
I63
tbI00
(lp1161
S'1'
aS'1'
aS'2'
aS'2'
aS'1'
aS'2'
aS'1'
aS'1'
aS'1'
aS'1'
aS'2'
aS'1'
aS'1'
aS'1'
aS'1'
aS'1'
aS'1'
aS'2'
aS'1'
aS'2'
aS'1'
aS'1'
aS'2'
aS'1'
aS'1'
aS'1'
aS'1'
aS'1'
aS'1'
aS'2'
aS'1'
aS'1'
aS'1'
aS'1'
aS'1'
aS'2'
aS'2'
aS'2'
aS'2'
aS'1'
aS'1'
aS'1'
aS'2'
aS'2'
aS'1'
aS'2'
aS'1'
aS'1'
aS'1'
aS'1'
aS'1'
aS'2'
aS'1'
aS'1'
aS'2'
aS'1'
aS'2'
aS'1'
aS'2'
aS'1'
aS'2'
aS'1'
aS'2'
aS'1'
aS'1'
aS'2'
aS'1'
aS'1'
aS'1'
aS'1'
aS'2'
aS'1'
aS'1'
aS'1'
aS'2'
aS'1'
aS'1'
aS'1'
aS'1'
aS'1'
aS'1'
aS'1'
aS'1'
aS'2'
aS'1'
aS'2'
aS'1'
aS'1'
aS'2'
aS'1'
aS'1'
aS'2'
aS'1'
aS'2'
aS'1'
aS'2'
atbsg17
cnumpy.ma.core
_mareconstruct
p1162
(cnumpy.ma.core
MaskedArray
p1163
g1158
(I0
tp1164
S'b'
tRp1165
(I1
(I96
I1
tg37
(S'f4'
I0
I1
tRp1166
(I3
S'<'
NNNI-1
I-1
I0
tbI00
S'\xf6\x9c\xb1Bs\x15\xc4C\x88$\x91B\xee8EC\xe2\xfd\xdeB\xc0\x89\x91C\x94\x8d\x00CI\xd7MC\xa2\xa1\xaeCM\xdd\xbdC\xe6X\x19B\xb6\xbc\x97BS\x1c\x8eC4\x04\x85B\x19)RC_|yC\x90\xb9ACHs\xb0C\xc5:6C\x08qIC@\xe9\x7fCC\x1b+B\xad\x02\xfaB\x15j\xc2C\xbf\x97eC\xeb\xa9\xbfB\x13\xf1\xb1A\x83\x19,C6\x12\xb5CK\xcc&C\x8d\xf5\x97A\x0e\x13\xc7C\xde\xe9@B\x94u\xbbC\xbd-\xa4Cl\x02\xb9B1"\xd2C\xae\xd9\x1aCR4\xd0C/\x1eYC\xeb\x04\xa2BM]\x05C\xbe\xbd\x89C\x8cB\xe9@\x9e\xc9\x06B\x1cX;A\x92m\x1eC\x82[gBrf\xf2A,\x80\xb7C\xe2\xf1\xbfC\xfe\xcb\xceB\xa5\x85\x12C\rx\x98C\x8b\\\x95CC\xfa\xa7C\xe7\xff\xa1C`\xb6\x9cC\xe3q\x8bC*J\xa6C\x87\x95\x17Cv#vC\xa9,]C81o@\xf3e\xcdC\xd1[#C\xd9LrCHJ\xa0C\xbf\x93\x9eC\xcdS>C\xbbe\x83C\x1d\x12\xf0B0V\x87Cg%\xc8B\xc4\xab\xcbA^\xf3QB"\xa2\x93Cf\xb9\x8fC\x00\x90\tC\n\xf5\xa8B\x0c(0C\xba\x1d\x85C4\x15aC\x8c\x9c\xd5B\xc8s\xaaC\xe44vA\x1cq\xcaC\xb5c\xe6BC\x18\x0fC\xa0d\x9aC\xbb\x8b\xb9C\x96\x04:C\x9f\x9f\x81C.\x84yB\x94e\xb3C-\xba\xacC'
S'\x00\x00\x00\x00\x00\x00\x00\x00\x00\x00\x00\x00\x00\x00\x00\x00\x00\x00\x00\x00\x00\x00\x00\x00\x00\x00\x00\x00\x00\x00\x00\x00\x00\x00\x00\x00\x00\x00\x00\x00\x00\x00\x00\x00\x00\x00\x00\x00\x00\x00\x00\x00\x00\x00\x00\x00\x00\x00\x00\x00\x00\x00\x00\x00\x00\x00\x00\x00\x00\x00\x00\x00\x00\x00\x00\x00\x00\x00\x00\x00\x00\x00\x00\x00\x00\x00\x00\x00\x00\x00\x00\x00\x00\x00\x00\x00'
NtbsS'ran'
p1167
g1162
(g1163
g1158
g1164
S'b'
tRp1168
(I1
(I96
I1
tg1166
I00
S'\x00\x00\x80?\x00\x00\x80?\x00\x00\x80?\x00\x00\x80?\x00\x00\x80?\x00\x00\x80?\x00\x00\x80?\x00\x00\x80?\x00\x00\x80?\x00\x00\x80?\x00\x00\x80?\x00\x00\x80?\x00\x00\x80?\x00\x00\x80?\x00\x00\x80?\x00\x00\x80?\x00\x00\x80?\x00\x00\x80?\x00\x00\x80?\x00\x00\x80?\x00\x00\x80?\x00\x00\x80?\x00\x00\x80?\x00\x00\x80?\x00\x00\x80?\x00\x00\x80?\x00\x00\x80?\x00\x00\x80?\x00\x00\x80?\x00\x00\x80?\x00\x00\x80?\x00\x00\x80?\x00\x00\x80?\x00\x00\x80?\x00\x00\x80?\x00\x00\x80?\x00\x00\x80?\x00\x00\x80?\x00\x00\x80?\x00\x00\x80?\x00\x00\x80?\x00\x00\x80?\x00\x00\x80?\x00\x00\x80?\x00\x00\x80?\x00\x00\x80?\x00\x00\x80?\x00\x00\x80?\x00\x00\x80?\x00\x00\x80?\x00\x00\x80?\x00\x00\x80?\x00\x00\x80?\x00\x00\x80?\x00\x00\x80?\x00\x00\x80?\x00\x00\x80?\x00\x00\x80?\x00\x00\x80?\x00\x00\x80?\x00\x00\x80?\x00\x00\x80?\x00\x00\x80?\x00\x00\x80?\x00\x00\x80?\x00\x00\x80?\x00\x00\x80?\x00\x00\x80?\x00\x00\x80?\x00\x00\x80?\x00\x00\x80?\x00\x00\x80?\x00\x00\x80?\x00\x00\x80?\x00\x00\x80?\x00\x00\x80?\x00\x00\x80?\x00\x00\x80?\x00\x00\x80?\x00\x00\x80?\x00\x00\x80?\x00\x00\x80?\x00\x00\x80?\x00\x00\x80?\x00\x00\x80?\x00\x00\x80?\x00\x00\x80?\x00\x00\x80?\x00\x00\x80?\x00\x00\x80?\x00\x00\x80?\x00\x00\x80?\x00\x00\x80?\x00\x00\x80?\x00\x00\x80?\x00\x00\x80?'
S'\x00\x00\x00\x00\x00\x00\x00\x00\x00\x00\x00\x00\x00\x00\x00\x00\x00\x00\x00\x00\x00\x00\x00\x00\x00\x00\x00\x00\x00\x00\x00\x00\x00\x00\x00\x00\x00\x00\x00\x00\x00\x00\x00\x00\x00\x00\x00\x00\x00\x00\x00\x00\x00\x00\x00\x00\x00\x00\x00\x00\x00\x00\x00\x00\x00\x00\x00\x00\x00\x00\x00\x00\x00\x00\x00\x00\x00\x00\x00\x00\x00\x00\x00\x00\x00\x00\x00\x00\x00\x00\x00\x00\x00\x00\x00\x00'
Ntbsg24
g1162
(g1163
g1158
g1164
S'b'
tRp1169
(I1
(I96
I1
tg1166
I00
S'\x00\x00\x00\x00\x00\x00\x00\x00\x00\x00\x80?\x00\x00\x80?\x00\x00\x80?\x00\x00\x00\x00\x00\x00\x80?\x00\x00\x00\x00\x00\x00\x80?\x00\x00\x00\x00\x00\x00\x00\x00\x00\x00\x00\x00\x00\x00\x80?\x00\x00\x00\x00\x00\x00\x80?\x00\x00\x00\x00\x00\x00\x00\x00\x00\x00\x00\x00\x00\x00\x00\x00\x00\x00\x80?\x00\x00\x80?\x00\x00\x80?\x00\x00\x80?\x00\x00\x80?\x00\x00\x00\x00\x00\x00\x00\x00\x00\x00\x80?\x00\x00\x80?\x00\x00\x80?\x00\x00\x00\x00\x00\x00\x80?\x00\x00\x00\x00\x00\x00\x00\x00\x00\x00\x00\x00\x00\x00\x00\x00\x00\x00\x80?\x00\x00\x80?\x00\x00\x80?\x00\x00\x00\x00\x00\x00\x00\x00\x00\x00\x80?\x00\x00\x00\x00\x00\x00\x80?\x00\x00\x00\x00\x00\x00\x80?\x00\x00\x00\x00\x00\x00\x00\x00\x00\x00\x00\x00\x00\x00\x80?\x00\x00\x80?\x00\x00\x00\x00\x00\x00\x80?\x00\x00\x00\x00\x00\x00\x80?\x00\x00\x00\x00\x00\x00\x80?\x00\x00\x00\x00\x00\x00\x00\x00\x00\x00\x00\x00\x00\x00\x80?\x00\x00\x80?\x00\x00\x80?\x00\x00\x80?\x00\x00\x80?\x00\x00\x00\x00\x00\x00\x80?\x00\x00\x00\x00\x00\x00\x80?\x00\x00\x80?\x00\x00\x80?\x00\x00\x80?\x00\x00\x00\x00\x00\x00\x00\x00\x00\x00\x80?\x00\x00\x00\x00\x00\x00\x80?\x00\x00\x80?\x00\x00\x80?\x00\x00\x00\x00\x00\x00\x00\x00\x00\x00\x00\x00\x00\x00\x80?\x00\x00\x80?\x00\x00\x00\x00\x00\x00\x00\x00\x00\x00\x00\x00\x00\x00\x80?\x00\x00\x00\x00\x00\x00\x80?\x00\x00\x00\x00\x00\x00\x00\x00\x00\x00\x00\x00\x00\x00\x00\x00\x00\x00\x80?\x00\x00\x80?\x00\x00\x00\x00'
S'\x00\x00\x00\x00\x00\x00\x00\x00\x00\x00\x00\x00\x00\x00\x00\x00\x00\x00\x00\x00\x00\x00\x00\x00\x00\x00\x00\x00\x00\x00\x00\x00\x00\x00\x00\x00\x00\x00\x00\x00\x00\x00\x00\x00\x00\x00\x00\x00\x00\x00\x00\x00\x00\x00\x00\x00\x00\x00\x00\x00\x00\x00\x00\x00\x00\x00\x00\x00\x00\x00\x00\x00\x00\x00\x00\x00\x00\x00\x00\x00\x00\x00\x00\x00\x00\x00\x00\x00\x00\x00\x00\x00\x00\x00\x00\x00'
Ntbsg14
g1162
(g1163
g1158
g1164
S'b'
tRp1170
(I1
(I96
I1
tg1166
I00
S'y\x9a\xb1B\xa3\x14\xc4C\x01"\x91B\xa77ECi\xfb\xdeB%\x89\x91CQ\x8c\x00C\r\xd6MC\x04\xa1\xaeC\xb2\xdc\xbdC\xf5S\x19B&\xba\x97B\xb8\x1b\x8eC\xa7\x01\x85B\xd0\'RC${yCE\xb8AC\xabr\xb0C\x8e96C\xc3oIC\xad\xe7\x7fC)\x16+B4\x00\xfaBwi\xc2Cz\x96eCj\xa7\xbfBd\xe5\xb1A\xc0\x17,Cf\x11\xb5C\x8f\xca&Cl\xeb\x97Au\x12\xc7C\xdb\xe4@B\xf4t\xbbC\x1e-\xa4C\xdf\xff\xb8B\x93!\xd2Cd\xd8\x1aC\xb33\xd0CS\x1cYCp\x02\xa2B\xcb[\x05C \xbd\x89C\xaa\x1a\xe9@\x82\xc4\x06B\x07D;AMl\x1eCiVgB6[\xf2A\x8d\x7f\xb7C\r\xf1\xbfCo\xc9\xceBf\x84\x12C>w\x98C\xea[\x95Cy\xf9\xa7C\x1b\xff\xa1C\xc3\xb5\x9cCFq\x8bC,I\xa6C\x03\x94\x17C="vCb+]C>\xdfm@We\xcdC\x91Z#C\x9fKrC\xadI\xa0C\xf6\x92\x9eC\x8aR>C\x1de\x83C\'\x0f\xf0BcU\x87C\xe4!\xc8B\xc7\xa1\xcbAX\xeeQBZ\xa1\x93C\xc7\xb8\x8fC\xc6\x8e\tC\xd0\xf1\xa8B\xcf&0C\x1d\x1d\x85C\xf6\x13aC\x07\x9a\xd5B+s\xaaC\x1c\x1dvA~p\xcaC\xce`\xe6B\xf8\x16\x0fC\xd5c\x9aC\xee\x8a\xb9CV\x03:C\x02\x9f\x81C=\x7fyB\xf2d\xb3C\x8e\xb9\xacC'
S'\x00\x00\x00\x00\x00\x00\x00\x00\x00\x00\x00\x00\x00\x00\x00\x00\x00\x00\x00\x00\x00\x00\x00\x00\x00\x00\x00\x00\x00\x00\x00\x00\x00\x00\x00\x00\x00\x00\x00\x00\x00\x00\x00\x00\x00\x00\x00\x00\x00\x00\x00\x00\x00\x00\x00\x00\x00\x00\x00\x00\x00\x00\x00\x00\x00\x00\x00\x00\x00\x00\x00\x00\x00\x00\x00\x00\x00\x00\x00\x00\x00\x00\x00\x00\x00\x00\x00\x00\x00\x00\x00\x00\x00\x00\x00\x00'
Ntbsg16
g1157
(g1158
(I0
tS'b'
tRp1171
(I1
(I96
I1
tg1160
I00
(lp1172
g304
ag1077
ag259
ag593
ag372
ag813
ag416
ag615
ag967
ag1044
ag181
ag270
ag791
ag248
ag626
ag703
ag582
ag978
ag549
ag604
ag714
ag192
ag405
ag1066
ag670
ag327
ag136
ag527
ag1000
ag516
ag123
ag1088
ag203
ag1033
ag912
ag315
ag1132
ag482
ag1121
ag637
ag282
ag427
ag769
ag87
ag170
ag100
ag494
ag225
ag158
ag1011
ag1055
ag350
ag460
ag846
ag835
ag934
ag901
ag868
ag780
ag923
ag471
ag692
ag648
ag71
ag1110
ag505
ag681
ag890
ag879
ag571
ag736
ag394
ag758
ag339
ag147
ag214
ag824
ag802
ag438
ag293
ag538
ag747
ag659
ag361
ag945
ag112
ag1099
ag383
ag449
ag857
ag1022
ag560
ag725
ag237
ag989
ag956
atbsg15
g1157
(g1158
(I0
tS'b'
tRp1173
(I1
(I96
I1
tg1160
I00
(lp1174
g88
ag72
ag88
ag72
ag72
ag72
ag72
ag88
ag72
ag88
ag88
ag88
ag88
ag72
ag72
ag88
ag72
ag72
ag72
ag72
ag88
ag88
ag88
ag88
ag72
ag88
ag88
ag88
ag72
ag72
ag88
ag88
ag72
ag72
ag72
ag88
ag88
ag88
ag72
ag72
ag72
ag88
ag88
ag88
ag72
ag88
ag88
ag88
ag72
ag72
ag72
ag72
ag72
ag88
ag72
ag88
ag88
ag72
ag72
ag72
ag88
ag88
ag72
ag72
ag72
ag72
ag88
ag88
ag88
ag72
ag88
ag88
ag88
ag72
ag88
ag88
ag72
ag88
ag88
ag72
ag72
ag72
ag72
ag88
ag72
ag88
ag88
ag88
ag72
ag88
ag72
ag88
ag72
ag72
ag72
ag88
atbsg22
g1162
(g1163
g1158
g1164
S'b'
tRp1175
(I1
(I96
I1
tg1166
I00
S'\xc2\x1c\xb5Bu\xfd\xc5C\xbd\xf5\x93B\xdb\x97GC2\x1c\xe2BE\xb0\x92C\x18\xf1\x01Co)PCyj\xafC\xc9\xd1\xbeC\xc3\xe8!B\xcc\n\x9eB\xfe\xbf\x8eC\xf9\x1a\x8dB\xe6\x1dWC\xfc\xf0}C\rXCCI|\xb1C\xca\x118C\xf6\x94KCb\xa2\x80C\xe7(9B\xd6D\xfdB\xdc\x1b\xc3C\xb68pC\x96\x9a\xc3B\xd9)\xbcAA5.Cs\xd4\xb5C\xee\x1b*C\x80m\xa2A\xe8a\xc9C\xce\xf4IB\xb1\xc7\xbcC\x91C\xa5C\xbd\xfc\xbbB\xa9\xdb\xd2C\x02\x85\x1cC\xd1\x1f\xd1C\xc99[Cn\x04\xa5B\xfd\x80\x07C\xbc\x82\x8aC-+\x1cA\x02\x98\x11B\x0c\xdbVA/\\!C\xea\xa3pBt\xaa\xfdA\xa0}\xb8C5J\xc1C\x96\xd0\xd1B\xb7\xac\x15CVl\x99C(\x86\x97C\x86v\xa9C\x0c\xf8\xa2C\x93\xa0\x9dC1\xf2\x8cC\x85\x04\xa7C9\xf6\x18C\x8b\x89wC\\4_Cu\xe1\xab@:*\xcfC\xb3\xe0$C\xdc#tC\x9c\x07\xa1C\x9eO\x9fC\xbf\xb4?C\x98.\x84C\x91\x08\xf6B\xab\xb3\x88C\xec\xd6\xcaB\xd2q\xe1A\xc0\xb4WB\xdaa\x94C\xfdw\x90C\x00\xa0\x0cC\x9f\x9d\xadB\xd2T4C\x11\xd2\x85C\x86\x95cC:<\xdbB\xcc\xb7\xabC\xc6\xd9\x88A\x99!\xcbC\xff\x02\xecB\xee\xa9\x10C\x8d\xbf\x9bC\x80k\xbaC\xda[<C1p\x82C\xd9-\x81Br\x1c\xb4CH\x96\xadC'
S'\x00\x00\x00\x00\x00\x00\x00\x00\x00\x00\x00\x00\x00\x00\x00\x00\x00\x00\x00\x00\x00\x00\x00\x00\x00\x00\x00\x00\x00\x00\x00\x00\x00\x00\x00\x00\x00\x00\x00\x00\x00\x00\x00\x00\x00\x00\x00\x00\x00\x00\x00\x00\x00\x00\x00\x00\x00\x00\x00\x00\x00\x00\x00\x00\x00\x00\x00\x00\x00\x00\x00\x00\x00\x00\x00\x00\x00\x00\x00\x00\x00\x00\x00\x00\x00\x00\x00\x00\x00\x00\x00\x00\x00\x00\x00\x00'
Ntbsg26
g1157
(g1158
(I0
tS'b'
tRp1176
(I1
(I96
I1
tg1160
I00
(lp1177
g36
(g80
S'\x03\x00\x00\x00'
tRp1178
ag36
(g80
S'\x05\x00\x00\x00'
tRp1179
ag36
(g80
S'\x03\x00\x00\x00'
tRp1180
ag36
(g80
S'\x02\x00\x00\x00'
tRp1181
ag36
(g80
S'\x03\x00\x00\x00'
tRp1182
ag36
(g80
S'\x05\x00\x00\x00'
tRp1183
ag36
(g80
S'\x02\x00\x00\x00'
tRp1184
ag36
(g80
S'\x06\x00\x00\x00'
tRp1185
ag36
(g80
S'\x02\x00\x00\x00'
tRp1186
ag36
(g80
S'\x07\x00\x00\x00'
tRp1187
ag36
(g80
S'\x05\x00\x00\x00'
tRp1188
ag36
(g80
S'\x05\x00\x00\x00'
tRp1189
ag36
(g80
S'\x01\x00\x00\x00'
tRp1190
ag36
(g80
S'\x05\x00\x00\x00'
tRp1191
ag36
(g80
S'\x03\x00\x00\x00'
tRp1192
ag36
(g80
S'\x03\x00\x00\x00'
tRp1193
ag36
(g80
S'\x03\x00\x00\x00'
tRp1194
ag36
(g80
S'\x04\x00\x00\x00'
tRp1195
ag36
(g80
S'\x04\x00\x00\x00'
tRp1196
ag36
(g80
S'\x05\x00\x00\x00'
tRp1197
ag36
(g80
S'\x01\x00\x00\x00'
tRp1198
ag36
(g80
S'\x02\x00\x00\x00'
tRp1199
aI1
ag36
(g80
S'\x02\x00\x00\x00'
tRp1200
ag36
(g80
S'\x06\x00\x00\x00'
tRp1201
ag36
(g80
S'\x03\x00\x00\x00'
tRp1202
ag36
(g80
S'\x02\x00\x00\x00'
tRp1203
ag36
(g80
S'\x02\x00\x00\x00'
tRp1204
ag36
(g80
S'\x05\x00\x00\x00'
tRp1205
ag36
(g80
S'\x04\x00\x00\x00'
tRp1206
ag36
(g80
S'\x01\x00\x00\x00'
tRp1207
ag36
(g80
S'\x02\x00\x00\x00'
tRp1208
ag36
(g80
S'\x05\x00\x00\x00'
tRp1209
ag36
(g80
S'\t\x00\x00\x00'
tRp1210
ag36
(g80
S'\x03\x00\x00\x00'
tRp1211
ag36
(g80
S'\x01\x00\x00\x00'
tRp1212
ag36
(g80
S'\x02\x00\x00\x00'
tRp1213
ag36
(g80
S'\x04\x00\x00\x00'
tRp1214
ag36
(g80
S'\x03\x00\x00\x00'
tRp1215
ag36
(g80
S'\x05\x00\x00\x00'
tRp1216
ag36
(g80
S'\x02\x00\x00\x00'
tRp1217
ag36
(g80
S'\x05\x00\x00\x00'
tRp1218
ag36
(g80
S'\x03\x00\x00\x00'
tRp1219
ag36
(g80
S'\x08\x00\x00\x00'
tRp1220
ag36
(g80
S'\x03\x00\x00\x00'
tRp1221
ag36
(g80
S'\x06\x00\x00\x00'
tRp1222
ag36
(g80
S'\x05\x00\x00\x00'
tRp1223
ag36
(g80
S'\x03\x00\x00\x00'
tRp1224
ag36
(g80
S'\x02\x00\x00\x00'
tRp1225
ag36
(g80
S'\x07\x00\x00\x00'
tRp1226
ag36
(g80
S'\x05\x00\x00\x00'
tRp1227
ag36
(g80
S'\x03\x00\x00\x00'
tRp1228
ag36
(g80
S'\x03\x00\x00\x00'
tRp1229
ag36
(g80
S'\x02\x00\x00\x00'
tRp1230
ag36
(g80
S'\x04\x00\x00\x00'
tRp1231
ag36
(g80
S'\x04\x00\x00\x00'
tRp1232
ag36
(g80
S'\x04\x00\x00\x00'
tRp1233
ag36
(g80
S'\x02\x00\x00\x00'
tRp1234
ag36
(g80
S'\x04\x00\x00\x00'
tRp1235
ag36
(g80
S'\x02\x00\x00\x00'
tRp1236
aI1
aI1
ag36
(g80
S'\x03\x00\x00\x00'
tRp1237
aS'5.0'
p1238
ag36
(g80
S'\x04\x00\x00\x00'
tRp1239
ag36
(g80
S'\x03\x00\x00\x00'
tRp1240
ag36
(g80
S'\x03\x00\x00\x00'
tRp1241
ag36
(g80
S'\x02\x00\x00\x00'
tRp1242
aI1
aI1
ag36
(g80
S'\x01\x00\x00\x00'
tRp1243
ag36
(g80
S'\x02\x00\x00\x00'
tRp1244
ag36
(g80
S'\x05\x00\x00\x00'
tRp1245
ag36
(g80
S'\x01\x00\x00\x00'
tRp1246
ag36
(g80
S'\x04\x00\x00\x00'
tRp1247
ag36
(g80
S'\x02\x00\x00\x00'
tRp1248
ag36
(g80
S'\x02\x00\x00\x00'
tRp1249
ag36
(g80
S'\x04\x00\x00\x00'
tRp1250
ag36
(g80
S'\x03\x00\x00\x00'
tRp1251
ag36
(g80
S'\x05\x00\x00\x00'
tRp1252
ag36
(g80
S'\x05\x00\x00\x00'
tRp1253
ag36
(g80
S'\x02\x00\x00\x00'
tRp1254
ag36
(g80
S'\x05\x00\x00\x00'
tRp1255
ag36
(g80
S'\x05\x00\x00\x00'
tRp1256
ag36
(g80
S'\x06\x00\x00\x00'
tRp1257
ag36
(g80
S'\x03\x00\x00\x00'
tRp1258
aI1
ag36
(g80
S'\x04\x00\x00\x00'
tRp1259
aI1
ag36
(g80
S'\x04\x00\x00\x00'
tRp1260
ag36
(g80
S'\n\x00\x00\x00'
tRp1261
ag36
(g80
S'\x01\x00\x00\x00'
tRp1262
ag36
(g80
S'\x04\x00\x00\x00'
tRp1263
ag36
(g80
S'\x02\x00\x00\x00'
tRp1264
ag36
(g80
S'\x03\x00\x00\x00'
tRp1265
ag36
(g80
S'\x04\x00\x00\x00'
tRp1266
atbsg21
g1162
(g1163
g1158
g1164
S'b'
tRp1267
(I1
(I96
I1
tg1166
I00
S'~j\xf6>n\xa5!@\xd7\xbe\x0f>@k\x8e?\xae\xc8\x8f>\xf1N\x80?-\xa4\x05> \xe0\x82?\x11\x1a\x9f>e\xfe\x19?\r"Z?\xae\xa0\xee?n/\xf8<\xf5e0@\x95\tl@CVK@\xb1\xb5\xb3>_\xbdJ?P\xbb\x0f?N#Z?\x95@\xe2=ZT\x10@ \x05\xc3>(\xa5\x05>\xbb \x15A\x15\xa73?\xe4\x11\xa6<\xf7!Z?\x03\xd7a>\xc27\x02@\xb0Nw=\xbc\xe1V@\xc3\xebx?\xee\xca\xa6?\xeedd?\x8f\x84v>\xd75C>\x01;\xc8>\x1bL\x12?\xfcdR?\r\x86v>F"Z?V\x93\x8a>\\\x8d\x93?\xe4w\xb7?\x9e\x9f\xd7>[h\xd2?\xd5\xb8\x86?\xf8+\x1a> c)?S\x9f\xb3?\x84\x8cv>\x8f1\xf1?sA$?z[B@\xac\xcc\xd8?#c)?\xa1\xb0\x0f?\x99\xab\xdc?#PM>\xa4\xa3\x05>\x1e\x04\x1a>\xddy@?\x92\x94\xae>sQ\x10@\xc2c\x80>k\xbc\x0f?\xec\x00b>o\x06b>u\xa5\x05>AP\xa4>=\xab\xdc?\xfdw\xb7?\xcd\xb5\xcd=\x9f\xc0\xb8?\xc9\xf18>A\x87v>BvM>W\xa6\xe5?Bk\x85?\x91\xbc8@k*\x1a>\xcd?\x9b?\xa1\x03\xc3?~\x87\x9c?O\xef\xe6>=\xa4\x05>\xd4K\xc4?\xe9P\xa4>\xe7w\xb7?=]\xcd>\xc6\xda\x8b?]\xb8\xb3>Q\xbfs?\xda\x1b\x19>\xdf\xe5\xe1>'
S'\x00\x00\x00\x00\x00\x00\x00\x00\x00\x00\x00\x00\x00\x00\x00\x00\x00\x00\x00\x00\x00\x00\x00\x00\x00\x00\x00\x00\x00\x00\x00\x00\x00\x00\x00\x00\x00\x00\x00\x00\x00\x00\x00\x00\x00\x00\x00\x00\x00\x00\x00\x00\x00\x00\x00\x00\x00\x00\x00\x00\x00\x00\x00\x00\x00\x00\x00\x00\x00\x00\x00\x00\x00\x00\x00\x00\x00\x00\x00\x00\x00\x00\x00\x00\x00\x00\x00\x00\x00\x00\x00\x00\x00\x00\x00\x00'
NtbsS'order'
p1268
g1162
(g1163
g1158
g1164
S'b'
tRp1269
(I1
(I96
I1
tg1166
I00
S'\x00\x00\xa0A\x00\x00\xb4B\x00\x00\x80A\x00\x008B\x00\x00\xd0A\x00\x00\x84B\x00\x00\xf0A\x00\x00@B\x00\x00\xa0B\x00\x00\xaeB\x00\x00\x10A\x00\x00\x88A\x00\x00\x80B\x00\x00pA\x00\x00DB\x00\x00`B\x00\x004B\x00\x00\xa2B\x00\x00(B\x00\x00<B\x00\x00dB\x00\x00 A\x00\x00\xe8A\x00\x00\xb2B\x00\x00TB\x00\x00\xb0A\x00\x00\xa0@\x00\x00 B\x00\x00\xa6B\x00\x00\x1cB\x00\x00\x80@\x00\x00\xb6B\x00\x000A\x00\x00\xacB\x00\x00\x96B\x00\x00\xa8A\x00\x00\xbeB\x00\x00\x10B\x00\x00\xbcB\x00\x00HB\x00\x00\x90A\x00\x00\xf8A\x00\x00xB\x00\x00\x80?\x00\x00\x00A\x00\x00\x00@\x00\x00\x14B\x00\x00PA\x00\x00\xe0@\x00\x00\xa8B\x00\x00\xb0B\x00\x00\xc0A\x00\x00\x08B\x00\x00\x8aB\x00\x00\x88B\x00\x00\x9aB\x00\x00\x94B\x00\x00\x8eB\x00\x00|B\x00\x00\x98B\x00\x00\x0cB\x00\x00\\B\x00\x00LB\x00\x00\x00\x00\x00\x00\xbaB\x00\x00\x18B\x00\x00XB\x00\x00\x92B\x00\x00\x90B\x00\x000B\x00\x00lB\x00\x00\xe0A\x00\x00tB\x00\x00\xb8A\x00\x00\xc0@\x00\x00@A\x00\x00\x86B\x00\x00\x82B\x00\x00\x00B\x00\x00\x98A\x00\x00$B\x00\x00pB\x00\x00PB\x00\x00\xc8A\x00\x00\x9cB\x00\x00@@\x00\x00\xb8B\x00\x00\xd8A\x00\x00\x04B\x00\x00\x8cB\x00\x00\xaaB\x00\x00,B\x00\x00hB\x00\x00`A\x00\x00\xa4B\x00\x00\x9eB'
S'\x00\x00\x00\x00\x00\x00\x00\x00\x00\x00\x00\x00\x00\x00\x00\x00\x00\x00\x00\x00\x00\x00\x00\x00\x00\x00\x00\x00\x00\x00\x00\x00\x00\x00\x00\x00\x00\x00\x00\x00\x00\x00\x00\x00\x00\x00\x00\x00\x00\x00\x00\x00\x00\x00\x00\x00\x00\x00\x00\x00\x00\x00\x00\x00\x00\x00\x00\x00\x00\x00\x00\x00\x00\x00\x00\x00\x00\x00\x00\x00\x00\x00\x00\x00\x00\x00\x00\x00\x00\x00\x00\x00\x00\x00\x00\x00'
Ntbsg19
g1162
(g1163
g1158
g1164
S'b'
tRp1270
(I1
(I96
I1
tg1166
I00
S'\x00\x00\x80?\x00\x00\x80?\x00\x00\x00\x00\x00\x00\x80?\x00\x00\x80?\x00\x00\x80?\x00\x00\x00\x00\x00\x00\x80?\x00\x00\x00\x00\x00\x00\x80?\x00\x00\x80?\x00\x00\x80?\x00\x00\x80?\x00\x00\x80?\x00\x00\x00\x00\x00\x00\x80?\x00\x00\x80?\x00\x00\x80?\x00\x00\x00\x00\x00\x00\x80?\x00\x00\x00\x00\x00\x00\x00\x00\x00\x00\x00\x00\x00\x00\x00\x00\x00\x00\x80?\x00\x00\x80?\x00\x00\x00\x00\x00\x00\x00\x00\x00\x00\x00\x00\x00\x00\x80?\x00\x00\x80?\x00\x00\x80?\x00\x00\x80?\x00\x00\x80?\x00\x00\x80?\x00\x00\x00\x00\x00\x00\x00\x00\x00\x00\x00\x00\x00\x00\x00\x00\x00\x00\x80?\x00\x00\x80?\x00\x00\x80?\x00\x00\x80?\x00\x00\x80?\x00\x00\x80?\x00\x00\x80?\x00\x00\x80?\x00\x00\x80?\x00\x00\x80?\x00\x00\x80?\x00\x00\x80?\x00\x00\x00\x00\x00\x00\x80?\x00\x00\x80?\x00\x00\x80?\x00\x00\x00\x00\x00\x00\x80?\x00\x00\x80?\x00\x00\x80?\x00\x00\x80?\x00\x00\x80?\x00\x00\x00\x00\x00\x00\x80?\x00\x00\x80?\x00\x00\x00\x00\x00\x00\x00\x00\x00\x00\x80?\x00\x00\x00\x00\x00\x00\x00\x00\x00\x00\x00\x00\x00\x00\x80?\x00\x00\x80?\x00\x00\x80?\x00\x00\x80?\x00\x00\x80?\x00\x00\x00\x00\x00\x00\x00\x00\x00\x00\x80?\x00\x00\x80?\x00\x00\x80?\x00\x00\x80?\x00\x00\x00\x00\x00\x00\x80?\x00\x00\x00\x00\x00\x00\x80?\x00\x00\x80?\x00\x00\x80?\x00\x00\x80?\x00\x00\x80?\x00\x00\x80?\x00\x00\x80?\x00\x00\x00\x00\x00\x00\x00\x00\x00\x00\x80?\x00\x00\x80?\x00\x00\x80?'
S'\x00\x00\x00\x00\x00\x00\x00\x00\x00\x00\x00\x00\x00\x00\x00\x00\x00\x00\x00\x00\x00\x00\x00\x00\x00\x00\x00\x00\x00\x00\x00\x00\x00\x00\x00\x00\x00\x00\x00\x00\x00\x00\x00\x00\x00\x00\x00\x00\x00\x00\x00\x00\x00\x00\x00\x00\x00\x00\x00\x00\x00\x00\x00\x00\x00\x00\x00\x00\x00\x00\x00\x00\x00\x00\x00\x00\x00\x00\x00\x00\x00\x00\x00\x00\x00\x00\x00\x00\x00\x00\x00\x00\x00\x00\x00\x00'
Ntbsg27
g1157
(g1158
(I0
tS'b'
tRp1271
(I1
(I96
I1
tg1160
I00
(lp1272
g306
ag1079
ag261
ag595
ag374
ag815
ag418
ag617
ag969
ag1046
ag183
ag273
ag793
ag250
ag628
ag705
ag584
ag980
ag551
ag606
ag716
ag194
ag407
ag1068
ag672
ag330
ag138
ag529
ag1002
ag518
ag127
ag1090
ag205
ag1035
ag914
ag318
ag1134
ag485
ag1123
ag639
ag284
ag429
ag771
ag91
ag172
ag103
ag496
ag228
ag161
ag1013
ag1057
ag352
ag462
ag848
ag837
ag936
ag903
ag870
ag782
ag925
ag473
ag694
ag650
ag76
ag1112
ag507
ag683
ag892
ag881
ag573
ag738
ag396
ag760
ag341
ag149
ag216
ag826
ag804
ag440
ag295
ag540
ag749
ag661
ag363
ag947
ag114
ag1101
ag385
ag451
ag859
ag1024
ag562
ag727
ag239
ag991
ag958
atbsg23
g1157
(g1158
(I0
tS'b'
tRp1273
(I1
(I96
I1
tg1160
I00
(lp1274
S'3'
aS'3'
aS'1'
aS'1'
aS'1'
aS'3'
aS'1'
aS'3'
aS'1'
aS'3'
aS'3'
aS'3'
aS'1'
aS'3'
aS'1'
aS'3'
aS'2'
aS'2'
aS'3'
aS'1'
aS'1'
aS'1'
aS'1'
aS'1'
aS'3'
aS'3'
aS'1'
aS'1'
aS'1'
aS'3'
aS'1'
aS'3'
aS'3'
aS'3'
aS'2'
aS'1'
aS'1'
aS'1'
aS'2'
aS'3'
aS'1'
aS'3'
aS'1'
aS'3'
aS'1'
aS'3'
aS'3'
aS'2'
aS'1'
aS'1'
aS'3'
aS'1'
aS'3'
aS'1'
aS'3'
aS'1'
aS'2'
aS'3'
aS'3'
aS'1'
aS'1'
aS'1'
aS'1'
aS'1'
aS'2'
aS'1'
aS'3'
aS'1'
aS'1'
aS'1'
aS'1'
aS'3'
aS'3'
aS'1'
aS'3'
aS'1'
aS'1'
aS'1'
aS'3'
aS'3'
aS'2'
aS'1'
aS'1'
aS'3'
aS'3'
aS'3'
aS'1'
aS'3'
aS'1'
aS'3'
aS'2'
aS'2'
aS'3'
aS'1'
aS'1'
aS'3'
atbsg18
g1162
(g1163
g1158
g1164
S'b'
tRp1275
(I1
(I96
I1
tg1166
I00
S'\xd1\x1b\xb4B\x89\xb7\xc4CX\xa3\x93B\xc3uFC\xc1|\xe1BT-\x92Cl\xca\x01Cl\x1eOC\x12@\xafC)\x82\xbeC-k\x1eB\xc2E\x9aB}\xb9\x8eCC\x8d\x87B|hSCa\xbezC\xf0\xf8BCJ\x14\xb1C\xc9|7C\x90\xb5JC\x9c\x91\x80C\x96\x0e0BJw\xfcB\x85\x08\xc3Ch\xe1fC\xc2(\xc2B=\xd6\xbbA\xdbU-C\x95\xb5\xb5C\xcc\r(C\xbb\xc7\xa1A\x83\xb1\xc7C\x12\xfcEBE\x1e\xbcC\xbd\xce\xa4C\xf3v\xbbB\xa1\xc0\xd2C\xa1\x1b\x1cC\t\xd4\xd0C bZC\xa7~\xa4B\x99\xa1\x06Cv]\x8aCQe\tA2\xc7\x0bB\xeb\xc9OA\x1c\xb2\x1fC\x1aYlB\x05L\xfcAM&\xb8C\xf4\x93\xc0C\xc7J\xd1B\x11\xc5\x13C\x94\x17\x99C\xd0\xfe\x95C\x17\x9b\xa8C\xb9\xa0\xa2C\x19V\x9dC\xe4\x12\x8cC:\xe8\xa6C\x8e\xcf\x18C\xc7]wC\x9fn^Cj\xfb\x9f@\xf5\x06\xceC=\x9b$C\xdc\x8esC\xba\xe8\xa0C\xbb0\x9fC\x14\x8e?C\xe2\x02\x84C]\x8b\xf2B\x92\xf9\x87C\xf9\x98\xcaB\xae\xbb\xd5A\xc4\xe6VBg@\x94CeZ\x90Cr\xcf\nCk}\xabB\x9dl1C*\xbc\x85C\xc3YbC\xa4%\xd8B\xa3\x18\xabC\xf1\x13\x85AD\x0e\xcbCG\xe7\xe8B\x82R\x10Cs\x05\x9bC\x875\xbaC\xe1>;C\xa0@\x82C\xaaw~B\x91\x06\xb4C-[\xadC'
S'\x00\x00\x00\x00\x00\x00\x00\x00\x00\x00\x00\x00\x00\x00\x00\x00\x00\x00\x00\x00\x00\x00\x00\x00\x00\x00\x00\x00\x00\x00\x00\x00\x00\x00\x00\x00\x00\x00\x00\x00\x00\x00\x00\x00\x00\x00\x00\x00\x00\x00\x00\x00\x00\x00\x00\x00\x00\x00\x00\x00\x00\x00\x00\x00\x00\x00\x00\x00\x00\x00\x00\x00\x00\x00\x00\x00\x00\x00\x00\x00\x00\x00\x00\x00\x00\x00\x00\x00\x00\x00\x00\x00\x00\x00\x00\x00'
Ntbsg25
g1162
(g1163
g1158
g1164
S'b'
tRp1276
(I1
(I96
I1
tg1166
I00
S'\xce\xceW>8\xc0\xdc>\x08+\x1a>o6\xe2=\xbc[\xcd>\xc7*\x1a>\xa0\x89\xd7?U\x85\x85>\xc0P\xa4>\x1a\xe8\x02?\xc1\xba\x0f?zj\x80>T\xbeW>v\xc8\x8f>\x81\x85\x85>\x94Ol>\x8f\xe4\x0f>\x11m\x05@\xc9\xc8W>~~\x05?B\x85v>p}M>\xd7\xf38>m\xbbW>t\x95\xae>E\t\x08?\xcawM>\x18\xbcW>SF\xcd?\x14d\x80>\xd3wM>\xec\xf6\xbd>V\x88\x85>\xda\xa0\xd7>\xcc,\x9f>\xe7\xcc\xcd=>6C>&\xaf.>(\xa7\x8a>\xe8\xc9W>\x90Bl>\x02O\xa4>p\xab\x05>\x1b\xbeW>\xdfyM>\xda\xd6a>r\x85\x85>Kn\xf6>Zd\x80>\xe5\xc1\xb8>\xe5\xe6\x02?\xeds$>-\xc0.>NxM>\x07+\x1a>\x16\x8cv>D\x84.?)n$>|m\x17?\xd8\xf18>\xeb)\x1a>\x96\xbbW>\xed\xf8\x0f>\x02\xf18>\xd2p\xa9>r>9>`\x85\x85>FxM>I\xfda>\x94\xc8\x8f>\x1e\xa4\x05>\x10f\x80>\n\x92\xae>\x85\x84v>gu\xc3>\xb4/\x0b@B\xffa>\xf3[\xcd>\xd7W;?]\x89\x85>>\xb3$>"\x82\xa5?\xdb\xa6\x8a>5\xf3\x0f>\x99\xc9\x8f><)\x1a>1\xf72@\xbc\xea\x94>0\xc2\xf6=\xf1AC>A]\xa9>\xb1Bl>\x8b\xf98>\x14\xf18>\xad\xf18>\xf3\xb4\xb3>'
S'\x00\x00\x00\x00\x00\x00\x00\x00\x00\x00\x00\x00\x00\x00\x00\x00\x00\x00\x00\x00\x00\x00\x00\x00\x00\x00\x00\x00\x00\x00\x00\x00\x00\x00\x00\x00\x00\x00\x00\x00\x00\x00\x00\x00\x00\x00\x00\x00\x00\x00\x00\x00\x00\x00\x00\x00\x00\x00\x00\x00\x00\x00\x00\x00\x00\x00\x00\x00\x00\x00\x00\x00\x00\x00\x00\x00\x00\x00\x00\x00\x00\x00\x00\x00\x00\x00\x00\x00\x00\x00\x00\x00\x00\x00\x00\x00'
NtbstRp1277
(dp1278
S'isNumeric'
p1279
(dp1280
g23
I00
sg20
I00
sg17
I01
sg1167
I01
sg22
I01
sg24
I01
sg14
I01
sg18
I01
sg16
I00
sg19
I01
sg26
I00
sg27
I00
sg15
I00
sg21
I01
sg1268
I01
sg25
I01
ssg1151
g1145
sS'dataTypes'
p1281
(lp1282
g1167
ag1268
ag14
ag15
ag16
ag17
ag18
ag19
ag20
ag21
ag22
ag23
ag24
ag25
ag26
ag27
asS'dataShape'
p1283
(lp1284
I96
aI1
asbsS'method'
p1285
S'random'
p1286
sS'sequenceIndices'
p1287
g1157
(g1158
(I0
tS'b'
tRp1288
(I1
(I96
I1
tg80
I01
S'?\x00\x00\x00+\x00\x00\x00-\x00\x00\x00U\x00\x00\x00\x1e\x00\x00\x00\x1a\x00\x00\x00J\x00\x00\x000\x00\x00\x00,\x00\x00\x00\n\x00\x00\x00\x15\x00\x00\x00 \x00\x00\x00K\x00\x00\x00/\x00\x00\x00]\x00\x00\x00\r\x00\x00\x00\x02\x00\x00\x00\x0b\x00\x00\x00(\x00\x00\x00O\x00\x00\x00\x00\x00\x00\x00#\x00\x00\x00\x19\x00\x00\x00I\x00\x00\x003\x00\x00\x00S\x00\x00\x00\x04\x00\x00\x00W\x00\x00\x00G\x00\x00\x00\x16\x00\x00\x00\x06\x00\x00\x00)\x00\x00\x00N\x00\x00\x00X\x00\x00\x004\x00\x00\x00<\x00\x00\x00%\x00\x00\x00.\x00\x00\x00A\x00\x00\x00\x1d\x00\x00\x00\x1b\x00\x00\x00P\x00\x00\x00\x12\x00\x00\x00[\x00\x00\x00E\x00\x00\x00\x10\x00\x00\x00\x03\x00\x00\x00\x13\x00\x00\x00\x07\x00\x00\x00\x0e\x00\x00\x00\'\x00\x00\x00>\x00\x00\x00R\x00\x00\x00\x18\x00\x00\x00B\x00\x00\x00=\x00\x00\x00\x0f\x00\x00\x00\x14\x00\x00\x00\\\x00\x00\x00F\x00\x00\x00Q\x00\x00\x00H\x00\x00\x00*\x00\x00\x00:\x00\x00\x00\x0c\x00\x00\x00M\x00\x00\x00\x05\x00\x00\x00L\x00\x00\x006\x00\x00\x005\x00\x00\x00Y\x00\x00\x009\x00\x00\x00D\x00\x00\x00C\x00\x00\x008\x00\x00\x00"\x00\x00\x00;\x00\x00\x007\x00\x00\x00T\x00\x00\x00_\x00\x00\x00\x08\x00\x00\x00\x11\x00\x00\x00^\x00\x00\x00\x1c\x00\x00\x001\x00\x00\x00Z\x00\x00\x00!\x00\x00\x00\t\x00\x00\x002\x00\x00\x00\x17\x00\x00\x00\x01\x00\x00\x00\x1f\x00\x00\x00V\x00\x00\x00@\x00\x00\x00&\x00\x00\x00$\x00\x00\x00'
tbsS'finished'
p1289
I01
sS'nReps'
p1290
I1
sS'nRemaining'
p1291
I-1
sS'trialList'
p1292
(lp1293
g1
(cpsychopy.data
TrialType
p1294
g1155
(dp1295
g62
g125
sg63
g312
sg64
g226
sg65
g307
sg66
g311
stRp1296
ag1
(g1294
g1155
(dp1297
g62
g74
sg63
g1085
sg64
g159
sg65
g1080
sg66
g1084
stRp1298
ag1
(g1294
g1155
(dp1299
g62
g125
sg63
g267
sg64
g226
sg65
g262
sg66
g266
stRp1300
ag1
(g1294
g1155
(dp1301
g62
g125
sg63
g601
sg64
g483
sg65
g596
sg66
g600
stRp1302
ag1
(g1294
g1155
(dp1303
g62
g74
sg63
g380
sg64
g73
sg65
g375
sg66
g379
stRp1304
ag1
(g1294
g1155
(dp1305
g62
g125
sg63
g821
sg64
g226
sg65
g816
sg66
g820
stRp1306
ag1
(g1294
g1155
(dp1307
g62
g125
sg63
g424
sg64
g226
sg65
g419
sg66
g423
stRp1308
ag1
(g1294
g1155
(dp1309
g62
g125
sg63
g623
sg64
g271
sg65
g618
sg66
g622
stRp1310
ag1
(g1294
g1155
(dp1311
g62
g125
sg63
g975
sg64
g226
sg65
g970
sg66
g974
stRp1312
ag1
(g1294
g1155
(dp1313
g62
g125
sg63
g1052
sg64
g271
sg65
g1047
sg66
g1051
stRp1314
ag1
(g1294
g1155
(dp1315
g62
g74
sg63
g189
sg64
g101
sg65
g184
sg66
g188
stRp1316
ag1
(g1294
g1155
(dp1317
g62
g125
sg63
g279
sg64
g271
sg65
g274
sg66
g278
stRp1318
ag1
(g1294
g1155
(dp1319
g62
g125
sg63
g799
sg64
g316
sg65
g794
sg66
g798
stRp1320
ag1
(g1294
g1155
(dp1321
g62
g74
sg63
g256
sg64
g159
sg65
g251
sg66
g255
stRp1322
ag1
(g1294
g1155
(dp1323
g62
g125
sg63
g634
sg64
g316
sg65
g629
sg66
g633
stRp1324
ag1
(g1294
g1155
(dp1325
g62
g125
sg63
g711
sg64
g226
sg65
g706
sg66
g710
stRp1326
ag1
(g1294
g1155
(dp1327
g62
g74
sg63
g590
sg64
g159
sg65
g585
sg66
g589
stRp1328
ag1
(g1294
g1155
(dp1329
g62
g125
sg63
g986
sg64
g316
sg65
g981
sg66
g985
stRp1330
ag1
(g1294
g1155
(dp1331
g62
g125
sg63
g557
sg64
g124
sg65
g552
sg66
g556
stRp1332
ag1
(g1294
g1155
(dp1333
g62
g125
sg63
g612
sg64
g226
sg65
g607
sg66
g611
stRp1334
ag1
(g1294
g1155
(dp1335
g62
g74
sg63
g722
sg64
g159
sg65
g717
sg66
g721
stRp1336
ag1
(g1294
g1155
(dp1337
g62
g74
sg63
g200
sg64
g89
sg65
g195
sg66
g199
stRp1338
ag1
(g1294
g1155
(dp1339
g62
g125
sg63
g413
sg64
g124
sg65
g408
sg66
g412
stRp1340
ag1
(g1294
g1155
(dp1341
g62
g74
sg63
g1074
sg64
g89
sg65
g1069
sg66
g1073
stRp1342
ag1
(g1294
g1155
(dp1343
g62
g74
sg63
g678
sg64
g101
sg65
g673
sg66
g677
stRp1344
ag1
(g1294
g1155
(dp1345
g62
g125
sg63
g336
sg64
g328
sg65
g331
sg66
g335
stRp1346
ag1
(g1294
g1155
(dp1347
g62
g74
sg63
g144
sg64
g73
sg65
g139
sg66
g143
stRp1348
ag1
(g1294
g1155
(dp1349
g62
g74
sg63
g535
sg64
g159
sg65
g530
sg66
g534
stRp1350
ag1
(g1294
g1155
(dp1351
g62
g125
sg63
g1008
sg64
g316
sg65
g1003
sg66
g1007
stRp1352
ag1
(g1294
g1155
(dp1353
g62
g125
sg63
g524
sg64
g226
sg65
g519
sg66
g523
stRp1354
ag1
(g1294
g1155
(dp1355
g62
g125
sg63
g133
sg64
g124
sg65
g128
sg66
g132
stRp1356
ag1
(g1294
g1155
(dp1357
g62
g125
sg63
g1096
sg64
g124
sg65
g1091
sg66
g1095
stRp1358
ag1
(g1294
g1155
(dp1359
g62
g74
sg63
g211
sg64
g159
sg65
g206
sg66
g210
stRp1360
ag1
(g1294
g1155
(dp1361
g62
g74
sg63
g1041
sg64
g73
sg65
g1036
sg66
g1040
stRp1362
ag1
(g1294
g1155
(dp1363
g62
g74
sg63
g920
sg64
g73
sg65
g915
sg66
g919
stRp1364
ag1
(g1294
g1155
(dp1365
g62
g125
sg63
g324
sg64
g316
sg65
g319
sg66
g323
stRp1366
ag1
(g1294
g1155
(dp1367
g62
g125
sg63
g1140
sg64
g328
sg65
g1135
sg66
g1139
stRp1368
ag1
(g1294
g1155
(dp1369
g62
g125
sg63
g491
sg64
g483
sg65
g486
sg66
g490
stRp1370
ag1
(g1294
g1155
(dp1371
g62
g74
sg63
g1129
sg64
g73
sg65
g1124
sg66
g1128
stRp1372
ag1
(g1294
g1155
(dp1373
g62
g74
sg63
g645
sg64
g159
sg65
g640
sg66
g644
stRp1374
ag1
(g1294
g1155
(dp1375
g62
g74
sg63
g290
sg64
g159
sg65
g285
sg66
g289
stRp1376
ag1
(g1294
g1155
(dp1377
g62
g125
sg63
g435
sg64
g316
sg65
g430
sg66
g434
stRp1378
ag1
(g1294
g1155
(dp1379
g62
g74
sg63
g777
sg64
g73
sg65
g772
sg66
g776
stRp1380
ag1
(g1294
g1155
(dp1381
g62
g74
sg63
g97
sg64
g89
sg65
g92
sg66
g96
stRp1382
ag1
(g1294
g1155
(dp1383
g62
g74
sg63
g178
sg64
g73
sg65
g173
sg66
g177
stRp1384
ag1
(g1294
g1155
(dp1385
g62
g74
sg63
g109
sg64
g101
sg65
g104
sg66
g108
stRp1386
ag1
(g1294
g1155
(dp1387
g62
g125
sg63
g502
sg64
g226
sg65
g497
sg66
g501
stRp1388
ag1
(g1294
g1155
(dp1389
g62
g125
sg63
g234
sg64
g226
sg65
g229
sg66
g233
stRp1390
ag1
(g1294
g1155
(dp1391
g62
g74
sg63
g167
sg64
g159
sg65
g162
sg66
g166
stRp1392
ag1
(g1294
g1155
(dp1393
g62
g74
sg63
g1019
sg64
g89
sg65
g1014
sg66
g1018
stRp1394
ag1
(g1294
g1155
(dp1395
g62
g74
sg63
g1063
sg64
g159
sg65
g1058
sg66
g1062
stRp1396
ag1
(g1294
g1155
(dp1397
g62
g74
sg63
g358
sg64
g73
sg65
g353
sg66
g357
stRp1398
ag1
(g1294
g1155
(dp1399
g62
g74
sg63
g468
sg64
g89
sg65
g463
sg66
g467
stRp1400
ag1
(g1294
g1155
(dp1401
g62
g125
sg63
g854
sg64
g316
sg65
g849
sg66
g853
stRp1402
ag1
(g1294
g1155
(dp1403
g62
g125
sg63
g843
sg64
g271
sg65
g838
sg66
g842
stRp1404
ag1
(g1294
g1155
(dp1405
g62
g74
sg63
g942
sg64
g89
sg65
g937
sg66
g941
stRp1406
ag1
(g1294
g1155
(dp1407
g62
g74
sg63
g909
sg64
g73
sg65
g904
sg66
g908
stRp1408
ag1
(g1294
g1155
(dp1409
g62
g74
sg63
g876
sg64
g73
sg65
g871
sg66
g875
stRp1410
ag1
(g1294
g1155
(dp1411
g62
g125
sg63
g788
sg64
g316
sg65
g783
sg66
g787
stRp1412
ag1
(g1294
g1155
(dp1413
g62
g74
sg63
g931
sg64
g73
sg65
g926
sg66
g930
stRp1414
ag1
(g1294
g1155
(dp1415
g62
g74
sg63
g479
sg64
g73
sg65
g474
sg66
g478
stRp1416
ag1
(g1294
g1155
(dp1417
g62
g74
sg63
g700
sg64
g73
sg65
g695
sg66
g699
stRp1418
ag1
(g1294
g1155
(dp1419
g62
g125
sg63
g656
sg64
g328
sg65
g651
sg66
g655
stRp1420
ag1
(g1294
g1155
(dp1421
g62
g74
sg63
g84
sg64
g73
sg65
g78
sg66
g83
stRp1422
ag1
(g1294
g1155
(dp1423
g62
g125
sg63
g1118
sg64
g271
sg65
g1113
sg66
g1117
stRp1424
ag1
(g1294
g1155
(dp1425
g62
g74
sg63
g513
sg64
g89
sg65
g508
sg66
g512
stRp1426
ag1
(g1294
g1155
(dp1427
g62
g125
sg63
g689
sg64
g124
sg65
g684
sg66
g688
stRp1428
ag1
(g1294
g1155
(dp1429
g62
g74
sg63
g898
sg64
g73
sg65
g893
sg66
g897
stRp1430
ag1
(g1294
g1155
(dp1431
g62
g74
sg63
g887
sg64
g159
sg65
g882
sg66
g886
stRp1432
ag1
(g1294
g1155
(dp1433
g62
g125
sg63
g579
sg64
g226
sg65
g574
sg66
g578
stRp1434
ag1
(g1294
g1155
(dp1435
g62
g74
sg63
g744
sg64
g73
sg65
g739
sg66
g743
stRp1436
ag1
(g1294
g1155
(dp1437
g62
g125
sg63
g402
sg64
g124
sg65
g397
sg66
g401
stRp1438
ag1
(g1294
g1155
(dp1439
g62
g125
sg63
g766
sg64
g328
sg65
g761
sg66
g765
stRp1440
ag1
(g1294
g1155
(dp1441
g62
g74
sg63
g347
sg64
g101
sg65
g342
sg66
g346
stRp1442
ag1
(g1294
g1155
(dp1443
g62
g74
sg63
g155
sg64
g73
sg65
g150
sg66
g154
stRp1444
ag1
(g1294
g1155
(dp1445
g62
g74
sg63
g222
sg64
g89
sg65
g217
sg66
g221
stRp1446
ag1
(g1294
g1155
(dp1447
g62
g125
sg63
g832
sg64
g271
sg65
g827
sg66
g831
stRp1448
ag1
(g1294
g1155
(dp1449
g62
g125
sg63
g810
sg64
g124
sg65
g805
sg66
g809
stRp1450
ag1
(g1294
g1155
(dp1451
g62
g125
sg63
g446
sg64
g226
sg65
g441
sg66
g445
stRp1452
ag1
(g1294
g1155
(dp1453
g62
g74
sg63
g301
sg64
g73
sg65
g296
sg66
g300
stRp1454
ag1
(g1294
g1155
(dp1455
g62
g74
sg63
g546
sg64
g89
sg65
g541
sg66
g545
stRp1456
ag1
(g1294
g1155
(dp1457
g62
g125
sg63
g755
sg64
g226
sg65
g750
sg66
g754
stRp1458
ag1
(g1294
g1155
(dp1459
g62
g74
sg63
g667
sg64
g159
sg65
g662
sg66
g666
stRp1460
ag1
(g1294
g1155
(dp1461
g62
g125
sg63
g369
sg64
g124
sg65
g364
sg66
g368
stRp1462
ag1
(g1294
g1155
(dp1463
g62
g74
sg63
g953
sg64
g159
sg65
g948
sg66
g952
stRp1464
ag1
(g1294
g1155
(dp1465
g62
g74
sg63
g120
sg64
g73
sg65
g115
sg66
g119
stRp1466
ag1
(g1294
g1155
(dp1467
g62
g125
sg63
g1107
sg64
g271
sg65
g1102
sg66
g1106
stRp1468
ag1
(g1294
g1155
(dp1469
g62
g125
sg63
g391
sg64
g271
sg65
g386
sg66
g390
stRp1470
ag1
(g1294
g1155
(dp1471
g62
g125
sg63
g457
sg64
g328
sg65
g452
sg66
g456
stRp1472
ag1
(g1294
g1155
(dp1473
g62
g125
sg63
g865
sg64
g328
sg65
g860
sg66
g864
stRp1474
ag1
(g1294
g1155
(dp1475
g62
g74
sg63
g1030
sg64
g159
sg65
g1025
sg66
g1029
stRp1476
ag1
(g1294
g1155
(dp1477
g62
g125
sg63
g568
sg64
g271
sg65
g563
sg66
g567
stRp1478
ag1
(g1294
g1155
(dp1479
g62
g125
sg63
g733
sg64
g328
sg65
g728
sg66
g732
stRp1480
ag1
(g1294
g1155
(dp1481
g62
g125
sg63
g245
sg64
g226
sg65
g240
sg66
g244
stRp1482
ag1
(g1294
g1155
(dp1483
g62
g74
sg63
g997
sg64
g89
sg65
g992
sg66
g996
stRp1484
ag1
(g1294
g1155
(dp1485
g62
g74
sg63
g964
sg64
g159
sg65
g959
sg66
g963
stRp1486
asS'seed'
p1487
NsS'thisIndex'
p1488
g1137
sS'thisN'
p1489
I96
sS'thisTrialN'
p1490
I0
sS'nTotal'
p1491
I96
sS'_warnUseOfNext'
p1492
I01
sbasS'savePickle'
p1493
I00
sb.