ccopy_reg
_reconstructor
p1
(cpsychopy.data
ExperimentHandler
p2
c__builtin__
object
p3
NtRp4
(dp5
S'originPath'
p6
NsS'dataFileName'
p7
VC:\u005cDocuments and Settings\u005cExperimental user\u005cMy Documents\u005cconsciousness\u005cuncon_feat\u005cexperiment_scripts\u005cdata/alba_Experiment_EEG_version_2019_jun_13_1028
p8
sS'runtimeInfo'
p9
NsS'name'
p10
VExperiment_EEG_version
p11
sS'dataNames'
p12
(lp13
S'image_onset_time'
p14
aS'response_window'
p15
aS'correctAns'
p16
aS'probe_onset'
p17
aS'discrim_resptime'
p18
aS'response.corr'
p19
aS'response.keys'
p20
aS'response.rt'
p21
aS'visible_resptime'
p22
aS'visible.keys'
p23
aS'visible.corr'
p24
aS'visible.rt'
p25
aS'probeFrames'
p26
aS'jitter2'
p27
asS'autoLog'
p28
I01
sS'extraInfo'
p29
(dp30
Vn_square
p31
V32
p32
sVexperiment_color
p33
Vbw
p34
sS'frameRate'
p35
cnumpy.core.multiarray
scalar
p36
(cnumpy
dtype
p37
(S'f8'
I0
I1
tRp38
(I3
S'<'
NNNI-1
I-1
I0
tbS'q>zkU\xf2X@'
tRp39
sS'date'
p40
V2019_jun_13_1028
p41
sVsession
p42
V016
p43
sVimage_size
p44
V256
p45
sVpremask_dur
p46
V20
p47
sVprobeFrames
p48
V5
sVparticipant
p49
Valba
p50
sS'expName'
p51
g11
sVpostmask_dur
p52
V20
p53
ssS'loopsUnfinished'
p54
(lp55
sS'saveWideText'
p56
I00
sS'thisEntry'
p57
(dp58
sS'version'
p59
S''
sS'_paramNamesSoFar'
p60
(lp61
S'category'
p62
aS'probe_path'
p63
aS'subcategory'
p64
aS'fixation_duration'
p65
aS'label'
p66
asS'entries'
p67
(lp68
(dp69
g31
g32
sg17
F3.7393292323686182
sg24
I0
sg35
g39
sg14
F3.7164792404510081
sg16
g36
(g37
(S'i4'
I0
I1
tRp70
(I3
S'<'
NNNI-1
I-1
I0
tbS'\x02\x00\x00\x00'
tRp71
sg42
g43
sg46
g47
sg15
S'V_nV'
p72
sg22
F6.6437522722408175
sg64
VFurniture
p73
sg62
VNonliving_Things
p74
sg49
g50
sS'trials.thisN'
p75
I0
sg19
I1
sg27
g36
(g38
S'\x00\x00\x00\x00\x00\x00\x1e@'
tRp76
sg52
g53
sg23
S'3'
sg18
F4.9991850578226149
sg33
g34
sg51
g11
sg20
S'2'
sg65
g36
(g37
(S'i8'
I0
I1
tRp77
(I3
S'<'
NNNI-1
I-1
I0
tbS'\x00\x00\x00\x00\x00\x00\x00\x00'
tRp78
sg44
g45
sg40
g41
sg25
F0.19062766106799245
sS'trials.thisIndex'
p79
g36
(g37
(S'i4'
I0
I1
tRp80
(I3
S'<'
NNNI-1
I-1
I0
tbS'\x00\x00\x00\x00'
tRp81
sg26
V5
sS'trials.thisRepN'
p82
I0
sg66
VChest-of-drawers
p83
sg63
V../experiment_stimuli/bw_bc_bl/Nonliving_Things/Furniture/Chest-of-drawers_23.jpg
p84
sg21
F1.6137418546713889
sS'trials.thisTrialN'
p85
I0
sa(dp86
g31
g32
sg17
F8.5719336387701333
sg24
I0
sg35
g39
sg14
F8.5670248409733176
sg16
g36
(g70
S'\x01\x00\x00\x00'
tRp87
sg42
g43
sg46
g47
sg15
S'nV_V'
p88
sg22
F10.792508885730058
sg64
VVehicles
p89
sg62
g74
sg49
g50
sS'trials.thisN'
p90
I1
sg19
I0
sg27
g36
(g38
S'\x00\x00\x00\x00\x00\x00\x18@'
tRp91
sg52
g53
sg23
S'2'
sg18
F9.8096299809403718
sg33
g34
sg51
g11
sg20
S'2'
sg65
g36
(g77
S'\x00\x00\x00\x00\x00\x00\x00\x00'
tRp92
sg44
g45
sg40
g41
sg25
F0.19062988273799419
sS'trials.thisIndex'
p93
g36
(g80
S'[\x00\x00\x00'
tRp94
sg26
V5
sS'trials.thisRepN'
p95
I0
sg66
Vvan
p96
sg63
V../experiment_stimuli/bw_bc_bl/Nonliving_Things/Vehicles/van_14.jpg
p97
sg21
F0.96232127444818616
sS'trials.thisTrialN'
p98
I1
sa(dp99
g31
g32
sg17
F12.720991067588329
sg24
I1
sg35
g39
sg14
F12.716050153598189
sg16
g36
(g70
S'\x02\x00\x00\x00'
tRp100
sg42
g43
sg46
g47
sg15
g72
sg22
F14.37028487958014
sg64
g73
sg62
g74
sg49
g50
sS'trials.thisN'
p101
I2
sg19
I0
sg27
g36
(g38
S'\x00\x00\x00\x00\x00\x00\x1a@'
tRp102
sg52
g53
sg23
S'1'
sg18
F13.9486243580468
sg33
g34
sg51
g11
sg20
S'1'
sg65
g36
(g77
S'\x00\x00\x00\x00\x00\x00\x00\x00'
tRp103
sg44
g45
sg40
g41
sg25
F0.19065443845465779
sS'trials.thisIndex'
p104
g36
(g80
S'\x06\x00\x00\x00'
tRp105
sg26
V5
sS'trials.thisRepN'
p106
I0
sg66
Vbedside-table
p107
sg63
V../experiment_stimuli/bw_bc_bl/Nonliving_Things/Furniture/bedside-table_19.jpg
p108
sg21
F0.40109891723841429
sS'trials.thisTrialN'
p109
I2
sa(dp110
g31
g32
sg17
F16.298776031471789
sg24
I0
sg35
g39
sg14
F16.293823542073369
sg16
g36
(g70
S'\x02\x00\x00\x00'
tRp111
sg42
g43
sg46
g47
sg15
g88
sg22
F17.717555859126151
sg64
VBirds
p112
sg62
VLiving_Things
p113
sg49
g50
sS'trials.thisN'
p114
I3
sg19
I1
sg27
g36
(g38
S'\x00\x00\x00\x00\x00\x00\x1c@'
tRp115
sg52
g53
sg23
S'3'
sg18
F17.536433907691389
sg33
g34
sg51
g11
sg20
S'2'
sg65
g36
(g77
S'\x00\x00\x00\x00\x00\x00\x00\x00'
tRp116
sg44
g45
sg40
g41
sg25
F0.21068456163629889
sS'trials.thisIndex'
p117
g36
(g80
S';\x00\x00\x00'
tRp118
sg26
V5
sS'trials.thisRepN'
p119
I0
sg66
Vpartridge
p120
sg63
V../experiment_stimuli/bw_bc_bl/Living_Things/Birds/partridge_6.jpg
p121
sg21
F0.16057956451550126
sS'trials.thisTrialN'
p122
I3
sa(dp123
g31
g32
sg17
F19.666004668455571
sg24
I1
sg35
g39
sg14
F19.661151072476059
sg16
g36
(g70
S'\x02\x00\x00\x00'
tRp124
sg42
g43
sg46
g47
sg15
g88
sg22
F20.994663891848177
sg64
VAnimals
p125
sg62
g113
sg49
g50
sS'trials.thisN'
p126
I4
sg19
I1
sg27
g36
(g38
S'\x00\x00\x00\x00\x00\x00\x18@'
tRp127
sg52
g53
sg23
S'1'
sg18
F20.893722912762314
sg33
g34
sg51
g11
sg20
S'2'
sg65
g36
(g77
S'\x00\x00\x00\x00\x00\x00\x00\x00'
tRp128
sg44
g45
sg40
g41
sg25
F0.16056579863652587
sS'trials.thisIndex'
p129
g36
(g80
S'R\x00\x00\x00'
tRp130
sg26
V5
sS'trials.thisRepN'
p131
I0
sg66
Vtapir
p132
sg63
V../experiment_stimuli/bw_bc_bl/Living_Things/Animals/tapir_8.jpg
p133
sg21
F0.080400555394589901
sS'trials.thisTrialN'
p134
I4
sa(dp135
g31
g32
sg17
F22.893133552744985
sg24
I1
sg35
g39
sg14
F22.888155665248632
sg16
g36
(g70
S'\x02\x00\x00\x00'
tRp136
sg42
g43
sg46
g47
sg15
g72
sg22
F24.32203663000837
sg64
VBuildings
p137
sg62
g74
sg49
g50
sS'trials.thisN'
p138
I5
sg19
I0
sg27
g36
(g38
S'\x00\x00\x00\x00\x00\x00\x18@'
tRp139
sg52
g53
sg23
S'1'
sg18
F24.150803736411035
sg33
g34
sg51
g11
sg20
S'1'
sg65
g36
(g77
S'\x00\x00\x00\x00\x00\x00\x00\x00'
tRp140
sg44
g45
sg40
g41
sg25
F2.816355312243104
sS'trials.thisIndex'
p141
g36
(g80
S':\x00\x00\x00'
tRp142
sg26
V5
sS'trials.thisRepN'
p143
I0
sg66
Vpalace
p144
sg63
V../experiment_stimuli/bw_bc_bl/Nonliving_Things/Buildings/palace_23.jpg
p145
sg21
F0.15066748531535268
sS'trials.thisTrialN'
p146
I5
sa(dp147
g31
g32
sg17
F28.876091702375561
sg24
I0
sg35
g39
sg14
F28.871162547264248
sg16
g36
(g70
S'\x01\x00\x00\x00'
tRp148
sg42
g43
sg46
g47
sg15
g88
sg22
F32.730208223685622
sg64
g89
sg62
g74
sg49
g50
sS'trials.thisN'
p149
I6
sg19
I0
sg27
g36
(g38
S'\x00\x00\x00\x00\x00\x00\x18@'
tRp150
sg52
g53
sg23
S'2'
sg18
F30.163871345575899
sg33
g34
sg51
g11
sg20
S'2'
sg65
g36
(g77
S'\x00\x00\x00\x00\x00\x00\x00\x00'
tRp151
sg44
g45
sg40
g41
sg25
F0.2006688816472888
sS'trials.thisIndex'
p152
g36
(g80
S'W\x00\x00\x00'
tRp153
sg26
V5
sS'trials.thisRepN'
p154
I0
sg66
Vtrain
p155
sg63
V../experiment_stimuli/bw_bc_bl/Nonliving_Things/Vehicles/train_3.jpg
p156
sg21
F2.5457760631106794
sS'trials.thisTrialN'
p157
I6
sa(dp158
g31
g32
sg17
F34.668603387661278
sg24
I0
sg35
g39
sg14
F34.663757655769587
sg16
g36
(g70
S'\x02\x00\x00\x00'
tRp159
sg42
g43
sg46
g47
sg15
g88
sg22
F36.909117416478693
sg64
g112
sg62
g113
sg49
g50
sS'trials.thisN'
p160
I7
sg19
I0
sg27
g36
(g38
S'\x00\x00\x00\x00\x00\x00\x18@'
tRp161
sg52
g53
sg23
S'2'
sg18
F35.946445387788117
sg33
g34
sg51
g11
sg20
S'1'
sg65
g36
(g77
S'\x00\x00\x00\x00\x00\x00\x00\x00'
tRp162
sg44
g45
sg40
g41
sg25
F0.22073764679953456
sS'trials.thisIndex'
p163
g36
(g80
S'*\x00\x00\x00'
tRp164
sg26
V5
sS'trials.thisRepN'
p165
I0
sg66
Vhummingbird
p166
sg63
V../experiment_stimuli/bw_bc_bl/Living_Things/Birds/hummingbird_16.jpg
p167
sg21
F0.94211292872205377
sS'trials.thisTrialN'
p168
I7
sa(dp169
g31
g32
sg17
F38.867774580139667
sg24
I0
sg35
g39
sg14
F38.862885232549161
sg16
g36
(g70
S'\x01\x00\x00\x00'
tRp170
sg42
g43
sg46
g47
sg15
g72
sg22
F40.717583993449807
sg64
g112
sg62
g113
sg49
g50
sS'trials.thisN'
p171
I8
sg19
I0
sg27
g36
(g38
S'\x00\x00\x00\x00\x00\x00\x18@'
tRp172
sg52
g53
sg23
S'2'
sg18
F40.135552242863923
sg33
g34
sg51
g11
sg20
S'2'
sg65
g36
(g77
S'\x00\x00\x00\x00\x00\x00\x00\x00'
tRp173
sg44
g45
sg40
g41
sg25
F0.24075943557545543
sS'trials.thisIndex'
p174
g36
(g80
S'\x04\x00\x00\x00'
tRp175
sg26
V5
sS'trials.thisRepN'
p176
I0
sg66
Vbarn-owl
p177
sg63
V../experiment_stimuli/bw_bc_bl/Living_Things/Birds/barn-owl_3.jpg
p178
sg21
F0.56146259792149067
sS'trials.thisTrialN'
p179
I8
sa(dp180
g31
g32
sg17
F42.69608570355922
sg24
I0
sg35
g39
sg14
F42.691203134600073
sg16
g36
(g70
S'\x01\x00\x00\x00'
tRp181
sg42
g43
sg46
g47
sg15
g72
sg22
F44.555910481605679
sg64
g112
sg62
g113
sg49
g50
sS'trials.thisN'
p182
I9
sg19
I0
sg27
g36
(g38
S'\x00\x00\x00\x00\x00\x00\x1c@'
tRp183
sg52
g53
sg23
S'2'
sg18
F43.953853385988623
sg33
g34
sg51
g11
sg20
S'2'
sg65
g36
(g77
S'\x00\x00\x00\x00\x00\x00\x00\x00'
tRp184
sg44
g45
sg40
g41
sg25
F0.25076810363680124
sS'trials.thisIndex'
p185
g36
(g80
S'9\x00\x00\x00'
tRp186
sg26
V5
sS'trials.thisRepN'
p187
I0
sg66
Vowl
p188
sg63
V../experiment_stimuli/bw_bc_bl/Living_Things/Birds/owl_14.jpg
p189
sg21
F0.58149860426783562
sS'trials.thisTrialN'
p190
I9
sa(dp191
g31
g32
sg17
F46.545672045554966
sg24
I0
sg35
g39
sg14
F46.539573079906404
sg16
g36
(g70
S'\x02\x00\x00\x00'
tRp192
sg42
g43
sg46
g47
sg15
g72
sg22
F48.203839061316103
sg64
VKitchen_Uten
p193
sg62
g74
sg49
g50
sS'trials.thisN'
p194
I10
sg19
I1
sg27
g36
(g38
S'\x00\x00\x00\x00\x00\x00\x1a@'
tRp195
sg52
g53
sg23
S'2'
sg18
F47.792194693349302
sg33
g34
sg51
g11
sg20
S'2'
sg65
g36
(g77
S'\x00\x00\x00\x00\x00\x00\x00\x00'
tRp196
sg44
g45
sg40
g41
sg25
F0.23072532331570983
sS'trials.thisIndex'
p197
g36
(g80
S'B\x00\x00\x00'
tRp198
sg26
V5
sS'trials.thisRepN'
p199
I0
sg66
Vpot
p200
sg63
V../experiment_stimuli/bw_bc_bl/Nonliving_Things/Kitchen_Uten/pot_1.jpg
p201
sg21
F0.39109504967927933
sS'trials.thisTrialN'
p202
I10
sa(dp203
g31
g32
sg17
F50.172428101301193
sg24
I1
sg35
g39
sg14
F50.167460303753614
sg16
g36
(g70
S'\x01\x00\x00\x00'
tRp204
sg42
g43
sg46
g47
sg15
g72
sg22
F52.603393868543208
sg64
g125
sg62
g113
sg49
g50
sS'trials.thisN'
p205
I11
sg19
I1
sg27
g36
(g38
S'\x00\x00\x00\x00\x00\x00\x18@'
tRp206
sg52
g53
sg23
S'1'
sg18
F51.410058639477938
sg33
g34
sg51
g11
sg20
S'1'
sg65
g36
(g77
S'\x00\x00\x00\x00\x00\x00\x00\x00'
tRp207
sg44
g45
sg40
g41
sg25
F0.59150662273168564
sS'trials.thisIndex'
p208
g36
(g80
S'2\x00\x00\x00'
tRp209
sg26
V5
sS'trials.thisRepN'
p210
I0
sg66
Vlynx
p211
sg63
V../experiment_stimuli/bw_bc_bl/Living_Things/Animals/lynx_17.jpg
p212
sg21
F1.1727681406773627
sS'trials.thisTrialN'
p213
I11
sa(dp214
g31
g32
sg17
F54.932646953966469
sg24
I1
sg35
g39
sg14
F54.927825214806944
sg16
g36
(g70
S'\x01\x00\x00\x00'
tRp215
sg42
g43
sg46
g47
sg15
g88
sg22
F58.135400356259197
sg64
g137
sg62
g74
sg49
g50
sS'trials.thisN'
p216
I12
sg19
I1
sg27
g36
(g38
S'\x00\x00\x00\x00\x00\x00\x1a@'
tRp217
sg52
g53
sg23
S'1'
sg18
F56.180427730083466
sg33
g34
sg51
g11
sg20
S'1'
sg65
g36
(g77
S'\x00\x00\x00\x00\x00\x00\x00\x00'
tRp218
sg44
g45
sg40
g41
sg25
F0.23071336932480335
sS'trials.thisIndex'
p219
g36
(g80
S'\x1c\x00\x00\x00'
tRp220
sg26
V5
sS'trials.thisRepN'
p221
I0
sg66
Vfactory
p222
sg63
V../experiment_stimuli/bw_bc_bl/Nonliving_Things/Buildings/factory_2.jpg
p223
sg21
F1.934428172186017
sS'trials.thisTrialN'
p224
I12
sa(dp225
g31
g32
sg17
F60.105214754585177
sg24
I0
sg35
g39
sg14
F60.099047060590237
sg16
g36
(g70
S'\x01\x00\x00\x00'
tRp226
sg42
g43
sg46
g47
sg15
g88
sg22
F66.152839628513902
sg64
VMusical_Inst
p227
sg62
g74
sg49
g50
sS'trials.thisN'
p228
I13
sg19
I1
sg27
g36
(g38
S'\x00\x00\x00\x00\x00\x00 @'
tRp229
sg52
g53
sg23
S'3'
sg18
F61.371715319342911
sg33
g34
sg51
g11
sg20
S'1'
sg65
g36
(g77
S'\x00\x00\x00\x00\x00\x00\x00\x00'
tRp230
sg44
g45
sg40
g41
sg25
F0.32092123851180077
sS'trials.thisIndex'
p231
g36
(g80
S'$\x00\x00\x00'
tRp232
sg26
V5
sS'trials.thisRepN'
p233
I0
sg66
Vguitar
p234
sg63
V../experiment_stimuli/bw_bc_bl/Nonliving_Things/Musical_Inst/guitar_13.jpg
p235
sg21
F4.7605756595730782
sS'trials.thisTrialN'
p236
I13
sa(dp237
g31
g32
sg17
F68.211568926461041
sg24
I0
sg35
g39
sg14
F68.206678029615432
sg16
g36
(g70
S'\x02\x00\x00\x00'
tRp238
sg42
g43
sg46
g47
sg15
g72
sg22
F69.720584750641137
sg64
VTools
p239
sg62
g74
sg49
g50
sS'trials.thisN'
p240
I14
sg19
I1
sg27
g36
(g38
S'\x00\x00\x00\x00\x00\x00\x18@'
tRp241
sg52
g53
sg23
S'2'
sg18
F69.449271467048675
sg33
g34
sg51
g11
sg20
S'2'
sg65
g36
(g77
S'\x00\x00\x00\x00\x00\x00\x00\x00'
tRp242
sg44
g45
sg40
g41
sg25
F0.24074305966496468
sS'trials.thisIndex'
p243
g36
(g80
S'\x03\x00\x00\x00'
tRp244
sg26
V5
sS'trials.thisRepN'
p245
I0
sg66
Vaxe
p246
sg63
V../experiment_stimuli/bw_bc_bl/Nonliving_Things/Tools/axe_26.jpg
p247
sg21
F0.25076824333518744
sS'trials.thisTrialN'
p248
I14
sa(dp249
g31
g32
sg17
F71.699359712656587
sg24
I1
sg35
g39
sg14
F71.69425605610013
sg16
g36
(g70
S'\x02\x00\x00\x00'
tRp250
sg42
g43
sg46
g47
sg15
g88
sg22
F73.158078125678003
sg64
g112
sg62
g113
sg49
g50
sS'trials.thisN'
p251
I15
sg19
I0
sg27
g36
(g38
S'\x00\x00\x00\x00\x00\x00\x1a@'
tRp252
sg52
g53
sg23
S'1'
sg18
F72.926833760924637
sg33
g34
sg51
g11
sg20
S'1'
sg65
g36
(g77
S'\x00\x00\x00\x00\x00\x00\x00\x00'
tRp253
sg44
g45
sg40
g41
sg25
F2.1148181976750493
sS'trials.thisIndex'
p254
g36
(g80
S'3\x00\x00\x00'
tRp255
sg26
V5
sS'trials.thisRepN'
p256
I0
sg66
Vmagpie
p257
sg63
V../experiment_stimuli/bw_bc_bl/Living_Things/Birds/magpie_0.jpg
p258
sg21
F0.20065374299883842
sS'trials.thisTrialN'
p259
I15
sa(dp260
g31
g32
sg17
F77.010564324911684
sg24
I0
sg35
g39
sg14
F77.005802873987705
sg16
g36
(g70
S'\x02\x00\x00\x00'
tRp261
sg42
g43
sg46
g47
sg15
g88
sg22
F80.20341598149389
sg64
VMarine_creatures
p262
sg62
g113
sg49
g50
sS'trials.thisN'
p263
I16
sg19
I1
sg27
g36
(g38
S'\x00\x00\x00\x00\x00\x00 @'
tRp264
sg52
g53
sg23
S'3'
sg18
F78.268449110444635
sg33
g34
sg51
g11
sg20
S'2'
sg65
g36
(g77
S'\x00\x00\x00\x00\x00\x00\x00\x00'
tRp265
sg44
g45
sg40
g41
sg25
F0.63161713117733598
sS'trials.thisIndex'
p266
g36
(g80
S'^\x00\x00\x00'
tRp267
sg26
V5
sS'trials.thisRepN'
p268
I0
sg66
Vwhale
p269
sg63
V../experiment_stimuli/bw_bc_bl/Living_Things/Marine_creatures/whale_4.jpg
p270
sg21
F1.9143819701857865
sS'trials.thisTrialN'
p271
I16
sa(dp272
g31
g32
sg17
F82.574153581634164
sg24
I1
sg35
g39
sg14
F82.567890885751694
sg16
g36
(g70
S'\x02\x00\x00\x00'
tRp273
sg42
g43
sg46
g47
sg15
g88
sg22
F84.212097537238151
sg64
g262
sg62
g113
sg49
g50
sS'trials.thisN'
p274
I17
sg19
I0
sg27
g36
(g38
S'\x00\x00\x00\x00\x00\x00\x1a@'
tRp275
sg52
g53
sg23
S'1'
sg18
F83.800484699197114
sg33
g34
sg51
g11
sg20
S'1'
sg65
g36
(g77
S'\x00\x00\x00\x00\x00\x00\x00\x00'
tRp276
sg44
g45
sg40
g41
sg25
F0.22069441108033061
sS'trials.thisIndex'
p277
g36
(g80
S'1\x00\x00\x00'
tRp278
sg26
V5
sS'trials.thisRepN'
p279
I0
sg66
Vlobster
p280
sg63
V../experiment_stimuli/bw_bc_bl/Living_Things/Marine_creatures/lobster_24.jpg
p281
sg21
F0.39108153805136681
sS'trials.thisTrialN'
p282
I17
sa(dp283
g31
g32
sg17
F86.172058313619345
sg24
I1
sg35
g39
sg14
F86.165708058979362
sg16
g36
(g70
S'\x02\x00\x00\x00'
tRp284
sg42
g43
sg46
g47
sg15
g88
sg22
F87.649580897763371
sg64
g112
sg62
g113
sg49
g50
sS'trials.thisN'
p285
I18
sg19
I1
sg27
g36
(g38
S'\x00\x00\x00\x00\x00\x00\x1a@'
tRp286
sg52
g53
sg23
S'1'
sg18
F87.408326536882669
sg33
g34
sg51
g11
sg20
S'2'
sg65
g36
(g77
S'\x00\x00\x00\x00\x00\x00\x00\x00'
tRp287
sg44
g45
sg40
g41
sg25
F0.22070355340838432
sS'trials.thisIndex'
p288
g36
(g80
S',\x00\x00\x00'
tRp289
sg26
V5
sS'trials.thisRepN'
p290
I0
sg66
Vkiwi
p291
sg63
V../experiment_stimuli/bw_bc_bl/Living_Things/Birds/kiwi_5.jpg
p292
sg21
F0.22070811735466123
sS'trials.thisTrialN'
p293
I18
sa(dp294
g31
g32
sg17
F89.608389619272202
sg24
I1
sg35
g39
sg14
F89.603185501415282
sg16
g36
(g70
S'\x01\x00\x00\x00'
tRp295
sg42
g43
sg46
g47
sg15
g72
sg22
F91.16723126731813
sg64
g125
sg62
g113
sg49
g50
sS'trials.thisN'
p296
I19
sg19
I0
sg27
g36
(g38
S'\x00\x00\x00\x00\x00\x00\x1a@'
tRp297
sg52
g53
sg23
S'1'
sg18
F90.85580998333171
sg33
g34
sg51
g11
sg20
S'2'
sg65
g36
(g77
S'\x00\x00\x00\x00\x00\x00\x00\x00'
tRp298
sg44
g45
sg40
g41
sg25
F0.14057722734287381
sS'trials.thisIndex'
p299
g36
(g80
S'Z\x00\x00\x00'
tRp300
sg26
V5
sS'trials.thisRepN'
p301
I0
sg66
Vturtle
p302
sg63
V../experiment_stimuli/bw_bc_bl/Living_Things/Animals/turtle_8.jpg
p303
sg21
F0.29086480010300875
sS'trials.thisTrialN'
p304
I19
sa(dp305
g31
g32
sg17
F93.045730676967651
sg24
I0
sg35
g39
sg14
F93.040660384576768
sg16
g36
(g70
S'\x02\x00\x00\x00'
tRp306
sg42
g43
sg46
g47
sg15
g72
sg22
F97.621248580515385
sg64
g137
sg62
g74
sg49
g50
sS'trials.thisN'
p307
I20
sg19
I1
sg27
g36
(g38
S'\x00\x00\x00\x00\x00\x00\x18@'
tRp308
sg52
g53
sg23
S'2'
sg18
F94.313325673341751
sg33
g34
sg51
g11
sg20
S'2'
sg65
g36
(g77
S'\x00\x00\x00\x00\x00\x00\x00\x00'
tRp309
sg44
g45
sg40
g41
sg25
F0.26079621212556958
sS'trials.thisIndex'
p310
g36
(g80
S'5\x00\x00\x00'
tRp311
sg26
V5
sS'trials.thisRepN'
p312
I0
sg66
Vmill
p313
sg63
V../experiment_stimuli/bw_bc_bl/Nonliving_Things/Buildings/mill_20.jpg
p314
sg21
F3.2873739991337061
sS'trials.thisTrialN'
p315
I20
sa(dp316
g31
g32
sg17
F99.619768248405308
sg24
I1
sg35
g39
sg14
F99.614970410708338
sg16
g36
(g70
S'\x01\x00\x00\x00'
tRp317
sg42
g43
sg46
g47
sg15
g88
sg22
F101.11884446348995
sg64
g137
sg62
g74
sg49
g50
sS'trials.thisN'
p318
I21
sg19
I1
sg27
g36
(g38
S'\x00\x00\x00\x00\x00\x00\x1a@'
tRp319
sg52
g53
sg23
S'1'
sg18
F100.87759609147906
sg33
g34
sg51
g11
sg20
S'1'
sg65
g36
(g77
S'\x00\x00\x00\x00\x00\x00\x00\x00'
tRp320
sg44
g45
sg40
g41
sg25
F0.25075602531433105
sS'trials.thisIndex'
p321
g36
(g80
S'\x0c\x00\x00\x00'
tRp322
sg26
V5
sS'trials.thisRepN'
p323
I0
sg66
Vcastle
p324
sg63
V../experiment_stimuli/bw_bc_bl/Nonliving_Things/Buildings/castle_8.jpg
p325
sg21
F0.2206932338885963
sS'trials.thisTrialN'
p326
I21
sa(dp327
g31
g32
sg17
F103.10747952479869
sg24
I1
sg35
g39
sg14
F103.10253448272124
sg16
g36
(g70
S'\x01\x00\x00\x00'
tRp328
sg42
g43
sg46
g47
sg15
g88
sg22
F104.72668180149049
sg64
g89
sg62
g74
sg49
g50
sS'trials.thisN'
p329
I22
sg19
I1
sg27
g36
(g38
S'\x00\x00\x00\x00\x00\x00\x1a@'
tRp330
sg52
g53
sg23
S'1'
sg18
F104.38522202614695
sg33
g34
sg51
g11
sg20
S'1'
sg65
g36
(g77
S'\x00\x00\x00\x00\x00\x00\x00\x00'
tRp331
sg44
g45
sg40
g41
sg25
F0.22069872636348009
sS'trials.thisIndex'
p332
g36
(g80
S'@\x00\x00\x00'
tRp333
sg26
V5
sS'trials.thisRepN'
p334
I0
sg66
Vplane
p335
sg63
V../experiment_stimuli/bw_bc_bl/Nonliving_Things/Vehicles/plane_20.jpg
p336
sg21
F0.32092234725132585
sS'trials.thisTrialN'
p337
I22
sa(dp338
g31
g32
sg17
F106.68528693914413
sg24
I0
sg35
g39
sg14
F106.68030663067475
sg16
g36
(g70
S'\x02\x00\x00\x00'
tRp339
sg42
g43
sg46
g47
sg15
g88
sg22
F109.72759297396988
sg64
g125
sg62
g113
sg49
g50
sS'trials.thisN'
p340
I23
sg19
I1
sg27
g36
(g38
S'\x00\x00\x00\x00\x00\x00\x1a@'
tRp341
sg52
g53
sg23
S'3'
sg18
F107.9730311660096
sg33
g34
sg51
g11
sg20
S'2'
sg65
g36
(g77
S'\x00\x00\x00\x00\x00\x00\x00\x00'
tRp342
sg44
g45
sg40
g41
sg25
F0.20067230658605695
sS'trials.thisIndex'
p343
g36
(g80
S'(\x00\x00\x00'
tRp344
sg26
V5
sS'trials.thisRepN'
p345
I0
sg66
Vhorse
p346
sg63
V../experiment_stimuli/bw_bc_bl/Living_Things/Animals/horse_17.jpg
p347
sg21
F1.7340110950171947
sS'trials.thisTrialN'
p348
I23
sa(dp349
g31
g32
sg17
F111.6668760990724
sg24
I0
sg35
g39
sg14
F111.66113900812343
sg16
g36
(g70
S'\x01\x00\x00\x00'
tRp350
sg42
g43
sg46
g47
sg15
g88
sg22
F113.91669608885422
sg64
g89
sg62
g74
sg49
g50
sS'trials.thisN'
p351
I24
sg19
I1
sg27
g36
(g38
S'\x00\x00\x00\x00\x00\x00\x18@'
tRp352
sg52
g53
sg23
S'3'
sg18
F112.93381440918893
sg33
g34
sg51
g11
sg20
S'1'
sg65
g36
(g77
S'\x00\x00\x00\x00\x00\x00\x00\x00'
tRp353
sg44
g45
sg40
g41
sg25
F0.31095239613205194
sS'trials.thisIndex'
p354
g36
(g80
S'6\x00\x00\x00'
tRp355
sg26
V5
sS'trials.thisRepN'
p356
I0
sg66
Vmotorbike
p357
sg63
V../experiment_stimuli/bw_bc_bl/Nonliving_Things/Vehicles/motorbike_11.jpg
p358
sg21
F0.96232593199238181
sS'trials.thisTrialN'
p359
I24
sa(dp360
g31
g32
sg17
F115.96533263241872
sg24
I1
sg35
g39
sg14
F115.96048801019788
sg16
g36
(g70
S'\x02\x00\x00\x00'
tRp361
sg42
g43
sg46
g47
sg15
g88
sg22
F117.60471789073199
sg64
g125
sg62
g113
sg49
g50
sS'trials.thisN'
p362
I25
sg19
I1
sg27
g36
(g38
S'\x00\x00\x00\x00\x00\x00\x1c@'
tRp363
sg52
g53
sg23
S'1'
sg18
F117.20308934198692
sg33
g34
sg51
g11
sg20
S'2'
sg65
g36
(g77
S'\x00\x00\x00\x00\x00\x00\x00\x00'
tRp364
sg44
g45
sg40
g41
sg25
F0.15059817815199494
sS'trials.thisIndex'
p365
g36
(g80
S'D\x00\x00\x00'
tRp366
sg26
V5
sS'trials.thisRepN'
p367
I0
sg66
Vrhino
p368
sg63
V../experiment_stimuli/bw_bc_bl/Living_Things/Animals/rhino_25.jpg
p369
sg21
F0.38107144506648183
sS'trials.thisTrialN'
p370
I25
sa(dp371
g31
g32
sg17
F119.49380601290613
sg24
I1
sg35
g39
sg14
F119.48814930813387
sg16
g36
(g70
S'\x02\x00\x00\x00'
tRp372
sg42
g43
sg46
g47
sg15
g88
sg22
F121.37286474881694
sg64
g112
sg62
g113
sg49
g50
sS'trials.thisN'
p373
I26
sg19
I1
sg27
g36
(g38
S'\x00\x00\x00\x00\x00\x00\x1c@'
tRp374
sg52
g53
sg23
S'1'
sg18
F120.74077851884067
sg33
g34
sg51
g11
sg20
S'2'
sg65
g36
(g77
S'\x00\x00\x00\x00\x00\x00\x00\x00'
tRp375
sg44
g45
sg40
g41
sg25
F0.11050830874592066
sS'trials.thisIndex'
p376
g36
(g80
S'&\x00\x00\x00'
tRp377
sg26
V5
sS'trials.thisRepN'
p378
I0
sg66
Vhen
p379
sg63
V../experiment_stimuli/bw_bc_bl/Living_Things/Birds/hen_26.jpg
p380
sg21
F0.60153005039319396
sS'trials.thisTrialN'
p381
I26
sa(dp382
g31
g32
sg17
F123.22206426877528
sg24
I1
sg35
g39
sg14
F123.21626731799915
sg16
g36
(g70
S'\x02\x00\x00\x00'
tRp383
sg42
g43
sg46
g47
sg15
g88
sg22
F125.35155674116686
sg64
g112
sg62
g113
sg49
g50
sS'trials.thisN'
p384
I27
sg19
I1
sg27
g36
(g38
S'\x00\x00\x00\x00\x00\x00\x1e@'
tRp385
sg52
g53
sg23
S'1'
sg18
F124.49895344814286
sg33
g34
sg51
g11
sg20
S'2'
sg65
g36
(g77
S'\x00\x00\x00\x00\x00\x00\x00\x00'
tRp386
sg44
g45
sg40
g41
sg25
F0.14052467932924628
sS'trials.thisIndex'
p387
g36
(g80
S'!\x00\x00\x00'
tRp388
sg26
V5
sS'trials.thisRepN'
p389
I0
sg66
Vgoldfinch
p390
sg63
V../experiment_stimuli/bw_bc_bl/Living_Things/Birds/goldfinch_13.jpg
p391
sg21
F0.83204439608380198
sS'trials.thisTrialN'
p392
I27
sa(dp393
g31
g32
sg17
F127.23098049079999
sg24
I0
sg35
g39
sg14
F127.22497972287238
sg16
g36
(g70
S'\x01\x00\x00\x00'
tRp394
sg42
g43
sg46
g47
sg15
g72
sg22
F130.09185284934938
sg64
VInsects
p395
sg62
g113
sg49
g50
sS'trials.thisN'
p396
I28
sg19
I1
sg27
g36
(g38
S'\x00\x00\x00\x00\x00\x00\x18@'
tRp397
sg52
g53
sg23
S'2'
sg18
F128.52822390059009
sg33
g34
sg51
g11
sg20
S'1'
sg65
g36
(g77
S'\x00\x00\x00\x00\x00\x00\x00\x00'
tRp398
sg44
g45
sg40
g41
sg25
F0.45104460418224335
sS'trials.thisIndex'
p399
g36
(g80
S'I\x00\x00\x00'
tRp400
sg26
V5
sS'trials.thisRepN'
p401
I0
sg66
Vscorpion
p402
sg63
V../experiment_stimuli/bw_bc_bl/Living_Things/Insects/scorpion_2.jpg
p403
sg21
F1.5435958332382143
sS'trials.thisTrialN'
p404
I28
sa(dp405
g31
g32
sg17
F132.28082787618041
sg24
I0
sg35
g39
sg14
F132.27595502464101
sg16
g36
(g70
S'\x01\x00\x00\x00'
tRp406
sg42
g43
sg46
g47
sg15
g72
sg22
F134.51150672603399
sg64
g112
sg62
g113
sg49
g50
sS'trials.thisN'
p407
I29
sg19
I1
sg27
g36
(g38
S'\x00\x00\x00\x00\x00\x00\x18@'
tRp408
sg52
g53
sg23
S'2'
sg18
F133.56866680411622
sg33
g34
sg51
g11
sg20
S'1'
sg65
g36
(g77
S'\x00\x00\x00\x00\x00\x00\x00\x00'
tRp409
sg44
g45
sg40
g41
sg25
F0.21073281671851873
sS'trials.thisIndex'
p410
g36
(g80
S'<\x00\x00\x00'
tRp411
sg26
V5
sS'trials.thisRepN'
p412
I0
sg66
Vpelican
p413
sg63
V../experiment_stimuli/bw_bc_bl/Living_Things/Birds/pelican_10.jpg
p414
sg21
F0.92222850304096937
sS'trials.thisTrialN'
p415
I29
sa(dp416
g31
g32
sg17
F136.46072824252769
sg24
I0
sg35
g39
sg14
F136.45504873758182
sg16
g36
(g70
S'\x01\x00\x00\x00'
tRp417
sg42
g43
sg46
g47
sg15
g88
sg22
F142.64916585525498
sg64
g193
sg62
g74
sg49
g50
sS'trials.thisN'
p418
I30
sg19
I1
sg27
g36
(g38
S'\x00\x00\x00\x00\x00\x00\x1a@'
tRp419
sg52
g53
sg23
S'2'
sg18
F137.73772747674957
sg33
g34
sg51
g11
sg20
S'1'
sg65
g36
(g77
S'\x00\x00\x00\x00\x00\x00\x00\x00'
tRp420
sg44
g45
sg40
g41
sg25
F0.92222475120797753
sS'trials.thisIndex'
p421
g36
(g80
S'M\x00\x00\x00'
tRp422
sg26
V5
sS'trials.thisRepN'
p423
I0
sg66
Vsmall-saucepan
p424
sg63
V../experiment_stimuli/bw_bc_bl/Nonliving_Things/Kitchen_Uten/small-saucepan_11.jpg
p425
sg21
F4.8908750638365746
sS'trials.thisTrialN'
p426
I30
sa(dp427
g31
g32
sg17
F145.31010361155495
sg24
I0
sg35
g39
sg14
F145.30427648080513
sg16
g36
(g70
S'\x01\x00\x00\x00'
tRp428
sg42
g43
sg46
g47
sg15
g88
sg22
F147.38947010226548
sg64
g193
sg62
g74
sg49
g50
sS'trials.thisN'
p429
I31
sg19
I1
sg27
g36
(g38
S'\x00\x00\x00\x00\x00\x00\x1c@'
tRp430
sg52
g53
sg23
S'2'
sg18
F146.57695689285174
sg33
g34
sg51
g11
sg20
S'1'
sg65
g36
(g77
S'\x00\x00\x00\x00\x00\x00\x00\x00'
tRp431
sg44
g45
sg40
g41
sg25
F0.21068278700113297
sS'trials.thisIndex'
p432
g36
(g80
S'\x1e\x00\x00\x00'
tRp433
sg26
V5
sS'trials.thisRepN'
p434
I0
sg66
Vfondue
p435
sg63
V../experiment_stimuli/bw_bc_bl/Nonliving_Things/Kitchen_Uten/fondue_9.jpg
p436
sg21
F0.79194603022187948
sS'trials.thisTrialN'
p437
I31
sa(dp438
g31
g32
sg17
F149.33788949903101
sg24
I0
sg35
g39
sg14
F149.33305638004094
sg16
g36
(g70
S'\x02\x00\x00\x00'
tRp439
sg42
g43
sg46
g47
sg15
g72
sg22
F151.08749989653006
sg64
g73
sg62
g74
sg49
g50
sS'trials.thisN'
p440
I32
sg19
I0
sg27
g36
(g38
S'\x00\x00\x00\x00\x00\x00\x1a@'
tRp441
sg52
g53
sg23
S'2'
sg18
F150.59568431228399
sg33
g34
sg51
g11
sg20
S'1'
sg65
g36
(g77
S'\x00\x00\x00\x00\x00\x00\x00\x00'
tRp442
sg44
g45
sg40
g41
sg25
F0.17059372970834374
sS'trials.thisIndex'
p443
g36
(g80
S'\x05\x00\x00\x00'
tRp444
sg26
V5
sS'trials.thisRepN'
p445
I0
sg66
Vbed
p446
sg63
V../experiment_stimuli/bw_bc_bl/Nonliving_Things/Furniture/bed_13.jpg
p447
sg21
F0.47126513440161943
sS'trials.thisTrialN'
p448
I32
sa(dp449
g31
g32
sg17
F152.99692537030205
sg24
I1
sg35
g39
sg14
F152.9909929628484
sg16
g36
(g70
S'\x02\x00\x00\x00'
tRp450
sg42
g43
sg46
g47
sg15
g72
sg22
F154.51496591139585
sg64
g239
sg62
g74
sg49
g50
sS'trials.thisN'
p451
I33
sg19
I0
sg27
g36
(g38
S'\x00\x00\x00\x00\x00\x00\x18@'
tRp452
sg52
g53
sg23
S'1'
sg18
F154.24361399328336
sg33
g34
sg51
g11
sg20
S'1'
sg65
g36
(g77
S'\x00\x00\x00\x00\x00\x00\x00\x00'
tRp453
sg44
g45
sg40
g41
sg25
F0.24074301449581981
sS'trials.thisIndex'
p454
g36
(g80
S'%\x00\x00\x00'
tRp455
sg26
V5
sS'trials.thisRepN'
p456
I0
sg66
Vhammer
p457
sg63
V../experiment_stimuli/bw_bc_bl/Nonliving_Things/Tools/hammer_18.jpg
p458
sg21
F0.2507782094180584
sS'trials.thisTrialN'
p459
I33
sa(dp460
g31
g32
sg17
F156.49446986289695
sg24
I0
sg35
g39
sg14
F156.48859189450741
sg16
g36
(g70
S'\x02\x00\x00\x00'
tRp461
sg42
g43
sg46
g47
sg15
g72
sg22
F160.58817412564531
sg64
g73
sg62
g74
sg49
g50
sS'trials.thisN'
p462
I34
sg19
I1
sg27
g36
(g38
S'\x00\x00\x00\x00\x00\x00\x1a@'
tRp463
sg52
g53
sg23
S'3'
sg18
F157.77128230640665
sg33
g34
sg51
g11
sg20
S'2'
sg65
g36
(g77
S'\x00\x00\x00\x00\x00\x00\x00\x00'
tRp464
sg44
g45
sg40
g41
sg25
F0.23071830486878753
sS'trials.thisIndex'
p465
g36
(g80
S'\x0f\x00\x00\x00'
tRp466
sg26
V5
sS'trials.thisRepN'
p467
I0
sg66
Vchair
p468
sg63
V../experiment_stimuli/bw_bc_bl/Nonliving_Things/Furniture/chair_18.jpg
p469
sg21
F2.7963325353339314
sS'trials.thisTrialN'
p470
I34
sa(dp471
g31
g32
sg17
F162.55669818166643
sg24
I0
sg35
g39
sg14
F162.5517761730589
sg16
g36
(g70
S'\x01\x00\x00\x00'
tRp472
sg42
g43
sg46
g47
sg15
g88
sg22
F166.38083818461746
sg64
g89
sg62
g74
sg49
g50
sS'trials.thisN'
p473
I35
sg19
I0
sg27
g36
(g38
S'\x00\x00\x00\x00\x00\x00\x1a@'
tRp474
sg52
g53
sg23
S'3'
sg18
F163.81441778922454
sg33
g34
sg51
g11
sg20
S'2'
sg65
g36
(g77
S'\x00\x00\x00\x00\x00\x00\x00\x00'
tRp475
sg44
g45
sg40
g41
sg25
F0.39106756495311856
sS'trials.thisIndex'
p476
g36
(g80
S'L\x00\x00\x00'
tRp477
sg26
V5
sS'trials.thisRepN'
p478
I0
sg66
Vship
p479
sg63
V../experiment_stimuli/bw_bc_bl/Nonliving_Things/Vehicles/ship_15.jpg
p480
sg21
F2.5458511710166931
sS'trials.thisTrialN'
p481
I35
sa(dp482
g31
g32
sg17
F168.50954542774707
sg24
I0
sg35
g39
sg14
F168.5047105117701
sg16
g36
(g70
S'\x01\x00\x00\x00'
tRp483
sg42
g43
sg46
g47
sg15
g88
sg22
F170.74022636841983
sg64
g89
sg62
g74
sg49
g50
sS'trials.thisN'
p484
I36
sg19
I0
sg27
g36
(g38
S'\x00\x00\x00\x00\x00\x00\x1e@'
tRp485
sg52
g53
sg23
S'2'
sg18
F169.73730106232688
sg33
g34
sg51
g11
sg20
S'2'
sg65
g36
(g77
S'\x00\x00\x00\x00\x00\x00\x00\x00'
tRp486
sg44
g45
sg40
g41
sg25
F0.56144066620618105
sS'trials.thisIndex'
p487
g36
(g80
S'\x07\x00\x00\x00'
tRp488
sg26
V5
sS'trials.thisRepN'
p489
I0
sg66
Vboat
p490
sg63
V../experiment_stimuli/bw_bc_bl/Nonliving_Things/Vehicles/boat_11.jpg
p491
sg21
F0.98235708894208074
sS'trials.thisTrialN'
p492
I36
sa(dp493
g31
g32
sg17
F173.03939591441303
sg24
I1
sg35
g39
sg14
F173.03456461150199
sg16
g36
(g70
S'\x01\x00\x00\x00'
tRp494
sg42
g43
sg46
g47
sg15
g88
sg22
F174.99930207105353
sg64
g73
sg62
g74
sg49
g50
sS'trials.thisN'
p495
I37
sg19
I1
sg27
g36
(g38
S'\x00\x00\x00\x00\x00\x00\x1a@'
tRp496
sg52
g53
sg23
S'1'
sg18
F174.26714634615928
sg33
g34
sg51
g11
sg20
S'1'
sg65
g36
(g77
S'\x00\x00\x00\x00\x00\x00\x00\x00'
tRp497
sg44
g45
sg40
g41
sg25
F0.22072985395789146
sS'trials.thisIndex'
p498
g36
(g80
S'N\x00\x00\x00'
tRp499
sg26
V5
sS'trials.thisRepN'
p500
I0
sg66
Vsofa
p501
sg63
V../experiment_stimuli/bw_bc_bl/Nonliving_Things/Furniture/sofa_1.jpg
p502
sg21
F0.7116137258708477
sS'trials.thisTrialN'
p503
I37
sa(dp504
g31
g32
sg17
F176.95803311327472
sg24
I1
sg35
g39
sg14
F176.95309543935582
sg16
g36
(g70
S'\x01\x00\x00\x00'
tRp505
sg42
g43
sg46
g47
sg15
g72
sg22
F178.55721999984235
sg64
g262
sg62
g113
sg49
g50
sS'trials.thisN'
p506
I38
sg19
I1
sg27
g36
(g38
S'\x00\x00\x00\x00\x00\x00\x1c@'
tRp507
sg52
g53
sg23
S'1'
sg18
F178.19568940671161
sg33
g34
sg51
g11
sg20
S'1'
sg65
g36
(g77
S'\x00\x00\x00\x00\x00\x00\x00\x00'
tRp508
sg44
g45
sg40
g41
sg25
F0.26078509585931897
sS'trials.thisIndex'
p509
g36
(g80
S'\x17\x00\x00\x00'
tRp510
sg26
V5
sS'trials.thisRepN'
p511
I0
sg66
Vdolphin
p512
sg63
V../experiment_stimuli/bw_bc_bl/Living_Things/Marine_creatures/dolphin_3.jpg
p513
sg21
F0.34097493207082152
sS'trials.thisTrialN'
p514
I38
sa(dp515
g31
g32
sg17
F180.55577113712206
sg24
I0
sg35
g39
sg14
F180.55097153643146
sg16
g36
(g70
S'\x01\x00\x00\x00'
tRp516
sg42
g43
sg46
g47
sg15
g88
sg22
F184.53005992947146
sg64
g227
sg62
g74
sg49
g50
sS'trials.thisN'
p517
I39
sg19
I1
sg27
g36
(g38
S'\x00\x00\x00\x00\x00\x00\x18@'
tRp518
sg52
g53
sg23
S'3'
sg18
F181.81355765368789
sg33
g34
sg51
g11
sg20
S'1'
sg65
g36
(g77
S'\x00\x00\x00\x00\x00\x00\x00\x00'
tRp519
sg44
g45
sg40
g41
sg25
F0.27080892212688923
sS'trials.thisIndex'
p520
g36
(g80
S'\x19\x00\x00\x00'
tRp521
sg26
V5
sS'trials.thisRepN'
p522
I0
sg66
Vdrum
p523
sg63
V../experiment_stimuli/bw_bc_bl/Nonliving_Things/Musical_Inst/drum_14.jpg
p524
sg21
F2.6959226010367274
sS'trials.thisTrialN'
p525
I39
sa(dp526
g31
g32
sg17
F186.5387610681355
sg24
I0
sg35
g39
sg14
F186.53392518591136
sg16
g36
(g70
S'\x01\x00\x00\x00'
tRp527
sg42
g43
sg46
g47
sg15
g88
sg22
F188.88950255233794
sg64
g193
sg62
g74
sg49
g50
sS'trials.thisN'
p528
I40
sg19
I1
sg27
g36
(g38
S'\x00\x00\x00\x00\x00\x00\x18@'
tRp529
sg52
g53
sg23
S'2'
sg18
F187.77652060473338
sg33
g34
sg51
g11
sg20
S'1'
sg65
g36
(g77
S'\x00\x00\x00\x00\x00\x00\x00\x00'
tRp530
sg44
g45
sg40
g41
sg25
F0.65163661120459437
sS'trials.thisIndex'
p531
g36
(g80
S'\x1f\x00\x00\x00'
tRp532
sg26
V5
sS'trials.thisRepN'
p533
I0
sg66
Vfrying-pan
p534
sg63
V../experiment_stimuli/bw_bc_bl/Nonliving_Things/Kitchen_Uten/frying-pan_9.jpg
p535
sg21
F1.0924427909776568
sS'trials.thisTrialN'
p536
I40
sa(dp537
g31
g32
sg17
F191.28017975389957
sg24
I1
sg35
g39
sg14
F191.27421962516382
sg16
g36
(g70
S'\x01\x00\x00\x00'
tRp538
sg42
g43
sg46
g47
sg15
g88
sg22
F192.74806513404474
sg64
g137
sg62
g74
sg49
g50
sS'trials.thisN'
p539
I41
sg19
I1
sg27
g36
(g38
S'\x00\x00\x00\x00\x00\x00\x18@'
tRp540
sg52
g53
sg23
S'1'
sg18
F192.50679552135989
sg33
g34
sg51
g11
sg20
S'1'
sg65
g36
(g77
S'\x00\x00\x00\x00\x00\x00\x00\x00'
tRp541
sg44
g45
sg40
g41
sg25
F0.21068053552880883
sS'trials.thisIndex'
p542
g36
(g80
S'\x0e\x00\x00\x00'
tRp543
sg26
V5
sS'trials.thisRepN'
p544
I0
sg66
Vcathedral
p545
sg63
V../experiment_stimuli/bw_bc_bl/Nonliving_Things/Buildings/cathedral_23.jpg
p546
sg21
F0.2207206548191607
sS'trials.thisTrialN'
p547
I41
sa(dp548
g31
g32
sg17
F194.69883052678779
sg24
I0
sg35
g39
sg14
F194.69164458476007
sg16
g36
(g70
S'\x01\x00\x00\x00'
tRp549
sg42
g43
sg46
g47
sg15
g88
sg22
F196.94719256740063
sg64
g227
sg62
g74
sg49
g50
sS'trials.thisN'
p550
I42
sg19
I1
sg27
g36
(g38
S'\x00\x00\x00\x00\x00\x00\x18@'
tRp551
sg52
g53
sg23
S'3'
sg18
F195.95429454278201
sg33
g34
sg51
g11
sg20
S'1'
sg65
g36
(g77
S'\x00\x00\x00\x00\x00\x00\x00\x00'
tRp552
sg44
g45
sg40
g41
sg25
F0.25061277905479074
sS'trials.thisIndex'
p553
g36
(g80
S'X\x00\x00\x00'
tRp554
sg26
V5
sS'trials.thisRepN'
p555
I0
sg66
Vtrumpet
p556
sg63
V../experiment_stimuli/bw_bc_bl/Nonliving_Things/Musical_Inst/trumpet_10.jpg
p557
sg21
F0.97234488325193524
sS'trials.thisTrialN'
p558
I42
sa(dp559
g31
g32
sg17
F198.935742971953
sg24
I1
sg35
g39
sg14
F198.93085689889267
sg16
g36
(g70
S'\x02\x00\x00\x00'
tRp560
sg42
g43
sg46
g47
sg15
g72
sg22
F200.3646059515886
sg64
g89
sg62
g74
sg49
g50
sS'trials.thisN'
p561
I43
sg19
I1
sg27
g36
(g38
S'\x00\x00\x00\x00\x00\x00\x1a@'
tRp562
sg52
g53
sg23
S'1'
sg18
F200.16344196069986
sg33
g34
sg51
g11
sg20
S'2'
sg65
g36
(g77
S'\x00\x00\x00\x00\x00\x00\x00\x00'
tRp563
sg44
g45
sg40
g41
sg25
F0.16058273008093238
sS'trials.thisIndex'
p564
g36
(g80
S'\x0b\x00\x00\x00'
tRp565
sg26
V5
sS'trials.thisRepN'
p566
I0
sg66
Vcar
p567
sg63
V../experiment_stimuli/bw_bc_bl/Nonliving_Things/Vehicles/car_14.jpg
p568
sg21
F0.18061541672796011
sS'trials.thisTrialN'
p569
I43
sa(dp570
g31
g32
sg17
F202.26300741452724
sg24
I0
sg35
g39
sg14
F202.25809622509405
sg16
g36
(g70
S'\x02\x00\x00\x00'
tRp571
sg42
g43
sg46
g47
sg15
g72
sg22
F212.48096071276814
sg64
g227
sg62
g74
sg49
g50
sS'trials.thisN'
p572
I44
sg19
I1
sg27
g36
(g38
S'\x00\x00\x00\x00\x00\x00\x18@'
tRp573
sg52
g53
sg23
S'3'
sg18
F203.51072218408808
sg33
g34
sg51
g11
sg20
S'2'
sg65
g36
(g77
S'\x00\x00\x00\x00\x00\x00\x00\x00'
tRp574
sg44
g45
sg40
g41
sg25
F0.51133304135873914
sS'trials.thisIndex'
p575
g36
(g80
S'H\x00\x00\x00'
tRp576
sg26
V5
sS'trials.thisRepN'
p577
I0
sg66
Vsaxophone
p578
sg63
V../experiment_stimuli/bw_bc_bl/Nonliving_Things/Musical_Inst/saxophone_14.jpg
p579
sg21
F8.9496835749596357
sS'trials.thisTrialN'
p580
I44
sa(dp581
g31
g32
sg17
F214.73112552473322
sg24
I1
sg35
g39
sg14
F214.72519882768393
sg16
g36
(g70
S'\x01\x00\x00\x00'
tRp582
sg42
g43
sg46
g47
sg15
g88
sg22
F216.28922937205061
sg64
g227
sg62
g74
sg49
g50
sS'trials.thisN'
p583
I45
sg19
I1
sg27
g36
(g38
S'\x00\x00\x00\x00\x00\x00\x18@'
tRp584
sg52
g53
sg23
S'1'
sg18
F215.95778051344678
sg33
g34
sg51
g11
sg20
S'1'
sg65
g36
(g77
S'\x00\x00\x00\x00\x00\x00\x00\x00'
tRp585
sg44
g45
sg40
g41
sg25
F0.22054613148793578
sS'trials.thisIndex'
p586
g36
(g80
S'>\x00\x00\x00'
tRp587
sg26
V5
sS'trials.thisRepN'
p588
I0
sg66
Vpiano
p589
sg63
V../experiment_stimuli/bw_bc_bl/Nonliving_Things/Musical_Inst/piano__6.jpg
p590
sg21
F0.31090723117813468
sS'trials.thisTrialN'
p591
I45
sa(dp592
g31
g32
sg17
F218.24772017681971
sg24
I1
sg35
g39
sg14
F218.24284846847877
sg16
g36
(g70
S'\x01\x00\x00\x00'
tRp593
sg42
g43
sg46
g47
sg15
g72
sg22
F219.81691872235388
sg64
g125
sg62
g113
sg49
g50
sS'trials.thisN'
p594
I46
sg19
I0
sg27
g36
(g38
S'\x00\x00\x00\x00\x00\x00\x1e@'
tRp595
sg52
g53
sg23
S'1'
sg18
F219.50549309235066
sg33
g34
sg51
g11
sg20
S'2'
sg65
g36
(g77
S'\x00\x00\x00\x00\x00\x00\x00\x00'
tRp596
sg44
g45
sg40
g41
sg25
F0.1705939550884068
sS'trials.thisIndex'
p597
g36
(g80
S'0\x00\x00\x00'
tRp598
sg26
V5
sS'trials.thisRepN'
p599
I0
sg66
Vlioness
p600
sg63
V../experiment_stimuli/bw_bc_bl/Living_Things/Animals/lioness_17.jpg
p601
sg21
F0.29086232697591186
sS'trials.thisTrialN'
p602
I46
sa(dp603
g31
g32
sg17
F221.72517145378515
sg24
I0
sg35
g39
sg14
F221.7204163596034
sg16
g36
(g70
S'\x01\x00\x00\x00'
tRp604
sg42
g43
sg46
g47
sg15
g88
sg22
F227.29318991769105
sg64
g193
sg62
g74
sg49
g50
sS'trials.thisN'
p605
I47
sg19
I1
sg27
g36
(g38
S'\x00\x00\x00\x00\x00\x00\x1a@'
tRp606
sg52
g53
sg23
S'3'
sg18
F222.99307306949049
sg33
g34
sg51
g11
sg20
S'1'
sg65
g36
(g77
S'\x00\x00\x00\x00\x00\x00\x00\x00'
tRp607
sg44
g45
sg40
g41
sg25
F0.35098646953701973
sS'trials.thisIndex'
p608
g36
(g80
S'\x12\x00\x00\x00'
tRp609
sg26
V5
sS'trials.thisRepN'
p610
I0
sg66
Vcoking-pot
p611
sg63
V../experiment_stimuli/bw_bc_bl/Nonliving_Things/Kitchen_Uten/coking-pot_0.jpg
p612
sg21
F4.2795348158106208
sS'trials.thisTrialN'
p613
I47
sa(dp614
g31
g32
sg17
F229.38189739501104
sg24
I1
sg35
g39
sg14
F229.3770558219403
sg16
g36
(g70
S'\x02\x00\x00\x00'
tRp615
sg42
g43
sg46
g47
sg15
g88
sg22
F230.77071370836347
sg64
g112
sg62
g113
sg49
g50
sS'trials.thisN'
p616
I48
sg19
I1
sg27
g36
(g38
S'\x00\x00\x00\x00\x00\x00\x18@'
tRp617
sg52
g53
sg23
S'1'
sg18
F230.62968541961163
sg33
g34
sg51
g11
sg20
S'2'
sg65
g36
(g77
S'\x00\x00\x00\x00\x00\x00\x00\x00'
tRp618
sg44
g45
sg40
g41
sg25
F0.16041536442935467
sS'trials.thisIndex'
p619
g36
(g80
S'C\x00\x00\x00'
tRp620
sg26
V5
sS'trials.thisRepN'
p621
I0
sg66
Vraven
p622
sg63
V../experiment_stimuli/bw_bc_bl/Living_Things/Birds/raven_20.jpg
p623
sg21
F0.12048835353925824
sS'trials.thisTrialN'
p624
I48
sa(dp625
g31
g32
sg17
F232.66903587104753
sg24
I0
sg35
g39
sg14
F232.66419716598466
sg16
g36
(g70
S'\x01\x00\x00\x00'
tRp626
sg42
g43
sg46
g47
sg15
g88
sg22
F239.26929215341806
sg64
g73
sg62
g74
sg49
g50
sS'trials.thisN'
p627
I49
sg19
I1
sg27
g36
(g38
S'\x00\x00\x00\x00\x00\x00\x1a@'
tRp628
sg52
g53
sg23
S'2'
sg18
F233.95690916711465
sg33
g34
sg51
g11
sg20
S'1'
sg65
g36
(g77
S'\x00\x00\x00\x00\x00\x00\x00\x00'
tRp629
sg44
g45
sg40
g41
sg25
F0.55142409540712833
sS'trials.thisIndex'
p630
g36
(g80
S'/\x00\x00\x00'
tRp631
sg26
V5
sS'trials.thisRepN'
p632
I0
sg66
Vlectern
p633
sg63
V../experiment_stimuli/bw_bc_bl/Nonliving_Things/Furniture/lectern_23.jpg
p634
sg21
F5.2918350398540497
sS'trials.thisTrialN'
p635
I49
sa(dp636
g31
g32
sg17
F241.55833301413804
sg24
I0
sg35
g39
sg14
F241.5535204289481
sg16
g36
(g70
S'\x01\x00\x00\x00'
tRp637
sg42
g43
sg46
g47
sg15
g72
sg22
F243.5585368075408
sg64
g112
sg62
g113
sg49
g50
sS'trials.thisN'
p638
I50
sg19
I1
sg27
g36
(g38
S'\x00\x00\x00\x00\x00\x00\x1a@'
tRp639
sg52
g53
sg23
S'2'
sg18
F242.82620526198298
sg33
g34
sg51
g11
sg20
S'1'
sg65
g36
(g77
S'\x00\x00\x00\x00\x00\x00\x00\x00'
tRp640
sg44
g45
sg40
g41
sg25
F0.34081007726490498
sS'trials.thisIndex'
p641
g36
(g80
S'\x1a\x00\x00\x00'
tRp642
sg26
V5
sS'trials.thisRepN'
p643
I0
sg66
Vduck
p644
sg63
V../experiment_stimuli/bw_bc_bl/Living_Things/Birds/duck_15.jpg
p645
sg21
F0.71177976112812757
sS'trials.thisTrialN'
p646
I50
sa(dp647
g31
g32
sg17
F245.63725445093587
sg24
I0
sg35
g39
sg14
F245.63239262579009
sg16
g36
(g70
S'\x02\x00\x00\x00'
tRp648
sg42
g43
sg46
g47
sg15
g88
sg22
F247.47705469233915
sg64
g125
sg62
g113
sg49
g50
sS'trials.thisN'
p649
I51
sg19
I1
sg27
g36
(g38
S'\x00\x00\x00\x00\x00\x00\x18@'
tRp650
sg52
g53
sg23
S'2'
sg18
F246.90505801979452
sg33
g34
sg51
g11
sg20
S'2'
sg65
g36
(g77
S'\x00\x00\x00\x00\x00\x00\x00\x00'
tRp651
sg44
g45
sg40
g41
sg25
F0.23072258289903402
sS'trials.thisIndex'
p652
g36
(g80
S'\x01\x00\x00\x00'
tRp653
sg26
V5
sS'trials.thisRepN'
p654
I0
sg66
Varmadillo
p655
sg63
V../experiment_stimuli/bw_bc_bl/Living_Things/Animals/armadillo_24.jpg
p656
sg21
F0.55142745235934854
sS'trials.thisTrialN'
p657
I51
sa(dp658
g31
g32
sg17
F249.44545059977099
sg24
I0
sg35
g39
sg14
F249.4406696758233
sg16
g36
(g70
S'\x02\x00\x00\x00'
tRp659
sg42
g43
sg46
g47
sg15
g88
sg22
F251.10492437100038
sg64
g112
sg62
g113
sg49
g50
sS'trials.thisN'
p660
I52
sg19
I1
sg27
g36
(g38
S'\x00\x00\x00\x00\x00\x00\x18@'
tRp661
sg52
g53
sg23
S'2'
sg18
F250.69329622853547
sg33
g34
sg51
g11
sg20
S'2'
sg65
g36
(g77
S'\x00\x00\x00\x00\x00\x00\x00\x00'
tRp662
sg44
g45
sg40
g41
sg25
F0.24076230358332396
sS'trials.thisIndex'
p663
g36
(g80
S'8\x00\x00\x00'
tRp664
sg26
V5
sS'trials.thisRepN'
p665
I0
sg66
Vostrich
p666
sg63
V../experiment_stimuli/bw_bc_bl/Living_Things/Birds/ostrich_2.jpg
p667
sg21
F0.39108297834172845
sS'trials.thisTrialN'
p668
I52
sa(dp669
g31
g32
sg17
F253.08341704774648
sg24
I0
sg35
g39
sg14
F253.07859227433801
sg16
g36
(g70
S'\x01\x00\x00\x00'
tRp670
sg42
g43
sg46
g47
sg15
g72
sg22
F254.61287155700848
sg64
g112
sg62
g113
sg49
g50
sS'trials.thisN'
p671
I53
sg19
I1
sg27
g36
(g38
S'\x00\x00\x00\x00\x00\x00\x1c@'
tRp672
sg52
g53
sg23
S'2'
sg18
F254.33120587281883
sg33
g34
sg51
g11
sg20
S'1'
sg65
g36
(g77
S'\x00\x00\x00\x00\x00\x00\x00\x00'
tRp673
sg44
g45
sg40
g41
sg25
F0.14052808890119195
sS'trials.thisIndex'
p674
g36
(g80
S'U\x00\x00\x00'
tRp675
sg26
V5
sS'trials.thisRepN'
p676
I0
sg66
Vtoucan
p677
sg63
V../experiment_stimuli/bw_bc_bl/Living_Things/Birds/toucan_0.jpg
p678
sg21
F0.26108403131365776
sS'trials.thisTrialN'
p679
I53
sa(dp680
g31
g32
sg17
F256.4908526991494
sg24
I1
sg35
g39
sg14
F256.48598169721663
sg16
g36
(g70
S'\x01\x00\x00\x00'
tRp681
sg42
g43
sg46
g47
sg15
g72
sg22
F257.97985375765711
sg64
g125
sg62
g113
sg49
g50
sS'trials.thisN'
p682
I54
sg19
I1
sg27
g36
(g38
S'\x00\x00\x00\x00\x00\x00\x1a@'
tRp683
sg52
g53
sg23
S'1'
sg18
F257.71857112739235
sg33
g34
sg51
g11
sg20
S'1'
sg65
g36
(g77
S'\x00\x00\x00\x00\x00\x00\x00\x00'
tRp684
sg44
g45
sg40
g41
sg25
F0.15056361397728324
sS'trials.thisIndex'
p685
g36
(g80
S'\x10\x00\x00\x00'
tRp686
sg26
V5
sS'trials.thisRepN'
p687
I0
sg66
Vcheetah
p688
sg63
V../experiment_stimuli/bw_bc_bl/Living_Things/Animals/cheetah_4.jpg
p689
sg21
F0.24074866482988
sS'trials.thisTrialN'
p690
I54
sa(dp691
g31
g32
sg17
F259.86802022019401
sg24
I0
sg35
g39
sg14
F259.8633299600333
sg16
g36
(g70
S'\x01\x00\x00\x00'
tRp692
sg42
g43
sg46
g47
sg15
g88
sg22
F263.13109644269571
sg64
g193
sg62
g74
sg49
g50
sS'trials.thisN'
p693
I55
sg19
I0
sg27
g36
(g38
S'\x00\x00\x00\x00\x00\x00\x18@'
tRp694
sg52
g53
sg23
S'3'
sg18
F261.13600444002077
sg33
g34
sg51
g11
sg20
S'2'
sg65
g36
(g77
S'\x00\x00\x00\x00\x00\x00\x00\x00'
tRp695
sg44
g45
sg40
g41
sg25
F0.42114082584157586
sS'trials.thisIndex'
p696
g36
(g80
S'G\x00\x00\x00'
tRp697
sg26
V5
sS'trials.thisRepN'
p698
I0
sg66
Vsaucepan
p699
sg63
V../experiment_stimuli/bw_bc_bl/Nonliving_Things/Kitchen_Uten/saucepan_15.jpg
p700
sg21
F1.9745294512249529
sS'trials.thisTrialN'
p701
I55
sa(dp702
g31
g32
sg17
F265.28988565690815
sg24
I0
sg35
g39
sg14
F265.28512065019459
sg16
g36
(g70
S'\x01\x00\x00\x00'
tRp703
sg42
g43
sg46
g47
sg15
g88
sg22
F269.78554938128218
sg64
g89
sg62
g74
sg49
g50
sS'trials.thisN'
p704
I56
sg19
I1
sg27
g36
(g38
S'\x00\x00\x00\x00\x00\x00\x18@'
tRp705
sg52
g53
sg23
S'2'
sg18
F266.53774524433538
sg33
g34
sg51
g11
sg20
S'1'
sg65
g36
(g77
S'\x00\x00\x00\x00\x00\x00\x00\x00'
tRp706
sg44
g45
sg40
g41
sg25
F0.12048588367179036
sS'trials.thisIndex'
p707
g36
(g80
S'\t\x00\x00\x00'
tRp708
sg26
V5
sS'trials.thisRepN'
p709
I0
sg66
Vbus
p710
sg63
V../experiment_stimuli/bw_bc_bl/Nonliving_Things/Vehicles/bus_21.jpg
p711
sg21
F3.2272460367530584
sS'trials.thisTrialN'
p712
I56
sa(dp713
g31
g32
sg17
F271.64364673336968
sg24
I1
sg35
g39
sg14
F271.63893598876894
sg16
g36
(g70
S'\x01\x00\x00\x00'
tRp714
sg42
g43
sg46
g47
sg15
g88
sg22
F273.02259452175349
sg64
g137
sg62
g74
sg49
g50
sS'trials.thisN'
p715
I57
sg19
I1
sg27
g36
(g38
S'\x00\x00\x00\x00\x00\x00\x18@'
tRp716
sg52
g53
sg23
S'1'
sg18
F272.87151521584019
sg33
g34
sg51
g11
sg20
S'1'
sg65
g36
(g77
S'\x00\x00\x00\x00\x00\x00\x00\x00'
tRp717
sg44
g45
sg40
g41
sg25
F0.25076199509203434
sS'trials.thisIndex'
p718
g36
(g80
S')\x00\x00\x00'
tRp719
sg26
V5
sS'trials.thisRepN'
p720
I0
sg66
Vhouse
p721
sg63
V../experiment_stimuli/bw_bc_bl/Nonliving_Things/Buildings/house_22.jpg
p722
sg21
F0.13052915688604116
sS'trials.thisTrialN'
p723
I57
sa(dp724
g31
g32
sg17
F275.0110430107452
sg24
I1
sg35
g39
sg14
F275.00624673720449
sg16
g36
(g70
S'\x02\x00\x00\x00'
tRp725
sg42
g43
sg46
g47
sg15
g72
sg22
F276.33978445827961
sg64
g227
sg62
g74
sg49
g50
sS'trials.thisN'
p726
I58
sg19
I0
sg27
g36
(g38
S'\x00\x00\x00\x00\x00\x00\x18@'
tRp727
sg52
g53
sg23
S'1'
sg18
F276.24885323410854
sg33
g34
sg51
g11
sg20
S'1'
sg65
g36
(g77
S'\x00\x00\x00\x00\x00\x00\x00\x00'
tRp728
sg44
g45
sg40
g41
sg25
F0.1605875575914979
sS'trials.thisIndex'
p729
g36
(g80
S'\\\x00\x00\x00'
tRp730
sg26
V5
sS'trials.thisRepN'
p731
I0
sg66
Vviolin
p732
sg63
V../experiment_stimuli/bw_bc_bl/Nonliving_Things/Musical_Inst/violin_8.jpg
p733
sg21
F0.070365198887884617
sS'trials.thisTrialN'
p734
I58
sa(dp735
g31
g32
sg17
F278.23804701305926
sg24
I0
sg35
g39
sg14
F278.23326721275225
sg16
g36
(g70
S'\x02\x00\x00\x00'
tRp736
sg42
g43
sg46
g47
sg15
g88
sg22
F281.79164395062253
sg64
g112
sg62
g113
sg49
g50
sS'trials.thisN'
p737
I59
sg19
I1
sg27
g36
(g38
S'\x00\x00\x00\x00\x00\x00\x18@'
tRp738
sg52
g53
sg23
S'3'
sg18
F279.48589363414794
sg33
g34
sg51
g11
sg20
S'2'
sg65
g36
(g77
S'\x00\x00\x00\x00\x00\x00\x00\x00'
tRp739
sg44
g45
sg40
g41
sg25
F0.40111316880211234
sS'trials.thisIndex'
p740
g36
(g80
S'J\x00\x00\x00'
tRp741
sg26
V5
sS'trials.thisRepN'
p742
I0
sg66
Vseagull
p743
sg63
V../experiment_stimuli/bw_bc_bl/Living_Things/Birds/seagull_19.jpg
p744
sg21
F2.285202186089009
sS'trials.thisTrialN'
p745
I59
sa(dp746
g31
g32
sg17
F283.93050238676369
sg24
I1
sg35
g39
sg14
F283.92565110279247
sg16
g36
(g70
S'\x01\x00\x00\x00'
tRp747
sg42
g43
sg46
g47
sg15
g88
sg22
F285.17901523550972
sg64
g227
sg62
g74
sg49
g50
sS'trials.thisN'
p748
I60
sg19
I1
sg27
g36
(g38
S'\x00\x00\x00\x00\x00\x00\x18@'
tRp749
sg52
g53
sg23
S'1'
sg18
F285.15822533797473
sg33
g34
sg51
g11
sg20
S'1'
sg65
g36
(g77
S'\x00\x00\x00\x00\x00\x00\x00\x00'
tRp750
sg44
g45
sg40
g41
sg25
F0.25060651218518615
sS'trials.thisIndex'
p751
g36
(g80
S'Y\x00\x00\x00'
tRp752
sg26
V5
sS'trials.thisRepN'
p753
I0
sg66
Vtuba
p754
sg63
V../experiment_stimuli/bw_bc_bl/Nonliving_Things/Musical_Inst/tuba_19.jpg
p755
sg21
F0.0002499707043170929
sS'trials.thisTrialN'
p756
I60
sa(dp757
g31
g32
sg17
F287.16753756534308
sg24
I0
sg35
g39
sg14
F287.16267540166155
sg16
g36
(g70
S'\x02\x00\x00\x00'
tRp758
sg42
g43
sg46
g47
sg15
g72
sg22
F289.56853982945904
sg64
g137
sg62
g74
sg49
g50
sS'trials.thisN'
p759
I61
sg19
I1
sg27
g36
(g38
S'\x00\x00\x00\x00\x00\x00\x18@'
tRp760
sg52
g53
sg23
S'2'
sg18
F288.42532528890297
sg33
g34
sg51
g11
sg20
S'2'
sg65
g36
(g77
S'\x00\x00\x00\x00\x00\x00\x00\x00'
tRp761
sg44
g45
sg40
g41
sg25
F0.32091774977743626
sS'trials.thisIndex'
p762
g36
(g80
S'\x11\x00\x00\x00'
tRp763
sg26
V5
sS'trials.thisRepN'
p764
I0
sg66
Vchurch
p765
sg63
V../experiment_stimuli/bw_bc_bl/Nonliving_Things/Buildings/church_22.jpg
p766
sg21
F1.1226661736145616
sS'trials.thisTrialN'
p767
I61
sa(dp768
g31
g32
sg17
F291.62720308732241
sg24
I0
sg35
g39
sg14
F291.62238118983805
sg16
g36
(g70
S'\x02\x00\x00\x00'
tRp769
sg42
g43
sg46
g47
sg15
g88
sg22
F295.40122211258858
sg64
g125
sg62
g113
sg49
g50
sS'trials.thisN'
p770
I62
sg19
I1
sg27
g36
(g38
S'\x00\x00\x00\x00\x00\x00\x18@'
tRp771
sg52
g53
sg23
S'2'
sg18
F292.87499868310988
sg33
g34
sg51
g11
sg20
S'2'
sg65
g36
(g77
S'\x00\x00\x00\x00\x00\x00\x00\x00'
tRp772
sg44
g45
sg40
g41
sg25
F0.23071782384067774
sS'trials.thisIndex'
p773
g36
(g80
S'_\x00\x00\x00'
tRp774
sg26
V5
sS'trials.thisRepN'
p775
I0
sg66
Vzebra
p776
sg63
V../experiment_stimuli/bw_bc_bl/Living_Things/Animals/zebra_20.jpg
p777
sg21
F2.5056697241961956
sS'trials.thisTrialN'
p778
I62
sa(dp779
g31
g32
sg17
F297.36971446592361
sg24
I1
sg35
g39
sg14
F297.36485838470981
sg16
g36
(g70
S'\x02\x00\x00\x00'
tRp780
sg42
g43
sg46
g47
sg15
g88
sg22
F299.15942107141018
sg64
g125
sg62
g113
sg49
g50
sS'trials.thisN'
p781
I63
sg19
I0
sg27
g36
(g38
S'\x00\x00\x00\x00\x00\x00\x1c@'
tRp782
sg52
g53
sg23
S'1'
sg18
F298.60747697204351
sg33
g34
sg51
g11
sg20
S'1'
sg65
g36
(g77
S'\x00\x00\x00\x00\x00\x00\x00\x00'
tRp783
sg44
g45
sg40
g41
sg25
F0.23072162782773376
sS'trials.thisIndex'
p784
g36
(g80
S'T\x00\x00\x00'
tRp785
sg26
V5
sS'trials.thisRepN'
p786
I0
sg66
Vtiger
p787
sg63
V../experiment_stimuli/bw_bc_bl/Living_Things/Animals/tiger_3.jpg
p788
sg21
F0.53140478767454624
sS'trials.thisTrialN'
p789
I63
sa(dp790
g31
g32
sg17
F301.13040059944615
sg24
I0
sg35
g39
sg14
F301.12304831761867
sg16
g36
(g70
S'\x02\x00\x00\x00'
tRp791
sg42
g43
sg46
g47
sg15
g88
sg22
F304.82170060323551
sg64
g125
sg62
g113
sg49
g50
sS'trials.thisN'
p792
I64
sg19
I1
sg27
g36
(g38
S'\x00\x00\x00\x00\x00\x00\x18@'
tRp793
sg52
g53
sg23
S'2'
sg18
F302.37565977685153
sg33
g34
sg51
g11
sg20
S'2'
sg65
g36
(g77
S'\x00\x00\x00\x00\x00\x00\x00\x00'
tRp794
sg44
g45
sg40
g41
sg25
F0.24075574334710836
sS'trials.thisIndex'
p795
g36
(g80
S"'\x00\x00\x00"
tRp796
sg26
V5
sS'trials.thisRepN'
p797
I0
sg66
Vhippopotamus
p798
sg63
V../experiment_stimuli/bw_bc_bl/Living_Things/Animals/hippopotamus_15.jpg
p799
sg21
F2.4254979812540114
sS'trials.thisTrialN'
p800
I64
sa(dp801
g31
g32
sg17
F306.80275147967041
sg24
I1
sg35
g39
sg14
F306.7953566792421
sg16
g36
(g70
S'\x02\x00\x00\x00'
tRp802
sg42
g43
sg46
g47
sg15
g88
sg22
F308.83042153390124
sg64
g262
sg62
g113
sg49
g50
sS'trials.thisN'
p803
I65
sg19
I0
sg27
g36
(g38
S'\x00\x00\x00\x00\x00\x00\x1c@'
tRp804
sg52
g53
sg23
S'1'
sg18
F308.03796486463398
sg33
g34
sg51
g11
sg20
S'1'
sg65
g36
(g77
S'\x00\x00\x00\x00\x00\x00\x00\x00'
tRp805
sg44
g45
sg40
g41
sg25
F0.3108975812792778
sS'trials.thisIndex'
p806
g36
(g80
S'K\x00\x00\x00'
tRp807
sg26
V5
sS'trials.thisRepN'
p808
I0
sg66
Vshark
p809
sg63
V../experiment_stimuli/bw_bc_bl/Living_Things/Marine_creatures/shark_2.jpg
p810
sg21
F0.76187781058251858
sS'trials.thisTrialN'
p811
I65
sa(dp812
g31
g32
sg17
F310.87895265873522
sg24
I0
sg35
g39
sg14
F310.8742207637988
sg16
g36
(g70
S'\x01\x00\x00\x00'
tRp813
sg42
g43
sg46
g47
sg15
g72
sg22
F316.196449120529
sg64
g125
sg62
g113
sg49
g50
sS'trials.thisN'
p814
I66
sg19
I1
sg27
g36
(g38
S'\x00\x00\x00\x00\x00\x00\x1c@'
tRp815
sg52
g53
sg23
S'2'
sg18
F312.13687980454415
sg33
g34
sg51
g11
sg20
S'1'
sg65
g36
(g77
S'\x00\x00\x00\x00\x00\x00\x00\x00'
tRp816
sg44
g45
sg40
g41
sg25
F0.76187682151794434
sS'trials.thisIndex'
p817
g36
(g80
S'\x1b\x00\x00\x00'
tRp818
sg26
V5
sS'trials.thisRepN'
p819
I0
sg66
Velephant
p820
sg63
V../experiment_stimuli/bw_bc_bl/Living_Things/Animals/elephant_2.jpg
p821
sg21
F4.0390106290578842
sS'trials.thisTrialN'
p822
I66
sa(dp823
g31
g32
sg17
F318.69609194947407
sg24
I0
sg35
g39
sg14
F318.69121541408822
sg16
g36
(g70
S'\x02\x00\x00\x00'
tRp824
sg42
g43
sg46
g47
sg15
g72
sg22
F323.52307473355904
sg64
g193
sg62
g74
sg49
g50
sS'trials.thisN'
p825
I67
sg19
I0
sg27
g36
(g38
S'\x00\x00\x00\x00\x00\x00\x1a@'
tRp826
sg52
g53
sg23
S'2'
sg18
F319.94385546306148
sg33
g34
sg51
g11
sg20
S'1'
sg65
g36
(g77
S'\x00\x00\x00\x00\x00\x00\x00\x00'
tRp827
sg44
g45
sg40
g41
sg25
F0.46122820675373077
sS'trials.thisIndex'
p828
g36
(g80
S'S\x00\x00\x00'
tRp829
sg26
V5
sS'trials.thisRepN'
p830
I0
sg66
Vteapot
p831
sg63
V../experiment_stimuli/bw_bc_bl/Nonliving_Things/Kitchen_Uten/teapot_25.jpg
p832
sg21
F3.5579649014398456
sS'trials.thisTrialN'
p833
I67
sa(dp834
g31
g32
sg17
F325.72119701234624
sg24
I1
sg35
g39
sg14
F325.71649648947641
sg16
g36
(g70
S'\x01\x00\x00\x00'
tRp835
sg42
g43
sg46
g47
sg15
g88
sg22
F327.6112492447719
sg64
g73
sg62
g74
sg49
g50
sS'trials.thisN'
p836
I68
sg19
I1
sg27
g36
(g38
S'\x00\x00\x00\x00\x00\x00\x1a@'
tRp837
sg52
g53
sg23
S'1'
sg18
F326.95909816352651
sg33
g34
sg51
g11
sg20
S'1'
sg65
g36
(g77
S'\x00\x00\x00\x00\x00\x00\x00\x00'
tRp838
sg44
g45
sg40
g41
sg25
F0.19066071324050426
sS'trials.thisIndex'
p839
g36
(g80
S'.\x00\x00\x00'
tRp840
sg26
V5
sS'trials.thisRepN'
p841
I0
sg66
Vlamp
p842
sg63
V../experiment_stimuli/bw_bc_bl/Nonliving_Things/Furniture/lamp_19.jpg
p843
sg21
F0.63160424772650003
sS'trials.thisTrialN'
p844
I68
sa(dp845
g31
g32
sg17
F329.54088754532859
sg24
I1
sg35
g39
sg14
F329.53479673434049
sg16
g36
(g70
S'\x02\x00\x00\x00'
tRp846
sg42
g43
sg46
g47
sg15
g72
sg22
F331.56986097618937
sg64
g193
sg62
g74
sg49
g50
sS'trials.thisN'
p847
I69
sg19
I1
sg27
g36
(g38
S'\x00\x00\x00\x00\x00\x00\x1a@'
tRp848
sg52
g53
sg23
S'1'
sg18
F330.79744175262749
sg33
g34
sg51
g11
sg20
S'2'
sg65
g36
(g77
S'\x00\x00\x00\x00\x00\x00\x00\x00'
tRp849
sg44
g45
sg40
g41
sg25
F0.20065353251993656
sS'trials.thisIndex'
p850
g36
(g80
S'\x16\x00\x00\x00'
tRp851
sg26
V5
sS'trials.thisRepN'
p852
I0
sg66
Vcup
p853
sg63
V../experiment_stimuli/bw_bc_bl/Nonliving_Things/Kitchen_Uten/cup_11.jpg
p854
sg21
F0.75185948424041271
sS'trials.thisTrialN'
p855
I69
sa(dp856
g31
g32
sg17
F333.5084019950591
sg24
I0
sg35
g39
sg14
F333.50342064164579
sg16
g36
(g70
S'\x01\x00\x00\x00'
tRp857
sg42
g43
sg46
g47
sg15
g88
sg22
F336.09972082730383
sg64
g137
sg62
g74
sg49
g50
sS'trials.thisN'
p858
I70
sg19
I1
sg27
g36
(g38
S'\x00\x00\x00\x00\x00\x00\x1a@'
tRp859
sg52
g53
sg23
S'2'
sg18
F334.78611313644797
sg33
g34
sg51
g11
sg20
S'1'
sg65
g36
(g77
S'\x00\x00\x00\x00\x00\x00\x00\x00'
tRp860
sg44
g45
sg40
g41
sg25
F0.7418368156068027
sS'trials.thisIndex'
p861
g36
(g80
S'#\x00\x00\x00'
tRp862
sg26
V5
sS'trials.thisRepN'
p863
I0
sg66
Vgranary
p864
sg63
V../experiment_stimuli/bw_bc_bl/Nonliving_Things/Buildings/granary_21.jpg
p865
sg21
F1.283014053478837
sS'trials.thisTrialN'
p866
I70
sa(dp867
g31
g32
sg17
F338.5792112047784
sg24
I1
sg35
g39
sg14
F338.57446239655837
sg16
g36
(g70
S'\x01\x00\x00\x00'
tRp868
sg42
g43
sg46
g47
sg15
g72
sg22
F340.22869873512536
sg64
g395
sg62
g113
sg49
g50
sS'trials.thisN'
p869
I71
sg19
I1
sg27
g36
(g38
S'\x00\x00\x00\x00\x00\x00\x1e@'
tRp870
sg52
g53
sg23
S'1'
sg18
F339.84711818490177
sg33
g34
sg51
g11
sg20
S'1'
sg65
g36
(g77
S'\x00\x00\x00\x00\x00\x00\x00\x00'
tRp871
sg44
g45
sg40
g41
sg25
F0.19064460042864084
sS'trials.thisIndex'
p872
g36
(g80
S'-\x00\x00\x00'
tRp873
sg26
V5
sS'trials.thisRepN'
p874
I0
sg66
Vladybird
p875
sg63
V../experiment_stimuli/bw_bc_bl/Living_Things/Insects/ladybird_24.jpg
p876
sg21
F0.36102134454995394
sS'trials.thisTrialN'
p877
I71
sa(dp878
g31
g32
sg17
F342.1569260940887
sg24
I0
sg35
g39
sg14
F342.15222237538546
sg16
g36
(g70
S'\x02\x00\x00\x00'
tRp879
sg42
g43
sg46
g47
sg15
g72
sg22
F345.43001732369885
sg64
g73
sg62
g74
sg49
g50
sS'trials.thisN'
p880
I72
sg19
I1
sg27
g36
(g38
S'\x00\x00\x00\x00\x00\x00\x18@'
tRp881
sg52
g53
sg23
S'2'
sg18
F343.45496430108324
sg33
g34
sg51
g11
sg20
S'2'
sg65
g36
(g77
S'\x00\x00\x00\x00\x00\x00\x00\x00'
tRp882
sg44
g45
sg40
g41
sg25
F1.3230960364453495
sS'trials.thisIndex'
p883
g36
(g80
S']\x00\x00\x00'
tRp884
sg26
V5
sS'trials.thisRepN'
p885
I0
sg66
Vwardrobe
p886
sg63
V../experiment_stimuli/bw_bc_bl/Nonliving_Things/Furniture/wardrobe_6.jpg
p887
sg21
F1.9544935952872038
sS'trials.thisTrialN'
p888
I72
sa(dp889
g31
g32
sg17
F348.49080328922719
sg24
I0
sg35
g39
sg14
F348.48599843680859
sg16
g36
(g70
S'\x01\x00\x00\x00'
tRp890
sg42
g43
sg46
g47
sg15
g72
sg22
F351.70373282767832
sg64
g125
sg62
g113
sg49
g50
sS'trials.thisN'
p891
I73
sg19
I0
sg27
g36
(g38
S'\x00\x00\x00\x00\x00\x00\x18@'
tRp892
sg52
g53
sg23
S'3'
sg18
F349.76868948386982
sg33
g34
sg51
g11
sg20
S'2'
sg65
g36
(g77
S'\x00\x00\x00\x00\x00\x00\x00\x00'
tRp893
sg44
g45
sg40
g41
sg25
F0.23073157202452421
sS'trials.thisIndex'
p894
g36
(g80
S'\x14\x00\x00\x00'
tRp895
sg26
V5
sS'trials.thisRepN'
p896
I0
sg66
Vcow
p897
sg63
V../experiment_stimuli/bw_bc_bl/Living_Things/Animals/cow_3.jpg
p898
sg21
F1.9144933032803237
sS'trials.thisTrialN'
p899
I73
sa(dp900
g31
g32
sg17
F353.67335393186659
sg24
I0
sg35
g39
sg14
F353.66725413594395
sg16
g36
(g70
S'\x01\x00\x00\x00'
tRp901
sg42
g43
sg46
g47
sg15
g72
sg22
F355.86266400618479
sg64
g262
sg62
g113
sg49
g50
sS'trials.thisN'
p902
I74
sg19
I1
sg27
g36
(g38
S'\x00\x00\x00\x00\x00\x00\x1a@'
tRp903
sg52
g53
sg23
S'2'
sg18
F354.92991582304239
sg33
g34
sg51
g11
sg20
S'1'
sg65
g36
(g77
S'\x00\x00\x00\x00\x00\x00\x00\x00'
tRp904
sg44
g45
sg40
g41
sg25
F0.56146065471693873
sS'trials.thisIndex'
p905
g36
(g80
S'P\x00\x00\x00'
tRp906
sg26
V5
sS'trials.thisRepN'
p907
I0
sg66
Vsperm-whale
p908
sg63
V../experiment_stimuli/bw_bc_bl/Living_Things/Marine_creatures/sperm-whale_23.jpg
p909
sg21
F0.91220772918313742
sS'trials.thisTrialN'
p910
I74
sa(dp911
g31
g32
sg17
F358.16184816835448
sg24
I1
sg35
g39
sg14
F358.15701629035175
sg16
g36
(g70
S'\x01\x00\x00\x00'
tRp912
sg42
g43
sg46
g47
sg15
g72
sg22
F359.86139277555048
sg64
g112
sg62
g113
sg49
g50
sS'trials.thisN'
p913
I75
sg19
I1
sg27
g36
(g38
S'\x00\x00\x00\x00\x00\x00\x1c@'
tRp914
sg52
g53
sg23
S'1'
sg18
F359.40964617021382
sg33
g34
sg51
g11
sg20
S'1'
sg65
g36
(g77
S'\x00\x00\x00\x00\x00\x00\x00\x00'
tRp915
sg44
g45
sg40
g41
sg25
F0.28082900075241923
sS'trials.thisIndex'
p916
g36
(g80
S'=\x00\x00\x00'
tRp917
sg26
V5
sS'trials.thisRepN'
p918
I0
sg66
Vpenguin
p919
sg63
V../experiment_stimuli/bw_bc_bl/Living_Things/Birds/penguin_13.jpg
p920
sg21
F0.4311846406199038
sS'trials.thisTrialN'
p921
I75
sa(dp922
g31
g32
sg17
F361.87992327753454
sg24
I0
sg35
g39
sg14
F361.87510982342064
sg16
g36
(g70
S'\x02\x00\x00\x00'
tRp923
sg42
g43
sg46
g47
sg15
g72
sg22
F364.24091515596956
sg64
g89
sg62
g74
sg49
g50
sS'trials.thisN'
p924
I76
sg19
I1
sg27
g36
(g38
S'\x00\x00\x00\x00\x00\x00\x1e@'
tRp925
sg52
g53
sg23
S'3'
sg18
F363.13776306016371
sg33
g34
sg51
g11
sg20
S'2'
sg65
g36
(g77
S'\x00\x00\x00\x00\x00\x00\x00\x00'
tRp926
sg44
g45
sg40
g41
sg25
F0.21067550173029304
sS'trials.thisIndex'
p927
g36
(g80
S'V\x00\x00\x00'
tRp928
sg26
V5
sS'trials.thisRepN'
p929
I0
sg66
Vtractor
p930
sg63
V../experiment_stimuli/bw_bc_bl/Nonliving_Things/Vehicles/tractor_14.jpg
p931
sg21
F1.0825935630127788
sS'trials.thisTrialN'
p932
I76
sa(dp933
g31
g32
sg17
F366.19064953364432
sg24
I1
sg35
g39
sg14
F366.18447603564709
sg16
g36
(g70
S'\x01\x00\x00\x00'
tRp934
sg42
g43
sg46
g47
sg15
g88
sg22
F367.6583194877021
sg64
g73
sg62
g74
sg49
g50
sS'trials.thisN'
p935
I77
sg19
I1
sg27
g36
(g38
S'\x00\x00\x00\x00\x00\x00\x1c@'
tRp936
sg52
g53
sg23
S'1'
sg18
F367.42707857396454
sg33
g34
sg51
g11
sg20
S'1'
sg65
g36
(g77
S'\x00\x00\x00\x00\x00\x00\x00\x00'
tRp937
sg44
g45
sg40
g41
sg25
F0.15054241893813014
sS'trials.thisIndex'
p938
g36
(g80
S'\x1d\x00\x00\x00'
tRp939
sg26
V5
sS'trials.thisRepN'
p940
I0
sg66
Vfilling-cabinet
p941
sg63
V../experiment_stimuli/bw_bc_bl/Nonliving_Things/Furniture/filling-cabinet_15.jpg
p942
sg21
F0.2106870049610734
sS'trials.thisTrialN'
p943
I77
sa(dp944
g31
g32
sg17
F369.54653850989416
sg24
I0
sg35
g39
sg14
F369.54177830321714
sg16
g36
(g70
S'\x02\x00\x00\x00'
tRp945
sg42
g43
sg46
g47
sg15
g88
sg22
F372.23827565927058
sg64
g262
sg62
g113
sg49
g50
sS'trials.thisN'
p946
I78
sg19
I1
sg27
g36
(g38
S'\x00\x00\x00\x00\x00\x00\x1a@'
tRp947
sg52
g53
sg23
S'2'
sg18
F370.80442197993398
sg33
g34
sg51
g11
sg20
S'2'
sg65
g36
(g77
S'\x00\x00\x00\x00\x00\x00\x00\x00'
tRp948
sg44
g45
sg40
g41
sg25
F0.48126716399565339
sS'trials.thisIndex'
p949
g36
(g80
S'A\x00\x00\x00'
tRp950
sg26
V5
sS'trials.thisRepN'
p951
I0
sg66
Vpomfret
p952
sg63
V../experiment_stimuli/bw_bc_bl/Living_Things/Marine_creatures/pomfret_17.jpg
p953
sg21
F1.4133038152940571
sS'trials.thisTrialN'
p954
I78
sa(dp955
g31
g32
sg17
F374.45725703798234
sg24
I1
sg35
g39
sg14
F374.45245123840868
sg16
g36
(g70
S'\x02\x00\x00\x00'
tRp956
sg42
g43
sg46
g47
sg15
g88
sg22
F375.97638421785086
sg64
g112
sg62
g113
sg49
g50
sS'trials.thisN'
p957
I79
sg19
I1
sg27
g36
(g38
S'\x00\x00\x00\x00\x00\x00\x18@'
tRp958
sg52
g53
sg23
S'1'
sg18
F375.70507387397811
sg33
g34
sg51
g11
sg20
S'2'
sg65
g36
(g77
S'\x00\x00\x00\x00\x00\x00\x00\x00'
tRp959
sg44
g45
sg40
g41
sg25
F0.130516751203686
sS'trials.thisIndex'
p960
g36
(g80
S'?\x00\x00\x00'
tRp961
sg26
V5
sS'trials.thisRepN'
p962
I0
sg66
Vpigeon
p963
sg63
V../experiment_stimuli/bw_bc_bl/Living_Things/Birds/pigeon_11.jpg
p964
sg21
F0.25077404035255313
sS'trials.thisTrialN'
p965
I79
sa(dp966
g31
g32
sg17
F377.84463193174452
sg24
I0
sg35
g39
sg14
F377.83981862058863
sg16
g36
(g70
S'\x01\x00\x00\x00'
tRp967
sg42
g43
sg46
g47
sg15
g72
sg22
F379.79470707150176
sg64
g112
sg62
g113
sg49
g50
sS'trials.thisN'
p968
I80
sg19
I1
sg27
g36
(g38
S'\x00\x00\x00\x00\x00\x00\x18@'
tRp969
sg52
g53
sg23
S'2'
sg18
F379.09243638440967
sg33
g34
sg51
g11
sg20
S'1'
sg65
g36
(g77
S'\x00\x00\x00\x00\x00\x00\x00\x00'
tRp970
sg44
g45
sg40
g41
sg25
F0.14052390493452549
sS'trials.thisIndex'
p971
g36
(g80
S'O\x00\x00\x00'
tRp972
sg26
V5
sS'trials.thisRepN'
p973
I0
sg66
Vsparrow
p974
sg63
V../experiment_stimuli/bw_bc_bl/Living_Things/Birds/sparrow_17.jpg
p975
sg21
F0.68170570302754641
sS'trials.thisTrialN'
p976
I80
sa(dp977
g31
g32
sg17
F381.6729916902259
sg24
I0
sg35
g39
sg14
F381.66814511315897
sg16
g36
(g70
S'\x01\x00\x00\x00'
tRp978
sg42
g43
sg46
g47
sg15
g88
sg22
F386.18860816629604
sg64
g73
sg62
g74
sg49
g50
sS'trials.thisN'
p979
I81
sg19
I0
sg27
g36
(g38
S'\x00\x00\x00\x00\x00\x00\x1a@'
tRp980
sg52
g53
sg23
S'3'
sg18
F382.91074072662741
sg33
g34
sg51
g11
sg20
S'2'
sg65
g36
(g77
S'\x00\x00\x00\x00\x00\x00\x00\x00'
tRp981
sg44
g45
sg40
g41
sg25
F0.33095807582139969
sS'trials.thisIndex'
p982
g36
(g80
S'E\x00\x00\x00'
tRp983
sg26
V5
sS'trials.thisRepN'
p984
I0
sg66
Vrocking-chair
p985
sg63
V../experiment_stimuli/bw_bc_bl/Nonliving_Things/Furniture/rocking-chair_20.jpg
p986
sg21
F3.2573212897405028
sS'trials.thisTrialN'
p987
I81
sa(dp988
g31
g32
sg17
F388.25727511104196
sg24
I1
sg35
g39
sg14
F388.25244724052027
sg16
g36
(g70
S'\x01\x00\x00\x00'
tRp989
sg42
g43
sg46
g47
sg15
g88
sg22
F389.61612945469096
sg64
g73
sg62
g74
sg49
g50
sS'trials.thisN'
p990
I82
sg19
I1
sg27
g36
(g38
S'\x00\x00\x00\x00\x00\x00\x18@'
tRp991
sg52
g53
sg23
S'1'
sg18
F389.48502749018371
sg33
g34
sg51
g11
sg20
S'1'
sg65
g36
(g77
S'\x00\x00\x00\x00\x00\x00\x00\x00'
tRp992
sg44
g45
sg40
g41
sg25
F0.18060752609744668
sS'trials.thisIndex'
p993
g36
(g80
S'\x08\x00\x00\x00'
tRp994
sg26
V5
sS'trials.thisRepN'
p995
I0
sg66
Vbookcase
p996
sg63
V../experiment_stimuli/bw_bc_bl/Nonliving_Things/Furniture/bookcase_22.jpg
p997
sg21
F0.11051729694008827
sS'trials.thisTrialN'
p998
I82
sa(dp999
g31
g32
sg17
F391.537367827259
sg24
I1
sg35
g39
sg14
F391.52957695350051
sg16
g36
(g70
S'\x01\x00\x00\x00'
tRp1000
sg42
g43
sg46
g47
sg15
g72
sg22
F393.36419869400561
sg64
g262
sg62
g113
sg49
g50
sS'trials.thisN'
p1001
I83
sg19
I1
sg27
g36
(g38
S'\x00\x00\x00\x00\x00\x00\x1c@'
tRp1002
sg52
g53
sg23
S'1'
sg18
F392.78220180375502
sg33
g34
sg51
g11
sg20
S'1'
sg65
g36
(g77
S'\x00\x00\x00\x00\x00\x00\x00\x00'
tRp1003
sg44
g45
sg40
g41
sg25
F0.18061427446082234
sS'trials.thisIndex'
p1004
g36
(g80
S'4\x00\x00\x00'
tRp1005
sg26
V5
sS'trials.thisRepN'
p1006
I0
sg66
Vmanatee
p1007
sg63
V../experiment_stimuli/bw_bc_bl/Living_Things/Marine_creatures/manatee_0.jpg
p1008
sg21
F0.56144618475809693
sS'trials.thisTrialN'
p1009
I83
sa(dp1010
g31
g32
sg17
F395.2841644003056
sg24
I1
sg35
g39
sg14
F395.27771882712841
sg16
g36
(g70
S'\x02\x00\x00\x00'
tRp1011
sg42
g43
sg46
g47
sg15
g88
sg22
F396.91190647566691
sg64
g125
sg62
g113
sg49
g50
sS'trials.thisN'
p1012
I84
sg19
I0
sg27
g36
(g38
S'\x00\x00\x00\x00\x00\x00\x18@'
tRp1013
sg52
g53
sg23
S'1'
sg18
F396.54036783054471
sg33
g34
sg51
g11
sg20
S'1'
sg65
g36
(g77
S'\x00\x00\x00\x00\x00\x00\x00\x00'
tRp1014
sg44
g45
sg40
g41
sg25
F0.1505540506914258
sS'trials.thisIndex'
p1015
g36
(g80
S' \x00\x00\x00'
tRp1016
sg26
V5
sS'trials.thisRepN'
p1017
I0
sg66
Vgiraffe
p1018
sg63
V../experiment_stimuli/bw_bc_bl/Living_Things/Animals/giraffe_17.jpg
p1019
sg21
F0.35098555637523532
sS'trials.thisTrialN'
p1020
I84
sa(dp1021
g31
g32
sg17
F398.80014795577154
sg24
I0
sg35
g39
sg14
F398.79537724237889
sg16
g36
(g70
S'\x02\x00\x00\x00'
tRp1022
sg42
g43
sg46
g47
sg15
g88
sg22
F402.34371923655272
sg64
g125
sg62
g113
sg49
g50
sS'trials.thisN'
p1023
I85
sg19
I1
sg27
g36
(g38
S'\x00\x00\x00\x00\x00\x00\x1e@'
tRp1024
sg52
g53
sg23
S'3'
sg18
F400.09811459621415
sg33
g34
sg51
g11
sg20
S'2'
sg65
g36
(g77
S'\x00\x00\x00\x00\x00\x00\x00\x00'
tRp1025
sg44
g45
sg40
g41
sg25
F0.47124590119346976
sS'trials.thisIndex'
p1026
g36
(g80
S'\r\x00\x00\x00'
tRp1027
sg26
V5
sS'trials.thisRepN'
p1028
I0
sg66
Vcat
p1029
sg63
V../experiment_stimuli/bw_bc_bl/Living_Things/Animals/cat_5.jpg
p1030
sg21
F2.2250646185129881
sS'trials.thisTrialN'
p1031
I85
sa(dp1032
g31
g32
sg17
F404.55273205880076
sg24
I0
sg35
g39
sg14
F404.54787656432018
sg16
g36
(g70
S'\x01\x00\x00\x00'
tRp1033
sg42
g43
sg46
g47
sg15
g72
sg22
F406.41257677273825
sg64
g395
sg62
g113
sg49
g50
sS'trials.thisN'
p1034
I86
sg19
I1
sg27
g36
(g38
S'\x00\x00\x00\x00\x00\x00\x18@'
tRp1035
sg52
g53
sg23
S'3'
sg18
F405.83056692359969
sg33
g34
sg51
g11
sg20
S'1'
sg65
g36
(g77
S'\x00\x00\x00\x00\x00\x00\x00\x00'
tRp1036
sg44
g45
sg40
g41
sg25
F1.2629761681891978
sS'trials.thisIndex'
p1037
g36
(g80
S'\x18\x00\x00\x00'
tRp1038
sg26
V5
sS'trials.thisRepN'
p1039
I0
sg66
Vdragonfly
p1040
sg63
V../experiment_stimuli/bw_bc_bl/Living_Things/Insects/dragonfly_8.jpg
p1041
sg21
F0.56144711747765541
sS'trials.thisTrialN'
p1042
I86
sa(dp1043
g31
g32
sg17
F409.41334073338658
sg24
I1
sg35
g39
sg14
F409.40844175824896
sg16
g36
(g70
S'\x01\x00\x00\x00'
tRp1044
sg42
g43
sg46
g47
sg15
g72
sg22
F410.81212605023757
sg64
g112
sg62
g113
sg49
g50
sS'trials.thisN'
p1045
I87
sg19
I1
sg27
g36
(g38
S'\x00\x00\x00\x00\x00\x00\x1c@'
tRp1046
sg52
g53
sg23
S'1'
sg18
F410.65104532334954
sg33
g34
sg51
g11
sg20
S'1'
sg65
g36
(g77
S'\x00\x00\x00\x00\x00\x00\x00\x00'
tRp1047
sg44
g45
sg40
g41
sg25
F0.20066977618262172
sS'trials.thisIndex'
p1048
g36
(g80
S'F\x00\x00\x00'
tRp1049
sg26
V5
sS'trials.thisRepN'
p1050
I0
sg66
Vrooster
p1051
sg63
V../experiment_stimuli/bw_bc_bl/Living_Things/Birds/rooster_15.jpg
p1052
sg21
F0.1405281606130302
sS'trials.thisTrialN'
p1053
I87
sa(dp1054
g31
g32
sg17
F412.75050232000649
sg24
I1
sg35
g39
sg14
F412.74569366686046
sg16
g36
(g70
S'\x02\x00\x00\x00'
tRp1055
sg42
g43
sg46
g47
sg15
g72
sg22
F414.66051946161315
sg64
g73
sg62
g74
sg49
g50
sS'trials.thisN'
p1056
I88
sg19
I0
sg27
g36
(g38
S'\x00\x00\x00\x00\x00\x00\x1c@'
tRp1057
sg52
g53
sg23
S'1'
sg18
F414.01836651144549
sg33
g34
sg51
g11
sg20
S'1'
sg65
g36
(g77
S'\x00\x00\x00\x00\x00\x00\x00\x00'
tRp1058
sg44
g45
sg40
g41
sg25
F0.26078479131683707
sS'trials.thisIndex'
p1059
g36
(g80
S'\x13\x00\x00\x00'
tRp1060
sg26
V5
sS'trials.thisRepN'
p1061
I0
sg66
Vcouch
p1062
sg63
V../experiment_stimuli/bw_bc_bl/Nonliving_Things/Furniture/couch_8.jpg
p1063
sg21
F0.6115735569037497
sS'trials.thisTrialN'
p1064
I88
sa(dp1065
g31
g32
sg17
F416.66904428321868
sg24
I1
sg35
g39
sg14
F416.66422786330804
sg16
g36
(g70
S'\x02\x00\x00\x00'
tRp1066
sg42
g43
sg46
g47
sg15
g72
sg22
F419.60130055202171
sg64
g73
sg62
g74
sg49
g50
sS'trials.thisN'
p1067
I89
sg19
I1
sg27
g36
(g38
S'\x00\x00\x00\x00\x00\x00\x1a@'
tRp1068
sg52
g53
sg23
S'1'
sg18
F417.9769748901017
sg33
g34
sg51
g11
sg20
S'2'
sg65
g36
(g77
S'\x00\x00\x00\x00\x00\x00\x00\x00'
tRp1069
sg44
g45
sg40
g41
sg25
F0.94228568533435464
sS'trials.thisIndex'
p1070
g36
(g80
S'Q\x00\x00\x00'
tRp1071
sg26
V5
sS'trials.thisRepN'
p1072
I0
sg66
Vtable
p1073
sg63
V../experiment_stimuli/bw_bc_bl/Nonliving_Things/Furniture/table_25.jpg
p1074
sg21
F1.6037182426080108
sS'trials.thisTrialN'
p1075
I89
sa(dp1076
g31
g32
sg17
F422.29120805859566
sg24
I1
sg35
g39
sg14
F422.28644490474835
sg16
g36
(g70
S'\x02\x00\x00\x00'
tRp1077
sg42
g43
sg46
g47
sg15
g72
sg22
F423.88055057497695
sg64
g73
sg62
g74
sg49
g50
sS'trials.thisN'
p1078
I90
sg19
I1
sg27
g36
(g38
S'\x00\x00\x00\x00\x00\x00\x1c@'
tRp1079
sg52
g53
sg23
S'1'
sg18
F423.60921844933182
sg33
g34
sg51
g11
sg20
S'2'
sg65
g36
(g77
S'\x00\x00\x00\x00\x00\x00\x00\x00'
tRp1080
sg44
g45
sg40
g41
sg25
F0.15059843752533197
sS'trials.thisIndex'
p1081
g36
(g80
S'\x02\x00\x00\x00'
tRp1082
sg26
V5
sS'trials.thisRepN'
p1083
I0
sg66
Varmchair
p1084
sg63
V../experiment_stimuli/bw_bc_bl/Nonliving_Things/Furniture/armchair_10.jpg
p1085
sg21
F0.25077873934060335
sS'trials.thisTrialN'
p1086
I90
sa(dp1087
g31
g32
sg17
F425.76894125202671
sg24
I0
sg35
g39
sg14
F425.76399795804173
sg16
g36
(g70
S'\x02\x00\x00\x00'
tRp1088
sg42
g43
sg46
g47
sg15
g88
sg22
F430.16405328456312
sg64
g262
sg62
g113
sg49
g50
sS'trials.thisN'
p1089
I91
sg19
I1
sg27
g36
(g38
S'\x00\x00\x00\x00\x00\x00\x18@'
tRp1090
sg52
g53
sg23
S'2'
sg18
F427.11685926374048
sg33
g34
sg51
g11
sg20
S'2'
sg65
g36
(g77
S'\x00\x00\x00\x00\x00\x00\x00\x00'
tRp1091
sg44
g45
sg40
g41
sg25
F1.3030572407878935
sS'trials.thisIndex'
p1092
g36
(g80
S'\x15\x00\x00\x00'
tRp1093
sg26
V5
sS'trials.thisRepN'
p1094
I0
sg66
Vcrab
p1095
sg63
V../experiment_stimuli/bw_bc_bl/Living_Things/Marine_creatures/crab_0.jpg
p1096
sg21
F3.0266460902057588
sS'trials.thisTrialN'
p1097
I91
sa(dp1098
g31
g32
sg17
F433.20490307733417
sg24
I0
sg35
g39
sg14
F433.20016543054953
sg16
g36
(g70
S'\x02\x00\x00\x00'
tRp1099
sg42
g43
sg46
g47
sg15
g88
sg22
F438.49215073557571
sg64
g112
sg62
g113
sg49
g50
sS'trials.thisN'
p1100
I92
sg19
I1
sg27
g36
(g38
S'\x00\x00\x00\x00\x00\x00\x1c@'
tRp1101
sg52
g53
sg23
S'3'
sg18
F434.54298807913437
sg33
g34
sg51
g11
sg20
S'2'
sg65
g36
(g77
S'\x00\x00\x00\x00\x00\x00\x00\x00'
tRp1102
sg44
g45
sg40
g41
sg25
F0.30087479203939438
sS'trials.thisIndex'
p1103
g36
(g80
S'"\x00\x00\x00'
tRp1104
sg26
V5
sS'trials.thisRepN'
p1105
I0
sg66
Vgoose
p1106
sg63
V../experiment_stimuli/bw_bc_bl/Living_Things/Birds/goose_19.jpg
p1107
sg21
F3.9285982516594231
sS'trials.thisTrialN'
p1108
I92
sa(dp1109
g31
g32
sg17
F440.53095677355304
sg24
I1
sg35
g39
sg14
F440.52611302305013
sg16
g36
(g70
S'\x01\x00\x00\x00'
tRp1110
sg42
g43
sg46
g47
sg15
g72
sg22
F442.61126257432625
sg64
g262
sg62
g113
sg49
g50
sS'trials.thisN'
p1111
I93
sg19
I0
sg27
g36
(g38
S'\x00\x00\x00\x00\x00\x00\x18@'
tRp1112
sg52
g53
sg23
S'1'
sg18
F441.83884602366015
sg33
g34
sg51
g11
sg20
S'2'
sg65
g36
(g77
S'\x00\x00\x00\x00\x00\x00\x00\x00'
tRp1113
sg44
g45
sg40
g41
sg25
F1.4634087486192584
sS'trials.thisIndex'
p1114
g36
(g80
S'7\x00\x00\x00'
tRp1115
sg26
V5
sS'trials.thisRepN'
p1116
I0
sg66
Vnarwhal
p1117
sg63
V../experiment_stimuli/bw_bc_bl/Living_Things/Marine_creatures/narwhal_12.jpg
p1118
sg21
F0.75185551075264812
sS'trials.thisTrialN'
p1119
I93
sa(dp1120
g31
g32
sg17
F445.82243724353611
sg24
I0
sg35
g39
sg14
F445.81762370327488
sg16
g36
(g70
S'\x01\x00\x00\x00'
tRp1121
sg42
g43
sg46
g47
sg15
g72
sg22
F449.75684571964666
sg64
g262
sg62
g113
sg49
g50
sS'trials.thisN'
p1122
I94
sg19
I1
sg27
g36
(g38
S'\x00\x00\x00\x00\x00\x00\x18@'
tRp1123
sg52
g53
sg23
S'3'
sg18
F447.16042112279683
sg33
g34
sg51
g11
sg20
S'1'
sg65
g36
(g77
S'\x00\x00\x00\x00\x00\x00\x00\x00'
tRp1124
sg44
g45
sg40
g41
sg25
F0.1606183648109436
sS'trials.thisIndex'
p1125
g36
(g80
S'+\x00\x00\x00'
tRp1126
sg26
V5
sS'trials.thisRepN'
p1127
I0
sg66
Vkiller-whale
p1128
sg63
V../experiment_stimuli/bw_bc_bl/Living_Things/Marine_creatures/killer-whale_17.jpg
p1129
sg21
F2.5758450231514871
sS'trials.thisTrialN'
p1130
I94
sa(dp1131
g31
g32
sg17
F451.65669185714796
sg24
I0
sg35
g39
sg14
F451.65027323458344
sg16
g36
(g70
S'\x02\x00\x00\x00'
tRp1132
sg42
g43
sg46
g47
sg15
g88
sg22
F453.83552715322003
sg64
g395
sg62
g113
sg49
g50
sS'trials.thisN'
p1133
I95
sg19
I1
sg27
g36
(g38
S'\x00\x00\x00\x00\x00\x00\x1e@'
tRp1134
sg52
g53
sg23
S'3'
sg18
F452.9630317161791
sg33
g34
sg51
g11
sg20
S'2'
sg65
g36
(g77
S'\x00\x00\x00\x00\x00\x00\x00\x00'
tRp1135
sg44
g45
sg40
g41
sg25
F0.26078180968761444
sS'trials.thisIndex'
p1136
g36
(g80
S'\n\x00\x00\x00'
tRp1137
sg26
V5
sS'trials.thisRepN'
p1138
I0
sg66
Vbutterfly
p1139
sg63
V../experiment_stimuli/bw_bc_bl/Living_Things/Insects/butterfly_24.jpg
p1140
sg21
F0.85192009992897511
sS'trials.thisTrialN'
p1141
I95
sasS'loops'
p1142
(lp1143
g1
(cpsychopy.data
TrialHandler
p1144
g3
NtRp1145
(dp1146
S'origin'
p1147
NsS'thisTrial'
p1148
(lp1149
sS'_exp'
p1150
I97292560
sg10
S'trials'
p1151
sg6
I-1
sS'thisRepN'
p1152
I1
sg28
I01
sg29
g30
sS'data'
p1153
g1
(cpsychopy.data
DataHandler
p1154
c__builtin__
dict
p1155
(dp1156
g20
cnumpy.core.multiarray
_reconstruct
p1157
(cnumpy
ndarray
p1158
(I0
tS'b'
tRp1159
(I1
(I96
I1
tg37
(S'O4'
I0
I1
tRp1160
(I3
S'|'
NNNI-1
I-1
I63
tbI00
(lp1161
S'2'
aS'2'
aS'2'
aS'2'
aS'2'
aS'1'
aS'1'
aS'2'
aS'1'
aS'1'
aS'2'
aS'2'
aS'1'
aS'2'
aS'1'
aS'2'
aS'1'
aS'2'
aS'1'
aS'1'
aS'2'
aS'2'
aS'2'
aS'1'
aS'1'
aS'1'
aS'1'
aS'1'
aS'1'
aS'1'
aS'1'
aS'1'
aS'1'
aS'2'
aS'2'
aS'1'
aS'1'
aS'1'
aS'2'
aS'2'
aS'2'
aS'1'
aS'1'
aS'1'
aS'2'
aS'1'
aS'1'
aS'1'
aS'2'
aS'1'
aS'1'
aS'1'
aS'1'
aS'2'
aS'1'
aS'2'
aS'2'
aS'2'
aS'1'
aS'2'
aS'1'
aS'1'
aS'1'
aS'2'
aS'1'
aS'2'
aS'2'
aS'2'
aS'2'
aS'2'
aS'1'
aS'2'
aS'2'
aS'1'
aS'2'
aS'1'
aS'2'
aS'1'
aS'1'
aS'1'
aS'1'
aS'2'
aS'2'
aS'1'
aS'1'
aS'1'
aS'2'
aS'2'
aS'1'
aS'1'
aS'2'
aS'2'
aS'1'
aS'2'
aS'2'
aS'2'
atbsg17
cnumpy.ma.core
_mareconstruct
p1162
(cnumpy.ma.core
MaskedArray
p1163
g1158
(I0
tp1164
S'b'
tRp1165
(I1
(I96
I1
tg37
(S'f4'
I0
I1
tRp1166
(I3
S'<'
NNNI-1
I-1
I0
tbI00
S',Qo@#\xa3uCF%\xd3CSl\x88B\x9ax\x1bB\x80V\x15C.\x89KAr\x82(C\xee \xc2C\x1b\xa5\x84C\x0e\xd4\xe1C\x8d\xefFCR=\xc7Bkf\xc7C\xbaG?C\x96~\x1cC\xd4>\x80Cr\x95\x8fC\xa5\xb9]C\x10`\xceC\xd3>\xaeCm\xe2\xd4C<\xc5\xa4CB\xf50C\xc0F\xcaCG\x8e4C\xef\x8eqC\x82p\x9bC\x08\xbb[Bg\x18\xb7CcO\x11C\xec\x89:C_\xa4\xc5C\xb2q\xf6B:\x9a\xd8C\x13\xc1\xa6C\xbdkpB7\xff\x18C\xd4\xfc\xeeB\xb1\x90\x96C\xde^\xd5Bc\xd2\x87C\xa6\xac\nBF\xe9\xdeC\x18X\xacB$J\xa9CP\xdc\xa2CF\xabhCk?ZC\xf7%\xa5B\x91\xb0HB\x12f\x8fB\xc8\xc4\xc3Cj\x17\xbaBqU\xdfB\xf6C\xdcC\tryC\xcb\xc8*B#%\xb7A\xe5c\x82A\xe4G\x04C\xb7\x14\xb3C+\xbbVC\x87:\xbbC\x087\xceB\xf5\xc5\xb8C\xc5.:B\xc4aeC@\xee\xe7B%\xd6\xbeC\xe8\xb4\xccC\x1b\xef\x81CTCJCCv\xfeBx\x1e\x8bC\xc1f\x99C\x84\x8e"C\xf2u\x08C\x16\n-C\x1d\xec\xbcC0\xd6\xb0C\xa3U\xd0C\xfaS\x9dA\x1aY\x9fCS\xaf\x94C[\x15}C\xa1\xf0\xb4C<\x02\xe7A\xe7\xb2BC\x1b\xf7\x8dC\x7f7\xb3B\xa4&\tAj\x81\x89C\x16\x14\xabCi\x05\x9aBH\xd0\x91C'
S'\x00\x00\x00\x00\x00\x00\x00\x00\x00\x00\x00\x00\x00\x00\x00\x00\x00\x00\x00\x00\x00\x00\x00\x00\x00\x00\x00\x00\x00\x00\x00\x00\x00\x00\x00\x00\x00\x00\x00\x00\x00\x00\x00\x00\x00\x00\x00\x00\x00\x00\x00\x00\x00\x00\x00\x00\x00\x00\x00\x00\x00\x00\x00\x00\x00\x00\x00\x00\x00\x00\x00\x00\x00\x00\x00\x00\x00\x00\x00\x00\x00\x00\x00\x00\x00\x00\x00\x00\x00\x00\x00\x00\x00\x00\x00\x00'
NtbsS'ran'
p1167
g1162
(g1163
g1158
g1164
S'b'
tRp1168
(I1
(I96
I1
tg1166
I00
S'\x00\x00\x80?\x00\x00\x80?\x00\x00\x80?\x00\x00\x80?\x00\x00\x80?\x00\x00\x80?\x00\x00\x80?\x00\x00\x80?\x00\x00\x80?\x00\x00\x80?\x00\x00\x80?\x00\x00\x80?\x00\x00\x80?\x00\x00\x80?\x00\x00\x80?\x00\x00\x80?\x00\x00\x80?\x00\x00\x80?\x00\x00\x80?\x00\x00\x80?\x00\x00\x80?\x00\x00\x80?\x00\x00\x80?\x00\x00\x80?\x00\x00\x80?\x00\x00\x80?\x00\x00\x80?\x00\x00\x80?\x00\x00\x80?\x00\x00\x80?\x00\x00\x80?\x00\x00\x80?\x00\x00\x80?\x00\x00\x80?\x00\x00\x80?\x00\x00\x80?\x00\x00\x80?\x00\x00\x80?\x00\x00\x80?\x00\x00\x80?\x00\x00\x80?\x00\x00\x80?\x00\x00\x80?\x00\x00\x80?\x00\x00\x80?\x00\x00\x80?\x00\x00\x80?\x00\x00\x80?\x00\x00\x80?\x00\x00\x80?\x00\x00\x80?\x00\x00\x80?\x00\x00\x80?\x00\x00\x80?\x00\x00\x80?\x00\x00\x80?\x00\x00\x80?\x00\x00\x80?\x00\x00\x80?\x00\x00\x80?\x00\x00\x80?\x00\x00\x80?\x00\x00\x80?\x00\x00\x80?\x00\x00\x80?\x00\x00\x80?\x00\x00\x80?\x00\x00\x80?\x00\x00\x80?\x00\x00\x80?\x00\x00\x80?\x00\x00\x80?\x00\x00\x80?\x00\x00\x80?\x00\x00\x80?\x00\x00\x80?\x00\x00\x80?\x00\x00\x80?\x00\x00\x80?\x00\x00\x80?\x00\x00\x80?\x00\x00\x80?\x00\x00\x80?\x00\x00\x80?\x00\x00\x80?\x00\x00\x80?\x00\x00\x80?\x00\x00\x80?\x00\x00\x80?\x00\x00\x80?\x00\x00\x80?\x00\x00\x80?\x00\x00\x80?\x00\x00\x80?\x00\x00\x80?\x00\x00\x80?'
S'\x00\x00\x00\x00\x00\x00\x00\x00\x00\x00\x00\x00\x00\x00\x00\x00\x00\x00\x00\x00\x00\x00\x00\x00\x00\x00\x00\x00\x00\x00\x00\x00\x00\x00\x00\x00\x00\x00\x00\x00\x00\x00\x00\x00\x00\x00\x00\x00\x00\x00\x00\x00\x00\x00\x00\x00\x00\x00\x00\x00\x00\x00\x00\x00\x00\x00\x00\x00\x00\x00\x00\x00\x00\x00\x00\x00\x00\x00\x00\x00\x00\x00\x00\x00\x00\x00\x00\x00\x00\x00\x00\x00\x00\x00\x00\x00'
Ntbsg24
g1162
(g1163
g1158
g1164
S'b'
tRp1169
(I1
(I96
I1
tg1166
I00
S'\x00\x00\x00\x00\x00\x00\x00\x00\x00\x00\x80?\x00\x00\x00\x00\x00\x00\x00\x00\x00\x00\x00\x00\x00\x00\x80?\x00\x00\x00\x00\x00\x00\x80?\x00\x00\x00\x00\x00\x00\x00\x00\x00\x00\x80?\x00\x00\x80?\x00\x00\x00\x00\x00\x00\x80?\x00\x00\x00\x00\x00\x00\x80?\x00\x00\x00\x00\x00\x00\x00\x00\x00\x00\x80?\x00\x00\x00\x00\x00\x00\x00\x00\x00\x00\x80?\x00\x00\x80?\x00\x00\x00\x00\x00\x00\x00\x00\x00\x00\x00\x00\x00\x00\x00\x00\x00\x00\x80?\x00\x00\x80?\x00\x00\x00\x00\x00\x00\x00\x00\x00\x00\x80?\x00\x00\x80?\x00\x00\x00\x00\x00\x00\x00\x00\x00\x00\x00\x00\x00\x00\x80?\x00\x00\x80?\x00\x00\x00\x00\x00\x00\x00\x00\x00\x00\x80?\x00\x00\x00\x00\x00\x00\x00\x00\x00\x00\x80?\x00\x00\x80?\x00\x00\x80?\x00\x00\x00\x00\x00\x00\x80?\x00\x00\x80?\x00\x00\x80?\x00\x00\x80?\x00\x00\x80?\x00\x00\x00\x00\x00\x00\x00\x00\x00\x00\x80?\x00\x00\x00\x00\x00\x00\x00\x00\x00\x00\x80?\x00\x00\x00\x00\x00\x00\x00\x00\x00\x00\x80?\x00\x00\x80?\x00\x00\x80?\x00\x00\x80?\x00\x00\x00\x00\x00\x00\x00\x00\x00\x00\x80?\x00\x00\x80?\x00\x00\x00\x00\x00\x00\x80?\x00\x00\x00\x00\x00\x00\x00\x00\x00\x00\x00\x00\x00\x00\x00\x00\x00\x00\x80?\x00\x00\x00\x00\x00\x00\x00\x00\x00\x00\x80?\x00\x00\x00\x00\x00\x00\x00\x00\x00\x00\x80?\x00\x00\x80?\x00\x00\x00\x00\x00\x00\x80?\x00\x00\x00\x00\x00\x00\x00\x00\x00\x00\x00\x00\x00\x00\x00\x00\x00\x00\x80?\x00\x00\x80?\x00\x00\x00\x00\x00\x00\x80?\x00\x00\x00\x00\x00\x00\x00\x00\x00\x00\x00\x00'
S'\x00\x00\x00\x00\x00\x00\x00\x00\x00\x00\x00\x00\x00\x00\x00\x00\x00\x00\x00\x00\x00\x00\x00\x00\x00\x00\x00\x00\x00\x00\x00\x00\x00\x00\x00\x00\x00\x00\x00\x00\x00\x00\x00\x00\x00\x00\x00\x00\x00\x00\x00\x00\x00\x00\x00\x00\x00\x00\x00\x00\x00\x00\x00\x00\x00\x00\x00\x00\x00\x00\x00\x00\x00\x00\x00\x00\x00\x00\x00\x00\x00\x00\x00\x00\x00\x00\x00\x00\x00\x00\x00\x00\x00\x00\x00\x00'
Ntbsg14
g1162
(g1163
g1158
g1164
S'b'
tRp1170
(I1
(I96
I1
tg1166
I00
S'\xcc\xdam@\xe4\xa1uC\xaa$\xd3C\xd2i\x88B\x98s\x1bBCU\x15C\xf1tKA5\x81(CP \xc2C\x7f\xa4\x84C<\xd3\xe1CM\xeeFC\xdd:\xc7B\xcfe\xc7C3F?C\x14}\x1cC5>\x80C\xd3\x94\x8fCm\xb8]Cs_\xceC5>\xaeC\xcb\xe1\xd4Ct\xc4\xa4C\xfe\xf30C!F\xcaC\x0c\x8d4C\xb4\x8dqC\xe6o\x9bC\x18\xb6[B\x9d\x17\xb7C\xe5M\x11C\xaf\x88:C\x8c\xa3\xc5C\xbbn\xf6B\x9f\x99\xd8Cp\xc0\xa6CmepB\xb2\xfd\x18C\xef\xf9\xeeB\xc0\x8f\x96CQ\\\xd5B\xc9\xd1\x87C\xb0\xa7\nB\xa8\xe8\xdeC\xd8T\xacB\x88I\xa9C\xb6\xdb\xa2C\t\xaahC+>ZC\xc3"\xa5B{\xabHBvc\x8fB\xc9\xc3\xc3C\xd1\x14\xbaB\x81R\xdfBXC\xdcC\xd0pyC\xcb\xc3*B\xf1\x1a\xb7A\xc0Y\x82A\xa5F\x04C\x19\x14\xb3C\xa7\xb9VC\xea9\xbbC\x7f4\xceBY\xc5\xb8C\x86(:B\x87`eC\xc5\xeb\xe7B\x86\xd5\xbeCH\xb4\xccC\x82\xee\x81C\x13BJC1s\xfeB\xdc\x1d\x8bC\xcee\x99CA\x8d"C~t\x08C\xd9\x08-C\x7f\xeb\xbcCi\xd5\xb0C\x05U\xd0C\nJ\x9dAzX\x9fC\xb4\xae\x94C\x1f\x14}C\x04\xf0\xb4C$\xf8\xe6A\x10\xb1BC|\xf6\x8dC\xd54\xb3B\x89\x12\tA\xcd\x80\x89C|\x13\xabC\xf9\x02\x9aB\xaa\xcf\x91C'
S'\x00\x00\x00\x00\x00\x00\x00\x00\x00\x00\x00\x00\x00\x00\x00\x00\x00\x00\x00\x00\x00\x00\x00\x00\x00\x00\x00\x00\x00\x00\x00\x00\x00\x00\x00\x00\x00\x00\x00\x00\x00\x00\x00\x00\x00\x00\x00\x00\x00\x00\x00\x00\x00\x00\x00\x00\x00\x00\x00\x00\x00\x00\x00\x00\x00\x00\x00\x00\x00\x00\x00\x00\x00\x00\x00\x00\x00\x00\x00\x00\x00\x00\x00\x00\x00\x00\x00\x00\x00\x00\x00\x00\x00\x00\x00\x00'
Ntbsg16
g1157
(g1158
(I0
tS'b'
tRp1171
(I1
(I96
I1
tg1160
I00
(lp1172
g71
ag648
ag1077
ag238
ag170
ag439
ag100
ag483
ag989
ag703
ag1132
ag560
ag317
ag1022
ag538
ag461
ag681
ag758
ag604
ag1055
ag890
ag1088
ag846
ag505
ag1033
ag516
ag637
ag813
ag215
ag934
ag428
ag527
ag1011
ag383
ag1099
ag857
ag226
ag450
ag372
ag791
ag339
ag714
ag159
ag1121
ag284
ag868
ag835
ag626
ag593
ag273
ag204
ag250
ag1000
ag306
ag350
ag1110
ag659
ag181
ag136
ag111
ag406
ag912
ag582
ag956
ag328
ag945
ag192
ag615
ag361
ag978
ag1044
ag692
ag571
ag394
ag736
ag802
ag472
ag417
ag494
ag967
ag901
ag1066
ag124
ag824
ag780
ag670
ag923
ag148
ag549
ag747
ag295
ag87
ag725
ag879
ag261
ag769
atbsg15
g1157
(g1158
(I0
tS'b'
tRp1173
(I1
(I96
I1
tg1160
I00
(lp1174
g72
ag88
ag72
ag72
ag72
ag72
ag72
ag88
ag88
ag88
ag88
ag72
ag88
ag88
ag88
ag72
ag72
ag72
ag88
ag72
ag72
ag88
ag72
ag72
ag72
ag88
ag72
ag72
ag88
ag88
ag88
ag88
ag88
ag88
ag88
ag88
ag88
ag72
ag88
ag88
ag88
ag88
ag88
ag72
ag88
ag72
ag88
ag88
ag72
ag88
ag72
ag88
ag72
ag72
ag88
ag72
ag88
ag72
ag72
ag88
ag72
ag72
ag88
ag88
ag88
ag88
ag72
ag88
ag88
ag88
ag72
ag88
ag72
ag72
ag88
ag88
ag88
ag88
ag88
ag72
ag72
ag72
ag88
ag72
ag88
ag72
ag72
ag88
ag88
ag88
ag72
ag88
ag72
ag72
ag88
ag88
atbsg22
g1162
(g1163
g1158
g1164
S'b'
tRp1175
(I1
(I96
I1
tg1166
I00
S'\x9e\x99\xd4@ zwC\xb6\xf0\xd3C\xf0p\x8bB\xce\xde"Bf\x16\x17C\xb0\xeceA\x7f\xbd*C\xdd\xce\xc2C\x8d\xe4\x86C\xf3\xea\xe2CW]HC\xd9<\xcaB\xff+\xc9C\x81\xbf@C\x93\x96 Cl\xfd\x80C\xc6\xc8\x90C\x0eKcC\x8cT\xcfC\x14\xda\xafC\x00\x15\xd7C\xf1\xc8\xa5C\xa6\x8e2C\xcf4\xcbC\xb2\x878C\xfc\x8esC%\x19\x9eC\xa6\x8ahBD\xd4\xb7C\xb4c\x13C\xb6\xe3<C\xb9t\xc6C\xff\xb3\xfaB\xff>\xdbC\xc4\x0c\xa8CAN\x84B\xd5\x83\x1aC\xe8\xbe\xf2B-i\x98C\x87t\xdbB\xe4\x82\x88C\xf0\xa2\x13B\xe0\xe0\xe0C\x96L\xafBF\x1d\xaaC=\xce\xa3C\xf0DoC"\xd1[C\x98l\xa8B\xe0iRB\xf0P\x92B\x9e\xae\xc4C\x14>\xc3BY\xd5\xe3B>N\xddC\xdc\x1a{CA92B\x88\x93\xc2A\x8e\xbd\x8dA\xf2\x82\x06CB\xee\xb3C\x0bJXC\xfa\xfc\xbbC\x10t\xd1B\x80\x1e\xbaC\xbb\xd0@BM\xc5fC\x9e5\xebB$\x18\xc1C\xf4g\xcdC\xc8\x90\x83C {TC\x84\x17\x02CU\xe5\x8cCKj\x9aC\x7fa&C0\xa6\x0eC\xd2\xff.C\xb9\xe5\xbdCl\xee\xb1C\xf7\xcc\xd1C\x12\xf5\xa7A\xf4\xc2\xa1Ch\x94\x95C\xe5\x9c~C\xd6\x1e\xb6C\xbc\xeb\x02B{\xf2DC\xea\x96\x8eC\x9fU\xb6B\x1e\xae,A~+\x8aC\x0b\xb7\xacC&h\xa0B[\xb3\x93C'
S'\x00\x00\x00\x00\x00\x00\x00\x00\x00\x00\x00\x00\x00\x00\x00\x00\x00\x00\x00\x00\x00\x00\x00\x00\x00\x00\x00\x00\x00\x00\x00\x00\x00\x00\x00\x00\x00\x00\x00\x00\x00\x00\x00\x00\x00\x00\x00\x00\x00\x00\x00\x00\x00\x00\x00\x00\x00\x00\x00\x00\x00\x00\x00\x00\x00\x00\x00\x00\x00\x00\x00\x00\x00\x00\x00\x00\x00\x00\x00\x00\x00\x00\x00\x00\x00\x00\x00\x00\x00\x00\x00\x00\x00\x00\x00\x00'
Ntbsg26
g1157
(g1158
(I0
tS'b'
tRp1176
(I1
(I96
I1
tg1160
I00
(lp1177
S'5.0'
p1178
ag36
(g80
S'\x04\x00\x00\x00'
tRp1179
ag36
(g80
S'\n\x00\x00\x00'
tRp1180
ag36
(g80
S'\x02\x00\x00\x00'
tRp1181
ag36
(g80
S'\x05\x00\x00\x00'
tRp1182
ag36
(g80
S'\x04\x00\x00\x00'
tRp1183
ag36
(g80
S'\x01\x00\x00\x00'
tRp1184
ag36
(g80
S'\x01\x00\x00\x00'
tRp1185
aI1
ag36
(g80
S'\x02\x00\x00\x00'
tRp1186
ag36
(g80
S'\t\x00\x00\x00'
tRp1187
ag36
(g80
S'\x01\x00\x00\x00'
tRp1188
ag36
(g80
S'\x04\x00\x00\x00'
tRp1189
ag36
(g80
S'\x07\x00\x00\x00'
tRp1190
ag36
(g80
S'\x01\x00\x00\x00'
tRp1191
ag36
(g80
S'\x06\x00\x00\x00'
tRp1192
ag36
(g80
S'\x01\x00\x00\x00'
tRp1193
ag36
(g80
S'\x04\x00\x00\x00'
tRp1194
ag36
(g80
S'\x05\x00\x00\x00'
tRp1195
ag36
(g80
S'\x05\x00\x00\x00'
tRp1196
ag36
(g80
S'\x06\x00\x00\x00'
tRp1197
ag36
(g80
S'\r\x00\x00\x00'
tRp1198
ag36
(g80
S'\x04\x00\x00\x00'
tRp1199
ag36
(g80
S'\x02\x00\x00\x00'
tRp1200
ag36
(g80
S'\x05\x00\x00\x00'
tRp1201
ag36
(g80
S'\x04\x00\x00\x00'
tRp1202
ag36
(g80
S'\x05\x00\x00\x00'
tRp1203
ag36
(g80
S'\x04\x00\x00\x00'
tRp1204
ag36
(g80
S'\x03\x00\x00\x00'
tRp1205
ag36
(g80
S'\x02\x00\x00\x00'
tRp1206
ag36
(g80
S'\x05\x00\x00\x00'
tRp1207
ag36
(g80
S'\x02\x00\x00\x00'
tRp1208
ag36
(g80
S'\x04\x00\x00\x00'
tRp1209
ag36
(g80
S'\x06\x00\x00\x00'
tRp1210
ag36
(g80
S'\x0c\x00\x00\x00'
tRp1211
ag36
(g80
S'\x06\x00\x00\x00'
tRp1212
ag36
(g80
S'\x05\x00\x00\x00'
tRp1213
ag36
(g80
S'\x03\x00\x00\x00'
tRp1214
ag36
(g80
S'\x03\x00\x00\x00'
tRp1215
ag36
(g80
S'\x03\x00\x00\x00'
tRp1216
ag36
(g80
S'\x07\x00\x00\x00'
tRp1217
ag36
(g80
S'\x01\x00\x00\x00'
tRp1218
ag36
(g80
S'\x06\x00\x00\x00'
tRp1219
ag36
(g80
S'\x0c\x00\x00\x00'
tRp1220
ag36
(g80
S'\x02\x00\x00\x00'
tRp1221
ag36
(g80
S'\x05\x00\x00\x00'
tRp1222
ag36
(g80
S'\x02\x00\x00\x00'
tRp1223
ag36
(g80
S'\x06\x00\x00\x00'
tRp1224
ag36
(g80
S'\x04\x00\x00\x00'
tRp1225
ag36
(g80
S'\x01\x00\x00\x00'
tRp1226
ag36
(g80
S'\x02\x00\x00\x00'
tRp1227
ag36
(g80
S'\x01\x00\x00\x00'
tRp1228
ag36
(g80
S'\x03\x00\x00\x00'
tRp1229
ag36
(g80
S'\x05\x00\x00\x00'
tRp1230
ag36
(g80
S'\x05\x00\x00\x00'
tRp1231
ag36
(g80
S'\t\x00\x00\x00'
tRp1232
ag36
(g80
S'\x03\x00\x00\x00'
tRp1233
ag36
(g80
S'\x04\x00\x00\x00'
tRp1234
ag36
(g80
S'\x04\x00\x00\x00'
tRp1235
ag36
(g80
S'\x02\x00\x00\x00'
tRp1236
ag36
(g80
S'\x07\x00\x00\x00'
tRp1237
ag36
(g80
S'\x03\x00\x00\x00'
tRp1238
ag36
(g80
S'\x01\x00\x00\x00'
tRp1239
ag36
(g80
S'\x02\x00\x00\x00'
tRp1240
ag36
(g80
S'\x06\x00\x00\x00'
tRp1241
ag36
(g80
S'\x03\x00\x00\x00'
tRp1242
ag36
(g80
S'\x03\x00\x00\x00'
tRp1243
ag36
(g80
S'\x03\x00\x00\x00'
tRp1244
ag36
(g80
S'\x02\x00\x00\x00'
tRp1245
ag36
(g80
S'\x02\x00\x00\x00'
tRp1246
ag36
(g80
S'\x02\x00\x00\x00'
tRp1247
ag36
(g80
S'\x04\x00\x00\x00'
tRp1248
ag36
(g80
S'\x03\x00\x00\x00'
tRp1249
ag36
(g80
S'\x08\x00\x00\x00'
tRp1250
ag36
(g80
S'\x03\x00\x00\x00'
tRp1251
ag36
(g80
S'\x02\x00\x00\x00'
tRp1252
ag36
(g80
S'\x04\x00\x00\x00'
tRp1253
ag36
(g80
S'\x06\x00\x00\x00'
tRp1254
aI1
ag36
(g80
S'\x03\x00\x00\x00'
tRp1255
ag36
(g80
S'\x04\x00\x00\x00'
tRp1256
ag36
(g80
S'\x08\x00\x00\x00'
tRp1257
aI1
ag36
(g80
S'\x03\x00\x00\x00'
tRp1258
ag36
(g80
S'\x02\x00\x00\x00'
tRp1259
ag36
(g80
S'\x02\x00\x00\x00'
tRp1260
ag36
(g80
S'\x04\x00\x00\x00'
tRp1261
ag36
(g80
S'\x07\x00\x00\x00'
tRp1262
ag36
(g80
S'\x04\x00\x00\x00'
tRp1263
aI1
ag36
(g80
S'\x03\x00\x00\x00'
tRp1264
ag36
(g80
S'\x02\x00\x00\x00'
tRp1265
ag36
(g80
S'\x02\x00\x00\x00'
tRp1266
ag36
(g80
S'\x07\x00\x00\x00'
tRp1267
ag36
(g80
S'\x04\x00\x00\x00'
tRp1268
ag36
(g80
S'\x03\x00\x00\x00'
tRp1269
atbsg21
g1162
(g1163
g1158
g1164
S'b'
tRp1270
(I1
(I96
I1
tg1166
I00
S'\x18\x8f\xce?Y*\r?\x12f\x80>\xb2d\x80>\x03\xbc\x0f?\xaaI\xf1>\xd6\\\xcd>\xc1{{?\xe4V\xe2=3\x8bN@p\x17Z??\xf38>h\xfda>ug\x0e@\x98\x04b>\x1d\xf72@\xd1\x86v>\x86\xb3\x8f?\xf3\xf1\x88@\x16\x90\x1c?\x1e\x0e\xf5?\x92\xb4A@\xddy@?D\x94\xae>\x00\xbb\x0f?\xff\x89,@376?\x93?\x81@X\x9b\xf7?V\xbeW>\xfa\xbcJ?*\xd5\x8b?a\xb4\xb3>\xdd\x00U?\'n{@\xce9\xa4?\xa3V\x98@\x00f\x80>\xe0\xfd\x19?\\;\x1b@\x13\xf4\xdd?o\xa9\x05>P.q?\xa5\xda$@O\x01b>\xca\xd7\xb8>\xd1\xb0!?\xb6V\xa9@\xe8\xeb\x94>\xd7;\xc8>D\x1d\x96?-xM>\xf0\xba\x0f?VdR@\xfeZv?\x9ay@?\x07<\xc8>\x18\xdd\x14?\x94H\x1a>\xf8n$>+\x17l?<\xc4\xdc></\x9f>te\x80>\xefO\xa4>$\xe7\xb4?\x9c=\xc8>\x99\xc2\xf6=\xcc\x1b\xc3>\xf4wP@\x9d\xe6\x0f>b\xbd\xfc?\xe71\x0fA\x8c\x94\xc5?\xc1@\x12@m\nC?:\xef"@\x0c\x82\x9c@Q,6?D\x84.?r\x86i?\xa4F\xcd?\x0c\xa9\xa4=\xb2\xb5c@%\n\x08?\xce\xac\x85>m\x92\x8a?\xff\xed"@\x98\xebx?\x80\x0e\x839;\xec\x94>\xb0Zv?\xa1\x1b\x90=\xd9,\xfa?x\n\xf5?\xe5\\ @'
S'\x00\x00\x00\x00\x00\x00\x00\x00\x00\x00\x00\x00\x00\x00\x00\x00\x00\x00\x00\x00\x00\x00\x00\x00\x00\x00\x00\x00\x00\x00\x00\x00\x00\x00\x00\x00\x00\x00\x00\x00\x00\x00\x00\x00\x00\x00\x00\x00\x00\x00\x00\x00\x00\x00\x00\x00\x00\x00\x00\x00\x00\x00\x00\x00\x00\x00\x00\x00\x00\x00\x00\x00\x00\x00\x00\x00\x00\x00\x00\x00\x00\x00\x00\x00\x00\x00\x00\x00\x00\x00\x00\x00\x00\x00\x00\x00'
NtbsS'order'
p1271
g1162
(g1163
g1158
g1164
S'b'
tRp1272
(I1
(I96
I1
tg1166
I00
S'\x00\x00\x00\x00\x00\x00LB\x00\x00\xb4B\x00\x00`A\x00\x00\x00A\x00\x00\x00B\x00\x00\x00@\x00\x00\x10B\x00\x00\xa4B\x00\x00`B\x00\x00\xbeB\x00\x00,B\x00\x00\xa8A\x00\x00\xaaB\x00\x00$B\x00\x00\x08B\x00\x00XB\x00\x00tB\x00\x00<B\x00\x00\xb0B\x00\x00\x92B\x00\x00\xb6B\x00\x00\x8aB\x00\x00\x18B\x00\x00\xacB\x00\x00\x1cB\x00\x00HB\x00\x00\x84B\x00\x00@A\x00\x00\x9aB\x00\x00\xf8A\x00\x00 B\x00\x00\xa8B\x00\x00\xd8A\x00\x00\xb8B\x00\x00\x8cB\x00\x00PA\x00\x00\x04B\x00\x00\xd0A\x00\x00\x80B\x00\x00\xb8A\x00\x00dB\x00\x00\xe0@\x00\x00\xbcB\x00\x00\x90A\x00\x00\x8eB\x00\x00\x88B\x00\x00DB\x00\x008B\x00\x00\x88A\x00\x000A\x00\x00pA\x00\x00\xa6B\x00\x00\xa0A\x00\x00\xc0A\x00\x00\xbaB\x00\x00PB\x00\x00\x10A\x00\x00\xa0@\x00\x00@@\x00\x00\xe8A\x00\x00\x96B\x00\x004B\x00\x00\x9eB\x00\x00\xb0A\x00\x00\x9cB\x00\x00 A\x00\x00@B\x00\x00\xc8A\x00\x00\xa2B\x00\x00\xaeB\x00\x00\\B\x00\x000B\x00\x00\xe0A\x00\x00lB\x00\x00\x82B\x00\x00\x0cB\x00\x00\xf0A\x00\x00\x14B\x00\x00\xa0B\x00\x00\x94B\x00\x00\xb2B\x00\x00\x80@\x00\x00\x86B\x00\x00|B\x00\x00TB\x00\x00\x98B\x00\x00\xc0@\x00\x00(B\x00\x00pB\x00\x00\x98A\x00\x00\x80?\x00\x00hB\x00\x00\x90B\x00\x00\x80A\x00\x00xB'
S'\x00\x00\x00\x00\x00\x00\x00\x00\x00\x00\x00\x00\x00\x00\x00\x00\x00\x00\x00\x00\x00\x00\x00\x00\x00\x00\x00\x00\x00\x00\x00\x00\x00\x00\x00\x00\x00\x00\x00\x00\x00\x00\x00\x00\x00\x00\x00\x00\x00\x00\x00\x00\x00\x00\x00\x00\x00\x00\x00\x00\x00\x00\x00\x00\x00\x00\x00\x00\x00\x00\x00\x00\x00\x00\x00\x00\x00\x00\x00\x00\x00\x00\x00\x00\x00\x00\x00\x00\x00\x00\x00\x00\x00\x00\x00\x00'
Ntbsg19
g1162
(g1163
g1158
g1164
S'b'
tRp1273
(I1
(I96
I1
tg1166
I00
S'\x00\x00\x80?\x00\x00\x80?\x00\x00\x80?\x00\x00\x80?\x00\x00\x00\x00\x00\x00\x00\x00\x00\x00\x00\x00\x00\x00\x00\x00\x00\x00\x80?\x00\x00\x80?\x00\x00\x80?\x00\x00\x80?\x00\x00\x80?\x00\x00\x80?\x00\x00\x80?\x00\x00\x80?\x00\x00\x80?\x00\x00\x80?\x00\x00\x80?\x00\x00\x00\x00\x00\x00\x00\x00\x00\x00\x80?\x00\x00\x80?\x00\x00\x80?\x00\x00\x80?\x00\x00\x80?\x00\x00\x80?\x00\x00\x80?\x00\x00\x80?\x00\x00\x80?\x00\x00\x80?\x00\x00\x80?\x00\x00\x00\x00\x00\x00\x80?\x00\x00\x80?\x00\x00\x80?\x00\x00\x80?\x00\x00\x00\x00\x00\x00\x80?\x00\x00\x80?\x00\x00\x80?\x00\x00\x80?\x00\x00\x00\x00\x00\x00\x80?\x00\x00\x80?\x00\x00\x80?\x00\x00\x80?\x00\x00\x80?\x00\x00\x00\x00\x00\x00\x00\x00\x00\x00\x80?\x00\x00\x00\x00\x00\x00\x80?\x00\x00\x80?\x00\x00\x80?\x00\x00\x00\x00\x00\x00\x80?\x00\x00\x00\x00\x00\x00\x00\x00\x00\x00\x80?\x00\x00\x80?\x00\x00\x80?\x00\x00\x80?\x00\x00\x80?\x00\x00\x80?\x00\x00\x80?\x00\x00\x80?\x00\x00\x80?\x00\x00\x80?\x00\x00\x00\x00\x00\x00\x80?\x00\x00\x00\x00\x00\x00\x80?\x00\x00\x80?\x00\x00\x80?\x00\x00\x00\x00\x00\x00\x00\x00\x00\x00\x80?\x00\x00\x80?\x00\x00\x80?\x00\x00\x80?\x00\x00\x80?\x00\x00\x80?\x00\x00\x00\x00\x00\x00\x00\x00\x00\x00\x80?\x00\x00\x80?\x00\x00\x00\x00\x00\x00\x80?\x00\x00\x80?\x00\x00\x00\x00\x00\x00\x00\x00\x00\x00\x00\x00\x00\x00\x80?\x00\x00\x80?\x00\x00\x80?'
S'\x00\x00\x00\x00\x00\x00\x00\x00\x00\x00\x00\x00\x00\x00\x00\x00\x00\x00\x00\x00\x00\x00\x00\x00\x00\x00\x00\x00\x00\x00\x00\x00\x00\x00\x00\x00\x00\x00\x00\x00\x00\x00\x00\x00\x00\x00\x00\x00\x00\x00\x00\x00\x00\x00\x00\x00\x00\x00\x00\x00\x00\x00\x00\x00\x00\x00\x00\x00\x00\x00\x00\x00\x00\x00\x00\x00\x00\x00\x00\x00\x00\x00\x00\x00\x00\x00\x00\x00\x00\x00\x00\x00\x00\x00\x00\x00'
Ntbsg27
g1157
(g1158
(I0
tS'b'
tRp1274
(I1
(I96
I1
tg1160
I00
(lp1275
g76
ag650
ag1079
ag241
ag172
ag441
ag102
ag485
ag991
ag705
ag1134
ag562
ag319
ag1024
ag540
ag463
ag683
ag760
ag606
ag1057
ag892
ag1090
ag848
ag507
ag1035
ag518
ag639
ag815
ag217
ag936
ag430
ag529
ag1013
ag385
ag1101
ag859
ag229
ag452
ag374
ag793
ag341
ag716
ag161
ag1123
ag286
ag870
ag837
ag628
ag595
ag275
ag206
ag252
ag1002
ag308
ag352
ag1112
ag661
ag183
ag139
ag115
ag408
ag914
ag584
ag958
ag330
ag947
ag195
ag617
ag363
ag980
ag1046
ag694
ag573
ag397
ag738
ag804
ag474
ag419
ag496
ag969
ag903
ag1068
ag127
ag826
ag782
ag672
ag925
ag150
ag551
ag749
ag297
ag91
ag727
ag881
ag264
ag771
atbsg23
g1157
(g1158
(I0
tS'b'
tRp1276
(I1
(I96
I1
tg1160
I00
(lp1277
S'3'
aS'2'
aS'1'
aS'2'
aS'2'
aS'2'
aS'1'
aS'2'
aS'1'
aS'2'
aS'3'
aS'1'
aS'1'
aS'3'
aS'1'
aS'3'
aS'1'
aS'2'
aS'3'
aS'1'
aS'3'
aS'2'
aS'1'
aS'1'
aS'3'
aS'3'
aS'2'
aS'2'
aS'1'
aS'1'
aS'2'
aS'2'
aS'1'
aS'1'
aS'3'
aS'2'
aS'3'
aS'1'
aS'1'
aS'2'
aS'3'
aS'1'
aS'2'
aS'3'
aS'1'
aS'1'
aS'1'
aS'2'
aS'1'
aS'1'
aS'1'
aS'1'
aS'1'
aS'2'
aS'3'
aS'1'
aS'2'
aS'2'
aS'1'
aS'3'
aS'2'
aS'1'
aS'1'
aS'1'
aS'1'
aS'2'
aS'2'
aS'1'
aS'1'
aS'3'
aS'1'
aS'3'
aS'3'
aS'2'
aS'3'
aS'1'
aS'3'
aS'2'
aS'1'
aS'2'
aS'2'
aS'1'
aS'1'
aS'2'
aS'1'
aS'2'
aS'3'
aS'2'
aS'3'
aS'1'
aS'1'
aS'2'
aS'1'
aS'2'
aS'3'
aS'2'
atbsg18
g1162
(g1163
g1158
g1164
S'b'
tRp1278
(I1
(I96
I1
tg1166
I00
S'S\xf9\x9f@\xb2\xe7vC\xfb\xcd\xd3C\x07\xe6\x8aB\xce\x8a B\x7f\x98\x16C\x91-_A\xc0\xbc)C\x15\xbe\xc2C\xd5D\x85CE{\xe2C\xd7)HCT\xc1\xc9B\x8f\x0c\xc8C\xbd\x81@Cs\xc5\x1dC\xfa\xdb\x80Cq6\x90C:\xfe^CZ\x02\xcfCd\xe2\xaeC\xf5\x8e\xd5C\x13f\xa5C\x1922CP\xea\xcaCE\xd05C\x82\xd3rC\x85\x11\x9cC\xc2\xb8`B\xab\xb6\xb7C\xb3\x93\x12C\xca\xc6;C+E\xc6Cw\xff\xf8B\x81E\xd9C\x9fd\xa7C\xa3|uB]>\x1aCG{\xf1B\x160\x97C1\xf2\xd7B\x8eo\x88C)\xc9\x0fB\x89\x94\xdfC\x10\xd1\xaeBn\xec\xa9C\xc4z\xa3C\xf8\xf4iCh\x81[C\xd9\x99\xa7B\xe6\xa3MB\x8a\xda\x91B\x1fd\xc4Cl\xa0\xbcB\x1d\xde\xe1B_\xeb\xdcC|\xb1zC\xbf\xd0/B\xd94\xc1A\x9eJ\x8cA\x94\x91\x05Co\xb4\xb3C1\xf5WC@\xda\xbbC<\xc5\xd0B\xf7f\xb9C5+?B3\xa1fC\xfbg\xeaB\x93t\xbfCUS\xcdCi\x91\x82C\xbf\x82KC:\x87\x00C2\xbe\x8bC\xdc\x04\x9aC~\xd0#C\xdc\xbc\tCdD.C\xd5\x8b\xbdC\x07w\xb1C\x0e\xfd\xd0CX&\xa7A\xd0\xf8\x9fC\xc2M\x95C\xcaT~C\xa2\x91\xb5C\x9cO\xf1AM\xf4CCA\x94\x8eC-\xb6\xb5B?\xf4\x1cA\xda\x1f\x8aC<\xba\xabCr\x89\x9cB\x00p\x92C'
S'\x00\x00\x00\x00\x00\x00\x00\x00\x00\x00\x00\x00\x00\x00\x00\x00\x00\x00\x00\x00\x00\x00\x00\x00\x00\x00\x00\x00\x00\x00\x00\x00\x00\x00\x00\x00\x00\x00\x00\x00\x00\x00\x00\x00\x00\x00\x00\x00\x00\x00\x00\x00\x00\x00\x00\x00\x00\x00\x00\x00\x00\x00\x00\x00\x00\x00\x00\x00\x00\x00\x00\x00\x00\x00\x00\x00\x00\x00\x00\x00\x00\x00\x00\x00\x00\x00\x00\x00\x00\x00\x00\x00\x00\x00\x00\x00'
Ntbsg25
g1162
(g1163
g1158
g1164
S'b'
tRp1279
(I1
(I96
I1
tg1166
I00
S"\xe63C>\x8aBl>z6\x1a>Y\x85v>\xa4\x89v>\x1f\xb0.>\xeb:C>\x93\xba\x0f?.\xf18>N\xc1\xf6=2\x85\x85>\xcdo$>\x18c\x80>%G\xf1>\xa3\xbcW>kAl>Y-\x1a>UO\xa4>\x80\xb4\xb3>\x96\x85\x85>\xe6Dl>\x94\xca\xa6?\x1fxM>\xa0\x85\x85>4\xa9\xa1?x\xa7\x8a>\xa9~\xae>\\\nC? @l>\xcb'\x1a>:\xbdW>\xa8\xd1&?\xd7*\x1a>\xb4\xe5\x0f>C\x0c\x9a>\x04\xe9=?\xcaO\xa4>V\x85v>.R\xe2=\xac\x88v>\x0b}M>\xe0c\x80>\r\tb>$y$>\x1d\x00b>W8C>\x90<C>!*\r?/\xb0.>\xb7\xfda>\xfal\x17?.Y\x07@\xf3\xf28>\x15\x87\x85>'5\x9f>\xfaP\xbb?e\x8av>\xadd\x80>*?4@\xb2\xbdW>X\xcaW>\xd2\xc8\x8f>\xd8\xd6a>/\xa6\x05>\xd9\xfea>\xa6h\xf6>BCl>\xedC$>i6\x1a>Vs\xa9>a|M>\xc5\x9f\xd7>\xb9\xe6\x02?R\xef\xe6>\xb5^\xcd>\xf8-\x9f>\x02:\xc8>\xec\x16l?\x02\x07b>\x80\xe5\x0f>\xe3\xbb\x0f?\xa29q?\\k$>\x1a&\xec>JBl>\x98\xe6\x0f>R\xbbW>%|M>QP\x80>\x7fO\x80>z\xf3\x0f>{4C>\x11q$>6[\xa9?\xa9\xb1!?KAl>"
S'\x00\x00\x00\x00\x00\x00\x00\x00\x00\x00\x00\x00\x00\x00\x00\x00\x00\x00\x00\x00\x00\x00\x00\x00\x00\x00\x00\x00\x00\x00\x00\x00\x00\x00\x00\x00\x00\x00\x00\x00\x00\x00\x00\x00\x00\x00\x00\x00\x00\x00\x00\x00\x00\x00\x00\x00\x00\x00\x00\x00\x00\x00\x00\x00\x00\x00\x00\x00\x00\x00\x00\x00\x00\x00\x00\x00\x00\x00\x00\x00\x00\x00\x00\x00\x00\x00\x00\x00\x00\x00\x00\x00\x00\x00\x00\x00'
NtbstRp1280
(dp1281
S'isNumeric'
p1282
(dp1283
g23
I00
sg20
I00
sg17
I01
sg1167
I01
sg22
I01
sg24
I01
sg14
I01
sg18
I01
sg16
I00
sg19
I01
sg26
I00
sg27
I00
sg15
I00
sg21
I01
sg1271
I01
sg25
I01
ssg1151
g1145
sS'dataTypes'
p1284
(lp1285
g1167
ag1271
ag14
ag15
ag16
ag17
ag18
ag19
ag20
ag21
ag22
ag23
ag24
ag25
ag26
ag27
asS'dataShape'
p1286
(lp1287
I96
aI1
asbsS'method'
p1288
S'random'
p1289
sS'sequenceIndices'
p1290
g1157
(g1158
(I0
tS'b'
tRp1291
(I1
(I96
I1
tg80
I01
S'\x00\x00\x00\x00[\x00\x00\x00\x06\x00\x00\x00;\x00\x00\x00R\x00\x00\x00:\x00\x00\x00W\x00\x00\x00*\x00\x00\x00\x04\x00\x00\x009\x00\x00\x00B\x00\x00\x002\x00\x00\x00\x1c\x00\x00\x00$\x00\x00\x00\x03\x00\x00\x003\x00\x00\x00^\x00\x00\x001\x00\x00\x00,\x00\x00\x00Z\x00\x00\x005\x00\x00\x00\x0c\x00\x00\x00@\x00\x00\x00(\x00\x00\x006\x00\x00\x00D\x00\x00\x00&\x00\x00\x00!\x00\x00\x00I\x00\x00\x00<\x00\x00\x00M\x00\x00\x00\x1e\x00\x00\x00\x05\x00\x00\x00%\x00\x00\x00\x0f\x00\x00\x00L\x00\x00\x00\x07\x00\x00\x00N\x00\x00\x00\x17\x00\x00\x00\x19\x00\x00\x00\x1f\x00\x00\x00\x0e\x00\x00\x00X\x00\x00\x00\x0b\x00\x00\x00H\x00\x00\x00>\x00\x00\x000\x00\x00\x00\x12\x00\x00\x00C\x00\x00\x00/\x00\x00\x00\x1a\x00\x00\x00\x01\x00\x00\x008\x00\x00\x00U\x00\x00\x00\x10\x00\x00\x00G\x00\x00\x00\t\x00\x00\x00)\x00\x00\x00\\\x00\x00\x00J\x00\x00\x00Y\x00\x00\x00\x11\x00\x00\x00_\x00\x00\x00T\x00\x00\x00\'\x00\x00\x00K\x00\x00\x00\x1b\x00\x00\x00S\x00\x00\x00.\x00\x00\x00\x16\x00\x00\x00#\x00\x00\x00-\x00\x00\x00]\x00\x00\x00\x14\x00\x00\x00P\x00\x00\x00=\x00\x00\x00V\x00\x00\x00\x1d\x00\x00\x00A\x00\x00\x00?\x00\x00\x00O\x00\x00\x00E\x00\x00\x00\x08\x00\x00\x004\x00\x00\x00 \x00\x00\x00\r\x00\x00\x00\x18\x00\x00\x00F\x00\x00\x00\x13\x00\x00\x00Q\x00\x00\x00\x02\x00\x00\x00\x15\x00\x00\x00"\x00\x00\x007\x00\x00\x00+\x00\x00\x00\n\x00\x00\x00'
tbsS'finished'
p1292
I01
sS'nReps'
p1293
I1
sS'nRemaining'
p1294
I-1
sS'trialList'
p1295
(lp1296
g1
(cpsychopy.data
TrialType
p1297
g1155
(dp1298
g62
g74
sg63
g84
sg64
g73
sg65
g78
sg66
g83
stRp1299
ag1
(g1297
g1155
(dp1300
g62
g113
sg63
g656
sg64
g125
sg65
g651
sg66
g655
stRp1301
ag1
(g1297
g1155
(dp1302
g62
g74
sg63
g1085
sg64
g73
sg65
g1080
sg66
g1084
stRp1303
ag1
(g1297
g1155
(dp1304
g62
g74
sg63
g247
sg64
g239
sg65
g242
sg66
g246
stRp1305
ag1
(g1297
g1155
(dp1306
g62
g113
sg63
g178
sg64
g112
sg65
g173
sg66
g177
stRp1307
ag1
(g1297
g1155
(dp1308
g62
g74
sg63
g447
sg64
g73
sg65
g442
sg66
g446
stRp1309
ag1
(g1297
g1155
(dp1310
g62
g74
sg63
g108
sg64
g73
sg65
g103
sg66
g107
stRp1311
ag1
(g1297
g1155
(dp1312
g62
g74
sg63
g491
sg64
g89
sg65
g486
sg66
g490
stRp1313
ag1
(g1297
g1155
(dp1314
g62
g74
sg63
g997
sg64
g73
sg65
g992
sg66
g996
stRp1315
ag1
(g1297
g1155
(dp1316
g62
g74
sg63
g711
sg64
g89
sg65
g706
sg66
g710
stRp1317
ag1
(g1297
g1155
(dp1318
g62
g113
sg63
g1140
sg64
g395
sg65
g1135
sg66
g1139
stRp1319
ag1
(g1297
g1155
(dp1320
g62
g74
sg63
g568
sg64
g89
sg65
g563
sg66
g567
stRp1321
ag1
(g1297
g1155
(dp1322
g62
g74
sg63
g325
sg64
g137
sg65
g320
sg66
g324
stRp1323
ag1
(g1297
g1155
(dp1324
g62
g113
sg63
g1030
sg64
g125
sg65
g1025
sg66
g1029
stRp1325
ag1
(g1297
g1155
(dp1326
g62
g74
sg63
g546
sg64
g137
sg65
g541
sg66
g545
stRp1327
ag1
(g1297
g1155
(dp1328
g62
g74
sg63
g469
sg64
g73
sg65
g464
sg66
g468
stRp1329
ag1
(g1297
g1155
(dp1330
g62
g113
sg63
g689
sg64
g125
sg65
g684
sg66
g688
stRp1331
ag1
(g1297
g1155
(dp1332
g62
g74
sg63
g766
sg64
g137
sg65
g761
sg66
g765
stRp1333
ag1
(g1297
g1155
(dp1334
g62
g74
sg63
g612
sg64
g193
sg65
g607
sg66
g611
stRp1335
ag1
(g1297
g1155
(dp1336
g62
g74
sg63
g1063
sg64
g73
sg65
g1058
sg66
g1062
stRp1337
ag1
(g1297
g1155
(dp1338
g62
g113
sg63
g898
sg64
g125
sg65
g893
sg66
g897
stRp1339
ag1
(g1297
g1155
(dp1340
g62
g113
sg63
g1096
sg64
g262
sg65
g1091
sg66
g1095
stRp1341
ag1
(g1297
g1155
(dp1342
g62
g74
sg63
g854
sg64
g193
sg65
g849
sg66
g853
stRp1343
ag1
(g1297
g1155
(dp1344
g62
g113
sg63
g513
sg64
g262
sg65
g508
sg66
g512
stRp1345
ag1
(g1297
g1155
(dp1346
g62
g113
sg63
g1041
sg64
g395
sg65
g1036
sg66
g1040
stRp1347
ag1
(g1297
g1155
(dp1348
g62
g74
sg63
g524
sg64
g227
sg65
g519
sg66
g523
stRp1349
ag1
(g1297
g1155
(dp1350
g62
g113
sg63
g645
sg64
g112
sg65
g640
sg66
g644
stRp1351
ag1
(g1297
g1155
(dp1352
g62
g113
sg63
g821
sg64
g125
sg65
g816
sg66
g820
stRp1353
ag1
(g1297
g1155
(dp1354
g62
g74
sg63
g223
sg64
g137
sg65
g218
sg66
g222
stRp1355
ag1
(g1297
g1155
(dp1356
g62
g74
sg63
g942
sg64
g73
sg65
g937
sg66
g941
stRp1357
ag1
(g1297
g1155
(dp1358
g62
g74
sg63
g436
sg64
g193
sg65
g431
sg66
g435
stRp1359
ag1
(g1297
g1155
(dp1360
g62
g74
sg63
g535
sg64
g193
sg65
g530
sg66
g534
stRp1361
ag1
(g1297
g1155
(dp1362
g62
g113
sg63
g1019
sg64
g125
sg65
g1014
sg66
g1018
stRp1363
ag1
(g1297
g1155
(dp1364
g62
g113
sg63
g391
sg64
g112
sg65
g386
sg66
g390
stRp1365
ag1
(g1297
g1155
(dp1366
g62
g113
sg63
g1107
sg64
g112
sg65
g1102
sg66
g1106
stRp1367
ag1
(g1297
g1155
(dp1368
g62
g74
sg63
g865
sg64
g137
sg65
g860
sg66
g864
stRp1369
ag1
(g1297
g1155
(dp1370
g62
g74
sg63
g235
sg64
g227
sg65
g230
sg66
g234
stRp1371
ag1
(g1297
g1155
(dp1372
g62
g74
sg63
g458
sg64
g239
sg65
g453
sg66
g457
stRp1373
ag1
(g1297
g1155
(dp1374
g62
g113
sg63
g380
sg64
g112
sg65
g375
sg66
g379
stRp1375
ag1
(g1297
g1155
(dp1376
g62
g113
sg63
g799
sg64
g125
sg65
g794
sg66
g798
stRp1377
ag1
(g1297
g1155
(dp1378
g62
g113
sg63
g347
sg64
g125
sg65
g342
sg66
g346
stRp1379
ag1
(g1297
g1155
(dp1380
g62
g74
sg63
g722
sg64
g137
sg65
g717
sg66
g721
stRp1381
ag1
(g1297
g1155
(dp1382
g62
g113
sg63
g167
sg64
g112
sg65
g162
sg66
g166
stRp1383
ag1
(g1297
g1155
(dp1384
g62
g113
sg63
g1129
sg64
g262
sg65
g1124
sg66
g1128
stRp1385
ag1
(g1297
g1155
(dp1386
g62
g113
sg63
g292
sg64
g112
sg65
g287
sg66
g291
stRp1387
ag1
(g1297
g1155
(dp1388
g62
g113
sg63
g876
sg64
g395
sg65
g871
sg66
g875
stRp1389
ag1
(g1297
g1155
(dp1390
g62
g74
sg63
g843
sg64
g73
sg65
g838
sg66
g842
stRp1391
ag1
(g1297
g1155
(dp1392
g62
g74
sg63
g634
sg64
g73
sg65
g629
sg66
g633
stRp1393
ag1
(g1297
g1155
(dp1394
g62
g113
sg63
g601
sg64
g125
sg65
g596
sg66
g600
stRp1395
ag1
(g1297
g1155
(dp1396
g62
g113
sg63
g281
sg64
g262
sg65
g276
sg66
g280
stRp1397
ag1
(g1297
g1155
(dp1398
g62
g113
sg63
g212
sg64
g125
sg65
g207
sg66
g211
stRp1399
ag1
(g1297
g1155
(dp1400
g62
g113
sg63
g258
sg64
g112
sg65
g253
sg66
g257
stRp1401
ag1
(g1297
g1155
(dp1402
g62
g113
sg63
g1008
sg64
g262
sg65
g1003
sg66
g1007
stRp1403
ag1
(g1297
g1155
(dp1404
g62
g74
sg63
g314
sg64
g137
sg65
g309
sg66
g313
stRp1405
ag1
(g1297
g1155
(dp1406
g62
g74
sg63
g358
sg64
g89
sg65
g353
sg66
g357
stRp1407
ag1
(g1297
g1155
(dp1408
g62
g113
sg63
g1118
sg64
g262
sg65
g1113
sg66
g1117
stRp1409
ag1
(g1297
g1155
(dp1410
g62
g113
sg63
g667
sg64
g112
sg65
g662
sg66
g666
stRp1411
ag1
(g1297
g1155
(dp1412
g62
g113
sg63
g189
sg64
g112
sg65
g184
sg66
g188
stRp1413
ag1
(g1297
g1155
(dp1414
g62
g74
sg63
g145
sg64
g137
sg65
g140
sg66
g144
stRp1415
ag1
(g1297
g1155
(dp1416
g62
g113
sg63
g121
sg64
g112
sg65
g116
sg66
g120
stRp1417
ag1
(g1297
g1155
(dp1418
g62
g113
sg63
g414
sg64
g112
sg65
g409
sg66
g413
stRp1419
ag1
(g1297
g1155
(dp1420
g62
g113
sg63
g920
sg64
g112
sg65
g915
sg66
g919
stRp1421
ag1
(g1297
g1155
(dp1422
g62
g74
sg63
g590
sg64
g227
sg65
g585
sg66
g589
stRp1423
ag1
(g1297
g1155
(dp1424
g62
g113
sg63
g964
sg64
g112
sg65
g959
sg66
g963
stRp1425
ag1
(g1297
g1155
(dp1426
g62
g74
sg63
g336
sg64
g89
sg65
g331
sg66
g335
stRp1427
ag1
(g1297
g1155
(dp1428
g62
g113
sg63
g953
sg64
g262
sg65
g948
sg66
g952
stRp1429
ag1
(g1297
g1155
(dp1430
g62
g74
sg63
g201
sg64
g193
sg65
g196
sg66
g200
stRp1431
ag1
(g1297
g1155
(dp1432
g62
g113
sg63
g623
sg64
g112
sg65
g618
sg66
g622
stRp1433
ag1
(g1297
g1155
(dp1434
g62
g113
sg63
g369
sg64
g125
sg65
g364
sg66
g368
stRp1435
ag1
(g1297
g1155
(dp1436
g62
g74
sg63
g986
sg64
g73
sg65
g981
sg66
g985
stRp1437
ag1
(g1297
g1155
(dp1438
g62
g113
sg63
g1052
sg64
g112
sg65
g1047
sg66
g1051
stRp1439
ag1
(g1297
g1155
(dp1440
g62
g74
sg63
g700
sg64
g193
sg65
g695
sg66
g699
stRp1441
ag1
(g1297
g1155
(dp1442
g62
g74
sg63
g579
sg64
g227
sg65
g574
sg66
g578
stRp1443
ag1
(g1297
g1155
(dp1444
g62
g113
sg63
g403
sg64
g395
sg65
g398
sg66
g402
stRp1445
ag1
(g1297
g1155
(dp1446
g62
g113
sg63
g744
sg64
g112
sg65
g739
sg66
g743
stRp1447
ag1
(g1297
g1155
(dp1448
g62
g113
sg63
g810
sg64
g262
sg65
g805
sg66
g809
stRp1449
ag1
(g1297
g1155
(dp1450
g62
g74
sg63
g480
sg64
g89
sg65
g475
sg66
g479
stRp1451
ag1
(g1297
g1155
(dp1452
g62
g74
sg63
g425
sg64
g193
sg65
g420
sg66
g424
stRp1453
ag1
(g1297
g1155
(dp1454
g62
g74
sg63
g502
sg64
g73
sg65
g497
sg66
g501
stRp1455
ag1
(g1297
g1155
(dp1456
g62
g113
sg63
g975
sg64
g112
sg65
g970
sg66
g974
stRp1457
ag1
(g1297
g1155
(dp1458
g62
g113
sg63
g909
sg64
g262
sg65
g904
sg66
g908
stRp1459
ag1
(g1297
g1155
(dp1460
g62
g74
sg63
g1074
sg64
g73
sg65
g1069
sg66
g1073
stRp1461
ag1
(g1297
g1155
(dp1462
g62
g113
sg63
g133
sg64
g125
sg65
g128
sg66
g132
stRp1463
ag1
(g1297
g1155
(dp1464
g62
g74
sg63
g832
sg64
g193
sg65
g827
sg66
g831
stRp1465
ag1
(g1297
g1155
(dp1466
g62
g113
sg63
g788
sg64
g125
sg65
g783
sg66
g787
stRp1467
ag1
(g1297
g1155
(dp1468
g62
g113
sg63
g678
sg64
g112
sg65
g673
sg66
g677
stRp1469
ag1
(g1297
g1155
(dp1470
g62
g74
sg63
g931
sg64
g89
sg65
g926
sg66
g930
stRp1471
ag1
(g1297
g1155
(dp1472
g62
g74
sg63
g156
sg64
g89
sg65
g151
sg66
g155
stRp1473
ag1
(g1297
g1155
(dp1474
g62
g74
sg63
g557
sg64
g227
sg65
g552
sg66
g556
stRp1475
ag1
(g1297
g1155
(dp1476
g62
g74
sg63
g755
sg64
g227
sg65
g750
sg66
g754
stRp1477
ag1
(g1297
g1155
(dp1478
g62
g113
sg63
g303
sg64
g125
sg65
g298
sg66
g302
stRp1479
ag1
(g1297
g1155
(dp1480
g62
g74
sg63
g97
sg64
g89
sg65
g92
sg66
g96
stRp1481
ag1
(g1297
g1155
(dp1482
g62
g74
sg63
g733
sg64
g227
sg65
g728
sg66
g732
stRp1483
ag1
(g1297
g1155
(dp1484
g62
g74
sg63
g887
sg64
g73
sg65
g882
sg66
g886
stRp1485
ag1
(g1297
g1155
(dp1486
g62
g113
sg63
g270
sg64
g262
sg65
g265
sg66
g269
stRp1487
ag1
(g1297
g1155
(dp1488
g62
g113
sg63
g777
sg64
g125
sg65
g772
sg66
g776
stRp1489
asS'seed'
p1490
NsS'thisIndex'
p1491
g1137
sS'thisN'
p1492
I96
sS'thisTrialN'
p1493
I0
sS'nTotal'
p1494
I96
sS'_warnUseOfNext'
p1495
I01
sbasS'savePickle'
p1496
I00
sb.