ccopy_reg
_reconstructor
p1
(cpsychopy.data
ExperimentHandler
p2
c__builtin__
object
p3
NtRp4
(dp5
S'originPath'
p6
NsS'dataFileName'
p7
VC:\u005cDocuments and Settings\u005cExperimental user\u005cMy Documents\u005cconsciousness\u005cuncon_feat\u005cexperiment_scripts\u005cdata/alba_Experiment_EEG_version_2019_jun_10_1357
p8
sS'runtimeInfo'
p9
NsS'name'
p10
VExperiment_EEG_version
p11
sS'dataNames'
p12
(lp13
S'image_onset_time'
p14
aS'response_window'
p15
aS'correctAns'
p16
aS'probe_onset'
p17
aS'discrim_resptime'
p18
aS'response.corr'
p19
aS'response.keys'
p20
aS'response.rt'
p21
aS'visible_resptime'
p22
aS'visible.keys'
p23
aS'visible.corr'
p24
aS'visible.rt'
p25
aS'probeFrames'
p26
aS'jitter2'
p27
asS'autoLog'
p28
I01
sS'extraInfo'
p29
(dp30
Vn_square
p31
V32
p32
sVexperiment_color
p33
Vbw
p34
sS'frameRate'
p35
cnumpy.core.multiarray
scalar
p36
(cnumpy
dtype
p37
(S'f8'
I0
I1
tRp38
(I3
S'<'
NNNI-1
I-1
I0
tbS'\x1an\x9cY\xf0\xf1X@'
tRp39
sS'date'
p40
V2019_jun_10_1357
p41
sVsession
p42
V006
p43
sVimage_size
p44
V256
p45
sVpremask_dur
p46
V20
p47
sVprobeFrames
p48
V5
sVparticipant
p49
Valba
p50
sS'expName'
p51
g11
sVpostmask_dur
p52
V20
p53
ssS'loopsUnfinished'
p54
(lp55
sS'saveWideText'
p56
I00
sS'thisEntry'
p57
(dp58
sS'version'
p59
S''
sS'_paramNamesSoFar'
p60
(lp61
S'category'
p62
aS'probe_path'
p63
aS'subcategory'
p64
aS'fixation_duration'
p65
aS'label'
p66
asS'entries'
p67
(lp68
(dp69
g31
g32
sg17
F3.7398592890240252
sg24
I1
sg35
g39
sg14
F3.7165164053440094
sg16
g36
(g37
(S'i4'
I0
I1
tRp70
(I3
S'<'
NNNI-1
I-1
I0
tbS'\x02\x00\x00\x00'
tRp71
sg42
g43
sg46
g47
sg15
S'V_nV'
p72
sg22
F5.3307752232067287
sg64
VFurniture
p73
sg62
VNonliving_Things
p74
sg49
g50
sS'trials.thisN'
p75
I0
sg19
I1
sg27
g36
(g38
S'\x00\x00\x00\x00\x00\x00\x1a@'
tRp76
sg52
g53
sg23
S'1'
sg18
F5.0092262038961053
sg33
g34
sg51
g11
sg20
S'2'
sg65
g36
(g37
(S'i8'
I0
I1
tRp77
(I3
S'<'
NNNI-1
I-1
I0
tbS'\x00\x00\x00\x00\x00\x00\x00\x00'
tRp78
sg44
g45
sg40
g41
sg25
F0.070383409038186073
sS'trials.thisIndex'
p79
g36
(g37
(S'i4'
I0
I1
tRp80
(I3
S'<'
NNNI-1
I-1
I0
tbS'Q\x00\x00\x00'
tRp81
sg26
V5
sS'trials.thisRepN'
p82
I0
sg66
Vtable
p83
sg63
V../experiment_stimuli/bw_bc_bl/Nonliving_Things/Furniture/table_21.jpg
p84
sg21
F0.29069153219461441
sS'trials.thisTrialN'
p85
I0
sa(dp86
g31
g32
sg17
F7.1388249755837023
sg24
I1
sg35
g39
sg14
F7.1339369062334299
sg16
g36
(g70
S'\x02\x00\x00\x00'
tRp87
sg42
g43
sg46
g47
sg15
S'nV_V'
p88
sg22
F9.0788006810471416
sg64
VAnimals
p89
sg62
VLiving_Things
p90
sg49
g50
sS'trials.thisN'
p91
I1
sg19
I0
sg27
g36
(g38
S'\x00\x00\x00\x00\x00\x00\x18@'
tRp92
sg52
g53
sg23
S'1'
sg18
F8.4166318071074784
sg33
g34
sg51
g11
sg20
S'1'
sg65
g36
(g77
S'\x00\x00\x00\x00\x00\x00\x00\x00'
tRp93
sg44
g45
sg40
g41
sg25
F0.16056342236697674
sS'trials.thisIndex'
p94
g36
(g80
S'0\x00\x00\x00'
tRp95
sg26
V5
sS'trials.thisRepN'
p96
I0
sg66
Vlioness
p97
sg63
V../experiment_stimuli/bw_bc_bl/Living_Things/Animals/lioness_7.jpg
p98
sg21
F0.64162499504163861
sS'trials.thisTrialN'
p99
I1
sa(dp100
g31
g32
sg17
F10.977223740890622
sg24
I0
sg35
g39
sg14
F10.972287841606885
sg16
g36
(g70
S'\x01\x00\x00\x00'
tRp101
sg42
g43
sg46
g47
sg15
g88
sg22
F13.277933167293668
sg64
VBuildings
p102
sg62
g74
sg49
g50
sS'trials.thisN'
p103
I2
sg19
I1
sg27
g36
(g38
S'\x00\x00\x00\x00\x00\x00\x1a@'
tRp104
sg52
g53
sg23
S'3'
sg18
F12.285041946917772
sg33
g34
sg51
g11
sg20
S'1'
sg65
g36
(g77
S'\x00\x00\x00\x00\x00\x00\x00\x00'
tRp105
sg44
g45
sg40
g41
sg25
F0.37102417089045048
sS'trials.thisIndex'
p106
g36
(g80
S'\x11\x00\x00\x00'
tRp107
sg26
V5
sS'trials.thisRepN'
p108
I0
sg66
Vchurch
p109
sg63
V../experiment_stimuli/bw_bc_bl/Nonliving_Things/Buildings/church_1.jpg
p110
sg21
F0.97233634162694216
sS'trials.thisTrialN'
p111
I2
sa(dp112
g31
g32
sg17
F15.386701872106642
sg24
I0
sg35
g39
sg14
F15.381862137001008
sg16
g36
(g70
S'\x02\x00\x00\x00'
tRp113
sg42
g43
sg46
g47
sg15
g88
sg22
F17.747645488474518
sg64
VInsects
p114
sg62
g90
sg49
g50
sS'trials.thisN'
p115
I3
sg19
I1
sg27
g36
(g38
S'\x00\x00\x00\x00\x00\x00\x18@'
tRp116
sg52
g53
sg23
S'3'
sg18
F16.674580593127757
sg33
g34
sg51
g11
sg20
S'2'
sg65
g36
(g77
S'\x00\x00\x00\x00\x00\x00\x00\x00'
tRp117
sg44
g45
sg40
g41
sg25
F0.24087849771603942
sS'trials.thisIndex'
p118
g36
(g80
S'\x18\x00\x00\x00'
tRp119
sg26
V5
sS'trials.thisRepN'
p120
I0
sg66
Vdragonfly
p121
sg63
V../experiment_stimuli/bw_bc_bl/Living_Things/Insects/dragonfly_23.jpg
p122
sg21
F1.0525119374506176
sS'trials.thisTrialN'
p123
I3
sa(dp124
g31
g32
sg17
F19.726810824126005
sg24
I1
sg35
g39
sg14
F19.721308158710599
sg16
g36
(g70
S'\x01\x00\x00\x00'
tRp125
sg42
g43
sg46
g47
sg15
g72
sg22
F21.375525637064129
sg64
VMarine_creatures
p126
sg62
g90
sg49
g50
sS'trials.thisN'
p127
I4
sg19
I1
sg27
g36
(g38
S'\x00\x00\x00\x00\x00\x00\x18@'
tRp128
sg52
g53
sg23
S'1'
sg18
F20.993963906075805
sg33
g34
sg51
g11
sg20
S'1'
sg65
g36
(g77
S'\x00\x00\x00\x00\x00\x00\x00\x00'
tRp129
sg44
g45
sg40
g41
sg25
F0.18060686439275742
sS'trials.thisIndex'
p130
g36
(g80
S'K\x00\x00\x00'
tRp131
sg26
V5
sS'trials.thisRepN'
p132
I0
sg66
Vshark
p133
sg63
V../experiment_stimuli/bw_bc_bl/Living_Things/Marine_creatures/shark_25.jpg
p134
sg21
F0.36100729973986745
sS'trials.thisTrialN'
p135
I4
sa(dp136
g31
g32
sg17
F23.293958568014205
sg24
I1
sg35
g39
sg14
F23.289055544417351
sg16
g36
(g70
S'\x01\x00\x00\x00'
tRp137
sg42
g43
sg46
g47
sg15
g72
sg22
F25.434366342611611
sg64
VBirds
p138
sg62
g90
sg49
g50
sS'trials.thisN'
p139
I5
sg19
I0
sg27
g36
(g38
S'\x00\x00\x00\x00\x00\x00\x18@'
tRp140
sg52
g53
sg23
S'1'
sg18
F24.571743136737496
sg33
g34
sg51
g11
sg20
S'2'
sg65
g36
(g77
S'\x00\x00\x00\x00\x00\x00\x00\x00'
tRp141
sg44
g45
sg40
g41
sg25
F0.14052005112171173
sS'trials.thisIndex'
p142
g36
(g80
S'!\x00\x00\x00'
tRp143
sg26
V5
sS'trials.thisRepN'
p144
I0
sg66
Vgoldfinch
p145
sg63
V../experiment_stimuli/bw_bc_bl/Living_Things/Birds/goldfinch_12.jpg
p146
sg21
F0.84205241408199072
sS'trials.thisTrialN'
p147
I5
sa(dp148
g31
g32
sg17
F27.312727216165513
sg24
I1
sg35
g39
sg14
F27.307786911260337
sg16
g36
(g70
S'\x01\x00\x00\x00'
tRp149
sg42
g43
sg46
g47
sg15
g88
sg22
F29.072287783492357
sg64
g102
sg62
g74
sg49
g50
sS'trials.thisN'
p150
I6
sg19
I0
sg27
g36
(g38
S'\x00\x00\x00\x00\x00\x00\x18@'
tRp151
sg52
g53
sg23
S'1'
sg18
F28.600509348791093
sg33
g34
sg51
g11
sg20
S'2'
sg65
g36
(g77
S'\x00\x00\x00\x00\x00\x00\x00\x00'
tRp152
sg44
g45
sg40
g41
sg25
F0.09043692285194993
sS'trials.thisIndex'
p153
g36
(g80
S')\x00\x00\x00'
tRp154
sg26
V5
sS'trials.thisRepN'
p155
I0
sg66
Vhouse
p156
sg63
V../experiment_stimuli/bw_bc_bl/Nonliving_Things/Buildings/house_20.jpg
p157
sg21
F0.45122481184080243
sS'trials.thisTrialN'
p158
I6
sa(dp159
g31
g32
sg17
F30.900425331201404
sg24
I0
sg35
g39
sg14
F30.89560646796599
sg16
g36
(g70
S'\x01\x00\x00\x00'
tRp160
sg42
g43
sg46
g47
sg15
g88
sg22
F33.0308827185072
sg64
VVehicles
p161
sg62
g74
sg49
g50
sS'trials.thisN'
p162
I7
sg19
I0
sg27
g36
(g38
S'\x00\x00\x00\x00\x00\x00 @'
tRp163
sg52
g53
sg23
S'2'
sg18
F32.218370982445776
sg33
g34
sg51
g11
sg20
S'2'
sg65
g36
(g77
S'\x00\x00\x00\x00\x00\x00\x00\x00'
tRp164
sg44
g45
sg40
g41
sg25
F0.43114736676216125
sS'trials.thisIndex'
p165
g36
(g80
S'@\x00\x00\x00'
tRp166
sg26
V5
sS'trials.thisRepN'
p167
I0
sg66
Vplane
p168
sg63
V../experiment_stimuli/bw_bc_bl/Nonliving_Things/Vehicles/plane_17.jpg
p169
sg21
F0.79194812756031752
sS'trials.thisTrialN'
p170
I7
sa(dp171
g31
g32
sg17
F35.199775374494493
sg24
I0
sg35
g39
sg14
F35.194936485495418
sg16
g36
(g70
S'\x01\x00\x00\x00'
tRp172
sg42
g43
sg46
g47
sg15
g72
sg22
F37.169918779749423
sg64
g138
sg62
g90
sg49
g50
sS'trials.thisN'
p173
I8
sg19
I0
sg27
g36
(g38
S'\x00\x00\x00\x00\x00\x00\x18@'
tRp174
sg52
g53
sg23
S'2'
sg18
F36.507690455298871
sg33
g34
sg51
g11
sg20
S'2'
sg65
g36
(g77
S'\x00\x00\x00\x00\x00\x00\x00\x00'
tRp175
sg44
g45
sg40
g41
sg25
F0.28067215718328953
sS'trials.thisIndex'
p176
g36
(g80
S'&\x00\x00\x00'
tRp177
sg26
V5
sS'trials.thisRepN'
p178
I0
sg66
Vhen
p179
sg63
V../experiment_stimuli/bw_bc_bl/Living_Things/Birds/hen_0.jpg
p180
sg21
F0.64164675772190094
sS'trials.thisTrialN'
p181
I8
sa(dp182
g31
g32
sg17
F39.189178503118455
sg24
I1
sg35
g39
sg14
F39.183605297468603
sg16
g36
(g70
S'\x02\x00\x00\x00'
tRp183
sg42
g43
sg46
g47
sg15
g72
sg22
F40.547231737989932
sg64
VTools
p184
sg62
g74
sg49
g50
sS'trials.thisN'
p185
I9
sg19
I0
sg27
g36
(g38
S'\x00\x00\x00\x00\x00\x00\x1e@'
tRp186
sg52
g53
sg23
S'1'
sg18
F40.486344249453396
sg33
g34
sg51
g11
sg20
S'1'
sg65
g36
(g77
S'\x00\x00\x00\x00\x00\x00\x00\x00'
tRp187
sg44
g45
sg40
g41
sg25
F0.24075494706630707
sS'trials.thisIndex'
p188
g36
(g80
S'%\x00\x00\x00'
tRp189
sg26
V5
sS'trials.thisRepN'
p190
I0
sg66
Vhammer
p191
sg63
V../experiment_stimuli/bw_bc_bl/Nonliving_Things/Tools/hammer_5.jpg
p192
sg21
F0.040310231037437916
sS'trials.thisTrialN'
p193
I9
sa(dp194
g31
g32
sg17
F42.527017816901207
sg24
I1
sg35
g39
sg14
F42.520874427631497
sg16
g36
(g70
S'\x01\x00\x00\x00'
tRp195
sg42
g43
sg46
g47
sg15
g88
sg22
F43.874426640570164
sg64
g102
sg62
g74
sg49
g50
sS'trials.thisN'
p196
I10
sg19
I0
sg27
g36
(g38
S'\x00\x00\x00\x00\x00\x00\x18@'
tRp197
sg52
g53
sg23
S'1'
sg18
F43.833630378823727
sg33
g34
sg51
g11
sg20
S'2'
sg65
g36
(g77
S'\x00\x00\x00\x00\x00\x00\x00\x00'
tRp198
sg44
g45
sg40
g41
sg25
F0.15054837428033352
sS'trials.thisIndex'
p199
g36
(g80
S':\x00\x00\x00'
tRp200
sg26
V5
sS'trials.thisRepN'
p201
I0
sg66
Vpalace
p202
sg63
V../experiment_stimuli/bw_bc_bl/Nonliving_Things/Buildings/palace_24.jpg
p203
sg21
F0.020262394100427628
sS'trials.thisTrialN'
p204
I10
sa(dp205
g31
g32
sg17
F45.763443094212562
sg24
I0
sg35
g39
sg14
F45.757900459226221
sg16
g36
(g70
S'\x02\x00\x00\x00'
tRp206
sg42
g43
sg46
g47
sg15
g88
sg22
F48.734997826628387
sg64
g89
sg62
g90
sg49
g50
sS'trials.thisN'
p207
I11
sg19
I1
sg27
g36
(g38
S'\x00\x00\x00\x00\x00\x00\x1e@'
tRp208
sg52
g53
sg23
S'3'
sg18
F47.09154773177579
sg33
g34
sg51
g11
sg20
S'2'
sg65
g36
(g77
S'\x00\x00\x00\x00\x00\x00\x00\x00'
tRp209
sg44
g45
sg40
g41
sg25
F0.18061444722115993
sS'trials.thisIndex'
p210
g36
(g80
S'\x1b\x00\x00\x00'
tRp211
sg26
V5
sS'trials.thisRepN'
p212
I0
sg66
Velephant
p213
sg63
V../experiment_stimuli/bw_bc_bl/Living_Things/Animals/elephant_11.jpg
p214
sg21
F1.6237531136721373
sS'trials.thisTrialN'
p215
I11
sa(dp216
g31
g32
sg17
F50.653457685839385
sg24
I0
sg35
g39
sg14
F50.648528245277703
sg16
g36
(g70
S'\x02\x00\x00\x00'
tRp217
sg42
g43
sg46
g47
sg15
g88
sg22
F53.635653953999281
sg64
g89
sg62
g90
sg49
g50
sS'trials.thisN'
p218
I12
sg19
I1
sg27
g36
(g38
S'\x00\x00\x00\x00\x00\x00\x18@'
tRp219
sg52
g53
sg23
S'3'
sg18
F51.971312060486525
sg33
g34
sg51
g11
sg20
S'2'
sg65
g36
(g77
S'\x00\x00\x00\x00\x00\x00\x00\x00'
tRp220
sg44
g45
sg40
g41
sg25
F0.53137627709656954
sS'trials.thisIndex'
p221
g36
(g80
S' \x00\x00\x00'
tRp222
sg26
V5
sS'trials.thisRepN'
p223
I0
sg66
Vgiraffe
p224
sg63
V../experiment_stimuli/bw_bc_bl/Living_Things/Animals/giraffe_4.jpg
p225
sg21
F1.6437899996526539
sS'trials.thisTrialN'
p226
I12
sa(dp227
g31
g32
sg17
F55.904770479071885
sg24
I0
sg35
g39
sg14
F55.8999481536448
sg16
g36
(g70
S'\x02\x00\x00\x00'
tRp228
sg42
g43
sg46
g47
sg15
g88
sg22
F57.965063044335693
sg64
g89
sg62
g90
sg49
g50
sS'trials.thisN'
p229
I13
sg19
I1
sg27
g36
(g38
S'\x00\x00\x00\x00\x00\x00\x18@'
tRp230
sg52
g53
sg23
S'3'
sg18
F57.19266267772764
sg33
g34
sg51
g11
sg20
S'2'
sg65
g36
(g77
S'\x00\x00\x00\x00\x00\x00\x00\x00'
tRp231
sg44
g45
sg40
g41
sg25
F0.34095489187166095
sS'trials.thisIndex'
p232
g36
(g80
S'D\x00\x00\x00'
tRp233
sg26
V5
sS'trials.thisRepN'
p234
I0
sg66
Vrhino
p235
sg63
V../experiment_stimuli/bw_bc_bl/Living_Things/Animals/rhino_11.jpg
p236
sg21
F0.75185496918857098
sS'trials.thisTrialN'
p237
I13
sa(dp238
g31
g32
sg17
F60.043946440331638
sg24
I1
sg35
g39
sg14
F60.038942038547248
sg16
g36
(g70
S'\x01\x00\x00\x00'
tRp239
sg42
g43
sg46
g47
sg15
g88
sg22
F61.562941366806626
sg64
g73
sg62
g74
sg49
g50
sS'trials.thisN'
p240
I14
sg19
I1
sg27
g36
(g38
S'\x00\x00\x00\x00\x00\x00\x1a@'
tRp241
sg52
g53
sg23
S'1'
sg18
F61.301585064735264
sg33
g34
sg51
g11
sg20
S'1'
sg65
g36
(g77
S'\x00\x00\x00\x00\x00\x00\x00\x00'
tRp242
sg44
g45
sg40
g41
sg25
F0.27080608019605279
sS'trials.thisIndex'
p243
g36
(g80
S'\x00\x00\x00\x00'
tRp244
sg26
V5
sS'trials.thisRepN'
p245
I0
sg66
VChest-of-drawers
p246
sg63
V../experiment_stimuli/bw_bc_bl/Nonliving_Things/Furniture/Chest-of-drawers_15.jpg
p247
sg21
F0.24077346175909042
sS'trials.thisTrialN'
p248
I14
sa(dp249
g31
g32
sg17
F63.571470376104116
sg24
I0
sg35
g39
sg14
F63.566608020570129
sg16
g36
(g70
S'\x02\x00\x00\x00'
tRp250
sg42
g43
sg46
g47
sg15
g88
sg22
F65.290993163362145
sg64
g126
sg62
g90
sg49
g50
sS'trials.thisN'
p251
I15
sg19
I1
sg27
g36
(g38
S'\x00\x00\x00\x00\x00\x00\x1e@'
tRp252
sg52
g53
sg23
S'3'
sg18
F64.839281715452671
sg33
g34
sg51
g11
sg20
S'2'
sg65
g36
(g77
S'\x00\x00\x00\x00\x00\x00\x00\x00'
tRp253
sg44
g45
sg40
g41
sg25
F0.34095827490091324
sS'trials.thisIndex'
p254
g36
(g80
S'\x15\x00\x00\x00'
tRp255
sg26
V5
sS'trials.thisRepN'
p256
I0
sg66
Vcrab
p257
sg63
V../experiment_stimuli/bw_bc_bl/Living_Things/Marine_creatures/crab_23.jpg
p258
sg21
F0.43116759974509478
sS'trials.thisTrialN'
p259
I15
sa(dp260
g31
g32
sg17
F67.369888337794691
sg24
I1
sg35
g39
sg14
F67.364876668900251
sg16
g36
(g70
S'\x02\x00\x00\x00'
tRp261
sg42
g43
sg46
g47
sg15
g88
sg22
F68.898875914048404
sg64
g138
sg62
g90
sg49
g50
sS'trials.thisN'
p262
I16
sg19
I0
sg27
g36
(g38
S'\x00\x00\x00\x00\x00\x00\x18@'
tRp263
sg52
g53
sg23
S'1'
sg18
F68.617488417774439
sg33
g34
sg51
g11
sg20
S'1'
sg65
g36
(g77
S'\x00\x00\x00\x00\x00\x00\x00\x00'
tRp264
sg44
g45
sg40
g41
sg25
F1.9043634557165205
sS'trials.thisIndex'
p265
g36
(g80
S'F\x00\x00\x00'
tRp266
sg26
V5
sS'trials.thisRepN'
p267
I0
sg66
Vrooster
p268
sg63
V../experiment_stimuli/bw_bc_bl/Living_Things/Birds/rooster_18.jpg
p269
sg21
F0.26080935122445226
sS'trials.thisTrialN'
p270
I16
sa(dp271
g31
g32
sg17
F72.54237810196355
sg24
I0
sg35
g39
sg14
F72.53612067643553
sg16
g36
(g70
S'\x02\x00\x00\x00'
tRp272
sg42
g43
sg46
g47
sg15
g88
sg22
F74.310585613362491
sg64
g138
sg62
g90
sg49
g50
sS'trials.thisN'
p273
I17
sg19
I1
sg27
g36
(g38
S'\x00\x00\x00\x00\x00\x00\x18@'
tRp274
sg52
g53
sg23
S'3'
sg18
F73.818801017012447
sg33
g34
sg51
g11
sg20
S'2'
sg65
g36
(g77
S'\x00\x00\x00\x00\x00\x00\x00\x00'
tRp275
sg44
g45
sg40
g41
sg25
F0.51133615057915449
sS'trials.thisIndex'
p276
g36
(g80
S'"\x00\x00\x00'
tRp277
sg26
V5
sS'trials.thisRepN'
p278
I0
sg66
Vgoose
p279
sg63
V../experiment_stimuli/bw_bc_bl/Living_Things/Birds/goose_21.jpg
p280
sg21
F0.47124758502468467
sS'trials.thisTrialN'
p281
I17
sa(dp282
g31
g32
sg17
F76.559747578110546
sg24
I0
sg35
g39
sg14
F76.554843903984874
sg16
g36
(g70
S'\x02\x00\x00\x00'
tRp283
sg42
g43
sg46
g47
sg15
g88
sg22
F78.078655268996954
sg64
g89
sg62
g90
sg49
g50
sS'trials.thisN'
p284
I18
sg19
I0
sg27
g36
(g38
S'\x00\x00\x00\x00\x00\x00\x18@'
tRp285
sg52
g53
sg23
S'2'
sg18
F77.807471156585962
sg33
g34
sg51
g11
sg20
S'1'
sg65
g36
(g77
S'\x00\x00\x00\x00\x00\x00\x00\x00'
tRp286
sg44
g45
sg40
g41
sg25
F0.30090557038784027
sS'trials.thisIndex'
p287
g36
(g80
S'Z\x00\x00\x00'
tRp288
sg26
V5
sS'trials.thisRepN'
p289
I0
sg66
Vturtle
p290
sg63
V../experiment_stimuli/bw_bc_bl/Living_Things/Animals/turtle_12.jpg
p291
sg21
F0.25061950087547302
sS'trials.thisTrialN'
p292
I18
sa(dp293
g31
g32
sg17
F80.117531850934029
sg24
I1
sg35
g39
sg14
F80.112580925691873
sg16
g36
(g70
S'\x02\x00\x00\x00'
tRp294
sg42
g43
sg46
g47
sg15
g72
sg22
F82.508429376408458
sg64
g73
sg62
g74
sg49
g50
sS'trials.thisN'
p295
I19
sg19
I1
sg27
g36
(g38
S'\x00\x00\x00\x00\x00\x00\x1a@'
tRp296
sg52
g53
sg23
S'1'
sg18
F81.355192975606769
sg33
g34
sg51
g11
sg20
S'2'
sg65
g36
(g77
S'\x00\x00\x00\x00\x00\x00\x00\x00'
tRp297
sg44
g45
sg40
g41
sg25
F0.12047588359564543
sS'trials.thisIndex'
p298
g36
(g80
S'E\x00\x00\x00'
tRp299
sg26
V5
sS'trials.thisRepN'
p300
I0
sg66
Vrocking-chair
p301
sg63
V../experiment_stimuli/bw_bc_bl/Nonliving_Things/Furniture/rocking-chair_13.jpg
p302
sg21
F1.1326905265450478
sS'trials.thisTrialN'
p303
I19
sa(dp304
g31
g32
sg17
F84.367518713697791
sg24
I0
sg35
g39
sg14
F84.361822438891977
sg16
g36
(g70
S'\x02\x00\x00\x00'
tRp305
sg42
g43
sg46
g47
sg15
g88
sg22
F89.022585068829358
sg64
g138
sg62
g90
sg49
g50
sS'trials.thisN'
p306
I20
sg19
I1
sg27
g36
(g38
S'\x00\x00\x00\x00\x00\x00\x1a@'
tRp307
sg52
g53
sg23
S'2'
sg18
F85.634483584202826
sg33
g34
sg51
g11
sg20
S'2'
sg65
g36
(g77
S'\x00\x00\x00\x00\x00\x00\x00\x00'
tRp308
sg44
g45
sg40
g41
sg25
F0.26093187974765897
sS'trials.thisIndex'
p309
g36
(g80
S'O\x00\x00\x00'
tRp310
sg26
V5
sS'trials.thisRepN'
p311
I0
sg66
Vsparrow
p312
sg63
V../experiment_stimuli/bw_bc_bl/Living_Things/Birds/sparrow_25.jpg
p313
sg21
F3.3675487944856286
sS'trials.thisTrialN'
p314
I20
sa(dp315
g31
g32
sg17
F91.02121073519811
sg24
I1
sg35
g39
sg14
F91.016288042534143
sg16
g36
(g70
S'\x01\x00\x00\x00'
tRp316
sg42
g43
sg46
g47
sg15
g88
sg22
F92.780770719517022
sg64
VKitchen_Uten
p317
sg62
g74
sg49
g50
sS'trials.thisN'
p318
I21
sg19
I0
sg27
g36
(g38
S'\x00\x00\x00\x00\x00\x00\x18@'
tRp319
sg52
g53
sg23
S'1'
sg18
F92.278946090955287
sg33
g34
sg51
g11
sg20
S'2'
sg65
g36
(g77
S'\x00\x00\x00\x00\x00\x00\x00\x00'
tRp320
sg44
g45
sg40
g41
sg25
F0.16057300847023726
sS'trials.thisIndex'
p321
g36
(g80
S'G\x00\x00\x00'
tRp322
sg26
V5
sS'trials.thisRepN'
p323
I0
sg66
Vsaucepan
p324
sg63
V../experiment_stimuli/bw_bc_bl/Nonliving_Things/Kitchen_Uten/saucepan_5.jpg
p325
sg21
F0.48126981453970075
sS'trials.thisTrialN'
p326
I21
sa(dp327
g31
g32
sg17
F94.679216760676354
sg24
I1
sg35
g39
sg14
F94.674236053600907
sg16
g36
(g70
S'\x02\x00\x00\x00'
tRp328
sg42
g43
sg46
g47
sg15
g88
sg22
F97.571184892207384
sg64
g89
sg62
g90
sg49
g50
sS'trials.thisN'
p329
I22
sg19
I0
sg27
g36
(g38
S'\x00\x00\x00\x00\x00\x00\x18@'
tRp330
sg52
g53
sg23
S'1'
sg18
F95.946903721895069
sg33
g34
sg51
g11
sg20
S'1'
sg65
g36
(g77
S'\x00\x00\x00\x00\x00\x00\x00\x00'
tRp331
sg44
g45
sg40
g41
sg25
F0.19047420471906662
sS'trials.thisIndex'
p332
g36
(g80
S'\r\x00\x00\x00'
tRp333
sg26
V5
sS'trials.thisRepN'
p334
I0
sg66
Vcat
p335
sg63
V../experiment_stimuli/bw_bc_bl/Living_Things/Animals/cat_20.jpg
p336
sg21
F1.6037106602452695
sS'trials.thisTrialN'
p337
I22
sa(dp338
g31
g32
sg17
F99.499741982668638
sg24
I1
sg35
g39
sg14
F99.494715810287744
sg16
g36
(g70
S'\x02\x00\x00\x00'
tRp339
sg42
g43
sg46
g47
sg15
g72
sg22
F101.96071677934378
sg64
g317
sg62
g74
sg49
g50
sS'trials.thisN'
p340
I23
sg19
I1
sg27
g36
(g38
S'\x00\x00\x00\x00\x00\x00\x18@'
tRp341
sg52
g53
sg23
S'1'
sg18
F100.79745278088376
sg33
g34
sg51
g11
sg20
S'2'
sg65
g36
(g77
S'\x00\x00\x00\x00\x00\x00\x00\x00'
tRp342
sg44
g45
sg40
g41
sg25
F0.56143615068867803
sS'trials.thisIndex'
p343
g36
(g80
S'B\x00\x00\x00'
tRp344
sg26
V5
sS'trials.thisRepN'
p345
I0
sg66
Vpot
p346
sg63
V../experiment_stimuli/bw_bc_bl/Nonliving_Things/Kitchen_Uten/pot_15.jpg
p347
sg21
F1.1427060444839299
sS'trials.thisTrialN'
p348
I23
sa(dp349
g31
g32
sg17
F104.26084217987955
sg24
I0
sg35
g39
sg14
F104.25506372144446
sg16
g36
(g70
S'\x02\x00\x00\x00'
tRp350
sg42
g43
sg46
g47
sg15
g72
sg22
F106.3902398981154
sg64
g161
sg62
g74
sg49
g50
sS'trials.thisN'
p351
I24
sg19
I1
sg27
g36
(g38
S'\x00\x00\x00\x00\x00\x00\x1a@'
tRp352
sg52
g53
sg23
S'2'
sg18
F105.58786373119801
sg33
g34
sg51
g11
sg20
S'2'
sg65
g36
(g77
S'\x00\x00\x00\x00\x00\x00\x00\x00'
tRp353
sg44
g45
sg40
g41
sg25
F0.22077787574380636
sS'trials.thisIndex'
p354
g36
(g80
S'W\x00\x00\x00'
tRp355
sg26
V5
sS'trials.thisRepN'
p356
I0
sg66
Vtrain
p357
sg63
V../experiment_stimuli/bw_bc_bl/Nonliving_Things/Vehicles/train_7.jpg
p358
sg21
F0.77174234203994274
sS'trials.thisTrialN'
p359
I24
sa(dp360
g31
g32
sg17
F108.34888483583927
sg24
I0
sg35
g39
sg14
F108.34396556438878
sg16
g36
(g70
S'\x02\x00\x00\x00'
tRp361
sg42
g43
sg46
g47
sg15
g72
sg22
F110.92020635306835
sg64
g161
sg62
g74
sg49
g50
sS'trials.thisN'
p362
I25
sg19
I1
sg27
g36
(g38
S'\x00\x00\x00\x00\x00\x00\x1a@'
tRp363
sg52
g53
sg23
S'2'
sg18
F109.66673275921494
sg33
g34
sg51
g11
sg20
S'2'
sg65
g36
(g77
S'\x00\x00\x00\x00\x00\x00\x00\x00'
tRp364
sg44
g45
sg40
g41
sg25
F0.35098297335207462
sS'trials.thisIndex'
p365
g36
(g80
S'V\x00\x00\x00'
tRp366
sg26
V5
sS'trials.thisRepN'
p367
I0
sg66
Vtractor
p368
sg63
V../experiment_stimuli/bw_bc_bl/Nonliving_Things/Vehicles/tractor_5.jpg
p369
sg21
F1.2329067676328123
sS'trials.thisTrialN'
p370
I25
sa(dp371
g31
g32
sg17
F113.00979000935331
sg24
I0
sg35
g39
sg14
F113.00408913288265
sg16
g36
(g70
S'\x01\x00\x00\x00'
tRp372
sg42
g43
sg46
g47
sg15
g72
sg22
F120.91192166600376
sg64
g138
sg62
g90
sg49
g50
sS'trials.thisN'
p373
I26
sg19
I0
sg27
g36
(g38
S'\x00\x00\x00\x00\x00\x00\x18@'
tRp374
sg52
g53
sg23
S'2'
sg18
F114.31684062536806
sg33
g34
sg51
g11
sg20
S'2'
sg65
g36
(g77
S'\x00\x00\x00\x00\x00\x00\x00\x00'
tRp375
sg44
g45
sg40
g41
sg25
F0.22069174563512206
sS'trials.thisIndex'
p376
g36
(g80
S'9\x00\x00\x00'
tRp377
sg26
V5
sS'trials.thisRepN'
p378
I0
sg66
Vowl
p379
sg63
V../experiment_stimuli/bw_bc_bl/Living_Things/Birds/owl_23.jpg
p380
sg21
F6.5644985730759799
sS'trials.thisTrialN'
p381
I26
sa(dp382
g31
g32
sg17
F122.87058434076607
sg24
I0
sg35
g39
sg14
F122.86552665382624
sg16
g36
(g70
S'\x02\x00\x00\x00'
tRp383
sg42
g43
sg46
g47
sg15
g72
sg22
F125.13108275271952
sg64
VMusical_Inst
p384
sg62
g74
sg49
g50
sS'trials.thisN'
p385
I27
sg19
I1
sg27
g36
(g38
S'\x00\x00\x00\x00\x00\x00\x18@'
tRp386
sg52
g53
sg23
S'3'
sg18
F124.16826014686376
sg33
g34
sg51
g11
sg20
S'2'
sg65
g36
(g77
S'\x00\x00\x00\x00\x00\x00\x00\x00'
tRp387
sg44
g45
sg40
g41
sg25
F0.33093115920200944
sS'trials.thisIndex'
p388
g36
(g80
S'\\\x00\x00\x00'
tRp389
sg26
V5
sS'trials.thisRepN'
p390
I0
sg66
Vviolin
p391
sg63
V../experiment_stimuli/bw_bc_bl/Nonliving_Things/Musical_Inst/violin_14.jpg
p392
sg21
F0.94227555021643639
sS'trials.thisTrialN'
p393
I27
sa(dp394
g31
g32
sg17
F127.20005281735212
sg24
I1
sg35
g39
sg14
F127.19494212744758
sg16
g36
(g70
S'\x02\x00\x00\x00'
tRp395
sg42
g43
sg46
g47
sg15
g88
sg22
F128.84918348491192
sg64
g114
sg62
g90
sg49
g50
sS'trials.thisN'
p396
I28
sg19
I0
sg27
g36
(g38
S'\x00\x00\x00\x00\x00\x00\x18@'
tRp397
sg52
g53
sg23
S'1'
sg18
F128.46761107351631
sg33
g34
sg51
g11
sg20
S'1'
sg65
g36
(g77
S'\x00\x00\x00\x00\x00\x00\x00\x00'
tRp398
sg44
g45
sg40
g41
sg25
F0.27065382339060307
sS'trials.thisIndex'
p399
g36
(g80
S'I\x00\x00\x00'
tRp400
sg26
V5
sS'trials.thisRepN'
p401
I0
sg66
Vscorpion
p402
sg63
V../experiment_stimuli/bw_bc_bl/Living_Things/Insects/scorpion_22.jpg
p403
sg21
F0.36101118661463261
sS'trials.thisTrialN'
p404
I28
sa(dp405
g31
g32
sg17
F130.85787605587393
sg24
I0
sg35
g39
sg14
F130.85288620600477
sg16
g36
(g70
S'\x02\x00\x00\x00'
tRp406
sg42
g43
sg46
g47
sg15
g72
sg22
F132.77770410990342
sg64
g102
sg62
g74
sg49
g50
sS'trials.thisN'
p407
I29
sg19
I1
sg27
g36
(g38
S'\x00\x00\x00\x00\x00\x00\x18@'
tRp408
sg52
g53
sg23
S'2'
sg18
F132.15562601527199
sg33
g34
sg51
g11
sg20
S'2'
sg65
g36
(g77
S'\x00\x00\x00\x00\x00\x00\x00\x00'
tRp409
sg44
g45
sg40
g41
sg25
F0.18062520259991288
sS'trials.thisIndex'
p410
g36
(g80
S'5\x00\x00\x00'
tRp411
sg26
V5
sS'trials.thisRepN'
p412
I0
sg66
Vmill
p413
sg63
V../experiment_stimuli/bw_bc_bl/Nonliving_Things/Buildings/mill_7.jpg
p414
sg21
F0.60153280245140195
sS'trials.thisTrialN'
p415
I29
sa(dp416
g31
g32
sg17
F134.69702150532976
sg24
I1
sg35
g39
sg14
F134.69123585894704
sg16
g36
(g70
S'\x02\x00\x00\x00'
tRp417
sg42
g43
sg46
g47
sg15
g88
sg22
F137.38776302663609
sg64
g138
sg62
g90
sg49
g50
sS'trials.thisN'
p418
I30
sg19
I0
sg27
g36
(g38
S'\x00\x00\x00\x00\x00\x00\x1c@'
tRp419
sg52
g53
sg23
S'1'
sg18
F135.9839481273666
sg33
g34
sg51
g11
sg20
S'1'
sg65
g36
(g77
S'\x00\x00\x00\x00\x00\x00\x00\x00'
tRp420
sg44
g45
sg40
g41
sg25
F0.60154588101431727
sS'trials.thisIndex'
p421
g36
(g80
S'U\x00\x00\x00'
tRp422
sg26
V5
sS'trials.thisRepN'
p423
I0
sg66
Vtoucan
p424
sg63
V../experiment_stimuli/bw_bc_bl/Living_Things/Birds/toucan_12.jpg
p425
sg21
F1.3832289120182395
sS'trials.thisTrialN'
p426
I30
sa(dp427
g31
g32
sg17
F139.72788789588958
sg24
I0
sg35
g39
sg14
F139.72218119958416
sg16
g36
(g70
S'\x01\x00\x00\x00'
tRp428
sg42
g43
sg46
g47
sg15
g88
sg22
F141.88751386525109
sg64
g317
sg62
g74
sg49
g50
sS'trials.thisN'
p429
I31
sg19
I1
sg27
g36
(g38
S'\x00\x00\x00\x00\x00\x00\x1e@'
tRp430
sg52
g53
sg23
S'2'
sg18
F141.02490415144712
sg33
g34
sg51
g11
sg20
S'1'
sg65
g36
(g77
S'\x00\x00\x00\x00\x00\x00\x00\x00'
tRp431
sg44
g45
sg40
g41
sg25
F0.32091434393078089
sS'trials.thisIndex'
p432
g36
(g80
S'\x12\x00\x00\x00'
tRp433
sg26
V5
sS'trials.thisRepN'
p434
I0
sg66
Vcoking-pot
p435
sg63
V../experiment_stimuli/bw_bc_bl/Nonliving_Things/Kitchen_Uten/coking-pot_26.jpg
p436
sg21
F0.84205462038516998
sS'trials.thisTrialN'
p437
I31
sa(dp438
g31
g32
sg17
F143.94608822185546
sg24
I0
sg35
g39
sg14
F143.94134161295369
sg16
g36
(g70
S'\x02\x00\x00\x00'
tRp439
sg42
g43
sg46
g47
sg15
g88
sg22
F146.24699636688456
sg64
g126
sg62
g90
sg49
g50
sS'trials.thisN'
p440
I32
sg19
I1
sg27
g36
(g38
S'\x00\x00\x00\x00\x00\x00\x1a@'
tRp441
sg52
g53
sg23
S'2'
sg18
F145.23405826091766
sg33
g34
sg51
g11
sg20
S'2'
sg65
g36
(g77
S'\x00\x00\x00\x00\x00\x00\x00\x00'
tRp442
sg44
g45
sg40
g41
sg25
F0.21067648660391569
sS'trials.thisIndex'
p443
g36
(g80
S'4\x00\x00\x00'
tRp444
sg26
V5
sS'trials.thisRepN'
p445
I0
sg66
Vmanatee
p446
sg63
V../experiment_stimuli/bw_bc_bl/Living_Things/Marine_creatures/manatee_24.jpg
p447
sg21
F0.99238475784659386
sS'trials.thisTrialN'
p448
I32
sa(dp449
g31
g32
sg17
F148.19549611909315
sg24
I0
sg35
g39
sg14
F148.19058700557798
sg16
g36
(g70
S'\x01\x00\x00\x00'
tRp450
sg42
g43
sg46
g47
sg15
g88
sg22
F154.4045955077745
sg64
g384
sg62
g74
sg49
g50
sS'trials.thisN'
p451
I33
sg19
I1
sg27
g36
(g38
S'\x00\x00\x00\x00\x00\x00\x18@'
tRp452
sg52
g53
sg23
S'3'
sg18
F149.47326939087361
sg33
g34
sg51
g11
sg20
S'1'
sg65
g36
(g77
S'\x00\x00\x00\x00\x00\x00\x00\x00'
tRp453
sg44
g45
sg40
g41
sg25
F0.32092904299497604
sS'trials.thisIndex'
p454
g36
(g80
S'$\x00\x00\x00'
tRp455
sg26
V5
sS'trials.thisRepN'
p456
I0
sg66
Vguitar
p457
sg63
V../experiment_stimuli/bw_bc_bl/Nonliving_Things/Musical_Inst/guitar_6.jpg
p458
sg21
F4.9107479830272496
sS'trials.thisTrialN'
p459
I33
sa(dp460
g31
g32
sg17
F156.46449955552816
sg24
I1
sg35
g39
sg14
F156.45861904975027
sg16
g36
(g70
S'\x02\x00\x00\x00'
tRp461
sg42
g43
sg46
g47
sg15
g88
sg22
F158.12281731329858
sg64
g138
sg62
g90
sg49
g50
sS'trials.thisN'
p462
I34
sg19
I1
sg27
g36
(g38
S'\x00\x00\x00\x00\x00\x00\x1a@'
tRp463
sg52
g53
sg23
S'1'
sg18
F157.71118008857593
sg33
g34
sg51
g11
sg20
S'2'
sg65
g36
(g77
S'\x00\x00\x00\x00\x00\x00\x00\x00'
tRp464
sg44
g45
sg40
g41
sg25
F0.10045824525877833
sS'trials.thisIndex'
p465
g36
(g80
S'J\x00\x00\x00'
tRp466
sg26
V5
sS'trials.thisRepN'
p467
I0
sg66
Vseagull
p468
sg63
V../experiment_stimuli/bw_bc_bl/Living_Things/Birds/seagull_26.jpg
p469
sg21
F0.39107088791206479
sS'trials.thisTrialN'
p470
I34
sa(dp471
g31
g32
sg17
F159.9611039487645
sg24
I1
sg35
g39
sg14
F159.95615794090554
sg16
g36
(g70
S'\x01\x00\x00\x00'
tRp472
sg42
g43
sg46
g47
sg15
g88
sg22
F161.33979140315205
sg64
g102
sg62
g74
sg49
g50
sS'trials.thisN'
p473
I35
sg19
I1
sg27
g36
(g38
S'\x00\x00\x00\x00\x00\x00\x1a@'
tRp474
sg52
g53
sg23
S'1'
sg18
F161.21881754556671
sg33
g34
sg51
g11
sg20
S'1'
sg65
g36
(g77
S'\x00\x00\x00\x00\x00\x00\x00\x00'
tRp475
sg44
g45
sg40
g41
sg25
F1.7540636202320457
sS'trials.thisIndex'
p476
g36
(g80
S'\x0c\x00\x00\x00'
tRp477
sg26
V5
sS'trials.thisRepN'
p478
I0
sg66
Vcastle
p479
sg63
V../experiment_stimuli/bw_bc_bl/Nonliving_Things/Buildings/castle_9.jpg
p480
sg21
F0.1004371028393507
sS'trials.thisTrialN'
p481
I35
sa(dp482
g31
g32
sg17
F164.83167652925476
sg24
I0
sg35
g39
sg14
F164.82675016019493
sg16
g36
(g70
S'\x01\x00\x00\x00'
tRp483
sg42
g43
sg46
g47
sg15
g72
sg22
F171.66224603215232
sg64
g89
sg62
g90
sg49
g50
sS'trials.thisN'
p484
I36
sg19
I1
sg27
g36
(g38
S'\x00\x00\x00\x00\x00\x00\x1a@'
tRp485
sg52
g53
sg23
S'2'
sg18
F166.10945082409307
sg33
g34
sg51
g11
sg20
S'1'
sg65
g36
(g77
S'\x00\x00\x00\x00\x00\x00\x00\x00'
tRp486
sg44
g45
sg40
g41
sg25
F0.48128183279186487
sS'trials.thisIndex'
p487
g36
(g80
S'\x10\x00\x00\x00'
tRp488
sg26
V5
sS'trials.thisRepN'
p489
I0
sg66
Vcheetah
p490
sg63
V../experiment_stimuli/bw_bc_bl/Living_Things/Animals/cheetah_17.jpg
p491
sg21
F5.5322515103034675
sS'trials.thisTrialN'
p492
I36
sa(dp493
g31
g32
sg17
F173.88340206025168
sg24
I0
sg35
g39
sg14
F173.87644105497748
sg16
g36
(g70
S'\x02\x00\x00\x00'
tRp494
sg42
g43
sg46
g47
sg15
g88
sg22
F175.82128740474582
sg64
g89
sg62
g90
sg49
g50
sS'trials.thisN'
p495
I37
sg19
I1
sg27
g36
(g38
S'\x00\x00\x00\x00\x00\x00\x18@'
tRp496
sg52
g53
sg23
S'2'
sg18
F175.14908814057708
sg33
g34
sg51
g11
sg20
S'2'
sg65
g36
(g77
S'\x00\x00\x00\x00\x00\x00\x00\x00'
tRp497
sg44
g45
sg40
g41
sg25
F0.4211320779286325
sS'trials.thisIndex'
p498
g36
(g80
S'\x01\x00\x00\x00'
tRp499
sg26
V5
sS'trials.thisRepN'
p500
I0
sg66
Varmadillo
p501
sg63
V../experiment_stimuli/bw_bc_bl/Living_Things/Animals/armadillo_13.jpg
p502
sg21
F0.65163574274629354
sS'trials.thisTrialN'
p503
I37
sa(dp504
g31
g32
sg17
F177.98040986247361
sg24
I1
sg35
g39
sg14
F177.97533728089184
sg16
g36
(g70
S'\x01\x00\x00\x00'
tRp505
sg42
g43
sg46
g47
sg15
g88
sg22
F179.45922747673467
sg64
g384
sg62
g74
sg49
g50
sS'trials.thisN'
p506
I38
sg19
I0
sg27
g36
(g38
S'\x00\x00\x00\x00\x00\x00\x18@'
tRp507
sg52
g53
sg23
S'1'
sg18
F179.23798261163756
sg33
g34
sg51
g11
sg20
S'2'
sg65
g36
(g77
S'\x00\x00\x00\x00\x00\x00\x00\x00'
tRp508
sg44
g45
sg40
g41
sg25
F0.28083386877551675
sS'trials.thisIndex'
p509
g36
(g80
S'X\x00\x00\x00'
tRp510
sg26
V5
sS'trials.thisRepN'
p511
I0
sg66
Vtrumpet
p512
sg63
V../experiment_stimuli/bw_bc_bl/Nonliving_Things/Musical_Inst/trumpet_15.jpg
p513
sg21
F0.20067577250301838
sS'trials.thisTrialN'
p514
I38
sa(dp515
g31
g32
sg17
F181.47786318697035
sg24
I1
sg35
g39
sg14
F181.47294107731432
sg16
g36
(g70
S'\x02\x00\x00\x00'
tRp516
sg42
g43
sg46
g47
sg15
g88
sg22
F183.03696585819125
sg64
g138
sg62
g90
sg49
g50
sS'trials.thisN'
p517
I39
sg19
I0
sg27
g36
(g38
S'\x00\x00\x00\x00\x00\x00\x1e@'
tRp518
sg52
g53
sg23
S'1'
sg18
F182.76566351484507
sg33
g34
sg51
g11
sg20
S'1'
sg65
g36
(g77
S'\x00\x00\x00\x00\x00\x00\x00\x00'
tRp519
sg44
g45
sg40
g41
sg25
F0.36101245786994696
sS'trials.thisIndex'
p520
g36
(g80
S'*\x00\x00\x00'
tRp521
sg26
V5
sS'trials.thisRepN'
p522
I0
sg66
Vhummingbird
p523
sg63
V../experiment_stimuli/bw_bc_bl/Living_Things/Birds/hummingbird_24.jpg
p524
sg21
F0.25075943116098642
sS'trials.thisTrialN'
p525
I39
sa(dp526
g31
g32
sg17
F185.13585527660325
sg24
I0
sg35
g39
sg14
F185.13089128769934
sg16
g36
(g70
S'\x02\x00\x00\x00'
tRp527
sg42
g43
sg46
g47
sg15
g88
sg22
F187.69711162569001
sg64
g126
sg62
g90
sg49
g50
sS'trials.thisN'
p528
I40
sg19
I1
sg27
g36
(g38
S'\x00\x00\x00\x00\x00\x00 @'
tRp529
sg52
g53
sg23
S'2'
sg18
F186.4536831327714
sg33
g34
sg51
g11
sg20
S'2'
sg65
g36
(g77
S'\x00\x00\x00\x00\x00\x00\x00\x00'
tRp530
sg44
g45
sg40
g41
sg25
F0.66175721446052194
sS'trials.thisIndex'
p531
g36
(g80
S'7\x00\x00\x00'
tRp532
sg26
V5
sS'trials.thisRepN'
p533
I0
sg66
Vnarwhal
p534
sg63
V../experiment_stimuli/bw_bc_bl/Living_Things/Marine_creatures/narwhal_14.jpg
p535
sg21
F1.2228729147464037
sS'trials.thisTrialN'
p536
I40
sa(dp537
g31
g32
sg17
F190.09758754028007
sg24
I0
sg35
g39
sg14
F190.09169283136725
sg16
g36
(g70
S'\x01\x00\x00\x00'
tRp538
sg42
g43
sg46
g47
sg15
g72
sg22
F192.36729030543938
sg64
g89
sg62
g90
sg49
g50
sS'trials.thisN'
p539
I41
sg19
I1
sg27
g36
(g38
S'\x00\x00\x00\x00\x00\x00\x1a@'
tRp540
sg52
g53
sg23
S'3'
sg18
F191.40444020368159
sg33
g34
sg51
g11
sg20
S'1'
sg65
g36
(g77
S'\x00\x00\x00\x00\x00\x00\x00\x00'
tRp541
sg44
g45
sg40
g41
sg25
F0.42115760734304786
sS'trials.thisIndex'
p542
g36
(g80
S'_\x00\x00\x00'
tRp543
sg26
V5
sS'trials.thisRepN'
p544
I0
sg66
Vzebra
p545
sg63
V../experiment_stimuli/bw_bc_bl/Living_Things/Animals/zebra_3.jpg
p546
sg21
F0.9422915275208652
sS'trials.thisTrialN'
p547
I41
sa(dp548
g31
g32
sg17
F194.52722790185362
sg24
I1
sg35
g39
sg14
F194.5213054982014
sg16
g36
(g70
S'\x01\x00\x00\x00'
tRp549
sg42
g43
sg46
g47
sg15
g72
sg22
F196.08535326784477
sg64
g126
sg62
g90
sg49
g50
sS'trials.thisN'
p550
I42
sg19
I1
sg27
g36
(g38
S'\x00\x00\x00\x00\x00\x00\x1e@'
tRp551
sg52
g53
sg23
S'1'
sg18
F195.80399760557339
sg33
g34
sg51
g11
sg20
S'1'
sg65
g36
(g77
S'\x00\x00\x00\x00\x00\x00\x00\x00'
tRp552
sg44
g45
sg40
g41
sg25
F2.1849697567522526
sS'trials.thisIndex'
p553
g36
(g80
S'A\x00\x00\x00'
tRp554
sg26
V5
sS'trials.thisRepN'
p555
I0
sg66
Vpomfret
p556
sg63
V../experiment_stimuli/bw_bc_bl/Living_Things/Marine_creatures/pomfret_19.jpg
p557
sg21
F0.26080401660874486
sS'trials.thisTrialN'
p558
I42
sa(dp559
g31
g32
sg17
F200.00804232526571
sg24
I0
sg35
g39
sg14
F200.00322089111432
sg16
g36
(g70
S'\x02\x00\x00\x00'
tRp560
sg42
g43
sg46
g47
sg15
g72
sg22
F202.00822897721082
sg64
g73
sg62
g74
sg49
g50
sS'trials.thisN'
p561
I43
sg19
I1
sg27
g36
(g38
S'\x00\x00\x00\x00\x00\x00\x18@'
tRp562
sg52
g53
sg23
S'3'
sg18
F201.30597691005096
sg33
g34
sg51
g11
sg20
S'2'
sg65
g36
(g77
S'\x00\x00\x00\x00\x00\x00\x00\x00'
tRp563
sg44
g45
sg40
g41
sg25
F0.34095532353967428
sS'trials.thisIndex'
p564
g36
(g80
S'.\x00\x00\x00'
tRp565
sg26
V5
sS'trials.thisRepN'
p566
I0
sg66
Vlamp
p567
sg63
V../experiment_stimuli/bw_bc_bl/Nonliving_Things/Furniture/lamp_6.jpg
p568
sg21
F0.68171151494607329
sS'trials.thisTrialN'
p569
I43
sa(dp570
g31
g32
sg17
F204.08707765163854
sg24
I1
sg35
g39
sg14
F204.08209104649723
sg16
g36
(g70
S'\x02\x00\x00\x00'
tRp571
sg42
g43
sg46
g47
sg15
g72
sg22
F205.78643317567185
sg64
g161
sg62
g74
sg49
g50
sS'trials.thisN'
p572
I44
sg19
I0
sg27
g36
(g38
S'\x00\x00\x00\x00\x00\x00\x1a@'
tRp573
sg52
g53
sg23
S'1'
sg18
F205.35475856438279
sg33
g34
sg51
g11
sg20
S'1'
sg65
g36
(g77
S'\x00\x00\x00\x00\x00\x00\x00\x00'
tRp574
sg44
g45
sg40
g41
sg25
F0.26078868238255382
sS'trials.thisIndex'
p575
g36
(g80
S'L\x00\x00\x00'
tRp576
sg26
V5
sS'trials.thisRepN'
p577
I0
sg66
Vship
p578
sg63
V../experiment_stimuli/bw_bc_bl/Nonliving_Things/Vehicles/ship_7.jpg
p579
sg21
F0.41111940564587712
sS'trials.thisTrialN'
p580
I44
sa(dp581
g31
g32
sg17
F207.78505752561614
sg24
I0
sg35
g39
sg14
F207.78016208484769
sg16
g36
(g70
S'\x02\x00\x00\x00'
tRp582
sg42
g43
sg46
g47
sg15
g72
sg22
F210.69713846361265
sg64
g73
sg62
g74
sg49
g50
sS'trials.thisN'
p583
I45
sg19
I1
sg27
g36
(g38
S'\x00\x00\x00\x00\x00\x00\x18@'
tRp584
sg52
g53
sg23
S'3'
sg18
F209.07284512044862
sg33
g34
sg51
g11
sg20
S'2'
sg65
g36
(g77
S'\x00\x00\x00\x00\x00\x00\x00\x00'
tRp585
sg44
g45
sg40
g41
sg25
F0.87211428815498948
sS'trials.thisIndex'
p586
g36
(g80
S'\x0f\x00\x00\x00'
tRp587
sg26
V5
sS'trials.thisRepN'
p588
I0
sg66
Vchair
p589
sg63
V../experiment_stimuli/bw_bc_bl/Nonliving_Things/Furniture/chair_25.jpg
p590
sg21
F1.6037110700272024
sS'trials.thisTrialN'
p591
I45
sa(dp592
g31
g32
sg17
F213.30812338599935
sg24
I0
sg35
g39
sg14
F213.30213494133204
sg16
g36
(g70
S'\x02\x00\x00\x00'
tRp593
sg42
g43
sg46
g47
sg15
g88
sg22
F215.45745999133214
sg64
g138
sg62
g90
sg49
g50
sS'trials.thisN'
p594
I46
sg19
I1
sg27
g36
(g38
S'\x00\x00\x00\x00\x00\x00\x18@'
tRp595
sg52
g53
sg23
S'2'
sg18
F214.56479424564168
sg33
g34
sg51
g11
sg20
S'2'
sg65
g36
(g77
S'\x00\x00\x00\x00\x00\x00\x00\x00'
tRp596
sg44
g45
sg40
g41
sg25
F0.22069458710029721
sS'trials.thisIndex'
p597
g36
(g80
S'<\x00\x00\x00'
tRp598
sg26
V5
sS'trials.thisRepN'
p599
I0
sg66
Vpelican
p600
sg63
V../experiment_stimuli/bw_bc_bl/Living_Things/Birds/pelican_11.jpg
p601
sg21
F0.87212405493482947
sS'trials.thisTrialN'
p602
I46
sa(dp603
g31
g32
sg17
F217.41707867849618
sg24
I1
sg35
g39
sg14
F217.41107478691265
sg16
g36
(g70
S'\x01\x00\x00\x00'
tRp604
sg42
g43
sg46
g47
sg15
g72
sg22
F219.00521201686934
sg64
g89
sg62
g90
sg49
g50
sS'trials.thisN'
p605
I47
sg19
I0
sg27
g36
(g38
S'\x00\x00\x00\x00\x00\x00\x18@'
tRp606
sg52
g53
sg23
S'1'
sg18
F218.66369358822703
sg33
g34
sg51
g11
sg20
S'2'
sg65
g36
(g77
S'\x00\x00\x00\x00\x00\x00\x00\x00'
tRp607
sg44
g45
sg40
g41
sg25
F0.28082459839060903
sS'trials.thisIndex'
p608
g36
(g80
S'R\x00\x00\x00'
tRp609
sg26
V5
sS'trials.thisRepN'
p610
I0
sg66
Vtapir
p611
sg63
V../experiment_stimuli/bw_bc_bl/Living_Things/Animals/tapir_17.jpg
p612
sg21
F0.32093256153166294
sS'trials.thisTrialN'
p613
I47
sa(dp614
g31
g32
sg17
F221.02373446151614
sg24
I0
sg35
g39
sg14
F221.0189152113162
sg16
g36
(g70
S'\x02\x00\x00\x00'
tRp615
sg42
g43
sg46
g47
sg15
g88
sg22
F224.0868909349665
sg64
g114
sg62
g90
sg49
g50
sS'trials.thisN'
p616
I48
sg19
I1
sg27
g36
(g38
S'\x00\x00\x00\x00\x00\x00\x18@'
tRp617
sg52
g53
sg23
S'2'
sg18
F222.31162520172074
sg33
g34
sg51
g11
sg20
S'2'
sg65
g36
(g77
S'\x00\x00\x00\x00\x00\x00\x00\x00'
tRp618
sg44
g45
sg40
g41
sg25
F0.59151029959321022
sS'trials.thisIndex'
p619
g36
(g80
S'\n\x00\x00\x00'
tRp620
sg26
V5
sS'trials.thisRepN'
p621
I0
sg66
Vbutterfly
p622
sg63
V../experiment_stimuli/bw_bc_bl/Living_Things/Insects/butterfly_8.jpg
p623
sg21
F1.7540509845130146
sS'trials.thisTrialN'
p624
I48
sa(dp625
g31
g32
sg17
F226.41540357191116
sg24
I1
sg35
g39
sg14
F226.41063259914517
sg16
g36
(g70
S'\x01\x00\x00\x00'
tRp626
sg42
g43
sg46
g47
sg15
g72
sg22
F228.05484640458599
sg64
g126
sg62
g90
sg49
g50
sS'trials.thisN'
p627
I49
sg19
I0
sg27
g36
(g38
S'\x00\x00\x00\x00\x00\x00\x18@'
tRp628
sg52
g53
sg23
S'1'
sg18
F227.68332090601325
sg33
g34
sg51
g11
sg20
S'2'
sg65
g36
(g77
S'\x00\x00\x00\x00\x00\x00\x00\x00'
tRp629
sg44
g45
sg40
g41
sg25
F0.28083519265055656
sS'trials.thisIndex'
p630
g36
(g80
S'P\x00\x00\x00'
tRp631
sg26
V5
sS'trials.thisRepN'
p632
I0
sg66
Vsperm-whale
p633
sg63
V../experiment_stimuli/bw_bc_bl/Living_Things/Marine_creatures/sperm-whale_14.jpg
p634
sg21
F0.35099043184891343
sS'trials.thisTrialN'
p635
I49
sa(dp636
g31
g32
sg17
F230.0734005747363
sg24
I1
sg35
g39
sg14
F230.0685864710249
sg16
g36
(g70
S'\x01\x00\x00\x00'
tRp637
sg42
g43
sg46
g47
sg15
g72
sg22
F231.65253196284175
sg64
g138
sg62
g90
sg49
g50
sS'trials.thisN'
p638
I50
sg19
I1
sg27
g36
(g38
S'\x00\x00\x00\x00\x00\x00\x1e@'
tRp639
sg52
g53
sg23
S'1'
sg18
F231.35127846198156
sg33
g34
sg51
g11
sg20
S'1'
sg65
g36
(g77
S'\x00\x00\x00\x00\x00\x00\x00\x00'
tRp640
sg44
g45
sg40
g41
sg25
F0.30088138626888394
sS'trials.thisIndex'
p641
g36
(g80
S'8\x00\x00\x00'
tRp642
sg26
V5
sS'trials.thisRepN'
p643
I0
sg66
Vostrich
p644
sg63
V../experiment_stimuli/bw_bc_bl/Living_Things/Birds/ostrich_23.jpg
p645
sg21
F0.28067008592188358
sS'trials.thisTrialN'
p646
I50
sa(dp647
g31
g32
sg17
F233.69130459940061
sg24
I0
sg35
g39
sg14
F233.68645220994949
sg16
g36
(g70
S'\x02\x00\x00\x00'
tRp648
sg42
g43
sg46
g47
sg15
g88
sg22
F235.5812012325041
sg64
g138
sg62
g90
sg49
g50
sS'trials.thisN'
p649
I51
sg19
I1
sg27
g36
(g38
S'\x00\x00\x00\x00\x00\x00 @'
tRp650
sg52
g53
sg23
S'2'
sg18
F234.99921054486185
sg33
g34
sg51
g11
sg20
S'2'
sg65
g36
(g77
S'\x00\x00\x00\x00\x00\x00\x00\x00'
tRp651
sg44
g45
sg40
g41
sg25
F0.28083233488723636
sS'trials.thisIndex'
p652
g36
(g80
S'=\x00\x00\x00'
tRp653
sg26
V5
sS'trials.thisRepN'
p654
I0
sg66
Vpenguin
p655
sg63
V../experiment_stimuli/bw_bc_bl/Living_Things/Birds/penguin_2.jpg
p656
sg21
F0.56144011346623302
sS'trials.thisTrialN'
p657
I51
sa(dp658
g31
g32
sg17
F237.59975002659485
sg24
I0
sg35
g39
sg14
F237.59494876489043
sg16
g36
(g70
S'\x01\x00\x00\x00'
tRp659
sg42
g43
sg46
g47
sg15
g88
sg22
F239.74026257824153
sg64
g102
sg62
g74
sg49
g50
sS'trials.thisN'
p660
I52
sg19
I1
sg27
g36
(g38
S'\x00\x00\x00\x00\x00\x00\x18@'
tRp661
sg52
g53
sg23
S'2'
sg18
F238.89769705850631
sg33
g34
sg51
g11
sg20
S'1'
sg65
g36
(g77
S'\x00\x00\x00\x00\x00\x00\x00\x00'
tRp662
sg44
g45
sg40
g41
sg25
F0.31089490838348866
sS'trials.thisIndex'
p663
g36
(g80
S'\x0e\x00\x00\x00'
tRp664
sg26
V5
sS'trials.thisRepN'
p665
I0
sg66
Vcathedral
p666
sg63
V../experiment_stimuli/bw_bc_bl/Nonliving_Things/Buildings/cathedral_26.jpg
p667
sg21
F0.82201585546135902
sS'trials.thisTrialN'
p668
I52
sa(dp669
g31
g32
sg17
F241.78909803228453
sg24
I0
sg35
g39
sg14
F241.78405357850716
sg16
g36
(g70
S'\x02\x00\x00\x00'
tRp670
sg42
g43
sg46
g47
sg15
g88
sg22
F243.56859047990292
sg64
g138
sg62
g90
sg49
g50
sS'trials.thisN'
p671
I53
sg19
I1
sg27
g36
(g38
S'\x00\x00\x00\x00\x00\x00\x1c@'
tRp672
sg52
g53
sg23
S'3'
sg18
F243.07676929421723
sg33
g34
sg51
g11
sg20
S'2'
sg65
g36
(g77
S'\x00\x00\x00\x00\x00\x00\x00\x00'
tRp673
sg44
g45
sg40
g41
sg25
F0.37102410383522511
sS'trials.thisIndex'
p674
g36
(g80
S';\x00\x00\x00'
tRp675
sg26
V5
sS'trials.thisRepN'
p676
I0
sg66
Vpartridge
p677
sg63
V../experiment_stimuli/bw_bc_bl/Living_Things/Birds/partridge_20.jpg
p678
sg21
F0.47125281114131212
sS'trials.thisTrialN'
p679
I53
sa(dp680
g31
g32
sg17
F245.67737393686548
sg24
I0
sg35
g39
sg14
F245.67250886373222
sg16
g36
(g70
S'\x01\x00\x00\x00'
tRp681
sg42
g43
sg46
g47
sg15
g88
sg22
F247.73764669382945
sg64
g317
sg62
g74
sg49
g50
sS'trials.thisN'
p682
I54
sg19
I1
sg27
g36
(g38
S'\x00\x00\x00\x00\x00\x00\x18@'
tRp683
sg52
g53
sg23
S'2'
sg18
F246.94519175728783
sg33
g34
sg51
g11
sg20
S'1'
sg65
g36
(g77
S'\x00\x00\x00\x00\x00\x00\x00\x00'
tRp684
sg44
g45
sg40
g41
sg25
F0.30071680201217532
sS'trials.thisIndex'
p685
g36
(g80
S'M\x00\x00\x00'
tRp686
sg26
V5
sS'trials.thisRepN'
p687
I0
sg66
Vsmall-saucepan
p688
sg63
V../experiment_stimuli/bw_bc_bl/Nonliving_Things/Kitchen_Uten/small-saucepan_12.jpg
p689
sg21
F0.77190485876053572
sS'trials.thisTrialN'
p690
I54
sa(dp691
g31
g32
sg17
F249.7774930363521
sg24
I1
sg35
g39
sg14
F249.77142373239622
sg16
g36
(g70
S'\x01\x00\x00\x00'
tRp692
sg42
g43
sg46
g47
sg15
g88
sg22
F251.61608493095264
sg64
g102
sg62
g74
sg49
g50
sS'trials.thisN'
p693
I55
sg19
I1
sg27
g36
(g38
S'\x00\x00\x00\x00\x00\x00\x1e@'
tRp694
sg52
g53
sg23
S'1'
sg18
F251.0441018329002
sg33
g34
sg51
g11
sg20
S'1'
sg65
g36
(g77
S'\x00\x00\x00\x00\x00\x00\x00\x00'
tRp695
sg44
g45
sg40
g41
sg25
F0.20065406616777182
sS'trials.thisIndex'
p696
g36
(g80
S'\x1c\x00\x00\x00'
tRp697
sg26
V5
sS'trials.thisRepN'
p698
I0
sg66
Vfactory
p699
sg63
V../experiment_stimuli/bw_bc_bl/Nonliving_Things/Buildings/factory_6.jpg
p700
sg21
F0.55142593383789062
sS'trials.thisTrialN'
p701
I55
sa(dp702
g31
g32
sg17
F253.55441106902435
sg24
I0
sg35
g39
sg14
F253.54964243480936
sg16
g36
(g70
S'\x01\x00\x00\x00'
tRp703
sg42
g43
sg46
g47
sg15
g72
sg22
F255.50453314837068
sg64
g89
sg62
g90
sg49
g50
sS'trials.thisN'
p704
I56
sg19
I1
sg27
g36
(g38
S'\x00\x00\x00\x00\x00\x00\x18@'
tRp705
sg52
g53
sg23
S'2'
sg18
F254.84236051887274
sg33
g34
sg51
g11
sg20
S'1'
sg65
g36
(g77
S'\x00\x00\x00\x00\x00\x00\x00\x00'
tRp706
sg44
g45
sg40
g41
sg25
F0.25076041603460908
sS'trials.thisIndex'
p707
g36
(g80
S'\x14\x00\x00\x00'
tRp708
sg26
V5
sS'trials.thisRepN'
p709
I0
sg66
Vcow
p710
sg63
V../experiment_stimuli/bw_bc_bl/Living_Things/Animals/cow_2.jpg
p711
sg21
F0.64161895355209708
sS'trials.thisTrialN'
p712
I56
sa(dp713
g31
g32
sg17
F257.49305169191211
sg24
I0
sg35
g39
sg14
F257.48820306966081
sg16
g36
(g70
S'\x01\x00\x00\x00'
tRp714
sg42
g43
sg46
g47
sg15
g88
sg22
F259.52329345047474
sg64
g384
sg62
g74
sg49
g50
sS'trials.thisN'
p715
I57
sg19
I1
sg27
g36
(g38
S'\x00\x00\x00\x00\x00\x00\x18@'
tRp716
sg52
g53
sg23
S'3'
sg18
F258.76087544485927
sg33
g34
sg51
g11
sg20
S'1'
sg65
g36
(g77
S'\x00\x00\x00\x00\x00\x00\x00\x00'
tRp717
sg44
g45
sg40
g41
sg25
F0.26079724589362741
sS'trials.thisIndex'
p718
g36
(g80
S'>\x00\x00\x00'
tRp719
sg26
V5
sS'trials.thisRepN'
p720
I0
sg66
Vpiano
p721
sg63
V../experiment_stimuli/bw_bc_bl/Nonliving_Things/Musical_Inst/piano__17.jpg
p722
sg21
F0.74185366509482265
sS'trials.thisTrialN'
p723
I57
sa(dp724
g31
g32
sg17
F261.521835335996
sg24
I1
sg35
g39
sg14
F261.51695723645389
sg16
g36
(g70
S'\x02\x00\x00\x00'
tRp725
sg42
g43
sg46
g47
sg15
g88
sg22
F263.36160751758143
sg64
g89
sg62
g90
sg49
g50
sS'trials.thisN'
p726
I58
sg19
I1
sg27
g36
(g38
S'\x00\x00\x00\x00\x00\x00\x1e@'
tRp727
sg52
g53
sg23
S'1'
sg18
F262.76958178216591
sg33
g34
sg51
g11
sg20
S'2'
sg65
g36
(g77
S'\x00\x00\x00\x00\x00\x00\x00\x00'
tRp728
sg44
g45
sg40
g41
sg25
F0.060350827407091856
sS'trials.thisIndex'
p729
g36
(g80
S'2\x00\x00\x00'
tRp730
sg26
V5
sS'trials.thisRepN'
p731
I0
sg66
Vlynx
p732
sg63
V../experiment_stimuli/bw_bc_bl/Living_Things/Animals/lynx_1.jpg
p733
sg21
F0.57146438350901008
sS'trials.thisTrialN'
p734
I58
sa(dp735
g31
g32
sg17
F265.15967317996547
sg24
I0
sg35
g39
sg14
F265.1548694181256
sg16
g36
(g70
S'\x02\x00\x00\x00'
tRp736
sg42
g43
sg46
g47
sg15
g88
sg22
F269.21417844062671
sg64
g114
sg62
g90
sg49
g50
sS'trials.thisN'
p737
I59
sg19
I0
sg27
g36
(g38
S'\x00\x00\x00\x00\x00\x00\x18@'
tRp738
sg52
g53
sg23
S'3'
sg18
F266.43755781883374
sg33
g34
sg51
g11
sg20
S'1'
sg65
g36
(g77
S'\x00\x00\x00\x00\x00\x00\x00\x00'
tRp739
sg44
g45
sg40
g41
sg25
F0.1806643451564014
sS'trials.thisIndex'
p740
g36
(g80
S'-\x00\x00\x00'
tRp741
sg26
V5
sS'trials.thisRepN'
p742
I0
sg66
Vladybird
p743
sg63
V../experiment_stimuli/bw_bc_bl/Living_Things/Insects/ladybird_18.jpg
p744
sg21
F2.7560548447072506
sS'trials.thisTrialN'
p745
I59
sa(dp746
g31
g32
sg17
F271.13257118780166
sg24
I1
sg35
g39
sg14
F271.12785455258563
sg16
g36
(g70
S'\x02\x00\x00\x00'
tRp747
sg42
g43
sg46
g47
sg15
g72
sg22
F273.0025753127411
sg64
g73
sg62
g74
sg49
g50
sS'trials.thisN'
p748
I60
sg19
I0
sg27
g36
(g38
S'\x00\x00\x00\x00\x00\x00\x1c@'
tRp749
sg52
g53
sg23
S'1'
sg18
F272.38047534273937
sg33
g34
sg51
g11
sg20
S'1'
sg65
g36
(g77
S'\x00\x00\x00\x00\x00\x00\x00\x00'
tRp750
sg44
g45
sg40
g41
sg25
F1.9244230934418738
sS'trials.thisIndex'
p751
g36
(g80
S'\x13\x00\x00\x00'
tRp752
sg26
V5
sS'trials.thisRepN'
p753
I0
sg66
Vcouch
p754
sg63
V../experiment_stimuli/bw_bc_bl/Nonliving_Things/Furniture/couch_0.jpg
p755
sg21
F0.60152716329321265
sS'trials.thisTrialN'
p756
I60
sa(dp757
g31
g32
sg17
F276.66459898743778
sg24
I0
sg35
g39
sg14
F276.65988028421998
sg16
g36
(g70
S'\x01\x00\x00\x00'
tRp758
sg42
g43
sg46
g47
sg15
g88
sg22
F278.82523398753256
sg64
g317
sg62
g74
sg49
g50
sS'trials.thisN'
p759
I61
sg19
I1
sg27
g36
(g38
S'\x00\x00\x00\x00\x00\x00\x18@'
tRp760
sg52
g53
sg23
S'3'
sg18
F277.93254884704947
sg33
g34
sg51
g11
sg20
S'1'
sg65
g36
(g77
S'\x00\x00\x00\x00\x00\x00\x00\x00'
tRp761
sg44
g45
sg40
g41
sg25
F0.2407350935973227
sS'trials.thisIndex'
p762
g36
(g80
S'\x16\x00\x00\x00'
tRp763
sg26
V5
sS'trials.thisRepN'
p764
I0
sg66
Vcup
p765
sg63
V../experiment_stimuli/bw_bc_bl/Nonliving_Things/Kitchen_Uten/cup_17.jpg
p766
sg21
F0.87212384073063731
sS'trials.thisTrialN'
p767
I61
sa(dp768
g31
g32
sg17
F280.80374169722199
sg24
I1
sg35
g39
sg14
F280.79887885693461
sg16
g36
(g70
S'\x01\x00\x00\x00'
tRp769
sg42
g43
sg46
g47
sg15
g72
sg22
F282.3228318025358
sg64
g126
sg62
g90
sg49
g50
sS'trials.thisN'
p770
I62
sg19
I0
sg27
g36
(g38
S'\x00\x00\x00\x00\x00\x00\x1a@'
tRp771
sg52
g53
sg23
S'1'
sg18
F282.04149472247809
sg33
g34
sg51
g11
sg20
S'2'
sg65
g36
(g77
S'\x00\x00\x00\x00\x00\x00\x00\x00'
tRp772
sg44
g45
sg40
g41
sg25
F0.13050566846504807
sS'trials.thisIndex'
p773
g36
(g80
S'\x17\x00\x00\x00'
tRp774
sg26
V5
sS'trials.thisRepN'
p775
I0
sg66
Vdolphin
p776
sg63
V../experiment_stimuli/bw_bc_bl/Living_Things/Marine_creatures/dolphin_10.jpg
p777
sg21
F0.26078313775360584
sS'trials.thisTrialN'
p778
I62
sa(dp779
g31
g32
sg17
F284.19101910339668
sg24
I0
sg35
g39
sg14
F284.18624063814059
sg16
g36
(g70
S'\x01\x00\x00\x00'
tRp780
sg42
g43
sg46
g47
sg15
g88
sg22
F286.47185358544812
sg64
g73
sg62
g74
sg49
g50
sS'trials.thisN'
p781
I63
sg19
I1
sg27
g36
(g38
S'\x00\x00\x00\x00\x00\x00\x18@'
tRp782
sg52
g53
sg23
S'3'
sg18
F285.44889722066
sg33
g34
sg51
g11
sg20
S'1'
sg65
g36
(g77
S'\x00\x00\x00\x00\x00\x00\x00\x00'
tRp783
sg44
g45
sg40
g41
sg25
F0.17058402672410011
sS'trials.thisIndex'
p784
g36
(g80
S'\x1d\x00\x00\x00'
tRp785
sg26
V5
sS'trials.thisRepN'
p786
I0
sg66
Vfilling-cabinet
p787
sg63
V../experiment_stimuli/bw_bc_bl/Nonliving_Things/Furniture/filling-cabinet_11.jpg
p788
sg21
F1.0024003772996366
sS'trials.thisTrialN'
p789
I63
sa(dp790
g31
g32
sg17
F288.38010131241754
sg24
I1
sg35
g39
sg14
F288.37534933211282
sg16
g36
(g70
S'\x02\x00\x00\x00'
tRp791
sg42
g43
sg46
g47
sg15
g72
sg22
F289.90935153933242
sg64
g161
sg62
g74
sg49
g50
sS'trials.thisN'
p792
I64
sg19
I1
sg27
g36
(g38
S'\x00\x00\x00\x00\x00\x00 @'
tRp793
sg52
g53
sg23
S'1'
sg18
F289.60794232180342
sg33
g34
sg51
g11
sg20
S'2'
sg65
g36
(g77
S'\x00\x00\x00\x00\x00\x00\x00\x00'
tRp794
sg44
g45
sg40
g41
sg25
F0.090407938230782747
sS'trials.thisIndex'
p795
g36
(g80
S'\t\x00\x00\x00'
tRp796
sg26
V5
sS'trials.thisRepN'
p797
I0
sg66
Vbus
p798
sg63
V../experiment_stimuli/bw_bc_bl/Nonliving_Things/Vehicles/bus_5.jpg
p799
sg21
F0.2808624473400414
sS'trials.thisTrialN'
p800
I64
sa(dp801
g31
g32
sg17
F291.7375106876716
sg24
I1
sg35
g39
sg14
F291.73265155451372
sg16
g36
(g70
S'\x01\x00\x00\x00'
tRp802
sg42
g43
sg46
g47
sg15
g88
sg22
F293.33677758090198
sg64
g161
sg62
g74
sg49
g50
sS'trials.thisN'
p803
I65
sg19
I1
sg27
g36
(g38
S'\x00\x00\x00\x00\x00\x00 @'
tRp804
sg52
g53
sg23
S'1'
sg18
F292.98527860734612
sg33
g34
sg51
g11
sg20
S'1'
sg65
g36
(g77
S'\x00\x00\x00\x00\x00\x00\x00\x00'
tRp805
sg44
g45
sg40
g41
sg25
F0.2106728139333427
sS'trials.thisIndex'
p806
g36
(g80
S'6\x00\x00\x00'
tRp807
sg26
V5
sS'trials.thisRepN'
p808
I0
sg66
Vmotorbike
p809
sg63
V../experiment_stimuli/bw_bc_bl/Nonliving_Things/Vehicles/motorbike_9.jpg
p810
sg21
F0.32091873837634921
sS'trials.thisTrialN'
p811
I65
sa(dp812
g31
g32
sg17
F295.28530422784388
sg24
I1
sg35
g39
sg14
F295.28037863317877
sg16
g36
(g70
S'\x02\x00\x00\x00'
tRp813
sg42
g43
sg46
g47
sg15
g72
sg22
F297.58605915727094
sg64
g102
sg62
g74
sg49
g50
sS'trials.thisN'
p814
I66
sg19
I0
sg27
g36
(g38
S'\x00\x00\x00\x00\x00\x00\x1a@'
tRp815
sg52
g53
sg23
S'1'
sg18
F296.57307401066646
sg33
g34
sg51
g11
sg20
S'1'
sg65
g36
(g77
S'\x00\x00\x00\x00\x00\x00\x00\x00'
tRp816
sg44
g45
sg40
g41
sg25
F0.16055878298357129
sS'trials.thisIndex'
p817
g36
(g80
S'#\x00\x00\x00'
tRp818
sg26
V5
sS'trials.thisRepN'
p819
I0
sg66
Vgranary
p820
sg63
V../experiment_stimuli/bw_bc_bl/Nonliving_Things/Buildings/granary_2.jpg
p821
sg21
F0.99240621970966458
sS'trials.thisTrialN'
p822
I66
sa(dp823
g31
g32
sg17
F299.4843078320846
sg24
I0
sg35
g39
sg14
F299.47949742013589
sg16
g36
(g70
S'\x01\x00\x00\x00'
tRp824
sg42
g43
sg46
g47
sg15
g72
sg22
F301.78515557246283
sg64
g126
sg62
g90
sg49
g50
sS'trials.thisN'
p825
I67
sg19
I1
sg27
g36
(g38
S'\x00\x00\x00\x00\x00\x00\x18@'
tRp826
sg52
g53
sg23
S'2'
sg18
F300.79225533362478
sg33
g34
sg51
g11
sg20
S'1'
sg65
g36
(g77
S'\x00\x00\x00\x00\x00\x00\x00\x00'
tRp827
sg44
g45
sg40
g41
sg25
F0.15061404602602124
sS'trials.thisIndex'
p828
g36
(g80
S'^\x00\x00\x00'
tRp829
sg26
V5
sS'trials.thisRepN'
p830
I0
sg66
Vwhale
p831
sg63
V../experiment_stimuli/bw_bc_bl/Living_Things/Marine_creatures/whale_21.jpg
p832
sg21
F0.97234570235013962
sS'trials.thisTrialN'
p833
I67
sa(dp834
g31
g32
sg17
F303.67334696650505
sg24
I1
sg35
g39
sg14
F303.66860381653532
sg16
g36
(g70
S'\x02\x00\x00\x00'
tRp835
sg42
g43
sg46
g47
sg15
g88
sg22
F305.41304822452366
sg64
g126
sg62
g90
sg49
g50
sS'trials.thisN'
p836
I68
sg19
I1
sg27
g36
(g38
S'\x00\x00\x00\x00\x00\x00\x1a@'
tRp837
sg52
g53
sg23
S'1'
sg18
F304.96131982561201
sg33
g34
sg51
g11
sg20
S'2'
sg65
g36
(g77
S'\x00\x00\x00\x00\x00\x00\x00\x00'
tRp838
sg44
g45
sg40
g41
sg25
F0.090416283812373877
sS'trials.thisIndex'
p839
g36
(g80
S'+\x00\x00\x00'
tRp840
sg26
V5
sS'trials.thisRepN'
p841
I0
sg66
Vkiller-whale
p842
sg63
V../experiment_stimuli/bw_bc_bl/Living_Things/Marine_creatures/killer-whale_19.jpg
p843
sg21
F0.43118305038660765
sS'trials.thisTrialN'
p844
I68
sa(dp845
g31
g32
sg17
F307.24119956139475
sg24
I0
sg35
g39
sg14
F307.23635217966512
sg16
g36
(g70
S'\x01\x00\x00\x00'
tRp846
sg42
g43
sg46
g47
sg15
g72
sg22
F309.16117901587859
sg64
g138
sg62
g90
sg49
g50
sS'trials.thisN'
p847
I69
sg19
I1
sg27
g36
(g38
S'\x00\x00\x00\x00\x00\x00\x1e@'
tRp848
sg52
g53
sg23
S'2'
sg18
F308.53909342130646
sg33
g34
sg51
g11
sg20
S'1'
sg65
g36
(g77
S'\x00\x00\x00\x00\x00\x00\x00\x00'
tRp849
sg44
g45
sg40
g41
sg25
F0.20064599858596921
sS'trials.thisIndex'
p850
g36
(g80
S'3\x00\x00\x00'
tRp851
sg26
V5
sS'trials.thisRepN'
p852
I0
sg66
Vmagpie
p853
sg63
V../experiment_stimuli/bw_bc_bl/Living_Things/Birds/magpie_14.jpg
p854
sg21
F0.60153586277738214
sS'trials.thisTrialN'
p855
I69
sa(dp856
g31
g32
sg17
F311.09959929576144
sg24
I0
sg35
g39
sg14
F311.09474362106994
sg16
g36
(g70
S'\x01\x00\x00\x00'
tRp857
sg42
g43
sg46
g47
sg15
g88
sg22
F313.47055860329419
sg64
g161
sg62
g74
sg49
g50
sS'trials.thisN'
p858
I70
sg19
I0
sg27
g36
(g38
S'\x00\x00\x00\x00\x00\x00 @'
tRp859
sg52
g53
sg23
S'3'
sg18
F312.39749167812988
sg33
g34
sg51
g11
sg20
S'2'
sg65
g36
(g77
S'\x00\x00\x00\x00\x00\x00\x00\x00'
tRp860
sg44
g45
sg40
g41
sg25
F0.30071443365886807
sS'trials.thisIndex'
p861
g36
(g80
S'[\x00\x00\x00'
tRp862
sg26
V5
sS'trials.thisRepN'
p863
I0
sg66
Vvan
p864
sg63
V../experiment_stimuli/bw_bc_bl/Nonliving_Things/Vehicles/van_11.jpg
p865
sg21
F1.0525146252475679
sS'trials.thisTrialN'
p866
I70
sa(dp867
g31
g32
sg17
F315.50910102436319
sg24
I0
sg35
g39
sg14
F315.50432361941785
sg16
g36
(g70
S'\x01\x00\x00\x00'
tRp868
sg42
g43
sg46
g47
sg15
g88
sg22
F317.25880048144609
sg64
g73
sg62
g74
sg49
g50
sS'trials.thisN'
p869
I71
sg19
I1
sg27
g36
(g38
S'\x00\x00\x00\x00\x00\x00\x18@'
tRp870
sg52
g53
sg23
S'2'
sg18
F316.77700741915032
sg33
g34
sg51
g11
sg20
S'1'
sg65
g36
(g77
S'\x00\x00\x00\x00\x00\x00\x00\x00'
tRp871
sg44
g45
sg40
g41
sg25
F0.27082193735986948
sS'trials.thisIndex'
p872
g36
(g80
S'/\x00\x00\x00'
tRp873
sg26
V5
sS'trials.thisRepN'
p874
I0
sg66
Vlectern
p875
sg63
V../experiment_stimuli/bw_bc_bl/Nonliving_Things/Furniture/lectern_17.jpg
p876
sg21
F0.46122218389064074
sS'trials.thisTrialN'
p877
I71
sa(dp878
g31
g32
sg17
F319.26729619409889
sg24
I0
sg35
g39
sg14
F319.26249742833897
sg16
g36
(g70
S'\x01\x00\x00\x00'
tRp879
sg42
g43
sg46
g47
sg15
g88
sg22
F321.65833477769047
sg64
g161
sg62
g74
sg49
g50
sS'trials.thisN'
p880
I72
sg19
I1
sg27
g36
(g38
S'\x00\x00\x00\x00\x00\x00\x1c@'
tRp881
sg52
g53
sg23
S'3'
sg18
F320.5151262069121
sg33
g34
sg51
g11
sg20
S'1'
sg65
g36
(g77
S'\x00\x00\x00\x00\x00\x00\x00\x00'
tRp882
sg44
g45
sg40
g41
sg25
F0.29086703713983297
sS'trials.thisIndex'
p883
g36
(g80
S'\x0b\x00\x00\x00'
tRp884
sg26
V5
sS'trials.thisRepN'
p885
I0
sg66
Vcar
p886
sg63
V../experiment_stimuli/bw_bc_bl/Nonliving_Things/Vehicles/car_23.jpg
p887
sg21
F1.1226626625284553
sS'trials.thisTrialN'
p888
I72
sa(dp889
g31
g32
sg17
F323.68695861194283
sg24
I1
sg35
g39
sg14
F323.68212403496727
sg16
g36
(g70
S'\x01\x00\x00\x00'
tRp890
sg42
g43
sg46
g47
sg15
g88
sg22
F326.48885290231556
sg64
g317
sg62
g74
sg49
g50
sS'trials.thisN'
p891
I73
sg19
I0
sg27
g36
(g38
S'\x00\x00\x00\x00\x00\x00\x18@'
tRp892
sg52
g53
sg23
S'1'
sg18
F324.91470401035622
sg33
g34
sg51
g11
sg20
S'2'
sg65
g36
(g77
S'\x00\x00\x00\x00\x00\x00\x00\x00'
tRp893
sg44
g45
sg40
g41
sg25
F0.060370334889739752
sS'trials.thisIndex'
p894
g36
(g80
S'S\x00\x00\x00'
tRp895
sg26
V5
sS'trials.thisRepN'
p896
I0
sg66
Vteapot
p897
sg63
V../experiment_stimuli/bw_bc_bl/Nonliving_Things/Kitchen_Uten/teapot_1.jpg
p898
sg21
F1.5535984905436635
sS'trials.thisTrialN'
p899
I73
sa(dp900
g31
g32
sg17
F328.28693250427023
sg24
I1
sg35
g39
sg14
F328.2821057238616
sg16
g36
(g70
S'\x01\x00\x00\x00'
tRp901
sg42
g43
sg46
g47
sg15
g72
sg22
F329.81608631508425
sg64
g138
sg62
g90
sg49
g50
sS'trials.thisN'
p902
I74
sg19
I0
sg27
g36
(g38
S'\x00\x00\x00\x00\x00\x00\x18@'
tRp903
sg52
g53
sg23
S'1'
sg18
F329.53473857371137
sg33
g34
sg51
g11
sg20
S'2'
sg65
g36
(g77
S'\x00\x00\x00\x00\x00\x00\x00\x00'
tRp904
sg44
g45
sg40
g41
sg25
F0.14052066765725613
sS'trials.thisIndex'
p905
g36
(g80
S'C\x00\x00\x00'
tRp906
sg26
V5
sS'trials.thisRepN'
p907
I0
sg66
Vraven
p908
sg63
V../experiment_stimuli/bw_bc_bl/Living_Things/Birds/raven_9.jpg
p909
sg21
F0.26079518953338265
sS'trials.thisTrialN'
p910
I74
sa(dp911
g31
g32
sg17
F331.69431129191071
sg24
I0
sg35
g39
sg14
F331.68951630033553
sg16
g36
(g70
S'\x02\x00\x00\x00'
tRp912
sg42
g43
sg46
g47
sg15
g72
sg22
F333.72457133606076
sg64
g73
sg62
g74
sg49
g50
sS'trials.thisN'
p913
I75
sg19
I1
sg27
g36
(g38
S'\x00\x00\x00\x00\x00\x00\x1e@'
tRp914
sg52
g53
sg23
S'2'
sg18
F332.96219401713461
sg33
g34
sg51
g11
sg20
S'2'
sg65
g36
(g77
S'\x00\x00\x00\x00\x00\x00\x00\x00'
tRp915
sg44
g45
sg40
g41
sg25
F0.48128559626638889
sS'trials.thisIndex'
p916
g36
(g80
S'N\x00\x00\x00'
tRp917
sg26
V5
sS'trials.thisRepN'
p918
I0
sg66
Vsofa
p919
sg63
V../experiment_stimuli/bw_bc_bl/Nonliving_Things/Furniture/sofa_14.jpg
p920
sg21
F0.74183522537350655
sS'trials.thisTrialN'
p921
I75
sa(dp922
g31
g32
sg17
F335.94351708702743
sg24
I0
sg35
g39
sg14
F335.93875633971766
sg16
g36
(g70
S'\x02\x00\x00\x00'
tRp923
sg42
g43
sg46
g47
sg15
g72
sg22
F337.80345686757937
sg64
g317
sg62
g74
sg49
g50
sS'trials.thisN'
p924
I76
sg19
I1
sg27
g36
(g38
S'\x00\x00\x00\x00\x00\x00\x18@'
tRp925
sg52
g53
sg23
S'2'
sg18
F337.20140456501395
sg33
g34
sg51
g11
sg20
S'2'
sg65
g36
(g77
S'\x00\x00\x00\x00\x00\x00\x00\x00'
tRp926
sg44
g45
sg40
g41
sg25
F0.21067423466593027
sS'trials.thisIndex'
p927
g36
(g80
S'\x1e\x00\x00\x00'
tRp928
sg26
V5
sS'trials.thisRepN'
p929
I0
sg66
Vfondue
p930
sg63
V../experiment_stimuli/bw_bc_bl/Nonliving_Things/Kitchen_Uten/fondue_5.jpg
p931
sg21
F0.58149653673171997
sS'trials.thisTrialN'
p932
I76
sa(dp933
g31
g32
sg17
F339.75341983186081
sg24
I1
sg35
g39
sg14
F339.7470345213078
sg16
g36
(g70
S'\x01\x00\x00\x00'
tRp934
sg42
g43
sg46
g47
sg15
g72
sg22
F341.19082048675045
sg64
g126
sg62
g90
sg49
g50
sS'trials.thisN'
p935
I77
sg19
I1
sg27
g36
(g38
S'\x00\x00\x00\x00\x00\x00\x1a@'
tRp936
sg52
g53
sg23
S'1'
sg18
F340.99966250639409
sg33
g34
sg51
g11
sg20
S'1'
sg65
g36
(g77
S'\x00\x00\x00\x00\x00\x00\x00\x00'
tRp937
sg44
g45
sg40
g41
sg25
F0.25075675873085856
sS'trials.thisIndex'
p938
g36
(g80
S'1\x00\x00\x00'
tRp939
sg26
V5
sS'trials.thisRepN'
p940
I0
sg66
Vlobster
p941
sg63
V../experiment_stimuli/bw_bc_bl/Living_Things/Marine_creatures/lobster_2.jpg
p942
sg21
F0.1705909026786685
sS'trials.thisTrialN'
p943
I77
sa(dp944
g31
g32
sg17
F343.17940640170127
sg24
I0
sg35
g39
sg14
F343.17448476189747
sg16
g36
(g70
S'\x01\x00\x00\x00'
tRp945
sg42
g43
sg46
g47
sg15
g72
sg22
F345.52022645669058
sg64
g89
sg62
g90
sg49
g50
sS'trials.thisN'
p946
I78
sg19
I1
sg27
g36
(g38
S'\x00\x00\x00\x00\x00\x00 @'
tRp947
sg52
g53
sg23
S'3'
sg18
F344.44715585093945
sg33
g34
sg51
g11
sg20
S'1'
sg65
g36
(g77
S'\x00\x00\x00\x00\x00\x00\x00\x00'
tRp948
sg44
g45
sg40
g41
sg25
F0.20065203588455915
sS'trials.thisIndex'
p949
g36
(g80
S'(\x00\x00\x00'
tRp950
sg26
V5
sS'trials.thisRepN'
p951
I0
sg66
Vhorse
p952
sg63
V../experiment_stimuli/bw_bc_bl/Living_Things/Animals/horse_13.jpg
p953
sg21
F1.0525099490769207
sS'trials.thisTrialN'
p954
I78
sa(dp955
g31
g32
sg17
F347.46151563199237
sg24
I1
sg35
g39
sg14
F347.45379149075598
sg16
g36
(g70
S'\x02\x00\x00\x00'
tRp956
sg42
g43
sg46
g47
sg15
g72
sg22
F348.90759201580659
sg64
g73
sg62
g74
sg49
g50
sS'trials.thisN'
p957
I79
sg19
I0
sg27
g36
(g38
S'\x00\x00\x00\x00\x00\x00\x18@'
tRp958
sg52
g53
sg23
S'1'
sg18
F348.68637182330713
sg33
g34
sg51
g11
sg20
S'1'
sg65
g36
(g77
S'\x00\x00\x00\x00\x00\x00\x00\x00'
tRp959
sg44
g45
sg40
g41
sg25
F2.405447952914983
sS'trials.thisIndex'
p960
g36
(g80
S'\x06\x00\x00\x00'
tRp961
sg26
V5
sS'trials.thisRepN'
p962
I0
sg66
Vbedside-table
p963
sg63
V../experiment_stimuli/bw_bc_bl/Nonliving_Things/Furniture/bedside-table_3.jpg
p964
sg21
F0.20065578771755099
sS'trials.thisTrialN'
p965
I79
sa(dp966
g31
g32
sg17
F353.05081232497469
sg24
I1
sg35
g39
sg14
F353.04595044767484
sg16
g36
(g70
S'\x01\x00\x00\x00'
tRp967
sg42
g43
sg46
g47
sg15
g88
sg22
F354.39937476022169
sg64
g184
sg62
g74
sg49
g50
sS'trials.thisN'
p968
I80
sg19
I0
sg27
g36
(g38
S'\x00\x00\x00\x00\x00\x00\x18@'
tRp969
sg52
g53
sg23
S'1'
sg18
F354.31861708592623
sg33
g34
sg51
g11
sg20
S'2'
sg65
g36
(g77
S'\x00\x00\x00\x00\x00\x00\x00\x00'
tRp970
sg44
g45
sg40
g41
sg25
F0.13051176257431507
sS'trials.thisIndex'
p971
g36
(g80
S'\x03\x00\x00\x00'
tRp972
sg26
V5
sS'trials.thisRepN'
p973
I0
sg66
Vaxe
p974
sg63
V../experiment_stimuli/bw_bc_bl/Nonliving_Things/Tools/axe_10.jpg
p975
sg21
F0.060197987128049135
sS'trials.thisTrialN'
p976
I80
sa(dp977
g31
g32
sg17
F356.27063743025064
sg24
I0
sg35
g39
sg14
F356.26294669881463
sg16
g36
(g70
S'\x02\x00\x00\x00'
tRp978
sg42
g43
sg46
g47
sg15
g72
sg22
F359.27016987511888
sg64
g384
sg62
g74
sg49
g50
sS'trials.thisN'
p979
I81
sg19
I1
sg27
g36
(g38
S'\x00\x00\x00\x00\x00\x00\x18@'
tRp980
sg52
g53
sg23
S'3'
sg18
F357.55565561773255
sg33
g34
sg51
g11
sg20
S'2'
sg65
g36
(g77
S'\x00\x00\x00\x00\x00\x00\x00\x00'
tRp981
sg44
g45
sg40
g41
sg25
F0.2806731085292995
sS'trials.thisIndex'
p982
g36
(g80
S'\x19\x00\x00\x00'
tRp983
sg26
V5
sS'trials.thisRepN'
p984
I0
sg66
Vdrum
p985
sg63
V../experiment_stimuli/bw_bc_bl/Nonliving_Things/Musical_Inst/drum_17.jpg
p986
sg21
F1.6939361309632659
sS'trials.thisTrialN'
p987
I81
sa(dp988
g31
g32
sg17
F361.28863935824484
sg24
I0
sg35
g39
sg14
F361.28385499864817
sg16
g36
(g70
S'\x01\x00\x00\x00'
tRp989
sg42
g43
sg46
g47
sg15
g72
sg22
F363.89019334828481
sg64
g138
sg62
g90
sg49
g50
sS'trials.thisN'
p990
I82
sg19
I1
sg27
g36
(g38
S'\x00\x00\x00\x00\x00\x00\x1a@'
tRp991
sg52
g53
sg23
S'2'
sg18
F362.55653373012319
sg33
g34
sg51
g11
sg20
S'1'
sg65
g36
(g77
S'\x00\x00\x00\x00\x00\x00\x00\x00'
tRp992
sg44
g45
sg40
g41
sg25
F0.37102059600874782
sS'trials.thisIndex'
p993
g36
(g80
S',\x00\x00\x00'
tRp994
sg26
V5
sS'trials.thisRepN'
p995
I0
sg66
Vkiwi
p996
sg63
V../experiment_stimuli/bw_bc_bl/Living_Things/Birds/kiwi_14.jpg
p997
sg21
F1.3131045773625374
sS'trials.thisTrialN'
p998
I82
sa(dp999
g31
g32
sg17
F365.99900163570419
sg24
I1
sg35
g39
sg14
F365.99411048786715
sg16
g36
(g70
S'\x02\x00\x00\x00'
tRp1000
sg42
g43
sg46
g47
sg15
g88
sg22
F367.50786076346412
sg64
g89
sg62
g90
sg49
g50
sS'trials.thisN'
p1001
I83
sg19
I0
sg27
g36
(g38
S'\x00\x00\x00\x00\x00\x00\x1e@'
tRp1002
sg52
g53
sg23
S'1'
sg18
F367.25675096875057
sg33
g34
sg51
g11
sg20
S'1'
sg65
g36
(g77
S'\x00\x00\x00\x00\x00\x00\x00\x00'
tRp1003
sg44
g45
sg40
g41
sg25
F0.21066917851567268
sS'trials.thisIndex'
p1004
g36
(g80
S'T\x00\x00\x00'
tRp1005
sg26
V5
sS'trials.thisRepN'
p1006
I0
sg66
Vtiger
p1007
sg63
V../experiment_stimuli/bw_bc_bl/Living_Things/Animals/tiger_16.jpg
p1008
sg21
F0.23055964149534702
sS'trials.thisTrialN'
p1009
I83
sa(dp1010
g31
g32
sg17
F369.46640058979392
sg24
I0
sg35
g39
sg14
F369.46164344390854
sg16
g36
(g70
S'\x02\x00\x00\x00'
tRp1011
sg42
g43
sg46
g47
sg15
g72
sg22
F374.24251885060221
sg64
g317
sg62
g74
sg49
g50
sS'trials.thisN'
p1012
I84
sg19
I1
sg27
g36
(g38
S'\x00\x00\x00\x00\x00\x00\x18@'
tRp1013
sg52
g53
sg23
S'3'
sg18
F370.75435894913971
sg33
g34
sg51
g11
sg20
S'2'
sg65
g36
(g77
S'\x00\x00\x00\x00\x00\x00\x00\x00'
tRp1014
sg44
g45
sg40
g41
sg25
F0.30087024765089154
sS'trials.thisIndex'
p1015
g36
(g80
S'\x1f\x00\x00\x00'
tRp1016
sg26
V5
sS'trials.thisRepN'
p1017
I0
sg66
Vfrying-pan
p1018
sg63
V../experiment_stimuli/bw_bc_bl/Nonliving_Things/Kitchen_Uten/frying-pan_0.jpg
p1019
sg21
F3.4675989812240005
sS'trials.thisTrialN'
p1020
I84
sa(dp1021
g31
g32
sg17
F376.28130801673979
sg24
I1
sg35
g39
sg14
F376.27646529255435
sg16
g36
(g70
S'\x01\x00\x00\x00'
tRp1022
sg42
g43
sg46
g47
sg15
g72
sg22
F377.83045272156596
sg64
g138
sg62
g90
sg49
g50
sS'trials.thisN'
p1023
I85
sg19
I1
sg27
g36
(g38
S'\x00\x00\x00\x00\x00\x00\x18@'
tRp1024
sg52
g53
sg23
S'1'
sg18
F377.54912236332893
sg33
g34
sg51
g11
sg20
S'1'
sg65
g36
(g77
S'\x00\x00\x00\x00\x00\x00\x00\x00'
tRp1025
sg44
g45
sg40
g41
sg25
F2.5758152417838573
sS'trials.thisIndex'
p1026
g36
(g80
S'\x04\x00\x00\x00'
tRp1027
sg26
V5
sS'trials.thisRepN'
p1028
I0
sg66
Vbarn-owl
p1029
sg63
V../experiment_stimuli/bw_bc_bl/Living_Things/Birds/barn-owl_9.jpg
p1030
sg21
F0.26077736308798194
sS'trials.thisTrialN'
p1031
I85
sa(dp1032
g31
g32
sg17
F382.1440603537485
sg24
I0
sg35
g39
sg14
F382.13920022826642
sg16
g36
(g70
S'\x02\x00\x00\x00'
tRp1033
sg42
g43
sg46
g47
sg15
g88
sg22
F384.22435485431924
sg64
g138
sg62
g90
sg49
g50
sS'trials.thisN'
p1034
I86
sg19
I1
sg27
g36
(g38
S'\x00\x00\x00\x00\x00\x00\x1a@'
tRp1035
sg52
g53
sg23
S'3'
sg18
F383.41187611781061
sg33
g34
sg51
g11
sg20
S'2'
sg65
g36
(g77
S'\x00\x00\x00\x00\x00\x00\x00\x00'
tRp1036
sg44
g45
sg40
g41
sg25
F0.68170166900381446
sS'trials.thisIndex'
p1037
g36
(g80
S'\x1a\x00\x00\x00'
tRp1038
sg26
V5
sS'trials.thisRepN'
p1039
I0
sg66
Vduck
p1040
sg63
V../experiment_stimuli/bw_bc_bl/Living_Things/Birds/duck_23.jpg
p1041
sg21
F0.79194187233224511
sS'trials.thisTrialN'
p1042
I86
sa(dp1043
g31
g32
sg17
F386.64388937549666
sg24
I1
sg35
g39
sg14
F386.63898151367903
sg16
g36
(g70
S'\x02\x00\x00\x00'
tRp1044
sg42
g43
sg46
g47
sg15
g72
sg22
F388.03268242953345
sg64
g384
sg62
g74
sg49
g50
sS'trials.thisN'
p1045
I87
sg19
I0
sg27
g36
(g38
S'\x00\x00\x00\x00\x00\x00\x18@'
tRp1046
sg52
g53
sg23
S'1'
sg18
F387.89161313418299
sg33
g34
sg51
g11
sg20
S'1'
sg65
g36
(g77
S'\x00\x00\x00\x00\x00\x00\x00\x00'
tRp1047
sg44
g45
sg40
g41
sg25
F2.6359524857252836
sS'trials.thisIndex'
p1048
g36
(g80
S'H\x00\x00\x00'
tRp1049
sg26
V5
sS'trials.thisRepN'
p1050
I0
sg66
Vsaxophone
p1051
sg63
V../experiment_stimuli/bw_bc_bl/Nonliving_Things/Musical_Inst/saxophone_26.jpg
p1052
sg21
F0.11047394433990121
sS'trials.thisTrialN'
p1053
I87
sa(dp1054
g31
g32
sg17
F392.40626233862713
sg24
I0
sg35
g39
sg14
F392.40153259411454
sg16
g36
(g70
S'\x01\x00\x00\x00'
tRp1055
sg42
g43
sg46
g47
sg15
g88
sg22
F395.24837430426851
sg64
g73
sg62
g74
sg49
g50
sS'trials.thisN'
p1056
I88
sg19
I1
sg27
g36
(g38
S'\x00\x00\x00\x00\x00\x00\x1a@'
tRp1057
sg52
g53
sg23
S'3'
sg18
F393.66415994754061
sg33
g34
sg51
g11
sg20
S'1'
sg65
g36
(g77
S'\x00\x00\x00\x00\x00\x00\x00\x00'
tRp1058
sg44
g45
sg40
g41
sg25
F1.2529472103342414
sS'trials.thisIndex'
p1059
g36
(g80
S'\x05\x00\x00\x00'
tRp1060
sg26
V5
sS'trials.thisRepN'
p1061
I0
sg66
Vbed
p1062
sg63
V../experiment_stimuli/bw_bc_bl/Nonliving_Things/Furniture/bed_4.jpg
p1063
sg21
F1.5636456552892923
sS'trials.thisTrialN'
p1064
I88
sa(dp1065
g31
g32
sg17
F398.24062926275656
sg24
I1
sg35
g39
sg14
F398.23419282864779
sg16
g36
(g70
S'\x01\x00\x00\x00'
tRp1066
sg42
g43
sg46
g47
sg15
g72
sg22
F399.62789600761607
sg64
g138
sg62
g90
sg49
g50
sS'trials.thisN'
p1067
I89
sg19
I1
sg27
g36
(g38
S'\x00\x00\x00\x00\x00\x00\x18@'
tRp1068
sg52
g53
sg23
S'1'
sg18
F399.48682427266613
sg33
g34
sg51
g11
sg20
S'1'
sg65
g36
(g77
S'\x00\x00\x00\x00\x00\x00\x00\x00'
tRp1069
sg44
g45
sg40
g41
sg25
F3.1971773505210876
sS'trials.thisIndex'
p1070
g36
(g80
S'?\x00\x00\x00'
tRp1071
sg26
V5
sS'trials.thisRepN'
p1072
I0
sg66
Vpigeon
p1073
sg63
V../experiment_stimuli/bw_bc_bl/Living_Things/Birds/pigeon_20.jpg
p1074
sg21
F0.12051097303628922
sS'trials.thisTrialN'
p1075
I89
sa(dp1076
g31
g32
sg17
F404.56265034573153
sg24
I0
sg35
g39
sg14
F404.55794290965423
sg16
g36
(g70
S'\x01\x00\x00\x00'
tRp1077
sg42
g43
sg46
g47
sg15
g88
sg22
F408.40696696611121
sg64
g73
sg62
g74
sg49
g50
sS'trials.thisN'
p1078
I90
sg19
I1
sg27
g36
(g38
S'\x00\x00\x00\x00\x00\x00 @'
tRp1079
sg52
g53
sg23
S'3'
sg18
F405.84063780633733
sg33
g34
sg51
g11
sg20
S'1'
sg65
g36
(g77
S'\x00\x00\x00\x00\x00\x00\x00\x00'
tRp1080
sg44
g45
sg40
g41
sg25
F0.37102904357016087
sS'trials.thisIndex'
p1081
g36
(g80
S'\x02\x00\x00\x00'
tRp1082
sg26
V5
sS'trials.thisRepN'
p1083
I0
sg66
Varmchair
p1084
sg63
V../experiment_stimuli/bw_bc_bl/Nonliving_Things/Furniture/armchair_3.jpg
p1085
sg21
F2.5457720556296408
sS'trials.thisTrialN'
p1086
I90
sa(dp1087
g31
g32
sg17
F410.51576344901696
sg24
I0
sg35
g39
sg14
F410.51089318422601
sg16
g36
(g70
S'\x01\x00\x00\x00'
tRp1088
sg42
g43
sg46
g47
sg15
g88
sg22
F415.95336170587689
sg64
g384
sg62
g74
sg49
g50
sS'trials.thisN'
p1089
I91
sg19
I1
sg27
g36
(g38
S'\x00\x00\x00\x00\x00\x00\x1a@'
tRp1090
sg52
g53
sg23
S'3'
sg18
F411.75349950464442
sg33
g34
sg51
g11
sg20
S'1'
sg65
g36
(g77
S'\x00\x00\x00\x00\x00\x00\x00\x00'
tRp1091
sg44
g45
sg40
g41
sg25
F0.34097779728472233
sS'trials.thisIndex'
p1092
g36
(g80
S'Y\x00\x00\x00'
tRp1093
sg26
V5
sS'trials.thisRepN'
p1094
I0
sg66
Vtuba
p1095
sg63
V../experiment_stimuli/bw_bc_bl/Nonliving_Things/Musical_Inst/tuba_6.jpg
p1096
sg21
F4.1793212699703872
sS'trials.thisTrialN'
p1097
I91
sa(dp1098
g31
g32
sg17
F418.03198046702892
sg24
I1
sg35
g39
sg14
F418.02722961036488
sg16
g36
(g70
S'\x01\x00\x00\x00'
tRp1099
sg42
g43
sg46
g47
sg15
g72
sg22
F419.47101602703333
sg64
g89
sg62
g90
sg49
g50
sS'trials.thisN'
p1100
I92
sg19
I1
sg27
g36
(g38
S'\x00\x00\x00\x00\x00\x00\x1a@'
tRp1101
sg52
g53
sg23
S'1'
sg18
F419.25980918342248
sg33
g34
sg51
g11
sg20
S'1'
sg65
g36
(g77
S'\x00\x00\x00\x00\x00\x00\x00\x00'
tRp1102
sg44
g45
sg40
g41
sg25
F1.8041503494605422
sS'trials.thisIndex'
p1103
g36
(g80
S"'\x00\x00\x00"
tRp1104
sg26
V5
sS'trials.thisRepN'
p1105
I0
sg66
Vhippopotamus
p1106
sg63
V../experiment_stimuli/bw_bc_bl/Living_Things/Animals/hippopotamus_7.jpg
p1107
sg21
F0.19063932634890079
sS'trials.thisTrialN'
p1108
I92
sa(dp1109
g31
g32
sg17
F423.01283267093822
sg24
I1
sg35
g39
sg14
F423.00805064942688
sg16
g36
(g70
S'\x02\x00\x00\x00'
tRp1110
sg42
g43
sg46
g47
sg15
g72
sg22
F424.6923749409616
sg64
g161
sg62
g74
sg49
g50
sS'trials.thisN'
p1111
I93
sg19
I1
sg27
g36
(g38
S'\x00\x00\x00\x00\x00\x00\x1c@'
tRp1112
sg52
g53
sg23
S'1'
sg18
F424.27070280723274
sg33
g34
sg51
g11
sg20
S'2'
sg65
g36
(g77
S'\x00\x00\x00\x00\x00\x00\x00\x00'
tRp1113
sg44
g45
sg40
g41
sg25
F0.090423956979066133
sS'trials.thisIndex'
p1114
g36
(g80
S'\x07\x00\x00\x00'
tRp1115
sg26
V5
sS'trials.thisRepN'
p1116
I0
sg66
Vboat
p1117
sg63
V../experiment_stimuli/bw_bc_bl/Nonliving_Things/Vehicles/boat_24.jpg
p1118
sg21
F0.40110204089432955
sS'trials.thisTrialN'
p1119
I93
sa(dp1120
g31
g32
sg17
F426.52064687758684
sg24
I0
sg35
g39
sg14
F426.51567627582699
sg16
g36
(g70
S'\x02\x00\x00\x00'
tRp1121
sg42
g43
sg46
g47
sg15
g72
sg22
F429.73329795431346
sg64
g73
sg62
g74
sg49
g50
sS'trials.thisN'
p1122
I94
sg19
I1
sg27
g36
(g38
S'\x00\x00\x00\x00\x00\x00\x1e@'
tRp1123
sg52
g53
sg23
S'3'
sg18
F427.79837199207395
sg33
g34
sg51
g11
sg20
S'2'
sg65
g36
(g77
S'\x00\x00\x00\x00\x00\x00\x00\x00'
tRp1124
sg44
g45
sg40
g41
sg25
F0.58133567404001951
sS'trials.thisIndex'
p1125
g36
(g80
S'\x08\x00\x00\x00'
tRp1126
sg26
V5
sS'trials.thisRepN'
p1127
I0
sg66
Vbookcase
p1128
sg63
V../experiment_stimuli/bw_bc_bl/Nonliving_Things/Furniture/bookcase_7.jpg
p1129
sg21
F1.9143851469270885
sS'trials.thisTrialN'
p1130
I94
sa(dp1131
g31
g32
sg17
F432.05245381919667
sg24
I1
sg35
g39
sg14
F432.04770255275071
sg16
g36
(g70
S'\x02\x00\x00\x00'
tRp1132
sg42
g43
sg46
g47
sg15
g72
sg22
F433.59178051818162
sg64
g73
sg62
g74
sg49
g50
sS'trials.thisN'
p1133
I95
sg19
I1
sg27
g36
(g38
S'\x00\x00\x00\x00\x00\x00 @'
tRp1134
sg52
g53
sg23
S'1'
sg18
F433.31035748822615
sg33
g34
sg51
g11
sg20
S'2'
sg65
g36
(g77
S'\x00\x00\x00\x00\x00\x00\x00\x00'
tRp1135
sg44
g45
sg40
g41
sg25
F0.11046082759276032
sS'trials.thisIndex'
p1136
g36
(g80
S']\x00\x00\x00'
tRp1137
sg26
V5
sS'trials.thisRepN'
p1138
I0
sg66
Vwardrobe
p1139
sg63
V../experiment_stimuli/bw_bc_bl/Nonliving_Things/Furniture/wardrobe_23.jpg
p1140
sg21
F0.26088028214871883
sS'trials.thisTrialN'
p1141
I95
sasS'loops'
p1142
(lp1143
g1
(cpsychopy.data
TrialHandler
p1144
g3
NtRp1145
(dp1146
S'origin'
p1147
NsS'thisTrial'
p1148
(lp1149
sS'_exp'
p1150
I97292560
sg10
S'trials'
p1151
sg6
I-1
sS'thisRepN'
p1152
I1
sg28
I01
sg29
g30
sS'data'
p1153
g1
(cpsychopy.data
DataHandler
p1154
c__builtin__
dict
p1155
(dp1156
g20
cnumpy.core.multiarray
_reconstruct
p1157
(cnumpy
ndarray
p1158
(I0
tS'b'
tRp1159
(I1
(I96
I1
tg37
(S'O4'
I0
I1
tRp1160
(I3
S'|'
NNNI-1
I-1
I63
tbI00
(lp1161
S'1'
aS'2'
aS'1'
aS'2'
aS'1'
aS'1'
aS'1'
aS'2'
aS'2'
aS'2'
aS'2'
aS'1'
aS'1'
aS'1'
aS'1'
aS'2'
aS'1'
aS'1'
aS'1'
aS'1'
aS'1'
aS'2'
aS'1'
aS'2'
aS'2'
aS'2'
aS'2'
aS'2'
aS'1'
aS'1'
aS'2'
aS'2'
aS'2'
aS'2'
aS'2'
aS'1'
aS'1'
aS'1'
aS'2'
aS'1'
aS'1'
aS'2'
aS'1'
aS'2'
aS'1'
aS'1'
aS'2'
aS'1'
aS'1'
aS'1'
aS'2'
aS'1'
aS'2'
aS'2'
aS'1'
aS'2'
aS'1'
aS'2'
aS'2'
aS'2'
aS'2'
aS'2'
aS'1'
aS'1'
aS'2'
aS'1'
aS'2'
aS'2'
aS'2'
aS'2'
aS'1'
aS'2'
aS'1'
aS'1'
aS'2'
aS'1'
aS'1'
aS'1'
aS'2'
aS'2'
aS'2'
aS'2'
aS'2'
aS'2'
aS'1'
aS'1'
aS'2'
aS'2'
aS'2'
aS'1'
aS'1'
aS'2'
aS'2'
aS'2'
aS'1'
aS'1'
atbsg17
cnumpy.ma.core
_mareconstruct
p1162
(cnumpy.ma.core
MaskedArray
p1163
g1158
(I0
tp1164
S'b'
tRp1165
(I1
(I96
I1
tg37
(S'f4'
I0
I1
tRp1166
(I3
S'<'
NNNI-1
I-1
I0
tbI00
S'\x00-pB\'\xe2-C\x05H\xcaC\x81\x86\xb0C\x02$\xbcC\x004\xc4C\x13\xbb\xadC\xa5\x81\xd3C\xa5B\xd5C\xa70\x90C\x13\x06]C7\xa2\x9fC\x0b\xf6\x1fC\xc2[\xbdB\x89\x99mC\xfa\xc8OC\xe9\xd4$C\xb5\xa2/AW\xba\x0bC\xf8\x90\x87C\xee\x8d}C0I~B\x12U\x8aC\xe1f\x8cC\xee/vA\xa4"\xb2Cq\x12\xbfC\xc4\r7B\n\xc7yCs\x18\x8eC\xc5\xf8\xa7C\xb3\xbb\xb8C$\x9dJB\x07Z\xbaA\xb3\x15\x91B\x85\xa4\x93C\x0c2\x14C\xb8\xc1\x1cB\x92\xcc\x0cB\x18\x04\xd1C\xf7\x96\xabCw\x80\xdaAUz5C0\xd6\x97C\xf2\xa4\xb4Cp\x94\x84C\x0f\x02HC*\xc1\x9dCAq\xe4@p\xe0\xa9C\xcc\xc2\x82C\xe0\x9e\x99C3\xf2\x0fC\x9e\xdb\x02Cg\xde\x91C\xc7"9C\xca\x12fC\x03\x05\xe2B\xab\x1b*B\x02\xcaqC\xe1NUC\xf9\xb0iC\x1c\xbf\x80C\xcd\x1e\xc7C\x124\xf7A\xf8\x86BC\xde\xff\xc6B\xba$\xa4C|\x9e_B-<\xa0Bb\xbd\x86B\xdc\n\xb6BkR\xc1Cmf\xfeB\xe9v\x1cC\x82\xd0\x9dAK\x16LCh\xaduC\xdf\xd8\xa5C+\xbc\xa8BXjbC\xdbYo@\xc6jYC\xee\xd7\xa1C\xdf\xff\xb6Cp\xb2\x06C\xa1\xb2\xd8B\x8d\x85\xd0B\xfc\xfa1C\x05B\xcdC\x97\x1e\x99B\xc0\x8c\x9bC\xbd\xbd\xf5B\xb7\x06\xd8C\xfe\xbd\x95C\xfb\x18>C'
S'\x00\x00\x00\x00\x00\x00\x00\x00\x00\x00\x00\x00\x00\x00\x00\x00\x00\x00\x00\x00\x00\x00\x00\x00\x00\x00\x00\x00\x00\x00\x00\x00\x00\x00\x00\x00\x00\x00\x00\x00\x00\x00\x00\x00\x00\x00\x00\x00\x00\x00\x00\x00\x00\x00\x00\x00\x00\x00\x00\x00\x00\x00\x00\x00\x00\x00\x00\x00\x00\x00\x00\x00\x00\x00\x00\x00\x00\x00\x00\x00\x00\x00\x00\x00\x00\x00\x00\x00\x00\x00\x00\x00\x00\x00\x00\x00'
NtbsS'ran'
p1167
g1162
(g1163
g1158
g1164
S'b'
tRp1168
(I1
(I96
I1
tg1166
I00
S'\x00\x00\x80?\x00\x00\x80?\x00\x00\x80?\x00\x00\x80?\x00\x00\x80?\x00\x00\x80?\x00\x00\x80?\x00\x00\x80?\x00\x00\x80?\x00\x00\x80?\x00\x00\x80?\x00\x00\x80?\x00\x00\x80?\x00\x00\x80?\x00\x00\x80?\x00\x00\x80?\x00\x00\x80?\x00\x00\x80?\x00\x00\x80?\x00\x00\x80?\x00\x00\x80?\x00\x00\x80?\x00\x00\x80?\x00\x00\x80?\x00\x00\x80?\x00\x00\x80?\x00\x00\x80?\x00\x00\x80?\x00\x00\x80?\x00\x00\x80?\x00\x00\x80?\x00\x00\x80?\x00\x00\x80?\x00\x00\x80?\x00\x00\x80?\x00\x00\x80?\x00\x00\x80?\x00\x00\x80?\x00\x00\x80?\x00\x00\x80?\x00\x00\x80?\x00\x00\x80?\x00\x00\x80?\x00\x00\x80?\x00\x00\x80?\x00\x00\x80?\x00\x00\x80?\x00\x00\x80?\x00\x00\x80?\x00\x00\x80?\x00\x00\x80?\x00\x00\x80?\x00\x00\x80?\x00\x00\x80?\x00\x00\x80?\x00\x00\x80?\x00\x00\x80?\x00\x00\x80?\x00\x00\x80?\x00\x00\x80?\x00\x00\x80?\x00\x00\x80?\x00\x00\x80?\x00\x00\x80?\x00\x00\x80?\x00\x00\x80?\x00\x00\x80?\x00\x00\x80?\x00\x00\x80?\x00\x00\x80?\x00\x00\x80?\x00\x00\x80?\x00\x00\x80?\x00\x00\x80?\x00\x00\x80?\x00\x00\x80?\x00\x00\x80?\x00\x00\x80?\x00\x00\x80?\x00\x00\x80?\x00\x00\x80?\x00\x00\x80?\x00\x00\x80?\x00\x00\x80?\x00\x00\x80?\x00\x00\x80?\x00\x00\x80?\x00\x00\x80?\x00\x00\x80?\x00\x00\x80?\x00\x00\x80?\x00\x00\x80?\x00\x00\x80?\x00\x00\x80?\x00\x00\x80?\x00\x00\x80?'
S'\x00\x00\x00\x00\x00\x00\x00\x00\x00\x00\x00\x00\x00\x00\x00\x00\x00\x00\x00\x00\x00\x00\x00\x00\x00\x00\x00\x00\x00\x00\x00\x00\x00\x00\x00\x00\x00\x00\x00\x00\x00\x00\x00\x00\x00\x00\x00\x00\x00\x00\x00\x00\x00\x00\x00\x00\x00\x00\x00\x00\x00\x00\x00\x00\x00\x00\x00\x00\x00\x00\x00\x00\x00\x00\x00\x00\x00\x00\x00\x00\x00\x00\x00\x00\x00\x00\x00\x00\x00\x00\x00\x00\x00\x00\x00\x00'
Ntbsg24
g1162
(g1163
g1158
g1164
S'b'
tRp1169
(I1
(I96
I1
tg1166
I00
S'\x00\x00\x80?\x00\x00\x00\x00\x00\x00\x00\x00\x00\x00\x80?\x00\x00\x80?\x00\x00\x00\x00\x00\x00\x80?\x00\x00\x80?\x00\x00\x00\x00\x00\x00\x80?\x00\x00\x00\x00\x00\x00\x00\x00\x00\x00\x80?\x00\x00\x80?\x00\x00\x00\x00\x00\x00\x00\x00\x00\x00\x00\x00\x00\x00\x00\x00\x00\x00\x00\x00\x00\x00\x80?\x00\x00\x00\x00\x00\x00\x00\x00\x00\x00\x00\x00\x00\x00\x80?\x00\x00\x00\x00\x00\x00\x00\x00\x00\x00\x00\x00\x00\x00\x00\x00\x00\x00\x80?\x00\x00\x00\x00\x00\x00\x00\x00\x00\x00\x00\x00\x00\x00\x00\x00\x00\x00\x80?\x00\x00\x00\x00\x00\x00\x80?\x00\x00\x00\x00\x00\x00\x80?\x00\x00\x00\x00\x00\x00\x80?\x00\x00\x00\x00\x00\x00\x80?\x00\x00\x80?\x00\x00\x80?\x00\x00\x00\x00\x00\x00\x00\x00\x00\x00\x00\x00\x00\x00\x00\x00\x00\x00\x80?\x00\x00\x80?\x00\x00\x80?\x00\x00\x00\x00\x00\x00\x00\x00\x00\x00\x00\x00\x00\x00\x80?\x00\x00\x00\x00\x00\x00\x80?\x00\x00\x00\x00\x00\x00\x80?\x00\x00\x00\x00\x00\x00\x00\x00\x00\x00\x00\x00\x00\x00\x00\x00\x00\x00\x80?\x00\x00\x00\x00\x00\x00\x80?\x00\x00\x80?\x00\x00\x80?\x00\x00\x00\x00\x00\x00\x80?\x00\x00\x80?\x00\x00\x80?\x00\x00\x80?\x00\x00\x80?\x00\x00\x80?\x00\x00\x80?\x00\x00\x80?\x00\x00\x00\x00\x00\x00\x00\x00\x00\x00\x00\x00\x00\x00\x80?\x00\x00\x80?\x00\x00\x80?\x00\x00\x80?\x00\x00\x80?\x00\x00\x80?\x00\x00\x00\x00\x00\x00\x00\x00\x00\x00\x80?\x00\x00\x00\x00\x00\x00\x00\x00\x00\x00\x00\x00\x00\x00\x00\x00\x00\x00\x80?\x00\x00\x00\x00\x00\x00\x00\x00'
S'\x00\x00\x00\x00\x00\x00\x00\x00\x00\x00\x00\x00\x00\x00\x00\x00\x00\x00\x00\x00\x00\x00\x00\x00\x00\x00\x00\x00\x00\x00\x00\x00\x00\x00\x00\x00\x00\x00\x00\x00\x00\x00\x00\x00\x00\x00\x00\x00\x00\x00\x00\x00\x00\x00\x00\x00\x00\x00\x00\x00\x00\x00\x00\x00\x00\x00\x00\x00\x00\x00\x00\x00\x00\x00\x00\x00\x00\x00\x00\x00\x00\x00\x00\x00\x00\x00\x00\x00\x00\x00\x00\x00\x00\x00\x00\x00'
Ntbsg14
g1162
(g1163
g1158
g1164
S'b'
tRp1170
(I1
(I96
I1
tg1166
I00
S"\xe0'pB^\xe0-CkG\xcaC\xe2\x85\xb0Cc#\xbcCe3\xc4C\x16\xba\xadC\x08\x81\xd3C\x02B\xd5C\x0b0\x90C\xd8\x04]C\x9a\xa1\x9fC\xc7\xf4\x1fC5Y\xbdBO\x98mC\xb9\xc7OC\xa6\xd3$C~\x8e/A\xe1\xb8\x0bC^\x90\x87C\xb5\x8c}C5D~BwT\x8aCBf\x8cC\x1b\x1cvA\xa8!\xb2C\xd1\x11\xbfC\x17\x087B|\xc5yC\xd7\x17\x8eC)\xf8\xa7C\x17\xbb\xb8C\x18\x98JB\xfcO\xbaA~\x12\x91B\xe3\xa3\x93C\xca0\x14C\x03\xbc\x1cB\x9d\xc7\x0cB|\x03\xd1CV\x96\xabCYv\xdaA\x13y5C\x95\xd5\x97CU\xa4\xb4C\xd3\x93\x84C\xd3\x00HC\x8e\xc0\x9dC6I\xe4@\x9f\xdf\xa9C,\xc2\x82CA\x9e\x99C\xfc\xf0\x0fCW\xda\x02C\xc8\xdd\x91C\x82!9C\x8f\x11fC\x18\x02\xe2B`\x15*B\xb8\xc8qCYMUC\xbb\xafiC}\xbe\x80C\xfa\x1d\xc7C4*\xf7At\x85BCK\xfd\xc6B\x1c$\xa4C\x8c\x99_B\xa49\xa0B\xd1\xba\x86BW\x08\xb6B\xcaQ\xc1C\xcfc\xfeBhu\x1cC=\xc5\x9dA\x04\x15LC*\xacuCB\xd8\xa5CA\xb9\xa8B\x1fibCh\xdbm@<iYCP\xd7\xa1C?\xff\xb6C\xf5\xb0\x06C\x1c\xb0\xd8B\x98\x82\xd0B\xb0\xf91CeA\xcdC\x15\x1c\x99B!\x8c\x9bC&\xbb\xf5B\x1b\x06\xd8C`\xbd\x95Cy\x17>C"
S'\x00\x00\x00\x00\x00\x00\x00\x00\x00\x00\x00\x00\x00\x00\x00\x00\x00\x00\x00\x00\x00\x00\x00\x00\x00\x00\x00\x00\x00\x00\x00\x00\x00\x00\x00\x00\x00\x00\x00\x00\x00\x00\x00\x00\x00\x00\x00\x00\x00\x00\x00\x00\x00\x00\x00\x00\x00\x00\x00\x00\x00\x00\x00\x00\x00\x00\x00\x00\x00\x00\x00\x00\x00\x00\x00\x00\x00\x00\x00\x00\x00\x00\x00\x00\x00\x00\x00\x00\x00\x00\x00\x00\x00\x00\x00\x00'
Ntbsg16
g1157
(g1158
(I0
tS'b'
tRp1171
(I1
(I96
I1
tg1160
I00
(lp1172
g239
ag494
ag1077
ag967
ag1022
ag1055
ag956
ag1110
ag1121
ag791
ag615
ag879
ag472
ag328
ag659
ag582
ag483
ag101
ag428
ag747
ag703
ag250
ag758
ag769
ag113
ag978
ag1033
ag206
ag692
ag780
ag923
ag1011
ag217
ag137
ag272
ag813
ag450
ag183
ag172
ag1099
ag945
ag149
ag516
ag835
ag989
ag736
ag560
ag868
ag87
ag934
ag725
ag846
ag439
ag406
ag802
ag527
ag637
ag372
ag195
ag670
ag593
ag648
ag714
ag1066
ag160
ag549
ag339
ag901
ag228
ag294
ag261
ag316
ag1044
ag395
ag461
ag125
ag571
ag681
ag912
ag305
ag626
ag71
ag604
ag890
ag1000
ag417
ag361
ag350
ag505
ag1088
ag283
ag857
ag383
ag1132
ag824
ag538
atbsg15
g1157
(g1158
(I0
tS'b'
tRp1173
(I1
(I96
I1
tg1160
I00
(lp1174
g88
ag88
ag88
ag88
ag72
ag88
ag72
ag72
ag72
ag72
ag88
ag88
ag88
ag88
ag88
ag72
ag72
ag88
ag88
ag72
ag72
ag88
ag88
ag72
ag88
ag72
ag88
ag88
ag88
ag88
ag72
ag72
ag88
ag72
ag88
ag72
ag88
ag72
ag72
ag72
ag72
ag88
ag88
ag88
ag72
ag88
ag72
ag88
ag88
ag72
ag88
ag72
ag88
ag72
ag88
ag88
ag72
ag72
ag88
ag88
ag88
ag88
ag88
ag72
ag88
ag72
ag72
ag72
ag88
ag72
ag88
ag88
ag72
ag88
ag88
ag72
ag72
ag88
ag72
ag88
ag72
ag72
ag72
ag88
ag88
ag88
ag72
ag72
ag88
ag88
ag88
ag88
ag72
ag72
ag72
ag72
atbsg22
g1162
(g1163
g1158
g1164
S'b'
tRp1175
(I1
(I96
I1
tg1166
I00
S't@vB@\xd2/C\x174\xccC\x1f3\xb1CL\xea\xbcC\xcb\x9f\xc5C,t\xaeC\xa0X\xd4C\xdd\xdd\xd6Cf\xf4\x90C>\x16`CD\xd4\xa0C\xfdV!Cr$\xc3B\x82\xbdoCx\xb2RC\x89\xa9+CjrTA4\xe3\rCT\x80\x88C)\x81\x7fC\xfd\x94\x82B\xa1i\x8bCS)\x8dC.\xfb\x8dA\x95\xa2\xb3C\xb8\x1c\xc0C\xa3\xf0BB\xb8\x9d{Cf<\x8fC\xd8\xe6\xa8C\x0b\x1f\xbbC\xe9\x8aVB\x95y\xcbA\x05\x9f\x94B\x04\xcb\x94C\x94g\x1aC^0"B\xff\xad\x14BJ\xbc\xd1C\x97\xc2\xacC\x0c\x94\xe8Aw\t7C\xdf\xb4\x98C\xf2\xf1\xb5Cj\x9b\x86C\x1b\x02JC \xa1\x9eC\xc5B\x11Am\x98\xaaCI\xae\x83C\xa2\x94\x9aC;?\x12C\x18\xc7\x04C\x1c\xab\x92Cv\xb2;C\x0c\xa7gC\xe7\xd2\xf1Bj\x7f/B\x8f\x91sC\x1cuWC\xca\x94kC\xfb\xc2\x81C_\xd0\xc7C\xa0\x1f\x04B\xda\x15DC\xe3\xeb\xcbBv\xe8\xa4C9\xdcgBQ\x04\xa5B9\xcc\x89B\xc1\x8f\xb9B/\x04\xc2Cd\xd9\x00Cq\x1f\x1eC\x14\x01\xabAT\xc9MC\xd6\xbcwC\xbf\xdc\xa6C\x90\x0b\xb2B\n\x0edC\xb6\x95\xaa@V\x01[C\x93>\xa3C\x02\xc1\xb7CDc\tC%\xd7\xddB\xce\xc7\xd4B\x90u3C\x08\xfa\xcfCF(\x9cB;\xbc\x9cC\x1dC\xfaB\xbf\xcb\xd8C\x80\xe4\x96C\x07^@C'
S'\x00\x00\x00\x00\x00\x00\x00\x00\x00\x00\x00\x00\x00\x00\x00\x00\x00\x00\x00\x00\x00\x00\x00\x00\x00\x00\x00\x00\x00\x00\x00\x00\x00\x00\x00\x00\x00\x00\x00\x00\x00\x00\x00\x00\x00\x00\x00\x00\x00\x00\x00\x00\x00\x00\x00\x00\x00\x00\x00\x00\x00\x00\x00\x00\x00\x00\x00\x00\x00\x00\x00\x00\x00\x00\x00\x00\x00\x00\x00\x00\x00\x00\x00\x00\x00\x00\x00\x00\x00\x00\x00\x00\x00\x00\x00\x00'
Ntbsg26
g1157
(g1158
(I0
tS'b'
tRp1176
(I1
(I96
I1
tg1160
I00
(lp1177
g36
(g80
S'\x04\x00\x00\x00'
tRp1178
ag36
(g80
S'\x05\x00\x00\x00'
tRp1179
ag36
(g80
S'\x05\x00\x00\x00'
tRp1180
ag36
(g80
S'\x04\x00\x00\x00'
tRp1181
ag36
(g80
S'\x04\x00\x00\x00'
tRp1182
ag36
(g80
S'\x04\x00\x00\x00'
tRp1183
ag36
(g80
S'\x01\x00\x00\x00'
tRp1184
ag36
(g80
S'\x04\x00\x00\x00'
tRp1185
ag36
(g80
S'\x06\x00\x00\x00'
tRp1186
aI1
ag36
(g80
S'\x06\x00\x00\x00'
tRp1187
ag36
(g80
S'\x03\x00\x00\x00'
tRp1188
ag36
(g80
S'\x04\x00\x00\x00'
tRp1189
ag36
(g80
S'\x05\x00\x00\x00'
tRp1190
ag36
(g80
S'\x08\x00\x00\x00'
tRp1191
ag36
(g80
S'\x07\x00\x00\x00'
tRp1192
ag36
(g80
S'\x06\x00\x00\x00'
tRp1193
ag36
(g80
S'\t\x00\x00\x00'
tRp1194
ag36
(g80
S'\x08\x00\x00\x00'
tRp1195
ag36
(g80
S'\x03\x00\x00\x00'
tRp1196
ag36
(g80
S'\x06\x00\x00\x00'
tRp1197
ag36
(g80
S'\x05\x00\x00\x00'
tRp1198
ag36
(g80
S'\x04\x00\x00\x00'
tRp1199
ag36
(g80
S'\x01\x00\x00\x00'
tRp1200
ag36
(g80
S'\x07\x00\x00\x00'
tRp1201
ag36
(g80
S'\x07\x00\x00\x00'
tRp1202
ag36
(g80
S'\x05\x00\x00\x00'
tRp1203
ag36
(g80
S'\x0c\x00\x00\x00'
tRp1204
ag36
(g80
S'\x04\x00\x00\x00'
tRp1205
ag36
(g80
S'\x03\x00\x00\x00'
tRp1206
ag36
(g80
S'\x04\x00\x00\x00'
tRp1207
ag36
(g80
S'\x07\x00\x00\x00'
tRp1208
ag36
(g80
S'\n\x00\x00\x00'
tRp1209
ag36
(g80
S'\x06\x00\x00\x00'
tRp1210
ag36
(g80
S'\x06\x00\x00\x00'
tRp1211
ag36
(g80
S'\x06\x00\x00\x00'
tRp1212
ag36
(g80
S'\x06\x00\x00\x00'
tRp1213
ag36
(g80
S'\x08\x00\x00\x00'
tRp1214
ag36
(g80
S'\t\x00\x00\x00'
tRp1215
aI1
ag36
(g80
S'\x04\x00\x00\x00'
tRp1216
ag36
(g80
S'\x07\x00\x00\x00'
tRp1217
ag36
(g80
S'\x07\x00\x00\x00'
tRp1218
ag36
(g80
S'\x07\x00\x00\x00'
tRp1219
ag36
(g80
S'\x05\x00\x00\x00'
tRp1220
ag36
(g80
S'\x05\x00\x00\x00'
tRp1221
ag36
(g80
S'\x08\x00\x00\x00'
tRp1222
ag36
(g80
S'\x04\x00\x00\x00'
tRp1223
ag36
(g80
S'\x06\x00\x00\x00'
tRp1224
ag36
(g80
S'\x03\x00\x00\x00'
tRp1225
ag36
(g80
S'\x03\x00\x00\x00'
tRp1226
ag36
(g80
S'\x08\x00\x00\x00'
tRp1227
ag36
(g80
S'\x07\x00\x00\x00'
tRp1228
ag36
(g80
S'\x08\x00\x00\x00'
tRp1229
ag36
(g80
S'\x03\x00\x00\x00'
tRp1230
ag36
(g80
S'\n\x00\x00\x00'
tRp1231
ag36
(g80
S'\x06\x00\x00\x00'
tRp1232
ag36
(g80
S'\t\x00\x00\x00'
tRp1233
ag36
(g80
S'\t\x00\x00\x00'
tRp1234
ag36
(g80
S'\x07\x00\x00\x00'
tRp1235
ag36
(g80
S'\x04\x00\x00\x00'
tRp1236
ag36
(g80
S'\t\x00\x00\x00'
tRp1237
ag36
(g80
S'\x05\x00\x00\x00'
tRp1238
ag36
(g80
S'\x02\x00\x00\x00'
tRp1239
ag36
(g80
S'\n\x00\x00\x00'
tRp1240
ag36
(g80
S'\x06\x00\x00\x00'
tRp1241
ag36
(g80
S'\x08\x00\x00\x00'
tRp1242
ag36
(g80
S'\x02\x00\x00\x00'
tRp1243
ag36
(g80
S'\x07\x00\x00\x00'
tRp1244
ag36
(g80
S'\x02\x00\x00\x00'
tRp1245
ag36
(g80
S'\x03\x00\x00\x00'
tRp1246
ag36
(g80
S'\x04\x00\x00\x00'
tRp1247
ag36
(g80
S'\x03\x00\x00\x00'
tRp1248
ag36
(g80
S'\x05\x00\x00\x00'
tRp1249
ag36
(g80
S'\x03\x00\x00\x00'
tRp1250
ag36
(g80
S'\x05\x00\x00\x00'
tRp1251
ag36
(g80
S'\x05\x00\x00\x00'
tRp1252
ag36
(g80
S'\x05\x00\x00\x00'
tRp1253
ag36
(g80
S'\x05\x00\x00\x00'
tRp1254
ag36
(g80
S'\x05\x00\x00\x00'
tRp1255
ag36
(g80
S'\x05\x00\x00\x00'
tRp1256
aS'5.0'
p1257
ag36
(g80
S'\x03\x00\x00\x00'
tRp1258
aI1
ag36
(g80
S'\x04\x00\x00\x00'
tRp1259
ag36
(g80
S'\x07\x00\x00\x00'
tRp1260
ag36
(g80
S'\n\x00\x00\x00'
tRp1261
ag36
(g80
S'\x0b\x00\x00\x00'
tRp1262
ag36
(g80
S'\x04\x00\x00\x00'
tRp1263
ag36
(g80
S'\x02\x00\x00\x00'
tRp1264
ag36
(g80
S'\x03\x00\x00\x00'
tRp1265
ag36
(g80
S'\x07\x00\x00\x00'
tRp1266
ag36
(g80
S'\x08\x00\x00\x00'
tRp1267
ag36
(g80
S'\x04\x00\x00\x00'
tRp1268
ag36
(g80
S'\x08\x00\x00\x00'
tRp1269
ag36
(g80
S'\t\x00\x00\x00'
tRp1270
atbsg21
g1162
(g1163
g1158
g1164
S'b'
tRp1271
(I1
(I96
I1
tg1166
I00
S'R\x8dv>\x9a\xd1&?\xee\xed"@*\x92v=\x9c\x84\x85>\x8a%\xc8?\xb6xM>?]\xcd>\x93\n\xf5?4\xcd\x8f>\xbe\x84\xe0?i\xb3\x8f?\xf8\xb1\xcd=dF\xcd?\xa2oR?hF\xcd?4\x08\xb1@\t\xebx?\xe4\x90W?\xaf\xfd\x19?$A$?\x00\xc2\xdc>\x82C_?^\x85\x85>\xb6\xb8\x86?\xe6\xd2\xd8?\xb4\xbcJ?$\xd7\xcf?@*\r?\xa8N\x80?\xf5\xdc\x14?$\xed]@\xb6g\xd2?\xbf\x90W?]G\xf1>V\x0e~?\xd9$\x9d@W\x1c%=\xf6B$?\xf56C>\xa5\xb8\x86?\xf0\x06\xe7>\x8ac\x80>\x06\xc4\xdc>\xd0\x13\xa8?4c0@\xa5\x84.?P%\xec>\x89A$?b\xaf.>}K\x12?A\xfe\x19?\xed\x0c~?\x0e\xfe\x19?vO\xa4>\x1a\x87\x9c?\xfd\xb3\x8f>_\x10\xd2@R\xfd\xa5<\x0cH\xf1>\x86C_?\x8a\xba\x0f?\x1f\xea=?u\xce\xf6=\x1d\xbdJ?\x1b\x88\x85>1D\x92?\xf2\x86\x85>\x91y@?\x01\xfc\x90?\xce\x88\x85>\xffh\xf6>*@\xe2=u\xd6\xb8>r:\xc8>\xf3\xd5\xb8>>~\xd2>\x8f\x9bE?\xea\xe8=?\xeb\x85W@\x05\xb5\xb3>\x85\xd5\x94>FQ\xa4>Q\xdc\xc6?\xd4\x17l>\xa5\r\xb1?\xe4\xcf\x9d?\xe8\x90E?\xf3}M>\x00\xbd\x85@3Q\x80>\xcd\xb8\x86?\xf88q?\x1a\x92\x85>\xa6\xebx?\x04:q?'
S'\x00\x00\x00\x00\x00\x00\x00\x00\x00\x00\x00\x00\x00\x00\x00\x00\x00\x00\x00\x00\x00\x00\x00\x00\x00\x00\x00\x00\x00\x00\x00\x00\x00\x00\x00\x00\x00\x00\x00\x00\x00\x00\x00\x00\x00\x00\x00\x00\x00\x00\x00\x00\x00\x00\x00\x00\x00\x00\x00\x00\x00\x00\x00\x00\x00\x00\x00\x00\x00\x00\x00\x00\x00\x00\x00\x00\x00\x00\x00\x00\x00\x00\x00\x00\x00\x00\x00\x00\x00\x00\x00\x00\x00\x00\x00\x00'
NtbsS'order'
p1272
g1162
(g1163
g1158
g1164
S'b'
tRp1273
(I1
(I96
I1
tg1166
I00
S'\x00\x00`A\x00\x00\x14B\x00\x00\xb4B\x00\x00\xa0B\x00\x00\xaaB\x00\x00\xb0B\x00\x00\x9eB\x00\x00\xbaB\x00\x00\xbcB\x00\x00\x80B\x00\x00@B\x00\x00\x90B\x00\x00\x0cB\x00\x00\xb0A\x00\x00PB\x00\x004B\x00\x00\x10B\x00\x00\x00@\x00\x00\xf8A\x00\x00pB\x00\x00`B\x00\x00pA\x00\x00tB\x00\x00xB\x00\x00@@\x00\x00\xa2B\x00\x00\xacB\x00\x000A\x00\x00\\B\x00\x00|B\x00\x00\x98B\x00\x00\xa8B\x00\x00@A\x00\x00\xa0@\x00\x00\x88A\x00\x00\x84B\x00\x00\x04B\x00\x00\x10A\x00\x00\x00A\x00\x00\xb8B\x00\x00\x9cB\x00\x00\xc0@\x00\x00\x1cB\x00\x00\x88B\x00\x00\xa4B\x00\x00lB\x00\x00,B\x00\x00\x8eB\x00\x00\x80?\x00\x00\x9aB\x00\x00hB\x00\x00\x8aB\x00\x00\x00B\x00\x00\xe8A\x00\x00\x82B\x00\x00 B\x00\x00HB\x00\x00\xd0A\x00\x00 A\x00\x00TB\x00\x008B\x00\x00LB\x00\x00dB\x00\x00\xb2B\x00\x00\xe0@\x00\x00(B\x00\x00\xb8A\x00\x00\x94B\x00\x00PA\x00\x00\x98A\x00\x00\x80A\x00\x00\xa8A\x00\x00\xaeB\x00\x00\xe0A\x00\x00\x08B\x00\x00\x80@\x00\x000B\x00\x00XB\x00\x00\x96B\x00\x00\xa0A\x00\x00DB\x00\x00\x00\x00\x00\x00<B\x00\x00\x92B\x00\x00\xa6B\x00\x00\xf0A\x00\x00\xc8A\x00\x00\xc0A\x00\x00\x18B\x00\x00\xb6B\x00\x00\x90A\x00\x00\x8cB\x00\x00\xd8A\x00\x00\xbeB\x00\x00\x86B\x00\x00$B'
S'\x00\x00\x00\x00\x00\x00\x00\x00\x00\x00\x00\x00\x00\x00\x00\x00\x00\x00\x00\x00\x00\x00\x00\x00\x00\x00\x00\x00\x00\x00\x00\x00\x00\x00\x00\x00\x00\x00\x00\x00\x00\x00\x00\x00\x00\x00\x00\x00\x00\x00\x00\x00\x00\x00\x00\x00\x00\x00\x00\x00\x00\x00\x00\x00\x00\x00\x00\x00\x00\x00\x00\x00\x00\x00\x00\x00\x00\x00\x00\x00\x00\x00\x00\x00\x00\x00\x00\x00\x00\x00\x00\x00\x00\x00\x00\x00'
Ntbsg19
g1162
(g1163
g1158
g1164
S'b'
tRp1274
(I1
(I96
I1
tg1166
I00
S'\x00\x00\x80?\x00\x00\x80?\x00\x00\x80?\x00\x00\x00\x00\x00\x00\x80?\x00\x00\x80?\x00\x00\x00\x00\x00\x00\x80?\x00\x00\x80?\x00\x00\x80?\x00\x00\x80?\x00\x00\x80?\x00\x00\x80?\x00\x00\x00\x00\x00\x00\x80?\x00\x00\x80?\x00\x00\x80?\x00\x00\x80?\x00\x00\x80?\x00\x00\x00\x00\x00\x00\x80?\x00\x00\x80?\x00\x00\x80?\x00\x00\x00\x00\x00\x00\x80?\x00\x00\x80?\x00\x00\x80?\x00\x00\x80?\x00\x00\x80?\x00\x00\x80?\x00\x00\x80?\x00\x00\x80?\x00\x00\x80?\x00\x00\x00\x00\x00\x00\x80?\x00\x00\x00\x00\x00\x00\x80?\x00\x00\x00\x00\x00\x00\x00\x00\x00\x00\x80?\x00\x00\x80?\x00\x00\x00\x00\x00\x00\x00\x00\x00\x00\x80?\x00\x00\x80?\x00\x00\x00\x00\x00\x00\x80?\x00\x00\x80?\x00\x00\x00\x00\x00\x00\x80?\x00\x00\x80?\x00\x00\x80?\x00\x00\x80?\x00\x00\x80?\x00\x00\x80?\x00\x00\x80?\x00\x00\x80?\x00\x00\x00\x00\x00\x00\x00\x00\x00\x00\x80?\x00\x00\x80?\x00\x00\x80?\x00\x00\x80?\x00\x00\x80?\x00\x00\x00\x00\x00\x00\x80?\x00\x00\x80?\x00\x00\x00\x00\x00\x00\x80?\x00\x00\x80?\x00\x00\x00\x00\x00\x00\x00\x00\x00\x00\x00\x00\x00\x00\x00\x00\x00\x00\x80?\x00\x00\x80?\x00\x00\x00\x00\x00\x00\x80?\x00\x00\x80?\x00\x00\x80?\x00\x00\x00\x00\x00\x00\x80?\x00\x00\x00\x00\x00\x00\x00\x00\x00\x00\x00\x00\x00\x00\x00\x00\x00\x00\x80?\x00\x00\x80?\x00\x00\x00\x00\x00\x00\x80?\x00\x00\x00\x00\x00\x00\x00\x00\x00\x00\x80?\x00\x00\x80?\x00\x00\x80?\x00\x00\x80?'
S'\x00\x00\x00\x00\x00\x00\x00\x00\x00\x00\x00\x00\x00\x00\x00\x00\x00\x00\x00\x00\x00\x00\x00\x00\x00\x00\x00\x00\x00\x00\x00\x00\x00\x00\x00\x00\x00\x00\x00\x00\x00\x00\x00\x00\x00\x00\x00\x00\x00\x00\x00\x00\x00\x00\x00\x00\x00\x00\x00\x00\x00\x00\x00\x00\x00\x00\x00\x00\x00\x00\x00\x00\x00\x00\x00\x00\x00\x00\x00\x00\x00\x00\x00\x00\x00\x00\x00\x00\x00\x00\x00\x00\x00\x00\x00\x00'
Ntbsg27
g1157
(g1158
(I0
tS'b'
tRp1275
(I1
(I96
I1
tg1160
I00
(lp1276
g241
ag496
ag1079
ag969
ag1024
ag1057
ag958
ag1112
ag1123
ag793
ag617
ag881
ag474
ag330
ag661
ag584
ag485
ag104
ag430
ag749
ag705
ag252
ag760
ag771
ag116
ag980
ag1035
ag208
ag694
ag782
ag925
ag1013
ag219
ag140
ag274
ag815
ag452
ag186
ag174
ag1101
ag947
ag151
ag518
ag837
ag991
ag738
ag562
ag870
ag92
ag936
ag727
ag848
ag441
ag408
ag804
ag529
ag639
ag374
ag197
ag672
ag595
ag650
ag716
ag1068
ag163
ag551
ag341
ag903
ag230
ag296
ag263
ag319
ag1046
ag397
ag463
ag128
ag573
ag683
ag914
ag307
ag628
ag76
ag606
ag892
ag1002
ag419
ag363
ag352
ag507
ag1090
ag285
ag859
ag386
ag1134
ag826
ag540
atbsg23
g1157
(g1158
(I0
tS'b'
tRp1277
(I1
(I96
I1
tg1160
I00
(lp1278
S'1'
aS'2'
aS'3'
aS'1'
aS'1'
aS'3'
aS'1'
aS'1'
aS'3'
aS'1'
aS'2'
aS'3'
aS'1'
aS'1'
aS'2'
aS'3'
aS'2'
aS'3'
aS'2'
aS'1'
aS'2'
aS'3'
aS'3'
aS'1'
aS'3'
aS'3'
aS'3'
aS'3'
aS'1'
aS'3'
aS'2'
aS'3'
aS'3'
aS'1'
aS'3'
aS'1'
aS'3'
aS'1'
aS'2'
aS'1'
aS'3'
aS'1'
aS'1'
aS'1'
aS'2'
aS'3'
aS'3'
aS'2'
aS'1'
aS'1'
aS'1'
aS'2'
aS'2'
aS'2'
aS'1'
aS'2'
aS'1'
aS'2'
aS'1'
aS'3'
aS'2'
aS'2'
aS'3'
aS'1'
aS'2'
aS'1'
aS'1'
aS'1'
aS'3'
aS'1'
aS'1'
aS'1'
aS'1'
aS'1'
aS'1'
aS'1'
aS'1'
aS'2'
aS'2'
aS'2'
aS'1'
aS'1'
aS'1'
aS'1'
aS'1'
aS'1'
aS'2'
aS'2'
aS'1'
aS'3'
aS'2'
aS'3'
aS'3'
aS'1'
aS'2'
aS'3'
atbsg18
g1162
(g1163
g1158
g1164
S'b'
tRp1279
(I1
(I96
I1
tg1166
I00
S'\xd34uB+&/C\x9a\xeb\xcaC\xc8(\xb1CJ\xc6\xbcC\x03\xd5\xc4C\xdbW\xaeC\xa6"\xd4C1\xe6\xd5C\xd1\xcd\x90C\xc7O^C\xf0A\xa0C\x048!C\xd1\xe4\xbfB\xcf\xe5nC\xa6\x12QC\x05\x1c&C\x88\x8fDA`\x06\rC\xb30\x88C\xa5\xd7~C\xb6\xad\x81B^\xf7\x8aCP\x05\x8dC\x8be\x85A \xc7\xb2C\xb8\xb4\xbfC\xbf]<BJ\x0b{Cu\xb9\x8eC\xc8\x99\xa8C\x8f`\xb9C\xa0\xe2OB\xee\x92\xc4A:\xa3\x93BZI\x94C(y\x15C\x04\xf2!B\xe0\x07\x12BA\xa1\xd1C<9\xacC\xd8\xcd\xe4A\x03\xc46C\r{\x98C<G\xb5C\x028\x85CUNICuc\x9eC\x86\xaa\x06A\xf5\x7f\xaaC\x82b\x83C\x01E\x9aC\xeb;\x11C\xd7\'\x04C\x1e~\x92C%t:C\xedYgC9\xa2\xe4B\xa3U/B\xa7\x13sC\x96\x90VC\xcc\xffjCda\x81CP\xbe\xc7C\x9d\xdf\x00B\xd3\xcdCCL\x98\xc9Br\xc4\xa4CI\xc5dB\xdc\xb5\xa2B\'<\x89B\xd2\x8e\xb8B \xf2\xc1C\xb5w\x00C\x10\xb6\x1dC\xa3\xf3\xa7A\xd1ZMC\xf8\xf1vC){\xa6C\xdbD\xabB\xee\xaecC\x95K\xa0@\xe8\xa9ZC\x15u\xa2C\xdd\xa0\xb7C\xe4\xfb\x07C^U\xdbB\xfc,\xd3B\xec<3Cs\xe0\xcdCm\x9d\x9bB\xe12\x9cC&V\xf8B\xba\xa7\xd8Cie\x96C\x89g?C'
S'\x00\x00\x00\x00\x00\x00\x00\x00\x00\x00\x00\x00\x00\x00\x00\x00\x00\x00\x00\x00\x00\x00\x00\x00\x00\x00\x00\x00\x00\x00\x00\x00\x00\x00\x00\x00\x00\x00\x00\x00\x00\x00\x00\x00\x00\x00\x00\x00\x00\x00\x00\x00\x00\x00\x00\x00\x00\x00\x00\x00\x00\x00\x00\x00\x00\x00\x00\x00\x00\x00\x00\x00\x00\x00\x00\x00\x00\x00\x00\x00\x00\x00\x00\x00\x00\x00\x00\x00\x00\x00\x00\x00\x00\x00\x00\x00'
Ntbsg25
g1162
(g1163
g1158
g1164
S'b'
tRp1280
(I1
(I96
I1
tg1166
I00
S"\x18\xa7\x8a>\xa0\x9e\xd7>\x85\xf7\xbd>\xe0\xa4\x05>(\xda$@\x93`\xa0?\xdc\xf2\x19@20\xb9=j\xd2\x14?\xcc'\xb9=8m\x17?\x86\xec\x94>(\x85\xe0?\xac\x0bC>\x9e-\x9f>\xe2B_?\x93j\xf6>\xe1\xf6\xbd>\xe3N\xa4>\x7fS\xf6?\xabc\x80>\x15\x92\xae>C\x83v>G\xa3\x05>\xda\xa8v>c\xb4\x8f>\x00\x84.?\xfe\xf28>BxM>\x94\xad.>\xfd\xbaW>\xaa\x0b\x9a>G\x08\x08?}\xe4\x0f>\xed\xe6\x02?\x86i$>\xd0P\xa4>w\x88v>C\xb4\x8f>f\xee\xe6?\xbawM>\xfe6\xb9=\xa0\xd6\xb8>,,\xb9=i\xf6\xbd>\x13\x009>\xb2\x91\xae>,\xa9\x8a>\xbdj$>1c\x80>n2w=%vM>\x94\xbbW>\xd0\xf58>\x9d\xbaW>\xech)? \r\x9a>\x04\xfda>Z)\x1a>\xdf\xf6\xbd>\xc3\xfda>A\xc9\x8f>7\x87\x85>\x8e\x9eL@Y\xbf\xdc>\x8b\xd6\x0b@H\xba\x0f?\xa6\xe4\x0f>\xa4\x91\xae>\x0f\xbc\xf6=/\xc2\xf3?@m$>r\xb3(@#\x93\x8a>\r\xbd\xcd=\x02\xf18>\x18\x86\x85>\x8d\xf7\x99>\x11k\xf6>\xdd\x98\x85>\xa1\xc9\x8f>-%\x90=>\xc8\x8f>\xe2Fw=\xa9\xb9W>\xe9\xfe\x19?\n\xb4\xb3>\x98\x13b>u\xc9\x8f>\xa4\x94\xae>L\x10\x9a>>\xf7\x99>\xcfo\xa9>I9\xe2=\x92:\x1a>\xf8\xa1\xd7>"
S'\x00\x00\x00\x00\x00\x00\x00\x00\x00\x00\x00\x00\x00\x00\x00\x00\x00\x00\x00\x00\x00\x00\x00\x00\x00\x00\x00\x00\x00\x00\x00\x00\x00\x00\x00\x00\x00\x00\x00\x00\x00\x00\x00\x00\x00\x00\x00\x00\x00\x00\x00\x00\x00\x00\x00\x00\x00\x00\x00\x00\x00\x00\x00\x00\x00\x00\x00\x00\x00\x00\x00\x00\x00\x00\x00\x00\x00\x00\x00\x00\x00\x00\x00\x00\x00\x00\x00\x00\x00\x00\x00\x00\x00\x00\x00\x00'
NtbstRp1281
(dp1282
S'isNumeric'
p1283
(dp1284
g23
I00
sg20
I00
sg17
I01
sg1167
I01
sg22
I01
sg24
I01
sg14
I01
sg18
I01
sg16
I00
sg19
I01
sg26
I00
sg27
I00
sg15
I00
sg21
I01
sg1272
I01
sg25
I01
ssg1151
g1145
sS'dataTypes'
p1285
(lp1286
g1167
ag1272
ag14
ag15
ag16
ag17
ag18
ag19
ag20
ag21
ag22
ag23
ag24
ag25
ag26
ag27
asS'dataShape'
p1287
(lp1288
I96
aI1
asbsS'method'
p1289
S'random'
p1290
sS'sequenceIndices'
p1291
g1157
(g1158
(I0
tS'b'
tRp1292
(I1
(I96
I1
tg80
I01
S'Q\x00\x00\x000\x00\x00\x00\x11\x00\x00\x00\x18\x00\x00\x00K\x00\x00\x00!\x00\x00\x00)\x00\x00\x00@\x00\x00\x00&\x00\x00\x00%\x00\x00\x00:\x00\x00\x00\x1b\x00\x00\x00 \x00\x00\x00D\x00\x00\x00\x00\x00\x00\x00\x15\x00\x00\x00F\x00\x00\x00"\x00\x00\x00Z\x00\x00\x00E\x00\x00\x00O\x00\x00\x00G\x00\x00\x00\r\x00\x00\x00B\x00\x00\x00W\x00\x00\x00V\x00\x00\x009\x00\x00\x00\\\x00\x00\x00I\x00\x00\x005\x00\x00\x00U\x00\x00\x00\x12\x00\x00\x004\x00\x00\x00$\x00\x00\x00J\x00\x00\x00\x0c\x00\x00\x00\x10\x00\x00\x00\x01\x00\x00\x00X\x00\x00\x00*\x00\x00\x007\x00\x00\x00_\x00\x00\x00A\x00\x00\x00.\x00\x00\x00L\x00\x00\x00\x0f\x00\x00\x00<\x00\x00\x00R\x00\x00\x00\n\x00\x00\x00P\x00\x00\x008\x00\x00\x00=\x00\x00\x00\x0e\x00\x00\x00;\x00\x00\x00M\x00\x00\x00\x1c\x00\x00\x00\x14\x00\x00\x00>\x00\x00\x002\x00\x00\x00-\x00\x00\x00\x13\x00\x00\x00\x16\x00\x00\x00\x17\x00\x00\x00\x1d\x00\x00\x00\t\x00\x00\x006\x00\x00\x00#\x00\x00\x00^\x00\x00\x00+\x00\x00\x003\x00\x00\x00[\x00\x00\x00/\x00\x00\x00\x0b\x00\x00\x00S\x00\x00\x00C\x00\x00\x00N\x00\x00\x00\x1e\x00\x00\x001\x00\x00\x00(\x00\x00\x00\x06\x00\x00\x00\x03\x00\x00\x00\x19\x00\x00\x00,\x00\x00\x00T\x00\x00\x00\x1f\x00\x00\x00\x04\x00\x00\x00\x1a\x00\x00\x00H\x00\x00\x00\x05\x00\x00\x00?\x00\x00\x00\x02\x00\x00\x00Y\x00\x00\x00\'\x00\x00\x00\x07\x00\x00\x00\x08\x00\x00\x00]\x00\x00\x00'
tbsS'finished'
p1293
I01
sS'nReps'
p1294
I1
sS'nRemaining'
p1295
I-1
sS'trialList'
p1296
(lp1297
g1
(cpsychopy.data
TrialType
p1298
g1155
(dp1299
g62
g74
sg63
g247
sg64
g73
sg65
g242
sg66
g246
stRp1300
ag1
(g1298
g1155
(dp1301
g62
g90
sg63
g502
sg64
g89
sg65
g497
sg66
g501
stRp1302
ag1
(g1298
g1155
(dp1303
g62
g74
sg63
g1085
sg64
g73
sg65
g1080
sg66
g1084
stRp1304
ag1
(g1298
g1155
(dp1305
g62
g74
sg63
g975
sg64
g184
sg65
g970
sg66
g974
stRp1306
ag1
(g1298
g1155
(dp1307
g62
g90
sg63
g1030
sg64
g138
sg65
g1025
sg66
g1029
stRp1308
ag1
(g1298
g1155
(dp1309
g62
g74
sg63
g1063
sg64
g73
sg65
g1058
sg66
g1062
stRp1310
ag1
(g1298
g1155
(dp1311
g62
g74
sg63
g964
sg64
g73
sg65
g959
sg66
g963
stRp1312
ag1
(g1298
g1155
(dp1313
g62
g74
sg63
g1118
sg64
g161
sg65
g1113
sg66
g1117
stRp1314
ag1
(g1298
g1155
(dp1315
g62
g74
sg63
g1129
sg64
g73
sg65
g1124
sg66
g1128
stRp1316
ag1
(g1298
g1155
(dp1317
g62
g74
sg63
g799
sg64
g161
sg65
g794
sg66
g798
stRp1318
ag1
(g1298
g1155
(dp1319
g62
g90
sg63
g623
sg64
g114
sg65
g618
sg66
g622
stRp1320
ag1
(g1298
g1155
(dp1321
g62
g74
sg63
g887
sg64
g161
sg65
g882
sg66
g886
stRp1322
ag1
(g1298
g1155
(dp1323
g62
g74
sg63
g480
sg64
g102
sg65
g475
sg66
g479
stRp1324
ag1
(g1298
g1155
(dp1325
g62
g90
sg63
g336
sg64
g89
sg65
g331
sg66
g335
stRp1326
ag1
(g1298
g1155
(dp1327
g62
g74
sg63
g667
sg64
g102
sg65
g662
sg66
g666
stRp1328
ag1
(g1298
g1155
(dp1329
g62
g74
sg63
g590
sg64
g73
sg65
g585
sg66
g589
stRp1330
ag1
(g1298
g1155
(dp1331
g62
g90
sg63
g491
sg64
g89
sg65
g486
sg66
g490
stRp1332
ag1
(g1298
g1155
(dp1333
g62
g74
sg63
g110
sg64
g102
sg65
g105
sg66
g109
stRp1334
ag1
(g1298
g1155
(dp1335
g62
g74
sg63
g436
sg64
g317
sg65
g431
sg66
g435
stRp1336
ag1
(g1298
g1155
(dp1337
g62
g74
sg63
g755
sg64
g73
sg65
g750
sg66
g754
stRp1338
ag1
(g1298
g1155
(dp1339
g62
g90
sg63
g711
sg64
g89
sg65
g706
sg66
g710
stRp1340
ag1
(g1298
g1155
(dp1341
g62
g90
sg63
g258
sg64
g126
sg65
g253
sg66
g257
stRp1342
ag1
(g1298
g1155
(dp1343
g62
g74
sg63
g766
sg64
g317
sg65
g761
sg66
g765
stRp1344
ag1
(g1298
g1155
(dp1345
g62
g90
sg63
g777
sg64
g126
sg65
g772
sg66
g776
stRp1346
ag1
(g1298
g1155
(dp1347
g62
g90
sg63
g122
sg64
g114
sg65
g117
sg66
g121
stRp1348
ag1
(g1298
g1155
(dp1349
g62
g74
sg63
g986
sg64
g384
sg65
g981
sg66
g985
stRp1350
ag1
(g1298
g1155
(dp1351
g62
g90
sg63
g1041
sg64
g138
sg65
g1036
sg66
g1040
stRp1352
ag1
(g1298
g1155
(dp1353
g62
g90
sg63
g214
sg64
g89
sg65
g209
sg66
g213
stRp1354
ag1
(g1298
g1155
(dp1355
g62
g74
sg63
g700
sg64
g102
sg65
g695
sg66
g699
stRp1356
ag1
(g1298
g1155
(dp1357
g62
g74
sg63
g788
sg64
g73
sg65
g783
sg66
g787
stRp1358
ag1
(g1298
g1155
(dp1359
g62
g74
sg63
g931
sg64
g317
sg65
g926
sg66
g930
stRp1360
ag1
(g1298
g1155
(dp1361
g62
g74
sg63
g1019
sg64
g317
sg65
g1014
sg66
g1018
stRp1362
ag1
(g1298
g1155
(dp1363
g62
g90
sg63
g225
sg64
g89
sg65
g220
sg66
g224
stRp1364
ag1
(g1298
g1155
(dp1365
g62
g90
sg63
g146
sg64
g138
sg65
g141
sg66
g145
stRp1366
ag1
(g1298
g1155
(dp1367
g62
g90
sg63
g280
sg64
g138
sg65
g275
sg66
g279
stRp1368
ag1
(g1298
g1155
(dp1369
g62
g74
sg63
g821
sg64
g102
sg65
g816
sg66
g820
stRp1370
ag1
(g1298
g1155
(dp1371
g62
g74
sg63
g458
sg64
g384
sg65
g453
sg66
g457
stRp1372
ag1
(g1298
g1155
(dp1373
g62
g74
sg63
g192
sg64
g184
sg65
g187
sg66
g191
stRp1374
ag1
(g1298
g1155
(dp1375
g62
g90
sg63
g180
sg64
g138
sg65
g175
sg66
g179
stRp1376
ag1
(g1298
g1155
(dp1377
g62
g90
sg63
g1107
sg64
g89
sg65
g1102
sg66
g1106
stRp1378
ag1
(g1298
g1155
(dp1379
g62
g90
sg63
g953
sg64
g89
sg65
g948
sg66
g952
stRp1380
ag1
(g1298
g1155
(dp1381
g62
g74
sg63
g157
sg64
g102
sg65
g152
sg66
g156
stRp1382
ag1
(g1298
g1155
(dp1383
g62
g90
sg63
g524
sg64
g138
sg65
g519
sg66
g523
stRp1384
ag1
(g1298
g1155
(dp1385
g62
g90
sg63
g843
sg64
g126
sg65
g838
sg66
g842
stRp1386
ag1
(g1298
g1155
(dp1387
g62
g90
sg63
g997
sg64
g138
sg65
g992
sg66
g996
stRp1388
ag1
(g1298
g1155
(dp1389
g62
g90
sg63
g744
sg64
g114
sg65
g739
sg66
g743
stRp1390
ag1
(g1298
g1155
(dp1391
g62
g74
sg63
g568
sg64
g73
sg65
g563
sg66
g567
stRp1392
ag1
(g1298
g1155
(dp1393
g62
g74
sg63
g876
sg64
g73
sg65
g871
sg66
g875
stRp1394
ag1
(g1298
g1155
(dp1395
g62
g90
sg63
g98
sg64
g89
sg65
g93
sg66
g97
stRp1396
ag1
(g1298
g1155
(dp1397
g62
g90
sg63
g942
sg64
g126
sg65
g937
sg66
g941
stRp1398
ag1
(g1298
g1155
(dp1399
g62
g90
sg63
g733
sg64
g89
sg65
g728
sg66
g732
stRp1400
ag1
(g1298
g1155
(dp1401
g62
g90
sg63
g854
sg64
g138
sg65
g849
sg66
g853
stRp1402
ag1
(g1298
g1155
(dp1403
g62
g90
sg63
g447
sg64
g126
sg65
g442
sg66
g446
stRp1404
ag1
(g1298
g1155
(dp1405
g62
g74
sg63
g414
sg64
g102
sg65
g409
sg66
g413
stRp1406
ag1
(g1298
g1155
(dp1407
g62
g74
sg63
g810
sg64
g161
sg65
g805
sg66
g809
stRp1408
ag1
(g1298
g1155
(dp1409
g62
g90
sg63
g535
sg64
g126
sg65
g530
sg66
g534
stRp1410
ag1
(g1298
g1155
(dp1411
g62
g90
sg63
g645
sg64
g138
sg65
g640
sg66
g644
stRp1412
ag1
(g1298
g1155
(dp1413
g62
g90
sg63
g380
sg64
g138
sg65
g375
sg66
g379
stRp1414
ag1
(g1298
g1155
(dp1415
g62
g74
sg63
g203
sg64
g102
sg65
g198
sg66
g202
stRp1416
ag1
(g1298
g1155
(dp1417
g62
g90
sg63
g678
sg64
g138
sg65
g673
sg66
g677
stRp1418
ag1
(g1298
g1155
(dp1419
g62
g90
sg63
g601
sg64
g138
sg65
g596
sg66
g600
stRp1420
ag1
(g1298
g1155
(dp1421
g62
g90
sg63
g656
sg64
g138
sg65
g651
sg66
g655
stRp1422
ag1
(g1298
g1155
(dp1423
g62
g74
sg63
g722
sg64
g384
sg65
g717
sg66
g721
stRp1424
ag1
(g1298
g1155
(dp1425
g62
g90
sg63
g1074
sg64
g138
sg65
g1069
sg66
g1073
stRp1426
ag1
(g1298
g1155
(dp1427
g62
g74
sg63
g169
sg64
g161
sg65
g164
sg66
g168
stRp1428
ag1
(g1298
g1155
(dp1429
g62
g90
sg63
g557
sg64
g126
sg65
g552
sg66
g556
stRp1430
ag1
(g1298
g1155
(dp1431
g62
g74
sg63
g347
sg64
g317
sg65
g342
sg66
g346
stRp1432
ag1
(g1298
g1155
(dp1433
g62
g90
sg63
g909
sg64
g138
sg65
g904
sg66
g908
stRp1434
ag1
(g1298
g1155
(dp1435
g62
g90
sg63
g236
sg64
g89
sg65
g231
sg66
g235
stRp1436
ag1
(g1298
g1155
(dp1437
g62
g74
sg63
g302
sg64
g73
sg65
g297
sg66
g301
stRp1438
ag1
(g1298
g1155
(dp1439
g62
g90
sg63
g269
sg64
g138
sg65
g264
sg66
g268
stRp1440
ag1
(g1298
g1155
(dp1441
g62
g74
sg63
g325
sg64
g317
sg65
g320
sg66
g324
stRp1442
ag1
(g1298
g1155
(dp1443
g62
g74
sg63
g1052
sg64
g384
sg65
g1047
sg66
g1051
stRp1444
ag1
(g1298
g1155
(dp1445
g62
g90
sg63
g403
sg64
g114
sg65
g398
sg66
g402
stRp1446
ag1
(g1298
g1155
(dp1447
g62
g90
sg63
g469
sg64
g138
sg65
g464
sg66
g468
stRp1448
ag1
(g1298
g1155
(dp1449
g62
g90
sg63
g134
sg64
g126
sg65
g129
sg66
g133
stRp1450
ag1
(g1298
g1155
(dp1451
g62
g74
sg63
g579
sg64
g161
sg65
g574
sg66
g578
stRp1452
ag1
(g1298
g1155
(dp1453
g62
g74
sg63
g689
sg64
g317
sg65
g684
sg66
g688
stRp1454
ag1
(g1298
g1155
(dp1455
g62
g74
sg63
g920
sg64
g73
sg65
g915
sg66
g919
stRp1456
ag1
(g1298
g1155
(dp1457
g62
g90
sg63
g313
sg64
g138
sg65
g308
sg66
g312
stRp1458
ag1
(g1298
g1155
(dp1459
g62
g90
sg63
g634
sg64
g126
sg65
g629
sg66
g633
stRp1460
ag1
(g1298
g1155
(dp1461
g62
g74
sg63
g84
sg64
g73
sg65
g78
sg66
g83
stRp1462
ag1
(g1298
g1155
(dp1463
g62
g90
sg63
g612
sg64
g89
sg65
g607
sg66
g611
stRp1464
ag1
(g1298
g1155
(dp1465
g62
g74
sg63
g898
sg64
g317
sg65
g893
sg66
g897
stRp1466
ag1
(g1298
g1155
(dp1467
g62
g90
sg63
g1008
sg64
g89
sg65
g1003
sg66
g1007
stRp1468
ag1
(g1298
g1155
(dp1469
g62
g90
sg63
g425
sg64
g138
sg65
g420
sg66
g424
stRp1470
ag1
(g1298
g1155
(dp1471
g62
g74
sg63
g369
sg64
g161
sg65
g364
sg66
g368
stRp1472
ag1
(g1298
g1155
(dp1473
g62
g74
sg63
g358
sg64
g161
sg65
g353
sg66
g357
stRp1474
ag1
(g1298
g1155
(dp1475
g62
g74
sg63
g513
sg64
g384
sg65
g508
sg66
g512
stRp1476
ag1
(g1298
g1155
(dp1477
g62
g74
sg63
g1096
sg64
g384
sg65
g1091
sg66
g1095
stRp1478
ag1
(g1298
g1155
(dp1479
g62
g90
sg63
g291
sg64
g89
sg65
g286
sg66
g290
stRp1480
ag1
(g1298
g1155
(dp1481
g62
g74
sg63
g865
sg64
g161
sg65
g860
sg66
g864
stRp1482
ag1
(g1298
g1155
(dp1483
g62
g74
sg63
g392
sg64
g384
sg65
g387
sg66
g391
stRp1484
ag1
(g1298
g1155
(dp1485
g62
g74
sg63
g1140
sg64
g73
sg65
g1135
sg66
g1139
stRp1486
ag1
(g1298
g1155
(dp1487
g62
g90
sg63
g832
sg64
g126
sg65
g827
sg66
g831
stRp1488
ag1
(g1298
g1155
(dp1489
g62
g90
sg63
g546
sg64
g89
sg65
g541
sg66
g545
stRp1490
asS'seed'
p1491
NsS'thisIndex'
p1492
g1137
sS'thisN'
p1493
I96
sS'thisTrialN'
p1494
I0
sS'nTotal'
p1495
I96
sS'_warnUseOfNext'
p1496
I01
sbasS'savePickle'
p1497
I00
sb.