ccopy_reg
_reconstructor
p1
(cpsychopy.data
ExperimentHandler
p2
c__builtin__
object
p3
NtRp4
(dp5
S'originPath'
p6
NsS'dataFileName'
p7
VC:\u005cDocuments and Settings\u005cExperimental user\u005cMy Documents\u005cconsciousness\u005cuncon_feat\u005cexperiment_scripts\u005cdata/alba_Experiment_EEG_version_2019_jun_10_1340
p8
sS'runtimeInfo'
p9
NsS'name'
p10
VExperiment_EEG_version
p11
sS'dataNames'
p12
(lp13
S'image_onset_time'
p14
aS'response_window'
p15
aS'correctAns'
p16
aS'probe_onset'
p17
aS'discrim_resptime'
p18
aS'response.corr'
p19
aS'response.keys'
p20
aS'response.rt'
p21
aS'visible_resptime'
p22
aS'visible.keys'
p23
aS'visible.corr'
p24
aS'visible.rt'
p25
aS'probeFrames'
p26
aS'jitter2'
p27
asS'autoLog'
p28
I01
sS'extraInfo'
p29
(dp30
Vn_square
p31
V32
p32
sVexperiment_color
p33
Vbw
p34
sS'frameRate'
p35
cnumpy.core.multiarray
scalar
p36
(cnumpy
dtype
p37
(S'f8'
I0
I1
tRp38
(I3
S'<'
NNNI-1
I-1
I0
tbS'Y\x0b\x97\xce\xe5\xf1X@'
tRp39
sS'date'
p40
V2019_jun_10_1340
p41
sVsession
p42
V004
p43
sVimage_size
p44
V256
p45
sVpremask_dur
p46
V20
p47
sVprobeFrames
p48
V5
sVparticipant
p49
Valba
p50
sS'expName'
p51
g11
sVpostmask_dur
p52
V20
p53
ssS'loopsUnfinished'
p54
(lp55
sS'saveWideText'
p56
I00
sS'thisEntry'
p57
(dp58
sS'version'
p59
S''
sS'_paramNamesSoFar'
p60
(lp61
S'category'
p62
aS'probe_path'
p63
aS'subcategory'
p64
aS'fixation_duration'
p65
aS'label'
p66
asS'entries'
p67
(lp68
(dp69
g31
g32
sg17
F3.7391428598202765
sg24
I1
sg35
g39
sg14
F3.7166048367507756
sg16
g36
(g37
(S'i4'
I0
I1
tRp70
(I3
S'<'
NNNI-1
I-1
I0
tbS'\x01\x00\x00\x00'
tRp71
sg42
g43
sg46
g47
sg15
S'nV_V'
p72
sg22
F5.9323361599817872
sg64
VVehicles
p73
sg62
VNonliving_Things
p74
sg49
g50
sS'trials.thisN'
p75
I0
sg19
I1
sg27
g36
(g38
S'\x00\x00\x00\x00\x00\x00\x18@'
tRp76
sg52
g53
sg23
S'1'
sg18
F4.9992946167476475
sg33
g34
sg51
g11
sg20
S'1'
sg65
g36
(g37
(S'i8'
I0
I1
tRp77
(I3
S'<'
NNNI-1
I-1
I0
tbS'\x00\x00\x00\x00\x00\x00\x00\x00'
tRp78
sg44
g45
sg40
g41
sg25
F0.12049505999311805
sS'trials.thisIndex'
p79
g36
(g37
(S'i4'
I0
I1
tRp80
(I3
S'<'
NNNI-1
I-1
I0
tbS'W\x00\x00\x00'
tRp81
sg26
V5
sS'trials.thisRepN'
p82
I0
sg66
Vtrain
p83
sg63
V../experiment_stimuli/bw_bc_bl/Nonliving_Things/Vehicles/train_13.jpg
p84
sg21
F0.90218542888760567
sS'trials.thisTrialN'
p85
I0
sa(dp86
g31
g32
sg17
F7.7904587523080409
sg24
I1
sg35
g39
sg14
F7.7854460156522691
sg16
g36
(g70
S'\x01\x00\x00\x00'
tRp87
sg42
g43
sg46
g47
sg15
g72
sg22
F9.7002423070371151
sg64
g73
sg62
g74
sg49
g50
sS'trials.thisN'
p88
I1
sg19
I1
sg27
g36
(g38
S'\x00\x00\x00\x00\x00\x00\x18@'
tRp89
sg52
g53
sg23
S'1'
sg18
F9.0681402357295156
sg33
g34
sg51
g11
sg20
S'1'
sg65
g36
(g77
S'\x00\x00\x00\x00\x00\x00\x00\x00'
tRp90
sg44
g45
sg40
g41
sg25
F3.6782293524593115
sS'trials.thisIndex'
p91
g36
(g80
S'@\x00\x00\x00'
tRp92
sg26
V5
sS'trials.thisRepN'
p93
I0
sg66
Vplane
p94
sg63
V../experiment_stimuli/bw_bc_bl/Nonliving_Things/Vehicles/plane_8.jpg
p95
sg21
F0.61155484709888697
sS'trials.thisTrialN'
p96
I1
sa(dp97
g31
g32
sg17
F15.116402788553387
sg24
I0
sg35
g39
sg14
F15.111385074444115
sg16
g36
(g70
S'\x02\x00\x00\x00'
tRp98
sg42
g43
sg46
g47
sg15
S'V_nV'
p99
sg22
F18.66958312317729
sg64
g73
sg62
g74
sg49
g50
sS'trials.thisN'
p100
I2
sg19
I1
sg27
g36
(g38
S'\x00\x00\x00\x00\x00\x00\x1a@'
tRp101
sg52
g53
sg23
S'3'
sg18
F16.414103669580072
sg33
g34
sg51
g11
sg20
S'2'
sg65
g36
(g77
S'\x00\x00\x00\x00\x00\x00\x00\x00'
tRp102
sg44
g45
sg40
g41
sg25
F0.1806747168302536
sS'trials.thisIndex'
p103
g36
(g80
S'\x0b\x00\x00\x00'
tRp104
sg26
V5
sS'trials.thisRepN'
p105
I0
sg66
Vcar
p106
sg63
V../experiment_stimuli/bw_bc_bl/Nonliving_Things/Vehicles/car_7.jpg
p107
sg21
F2.2349182409234345
sS'trials.thisTrialN'
p108
I2
sa(dp109
g31
g32
sg17
F20.588095079641789
sg24
I0
sg35
g39
sg14
F20.583261453546584
sg16
g36
(g70
S'\x02\x00\x00\x00'
tRp110
sg42
g43
sg46
g47
sg15
g99
sg22
F22.558189609088004
sg64
g73
sg62
g74
sg49
g50
sS'trials.thisN'
p111
I3
sg19
I1
sg27
g36
(g38
S'\x00\x00\x00\x00\x00\x00\x18@'
tRp112
sg52
g53
sg23
S'2'
sg18
F21.865954763721675
sg33
g34
sg51
g11
sg20
S'2'
sg65
g36
(g77
S'\x00\x00\x00\x00\x00\x00\x00\x00'
tRp113
sg44
g45
sg40
g41
sg25
F0.20049698930233717
sS'trials.thisIndex'
p114
g36
(g80
S'\x07\x00\x00\x00'
tRp115
sg26
V5
sS'trials.thisRepN'
p116
I0
sg66
Vboat
p117
sg63
V../experiment_stimuli/bw_bc_bl/Nonliving_Things/Vehicles/boat_9.jpg
p118
sg21
F0.67167805740609765
sS'trials.thisTrialN'
p119
I3
sa(dp120
g31
g32
sg17
F24.496636535972357
sg24
I0
sg35
g39
sg14
F24.491758939810097
sg16
g36
(g70
S'\x01\x00\x00\x00'
tRp121
sg42
g43
sg46
g47
sg15
g72
sg22
F27.258419035468251
sg64
g73
sg62
g74
sg49
g50
sS'trials.thisN'
p122
I4
sg19
I1
sg27
g36
(g38
S'\x00\x00\x00\x00\x00\x00\x18@'
tRp123
sg52
g53
sg23
S'3'
sg18
F25.764437420293689
sg33
g34
sg51
g11
sg20
S'1'
sg65
g36
(g77
S'\x00\x00\x00\x00\x00\x00\x00\x00'
tRp124
sg44
g45
sg40
g41
sg25
F0.48128046421334147
sS'trials.thisIndex'
p125
g36
(g80
S'6\x00\x00\x00'
tRp126
sg26
V5
sS'trials.thisRepN'
p127
I0
sg66
Vmotorbike
p128
sg63
V../experiment_stimuli/bw_bc_bl/Nonliving_Things/Vehicles/motorbike_20.jpg
p129
sg21
F1.4734269282780588
sS'trials.thisTrialN'
p130
I4
sa(dp131
g31
g32
sg17
F29.478055949788541
sg24
I1
sg35
g39
sg14
F29.472587242722511
sg16
g36
(g70
S'\x02\x00\x00\x00'
tRp132
sg42
g43
sg46
g47
sg15
g72
sg22
F32.199174761306494
sg64
VBirds
p133
sg62
VLiving_Things
p134
sg49
g50
sS'trials.thisN'
p135
I5
sg19
I0
sg27
g36
(g38
S'\x00\x00\x00\x00\x00\x00\x18@'
tRp136
sg52
g53
sg23
S'1'
sg18
F30.7252098293975
sg33
g34
sg51
g11
sg20
S'1'
sg65
g36
(g77
S'\x00\x00\x00\x00\x00\x00\x00\x00'
tRp137
sg44
g45
sg40
g41
sg25
F0.52135004848241806
sS'trials.thisIndex'
p138
g36
(g80
S'=\x00\x00\x00'
tRp139
sg26
V5
sS'trials.thisRepN'
p140
I0
sg66
Vpenguin
p141
sg63
V../experiment_stimuli/bw_bc_bl/Living_Things/Birds/penguin_22.jpg
p142
sg21
F1.4533762154169381
sS'trials.thisTrialN'
p143
I5
sa(dp144
g31
g32
sg17
F34.458465220872313
sg24
I1
sg35
g39
sg14
F34.453415240161121
sg16
g36
(g70
S'\x02\x00\x00\x00'
tRp145
sg42
g43
sg46
g47
sg15
g72
sg22
F35.957369378302246
sg64
VAnimals
p146
sg62
g134
sg49
g50
sS'trials.thisN'
p147
I6
sg19
I0
sg27
g36
(g38
S'\x00\x00\x00\x00\x00\x00\x1a@'
tRp148
sg52
g53
sg23
S'1'
sg18
F35.716066352557391
sg33
g34
sg51
g11
sg20
S'1'
sg65
g36
(g77
S'\x00\x00\x00\x00\x00\x00\x00\x00'
tRp149
sg44
g45
sg40
g41
sg25
F2.766230589710176
sS'trials.thisIndex'
p150
g36
(g80
S'\x10\x00\x00\x00'
tRp151
sg26
V5
sS'trials.thisRepN'
p152
I0
sg66
Vcheetah
p153
sg63
V../experiment_stimuli/bw_bc_bl/Living_Things/Animals/cheetah_2.jpg
p154
sg21
F0.22074927482753992
sS'trials.thisTrialN'
p155
I6
sa(dp156
g31
g32
sg17
F40.461315100546926
sg24
I0
sg35
g39
sg14
F40.456460955552757
sg16
g36
(g70
S'\x01\x00\x00\x00'
tRp157
sg42
g43
sg46
g47
sg15
g99
sg22
F42.551680839620531
sg64
VMarine_creatures
p158
sg62
g134
sg49
g50
sS'trials.thisN'
p159
I7
sg19
I1
sg27
g36
(g38
S'\x00\x00\x00\x00\x00\x00\x1a@'
tRp160
sg52
g53
sg23
S'2'
sg18
F41.729134529829025
sg33
g34
sg51
g11
sg20
S'1'
sg65
g36
(g77
S'\x00\x00\x00\x00\x00\x00\x00\x00'
tRp161
sg44
g45
sg40
g41
sg25
F0.81198466429486871
sS'trials.thisIndex'
p162
g36
(g80
S'P\x00\x00\x00'
tRp163
sg26
V5
sS'trials.thisRepN'
p164
I0
sg66
Vsperm-whale
p165
sg63
V../experiment_stimuli/bw_bc_bl/Living_Things/Marine_creatures/sperm-whale_15.jpg
p166
sg21
F0.80198793159797788
sS'trials.thisTrialN'
p167
I7
sa(dp168
g31
g32
sg17
F45.101327366195619
sg24
I1
sg35
g39
sg14
F45.096543855499476
sg16
g36
(g70
S'\x02\x00\x00\x00'
tRp169
sg42
g43
sg46
g47
sg15
g99
sg22
F46.460138604976237
sg64
VFurniture
p170
sg62
g74
sg49
g50
sS'trials.thisN'
p171
I8
sg19
I1
sg27
g36
(g38
S'\x00\x00\x00\x00\x00\x00 @'
tRp172
sg52
g53
sg23
S'1'
sg18
F46.359202058054507
sg33
g34
sg51
g11
sg20
S'2'
sg65
g36
(g77
S'\x00\x00\x00\x00\x00\x00\x00\x00'
tRp173
sg44
g45
sg40
g41
sg25
F0.16061488399282098
sS'trials.thisIndex'
p174
g36
(g80
S'\x06\x00\x00\x00'
tRp175
sg26
V5
sS'trials.thisRepN'
p176
I0
sg66
Vbedside-table
p177
sg63
V../experiment_stimuli/bw_bc_bl/Nonliving_Things/Furniture/bedside-table_10.jpg
p178
sg21
F0.080392841249704361
sS'trials.thisTrialN'
p179
I8
sa(dp180
g31
g32
sg17
F48.358599664643407
sg24
I1
sg35
g39
sg14
F48.353635694365948
sg16
g36
(g70
S'\x01\x00\x00\x00'
tRp181
sg42
g43
sg46
g47
sg15
g99
sg22
F49.817479090765119
sg64
g133
sg62
g134
sg49
g50
sS'trials.thisN'
p182
I9
sg19
I1
sg27
g36
(g38
S'\x00\x00\x00\x00\x00\x00\x18@'
tRp183
sg52
g53
sg23
S'1'
sg18
F49.636317151598632
sg33
g34
sg51
g11
sg20
S'1'
sg65
g36
(g77
S'\x00\x00\x00\x00\x00\x00\x00\x00'
tRp184
sg44
g45
sg40
g41
sg25
F0.26077673910185695
sS'trials.thisIndex'
p185
g36
(g80
S'&\x00\x00\x00'
tRp186
sg26
V5
sS'trials.thisRepN'
p187
I0
sg66
Vhen
p188
sg63
V../experiment_stimuli/bw_bc_bl/Living_Things/Birds/hen_11.jpg
p189
sg21
F0.16059304960072041
sS'trials.thisTrialN'
p190
I9
sa(dp191
g31
g32
sg17
F51.81713257310912
sg24
I0
sg35
g39
sg14
F51.811141376849264
sg16
g36
(g70
S'\x01\x00\x00\x00'
tRp192
sg42
g43
sg46
g47
sg15
g72
sg22
F57.043010069057345
sg64
g170
sg62
g74
sg49
g50
sS'trials.thisN'
p193
I10
sg19
I1
sg27
g36
(g38
S'\x00\x00\x00\x00\x00\x00\x1a@'
tRp194
sg52
g53
sg23
S'3'
sg18
F53.103862581308931
sg33
g34
sg51
g11
sg20
S'1'
sg65
g36
(g77
S'\x00\x00\x00\x00\x00\x00\x00\x00'
tRp195
sg44
g45
sg40
g41
sg25
F0.4712415817193687
sS'trials.thisIndex'
p196
g36
(g80
S'\x00\x00\x00\x00'
tRp197
sg26
V5
sS'trials.thisRepN'
p198
I0
sg66
VChest-of-drawers
p199
sg63
V../experiment_stimuli/bw_bc_bl/Nonliving_Things/Furniture/Chest-of-drawers_19.jpg
p200
sg21
F3.9185969247482717
sS'trials.thisTrialN'
p201
I10
sa(dp202
g31
g32
sg17
F59.252214234322309
sg24
I1
sg35
g39
sg14
F59.247308146674186
sg16
g36
(g70
S'\x02\x00\x00\x00'
tRp203
sg42
g43
sg46
g47
sg15
g72
sg22
F61.332487479317933
sg64
g158
sg62
g134
sg49
g50
sS'trials.thisN'
p204
I11
sg19
I0
sg27
g36
(g38
S'\x00\x00\x00\x00\x00\x00\x1e@'
tRp205
sg52
g53
sg23
S'1'
sg18
F60.519976697862148
sg33
g34
sg51
g11
sg20
S'1'
sg65
g36
(g77
S'\x00\x00\x00\x00\x00\x00\x00\x00'
tRp206
sg44
g45
sg40
g41
sg25
F0.33093304978683591
sS'trials.thisIndex'
p207
g36
(g80
S'+\x00\x00\x00'
tRp208
sg26
V5
sS'trials.thisRepN'
p209
I0
sg66
Vkiller-whale
p210
sg63
V../experiment_stimuli/bw_bc_bl/Living_Things/Marine_creatures/killer-whale_12.jpg
p211
sg21
F0.79194913944229484
sS'trials.thisTrialN'
p212
I11
sa(dp213
g31
g32
sg17
F63.401167213451117
sg24
I0
sg35
g39
sg14
F63.396325609646738
sg16
g36
(g70
S'\x01\x00\x00\x00'
tRp214
sg42
g43
sg46
g47
sg15
g72
sg22
F66.132949240505695
sg64
g73
sg62
g74
sg49
g50
sS'trials.thisN'
p215
I12
sg19
I1
sg27
g36
(g38
S'\x00\x00\x00\x00\x00\x00\x18@'
tRp216
sg52
g53
sg23
S'3'
sg18
F64.679015825968236
sg33
g34
sg51
g11
sg20
S'1'
sg65
g36
(g77
S'\x00\x00\x00\x00\x00\x00\x00\x00'
tRp217
sg44
g45
sg40
g41
sg25
F0.40110836829990149
sS'trials.thisIndex'
p218
g36
(g80
S'L\x00\x00\x00'
tRp219
sg26
V5
sS'trials.thisRepN'
p220
I0
sg66
Vship
p221
sg63
V../experiment_stimuli/bw_bc_bl/Nonliving_Things/Vehicles/ship_12.jpg
p222
sg21
F1.4333425550721586
sS'trials.thisTrialN'
p223
I12
sa(dp224
g31
g32
sg17
F68.271847251337022
sg24
I1
sg35
g39
sg14
F68.266911513637751
sg16
g36
(g70
S'\x02\x00\x00\x00'
tRp225
sg42
g43
sg46
g47
sg15
g72
sg22
F70.352111590094864
sg64
g133
sg62
g134
sg49
g50
sS'trials.thisN'
p226
I13
sg19
I0
sg27
g36
(g38
S'\x00\x00\x00\x00\x00\x00\x18@'
tRp227
sg52
g53
sg23
S'1'
sg18
F69.529567110817879
sg33
g34
sg51
g11
sg20
S'1'
sg65
g36
(g77
S'\x00\x00\x00\x00\x00\x00\x00\x00'
tRp228
sg44
g45
sg40
g41
sg25
F0.31088756257668138
sS'trials.thisIndex'
p229
g36
(g80
S',\x00\x00\x00'
tRp230
sg26
V5
sS'trials.thisRepN'
p231
I0
sg66
Vkiwi
p232
sg63
V../experiment_stimuli/bw_bc_bl/Living_Things/Birds/kiwi_17.jpg
p233
sg21
F0.80198400700464845
sS'trials.thisTrialN'
p234
I13
sa(dp235
g31
g32
sg17
F72.400764908175915
sg24
I1
sg35
g39
sg14
F72.395885169971734
sg16
g36
(g70
S'\x01\x00\x00\x00'
tRp236
sg42
g43
sg46
g47
sg15
g99
sg22
F73.979984035715461
sg64
g133
sg62
g134
sg49
g50
sS'trials.thisN'
p237
I14
sg19
I0
sg27
g36
(g38
S'\x00\x00\x00\x00\x00\x00\x18@'
tRp238
sg52
g53
sg23
S'1'
sg18
F73.688602118287235
sg33
g34
sg51
g11
sg20
S'2'
sg65
g36
(g77
S'\x00\x00\x00\x00\x00\x00\x00\x00'
tRp239
sg44
g45
sg40
g41
sg25
F0.18060967652127147
sS'trials.thisIndex'
p240
g36
(g80
S'!\x00\x00\x00'
tRp241
sg26
V5
sS'trials.thisRepN'
p242
I0
sg66
Vgoldfinch
p243
sg63
V../experiment_stimuli/bw_bc_bl/Living_Things/Birds/goldfinch_6.jpg
p244
sg21
F0.27081210305914283
sS'trials.thisTrialN'
p245
I14
sa(dp246
g31
g32
sg17
F75.898368494119495
sg24
I0
sg35
g39
sg14
F75.893494653981179
sg16
g36
(g70
S'\x01\x00\x00\x00'
tRp247
sg42
g43
sg46
g47
sg15
g72
sg22
F78.760377118363976
sg64
g170
sg62
g74
sg49
g50
sS'trials.thisN'
p248
I15
sg19
I1
sg27
g36
(g38
S'\x00\x00\x00\x00\x00\x00\x1c@'
tRp249
sg52
g53
sg23
S'3'
sg18
F77.206248853355646
sg33
g34
sg51
g11
sg20
S'1'
sg65
g36
(g77
S'\x00\x00\x00\x00\x00\x00\x00\x00'
tRp250
sg44
g45
sg40
g41
sg25
F0.35100222891196609
sS'trials.thisIndex'
p251
g36
(g80
S'\x02\x00\x00\x00'
tRp252
sg26
V5
sS'trials.thisRepN'
p253
I0
sg66
Varmchair
p254
sg63
V../experiment_stimuli/bw_bc_bl/Nonliving_Things/Furniture/armchair_12.jpg
p255
sg21
F1.5335546913556755
sS'trials.thisTrialN'
p256
I15
sa(dp257
g31
g32
sg17
F80.84917390299961
sg24
I1
sg35
g39
sg14
F80.844270394183695
sg16
g36
(g70
S'\x02\x00\x00\x00'
tRp258
sg42
g43
sg46
g47
sg15
g72
sg22
F83.229924727696925
sg64
g158
sg62
g134
sg49
g50
sS'trials.thisN'
p259
I16
sg19
I0
sg27
g36
(g38
S'\x00\x00\x00\x00\x00\x00\x18@'
tRp260
sg52
g53
sg23
S'1'
sg18
F82.13698938023299
sg33
g34
sg51
g11
sg20
S'1'
sg65
g36
(g77
S'\x00\x00\x00\x00\x00\x00\x00\x00'
tRp261
sg44
g45
sg40
g41
sg25
F0.27080306131392717
sS'trials.thisIndex'
p262
g36
(g80
S'A\x00\x00\x00'
tRp263
sg26
V5
sS'trials.thisRepN'
p264
I0
sg66
Vpomfret
p265
sg63
V../experiment_stimuli/bw_bc_bl/Living_Things/Marine_creatures/pomfret_6.jpg
p266
sg21
F1.0723937279544771
sS'trials.thisTrialN'
p267
I16
sa(dp268
g31
g32
sg17
F85.240135386120528
sg24
I0
sg35
g39
sg14
F85.233806111849844
sg16
g36
(g70
S'\x01\x00\x00\x00'
tRp269
sg42
g43
sg46
g47
sg15
g72
sg22
F88.441394730936736
sg64
VBuildings
p270
sg62
g74
sg49
g50
sS'trials.thisN'
p271
I17
sg19
I1
sg27
g36
(g38
S'\x00\x00\x00\x00\x00\x00\x18@'
tRp272
sg52
g53
sg23
S'2'
sg18
F86.536530939862132
sg33
g34
sg51
g11
sg20
S'1'
sg65
g36
(g77
S'\x00\x00\x00\x00\x00\x00\x00\x00'
tRp273
sg44
g45
sg40
g41
sg25
F0.92222402151674032
sS'trials.thisIndex'
p274
g36
(g80
S'5\x00\x00\x00'
tRp275
sg26
V5
sS'trials.thisRepN'
p276
I0
sg66
Vmill
p277
sg63
V../experiment_stimuli/bw_bc_bl/Nonliving_Things/Buildings/mill_9.jpg
p278
sg21
F1.8742933715693653
sS'trials.thisTrialN'
p279
I17
sa(dp280
g31
g32
sg17
F91.101456326432526
sg24
I1
sg35
g39
sg14
F91.096540505997837
sg16
g36
(g70
S'\x02\x00\x00\x00'
tRp281
sg42
g43
sg46
g47
sg15
g72
sg22
F93.352137375157326
sg64
g146
sg62
g134
sg49
g50
sS'trials.thisN'
p282
I18
sg19
I0
sg27
g36
(g38
S'\x00\x00\x00\x00\x00\x00\x1a@'
tRp283
sg52
g53
sg23
S'1'
sg18
F92.389252187684178
sg33
g34
sg51
g11
sg20
S'1'
sg65
g36
(g77
S'\x00\x00\x00\x00\x00\x00\x00\x00'
tRp284
sg44
g45
sg40
g41
sg25
F0.35097907111048698
sS'trials.thisIndex'
p285
g36
(g80
S"'\x00\x00\x00"
tRp286
sg26
V5
sS'trials.thisRepN'
p287
I0
sg66
Vhippopotamus
p288
sg63
V../experiment_stimuli/bw_bc_bl/Living_Things/Animals/hippopotamus_13.jpg
p289
sg21
F0.94230499770492315
sS'trials.thisTrialN'
p290
I18
sa(dp291
g31
g32
sg17
F95.440934847574681
sg24
I1
sg35
g39
sg14
F95.435990083962679
sg16
g36
(g70
S'\x01\x00\x00\x00'
tRp292
sg42
g43
sg46
g47
sg15
g99
sg22
F96.819615298416466
sg64
g133
sg62
g134
sg49
g50
sS'trials.thisN'
p293
I19
sg19
I1
sg27
g36
(g38
S'\x00\x00\x00\x00\x00\x00\x18@'
tRp294
sg52
g53
sg23
S'1'
sg18
F96.758764038328081
sg33
g34
sg51
g11
sg20
S'1'
sg65
g36
(g77
S'\x00\x00\x00\x00\x00\x00\x00\x00'
tRp295
sg44
g45
sg40
g41
sg25
F0.34097657864913344
sS'trials.thisIndex'
p296
g36
(g80
S'3\x00\x00\x00'
tRp297
sg26
V5
sS'trials.thisRepN'
p298
I0
sg66
Vmagpie
p299
sg63
V../experiment_stimuli/bw_bc_bl/Living_Things/Birds/magpie_1.jpg
p300
sg21
F0.040310039184987545
sS'trials.thisTrialN'
p301
I19
sa(dp302
g31
g32
sg17
F98.898390816990286
sg24
I0
sg35
g39
sg14
F98.89349142415449
sg16
g36
(g70
S'\x01\x00\x00\x00'
tRp303
sg42
g43
sg46
g47
sg15
g72
sg22
F100.73813498346135
sg64
g270
sg62
g74
sg49
g50
sS'trials.thisN'
p304
I20
sg19
I1
sg27
g36
(g38
S'\x00\x00\x00\x00\x00\x00\x1a@'
tRp305
sg52
g53
sg23
S'3'
sg18
F100.246343026869
sg33
g34
sg51
g11
sg20
S'1'
sg65
g36
(g77
S'\x00\x00\x00\x00\x00\x00\x00\x00'
tRp306
sg44
g45
sg40
g41
sg25
F0.471252067014575
sS'trials.thisIndex'
p307
g36
(g80
S'\x11\x00\x00\x00'
tRp308
sg26
V5
sS'trials.thisRepN'
p309
I0
sg66
Vchurch
p310
sg63
V../experiment_stimuli/bw_bc_bl/Nonliving_Things/Buildings/church_0.jpg
p311
sg21
F0.47122963145375252
sS'trials.thisTrialN'
p312
I20
sa(dp313
g31
g32
sg17
F102.94721134286374
sg24
I0
sg35
g39
sg14
F102.94230026612058
sg16
g36
(g70
S'\x01\x00\x00\x00'
tRp314
sg42
g43
sg46
g47
sg15
g72
sg22
F104.7268348634243
sg64
g73
sg62
g74
sg49
g50
sS'trials.thisN'
p315
I21
sg19
I1
sg27
g36
(g38
S'\x00\x00\x00\x00\x00\x00\x1c@'
tRp316
sg52
g53
sg23
S'3'
sg18
F104.27511192671955
sg33
g34
sg51
g11
sg20
S'1'
sg65
g36
(g77
S'\x00\x00\x00\x00\x00\x00\x00\x00'
tRp317
sg44
g45
sg40
g41
sg25
F0.41118023917078972
sS'trials.thisIndex'
p318
g36
(g80
S'[\x00\x00\x00'
tRp319
sg26
V5
sS'trials.thisRepN'
p320
I0
sg66
Vvan
p321
sg63
V../experiment_stimuli/bw_bc_bl/Nonliving_Things/Vehicles/van_3.jpg
p322
sg21
F0.43118655448779464
sS'trials.thisTrialN'
p323
I21
sa(dp324
g31
g32
sg17
F106.87583701871336
sg24
I0
sg35
g39
sg14
F106.87083595478907
sg16
g36
(g70
S'\x01\x00\x00\x00'
tRp325
sg42
g43
sg46
g47
sg15
g99
sg22
F110.04908521194011
sg64
g146
sg62
g134
sg49
g50
sS'trials.thisN'
p326
I22
sg19
I1
sg27
g36
(g38
S'\x00\x00\x00\x00\x00\x00\x18@'
tRp327
sg52
g53
sg23
S'2'
sg18
F108.1735712075606
sg33
g34
sg51
g11
sg20
S'1'
sg65
g36
(g77
S'\x00\x00\x00\x00\x00\x00\x00\x00'
tRp328
sg44
g45
sg40
g41
sg25
F1.4333619154058397
sS'trials.thisIndex'
p329
g36
(g80
S'Z\x00\x00\x00'
tRp330
sg26
V5
sS'trials.thisRepN'
p331
I0
sg66
Vturtle
p332
sg63
V../experiment_stimuli/bw_bc_bl/Living_Things/Animals/turtle_11.jpg
p333
sg21
F1.8549681031145155
sS'trials.thisTrialN'
p334
I22
sa(dp335
g31
g32
sg17
F113.21968535333872
sg24
I0
sg35
g39
sg14
F113.21462629362941
sg16
g36
(g70
S'\x01\x00\x00\x00'
tRp336
sg42
g43
sg46
g47
sg15
g99
sg22
F115.8810868919827
sg64
g146
sg62
g134
sg49
g50
sS'trials.thisN'
p337
I23
sg19
I1
sg27
g36
(g38
S'\x00\x00\x00\x00\x00\x00 @'
tRp338
sg52
g53
sg23
S'3'
sg18
F114.50734280282632
sg33
g34
sg51
g11
sg20
S'1'
sg65
g36
(g77
S'\x00\x00\x00\x00\x00\x00\x00\x00'
tRp339
sg44
g45
sg40
g41
sg25
F0.37102582585066557
sS'trials.thisIndex'
p340
g36
(g80
S'(\x00\x00\x00'
tRp341
sg26
V5
sS'trials.thisRepN'
p342
I0
sg66
Vhorse
p343
sg63
V../experiment_stimuli/bw_bc_bl/Living_Things/Animals/horse_2.jpg
p344
sg21
F1.3531797518953681
sS'trials.thisTrialN'
p345
I23
sa(dp346
g31
g32
sg17
F117.99070873158053
sg24
I0
sg35
g39
sg14
F117.98499495256692
sg16
g36
(g70
S'\x01\x00\x00\x00'
tRp347
sg42
g43
sg46
g47
sg15
g72
sg22
F123.39739740500227
sg64
VKitchen_Uten
p348
sg62
g74
sg49
g50
sS'trials.thisN'
p349
I24
sg19
I1
sg27
g36
(g38
S'\x00\x00\x00\x00\x00\x00\x1e@'
tRp350
sg52
g53
sg23
S'2'
sg18
F119.25768104894087
sg33
g34
sg51
g11
sg20
S'1'
sg65
g36
(g77
S'\x00\x00\x00\x00\x00\x00\x00\x00'
tRp351
sg44
g45
sg40
g41
sg25
F0.52134618768468499
sS'trials.thisIndex'
p352
g36
(g80
S'G\x00\x00\x00'
tRp353
sg26
V5
sS'trials.thisRepN'
p354
I0
sg66
Vsaucepan
p355
sg63
V../experiment_stimuli/bw_bc_bl/Nonliving_Things/Kitchen_Uten/saucepan_20.jpg
p356
sg21
F4.1191802439279854
sS'trials.thisTrialN'
p357
I24
sa(dp358
g31
g32
sg17
F125.65742999268696
sg24
I1
sg35
g39
sg14
F125.65166333829984
sg16
g36
(g70
S'\x01\x00\x00\x00'
tRp359
sg42
g43
sg46
g47
sg15
g99
sg22
F127.5865548835136
sg64
g146
sg62
g134
sg49
g50
sS'trials.thisN'
p360
I25
sg19
I1
sg27
g36
(g38
S'\x00\x00\x00\x00\x00\x00\x18@'
tRp361
sg52
g53
sg23
S'1'
sg18
F126.91432851459831
sg33
g34
sg51
g11
sg20
S'1'
sg65
g36
(g77
S'\x00\x00\x00\x00\x00\x00\x00\x00'
tRp362
sg44
g45
sg40
g41
sg25
F0.35098354471847415
sS'trials.thisIndex'
p363
g36
(g80
S'0\x00\x00\x00'
tRp364
sg26
V5
sS'trials.thisRepN'
p365
I0
sg66
Vlioness
p366
sg63
V../experiment_stimuli/bw_bc_bl/Living_Things/Animals/lioness_13.jpg
p367
sg21
F0.65165923489257693
sS'trials.thisTrialN'
p368
I25
sa(dp369
g31
g32
sg17
F129.67627137294039
sg24
I0
sg35
g39
sg14
F129.67040066374466
sg16
g36
(g70
S'\x02\x00\x00\x00'
tRp370
sg42
g43
sg46
g47
sg15
g99
sg22
F135.8444940908812
sg64
g170
sg62
g74
sg49
g50
sS'trials.thisN'
p371
I26
sg19
I1
sg27
g36
(g38
S'\x00\x00\x00\x00\x00\x00\x18@'
tRp372
sg52
g53
sg23
S'3'
sg18
F130.96313320985064
sg33
g34
sg51
g11
sg20
S'2'
sg65
g36
(g77
S'\x00\x00\x00\x00\x00\x00\x00\x00'
tRp373
sg44
g45
sg40
g41
sg25
F0.30087220203131437
sS'trials.thisIndex'
p374
g36
(g80
S'E\x00\x00\x00'
tRp375
sg26
V5
sS'trials.thisRepN'
p376
I0
sg66
Vrocking-chair
p377
sg63
V../experiment_stimuli/bw_bc_bl/Nonliving_Things/Furniture/rocking-chair_10.jpg
p378
sg21
F4.8507905742153525
sS'trials.thisTrialN'
p379
I26
sa(dp380
g31
g32
sg17
F137.88410513987765
sg24
I1
sg35
g39
sg14
F137.87824396044016
sg16
g36
(g70
S'\x02\x00\x00\x00'
tRp381
sg42
g43
sg46
g47
sg15
g99
sg22
F139.72290798230097
sg64
g348
sg62
g74
sg49
g50
sS'trials.thisN'
p382
I27
sg19
I0
sg27
g36
(g38
S'\x00\x00\x00\x00\x00\x00\x18@'
tRp383
sg52
g53
sg23
S'1'
sg18
F139.14089317480102
sg33
g34
sg51
g11
sg20
S'1'
sg65
g36
(g77
S'\x00\x00\x00\x00\x00\x00\x00\x00'
tRp384
sg44
g45
sg40
g41
sg25
F0.21077172178775072
sS'trials.thisIndex'
p385
g36
(g80
S'M\x00\x00\x00'
tRp386
sg26
V5
sS'trials.thisRepN'
p387
I0
sg66
Vsmall-saucepan
p388
sg63
V../experiment_stimuli/bw_bc_bl/Nonliving_Things/Kitchen_Uten/small-saucepan_19.jpg
p389
sg21
F0.56145645538344979
sS'trials.thisTrialN'
p390
I27
sa(dp391
g31
g32
sg17
F141.67226474126801
sg24
I0
sg35
g39
sg14
F141.6664814366959
sg16
g36
(g70
S'\x02\x00\x00\x00'
tRp392
sg42
g43
sg46
g47
sg15
g72
sg22
F144.11244938056916
sg64
g133
sg62
g134
sg49
g50
sS'trials.thisN'
p393
I28
sg19
I1
sg27
g36
(g38
S'\x00\x00\x00\x00\x00\x00\x18@'
tRp394
sg52
g53
sg23
S'3'
sg18
F142.93914833804592
sg33
g34
sg51
g11
sg20
S'2'
sg65
g36
(g77
S'\x00\x00\x00\x00\x00\x00\x00\x00'
tRp395
sg44
g45
sg40
g41
sg25
F0.95231322199106216
sS'trials.thisIndex'
p396
g36
(g80
S'F\x00\x00\x00'
tRp397
sg26
V5
sS'trials.thisRepN'
p398
I0
sg66
Vrooster
p399
sg63
V../experiment_stimuli/bw_bc_bl/Living_Things/Birds/rooster_19.jpg
p400
sg21
F1.1527356412261724
sS'trials.thisTrialN'
p401
I28
sa(dp402
g31
g32
sg17
F146.80257708719
sg24
I0
sg35
g39
sg14
F146.79763493966311
sg16
g36
(g70
S'\x01\x00\x00\x00'
tRp403
sg42
g43
sg46
g47
sg15
g99
sg22
F148.77257476421073
sg64
VInsects
p404
sg62
g134
sg49
g50
sS'trials.thisN'
p405
I29
sg19
I1
sg27
g36
(g38
S'\x00\x00\x00\x00\x00\x00\x1c@'
tRp406
sg52
g53
sg23
S'3'
sg18
F148.05026254896075
sg33
g34
sg51
g11
sg20
S'1'
sg65
g36
(g77
S'\x00\x00\x00\x00\x00\x00\x00\x00'
tRp407
sg44
g45
sg40
g41
sg25
F0.34098036494106054
sS'trials.thisIndex'
p408
g36
(g80
S'\x18\x00\x00\x00'
tRp409
sg26
V5
sS'trials.thisRepN'
p410
I0
sg66
Vdragonfly
p411
sg63
V../experiment_stimuli/bw_bc_bl/Living_Things/Insects/dragonfly_25.jpg
p412
sg21
F0.70175639726221561
sS'trials.thisTrialN'
p413
I29
sa(dp414
g31
g32
sg17
F150.85132526839152
sg24
I1
sg35
g39
sg14
F150.84643856342882
sg16
g36
(g70
S'\x02\x00\x00\x00'
tRp415
sg42
g43
sg46
g47
sg15
g99
sg22
F152.68106754077598
sg64
g270
sg62
g74
sg49
g50
sS'trials.thisN'
p416
I30
sg19
I1
sg27
g36
(g38
S'\x00\x00\x00\x00\x00\x00\x18@'
tRp417
sg52
g53
sg23
S'1'
sg18
F152.07902226829901
sg33
g34
sg51
g11
sg20
S'2'
sg65
g36
(g77
S'\x00\x00\x00\x00\x00\x00\x00\x00'
tRp418
sg44
g45
sg40
g41
sg25
F0.23056251043453813
sS'trials.thisIndex'
p419
g36
(g80
S'\x0e\x00\x00\x00'
tRp420
sg26
V5
sS'trials.thisRepN'
p421
I0
sg66
Vcathedral
p422
sg63
V../experiment_stimuli/bw_bc_bl/Nonliving_Things/Buildings/cathedral_24.jpg
p423
sg21
F0.58148616133257747
sS'trials.thisTrialN'
p424
I30
sa(dp425
g31
g32
sg17
F154.65142940869555
sg24
I1
sg35
g39
sg14
F154.64469578349963
sg16
g36
(g70
S'\x02\x00\x00\x00'
tRp426
sg42
g43
sg46
g47
sg15
g72
sg22
F156.37910528248176
sg64
g133
sg62
g134
sg49
g50
sS'trials.thisN'
p427
I31
sg19
I0
sg27
g36
(g38
S'\x00\x00\x00\x00\x00\x00\x18@'
tRp428
sg52
g53
sg23
S'1'
sg18
F155.90734491450712
sg33
g34
sg51
g11
sg20
S'1'
sg65
g36
(g77
S'\x00\x00\x00\x00\x00\x00\x00\x00'
tRp429
sg44
g45
sg40
g41
sg25
F0.21067199017852545
sS'trials.thisIndex'
p430
g36
(g80
S'<\x00\x00\x00'
tRp431
sg26
V5
sS'trials.thisRepN'
p432
I0
sg66
Vpelican
p433
sg63
V../experiment_stimuli/bw_bc_bl/Living_Things/Birds/pelican_21.jpg
p434
sg21
F0.45120528992265463
sS'trials.thisTrialN'
p435
I31
sa(dp436
g31
g32
sg17
F158.3275102917105
sg24
I0
sg35
g39
sg14
F158.32270565768704
sg16
g36
(g70
S'\x01\x00\x00\x00'
tRp437
sg42
g43
sg46
g47
sg15
g72
sg22
F160.62834994168952
sg64
g348
sg62
g74
sg49
g50
sS'trials.thisN'
p438
I32
sg19
I1
sg27
g36
(g38
S'\x00\x00\x00\x00\x00\x00\x1e@'
tRp439
sg52
g53
sg23
S'2'
sg18
F159.61542367003858
sg33
g34
sg51
g11
sg20
S'1'
sg65
g36
(g77
S'\x00\x00\x00\x00\x00\x00\x00\x00'
tRp440
sg44
g45
sg40
g41
sg25
F0.40111115388572216
sS'trials.thisIndex'
p441
g36
(g80
S'S\x00\x00\x00'
tRp442
sg26
V5
sS'trials.thisRepN'
p443
I0
sg66
Vteapot
p444
sg63
V../experiment_stimuli/bw_bc_bl/Nonliving_Things/Kitchen_Uten/teapot_13.jpg
p445
sg21
F0.99238390754908323
sS'trials.thisTrialN'
p446
I32
sa(dp447
g31
g32
sg17
F162.7672809404321
sg24
I1
sg35
g39
sg14
F162.76234577037394
sg16
g36
(g70
S'\x01\x00\x00\x00'
tRp448
sg42
g43
sg46
g47
sg15
g99
sg22
F164.31635931925848
sg64
g133
sg62
g134
sg49
g50
sS'trials.thisN'
p449
I33
sg19
I1
sg27
g36
(g38
S'\x00\x00\x00\x00\x00\x00\x1a@'
tRp450
sg52
g53
sg23
S'1'
sg18
F164.04503506189212
sg33
g34
sg51
g11
sg20
S'1'
sg65
g36
(g77
S'\x00\x00\x00\x00\x00\x00\x00\x00'
tRp451
sg44
g45
sg40
g41
sg25
F0.25075449515134096
sS'trials.thisIndex'
p452
g36
(g80
S'\x04\x00\x00\x00'
tRp453
sg26
V5
sS'trials.thisRepN'
p454
I0
sg66
Vbarn-owl
p455
sg63
V../experiment_stimuli/bw_bc_bl/Living_Things/Birds/barn-owl_17.jpg
p456
sg21
F0.25076574692502618
sS'trials.thisTrialN'
p457
I33
sa(dp458
g31
g32
sg17
F166.30492895655334
sg24
I1
sg35
g39
sg14
F166.30003504548222
sg16
g36
(g70
S'\x02\x00\x00\x00'
tRp459
sg42
g43
sg46
g47
sg15
g72
sg22
F167.9843354425393
sg64
g133
sg62
g134
sg49
g50
sS'trials.thisN'
p460
I34
sg19
I1
sg27
g36
(g38
S'\x00\x00\x00\x00\x00\x00\x1a@'
tRp461
sg52
g53
sg23
S'1'
sg18
F167.61279523326084
sg33
g34
sg51
g11
sg20
S'2'
sg65
g36
(g77
S'\x00\x00\x00\x00\x00\x00\x00\x00'
tRp462
sg44
g45
sg40
g41
sg25
F0.3409757255576551
sS'trials.thisIndex'
p463
g36
(g80
S'J\x00\x00\x00'
tRp464
sg26
V5
sS'trials.thisRepN'
p465
I0
sg66
Vseagull
p466
sg63
V../experiment_stimuli/bw_bc_bl/Living_Things/Birds/seagull_4.jpg
p467
sg21
F0.35098698455840349
sS'trials.thisTrialN'
p468
I34
sa(dp469
g31
g32
sg17
F170.0631895121187
sg24
I0
sg35
g39
sg14
F170.05821794038638
sg16
g36
(g70
S'\x01\x00\x00\x00'
tRp470
sg42
g43
sg46
g47
sg15
g72
sg22
F172.22355145961046
sg64
g270
sg62
g74
sg49
g50
sS'trials.thisN'
p471
I35
sg19
I1
sg27
g36
(g38
S'\x00\x00\x00\x00\x00\x00\x1a@'
tRp472
sg52
g53
sg23
S'3'
sg18
F171.39100327761844
sg33
g34
sg51
g11
sg20
S'1'
sg65
g36
(g77
S'\x00\x00\x00\x00\x00\x00\x00\x00'
tRp473
sg44
g45
sg40
g41
sg25
F0.3710198593325913
sS'trials.thisIndex'
p474
g36
(g80
S'\x0c\x00\x00\x00'
tRp475
sg26
V5
sS'trials.thisRepN'
p476
I0
sg66
Vcastle
p477
sg63
V../experiment_stimuli/bw_bc_bl/Nonliving_Things/Buildings/castle_12.jpg
p478
sg21
F0.81198550248518586
sS'trials.thisTrialN'
p479
I35
sa(dp480
g31
g32
sg17
F174.33247802779078
sg24
I1
sg35
g39
sg14
F174.32748845219612
sg16
g36
(g70
S'\x02\x00\x00\x00'
tRp481
sg42
g43
sg46
g47
sg15
g72
sg22
F176.69330866029486
sg64
g146
sg62
g134
sg49
g50
sS'trials.thisN'
p482
I36
sg19
I0
sg27
g36
(g38
S'\x00\x00\x00\x00\x00\x00\x18@'
tRp483
sg52
g53
sg23
S'1'
sg18
F175.64024103851989
sg33
g34
sg51
g11
sg20
S'1'
sg65
g36
(g77
S'\x00\x00\x00\x00\x00\x00\x00\x00'
tRp484
sg44
g45
sg40
g41
sg25
F0.2307168310508132
sS'trials.thisIndex'
p485
g36
(g80
S'D\x00\x00\x00'
tRp486
sg26
V5
sS'trials.thisRepN'
p487
I0
sg66
Vrhino
p488
sg63
V../experiment_stimuli/bw_bc_bl/Living_Things/Animals/rhino_23.jpg
p489
sg21
F1.0324796005152166
sS'trials.thisTrialN'
p490
I36
sa(dp491
g31
g32
sg17
F178.66191435419023
sg24
I0
sg35
g39
sg14
F178.65690585458651
sg16
g36
(g70
S'\x02\x00\x00\x00'
tRp492
sg42
g43
sg46
g47
sg15
g99
sg22
F182.83647929737344
sg64
g348
sg62
g74
sg49
g50
sS'trials.thisN'
p493
I37
sg19
I1
sg27
g36
(g38
S'\x00\x00\x00\x00\x00\x00\x1c@'
tRp494
sg52
g53
sg23
S'3'
sg18
F179.98969776276499
sg33
g34
sg51
g11
sg20
S'2'
sg65
g36
(g77
S'\x00\x00\x00\x00\x00\x00\x00\x00'
tRp495
sg44
g45
sg40
g41
sg25
F0.52135146223008633
sS'trials.thisIndex'
p496
g36
(g80
S'\x12\x00\x00\x00'
tRp497
sg26
V5
sS'trials.thisRepN'
p498
I0
sg66
Vcoking-pot
p499
sg63
V../experiment_stimuli/bw_bc_bl/Nonliving_Things/Kitchen_Uten/coking-pot_13.jpg
p500
sg21
F2.8262034491635859
sS'trials.thisTrialN'
p501
I37
sa(dp502
g31
g32
sg17
F185.09579944051802
sg24
I1
sg35
g39
sg14
F185.09089202573523
sg16
g36
(g70
S'\x02\x00\x00\x00'
tRp503
sg42
g43
sg46
g47
sg15
g72
sg22
F186.47454830771312
sg64
g158
sg62
g134
sg49
g50
sS'trials.thisN'
p504
I38
sg19
I0
sg27
g36
(g38
S'\x00\x00\x00\x00\x00\x00\x18@'
tRp505
sg52
g53
sg23
S'1'
sg18
F186.40364211238921
sg33
g34
sg51
g11
sg20
S'1'
sg65
g36
(g77
S'\x00\x00\x00\x00\x00\x00\x00\x00'
tRp506
sg44
g45
sg40
g41
sg25
F0.34096350753679872
sS'trials.thisIndex'
p507
g36
(g80
S'7\x00\x00\x00'
tRp508
sg26
V5
sS'trials.thisRepN'
p509
I0
sg66
Vnarwhal
p510
sg63
V../experiment_stimuli/bw_bc_bl/Living_Things/Marine_creatures/narwhal_20.jpg
p511
sg21
F0.050319941248744726
sS'trials.thisTrialN'
p512
I38
sa(dp513
g31
g32
sg17
F188.55330790858716
sg24
I0
sg35
g39
sg14
F188.54841276071966
sg16
g36
(g70
S'\x02\x00\x00\x00'
tRp514
sg42
g43
sg46
g47
sg15
g72
sg22
F190.84405868453905
sg64
g133
sg62
g134
sg49
g50
sS'trials.thisN'
p515
I39
sg19
I1
sg27
g36
(g38
S'\x00\x00\x00\x00\x00\x00 @'
tRp516
sg52
g53
sg23
S'3'
sg18
F189.87118131294847
sg33
g34
sg51
g11
sg20
S'2'
sg65
g36
(g77
S'\x00\x00\x00\x00\x00\x00\x00\x00'
tRp517
sg44
g45
sg40
g41
sg25
F0.61154039623215795
sS'trials.thisIndex'
p518
g36
(g80
S'U\x00\x00\x00'
tRp519
sg26
V5
sS'trials.thisRepN'
p520
I0
sg66
Vtoucan
p521
sg63
V../experiment_stimuli/bw_bc_bl/Living_Things/Birds/toucan_2.jpg
p522
sg21
F0.95231454912573099
sS'trials.thisTrialN'
p523
I39
sa(dp524
g31
g32
sg17
F193.19358016736805
sg24
I1
sg35
g39
sg14
F193.1884911688976
sg16
g36
(g70
S'\x02\x00\x00\x00'
tRp525
sg42
g43
sg46
g47
sg15
g99
sg22
F194.56211841339245
sg64
VMusical_Inst
p526
sg62
g74
sg49
g50
sS'trials.thisN'
p527
I40
sg19
I1
sg27
g36
(g38
S'\x00\x00\x00\x00\x00\x00\x18@'
tRp528
sg52
g53
sg23
S'1'
sg18
F194.49123344756663
sg33
g34
sg51
g11
sg20
S'2'
sg65
g36
(g77
S'\x00\x00\x00\x00\x00\x00\x00\x00'
tRp529
sg44
g45
sg40
g41
sg25
F0.19067787053063512
sS'trials.thisIndex'
p530
g36
(g80
S'H\x00\x00\x00'
tRp531
sg26
V5
sS'trials.thisRepN'
p532
I0
sg66
Vsaxophone
p533
sg63
V../experiment_stimuli/bw_bc_bl/Nonliving_Things/Musical_Inst/saxophone_3.jpg
p534
sg21
F0.05033720750361681
sS'trials.thisTrialN'
p535
I40
sa(dp536
g31
g32
sg17
F196.49147201143205
sg24
I1
sg35
g39
sg14
F196.48565903445706
sg16
g36
(g70
S'\x02\x00\x00\x00'
tRp537
sg42
g43
sg46
g47
sg15
g99
sg22
F198.04971254849806
sg64
g170
sg62
g74
sg49
g50
sS'trials.thisN'
p538
I41
sg19
I0
sg27
g36
(g38
S'\x00\x00\x00\x00\x00\x00\x1a@'
tRp539
sg52
g53
sg23
S'1'
sg18
F197.80844309413806
sg33
g34
sg51
g11
sg20
S'1'
sg65
g36
(g77
S'\x00\x00\x00\x00\x00\x00\x00\x00'
tRp540
sg44
g45
sg40
g41
sg25
F0.29085496580228209
sS'trials.thisIndex'
p541
g36
(g80
S'\x05\x00\x00\x00'
tRp542
sg26
V5
sS'trials.thisRepN'
p543
I0
sg66
Vbed
p544
sg63
V../experiment_stimuli/bw_bc_bl/Nonliving_Things/Furniture/bed_5.jpg
p545
sg21
F0.220699911005795
sS'trials.thisTrialN'
p546
I41
sa(dp547
g31
g32
sg17
F200.08048159303144
sg24
I0
sg35
g39
sg14
F200.07346598245203
sg16
g36
(g70
S'\x01\x00\x00\x00'
tRp548
sg42
g43
sg46
g47
sg15
g99
sg22
F202.06846200535074
sg64
g146
sg62
g134
sg49
g50
sS'trials.thisN'
p549
I42
sg19
I1
sg27
g36
(g38
S'\x00\x00\x00\x00\x00\x00\x1a@'
tRp550
sg52
g53
sg23
S'3'
sg18
F201.40626278612763
sg33
g34
sg51
g11
sg20
S'1'
sg65
g36
(g77
S'\x00\x00\x00\x00\x00\x00\x00\x00'
tRp551
sg44
g45
sg40
g41
sg25
F0.34095866931602359
sS'trials.thisIndex'
p552
g36
(g80
S'\x01\x00\x00\x00'
tRp553
sg26
V5
sS'trials.thisRepN'
p554
I0
sg66
Varmadillo
p555
sg63
V../experiment_stimuli/bw_bc_bl/Living_Things/Animals/armadillo_19.jpg
p556
sg21
F0.64163313014432788
sS'trials.thisTrialN'
p557
I42
sa(dp558
g31
g32
sg17
F204.14729649620131
sg24
I0
sg35
g39
sg14
F204.14231478935108
sg16
g36
(g70
S'\x01\x00\x00\x00'
tRp559
sg42
g43
sg46
g47
sg15
g72
sg22
F206.81876732315868
sg64
g526
sg62
g74
sg49
g50
sS'trials.thisN'
p560
I43
sg19
I0
sg27
g36
(g38
S'\x00\x00\x00\x00\x00\x00\x1a@'
tRp561
sg52
g53
sg23
S'3'
sg18
F205.44505345169455
sg33
g34
sg51
g11
sg20
S'2'
sg65
g36
(g77
S'\x00\x00\x00\x00\x00\x00\x00\x00'
tRp562
sg44
g45
sg40
g41
sg25
F1.0525085055269301
sS'trials.thisIndex'
p563
g36
(g80
S'Y\x00\x00\x00'
tRp564
sg26
V5
sS'trials.thisRepN'
p565
I0
sg66
Vtuba
p566
sg63
V../experiment_stimuli/bw_bc_bl/Nonliving_Things/Musical_Inst/tuba_9.jpg
p567
sg21
F1.3531585754826665
sS'trials.thisTrialN'
p568
I43
sa(dp569
g31
g32
sg17
F209.60900204721838
sg24
I0
sg35
g39
sg14
F209.60421147290617
sg16
g36
(g70
S'\x01\x00\x00\x00'
tRp570
sg42
g43
sg46
g47
sg15
g72
sg22
F211.34866196336225
sg64
g170
sg62
g74
sg49
g50
sS'trials.thisN'
p571
I44
sg19
I1
sg27
g36
(g38
S'\x00\x00\x00\x00\x00\x00\x1e@'
tRp572
sg52
g53
sg23
S'2'
sg18
F210.87684841221198
sg33
g34
sg51
g11
sg20
S'1'
sg65
g36
(g77
S'\x00\x00\x00\x00\x00\x00\x00\x00'
tRp573
sg44
g45
sg40
g41
sg25
F0.60152103193104267
sS'trials.thisIndex'
p574
g36
(g80
S'\x08\x00\x00\x00'
tRp575
sg26
V5
sS'trials.thisRepN'
p576
I0
sg66
Vbookcase
p577
sg63
V../experiment_stimuli/bw_bc_bl/Nonliving_Things/Furniture/bookcase_4.jpg
p578
sg21
F0.45122371474280953
sS'trials.thisTrialN'
p579
I44
sa(dp580
g31
g32
sg17
F213.68789313128218
sg24
I0
sg35
g39
sg14
F213.68304927181453
sg16
g36
(g70
S'\x01\x00\x00\x00'
tRp581
sg42
g43
sg46
g47
sg15
g99
sg22
F215.50752926664427
sg64
g404
sg62
g134
sg49
g50
sS'trials.thisN'
p582
I45
sg19
I1
sg27
g36
(g38
S'\x00\x00\x00\x00\x00\x00\x18@'
tRp583
sg52
g53
sg23
S'3'
sg18
F214.9456926737912
sg33
g34
sg51
g11
sg20
S'1'
sg65
g36
(g77
S'\x00\x00\x00\x00\x00\x00\x00\x00'
tRp584
sg44
g45
sg40
g41
sg25
F0.43117933627218008
sS'trials.thisIndex'
p585
g36
(g80
S'\n\x00\x00\x00'
tRp586
sg26
V5
sS'trials.thisRepN'
p587
I0
sg66
Vbutterfly
p588
sg63
V../experiment_stimuli/bw_bc_bl/Living_Things/Insects/butterfly_2.jpg
p589
sg21
F0.54123936919495463
sS'trials.thisTrialN'
p590
I45
sa(dp591
g31
g32
sg17
F217.67658436438069
sg24
I1
sg35
g39
sg14
F217.67171322694048
sg16
g36
(g70
S'\x02\x00\x00\x00'
tRp592
sg42
g43
sg46
g47
sg15
g72
sg22
F219.79698060220107
sg64
g146
sg62
g134
sg49
g50
sS'trials.thisN'
p593
I46
sg19
I0
sg27
g36
(g38
S'\x00\x00\x00\x00\x00\x00\x18@'
tRp594
sg52
g53
sg23
S'1'
sg18
F218.9143277881667
sg33
g34
sg51
g11
sg20
S'1'
sg65
g36
(g77
S'\x00\x00\x00\x00\x00\x00\x00\x00'
tRp595
sg44
g45
sg40
g41
sg25
F0.29092651000246406
sS'trials.thisIndex'
p596
g36
(g80
S'_\x00\x00\x00'
tRp597
sg26
V5
sS'trials.thisRepN'
p598
I0
sg66
Vzebra
p599
sg63
V../experiment_stimuli/bw_bc_bl/Living_Things/Animals/zebra_23.jpg
p600
sg21
F0.86209969082847238
sS'trials.thisTrialN'
p601
I46
sa(dp602
g31
g32
sg17
F221.82563237240538
sg24
I1
sg35
g39
sg14
F221.82073644222692
sg16
g36
(g70
S'\x01\x00\x00\x00'
tRp603
sg42
g43
sg46
g47
sg15
g99
sg22
F223.40482023684308
sg64
g158
sg62
g134
sg49
g50
sS'trials.thisN'
p604
I47
sg19
I1
sg27
g36
(g38
S'\x00\x00\x00\x00\x00\x00\x1a@'
tRp605
sg52
g53
sg23
S'1'
sg18
F223.07337342342362
sg33
g34
sg51
g11
sg20
S'1'
sg65
g36
(g77
S'\x00\x00\x00\x00\x00\x00\x00\x00'
tRp606
sg44
g45
sg40
g41
sg25
F0.22068894142284989
sS'trials.thisIndex'
p607
g36
(g80
S'\x15\x00\x00\x00'
tRp608
sg26
V5
sS'trials.thisRepN'
p609
I0
sg66
Vcrab
p610
sg63
V../experiment_stimuli/bw_bc_bl/Living_Things/Marine_creatures/crab_11.jpg
p611
sg21
F0.31089857360348105
sS'trials.thisTrialN'
p612
I47
sa(dp613
g31
g32
sg17
F225.36325675668195
sg24
I0
sg35
g39
sg14
F225.35843444243073
sg16
g36
(g70
S'\x01\x00\x00\x00'
tRp614
sg42
g43
sg46
g47
sg15
g72
sg22
F227.31331310700625
sg64
g170
sg62
g74
sg49
g50
sS'trials.thisN'
p615
I48
sg19
I1
sg27
g36
(g38
S'\x00\x00\x00\x00\x00\x00\x18@'
tRp616
sg52
g53
sg23
S'3'
sg18
F226.63110499409959
sg33
g34
sg51
g11
sg20
S'1'
sg65
g36
(g77
S'\x00\x00\x00\x00\x00\x00\x00\x00'
tRp617
sg44
g45
sg40
g41
sg25
F0.29084435338154435
sS'trials.thisIndex'
p618
g36
(g80
S'\x1d\x00\x00\x00'
tRp619
sg26
V5
sS'trials.thisRepN'
p620
I0
sg66
Vfilling-cabinet
p621
sg63
V../experiment_stimuli/bw_bc_bl/Nonliving_Things/Furniture/filling-cabinet_20.jpg
p622
sg21
F0.66165858041495085
sS'trials.thisTrialN'
p623
I48
sa(dp624
g31
g32
sg17
F229.34190394962206
sg24
I1
sg35
g39
sg14
F229.33709867624566
sg16
g36
(g70
S'\x02\x00\x00\x00'
tRp625
sg42
g43
sg46
g47
sg15
g99
sg22
F231.03140270430595
sg64
VTools
p626
sg62
g74
sg49
g50
sS'trials.thisN'
p627
I49
sg19
I1
sg27
g36
(g38
S'\x00\x00\x00\x00\x00\x00\x1a@'
tRp628
sg52
g53
sg23
S'1'
sg18
F230.58970691356808
sg33
g34
sg51
g11
sg20
S'2'
sg65
g36
(g77
S'\x00\x00\x00\x00\x00\x00\x00\x00'
tRp629
sg44
g45
sg40
g41
sg25
F0.11046891752630472
sS'trials.thisIndex'
p630
g36
(g80
S'%\x00\x00\x00'
tRp631
sg26
V5
sS'trials.thisRepN'
p632
I0
sg66
Vhammer
p633
sg63
V../experiment_stimuli/bw_bc_bl/Nonliving_Things/Tools/hammer_4.jpg
p634
sg21
F0.42113356664776802
sS'trials.thisTrialN'
p635
I49
sa(dp636
g31
g32
sg17
F232.87955491663888
sg24
I1
sg35
g39
sg14
F232.87477128207684
sg16
g36
(g70
S'\x02\x00\x00\x00'
tRp637
sg42
g43
sg46
g47
sg15
g99
sg22
F235.17041314207017
sg64
g170
sg62
g74
sg49
g50
sS'trials.thisN'
p638
I50
sg19
I0
sg27
g36
(g38
S'\x00\x00\x00\x00\x00\x00\x1a@'
tRp639
sg52
g53
sg23
S'1'
sg18
F234.13742178166285
sg33
g34
sg51
g11
sg20
S'1'
sg65
g36
(g77
S'\x00\x00\x00\x00\x00\x00\x00\x00'
tRp640
sg44
g45
sg40
g41
sg25
F0.22069376427680254
sS'trials.thisIndex'
p641
g36
(g80
S'/\x00\x00\x00'
tRp642
sg26
V5
sS'trials.thisRepN'
p643
I0
sg66
Vlectern
p644
sg63
V../experiment_stimuli/bw_bc_bl/Nonliving_Things/Furniture/lectern_14.jpg
p645
sg21
F1.0124240717850626
sS'trials.thisTrialN'
p646
I50
sa(dp647
g31
g32
sg17
F237.1288902098313
sg24
I0
sg35
g39
sg14
F237.12400895310566
sg16
g36
(g70
S'\x02\x00\x00\x00'
tRp648
sg42
g43
sg46
g47
sg15
g99
sg22
F239.09894407074898
sg64
g170
sg62
g74
sg49
g50
sS'trials.thisN'
p649
I51
sg19
I1
sg27
g36
(g38
S'\x00\x00\x00\x00\x00\x00\x18@'
tRp650
sg52
g53
sg23
S'2'
sg18
F238.39668035786599
sg33
g34
sg51
g11
sg20
S'2'
sg65
g36
(g77
S'\x00\x00\x00\x00\x00\x00\x00\x00'
tRp651
sg44
g45
sg40
g41
sg25
F1.1225161533802748
sS'trials.thisIndex'
p652
g36
(g80
S'N\x00\x00\x00'
tRp653
sg26
V5
sS'trials.thisRepN'
p654
I0
sg66
Vsofa
p655
sg63
V../experiment_stimuli/bw_bc_bl/Nonliving_Things/Furniture/sofa_18.jpg
p656
sg21
F0.68170349253341556
sS'trials.thisTrialN'
p657
I51
sa(dp658
g31
g32
sg17
F241.95925682550296
sg24
I0
sg35
g39
sg14
F241.95451479544863
sg16
g36
(g70
S'\x02\x00\x00\x00'
tRp659
sg42
g43
sg46
g47
sg15
g72
sg22
F245.00177220674232
sg64
g133
sg62
g134
sg49
g50
sS'trials.thisN'
p660
I52
sg19
I0
sg27
g36
(g38
S'\x00\x00\x00\x00\x00\x00\x1c@'
tRp661
sg52
g53
sg23
S'2'
sg18
F243.22718738066033
sg33
g34
sg51
g11
sg20
S'1'
sg65
g36
(g77
S'\x00\x00\x00\x00\x00\x00\x00\x00'
tRp662
sg44
g45
sg40
g41
sg25
F0.21068265195935965
sS'trials.thisIndex'
p663
g36
(g80
S'8\x00\x00\x00'
tRp664
sg26
V5
sS'trials.thisRepN'
p665
I0
sg66
Vostrich
p666
sg63
V../experiment_stimuli/bw_bc_bl/Living_Things/Birds/ostrich_19.jpg
p667
sg21
F1.754037503618747
sS'trials.thisTrialN'
p668
I52
sa(dp669
g31
g32
sg17
F246.95139790931717
sg24
I1
sg35
g39
sg14
F246.94536583730951
sg16
g36
(g70
S'\x01\x00\x00\x00'
tRp670
sg42
g43
sg46
g47
sg15
g99
sg22
F249.39132170239463
sg64
g146
sg62
g134
sg49
g50
sS'trials.thisN'
p671
I53
sg19
I0
sg27
g36
(g38
S'\x00\x00\x00\x00\x00\x00\x18@'
tRp672
sg52
g53
sg23
S'1'
sg18
F248.20802911138162
sg33
g34
sg51
g11
sg20
S'2'
sg65
g36
(g77
S'\x00\x00\x00\x00\x00\x00\x00\x00'
tRp673
sg44
g45
sg40
g41
sg25
F0.14052969822660089
sS'trials.thisIndex'
p674
g36
(g80
S'\r\x00\x00\x00'
tRp675
sg26
V5
sS'trials.thisRepN'
p676
I0
sg66
Vcat
p677
sg63
V../experiment_stimuli/bw_bc_bl/Living_Things/Animals/cat_8.jpg
p678
sg21
F1.1627528178505599
sS'trials.thisTrialN'
p679
I53
sa(dp680
g31
g32
sg17
F251.27082698838785
sg24
I0
sg35
g39
sg14
F251.26475480059162
sg16
g36
(g70
S'\x02\x00\x00\x00'
tRp681
sg42
g43
sg46
g47
sg15
g99
sg22
F254.50243937550113
sg64
g270
sg62
g74
sg49
g50
sS'trials.thisN'
p682
I54
sg19
I1
sg27
g36
(g38
S'\x00\x00\x00\x00\x00\x00\x1c@'
tRp683
sg52
g53
sg23
S'3'
sg18
F252.52740269899368
sg33
g34
sg51
g11
sg20
S'2'
sg65
g36
(g77
S'\x00\x00\x00\x00\x00\x00\x00\x00'
tRp684
sg44
g45
sg40
g41
sg25
F0.48128301277756691
sS'trials.thisIndex'
p685
g36
(g80
S'#\x00\x00\x00'
tRp686
sg26
V5
sS'trials.thisRepN'
p687
I0
sg66
Vgranary
p688
sg63
V../experiment_stimuli/bw_bc_bl/Nonliving_Things/Buildings/granary_4.jpg
p689
sg21
F1.9544808282516897
sS'trials.thisTrialN'
p690
I54
sa(dp691
g31
g32
sg17
F256.72147769341245
sg24
I1
sg35
g39
sg14
F256.71661108266562
sg16
g36
(g70
S'\x01\x00\x00\x00'
tRp692
sg42
g43
sg46
g47
sg15
g99
sg22
F258.28074752772227
sg64
g133
sg62
g134
sg49
g50
sS'trials.thisN'
p693
I55
sg19
I1
sg27
g36
(g38
S'\x00\x00\x00\x00\x00\x00\x18@'
tRp694
sg52
g53
sg23
S'1'
sg18
F257.95922092953697
sg33
g34
sg51
g11
sg20
S'1'
sg65
g36
(g77
S'\x00\x00\x00\x00\x00\x00\x00\x00'
tRp695
sg44
g45
sg40
g41
sg25
F2.2451031021773815
sS'trials.thisIndex'
p696
g36
(g80
S';\x00\x00\x00'
tRp697
sg26
V5
sS'trials.thisRepN'
p698
I0
sg66
Vpartridge
p699
sg63
V../experiment_stimuli/bw_bc_bl/Living_Things/Birds/partridge_19.jpg
p700
sg21
F0.30098041519522667
sS'trials.thisTrialN'
p701
I55
sa(dp702
g31
g32
sg17
F262.26343051576987
sg24
I0
sg35
g39
sg14
F262.2586659938097
sg16
g36
(g70
S'\x02\x00\x00\x00'
tRp703
sg42
g43
sg46
g47
sg15
g72
sg22
F264.50421261647716
sg64
g158
sg62
g134
sg49
g50
sS'trials.thisN'
p704
I56
sg19
I1
sg27
g36
(g38
S'\x00\x00\x00\x00\x00\x00\x1c@'
tRp705
sg52
g53
sg23
S'2'
sg18
F263.52132114395499
sg33
g34
sg51
g11
sg20
S'2'
sg65
g36
(g77
S'\x00\x00\x00\x00\x00\x00\x00\x00'
tRp706
sg44
g45
sg40
g41
sg25
F0.26078568957746029
sS'trials.thisIndex'
p707
g36
(g80
S'\x17\x00\x00\x00'
tRp708
sg26
V5
sS'trials.thisRepN'
p709
I0
sg66
Vdolphin
p710
sg63
V../experiment_stimuli/bw_bc_bl/Living_Things/Marine_creatures/dolphin_19.jpg
p711
sg21
F0.96232775552198291
sS'trials.thisTrialN'
p712
I56
sa(dp713
g31
g32
sg17
F266.50273070903495
sg24
I1
sg35
g39
sg14
F266.49787514284253
sg16
g36
(g70
S'\x02\x00\x00\x00'
tRp714
sg42
g43
sg46
g47
sg15
g99
sg22
F269.56519563496113
sg64
g270
sg62
g74
sg49
g50
sS'trials.thisN'
p715
I57
sg19
I0
sg27
g36
(g38
S'\x00\x00\x00\x00\x00\x00\x18@'
tRp716
sg52
g53
sg23
S'1'
sg18
F267.74047833913937
sg33
g34
sg51
g11
sg20
S'1'
sg65
g36
(g77
S'\x00\x00\x00\x00\x00\x00\x00\x00'
tRp717
sg44
g45
sg40
g41
sg25
F0.20065273530781269
sS'trials.thisIndex'
p718
g36
(g80
S')\x00\x00\x00'
tRp719
sg26
V5
sS'trials.thisRepN'
p720
I0
sg66
Vhouse
p721
sg63
V../experiment_stimuli/bw_bc_bl/Nonliving_Things/Buildings/house_19.jpg
p722
sg21
F1.8041476695798337
sS'trials.thisTrialN'
p723
I57
sa(dp724
g31
g32
sg17
F271.50374515075237
sg24
I1
sg35
g39
sg14
F271.49874785728753
sg16
g36
(g70
S'\x01\x00\x00\x00'
tRp725
sg42
g43
sg46
g47
sg15
g72
sg22
F273.01269146893173
sg64
g526
sg62
g74
sg49
g50
sS'trials.thisN'
p726
I58
sg19
I1
sg27
g36
(g38
S'\x00\x00\x00\x00\x00\x00\x18@'
tRp727
sg52
g53
sg23
S'1'
sg18
F272.76139444345608
sg33
g34
sg51
g11
sg20
S'1'
sg65
g36
(g77
S'\x00\x00\x00\x00\x00\x00\x00\x00'
tRp728
sg44
g45
sg40
g41
sg25
F0.270653011277318
sS'trials.thisIndex'
p729
g36
(g80
S'X\x00\x00\x00'
tRp730
sg26
V5
sS'trials.thisRepN'
p731
I0
sg66
Vtrumpet
p732
sg63
V../experiment_stimuli/bw_bc_bl/Nonliving_Things/Musical_Inst/trumpet_7.jpg
p733
sg21
F0.23073275573551655
sS'trials.thisTrialN'
p734
I58
sa(dp735
g31
g32
sg17
F275.02124751126394
sg24
I1
sg35
g39
sg14
F275.0163982915692
sg16
g36
(g70
S'\x01\x00\x00\x00'
tRp736
sg42
g43
sg46
g47
sg15
g72
sg22
F276.32992726517841
sg64
g270
sg62
g74
sg49
g50
sS'trials.thisN'
p737
I59
sg19
I1
sg27
g36
(g38
S'\x00\x00\x00\x00\x00\x00\x18@'
tRp738
sg52
g53
sg23
S'1'
sg18
F276.29908499261364
sg33
g34
sg51
g11
sg20
S'1'
sg65
g36
(g77
S'\x00\x00\x00\x00\x00\x00\x00\x00'
tRp739
sg44
g45
sg40
g41
sg25
F1.1828152146190405
sS'trials.thisIndex'
p740
g36
(g80
S'\x1c\x00\x00\x00'
tRp741
sg26
V5
sS'trials.thisRepN'
p742
I0
sg66
Vfactory
p743
sg63
V../experiment_stimuli/bw_bc_bl/Nonliving_Things/Buildings/factory_5.jpg
p744
sg21
F0.010268097743391991
sS'trials.thisTrialN'
p745
I59
sa(dp746
g31
g32
sg17
F279.25161821581423
sg24
I0
sg35
g39
sg14
F279.24559007631615
sg16
g36
(g70
S'\x02\x00\x00\x00'
tRp747
sg42
g43
sg46
g47
sg15
g99
sg22
F281.53119115857407
sg64
g526
sg62
g74
sg49
g50
sS'trials.thisN'
p748
I60
sg19
I1
sg27
g36
(g38
S'\x00\x00\x00\x00\x00\x00\x1c@'
tRp749
sg52
g53
sg23
S'3'
sg18
F280.52828000718728
sg33
g34
sg51
g11
sg20
S'2'
sg65
g36
(g77
S'\x00\x00\x00\x00\x00\x00\x00\x00'
tRp750
sg44
g45
sg40
g41
sg25
F0.31089823925867677
sS'trials.thisIndex'
p751
g36
(g80
S'\x19\x00\x00\x00'
tRp752
sg26
V5
sS'trials.thisRepN'
p753
I0
sg66
Vdrum
p754
sg63
V../experiment_stimuli/bw_bc_bl/Nonliving_Things/Musical_Inst/drum_4.jpg
p755
sg21
F0.9823615588247776
sS'trials.thisTrialN'
p756
I60
sa(dp757
g31
g32
sg17
F283.57988932589069
sg24
I1
sg35
g39
sg14
F283.57499960623682
sg16
g36
(g70
S'\x01\x00\x00\x00'
tRp758
sg42
g43
sg46
g47
sg15
g72
sg22
F285.77041303319857
sg64
g526
sg62
g74
sg49
g50
sS'trials.thisN'
p759
I61
sg19
I1
sg27
g36
(g38
S'\x00\x00\x00\x00\x00\x00\x18@'
tRp760
sg52
g53
sg23
S'1'
sg18
F284.83766233129427
sg33
g34
sg51
g11
sg20
S'1'
sg65
g36
(g77
S'\x00\x00\x00\x00\x00\x00\x00\x00'
tRp761
sg44
g45
sg40
g41
sg25
F0.2708241818472743
sS'trials.thisIndex'
p762
g36
(g80
S'\\\x00\x00\x00'
tRp763
sg26
V5
sS'trials.thisRepN'
p764
I0
sg66
Vviolin
p765
sg63
V../experiment_stimuli/bw_bc_bl/Nonliving_Things/Musical_Inst/violin_21.jpg
p766
sg21
F0.9122001314535737
sS'trials.thisTrialN'
p767
I61
sa(dp768
g31
g32
sg17
F287.78023123089224
sg24
I0
sg35
g39
sg14
F287.77413137070835
sg16
g36
(g70
S'\x01\x00\x00\x00'
tRp769
sg42
g43
sg46
g47
sg15
g72
sg22
F289.63881321437657
sg64
g170
sg62
g74
sg49
g50
sS'trials.thisN'
p770
I62
sg19
I1
sg27
g36
(g38
S'\x00\x00\x00\x00\x00\x00\x18@'
tRp771
sg52
g53
sg23
S'3'
sg18
F289.04679992236197
sg33
g34
sg51
g11
sg20
S'1'
sg65
g36
(g77
S'\x00\x00\x00\x00\x00\x00\x00\x00'
tRp772
sg44
g45
sg40
g41
sg25
F0.62159452261403203
sS'trials.thisIndex'
p773
g36
(g80
S'Q\x00\x00\x00'
tRp774
sg26
V5
sS'trials.thisRepN'
p775
I0
sg66
Vtable
p776
sg63
V../experiment_stimuli/bw_bc_bl/Nonliving_Things/Furniture/table_24.jpg
p777
sg21
F0.57146814651787281
sS'trials.thisTrialN'
p778
I62
sa(dp779
g31
g32
sg17
F291.99806026136503
sg24
I1
sg35
g39
sg14
F291.99330334411934
sg16
g36
(g70
S'\x02\x00\x00\x00'
tRp780
sg42
g43
sg46
g47
sg15
g72
sg22
F293.29678905243054
sg64
g158
sg62
g134
sg49
g50
sS'trials.thisN'
p781
I63
sg19
I1
sg27
g36
(g38
S'\x00\x00\x00\x00\x00\x00\x1a@'
tRp782
sg52
g53
sg23
S'1'
sg18
F293.2359087811783
sg33
g34
sg51
g11
sg20
S'2'
sg65
g36
(g77
S'\x00\x00\x00\x00\x00\x00\x00\x00'
tRp783
sg44
g45
sg40
g41
sg25
F0.14052439713850617
sS'trials.thisIndex'
p784
g36
(g80
S'K\x00\x00\x00'
tRp785
sg26
V5
sS'trials.thisRepN'
p786
I0
sg66
Vshark
p787
sg63
V../experiment_stimuli/bw_bc_bl/Living_Things/Marine_creatures/shark_13.jpg
p788
sg21
F0.040314930025488138
sS'trials.thisTrialN'
p789
I63
sa(dp790
g31
g32
sg17
F295.17487849714234
sg24
I0
sg35
g39
sg14
F295.17021012445912
sg16
g36
(g70
S'\x01\x00\x00\x00'
tRp791
sg42
g43
sg46
g47
sg15
g72
sg22
F298.51814436074346
sg64
g348
sg62
g74
sg49
g50
sS'trials.thisN'
p792
I64
sg19
I1
sg27
g36
(g38
S'\x00\x00\x00\x00\x00\x00\x18@'
tRp793
sg52
g53
sg23
S'3'
sg18
F296.42284570727497
sg33
g34
sg51
g11
sg20
S'1'
sg65
g36
(g77
S'\x00\x00\x00\x00\x00\x00\x00\x00'
tRp794
sg44
g45
sg40
g41
sg25
F0.20066043082624674
sS'trials.thisIndex'
p795
g36
(g80
S'\x1f\x00\x00\x00'
tRp796
sg26
V5
sS'trials.thisRepN'
p797
I0
sg66
Vfrying-pan
p798
sg63
V../experiment_stimuli/bw_bc_bl/Nonliving_Things/Kitchen_Uten/frying-pan_23.jpg
p799
sg21
F2.0747316516935825
sS'trials.thisTrialN'
p800
I64
sa(dp801
g31
g32
sg17
F300.45646620681509
sg24
I1
sg35
g39
sg14
F300.45169059094042
sg16
g36
(g70
S'\x02\x00\x00\x00'
tRp802
sg42
g43
sg46
g47
sg15
g72
sg22
F301.9054927136749
sg64
g404
sg62
g134
sg49
g50
sS'trials.thisN'
p803
I65
sg19
I0
sg27
g36
(g38
S'\x00\x00\x00\x00\x00\x00\x1a@'
tRp804
sg52
g53
sg23
S'1'
sg18
F301.68427695706487
sg33
g34
sg51
g11
sg20
S'1'
sg65
g36
(g77
S'\x00\x00\x00\x00\x00\x00\x00\x00'
tRp805
sg44
g45
sg40
g41
sg25
F0.26077888952568173
sS'trials.thisIndex'
p806
g36
(g80
S'-\x00\x00\x00'
tRp807
sg26
V5
sS'trials.thisRepN'
p808
I0
sg66
Vladybird
p809
sg63
V../experiment_stimuli/bw_bc_bl/Living_Things/Insects/ladybird_2.jpg
p810
sg21
F0.19063821295276284
sS'trials.thisTrialN'
p811
I65
sa(dp812
g31
g32
sg17
F303.90397553611547
sg24
I1
sg35
g39
sg14
F303.89919072110206
sg16
g36
(g70
S'\x02\x00\x00\x00'
tRp813
sg42
g43
sg46
g47
sg15
g72
sg22
F305.36301522655413
sg64
g133
sg62
g134
sg49
g50
sS'trials.thisN'
p814
I66
sg19
I1
sg27
g36
(g38
S'\x00\x00\x00\x00\x00\x00\x1a@'
tRp815
sg52
g53
sg23
S'1'
sg18
F305.15181303350255
sg33
g34
sg51
g11
sg20
S'2'
sg65
g36
(g77
S'\x00\x00\x00\x00\x00\x00\x00\x00'
tRp816
sg44
g45
sg40
g41
sg25
F0.1205061124637723
sS'trials.thisIndex'
p817
g36
(g80
S'"\x00\x00\x00'
tRp818
sg26
V5
sS'trials.thisRepN'
p819
I0
sg66
Vgoose
p820
sg63
V../experiment_stimuli/bw_bc_bl/Living_Things/Birds/goose_8.jpg
p821
sg21
F0.19063748046755791
sS'trials.thisTrialN'
p822
I66
sa(dp823
g31
g32
sg17
F307.22251700935885
sg24
I0
sg35
g39
sg14
F307.21640185266733
sg16
g36
(g70
S'\x02\x00\x00\x00'
tRp824
sg42
g43
sg46
g47
sg15
g72
sg22
F309.09111983841285
sg64
g133
sg62
g134
sg49
g50
sS'trials.thisN'
p825
I67
sg19
I1
sg27
g36
(g38
S'\x00\x00\x00\x00\x00\x00\x1a@'
tRp826
sg52
g53
sg23
S'2'
sg18
F308.47905670199543
sg33
g34
sg51
g11
sg20
S'2'
sg65
g36
(g77
S'\x00\x00\x00\x00\x00\x00\x00\x00'
tRp827
sg44
g45
sg40
g41
sg25
F0.3409629175439477
sS'trials.thisIndex'
p828
g36
(g80
S'9\x00\x00\x00'
tRp829
sg26
V5
sS'trials.thisRepN'
p830
I0
sg66
Vowl
p831
sg63
V../experiment_stimuli/bw_bc_bl/Living_Things/Birds/owl_0.jpg
p832
sg21
F0.59150522015988827
sS'trials.thisTrialN'
p833
I67
sa(dp834
g31
g32
sg17
F311.16965654818341
sg24
I1
sg35
g39
sg14
F311.16498708492145
sg16
g36
(g70
S'\x01\x00\x00\x00'
tRp835
sg42
g43
sg46
g47
sg15
g72
sg22
F312.68893714668229
sg64
g170
sg62
g74
sg49
g50
sS'trials.thisN'
p836
I68
sg19
I1
sg27
g36
(g38
S'\x00\x00\x00\x00\x00\x00\x1e@'
tRp837
sg52
g53
sg23
S'1'
sg18
F312.41761690471321
sg33
g34
sg51
g11
sg20
S'1'
sg65
g36
(g77
S'\x00\x00\x00\x00\x00\x00\x00\x00'
tRp838
sg44
g45
sg40
g41
sg25
F1.5135133168660104
sS'trials.thisIndex'
p839
g36
(g80
S']\x00\x00\x00'
tRp840
sg26
V5
sS'trials.thisRepN'
p841
I0
sg66
Vwardrobe
p842
sg63
V../experiment_stimuli/bw_bc_bl/Nonliving_Things/Furniture/wardrobe_19.jpg
p843
sg21
F0.25076532177627087
sS'trials.thisTrialN'
p844
I68
sa(dp845
g31
g32
sg17
F315.94143103249371
sg24
I0
sg35
g39
sg14
F315.93535835249349
sg16
g36
(g70
S'\x01\x00\x00\x00'
tRp846
sg42
g43
sg46
g47
sg15
g72
sg22
F319.23315892741084
sg64
g348
sg62
g74
sg49
g50
sS'trials.thisN'
p847
I69
sg19
I1
sg27
g36
(g38
S'\x00\x00\x00\x00\x00\x00\x1a@'
tRp848
sg52
g53
sg23
S'3'
sg18
F317.2180479071103
sg33
g34
sg51
g11
sg20
S'1'
sg65
g36
(g77
S'\x00\x00\x00\x00\x00\x00\x00\x00'
tRp849
sg44
g45
sg40
g41
sg25
F0.31089368276298046
sS'trials.thisIndex'
p850
g36
(g80
S'\x16\x00\x00\x00'
tRp851
sg26
V5
sS'trials.thisRepN'
p852
I0
sg66
Vcup
p853
sg63
V../experiment_stimuli/bw_bc_bl/Nonliving_Things/Kitchen_Uten/cup_21.jpg
p854
sg21
F1.9945629723370075
sS'trials.thisTrialN'
p855
I69
sa(dp856
g31
g32
sg17
F321.2819017181173
sg24
I1
sg35
g39
sg14
F321.27697629202157
sg16
g36
(g70
S'\x01\x00\x00\x00'
tRp857
sg42
g43
sg46
g47
sg15
g99
sg22
F322.76082768430933
sg64
g133
sg62
g134
sg49
g50
sS'trials.thisN'
p858
I70
sg19
I1
sg27
g36
(g38
S'\x00\x00\x00\x00\x00\x00\x1a@'
tRp859
sg52
g53
sg23
S'1'
sg18
F322.52959604095668
sg33
g34
sg51
g11
sg20
S'1'
sg65
g36
(g77
S'\x00\x00\x00\x00\x00\x00\x00\x00'
tRp860
sg44
g45
sg40
g41
sg25
F0.27065049624070525
sS'trials.thisIndex'
p861
g36
(g80
S'*\x00\x00\x00'
tRp862
sg26
V5
sS'trials.thisRepN'
p863
I0
sg66
Vhummingbird
p864
sg63
V../experiment_stimuli/bw_bc_bl/Living_Things/Birds/hummingbird_14.jpg
p865
sg21
F0.20067156245931983
sS'trials.thisTrialN'
p866
I70
sa(dp867
g31
g32
sg17
F324.76946324435994
sg24
I0
sg35
g39
sg14
F324.76455325074494
sg16
g36
(g70
S'\x02\x00\x00\x00'
tRp868
sg42
g43
sg46
g47
sg15
g99
sg22
F327.22052740864456
sg64
g73
sg62
g74
sg49
g50
sS'trials.thisN'
p869
I71
sg19
I1
sg27
g36
(g38
S'\x00\x00\x00\x00\x00\x00\x18@'
tRp870
sg52
g53
sg23
S'3'
sg18
F326.03722135117278
sg33
g34
sg51
g11
sg20
S'2'
sg65
g36
(g77
S'\x00\x00\x00\x00\x00\x00\x00\x00'
tRp871
sg44
g45
sg40
g41
sg25
F1.0924452114850283
sS'trials.thisIndex'
p872
g36
(g80
S'V\x00\x00\x00'
tRp873
sg26
V5
sS'trials.thisRepN'
p874
I0
sg66
Vtractor
p875
sg63
V../experiment_stimuli/bw_bc_bl/Nonliving_Things/Vehicles/tractor_4.jpg
p876
sg21
F1.1627552499994636
sS'trials.thisTrialN'
p877
I71
sa(dp878
g31
g32
sg17
F330.0508146751672
sg24
I1
sg35
g39
sg14
F330.04603577731177
sg16
g36
(g70
S'\x01\x00\x00\x00'
tRp879
sg42
g43
sg46
g47
sg15
g99
sg22
F331.30945391627029
sg64
g133
sg62
g134
sg49
g50
sS'trials.thisN'
p880
I72
sg19
I0
sg27
g36
(g38
S'\x00\x00\x00\x00\x00\x00\x18@'
tRp881
sg52
g53
sg23
S'1'
sg18
F331.28864038735628
sg33
g34
sg51
g11
sg20
S'2'
sg65
g36
(g77
S'\x00\x00\x00\x00\x00\x00\x00\x00'
tRp882
sg44
g45
sg40
g41
sg25
F0.15060982806608081
sS'trials.thisIndex'
p883
g36
(g80
S'?\x00\x00\x00'
tRp884
sg26
V5
sS'trials.thisRepN'
p885
I0
sg66
Vpigeon
p886
sg63
V../experiment_stimuli/bw_bc_bl/Living_Things/Birds/pigeon_15.jpg
p887
sg21
F0.00025607924908399582
sS'trials.thisTrialN'
p888
I72
sa(dp889
g31
g32
sg17
F333.19774270057678
sg24
I0
sg35
g39
sg14
F333.19289984833449
sg16
g36
(g70
S'\x02\x00\x00\x00'
tRp890
sg42
g43
sg46
g47
sg15
g99
sg22
F335.83929777517915
sg64
g526
sg62
g74
sg49
g50
sS'trials.thisN'
p891
I73
sg19
I1
sg27
g36
(g38
S'\x00\x00\x00\x00\x00\x00\x18@'
tRp892
sg52
g53
sg23
S'3'
sg18
F334.44550264626741
sg33
g34
sg51
g11
sg20
S'2'
sg65
g36
(g77
S'\x00\x00\x00\x00\x00\x00\x00\x00'
tRp893
sg44
g45
sg40
g41
sg25
F0.44117833208292723
sS'trials.thisIndex'
p894
g36
(g80
S'$\x00\x00\x00'
tRp895
sg26
V5
sS'trials.thisRepN'
p896
I0
sg66
Vguitar
p897
sg63
V../experiment_stimuli/bw_bc_bl/Nonliving_Things/Musical_Inst/guitar_16.jpg
p898
sg21
F1.3732331302016973
sS'trials.thisTrialN'
p899
I73
sa(dp900
g31
g32
sg17
F338.01822765637189
sg24
I1
sg35
g39
sg14
F338.01335938740522
sg16
g36
(g70
S'\x02\x00\x00\x00'
tRp901
sg42
g43
sg46
g47
sg15
g72
sg22
F339.99831961747259
sg64
g133
sg62
g134
sg49
g50
sS'trials.thisN'
p902
I74
sg19
I0
sg27
g36
(g38
S'\x00\x00\x00\x00\x00\x00\x1a@'
tRp903
sg52
g53
sg23
S'1'
sg18
F339.2559579750523
sg33
g34
sg51
g11
sg20
S'1'
sg65
g36
(g77
S'\x00\x00\x00\x00\x00\x00\x00\x00'
tRp904
sg44
g45
sg40
g41
sg25
F0.25079087447375059
sS'trials.thisIndex'
p905
g36
(g80
S'\x1a\x00\x00\x00'
tRp906
sg26
V5
sS'trials.thisRepN'
p907
I0
sg66
Vduck
p908
sg63
V../experiment_stimuli/bw_bc_bl/Living_Things/Birds/duck_17.jpg
p909
sg21
F0.72179682459682226
sS'trials.thisTrialN'
p910
I74
sa(dp911
g31
g32
sg17
F341.98673707293347
sg24
I1
sg35
g39
sg14
F341.98198249423876
sg16
g36
(g70
S'\x02\x00\x00\x00'
tRp912
sg42
g43
sg46
g47
sg15
g72
sg22
F343.32556657167152
sg64
g146
sg62
g134
sg49
g50
sS'trials.thisN'
p913
I75
sg19
I0
sg27
g36
(g38
S'\x00\x00\x00\x00\x00\x00\x1e@'
tRp914
sg52
g53
sg23
S'1'
sg18
F343.23460956616327
sg33
g34
sg51
g11
sg20
S'1'
sg65
g36
(g77
S'\x00\x00\x00\x00\x00\x00\x00\x00'
tRp915
sg44
g45
sg40
g41
sg25
F0.22069382853806019
sS'trials.thisIndex'
p916
g36
(g80
S'\x1b\x00\x00\x00'
tRp917
sg26
V5
sS'trials.thisRepN'
p918
I0
sg66
Velephant
p919
sg63
V../experiment_stimuli/bw_bc_bl/Living_Things/Animals/elephant_17.jpg
p920
sg21
F0.070384446997195482
sS'trials.thisTrialN'
p921
I75
sa(dp922
g31
g32
sg17
F345.28390107816085
sg24
I0
sg35
g39
sg14
F345.27914947690442
sg16
g36
(g70
S'\x01\x00\x00\x00'
tRp923
sg42
g43
sg46
g47
sg15
g72
sg22
F347.49461821420118
sg64
g170
sg62
g74
sg49
g50
sS'trials.thisN'
p924
I76
sg19
I1
sg27
g36
(g38
S'\x00\x00\x00\x00\x00\x00\x18@'
tRp925
sg52
g53
sg23
S'3'
sg18
F346.55182741954923
sg33
g34
sg51
g11
sg20
S'1'
sg65
g36
(g77
S'\x00\x00\x00\x00\x00\x00\x00\x00'
tRp926
sg44
g45
sg40
g41
sg25
F0.39106835797429085
sS'trials.thisIndex'
p927
g36
(g80
S'\x13\x00\x00\x00'
tRp928
sg26
V5
sS'trials.thisRepN'
p929
I0
sg66
Vcouch
p930
sg63
V../experiment_stimuli/bw_bc_bl/Nonliving_Things/Furniture/couch_25.jpg
p931
sg21
F0.92224077321588993
sS'trials.thisTrialN'
p932
I76
sa(dp933
g31
g32
sg17
F349.62328597297892
sg24
I1
sg35
g39
sg14
F349.61859726905823
sg16
g36
(g70
S'\x02\x00\x00\x00'
tRp934
sg42
g43
sg46
g47
sg15
g72
sg22
F351.18263032101095
sg64
g158
sg62
g134
sg49
g50
sS'trials.thisN'
p935
I77
sg19
I0
sg27
g36
(g38
S'\x00\x00\x00\x00\x00\x00\x1a@'
tRp936
sg52
g53
sg23
S'1'
sg18
F350.87121231853962
sg33
g34
sg51
g11
sg20
S'1'
sg65
g36
(g77
S'\x00\x00\x00\x00\x00\x00\x00\x00'
tRp937
sg44
g45
sg40
g41
sg25
F0.86209086049348116
sS'trials.thisIndex'
p938
g36
(g80
S'^\x00\x00\x00'
tRp939
sg26
V5
sS'trials.thisRepN'
p940
I0
sg66
Vwhale
p941
sg63
V../experiment_stimuli/bw_bc_bl/Living_Things/Marine_creatures/whale_13.jpg
p942
sg21
F0.29085690202191472
sS'trials.thisTrialN'
p943
I77
sa(dp944
g31
g32
sg17
F353.78241720516235
sg24
I1
sg35
g39
sg14
F353.77763416059315
sg16
g36
(g70
S'\x01\x00\x00\x00'
tRp945
sg42
g43
sg46
g47
sg15
g72
sg22
F355.42183945514262
sg64
g626
sg62
g74
sg49
g50
sS'trials.thisN'
p946
I78
sg19
I1
sg27
g36
(g38
S'\x00\x00\x00\x00\x00\x00\x18@'
tRp947
sg52
g53
sg23
S'1'
sg18
F355.06031689606607
sg33
g34
sg51
g11
sg20
S'1'
sg65
g36
(g77
S'\x00\x00\x00\x00\x00\x00\x00\x00'
tRp948
sg44
g45
sg40
g41
sg25
F0.2908753864467144
sS'trials.thisIndex'
p949
g36
(g80
S'\x03\x00\x00\x00'
tRp950
sg26
V5
sS'trials.thisRepN'
p951
I0
sg66
Vaxe
p952
sg63
V../experiment_stimuli/bw_bc_bl/Nonliving_Things/Tools/axe_14.jpg
p953
sg21
F0.34096897719427943
sS'trials.thisTrialN'
p954
I78
sa(dp955
g31
g32
sg17
F357.45191548671573
sg24
I0
sg35
g39
sg14
F357.4456035355106
sg16
g36
(g70
S'\x01\x00\x00\x00'
tRp956
sg42
g43
sg46
g47
sg15
g99
sg22
F360.08181349514052
sg64
g146
sg62
g134
sg49
g50
sS'trials.thisN'
p957
I79
sg19
I1
sg27
g36
(g38
S'\x00\x00\x00\x00\x00\x00\x18@'
tRp958
sg52
g53
sg23
S'3'
sg18
F358.75836200919002
sg33
g34
sg51
g11
sg20
S'1'
sg65
g36
(g77
S'\x00\x00\x00\x00\x00\x00\x00\x00'
tRp959
sg44
g45
sg40
g41
sg25
F0.91220978181809187
sS'trials.thisIndex'
p960
g36
(g80
S' \x00\x00\x00'
tRp961
sg26
V5
sS'trials.thisRepN'
p962
I0
sg66
Vgiraffe
p963
sg63
V../experiment_stimuli/bw_bc_bl/Living_Things/Animals/giraffe_21.jpg
p964
sg21
F1.3028962281532586
sS'trials.thisTrialN'
p965
I79
sa(dp966
g31
g32
sg17
F362.73191620735452
sg24
I0
sg35
g39
sg14
F362.72709650965407
sg16
g36
(g70
S'\x01\x00\x00\x00'
tRp967
sg42
g43
sg46
g47
sg15
g72
sg22
F366.17505883611739
sg64
g170
sg62
g74
sg49
g50
sS'trials.thisN'
p968
I80
sg19
I1
sg27
g36
(g38
S'\x00\x00\x00\x00\x00\x00\x18@'
tRp969
sg52
g53
sg23
S'3'
sg18
F364.01979677053168
sg33
g34
sg51
g11
sg20
S'1'
sg65
g36
(g77
S'\x00\x00\x00\x00\x00\x00\x00\x00'
tRp970
sg44
g45
sg40
g41
sg25
F0.47125952923670411
sS'trials.thisIndex'
p971
g36
(g80
S'.\x00\x00\x00'
tRp972
sg26
V5
sS'trials.thisRepN'
p973
I0
sg66
Vlamp
p974
sg63
V../experiment_stimuli/bw_bc_bl/Nonliving_Things/Furniture/lamp_4.jpg
p975
sg21
F2.1347045516595244
sS'trials.thisTrialN'
p976
I80
sa(dp977
g31
g32
sg17
F368.38713968219236
sg24
I1
sg35
g39
sg14
F368.37937823310494
sg16
g36
(g70
S'\x01\x00\x00\x00'
tRp978
sg42
g43
sg46
g47
sg15
g72
sg22
F370.2841747016646
sg64
g170
sg62
g74
sg49
g50
sS'trials.thisN'
p979
I81
sg19
I1
sg27
g36
(g38
S'\x00\x00\x00\x00\x00\x00 @'
tRp980
sg52
g53
sg23
S'1'
sg18
F369.65204292768613
sg33
g34
sg51
g11
sg20
S'1'
sg65
g36
(g77
S'\x00\x00\x00\x00\x00\x00\x00\x00'
tRp981
sg44
g45
sg40
g41
sg25
F0.3309396062977612
sS'trials.thisIndex'
p982
g36
(g80
S'\x0f\x00\x00\x00'
tRp983
sg26
V5
sS'trials.thisRepN'
p984
I0
sg66
Vchair
p985
sg63
V../experiment_stimuli/bw_bc_bl/Nonliving_Things/Furniture/chair_3.jpg
p986
sg21
F0.61156951589509845
sS'trials.thisTrialN'
p987
I81
sa(dp988
g31
g32
sg17
F372.35289281886071
sg24
I0
sg35
g39
sg14
F372.34803343750536
sg16
g36
(g70
S'\x01\x00\x00\x00'
tRp989
sg42
g43
sg46
g47
sg15
g99
sg22
F374.71377428155392
sg64
g133
sg62
g134
sg49
g50
sS'trials.thisN'
p990
I82
sg19
I1
sg27
g36
(g38
S'\x00\x00\x00\x00\x00\x00\x18@'
tRp991
sg52
g53
sg23
S'3'
sg18
F373.64071596553549
sg33
g34
sg51
g11
sg20
S'1'
sg65
g36
(g77
S'\x00\x00\x00\x00\x00\x00\x00\x00'
tRp992
sg44
g45
sg40
g41
sg25
F0.98235515644773841
sS'trials.thisIndex'
p993
g36
(g80
S'C\x00\x00\x00'
tRp994
sg26
V5
sS'trials.thisRepN'
p995
I0
sg66
Vraven
p996
sg63
V../experiment_stimuli/bw_bc_bl/Living_Things/Birds/raven_13.jpg
p997
sg21
F1.0525201288983226
sS'trials.thisTrialN'
p998
I82
sa(dp999
g31
g32
sg17
F377.43376979744062
sg24
I0
sg35
g39
sg14
F377.42904901131988
sg16
g36
(g70
S'\x01\x00\x00\x00'
tRp1000
sg42
g43
sg46
g47
sg15
g99
sg22
F379.10332572134212
sg64
g158
sg62
g134
sg49
g50
sS'trials.thisN'
p1001
I83
sg19
I1
sg27
g36
(g38
S'\x00\x00\x00\x00\x00\x00\x1a@'
tRp1002
sg52
g53
sg23
S'3'
sg18
F378.70172720961273
sg33
g34
sg51
g11
sg20
S'1'
sg65
g36
(g77
S'\x00\x00\x00\x00\x00\x00\x00\x00'
tRp1003
sg44
g45
sg40
g41
sg25
F0.70174440834671259
sS'trials.thisIndex'
p1004
g36
(g80
S'4\x00\x00\x00'
tRp1005
sg26
V5
sS'trials.thisRepN'
p1006
I0
sg66
Vmanatee
p1007
sg63
V../experiment_stimuli/bw_bc_bl/Living_Things/Marine_creatures/manatee_10.jpg
p1008
sg21
F0.38105786964297295
sS'trials.thisTrialN'
p1009
I83
sa(dp1010
g31
g32
sg17
F381.55277542723343
sg24
I1
sg35
g39
sg14
F381.54802594613284
sg16
g36
(g70
S'\x02\x00\x00\x00'
tRp1011
sg42
g43
sg46
g47
sg15
g72
sg22
F382.84146882081404
sg64
g146
sg62
g134
sg49
g50
sS'trials.thisN'
p1012
I84
sg19
I0
sg27
g36
(g38
S'\x00\x00\x00\x00\x00\x00\x1a@'
tRp1013
sg52
g53
sg23
S'1'
sg18
F382.7906089364551
sg33
g34
sg51
g11
sg20
S'1'
sg65
g36
(g77
S'\x00\x00\x00\x00\x00\x00\x00\x00'
tRp1014
sg44
g45
sg40
g41
sg25
F0.34097733488306403
sS'trials.thisIndex'
p1015
g36
(g80
S'\x14\x00\x00\x00'
tRp1016
sg26
V5
sS'trials.thisRepN'
p1017
I0
sg66
Vcow
p1018
sg63
V../experiment_stimuli/bw_bc_bl/Living_Things/Animals/cow_1.jpg
p1019
sg21
F0.030314862728118896
sS'trials.thisTrialN'
p1020
I84
sa(dp1021
g31
g32
sg17
F384.92019121581689
sg24
I0
sg35
g39
sg14
F384.91532770264894
sg16
g36
(g70
S'\x01\x00\x00\x00'
tRp1022
sg42
g43
sg46
g47
sg15
g99
sg22
F386.6497266413644
sg64
g133
sg62
g134
sg49
g50
sS'trials.thisN'
p1023
I85
sg19
I1
sg27
g36
(g38
S'\x00\x00\x00\x00\x00\x00\x18@'
tRp1024
sg52
g53
sg23
S'2'
sg18
F386.19801602419466
sg33
g34
sg51
g11
sg20
S'1'
sg65
g36
(g77
S'\x00\x00\x00\x00\x00\x00\x00\x00'
tRp1025
sg44
g45
sg40
g41
sg25
F1.2328971661627293
sS'trials.thisIndex'
p1026
g36
(g80
S'O\x00\x00\x00'
tRp1027
sg26
V5
sS'trials.thisRepN'
p1028
I0
sg66
Vsparrow
p1029
sg63
V../experiment_stimuli/bw_bc_bl/Living_Things/Birds/sparrow_8.jpg
p1030
sg21
F0.43116087419912219
sS'trials.thisTrialN'
p1031
I85
sa(dp1032
g31
g32
sg17
F389.6203075684607
sg24
I1
sg35
g39
sg14
F389.6155489673838
sg16
g36
(g70
S'\x01\x00\x00\x00'
tRp1033
sg42
g43
sg46
g47
sg15
g72
sg22
F390.91901966044679
sg64
g526
sg62
g74
sg49
g50
sS'trials.thisN'
p1034
I86
sg19
I1
sg27
g36
(g38
S'\x00\x00\x00\x00\x00\x00\x1a@'
tRp1035
sg52
g53
sg23
S'1'
sg18
F390.88821380445734
sg33
g34
sg51
g11
sg20
S'1'
sg65
g36
(g77
S'\x00\x00\x00\x00\x00\x00\x00\x00'
tRp1036
sg44
g45
sg40
g41
sg25
F0.36085015954449773
sS'trials.thisIndex'
p1037
g36
(g80
S'>\x00\x00\x00'
tRp1038
sg26
V5
sS'trials.thisRepN'
p1039
I0
sg66
Vpiano
p1040
sg63
V../experiment_stimuli/bw_bc_bl/Nonliving_Things/Musical_Inst/piano__2.jpg
p1041
sg21
F0.010254251305013895
sS'trials.thisTrialN'
p1042
I86
sa(dp1043
g31
g32
sg17
F393.02780092973262
sg24
I0
sg35
g39
sg14
F393.02296373201534
sg16
g36
(g70
S'\x02\x00\x00\x00'
tRp1044
sg42
g43
sg46
g47
sg15
g72
sg22
F396.76172331860289
sg64
g404
sg62
g134
sg49
g50
sS'trials.thisN'
p1045
I87
sg19
I1
sg27
g36
(g38
S'\x00\x00\x00\x00\x00\x00\x1c@'
tRp1046
sg52
g53
sg23
S'2'
sg18
F394.30564368888736
sg33
g34
sg51
g11
sg20
S'2'
sg65
g36
(g77
S'\x00\x00\x00\x00\x00\x00\x00\x00'
tRp1047
sg44
g45
sg40
g41
sg25
F1.04249167162925
sS'trials.thisIndex'
p1048
g36
(g80
S'I\x00\x00\x00'
tRp1049
sg26
V5
sS'trials.thisRepN'
p1050
I0
sg66
Vscorpion
p1051
sg63
V../experiment_stimuli/bw_bc_bl/Living_Things/Insects/scorpion_24.jpg
p1052
sg21
F2.4355174768716097
sS'trials.thisTrialN'
p1053
I87
sa(dp1054
g31
g32
sg17
F399.54200496710837
sg24
I1
sg35
g39
sg14
F399.53711506351829
sg16
g36
(g70
S'\x02\x00\x00\x00'
tRp1055
sg42
g43
sg46
g47
sg15
g72
sg22
F401.48198763094842
sg64
g146
sg62
g134
sg49
g50
sS'trials.thisN'
p1056
I88
sg19
I0
sg27
g36
(g38
S'\x00\x00\x00\x00\x00\x00\x1a@'
tRp1057
sg52
g53
sg23
S'1'
sg18
F400.80978205101565
sg33
g34
sg51
g11
sg20
S'1'
sg65
g36
(g77
S'\x00\x00\x00\x00\x00\x00\x00\x00'
tRp1058
sg44
g45
sg40
g41
sg25
F0.35098204109817743
sS'trials.thisIndex'
p1059
g36
(g80
S'T\x00\x00\x00'
tRp1060
sg26
V5
sS'trials.thisRepN'
p1061
I0
sg66
Vtiger
p1062
sg63
V../experiment_stimuli/bw_bc_bl/Living_Things/Animals/tiger_20.jpg
p1063
sg21
F0.65163805894553661
sS'trials.thisTrialN'
p1064
I88
sa(dp1065
g31
g32
sg17
F403.57073290878907
sg24
I0
sg35
g39
sg14
F403.5658728769049
sg16
g36
(g70
S'\x01\x00\x00\x00'
tRp1066
sg42
g43
sg46
g47
sg15
g99
sg22
F406.64304426917806
sg64
g158
sg62
g134
sg49
g50
sS'trials.thisN'
p1067
I89
sg19
I1
sg27
g36
(g38
S'\x00\x00\x00\x00\x00\x00\x1a@'
tRp1068
sg52
g53
sg23
S'2'
sg18
F404.85858743451536
sg33
g34
sg51
g11
sg20
S'1'
sg65
g36
(g77
S'\x00\x00\x00\x00\x00\x00\x00\x00'
tRp1069
sg44
g45
sg40
g41
sg25
F0.5111776189878583
sS'trials.thisIndex'
p1070
g36
(g80
S'1\x00\x00\x00'
tRp1071
sg26
V5
sS'trials.thisRepN'
p1072
I0
sg66
Vlobster
p1073
sg63
V../experiment_stimuli/bw_bc_bl/Living_Things/Marine_creatures/lobster_17.jpg
p1074
sg21
F1.7639061105437577
sS'trials.thisTrialN'
p1075
I89
sa(dp1076
g31
g32
sg17
F408.8939289203845
sg24
I0
sg35
g39
sg14
F408.88744348706678
sg16
g36
(g70
S'\x01\x00\x00\x00'
tRp1077
sg42
g43
sg46
g47
sg15
g99
sg22
F410.61166565818712
sg64
g146
sg62
g134
sg49
g50
sS'trials.thisN'
p1078
I90
sg19
I1
sg27
g36
(g38
S'\x00\x00\x00\x00\x00\x00\x1c@'
tRp1079
sg52
g53
sg23
S'3'
sg18
F410.16011398984119
sg33
g34
sg51
g11
sg20
S'1'
sg65
g36
(g77
S'\x00\x00\x00\x00\x00\x00\x00\x00'
tRp1080
sg44
g45
sg40
g41
sg25
F0.41111266147345304
sS'trials.thisIndex'
p1081
g36
(g80
S'2\x00\x00\x00'
tRp1082
sg26
V5
sS'trials.thisRepN'
p1083
I0
sg66
Vlynx
p1084
sg63
V../experiment_stimuli/bw_bc_bl/Living_Things/Animals/lynx_2.jpg
p1085
sg21
F0.43100170698016882
sS'trials.thisTrialN'
p1086
I90
sa(dp1087
g31
g32
sg17
F412.76056296564639
sg24
I1
sg35
g39
sg14
F412.75585301406682
sg16
g36
(g70
S'\x02\x00\x00\x00'
tRp1088
sg42
g43
sg46
g47
sg15
g99
sg22
F414.33996048895642
sg64
g348
sg62
g74
sg49
g50
sS'trials.thisN'
p1089
I91
sg19
I0
sg27
g36
(g38
S'\x00\x00\x00\x00\x00\x00\x18@'
tRp1090
sg52
g53
sg23
S'1'
sg18
F413.9984583533369
sg33
g34
sg51
g11
sg20
S'1'
sg65
g36
(g77
S'\x00\x00\x00\x00\x00\x00\x00\x00'
tRp1091
sg44
g45
sg40
g41
sg25
F0.28082917723804712
sS'trials.thisIndex'
p1092
g36
(g80
S'\x1e\x00\x00\x00'
tRp1093
sg26
V5
sS'trials.thisRepN'
p1094
I0
sg66
Vfondue
p1095
sg63
V../experiment_stimuli/bw_bc_bl/Nonliving_Things/Kitchen_Uten/fondue_4.jpg
p1096
sg21
F0.32094139978289604
sS'trials.thisTrialN'
p1097
I91
sa(dp1098
g31
g32
sg17
F416.35847440455109
sg24
I0
sg35
g39
sg14
F416.35367446532473
sg16
g36
(g70
S'\x02\x00\x00\x00'
tRp1099
sg42
g43
sg46
g47
sg15
g72
sg22
F418.75954107753932
sg64
g146
sg62
g134
sg49
g50
sS'trials.thisN'
p1100
I92
sg19
I1
sg27
g36
(g38
S'\x00\x00\x00\x00\x00\x00\x18@'
tRp1101
sg52
g53
sg23
S'3'
sg18
F417.62635891884565
sg33
g34
sg51
g11
sg20
S'2'
sg65
g36
(g77
S'\x00\x00\x00\x00\x00\x00\x00\x00'
tRp1102
sg44
g45
sg40
g41
sg25
F1.0725590717047453
sS'trials.thisIndex'
p1103
g36
(g80
S'R\x00\x00\x00'
tRp1104
sg26
V5
sS'trials.thisRepN'
p1105
I0
sg66
Vtapir
p1106
sg63
V../experiment_stimuli/bw_bc_bl/Living_Things/Animals/tapir_1.jpg
p1107
sg21
F1.1126491329632699
sS'trials.thisTrialN'
p1108
I92
sa(dp1109
g31
g32
sg17
F421.58471805276349
sg24
I1
sg35
g39
sg14
F421.57504928903654
sg16
g36
(g70
S'\x02\x00\x00\x00'
tRp1110
sg42
g43
sg46
g47
sg15
g99
sg22
F423.16914301132783
sg64
g348
sg62
g74
sg49
g50
sS'trials.thisN'
p1111
I93
sg19
I1
sg27
g36
(g38
S'\x00\x00\x00\x00\x00\x00\x18@'
tRp1112
sg52
g53
sg23
S'1'
sg18
F422.81763427890837
sg33
g34
sg51
g11
sg20
S'2'
sg65
g36
(g77
S'\x00\x00\x00\x00\x00\x00\x00\x00'
tRp1113
sg44
g45
sg40
g41
sg25
F0.28082778258249164
sS'trials.thisIndex'
p1114
g36
(g80
S'B\x00\x00\x00'
tRp1115
sg26
V5
sS'trials.thisRepN'
p1116
I0
sg66
Vpot
p1117
sg63
V../experiment_stimuli/bw_bc_bl/Nonliving_Things/Kitchen_Uten/pot_21.jpg
p1118
sg21
F0.33093912526965141
sS'trials.thisTrialN'
p1119
I93
sa(dp1120
g31
g32
sg17
F425.18774536950514
sg24
I1
sg35
g39
sg14
F425.18287155171856
sg16
g36
(g70
S'\x02\x00\x00\x00'
tRp1121
sg42
g43
sg46
g47
sg15
g99
sg22
F427.32819525199011
sg64
g270
sg62
g74
sg49
g50
sS'trials.thisN'
p1122
I94
sg19
I0
sg27
g36
(g38
S'\x00\x00\x00\x00\x00\x00\x1a@'
tRp1123
sg52
g53
sg23
S'1'
sg18
F426.43550484534353
sg33
g34
sg51
g11
sg20
S'1'
sg65
g36
(g77
S'\x00\x00\x00\x00\x00\x00\x00\x00'
tRp1124
sg44
g45
sg40
g41
sg25
F0.3710241224616766
sS'trials.thisIndex'
p1125
g36
(g80
S':\x00\x00\x00'
tRp1126
sg26
V5
sS'trials.thisRepN'
p1127
I0
sg66
Vpalace
p1128
sg63
V../experiment_stimuli/bw_bc_bl/Nonliving_Things/Buildings/palace_13.jpg
p1129
sg21
F0.87212428823113441
sS'trials.thisTrialN'
p1130
I94
sa(dp1131
g31
g32
sg17
F429.45693608885631
sg24
I0
sg35
g39
sg14
F429.45217400277033
sg16
g36
(g70
S'\x02\x00\x00\x00'
tRp1132
sg42
g43
sg46
g47
sg15
g99
sg22
F431.18657831754535
sg64
g73
sg62
g74
sg49
g50
sS'trials.thisN'
p1133
I95
sg19
I1
sg27
g36
(g38
S'\x00\x00\x00\x00\x00\x00\x1e@'
tRp1134
sg52
g53
sg23
S'3'
sg18
F430.7348461067304
sg33
g34
sg51
g11
sg20
S'2'
sg65
g36
(g77
S'\x00\x00\x00\x00\x00\x00\x00\x00'
tRp1135
sg44
g45
sg40
g41
sg25
F2.3553390721790493
sS'trials.thisIndex'
p1136
g36
(g80
S'\t\x00\x00\x00'
tRp1137
sg26
V5
sS'trials.thisRepN'
p1138
I0
sg66
Vbus
p1139
sg63
V../experiment_stimuli/bw_bc_bl/Nonliving_Things/Vehicles/bus_13.jpg
p1140
sg21
F0.43116334779188037
sS'trials.thisTrialN'
p1141
I95
sasS'loops'
p1142
(lp1143
g1
(cpsychopy.data
TrialHandler
p1144
g3
NtRp1145
(dp1146
S'origin'
p1147
NsS'thisTrial'
p1148
(lp1149
sS'_exp'
p1150
I97292560
sg10
S'trials'
p1151
sg6
I-1
sS'thisRepN'
p1152
I1
sg28
I01
sg29
g30
sS'data'
p1153
g1
(cpsychopy.data
DataHandler
p1154
c__builtin__
dict
p1155
(dp1156
g20
cnumpy.core.multiarray
_reconstruct
p1157
(cnumpy
ndarray
p1158
(I0
tS'b'
tRp1159
(I1
(I96
I1
tg37
(S'O4'
I0
I1
tRp1160
(I3
S'|'
NNNI-1
I-1
I63
tbI00
(lp1161
S'1'
aS'1'
aS'1'
aS'1'
aS'1'
aS'1'
aS'2'
aS'2'
aS'1'
aS'2'
aS'1'
aS'2'
aS'1'
aS'2'
aS'2'
aS'1'
aS'1'
aS'1'
aS'2'
aS'1'
aS'1'
aS'1'
aS'1'
aS'2'
aS'1'
aS'2'
aS'1'
aS'1'
aS'1'
aS'1'
aS'1'
aS'1'
aS'1'
aS'2'
aS'2'
aS'2'
aS'2'
aS'2'
aS'1'
aS'1'
aS'1'
aS'1'
aS'1'
aS'1'
aS'1'
aS'1'
aS'1'
aS'1'
aS'1'
aS'1'
aS'1'
aS'1'
aS'1'
aS'1'
aS'1'
aS'1'
aS'1'
aS'2'
aS'1'
aS'1'
aS'1'
aS'1'
aS'1'
aS'2'
aS'1'
aS'1'
aS'2'
aS'1'
aS'1'
aS'2'
aS'2'
aS'1'
aS'2'
aS'2'
aS'2'
aS'2'
aS'1'
aS'1'
aS'2'
aS'1'
aS'1'
aS'1'
aS'2'
aS'1'
aS'1'
aS'2'
aS'2'
aS'1'
aS'1'
aS'2'
aS'1'
aS'1'
aS'1'
aS'1'
aS'1'
aS'1'
atbsg17
cnumpy.ma.core
_mareconstruct
p1162
(cnumpy.ma.core
MaskedArray
p1163
g1158
(I0
tp1164
S'b'
tRp1165
(I1
(I96
I1
tg37
(S'f4'
I0
I1
tRp1166
(I3
S'<'
NNNI-1
I-1
I0
tbI00
S'\xbeDOB\x9a\x14HC\xf7\xcb\x97B&\xe4\xb0Cm\xc4"C\xd1}DC\xc2g4Bk\xb4\xa4A\xe8\x9bQC}\xba\xd6C\x1a\xb0UC\xc9\xdcqA-\x10*C\x8f\xf3vC\xf0\xd9\x16C\x8e1\xb8Cx\xd5\tB\xfa\xcb\xc5Bs\xa92CW\xa4\xacC\xc1\xc6\xbeC]\xd3]C\x81\xf8\x9dC\xb8!\x83Cv\xcd\x12C5\xa0\x8bCU\x02\xa9CM\xfe\xaaC\xb8\x82\x89C\xfe\\aCZa\xceCb\x96\x93C\xd8\xb9\xb2C1\xcd\x90B\xb5\xf3\x97CUE{CP\x99\xa6C\x87WeC5oAB\xf23\xb6B{p\xe2BY@\x85C\x15\xa4\xa0CD\x02mB0\x8b\x88Bm:\x96C\xaf]\xb5C+\xe1hC\x9bP\xfbB\x0e\xc9\xc9Clr\xccC\xc2\xe1\xbeB\x86\xb7\xbcC\xf3z\xaaB\x1d\xf9\xc3A\x86\x189C\x92\xf5qC{\x9c\x99C\x08\x98\xd4CY\\\x80C\xc4\xa6\x1aC\x0f\xd3\xebAf\xcf\xc2C\x81\x06\xa5CpK\xf9@\xc7\xb2\xa1B\xd8\xca\xd2C,-\xbaC\x1dU.C \xad\x01C\x1a\xac\rC>\xfb\xebB\x8e1AC\x8f\x83\xc4C\x10N&C\xc0\xff\x91C\xcc\x9a}BU\xe2\tC\xff mC\xc9u\xc0Cc\xd8!B\xdf\xe3\x8fC\xe2-\xd0C\xd8S\x1eC`\xc5\xc7C\xa6\x8d<C~b\xa2C\x1eNo@{\xc0\x87C\xb5%LCn\xc0\xd5B\xf9\xe4\xcdB:\xca\x8dC\xb7\x95\x9bC\xc8\xcf\xaeC5\xadYC'
S'\x00\x00\x00\x00\x00\x00\x00\x00\x00\x00\x00\x00\x00\x00\x00\x00\x00\x00\x00\x00\x00\x00\x00\x00\x00\x00\x00\x00\x00\x00\x00\x00\x00\x00\x00\x00\x00\x00\x00\x00\x00\x00\x00\x00\x00\x00\x00\x00\x00\x00\x00\x00\x00\x00\x00\x00\x00\x00\x00\x00\x00\x00\x00\x00\x00\x00\x00\x00\x00\x00\x00\x00\x00\x00\x00\x00\x00\x00\x00\x00\x00\x00\x00\x00\x00\x00\x00\x00\x00\x00\x00\x00\x00\x00\x00\x00'
NtbsS'ran'
p1167
g1162
(g1163
g1158
g1164
S'b'
tRp1168
(I1
(I96
I1
tg1166
I00
S'\x00\x00\x80?\x00\x00\x80?\x00\x00\x80?\x00\x00\x80?\x00\x00\x80?\x00\x00\x80?\x00\x00\x80?\x00\x00\x80?\x00\x00\x80?\x00\x00\x80?\x00\x00\x80?\x00\x00\x80?\x00\x00\x80?\x00\x00\x80?\x00\x00\x80?\x00\x00\x80?\x00\x00\x80?\x00\x00\x80?\x00\x00\x80?\x00\x00\x80?\x00\x00\x80?\x00\x00\x80?\x00\x00\x80?\x00\x00\x80?\x00\x00\x80?\x00\x00\x80?\x00\x00\x80?\x00\x00\x80?\x00\x00\x80?\x00\x00\x80?\x00\x00\x80?\x00\x00\x80?\x00\x00\x80?\x00\x00\x80?\x00\x00\x80?\x00\x00\x80?\x00\x00\x80?\x00\x00\x80?\x00\x00\x80?\x00\x00\x80?\x00\x00\x80?\x00\x00\x80?\x00\x00\x80?\x00\x00\x80?\x00\x00\x80?\x00\x00\x80?\x00\x00\x80?\x00\x00\x80?\x00\x00\x80?\x00\x00\x80?\x00\x00\x80?\x00\x00\x80?\x00\x00\x80?\x00\x00\x80?\x00\x00\x80?\x00\x00\x80?\x00\x00\x80?\x00\x00\x80?\x00\x00\x80?\x00\x00\x80?\x00\x00\x80?\x00\x00\x80?\x00\x00\x80?\x00\x00\x80?\x00\x00\x80?\x00\x00\x80?\x00\x00\x80?\x00\x00\x80?\x00\x00\x80?\x00\x00\x80?\x00\x00\x80?\x00\x00\x80?\x00\x00\x80?\x00\x00\x80?\x00\x00\x80?\x00\x00\x80?\x00\x00\x80?\x00\x00\x80?\x00\x00\x80?\x00\x00\x80?\x00\x00\x80?\x00\x00\x80?\x00\x00\x80?\x00\x00\x80?\x00\x00\x80?\x00\x00\x80?\x00\x00\x80?\x00\x00\x80?\x00\x00\x80?\x00\x00\x80?\x00\x00\x80?\x00\x00\x80?\x00\x00\x80?\x00\x00\x80?\x00\x00\x80?\x00\x00\x80?'
S'\x00\x00\x00\x00\x00\x00\x00\x00\x00\x00\x00\x00\x00\x00\x00\x00\x00\x00\x00\x00\x00\x00\x00\x00\x00\x00\x00\x00\x00\x00\x00\x00\x00\x00\x00\x00\x00\x00\x00\x00\x00\x00\x00\x00\x00\x00\x00\x00\x00\x00\x00\x00\x00\x00\x00\x00\x00\x00\x00\x00\x00\x00\x00\x00\x00\x00\x00\x00\x00\x00\x00\x00\x00\x00\x00\x00\x00\x00\x00\x00\x00\x00\x00\x00\x00\x00\x00\x00\x00\x00\x00\x00\x00\x00\x00\x00'
Ntbsg24
g1162
(g1163
g1158
g1164
S'b'
tRp1169
(I1
(I96
I1
tg1166
I00
S'\x00\x00\x00\x00\x00\x00\x00\x00\x00\x00\x00\x00\x00\x00\x80?\x00\x00\x80?\x00\x00\x80?\x00\x00\x80?\x00\x00\x00\x00\x00\x00\x00\x00\x00\x00\x00\x00\x00\x00\x00\x00\x00\x00\x00\x00\x00\x00\x00\x00\x00\x00\x80?\x00\x00\x80?\x00\x00\x80?\x00\x00\x80?\x00\x00\x00\x00\x00\x00\x00\x00\x00\x00\x00\x00\x00\x00\x80?\x00\x00\x80?\x00\x00\x00\x00\x00\x00\x00\x00\x00\x00\x00\x00\x00\x00\x00\x00\x00\x00\x80?\x00\x00\x80?\x00\x00\x80?\x00\x00\x00\x00\x00\x00\x80?\x00\x00\x00\x00\x00\x00\x00\x00\x00\x00\x80?\x00\x00\x80?\x00\x00\x00\x00\x00\x00\x00\x00\x00\x00\x80?\x00\x00\x80?\x00\x00\x80?\x00\x00\x00\x00\x00\x00\x80?\x00\x00\x80?\x00\x00\x80?\x00\x00\x80?\x00\x00\x80?\x00\x00\x00\x00\x00\x00\x80?\x00\x00\x80?\x00\x00\x00\x00\x00\x00\x00\x00\x00\x00\x80?\x00\x00\x00\x00\x00\x00\x00\x00\x00\x00\x00\x00\x00\x00\x80?\x00\x00\x00\x00\x00\x00\x00\x00\x00\x00\x80?\x00\x00\x80?\x00\x00\x80?\x00\x00\x80?\x00\x00\x80?\x00\x00\x80?\x00\x00\x80?\x00\x00\x80?\x00\x00\x80?\x00\x00\x00\x00\x00\x00\x80?\x00\x00\x00\x00\x00\x00\x00\x00\x00\x00\x00\x00\x00\x00\x80?\x00\x00\x00\x00\x00\x00\x80?\x00\x00\x80?\x00\x00\x00\x00\x00\x00\x80?\x00\x00\x00\x00\x00\x00\x00\x00\x00\x00\x00\x00\x00\x00\x00\x00\x00\x00\x00\x00\x00\x00\x00\x00\x00\x00\x80?\x00\x00\x00\x00\x00\x00\x00\x00\x00\x00\x80?\x00\x00\x80?\x00\x00\x00\x00\x00\x00\x00\x00\x00\x00\x00\x00\x00\x00\x80?\x00\x00\x80?\x00\x00\x80?\x00\x00\x80?'
S'\x00\x00\x00\x00\x00\x00\x00\x00\x00\x00\x00\x00\x00\x00\x00\x00\x00\x00\x00\x00\x00\x00\x00\x00\x00\x00\x00\x00\x00\x00\x00\x00\x00\x00\x00\x00\x00\x00\x00\x00\x00\x00\x00\x00\x00\x00\x00\x00\x00\x00\x00\x00\x00\x00\x00\x00\x00\x00\x00\x00\x00\x00\x00\x00\x00\x00\x00\x00\x00\x00\x00\x00\x00\x00\x00\x00\x00\x00\x00\x00\x00\x00\x00\x00\x00\x00\x00\x00\x00\x00\x00\x00\x00\x00\x00\x00'
Ntbsg14
g1162
(g1163
g1158
g1164
S'b'
tRp1170
(I1
(I96
I1
tg1166
I00
S'\x9c>OB\xcf\x12HCx\xc9\x97B\x8a\xe3\xb0C)\xc3"CT|DC\xdcb4B\x85\xaa\xa4A\xae\x9aQC\xe1\xb9\xd6C\xdc\xaeUC<\xc8qA\xe7\x0e*C\x03\xf2vC\xb0\xd8\x16C\x8f0\xb8CL\xd0\tBx\xc9\xc5B+\xa82C\xbb\xa3\xacC&\xc6\xbeC\x1c\xd2]C\xba\xf7\x9dC\x1c!\x83C2\xcc\x12Co\x9f\x8bC\xb6\x01\xa9C\xb2\xfd\xaaC\x19\x82\x89C\xc2[aC\xc0`\xceC\xc9\x95\x93C\n\xb9\xb2C\xb1\xca\x90B\x19\xf3\x97C\xc7C{C\xb1\x98\xa6CLVeC\x1fjABn1\xb6B\xe3m\xe2B\xba?\x85Ct\xa3\xa0C>\xfdlB\xa9\x88\x88B\xd19\x96C\x11]\xb5C\xf1\xdfhC\xa7M\xfbBo\xc8\xc9C\x98q\xccC:\xdf\xbeB\xeb\xb6\xbcC\xb5w\xaaB\x1f\xef\xc3AE\x179C[\xf4qC\xb3\x9b\x99Ch\x97\xd4C\xba[\x80C\x0b\xa5\x1aC\xdc\xc7\xebA\xca\xce\xc2C\xe5\x05\xa5C`"\xf9@D\xb0\xa1B\x9b\xc9\xd2C\x8c,\xbaC\xd6S.C\x9f\xab\x01C\x9f\xaa\rCQ\xf8\xebBA0AC\xf0\x82\xc4C\xcfL&C%\xff\x91C\xd6\x95}B\xd5\xe0\tC\xbf\x1fmC)u\xc0Ck\xd3!B\x17\xe3\x8fCE-\xd0C\x9dR\x1eC\xc0\xc4\xc7Ce\x8c<C\xdda\xa2C\xdb\xdcm@\xd7\xbf\x87Co$LC\xde\xbd\xd5Bu\xe2\xcdB\x9a\xc9\x8dC\x1e\x95\x9bC.\xcf\xaeC\xf5\xabYC'
S'\x00\x00\x00\x00\x00\x00\x00\x00\x00\x00\x00\x00\x00\x00\x00\x00\x00\x00\x00\x00\x00\x00\x00\x00\x00\x00\x00\x00\x00\x00\x00\x00\x00\x00\x00\x00\x00\x00\x00\x00\x00\x00\x00\x00\x00\x00\x00\x00\x00\x00\x00\x00\x00\x00\x00\x00\x00\x00\x00\x00\x00\x00\x00\x00\x00\x00\x00\x00\x00\x00\x00\x00\x00\x00\x00\x00\x00\x00\x00\x00\x00\x00\x00\x00\x00\x00\x00\x00\x00\x00\x00\x00\x00\x00\x00\x00'
Ntbsg16
g1157
(g1158
(I0
tS'b'
tRp1171
(I1
(I96
I1
tg1160
I00
(lp1172
g192
ag548
ag247
ag945
ag448
ag537
ag169
ag110
ag570
ag1132
ag581
ag98
ag470
ag670
ag415
ag978
ag145
ag303
ag492
ag923
ag1011
ag603
ag846
ag703
ag403
ag747
ag901
ag912
ag736
ag614
ag1088
ag791
ag956
ag236
ag813
ag681
ag890
ag625
ag181
ag281
ag336
ag714
ag857
ag203
ag225
ag802
ag967
ag637
ag359
ag1066
ag1077
ag292
ag1000
ag269
ag121
ag503
ag659
ag824
ag1121
ag692
ag426
ag132
ag1033
ag879
ag87
ag258
ag1110
ag989
ag481
ag370
ag392
ag347
ag525
ag1044
ag459
ag780
ag214
ag381
ag648
ag1022
ag157
ag769
ag1099
ag437
ag1055
ag514
ag868
ag71
ag725
ag559
ag325
ag314
ag758
ag835
ag934
ag592
atbsg15
g1157
(g1158
(I0
tS'b'
tRp1173
(I1
(I96
I1
tg1160
I00
(lp1174
g72
ag99
ag72
ag72
ag99
ag99
ag99
ag99
ag72
ag99
ag99
ag99
ag72
ag99
ag99
ag72
ag72
ag72
ag99
ag72
ag72
ag99
ag72
ag72
ag99
ag99
ag72
ag72
ag72
ag72
ag99
ag72
ag99
ag99
ag72
ag99
ag99
ag99
ag99
ag72
ag99
ag99
ag99
ag72
ag72
ag72
ag72
ag99
ag99
ag99
ag99
ag99
ag99
ag72
ag72
ag72
ag72
ag72
ag99
ag99
ag72
ag72
ag72
ag99
ag72
ag72
ag99
ag99
ag72
ag99
ag72
ag72
ag99
ag72
ag72
ag72
ag72
ag99
ag99
ag99
ag99
ag72
ag72
ag72
ag72
ag72
ag99
ag72
ag72
ag72
ag99
ag72
ag72
ag72
ag72
ag72
atbsg22
g1162
(g1163
g1158
g1164
S'b'
tRp1175
(I1
(I96
I1
tg1166
I00
S'\x0b,dB\x87\x11JCP\x85\x9dB\xff\xb5\xb1C\xfdP$C\xba\x0cFC/\xd79B,w\xb4ABYSC\xe2\x97\xd7C\xed\x81WCN[\x95A;9,C.dyCZ\xae\x18C`$\xb9CY\xd4\x0fB\xedy\xc9B$\xd66CP\xbf\xadC\xb5k\xbfC\xa2g_C\xd8\x9d\x9fC\x8a@\x84C\xc7\xc5\x14C\xfe\xc3\x8cC\xc9\xff\xa9C\xac\xa9\xabC;*\x8aC5PcC\x84+\xcfCSB\x95Cy\n\xb4C\xc0\xf5\x93Bw\xae\x98C\xa0\x80~Cn\xeb\xa7C\n\x08gC\x19EGBK\xb4\xbaB\x1e\xc3\xe7BX\xc8\x86Cca\xa1CxTuBH\xb4\x8cB\xe7\xf3\x96Ch\x16\xb7C\xa0+kCQ,\xffBOR\xcbCKN\xcdC\xa5\xa3\xc1B:\x8d\xbdC\xfe\xe1\xb0B>\x11\xdaA|y:Ct\x00uC\xaa\x8b\x9aC\x02\xaa\xd5C\xf0#\x81C\ra\x1cC\xf4\xcb\x00B\xa2u\xc3C\x9c\xa7\xa5C14\x1bA\xb9u\xa6B\xa6\x95\xd3C][\xbbC}\xb10C1\xd8\x07C\xc9\x1c\x10Cx\xcb\xf6B\xe7\x8fBC\x80a\xc6C\xfd\xfb\'C\xfd\xa5\x92C\x12D\x84B\x10\xb9\x0bCT\x19oC*S\xc1C\xec4*B\xc5\xd1\x90C9a\xd1C\xdc\xa0 C\xb2\xbd\xc8C\x14\xd8>C:\x9c\xa3C\xb3\xd5\xbd@\xa0\x81\x88C\x9b\xd1NC"\x19\xdcB$t\xd1B\x9d\xe2\x8eC/X\x9cC`\x97\xafC\x07\xcc[C'
S'\x00\x00\x00\x00\x00\x00\x00\x00\x00\x00\x00\x00\x00\x00\x00\x00\x00\x00\x00\x00\x00\x00\x00\x00\x00\x00\x00\x00\x00\x00\x00\x00\x00\x00\x00\x00\x00\x00\x00\x00\x00\x00\x00\x00\x00\x00\x00\x00\x00\x00\x00\x00\x00\x00\x00\x00\x00\x00\x00\x00\x00\x00\x00\x00\x00\x00\x00\x00\x00\x00\x00\x00\x00\x00\x00\x00\x00\x00\x00\x00\x00\x00\x00\x00\x00\x00\x00\x00\x00\x00\x00\x00\x00\x00\x00\x00'
Ntbsg26
g1157
(g1158
(I0
tS'b'
tRp1176
(I1
(I96
I1
tg1160
I00
(lp1177
g36
(g80
S'\x07\x00\x00\x00'
tRp1178
ag36
(g80
S'\x0b\x00\x00\x00'
tRp1179
ag36
(g80
S'\t\x00\x00\x00'
tRp1180
ag36
(g80
S'\x06\x00\x00\x00'
tRp1181
ag36
(g80
S'\x06\x00\x00\x00'
tRp1182
ag36
(g80
S'\n\x00\x00\x00'
tRp1183
ag36
(g80
S'\x04\x00\x00\x00'
tRp1184
ag36
(g80
S'\x06\x00\x00\x00'
tRp1185
ag36
(g80
S'\x05\x00\x00\x00'
tRp1186
ag36
(g80
S'\x06\x00\x00\x00'
tRp1187
ag36
(g80
S'\x04\x00\x00\x00'
tRp1188
ag36
(g80
S'\x08\x00\x00\x00'
tRp1189
ag36
(g80
S'\x0b\x00\x00\x00'
tRp1190
ag36
(g80
S'\x03\x00\x00\x00'
tRp1191
ag36
(g80
S'\x01\x00\x00\x00'
tRp1192
ag36
(g80
S'\x04\x00\x00\x00'
tRp1193
ag36
(g80
S'\x04\x00\x00\x00'
tRp1194
ag36
(g80
S'\r\x00\x00\x00'
tRp1195
ag36
(g80
S'\x0b\x00\x00\x00'
tRp1196
ag36
(g80
S'\x05\x00\x00\x00'
tRp1197
ag36
(g80
S'\x02\x00\x00\x00'
tRp1198
ag36
(g80
S'\x03\x00\x00\x00'
tRp1199
ag36
(g80
S'\x05\x00\x00\x00'
tRp1200
ag36
(g80
S'\x03\x00\x00\x00'
tRp1201
ag36
(g80
S'\x03\x00\x00\x00'
tRp1202
ag36
(g80
S'\x06\x00\x00\x00'
tRp1203
aI1
ag36
(g80
S'\x02\x00\x00\x00'
tRp1204
ag36
(g80
S'\x05\x00\x00\x00'
tRp1205
ag36
(g80
S'\x05\x00\x00\x00'
tRp1206
ag36
(g80
S'\x02\x00\x00\x00'
tRp1207
ag36
(g80
S'\x03\x00\x00\x00'
tRp1208
ag36
(g80
S'\t\x00\x00\x00'
tRp1209
ag36
(g80
S'\x07\x00\x00\x00'
tRp1210
ag36
(g80
S'\x03\x00\x00\x00'
tRp1211
ag36
(g80
S'\x04\x00\x00\x00'
tRp1212
ag36
(g80
S'\x03\x00\x00\x00'
tRp1213
ag36
(g80
S'\x03\x00\x00\x00'
tRp1214
ag36
(g80
S'\x06\x00\x00\x00'
tRp1215
ag36
(g80
S'\x07\x00\x00\x00'
tRp1216
ag36
(g80
S'\x07\x00\x00\x00'
tRp1217
ag36
(g80
S'\x02\x00\x00\x00'
tRp1218
ag36
(g80
S'\x03\x00\x00\x00'
tRp1219
ag36
(g80
S'\x05\x00\x00\x00'
tRp1220
ag36
(g80
S'\x04\x00\x00\x00'
tRp1221
ag36
(g80
S'\x01\x00\x00\x00'
tRp1222
ag36
(g80
S'\x07\x00\x00\x00'
tRp1223
ag36
(g80
S'\x04\x00\x00\x00'
tRp1224
ag36
(g80
S'\x04\x00\x00\x00'
tRp1225
ag36
(g80
S'\x06\x00\x00\x00'
tRp1226
ag36
(g80
S'\x05\x00\x00\x00'
tRp1227
ag36
(g80
S'\n\x00\x00\x00'
tRp1228
ag36
(g80
S'\x05\x00\x00\x00'
tRp1229
ag36
(g80
S'\x08\x00\x00\x00'
tRp1230
ag36
(g80
S'\x05\x00\x00\x00'
tRp1231
ag36
(g80
S'\t\x00\x00\x00'
tRp1232
ag36
(g80
S'\x04\x00\x00\x00'
tRp1233
ag36
(g80
S'\x04\x00\x00\x00'
tRp1234
ag36
(g80
S'\x03\x00\x00\x00'
tRp1235
ag36
(g80
S'\x01\x00\x00\x00'
tRp1236
ag36
(g80
S'\x04\x00\x00\x00'
tRp1237
ag36
(g80
S'\x03\x00\x00\x00'
tRp1238
ag36
(g80
S'\x04\x00\x00\x00'
tRp1239
ag36
(g80
S'\x02\x00\x00\x00'
tRp1240
ag36
(g80
S'\x06\x00\x00\x00'
tRp1241
ag36
(g80
S'\x07\x00\x00\x00'
tRp1242
ag36
(g80
S'\x02\x00\x00\x00'
tRp1243
ag36
(g80
S'\x07\x00\x00\x00'
tRp1244
ag36
(g80
S'\t\x00\x00\x00'
tRp1245
ag36
(g80
S'\x07\x00\x00\x00'
tRp1246
ag36
(g80
S'\x05\x00\x00\x00'
tRp1247
ag36
(g80
S'\x05\x00\x00\x00'
tRp1248
ag36
(g80
S'\x08\x00\x00\x00'
tRp1249
ag36
(g80
S'\x06\x00\x00\x00'
tRp1250
ag36
(g80
S'\t\x00\x00\x00'
tRp1251
ag36
(g80
S'\x02\x00\x00\x00'
tRp1252
ag36
(g80
S'\x06\x00\x00\x00'
tRp1253
ag36
(g80
S'\x04\x00\x00\x00'
tRp1254
ag36
(g80
S'\x05\x00\x00\x00'
tRp1255
ag36
(g80
S'\x05\x00\x00\x00'
tRp1256
ag36
(g80
S'\x05\x00\x00\x00'
tRp1257
ag36
(g80
S'\x05\x00\x00\x00'
tRp1258
ag36
(g80
S'\x05\x00\x00\x00'
tRp1259
ag36
(g80
S'\x07\x00\x00\x00'
tRp1260
ag36
(g80
S'\x05\x00\x00\x00'
tRp1261
ag36
(g80
S'\n\x00\x00\x00'
tRp1262
ag36
(g80
S'\x05\x00\x00\x00'
tRp1263
aS'5.0'
p1264
ag36
(g80
S'\x03\x00\x00\x00'
tRp1265
ag36
(g80
S'\x08\x00\x00\x00'
tRp1266
ag36
(g80
S'\x08\x00\x00\x00'
tRp1267
ag36
(g80
S'\x0b\x00\x00\x00'
tRp1268
ag36
(g80
S'\x04\x00\x00\x00'
tRp1269
ag36
(g80
S'\x03\x00\x00\x00'
tRp1270
ag36
(g80
S'\x03\x00\x00\x00'
tRp1271
ag36
(g80
S'\x02\x00\x00\x00'
tRp1272
atbsg21
g1162
(g1163
g1158
g1164
S'b'
tRp1273
(I1
(I96
I1
tg1166
I00
S'K\xcaz@\x12B$?\x85K\xc4?|\x93\xae>^d\x80>(\xffa>\x00\xa5\xa4=\x18\xf3+?\xcb\x06\xe7>q\xc1\xdc>\xaa\x8e\n?\xe7\x08\x0f@H\xdeO?\x16\xd5\x94?G\xdc\x14?\xd2\x8f\x1c?\x19\x0cb>\x03E\xf1>\x84\xe04@\xf9\x17l?\xe0V\xf8<\x19.\x9f>\xd7M\xff?\x1d[v?O\xa63?\x0c|{?\xad\xc78?\xb9%\x90=\x86;(<ub)?nR\xa4>g\xc8\x04@N\xc5\xa6?\xe2\xa7\x8a>y6C>n,\xfa?\x1a\xc6\xaf?\xd2\x9e\xd7>\x81r$>\xe6:q?\xfe4\xad?P\xee\xe6?\xd9|M>.\xbdJ?\xd3NM?\xaa6C>\x00\x9f\x08@\x1d\x97\x81?$\xd3&?\xad\xc7\xe1?A\xac\xdc>$\x1c%=\x04\x1a\xc3>\xd8\xe8\xef?A\x99\xbc?H\x1cN=M\x84\xe0?\xe3l\x17?\x8aC_?\x1b\x1a\x9a>a\x04\xe7>;\x08\xba?r\x01(<`B\x869\xdc\x8e\x1c?3D\x89?\xdap\xa9>\xfb\xb8\x86?K(\x84?\xad9\x9b@\xd7\x8c\x93?S\xd0\x83@c.N=\x85\xdf\x1b@\x91\xb4\xb3>E!%=\xc5w\xb7?\x9c\xbb\x0f?\x1f\x84.?\x1e\xc1\xdc>\x15OM?\xbdK\x12?Ik\x8e?\xdf\x0c~?\xc0\xd1&?\xe3\xcas?*\xd5\x94?\xa0\xf5f?5El>M4\xad?\x98o\xed?|\xc4\xdc>\xf3\x85i?Pd\x80>2\xeb\x94>\x91\xb2\\?'
S'\x00\x00\x00\x00\x00\x00\x00\x00\x00\x00\x00\x00\x00\x00\x00\x00\x00\x00\x00\x00\x00\x00\x00\x00\x00\x00\x00\x00\x00\x00\x00\x00\x00\x00\x00\x00\x00\x00\x00\x00\x00\x00\x00\x00\x00\x00\x00\x00\x00\x00\x00\x00\x00\x00\x00\x00\x00\x00\x00\x00\x00\x00\x00\x00\x00\x00\x00\x00\x00\x00\x00\x00\x00\x00\x00\x00\x00\x00\x00\x00\x00\x00\x00\x00\x00\x00\x00\x00\x00\x00\x00\x00\x00\x00\x00\x00'
NtbsS'order'
p1274
g1162
(g1163
g1158
g1164
S'b'
tRp1275
(I1
(I96
I1
tg1166
I00
S'\x00\x00 A\x00\x00(B\x00\x00pA\x00\x00\x9cB\x00\x00\x04B\x00\x00$B\x00\x00\x00A\x00\x00@@\x00\x000B\x00\x00\xbeB\x00\x004B\x00\x00\x00@\x00\x00\x0cB\x00\x00TB\x00\x00\xf0A\x00\x00\xa2B\x00\x00\xc0@\x00\x00\xa0A\x00\x00\x14B\x00\x00\x98B\x00\x00\xa8B\x00\x00<B\x00\x00\x8aB\x00\x00`B\x00\x00\xe8A\x00\x00pB\x00\x00\x94B\x00\x00\x96B\x00\x00lB\x00\x00@B\x00\x00\xb6B\x00\x00\x80B\x00\x00\x9eB\x00\x00`A\x00\x00\x84B\x00\x00XB\x00\x00\x92B\x00\x00DB\x00\x00\x10A\x00\x00\x90A\x00\x00\xb8A\x00\x00dB\x00\x00\x8cB\x00\x000A\x00\x00PA\x00\x00\x82B\x00\x00\xa0B\x00\x00HB\x00\x00\xc8A\x00\x00\xb2B\x00\x00\xb4B\x00\x00\x98A\x00\x00\xa6B\x00\x00\x88A\x00\x00\x80@\x00\x00\x18B\x00\x00PB\x00\x00\x86B\x00\x00\xbcB\x00\x00\\B\x00\x00\xf8A\x00\x00\xa0@\x00\x00\xacB\x00\x00\x90B\x00\x00\x80?\x00\x00\x80A\x00\x00\xbaB\x00\x00\xa4B\x00\x00\x10B\x00\x00\xd0A\x00\x00\xe0A\x00\x00\xc0A\x00\x00 B\x00\x00\xaeB\x00\x00\x08B\x00\x00|B\x00\x00@A\x00\x00\xd8A\x00\x00LB\x00\x00\xaaB\x00\x00\xe0@\x00\x00xB\x00\x00\xb8B\x00\x00\x00B\x00\x00\xb0B\x00\x00\x1cB\x00\x00\x8eB\x00\x00\x00\x00\x00\x00hB\x00\x00,B\x00\x00\xb0A\x00\x00\xa8A\x00\x00tB\x00\x00\x88B\x00\x00\x9aB\x00\x008B'
S'\x00\x00\x00\x00\x00\x00\x00\x00\x00\x00\x00\x00\x00\x00\x00\x00\x00\x00\x00\x00\x00\x00\x00\x00\x00\x00\x00\x00\x00\x00\x00\x00\x00\x00\x00\x00\x00\x00\x00\x00\x00\x00\x00\x00\x00\x00\x00\x00\x00\x00\x00\x00\x00\x00\x00\x00\x00\x00\x00\x00\x00\x00\x00\x00\x00\x00\x00\x00\x00\x00\x00\x00\x00\x00\x00\x00\x00\x00\x00\x00\x00\x00\x00\x00\x00\x00\x00\x00\x00\x00\x00\x00\x00\x00\x00\x00'
Ntbsg19
g1162
(g1163
g1158
g1164
S'b'
tRp1276
(I1
(I96
I1
tg1166
I00
S'\x00\x00\x80?\x00\x00\x80?\x00\x00\x80?\x00\x00\x80?\x00\x00\x80?\x00\x00\x00\x00\x00\x00\x80?\x00\x00\x80?\x00\x00\x80?\x00\x00\x80?\x00\x00\x80?\x00\x00\x80?\x00\x00\x80?\x00\x00\x00\x00\x00\x00\x80?\x00\x00\x80?\x00\x00\x00\x00\x00\x00\x80?\x00\x00\x80?\x00\x00\x80?\x00\x00\x00\x00\x00\x00\x80?\x00\x00\x80?\x00\x00\x80?\x00\x00\x80?\x00\x00\x80?\x00\x00\x00\x00\x00\x00\x00\x00\x00\x00\x80?\x00\x00\x80?\x00\x00\x00\x00\x00\x00\x80?\x00\x00\x80?\x00\x00\x00\x00\x00\x00\x80?\x00\x00\x80?\x00\x00\x80?\x00\x00\x80?\x00\x00\x80?\x00\x00\x00\x00\x00\x00\x80?\x00\x00\x00\x00\x00\x00\x80?\x00\x00\x00\x00\x00\x00\x00\x00\x00\x00\x00\x00\x00\x00\x80?\x00\x00\x00\x00\x00\x00\x80?\x00\x00\x80?\x00\x00\x80?\x00\x00\x80?\x00\x00\x80?\x00\x00\x80?\x00\x00\x80?\x00\x00\x00\x00\x00\x00\x00\x00\x00\x00\x80?\x00\x00\x00\x00\x00\x00\x80?\x00\x00\x00\x00\x00\x00\x00\x00\x00\x00\x80?\x00\x00\x00\x00\x00\x00\x80?\x00\x00\x00\x00\x00\x00\x80?\x00\x00\x80?\x00\x00\x00\x00\x00\x00\x80?\x00\x00\x80?\x00\x00\x80?\x00\x00\x80?\x00\x00\x80?\x00\x00\x80?\x00\x00\x80?\x00\x00\x80?\x00\x00\x00\x00\x00\x00\x80?\x00\x00\x80?\x00\x00\x80?\x00\x00\x80?\x00\x00\x80?\x00\x00\x80?\x00\x00\x00\x00\x00\x00\x80?\x00\x00\x80?\x00\x00\x80?\x00\x00\x80?\x00\x00\x00\x00\x00\x00\x80?\x00\x00\x80?\x00\x00\x80?\x00\x00\x80?\x00\x00\x00\x00\x00\x00\x00\x00'
S'\x00\x00\x00\x00\x00\x00\x00\x00\x00\x00\x00\x00\x00\x00\x00\x00\x00\x00\x00\x00\x00\x00\x00\x00\x00\x00\x00\x00\x00\x00\x00\x00\x00\x00\x00\x00\x00\x00\x00\x00\x00\x00\x00\x00\x00\x00\x00\x00\x00\x00\x00\x00\x00\x00\x00\x00\x00\x00\x00\x00\x00\x00\x00\x00\x00\x00\x00\x00\x00\x00\x00\x00\x00\x00\x00\x00\x00\x00\x00\x00\x00\x00\x00\x00\x00\x00\x00\x00\x00\x00\x00\x00\x00\x00\x00\x00'
Ntbsg27
g1157
(g1158
(I0
tS'b'
tRp1277
(I1
(I96
I1
tg1160
I00
(lp1278
g194
ag550
ag249
ag947
ag450
ag539
ag172
ag112
ag572
ag1134
ag583
ag101
ag472
ag672
ag417
ag980
ag148
ag305
ag494
ag925
ag1013
ag605
ag848
ag705
ag406
ag749
ag903
ag914
ag738
ag616
ag1090
ag793
ag958
ag238
ag815
ag683
ag892
ag628
ag183
ag283
ag338
ag716
ag859
ag205
ag227
ag804
ag969
ag639
ag361
ag1068
ag1079
ag294
ag1002
ag272
ag123
ag505
ag661
ag826
ag1123
ag694
ag428
ag136
ag1035
ag881
ag89
ag260
ag1112
ag991
ag483
ag372
ag394
ag350
ag528
ag1046
ag461
ag782
ag216
ag383
ag650
ag1024
ag160
ag771
ag1101
ag439
ag1057
ag516
ag870
ag76
ag727
ag561
ag327
ag316
ag760
ag837
ag936
ag594
atbsg23
g1157
(g1158
(I0
tS'b'
tRp1279
(I1
(I96
I1
tg1160
I00
(lp1280
S'3'
aS'3'
aS'3'
aS'1'
aS'1'
aS'1'
aS'1'
aS'2'
aS'2'
aS'3'
aS'3'
aS'3'
aS'3'
aS'1'
aS'1'
aS'1'
aS'1'
aS'3'
aS'3'
aS'3'
aS'1'
aS'1'
aS'3'
aS'2'
aS'3'
aS'3'
aS'1'
aS'1'
aS'1'
aS'3'
aS'1'
aS'3'
aS'3'
aS'1'
aS'1'
aS'3'
aS'3'
aS'1'
aS'1'
aS'1'
aS'3'
aS'1'
aS'1'
aS'1'
aS'1'
aS'1'
aS'3'
aS'1'
aS'1'
aS'2'
aS'3'
aS'1'
aS'3'
aS'2'
aS'3'
aS'1'
aS'2'
aS'2'
aS'1'
aS'1'
aS'1'
aS'1'
aS'1'
aS'1'
aS'1'
aS'1'
aS'1'
aS'3'
aS'1'
aS'3'
aS'3'
aS'2'
aS'1'
aS'2'
aS'1'
aS'1'
aS'3'
aS'1'
aS'2'
aS'2'
aS'2'
aS'3'
aS'3'
aS'2'
aS'1'
aS'3'
aS'3'
aS'1'
aS'1'
aS'3'
aS'2'
aS'3'
aS'1'
aS'1'
aS'1'
aS'1'
atbsg18
g1162
(g1163
g1158
g1164
S'b'
tRp1281
(I1
(I96
I1
tg1166
I00
S"[jTB\x01hIC\x99i\x9aB\xb8\x87\xb1C\x87\x0b$C\xf6\xceEC\xd3o9Bz\xed\xaeAy\xe0RC\x0f^\xd7C\x19\xf2VC\x16P\x83A\x19d+CA5xC;\x14\x18Cv\xd3\xb8C@\xdd\x0eB!~\xc8B]\xfd3C\xa2F\xadC3e\xbfC\xc9\x12_C\xe9\x9b\x9eC\xbb\xc2\x83C\xde\x0c\x14C\x9fC\x8cC\xc3\xa0\xa9C\x08\x9e\xabCH&\x8aC\x90\xa1bC\xcd\xff\xceC 6\x94C\x12a\xb3C\x90`\x93Bo\x93\x98C\x04\x87|C\x069\xa7C\xf7\x96fC\x97\x8bFBL\xc7\xb8B\xc2\x03\xe5B\xc8\xde\x85C\xcaC\xa1Cu\x14rB#\x0f\x8bB\x96\xd7\x96C\x89\x02\xb6C.#jC#\xd4\xfdB\xe6m\xcaC\x7f\x14\xcdC}\x84\xc1B\xd2Y\xbdC\xb4\x12\xadB\x91\x1d\xceAUg:C):sCR=\x9aC\xbf7\xd5C\xc8\xfa\x80CH\xe8\x1bC;\xcd\xf5A\xb1q\xc3C\xf2\xa4\xa5C\x1a\x17\x11A#F\xa4B\xa8h\xd3C\x03\xd2\xbaC\xe7\xa3/C\x90\xf6\x02Cl\xf0\x0eC\xef\x83\xeeB\xc1}BC\x1f'\xc5C\xe0\x9c'C2\x9e\x92C\xa8[\x81B\x12$\x0bC\x8denCY\x19\xc1C\xa2\xea&B\xfe\x85\x90C-\xd0\xd0C\x8c\x9d\x1fC\xa7g\xc8C\x06\xdf=C\xc4\x04\xa3C9\xfa\x9f@ua\x88C\xefqMC\xdeX\xd8B\xdb\x8c\xd0B9k\x8eCt5\x9cC\x84o\xafC\x11\xeaZC"
S'\x00\x00\x00\x00\x00\x00\x00\x00\x00\x00\x00\x00\x00\x00\x00\x00\x00\x00\x00\x00\x00\x00\x00\x00\x00\x00\x00\x00\x00\x00\x00\x00\x00\x00\x00\x00\x00\x00\x00\x00\x00\x00\x00\x00\x00\x00\x00\x00\x00\x00\x00\x00\x00\x00\x00\x00\x00\x00\x00\x00\x00\x00\x00\x00\x00\x00\x00\x00\x00\x00\x00\x00\x00\x00\x00\x00\x00\x00\x00\x00\x00\x00\x00\x00\x00\x00\x00\x00\x00\x00\x00\x00\x00\x00\x00\x00'
Ntbsg25
g1162
(g1163
g1158
g1164
S'b'
tRp1282
(I1
(I96
I1
tg1166
I00
S'\x94F\xf1>"\x92\xae>\x90\xb6\xb3>\x9e\xed\x94>\xe5b\x80>\xf1\xea\x94>:x$>\x15OM>H\xfd\x19?\xe0\xbd\x16@\x8a\xc3\xdc>\xcb\x029>Q\xf6\xbd>\x04\xe7\x0f>\x94\x18l>\xebp\xa9>\xec\t1@\xf3G\xf1>Jw\x05?\x1d:\xc8>\x95\x94\xae>H\xfca>u-\x9f>\xb4\x85\x85>\xfa\x94\xae>\x0e.\x9f>\xa9g\x80>\x90\xfda>}f\x97?\x8d\xe9\x94>\xd8\xc8\x8f>\xeeyM>\x95\x86i?\xbe\xf18>\xe9\xcb\xf6=\xbaj\xf6> \xe2\xe1>\x87=\xe2=\x87\x84\x85>\x87\xb3\xb3>\x19\xf7\xbd>\xe9wM>\xb4\x92\x8a>\x0fp\xa9>\xa8,\x9f>\xd0\x84\x85>\xeeH\xf1>\x8c\xfda>\x1d\xb4\xb3>\x89\xdc\x02?\\}\xd2>{\x94\xae>\x86\xa53?\xe0\x16l?ej\xf6>\xc5\x92\xae>1\xbdW>\xb1\x92\xae>\xe0\xf6\xbd>\xc5\xaf\x0f@f\xbaW>2w\x05?Z\xc1\xb8>v9\x1a>\x1chk@\xb3\xa6\x8a>\xa9\xc8\x8f>\xa1{{?\x08Al>\xec\x0b\x9a>\xcd\xcas?\xf2v\x05?\x0fAC>^p\x85?_\x94\xae>\xa1\xe5\x0f>\x13^\xcd>\x8b\xd4W>\x9c\xae\x8f?\x93\xcf\x9d?:\xdeO?\xd2 \x1f?\x9eI\x89?q^\xcd>\xeb\xb3\xb3>\xe9\x8d\x1c??\xd5\x8b?\x1d\xc6\xf6=\x08\x93\x8a>\x99\xb8\x86?gx\xb7?7\x86\xd2>x\xa9\x8a>\xce\xba\xc1?\xfd\xb1\\?R\xf4\x94>'
S'\x00\x00\x00\x00\x00\x00\x00\x00\x00\x00\x00\x00\x00\x00\x00\x00\x00\x00\x00\x00\x00\x00\x00\x00\x00\x00\x00\x00\x00\x00\x00\x00\x00\x00\x00\x00\x00\x00\x00\x00\x00\x00\x00\x00\x00\x00\x00\x00\x00\x00\x00\x00\x00\x00\x00\x00\x00\x00\x00\x00\x00\x00\x00\x00\x00\x00\x00\x00\x00\x00\x00\x00\x00\x00\x00\x00\x00\x00\x00\x00\x00\x00\x00\x00\x00\x00\x00\x00\x00\x00\x00\x00\x00\x00\x00\x00'
NtbstRp1283
(dp1284
S'isNumeric'
p1285
(dp1286
g23
I00
sg20
I00
sg17
I01
sg1167
I01
sg22
I01
sg24
I01
sg14
I01
sg18
I01
sg16
I00
sg19
I01
sg26
I00
sg27
I00
sg15
I00
sg21
I01
sg1274
I01
sg25
I01
ssg1151
g1145
sS'dataTypes'
p1287
(lp1288
g1167
ag1274
ag14
ag15
ag16
ag17
ag18
ag19
ag20
ag21
ag22
ag23
ag24
ag25
ag26
ag27
asS'dataShape'
p1289
(lp1290
I96
aI1
asbsS'method'
p1291
S'random'
p1292
sS'sequenceIndices'
p1293
g1157
(g1158
(I0
tS'b'
tRp1294
(I1
(I96
I1
tg80
I01
S'W\x00\x00\x00@\x00\x00\x00\x0b\x00\x00\x00\x07\x00\x00\x006\x00\x00\x00=\x00\x00\x00\x10\x00\x00\x00P\x00\x00\x00\x06\x00\x00\x00&\x00\x00\x00\x00\x00\x00\x00+\x00\x00\x00L\x00\x00\x00,\x00\x00\x00!\x00\x00\x00\x02\x00\x00\x00A\x00\x00\x005\x00\x00\x00\'\x00\x00\x003\x00\x00\x00\x11\x00\x00\x00[\x00\x00\x00Z\x00\x00\x00(\x00\x00\x00G\x00\x00\x000\x00\x00\x00E\x00\x00\x00M\x00\x00\x00F\x00\x00\x00\x18\x00\x00\x00\x0e\x00\x00\x00<\x00\x00\x00S\x00\x00\x00\x04\x00\x00\x00J\x00\x00\x00\x0c\x00\x00\x00D\x00\x00\x00\x12\x00\x00\x007\x00\x00\x00U\x00\x00\x00H\x00\x00\x00\x05\x00\x00\x00\x01\x00\x00\x00Y\x00\x00\x00\x08\x00\x00\x00\n\x00\x00\x00_\x00\x00\x00\x15\x00\x00\x00\x1d\x00\x00\x00%\x00\x00\x00/\x00\x00\x00N\x00\x00\x008\x00\x00\x00\r\x00\x00\x00#\x00\x00\x00;\x00\x00\x00\x17\x00\x00\x00)\x00\x00\x00X\x00\x00\x00\x1c\x00\x00\x00\x19\x00\x00\x00\\\x00\x00\x00Q\x00\x00\x00K\x00\x00\x00\x1f\x00\x00\x00-\x00\x00\x00"\x00\x00\x009\x00\x00\x00]\x00\x00\x00\x16\x00\x00\x00*\x00\x00\x00V\x00\x00\x00?\x00\x00\x00$\x00\x00\x00\x1a\x00\x00\x00\x1b\x00\x00\x00\x13\x00\x00\x00^\x00\x00\x00\x03\x00\x00\x00 \x00\x00\x00.\x00\x00\x00\x0f\x00\x00\x00C\x00\x00\x004\x00\x00\x00\x14\x00\x00\x00O\x00\x00\x00>\x00\x00\x00I\x00\x00\x00T\x00\x00\x001\x00\x00\x002\x00\x00\x00\x1e\x00\x00\x00R\x00\x00\x00B\x00\x00\x00:\x00\x00\x00\t\x00\x00\x00'
tbsS'finished'
p1295
I01
sS'nReps'
p1296
I1
sS'nRemaining'
p1297
I-1
sS'trialList'
p1298
(lp1299
g1
(cpsychopy.data
TrialType
p1300
g1155
(dp1301
g62
g74
sg63
g200
sg64
g170
sg65
g195
sg66
g199
stRp1302
ag1
(g1300
g1155
(dp1303
g62
g134
sg63
g556
sg64
g146
sg65
g551
sg66
g555
stRp1304
ag1
(g1300
g1155
(dp1305
g62
g74
sg63
g255
sg64
g170
sg65
g250
sg66
g254
stRp1306
ag1
(g1300
g1155
(dp1307
g62
g74
sg63
g953
sg64
g626
sg65
g948
sg66
g952
stRp1308
ag1
(g1300
g1155
(dp1309
g62
g134
sg63
g456
sg64
g133
sg65
g451
sg66
g455
stRp1310
ag1
(g1300
g1155
(dp1311
g62
g74
sg63
g545
sg64
g170
sg65
g540
sg66
g544
stRp1312
ag1
(g1300
g1155
(dp1313
g62
g74
sg63
g178
sg64
g170
sg65
g173
sg66
g177
stRp1314
ag1
(g1300
g1155
(dp1315
g62
g74
sg63
g118
sg64
g73
sg65
g113
sg66
g117
stRp1316
ag1
(g1300
g1155
(dp1317
g62
g74
sg63
g578
sg64
g170
sg65
g573
sg66
g577
stRp1318
ag1
(g1300
g1155
(dp1319
g62
g74
sg63
g1140
sg64
g73
sg65
g1135
sg66
g1139
stRp1320
ag1
(g1300
g1155
(dp1321
g62
g134
sg63
g589
sg64
g404
sg65
g584
sg66
g588
stRp1322
ag1
(g1300
g1155
(dp1323
g62
g74
sg63
g107
sg64
g73
sg65
g102
sg66
g106
stRp1324
ag1
(g1300
g1155
(dp1325
g62
g74
sg63
g478
sg64
g270
sg65
g473
sg66
g477
stRp1326
ag1
(g1300
g1155
(dp1327
g62
g134
sg63
g678
sg64
g146
sg65
g673
sg66
g677
stRp1328
ag1
(g1300
g1155
(dp1329
g62
g74
sg63
g423
sg64
g270
sg65
g418
sg66
g422
stRp1330
ag1
(g1300
g1155
(dp1331
g62
g74
sg63
g986
sg64
g170
sg65
g981
sg66
g985
stRp1332
ag1
(g1300
g1155
(dp1333
g62
g134
sg63
g154
sg64
g146
sg65
g149
sg66
g153
stRp1334
ag1
(g1300
g1155
(dp1335
g62
g74
sg63
g311
sg64
g270
sg65
g306
sg66
g310
stRp1336
ag1
(g1300
g1155
(dp1337
g62
g74
sg63
g500
sg64
g348
sg65
g495
sg66
g499
stRp1338
ag1
(g1300
g1155
(dp1339
g62
g74
sg63
g931
sg64
g170
sg65
g926
sg66
g930
stRp1340
ag1
(g1300
g1155
(dp1341
g62
g134
sg63
g1019
sg64
g146
sg65
g1014
sg66
g1018
stRp1342
ag1
(g1300
g1155
(dp1343
g62
g134
sg63
g611
sg64
g158
sg65
g606
sg66
g610
stRp1344
ag1
(g1300
g1155
(dp1345
g62
g74
sg63
g854
sg64
g348
sg65
g849
sg66
g853
stRp1346
ag1
(g1300
g1155
(dp1347
g62
g134
sg63
g711
sg64
g158
sg65
g706
sg66
g710
stRp1348
ag1
(g1300
g1155
(dp1349
g62
g134
sg63
g412
sg64
g404
sg65
g407
sg66
g411
stRp1350
ag1
(g1300
g1155
(dp1351
g62
g74
sg63
g755
sg64
g526
sg65
g750
sg66
g754
stRp1352
ag1
(g1300
g1155
(dp1353
g62
g134
sg63
g909
sg64
g133
sg65
g904
sg66
g908
stRp1354
ag1
(g1300
g1155
(dp1355
g62
g134
sg63
g920
sg64
g146
sg65
g915
sg66
g919
stRp1356
ag1
(g1300
g1155
(dp1357
g62
g74
sg63
g744
sg64
g270
sg65
g739
sg66
g743
stRp1358
ag1
(g1300
g1155
(dp1359
g62
g74
sg63
g622
sg64
g170
sg65
g617
sg66
g621
stRp1360
ag1
(g1300
g1155
(dp1361
g62
g74
sg63
g1096
sg64
g348
sg65
g1091
sg66
g1095
stRp1362
ag1
(g1300
g1155
(dp1363
g62
g74
sg63
g799
sg64
g348
sg65
g794
sg66
g798
stRp1364
ag1
(g1300
g1155
(dp1365
g62
g134
sg63
g964
sg64
g146
sg65
g959
sg66
g963
stRp1366
ag1
(g1300
g1155
(dp1367
g62
g134
sg63
g244
sg64
g133
sg65
g239
sg66
g243
stRp1368
ag1
(g1300
g1155
(dp1369
g62
g134
sg63
g821
sg64
g133
sg65
g816
sg66
g820
stRp1370
ag1
(g1300
g1155
(dp1371
g62
g74
sg63
g689
sg64
g270
sg65
g684
sg66
g688
stRp1372
ag1
(g1300
g1155
(dp1373
g62
g74
sg63
g898
sg64
g526
sg65
g893
sg66
g897
stRp1374
ag1
(g1300
g1155
(dp1375
g62
g74
sg63
g634
sg64
g626
sg65
g629
sg66
g633
stRp1376
ag1
(g1300
g1155
(dp1377
g62
g134
sg63
g189
sg64
g133
sg65
g184
sg66
g188
stRp1378
ag1
(g1300
g1155
(dp1379
g62
g134
sg63
g289
sg64
g146
sg65
g284
sg66
g288
stRp1380
ag1
(g1300
g1155
(dp1381
g62
g134
sg63
g344
sg64
g146
sg65
g339
sg66
g343
stRp1382
ag1
(g1300
g1155
(dp1383
g62
g74
sg63
g722
sg64
g270
sg65
g717
sg66
g721
stRp1384
ag1
(g1300
g1155
(dp1385
g62
g134
sg63
g865
sg64
g133
sg65
g860
sg66
g864
stRp1386
ag1
(g1300
g1155
(dp1387
g62
g134
sg63
g211
sg64
g158
sg65
g206
sg66
g210
stRp1388
ag1
(g1300
g1155
(dp1389
g62
g134
sg63
g233
sg64
g133
sg65
g228
sg66
g232
stRp1390
ag1
(g1300
g1155
(dp1391
g62
g134
sg63
g810
sg64
g404
sg65
g805
sg66
g809
stRp1392
ag1
(g1300
g1155
(dp1393
g62
g74
sg63
g975
sg64
g170
sg65
g970
sg66
g974
stRp1394
ag1
(g1300
g1155
(dp1395
g62
g74
sg63
g645
sg64
g170
sg65
g640
sg66
g644
stRp1396
ag1
(g1300
g1155
(dp1397
g62
g134
sg63
g367
sg64
g146
sg65
g362
sg66
g366
stRp1398
ag1
(g1300
g1155
(dp1399
g62
g134
sg63
g1074
sg64
g158
sg65
g1069
sg66
g1073
stRp1400
ag1
(g1300
g1155
(dp1401
g62
g134
sg63
g1085
sg64
g146
sg65
g1080
sg66
g1084
stRp1402
ag1
(g1300
g1155
(dp1403
g62
g134
sg63
g300
sg64
g133
sg65
g295
sg66
g299
stRp1404
ag1
(g1300
g1155
(dp1405
g62
g134
sg63
g1008
sg64
g158
sg65
g1003
sg66
g1007
stRp1406
ag1
(g1300
g1155
(dp1407
g62
g74
sg63
g278
sg64
g270
sg65
g273
sg66
g277
stRp1408
ag1
(g1300
g1155
(dp1409
g62
g74
sg63
g129
sg64
g73
sg65
g124
sg66
g128
stRp1410
ag1
(g1300
g1155
(dp1411
g62
g134
sg63
g511
sg64
g158
sg65
g506
sg66
g510
stRp1412
ag1
(g1300
g1155
(dp1413
g62
g134
sg63
g667
sg64
g133
sg65
g662
sg66
g666
stRp1414
ag1
(g1300
g1155
(dp1415
g62
g134
sg63
g832
sg64
g133
sg65
g827
sg66
g831
stRp1416
ag1
(g1300
g1155
(dp1417
g62
g74
sg63
g1129
sg64
g270
sg65
g1124
sg66
g1128
stRp1418
ag1
(g1300
g1155
(dp1419
g62
g134
sg63
g700
sg64
g133
sg65
g695
sg66
g699
stRp1420
ag1
(g1300
g1155
(dp1421
g62
g134
sg63
g434
sg64
g133
sg65
g429
sg66
g433
stRp1422
ag1
(g1300
g1155
(dp1423
g62
g134
sg63
g142
sg64
g133
sg65
g137
sg66
g141
stRp1424
ag1
(g1300
g1155
(dp1425
g62
g74
sg63
g1041
sg64
g526
sg65
g1036
sg66
g1040
stRp1426
ag1
(g1300
g1155
(dp1427
g62
g134
sg63
g887
sg64
g133
sg65
g882
sg66
g886
stRp1428
ag1
(g1300
g1155
(dp1429
g62
g74
sg63
g95
sg64
g73
sg65
g90
sg66
g94
stRp1430
ag1
(g1300
g1155
(dp1431
g62
g134
sg63
g266
sg64
g158
sg65
g261
sg66
g265
stRp1432
ag1
(g1300
g1155
(dp1433
g62
g74
sg63
g1118
sg64
g348
sg65
g1113
sg66
g1117
stRp1434
ag1
(g1300
g1155
(dp1435
g62
g134
sg63
g997
sg64
g133
sg65
g992
sg66
g996
stRp1436
ag1
(g1300
g1155
(dp1437
g62
g134
sg63
g489
sg64
g146
sg65
g484
sg66
g488
stRp1438
ag1
(g1300
g1155
(dp1439
g62
g74
sg63
g378
sg64
g170
sg65
g373
sg66
g377
stRp1440
ag1
(g1300
g1155
(dp1441
g62
g134
sg63
g400
sg64
g133
sg65
g395
sg66
g399
stRp1442
ag1
(g1300
g1155
(dp1443
g62
g74
sg63
g356
sg64
g348
sg65
g351
sg66
g355
stRp1444
ag1
(g1300
g1155
(dp1445
g62
g74
sg63
g534
sg64
g526
sg65
g529
sg66
g533
stRp1446
ag1
(g1300
g1155
(dp1447
g62
g134
sg63
g1052
sg64
g404
sg65
g1047
sg66
g1051
stRp1448
ag1
(g1300
g1155
(dp1449
g62
g134
sg63
g467
sg64
g133
sg65
g462
sg66
g466
stRp1450
ag1
(g1300
g1155
(dp1451
g62
g134
sg63
g788
sg64
g158
sg65
g783
sg66
g787
stRp1452
ag1
(g1300
g1155
(dp1453
g62
g74
sg63
g222
sg64
g73
sg65
g217
sg66
g221
stRp1454
ag1
(g1300
g1155
(dp1455
g62
g74
sg63
g389
sg64
g348
sg65
g384
sg66
g388
stRp1456
ag1
(g1300
g1155
(dp1457
g62
g74
sg63
g656
sg64
g170
sg65
g651
sg66
g655
stRp1458
ag1
(g1300
g1155
(dp1459
g62
g134
sg63
g1030
sg64
g133
sg65
g1025
sg66
g1029
stRp1460
ag1
(g1300
g1155
(dp1461
g62
g134
sg63
g166
sg64
g158
sg65
g161
sg66
g165
stRp1462
ag1
(g1300
g1155
(dp1463
g62
g74
sg63
g777
sg64
g170
sg65
g772
sg66
g776
stRp1464
ag1
(g1300
g1155
(dp1465
g62
g134
sg63
g1107
sg64
g146
sg65
g1102
sg66
g1106
stRp1466
ag1
(g1300
g1155
(dp1467
g62
g74
sg63
g445
sg64
g348
sg65
g440
sg66
g444
stRp1468
ag1
(g1300
g1155
(dp1469
g62
g134
sg63
g1063
sg64
g146
sg65
g1058
sg66
g1062
stRp1470
ag1
(g1300
g1155
(dp1471
g62
g134
sg63
g522
sg64
g133
sg65
g517
sg66
g521
stRp1472
ag1
(g1300
g1155
(dp1473
g62
g74
sg63
g876
sg64
g73
sg65
g871
sg66
g875
stRp1474
ag1
(g1300
g1155
(dp1475
g62
g74
sg63
g84
sg64
g73
sg65
g78
sg66
g83
stRp1476
ag1
(g1300
g1155
(dp1477
g62
g74
sg63
g733
sg64
g526
sg65
g728
sg66
g732
stRp1478
ag1
(g1300
g1155
(dp1479
g62
g74
sg63
g567
sg64
g526
sg65
g562
sg66
g566
stRp1480
ag1
(g1300
g1155
(dp1481
g62
g134
sg63
g333
sg64
g146
sg65
g328
sg66
g332
stRp1482
ag1
(g1300
g1155
(dp1483
g62
g74
sg63
g322
sg64
g73
sg65
g317
sg66
g321
stRp1484
ag1
(g1300
g1155
(dp1485
g62
g74
sg63
g766
sg64
g526
sg65
g761
sg66
g765
stRp1486
ag1
(g1300
g1155
(dp1487
g62
g74
sg63
g843
sg64
g170
sg65
g838
sg66
g842
stRp1488
ag1
(g1300
g1155
(dp1489
g62
g134
sg63
g942
sg64
g158
sg65
g937
sg66
g941
stRp1490
ag1
(g1300
g1155
(dp1491
g62
g134
sg63
g600
sg64
g146
sg65
g595
sg66
g599
stRp1492
asS'seed'
p1493
NsS'thisIndex'
p1494
g1137
sS'thisN'
p1495
I96
sS'thisTrialN'
p1496
I0
sS'nTotal'
p1497
I96
sS'_warnUseOfNext'
p1498
I01
sbasS'savePickle'
p1499
I00
sb.