ccopy_reg
_reconstructor
p1
(cpsychopy.data
ExperimentHandler
p2
c__builtin__
object
p3
NtRp4
(dp5
S'originPath'
p6
NsS'dataFileName'
p7
VC:\u005cDocuments and Settings\u005cExperimental user\u005cMy Documents\u005cconsciousness\u005cuncon_feat\u005cexperiment_scripts\u005cdata/alba_Experiment_EEG_version_2019_jun_13_1001
p8
sS'runtimeInfo'
p9
NsS'name'
p10
VExperiment_EEG_version
p11
sS'dataNames'
p12
(lp13
S'image_onset_time'
p14
aS'response_window'
p15
aS'correctAns'
p16
aS'probe_onset'
p17
aS'discrim_resptime'
p18
aS'response.corr'
p19
aS'response.keys'
p20
aS'response.rt'
p21
aS'visible_resptime'
p22
aS'visible.keys'
p23
aS'visible.corr'
p24
aS'visible.rt'
p25
aS'probeFrames'
p26
aS'jitter2'
p27
asS'autoLog'
p28
I01
sS'extraInfo'
p29
(dp30
Vn_square
p31
V32
p32
sVexperiment_color
p33
Vbw
p34
sS'frameRate'
p35
cnumpy.core.multiarray
scalar
p36
(cnumpy
dtype
p37
(S'f8'
I0
I1
tRp38
(I3
S'<'
NNNI-1
I-1
I0
tbS'G\xef\xea\xfd\x19\xf2X@'
tRp39
sS'date'
p40
V2019_jun_13_1001
p41
sVsession
p42
V013
p43
sVimage_size
p44
V256
p45
sVpremask_dur
p46
V20
p47
sVprobeFrames
p48
V5
sVparticipant
p49
Valba
p50
sS'expName'
p51
g11
sVpostmask_dur
p52
V20
p53
ssS'loopsUnfinished'
p54
(lp55
sS'saveWideText'
p56
I00
sS'thisEntry'
p57
(dp58
sS'version'
p59
S''
sS'_paramNamesSoFar'
p60
(lp61
S'category'
p62
aS'probe_path'
p63
aS'subcategory'
p64
aS'fixation_duration'
p65
aS'label'
p66
asS'entries'
p67
(lp68
(dp69
g31
g32
sg17
F3.7373262424953282
sg24
I0
sg35
g39
sg14
F3.7166906059719622
sg16
g36
(g37
(S'i4'
I0
I1
tRp70
(I3
S'<'
NNNI-1
I-1
I0
tbS'\x02\x00\x00\x00'
tRp71
sg42
g43
sg46
g47
sg15
S'V_nV'
p72
sg22
F5.7318279040046036
sg64
VFurniture
p73
sg62
VNonliving_Things
p74
sg49
g50
sS'trials.thisN'
p75
I0
sg19
I1
sg27
g36
(g38
S'\x00\x00\x00\x00\x00\x00 @'
tRp76
sg52
g53
sg23
S'2'
sg18
F4.9993786979466677
sg33
g34
sg51
g11
sg20
S'2'
sg65
g36
(g37
(S'i8'
I0
I1
tRp77
(I3
S'<'
NNNI-1
I-1
I0
tbS'\x00\x00\x00\x00\x00\x00\x00\x00'
tRp78
sg44
g45
sg40
g41
sg25
F0.22069248603656888
sS'trials.thisIndex'
p79
g36
(g37
(S'i4'
I0
I1
tRp80
(I3
S'<'
NNNI-1
I-1
I0
tbS'/\x00\x00\x00'
tRp81
sg26
V5
sS'trials.thisRepN'
p82
I0
sg66
Vlectern
p83
sg63
V../experiment_stimuli/bw_bc_bl/Nonliving_Things/Furniture/lectern_3.jpg
p84
sg21
F0.70159841096028686
sS'trials.thisTrialN'
p85
I0
sa(dp86
g31
g32
sg17
F7.6902322140522301
sg24
I0
sg35
g39
sg14
F7.6853136564604938
sg16
g36
(g70
S'\x02\x00\x00\x00'
tRp87
sg42
g43
sg46
g47
sg15
g72
sg22
F10.141323922201991
sg64
g73
sg62
g74
sg49
g50
sS'trials.thisN'
p88
I1
sg19
I1
sg27
g36
(g38
S'\x00\x00\x00\x00\x00\x00\x1a@'
tRp89
sg52
g53
sg23
S'3'
sg18
F8.9479638589546084
sg33
g34
sg51
g11
sg20
S'2'
sg65
g36
(g77
S'\x00\x00\x00\x00\x00\x00\x00\x00'
tRp90
sg44
g45
sg40
g41
sg25
F0.21068459143862128
sS'trials.thisIndex'
p91
g36
(g80
S'.\x00\x00\x00'
tRp92
sg26
V5
sS'trials.thisRepN'
p93
I0
sg66
Vlamp
p94
sg63
V../experiment_stimuli/bw_bc_bl/Nonliving_Things/Furniture/lamp_24.jpg
p95
sg21
F1.1727956361137331
sS'trials.thisTrialN'
p96
I1
sa(dp97
g31
g32
sg17
F12.08982058102265
sg24
I1
sg35
g39
sg14
F12.084878730587661
sg16
g36
(g70
S'\x02\x00\x00\x00'
tRp98
sg42
g43
sg46
g47
sg15
g72
sg22
F13.498576551675797
sg64
VTools
p99
sg62
g74
sg49
g50
sS'trials.thisN'
p100
I2
sg19
I0
sg27
g36
(g38
S'\x00\x00\x00\x00\x00\x00\x1a@'
tRp101
sg52
g53
sg23
S'1'
sg18
F13.317461469210684
sg33
g34
sg51
g11
sg20
S'1'
sg65
g36
(g77
S'\x00\x00\x00\x00\x00\x00\x00\x00'
tRp102
sg44
g45
sg40
g41
sg25
F2.6660202243365347
sS'trials.thisIndex'
p103
g36
(g80
S'\x03\x00\x00\x00'
tRp104
sg26
V5
sS'trials.thisRepN'
p105
I0
sg66
Vaxe
p106
sg63
V../experiment_stimuli/bw_bc_bl/Nonliving_Things/Tools/axe_19.jpg
p107
sg21
F0.16056643007323146
sS'trials.thisTrialN'
p108
I2
sa(dp109
g31
g32
sg17
F17.902911926154047
sg24
I1
sg35
g39
sg14
F17.897534059360623
sg16
g36
(g70
S'\x01\x00\x00\x00'
tRp110
sg42
g43
sg46
g47
sg15
g72
sg22
F19.591835538856685
sg64
VBirds
p111
sg62
VLiving_Things
p112
sg49
g50
sS'trials.thisN'
p113
I3
sg19
I0
sg27
g36
(g38
S'\x00\x00\x00\x00\x00\x00\x18@'
tRp114
sg52
g53
sg23
S'1'
sg18
F19.16016934486106
sg33
g34
sg51
g11
sg20
S'2'
sg65
g36
(g77
S'\x00\x00\x00\x00\x00\x00\x00\x00'
tRp115
sg44
g45
sg40
g41
sg25
F0.20064973179250956
sS'trials.thisIndex'
p116
g36
(g80
S'3\x00\x00\x00'
tRp117
sg26
V5
sS'trials.thisRepN'
p118
I0
sg66
Vmagpie
p119
sg63
V../experiment_stimuli/bw_bc_bl/Living_Things/Birds/magpie_9.jpg
p120
sg21
F0.41111286403611302
sS'trials.thisTrialN'
p121
I3
sa(dp122
g31
g32
sg17
F21.530199500732124
sg24
I0
sg35
g39
sg14
F21.525399873964489
sg16
g36
(g70
S'\x01\x00\x00\x00'
tRp123
sg42
g43
sg46
g47
sg15
S'nV_V'
p124
sg22
F24.6729029356502
sg64
VKitchen_Uten
p125
sg62
g74
sg49
g50
sS'trials.thisN'
p126
I4
sg19
I1
sg27
g36
(g38
S'\x00\x00\x00\x00\x00\x00\x18@'
tRp127
sg52
g53
sg23
S'2'
sg18
F22.808089988306165
sg33
g34
sg51
g11
sg20
S'1'
sg65
g36
(g77
S'\x00\x00\x00\x00\x00\x00\x00\x00'
tRp128
sg44
g45
sg40
g41
sg25
F0.31088790111243725
sS'trials.thisIndex'
p129
g36
(g80
S'\x1e\x00\x00\x00'
tRp130
sg26
V5
sS'trials.thisRepN'
p131
I0
sg66
Vfondue
p132
sg63
V../experiment_stimuli/bw_bc_bl/Nonliving_Things/Kitchen_Uten/fondue_26.jpg
p133
sg21
F1.8442320958711207
sS'trials.thisTrialN'
p134
I4
sa(dp135
g31
g32
sg17
F26.721667274832726
sg24
I0
sg35
g39
sg14
F26.716700530145317
sg16
g36
(g70
S'\x01\x00\x00\x00'
tRp136
sg42
g43
sg46
g47
sg15
g72
sg22
F28.972204254474491
sg64
g111
sg62
g112
sg49
g50
sS'trials.thisN'
p137
I5
sg19
I1
sg27
g36
(g38
S'\x00\x00\x00\x00\x00\x00\x1a@'
tRp138
sg52
g53
sg23
S'3'
sg18
F27.989354713819921
sg33
g34
sg51
g11
sg20
S'1'
sg65
g36
(g77
S'\x00\x00\x00\x00\x00\x00\x00\x00'
tRp139
sg44
g45
sg40
g41
sg25
F1.6137298177927732
sS'trials.thisIndex'
p140
g36
(g80
S';\x00\x00\x00'
tRp141
sg26
V5
sS'trials.thisRepN'
p142
I0
sg66
Vpartridge
p143
sg63
V../experiment_stimuli/bw_bc_bl/Living_Things/Birds/partridge_0.jpg
p144
sg21
F0.96230907877907157
sS'trials.thisTrialN'
p145
I5
sa(dp146
g31
g32
sg17
F32.323806622996926
sg24
I1
sg35
g39
sg14
F32.318866561632603
sg16
g36
(g70
S'\x01\x00\x00\x00'
tRp147
sg42
g43
sg46
g47
sg15
g124
sg22
F34.173545172903687
sg64
VBuildings
p148
sg62
g74
sg49
g50
sS'trials.thisN'
p149
I6
sg19
I0
sg27
g36
(g38
S'\x00\x00\x00\x00\x00\x00\x18@'
tRp150
sg52
g53
sg23
S'1'
sg18
F33.571488618850708
sg33
g34
sg51
g11
sg20
S'2'
sg65
g36
(g77
S'\x00\x00\x00\x00\x00\x00\x00\x00'
tRp151
sg44
g45
sg40
g41
sg25
F0.1405716142617166
sS'trials.thisIndex'
p152
g36
(g80
S'\x1c\x00\x00\x00'
tRp153
sg26
V5
sS'trials.thisRepN'
p154
I0
sg66
Vfactory
p155
sg63
V../experiment_stimuli/bw_bc_bl/Nonliving_Things/Buildings/factory_11.jpg
p156
sg21
F0.58149973209947348
sS'trials.thisTrialN'
p157
I6
sa(dp158
g31
g32
sg17
F36.052471083588898
sg24
I0
sg35
g39
sg14
F36.04699264280498
sg16
g36
(g70
S'\x01\x00\x00\x00'
tRp159
sg42
g43
sg46
g47
sg15
g72
sg22
F38.232348646037281
sg64
VAnimals
p160
sg62
g112
sg49
g50
sS'trials.thisN'
p161
I7
sg19
I1
sg27
g36
(g38
S'\x00\x00\x00\x00\x00\x00\x1c@'
tRp162
sg52
g53
sg23
S'2'
sg18
F37.30962373316288
sg33
g34
sg51
g11
sg20
S'1'
sg65
g36
(g77
S'\x00\x00\x00\x00\x00\x00\x00\x00'
tRp163
sg44
g45
sg40
g41
sg25
F0.4511969443410635
sS'trials.thisIndex'
p164
g36
(g80
S'\r\x00\x00\x00'
tRp165
sg26
V5
sS'trials.thisRepN'
p166
I0
sg66
Vcat
p167
sg63
V../experiment_stimuli/bw_bc_bl/Living_Things/Animals/cat_1.jpg
p168
sg21
F0.90218940237537026
sS'trials.thisTrialN'
p169
I7
sa(dp170
g31
g32
sg17
F40.422139608766884
sg24
I1
sg35
g39
sg14
F40.416468031704426
sg16
g36
(g70
S'\x01\x00\x00\x00'
tRp171
sg42
g43
sg46
g47
sg15
g124
sg22
F41.810142008122057
sg64
g148
sg62
g74
sg49
g50
sS'trials.thisN'
p172
I8
sg19
I1
sg27
g36
(g38
S'\x00\x00\x00\x00\x00\x00\x18@'
tRp173
sg52
g53
sg23
S'1'
sg18
F41.669091656338423
sg33
g34
sg51
g11
sg20
S'1'
sg65
g36
(g77
S'\x00\x00\x00\x00\x00\x00\x00\x00'
tRp174
sg44
g45
sg40
g41
sg25
F0.22054532635957003
sS'trials.thisIndex'
p175
g36
(g80
S':\x00\x00\x00'
tRp176
sg26
V5
sS'trials.thisRepN'
p177
I0
sg66
Vpalace
p178
sg63
V../experiment_stimuli/bw_bc_bl/Nonliving_Things/Buildings/palace_25.jpg
p179
sg21
F0.12049114983528852
sS'trials.thisTrialN'
p180
I8
sa(dp181
g31
g32
sg17
F43.768588990904391
sg24
I0
sg35
g39
sg14
F43.763747123535722
sg16
g36
(g70
S'\x01\x00\x00\x00'
tRp182
sg42
g43
sg46
g47
sg15
g72
sg22
F46.079426745418459
sg64
VInsects
p183
sg62
g112
sg49
g50
sS'trials.thisN'
p184
I9
sg19
I0
sg27
g36
(g38
S'\x00\x00\x00\x00\x00\x00\x1a@'
tRp185
sg52
g53
sg23
S'2'
sg18
F45.026394525542855
sg33
g34
sg51
g11
sg20
S'2'
sg65
g36
(g77
S'\x00\x00\x00\x00\x00\x00\x00\x00'
tRp186
sg44
g45
sg40
g41
sg25
F0.51133924070745707
sS'trials.thisIndex'
p187
g36
(g80
S'-\x00\x00\x00'
tRp188
sg26
V5
sS'trials.thisRepN'
p189
I0
sg66
Vladybird
p190
sg63
V../experiment_stimuli/bw_bc_bl/Living_Things/Insects/ladybird_19.jpg
p191
sg21
F1.0324740670621395
sS'trials.thisTrialN'
p192
I9
sa(dp193
g31
g32
sg17
F48.328493874054402
sg24
I0
sg35
g39
sg14
F48.323656894266605
sg16
g36
(g70
S'\x02\x00\x00\x00'
tRp194
sg42
g43
sg46
g47
sg15
g124
sg22
F51.080285869538784
sg64
VMarine_creatures
p195
sg62
g112
sg49
g50
sS'trials.thisN'
p196
I10
sg19
I1
sg27
g36
(g38
S'\x00\x00\x00\x00\x00\x00\x18@'
tRp197
sg52
g53
sg23
S'2'
sg18
F49.576283100992441
sg33
g34
sg51
g11
sg20
S'2'
sg65
g36
(g77
S'\x00\x00\x00\x00\x00\x00\x00\x00'
tRp198
sg44
g45
sg40
g41
sg25
F0.97233485663309693
sS'trials.thisIndex'
p199
g36
(g80
S'4\x00\x00\x00'
tRp200
sg26
V5
sS'trials.thisRepN'
p201
I0
sg66
Vmanatee
p202
sg63
V../experiment_stimuli/bw_bc_bl/Living_Things/Marine_creatures/manatee_1.jpg
p203
sg21
F1.4834524989128113
sS'trials.thisTrialN'
p204
I10
sa(dp205
g31
g32
sg17
F53.790422173216939
sg24
I1
sg35
g39
sg14
F53.785540517419577
sg16
g36
(g70
S'\x02\x00\x00\x00'
tRp206
sg42
g43
sg46
g47
sg15
g72
sg22
F55.139157518744469
sg64
VVehicles
p207
sg62
g74
sg49
g50
sS'trials.thisN'
p208
I11
sg19
I1
sg27
g36
(g38
S'\x00\x00\x00\x00\x00\x00\x1e@'
tRp209
sg52
g53
sg23
S'1'
sg18
F55.028132044710219
sg33
g34
sg51
g11
sg20
S'2'
sg65
g36
(g77
S'\x00\x00\x00\x00\x00\x00\x00\x00'
tRp210
sg44
g45
sg40
g41
sg25
F0.16061961697414517
sS'trials.thisIndex'
p211
g36
(g80
S'\x0b\x00\x00\x00'
tRp212
sg26
V5
sS'trials.thisRepN'
p213
I0
sg66
Vcar
p214
sg63
V../experiment_stimuli/bw_bc_bl/Nonliving_Things/Vehicles/car_19.jpg
p215
sg21
F0.090428787283599377
sS'trials.thisTrialN'
p216
I11
sa(dp217
g31
g32
sg17
F57.037405581213534
sg24
I1
sg35
g39
sg14
F57.032597056124359
sg16
g36
(g70
S'\x01\x00\x00\x00'
tRp218
sg42
g43
sg46
g47
sg15
g72
sg22
F60.170049412176013
sg64
g111
sg62
g112
sg49
g50
sS'trials.thisN'
p219
I12
sg19
I1
sg27
g36
(g38
S'\x00\x00\x00\x00\x00\x00\x1a@'
tRp220
sg52
g53
sg23
S'1'
sg18
F58.305260743014514
sg33
g34
sg51
g11
sg20
S'1'
sg65
g36
(g77
S'\x00\x00\x00\x00\x00\x00\x00\x00'
tRp221
sg44
g45
sg40
g41
sg25
F0.25061704590916634
sS'trials.thisIndex'
p222
g36
(g80
S'<\x00\x00\x00'
tRp223
sg26
V5
sS'trials.thisRepN'
p224
I0
sg66
Vpelican
p225
sg63
V../experiment_stimuli/bw_bc_bl/Living_Things/Birds/pelican_19.jpg
p226
sg21
F1.8442483129911125
sS'trials.thisTrialN'
p227
I12
sa(dp228
g31
g32
sg17
F62.158649696037173
sg24
I0
sg35
g39
sg14
F62.153718845453113
sg16
g36
(g70
S'\x01\x00\x00\x00'
tRp229
sg42
g43
sg46
g47
sg15
g124
sg22
F65.221036029513925
sg64
g207
sg62
g74
sg49
g50
sS'trials.thisN'
p230
I13
sg19
I1
sg27
g36
(g38
S'\x00\x00\x00\x00\x00\x00\x1a@'
tRp231
sg52
g53
sg23
S'3'
sg18
F63.436411193571985
sg33
g34
sg51
g11
sg20
S'1'
sg65
g36
(g77
S'\x00\x00\x00\x00\x00\x00\x00\x00'
tRp232
sg44
g45
sg40
g41
sg25
F0.79195958282798529
sS'trials.thisIndex'
p233
g36
(g80
S'\t\x00\x00\x00'
tRp234
sg26
V5
sS'trials.thisRepN'
p235
I0
sg66
Vbus
p236
sg63
V../experiment_stimuli/bw_bc_bl/Nonliving_Things/Vehicles/bus_22.jpg
p237
sg21
F1.7640606155619025
sS'trials.thisTrialN'
p238
I13
sa(dp239
g31
g32
sg17
F67.751390956807882
sg24
I1
sg35
g39
sg14
F67.745874212123454
sg16
g36
(g70
S'\x02\x00\x00\x00'
tRp240
sg42
g43
sg46
g47
sg15
g124
sg22
F69.169639404397458
sg64
g111
sg62
g112
sg49
g50
sS'trials.thisN'
p241
I14
sg19
I0
sg27
g36
(g38
S'\x00\x00\x00\x00\x00\x00\x18@'
tRp242
sg52
g53
sg23
S'1'
sg18
F68.998507265001535
sg33
g34
sg51
g11
sg20
S'1'
sg65
g36
(g77
S'\x00\x00\x00\x00\x00\x00\x00\x00'
tRp243
sg44
g45
sg40
g41
sg25
F1.4032711475156248
sS'trials.thisIndex'
p244
g36
(g80
S'\x1a\x00\x00\x00'
tRp245
sg26
V5
sS'trials.thisRepN'
p246
I0
sg66
Vduck
p247
sg63
V../experiment_stimuli/bw_bc_bl/Living_Things/Birds/duck_1.jpg
p248
sg21
F0.15056925313547254
sS'trials.thisTrialN'
p249
I14
sa(dp250
g31
g32
sg17
F72.311499950010329
sg24
I0
sg35
g39
sg14
F72.305791576392949
sg16
g36
(g70
S'\x02\x00\x00\x00'
tRp251
sg42
g43
sg46
g47
sg15
g72
sg22
F74.761774448212236
sg64
VMusical_Inst
p252
sg62
g74
sg49
g50
sS'trials.thisN'
p253
I15
sg19
I1
sg27
g36
(g38
S'\x00\x00\x00\x00\x00\x00\x18@'
tRp254
sg52
g53
sg23
S'3'
sg18
F73.588485634885728
sg33
g34
sg51
g11
sg20
S'2'
sg65
g36
(g77
S'\x00\x00\x00\x00\x00\x00\x00\x00'
tRp255
sg44
g45
sg40
g41
sg25
F0.29085157904773951
sS'trials.thisIndex'
p256
g36
(g80
S'Y\x00\x00\x00'
tRp257
sg26
V5
sS'trials.thisRepN'
p258
I0
sg66
Vtuba
p259
sg63
V../experiment_stimuli/bw_bc_bl/Nonliving_Things/Musical_Inst/tuba_26.jpg
p260
sg21
F1.1527319084852934
sS'trials.thisTrialN'
p261
I15
sa(dp262
g31
g32
sg17
F76.79027013387531
sg24
I0
sg35
g39
sg14
F76.785532242618501
sg16
g36
(g70
S'\x02\x00\x00\x00'
tRp263
sg42
g43
sg46
g47
sg15
g72
sg22
F78.560027239378542
sg64
g73
sg62
g74
sg49
g50
sS'trials.thisN'
p264
I16
sg19
I1
sg27
g36
(g38
S'\x00\x00\x00\x00\x00\x00\x18@'
tRp265
sg52
g53
sg23
S'2'
sg18
F78.048186825122684
sg33
g34
sg51
g11
sg20
S'2'
sg65
g36
(g77
S'\x00\x00\x00\x00\x00\x00\x00\x00'
tRp266
sg44
g45
sg40
g41
sg25
F0.60153225343674421
sS'trials.thisIndex'
p267
g36
(g80
S'\x02\x00\x00\x00'
tRp268
sg26
V5
sS'trials.thisRepN'
p269
I0
sg66
Varmchair
p270
sg63
V../experiment_stimuli/bw_bc_bl/Nonliving_Things/Furniture/armchair_1.jpg
p271
sg21
F0.49128880258649588
sS'trials.thisTrialN'
p272
I16
sa(dp273
g31
g32
sg17
F80.899314353708178
sg24
I0
sg35
g39
sg14
F80.894482708536088
sg16
g36
(g70
S'\x01\x00\x00\x00'
tRp274
sg42
g43
sg46
g47
sg15
g124
sg22
F83.119957050774246
sg64
g73
sg62
g74
sg49
g50
sS'trials.thisN'
p275
I17
sg19
I1
sg27
g36
(g38
S'\x00\x00\x00\x00\x00\x00\x1e@'
tRp276
sg52
g53
sg23
S'3'
sg18
F82.147099269088358
sg33
g34
sg51
g11
sg20
S'1'
sg65
g36
(g77
S'\x00\x00\x00\x00\x00\x00\x00\x00'
tRp277
sg44
g45
sg40
g41
sg25
F0.29084827471524477
sS'trials.thisIndex'
p278
g36
(g80
S']\x00\x00\x00'
tRp279
sg26
V5
sS'trials.thisRepN'
p280
I0
sg66
Vwardrobe
p281
sg63
V../experiment_stimuli/bw_bc_bl/Nonliving_Things/Furniture/wardrobe_8.jpg
p282
sg21
F0.9523114780895412
sS'trials.thisTrialN'
p283
I17
sa(dp284
g31
g32
sg17
F85.149243398103863
sg24
I1
sg35
g39
sg14
F85.143699718173593
sg16
g36
(g70
S'\x02\x00\x00\x00'
tRp285
sg42
g43
sg46
g47
sg15
g124
sg22
F86.467230292968452
sg64
g111
sg62
g112
sg49
g50
sS'trials.thisN'
p286
I18
sg19
I1
sg27
g36
(g38
S'\x00\x00\x00\x00\x00\x00\x1a@'
tRp287
sg52
g53
sg23
S'1'
sg18
F86.376287091523409
sg33
g34
sg51
g11
sg20
S'2'
sg65
g36
(g77
S'\x00\x00\x00\x00\x00\x00\x00\x00'
tRp288
sg44
g45
sg40
g41
sg25
F0.18061559041962028
sS'trials.thisIndex'
p289
g36
(g80
S'"\x00\x00\x00'
tRp290
sg26
V5
sS'trials.thisRepN'
p291
I0
sg66
Vgoose
p292
sg63
V../experiment_stimuli/bw_bc_bl/Living_Things/Birds/goose_11.jpg
p293
sg21
F0.070382845588028431
sS'trials.thisTrialN'
p294
I18
sa(dp295
g31
g32
sg17
F88.387120090890676
sg24
I1
sg35
g39
sg14
F88.3807388022542
sg16
g36
(g70
S'\x01\x00\x00\x00'
tRp296
sg42
g43
sg46
g47
sg15
g124
sg22
F89.714271335862577
sg64
g99
sg62
g74
sg49
g50
sS'trials.thisN'
p297
I19
sg19
I1
sg27
g36
(g38
S'\x00\x00\x00\x00\x00\x00 @'
tRp298
sg52
g53
sg23
S'1'
sg18
F89.623348547611386
sg33
g34
sg51
g11
sg20
S'1'
sg65
g36
(g77
S'\x00\x00\x00\x00\x00\x00\x00\x00'
tRp299
sg44
g45
sg40
g41
sg25
F1.9845428713597357
sS'trials.thisIndex'
p300
g36
(g80
S'%\x00\x00\x00'
tRp301
sg26
V5
sS'trials.thisRepN'
p302
I0
sg66
Vhammer
p303
sg63
V../experiment_stimuli/bw_bc_bl/Nonliving_Things/Tools/hammer_13.jpg
p304
sg21
F0.070386759005486965
sS'trials.thisTrialN'
p305
I19
sa(dp306
g31
g32
sg17
F93.436722547281533
sg24
I0
sg35
g39
sg14
F93.431719412095845
sg16
g36
(g70
S'\x01\x00\x00\x00'
tRp307
sg42
g43
sg46
g47
sg15
g124
sg22
F96.499032077379525
sg64
g207
sg62
g74
sg49
g50
sS'trials.thisN'
p308
I20
sg19
I1
sg27
g36
(g38
S'\x00\x00\x00\x00\x00\x00\x1a@'
tRp309
sg52
g53
sg23
S'2'
sg18
F94.694367565680295
sg33
g34
sg51
g11
sg20
S'1'
sg65
g36
(g77
S'\x00\x00\x00\x00\x00\x00\x00\x00'
tRp310
sg44
g45
sg40
g41
sg25
F0.22075210511684418
sS'trials.thisIndex'
p311
g36
(g80
S'V\x00\x00\x00'
tRp312
sg26
V5
sS'trials.thisRepN'
p313
I0
sg66
Vtractor
p314
sg63
V../experiment_stimuli/bw_bc_bl/Nonliving_Things/Vehicles/tractor_13.jpg
p315
sg21
F1.7841003774665296
sS'trials.thisTrialN'
p316
I20
sa(dp317
g31
g32
sg17
F98.457586403936148
sg24
I0
sg35
g39
sg14
F98.452638933435082
sg16
g36
(g70
S'\x01\x00\x00\x00'
tRp318
sg42
g43
sg46
g47
sg15
g124
sg22
F103.15352603048086
sg64
g73
sg62
g74
sg49
g50
sS'trials.thisN'
p319
I21
sg19
I1
sg27
g36
(g38
S'\x00\x00\x00\x00\x00\x00 @'
tRp320
sg52
g53
sg23
S'3'
sg18
F99.705278354696929
sg33
g34
sg51
g11
sg20
S'1'
sg65
g36
(g77
S'\x00\x00\x00\x00\x00\x00\x00\x00'
tRp321
sg44
g45
sg40
g41
sg25
F0.20065809227526188
sS'trials.thisIndex'
p322
g36
(g80
S'Q\x00\x00\x00'
tRp323
sg26
V5
sS'trials.thisRepN'
p324
I0
sg66
Vtable
p325
sg63
V../experiment_stimuli/bw_bc_bl/Nonliving_Things/Furniture/table_5.jpg
p326
sg21
F3.4276800532825291
sS'trials.thisTrialN'
p327
I21
sa(dp328
g31
g32
sg17
F105.09360167430714
sg24
I1
sg35
g39
sg14
F105.08706014417112
sg16
g36
(g70
S'\x01\x00\x00\x00'
tRp329
sg42
g43
sg46
g47
sg15
g124
sg22
F106.61087700817734
sg64
g207
sg62
g74
sg49
g50
sS'trials.thisN'
p330
I22
sg19
I1
sg27
g36
(g38
S'\x00\x00\x00\x00\x00\x00\x1c@'
tRp331
sg52
g53
sg23
S'1'
sg18
F106.31964160036296
sg33
g34
sg51
g11
sg20
S'1'
sg65
g36
(g77
S'\x00\x00\x00\x00\x00\x00\x00\x00'
tRp332
sg44
g45
sg40
g41
sg25
F0.22079030377790332
sS'trials.thisIndex'
p333
g36
(g80
S'L\x00\x00\x00'
tRp334
sg26
V5
sS'trials.thisRepN'
p335
I0
sg66
Vship
p336
sg63
V../experiment_stimuli/bw_bc_bl/Nonliving_Things/Vehicles/ship_8.jpg
p337
sg21
F0.27066710079088807
sS'trials.thisTrialN'
p338
I22
sa(dp339
g31
g32
sg17
F108.57122796354815
sg24
I0
sg35
g39
sg14
F108.5646430272609
sg16
g36
(g70
S'\x01\x00\x00\x00'
tRp340
sg42
g43
sg46
g47
sg15
g124
sg22
F110.81015040632337
sg64
g148
sg62
g74
sg49
g50
sS'trials.thisN'
p341
I23
sg19
I0
sg27
g36
(g38
S'\x00\x00\x00\x00\x00\x00\x1a@'
tRp342
sg52
g53
sg23
S'2'
sg18
F109.80722091253847
sg33
g34
sg51
g11
sg20
S'2'
sg65
g36
(g77
S'\x00\x00\x00\x00\x00\x00\x00\x00'
tRp343
sg44
g45
sg40
g41
sg25
F0.32092404318973422
sS'trials.thisIndex'
p344
g36
(g80
S'\x11\x00\x00\x00'
tRp345
sg26
V5
sS'trials.thisRepN'
p346
I0
sg66
Vchurch
p347
sg63
V../experiment_stimuli/bw_bc_bl/Nonliving_Things/Buildings/church_15.jpg
p348
sg21
F0.98236041981726885
sS'trials.thisTrialN'
p349
I23
sa(dp350
g31
g32
sg17
F112.86887311795726
sg24
I1
sg35
g39
sg14
F112.86395915411413
sg16
g36
(g70
S'\x01\x00\x00\x00'
tRp351
sg42
g43
sg46
g47
sg15
g72
sg22
F114.11826006276533
sg64
g183
sg62
g112
sg49
g50
sS'trials.thisN'
p352
I24
sg19
I1
sg27
g36
(g38
S'\x00\x00\x00\x00\x00\x00\x18@'
tRp353
sg52
g53
sg23
S'1'
sg18
F114.09655319713056
sg33
g34
sg51
g11
sg20
S'1'
sg65
g36
(g77
S'\x00\x00\x00\x00\x00\x00\x00\x00'
tRp354
sg44
g45
sg40
g41
sg25
F0.23072882369160652
sS'trials.thisIndex'
p355
g36
(g80
S'\x18\x00\x00\x00'
tRp356
sg26
V5
sS'trials.thisRepN'
p357
I0
sg66
Vdragonfly
p358
sg63
V../experiment_stimuli/bw_bc_bl/Living_Things/Insects/dragonfly_19.jpg
p359
sg21
F0.00027171056717634201
sS'trials.thisTrialN'
p360
I24
sa(dp361
g31
g32
sg17
F116.08672219095752
sg24
I0
sg35
g39
sg14
F116.08095901412889
sg16
g36
(g70
S'\x01\x00\x00\x00'
tRp362
sg42
g43
sg46
g47
sg15
g72
sg22
F118.41671358142048
sg64
g195
sg62
g112
sg49
g50
sS'trials.thisN'
p363
I25
sg19
I0
sg27
g36
(g38
S'\x00\x00\x00\x00\x00\x00\x18@'
tRp364
sg52
g53
sg23
S'2'
sg18
F117.33358451444656
sg33
g34
sg51
g11
sg20
S'2'
sg65
g36
(g77
S'\x00\x00\x00\x00\x00\x00\x00\x00'
tRp365
sg44
g45
sg40
g41
sg25
F0.25076202908530831
sS'trials.thisIndex'
p366
g36
(g80
S'\x17\x00\x00\x00'
tRp367
sg26
V5
sS'trials.thisRepN'
p368
I0
sg66
Vdolphin
p369
sg63
V../experiment_stimuli/bw_bc_bl/Living_Things/Marine_creatures/dolphin_13.jpg
p370
sg21
F1.0525278961285949
sS'trials.thisTrialN'
p371
I25
sa(dp372
g31
g32
sg17
F120.40517021296546
sg24
I1
sg35
g39
sg14
F120.40036399196833
sg16
g36
(g70
S'\x02\x00\x00\x00'
tRp373
sg42
g43
sg46
g47
sg15
g124
sg22
F122.05458047008142
sg64
g195
sg62
g112
sg49
g50
sS'trials.thisN'
p374
I26
sg19
I0
sg27
g36
(g38
S'\x00\x00\x00\x00\x00\x00\x18@'
tRp375
sg52
g53
sg23
S'1'
sg18
F121.6429531625472
sg33
g34
sg51
g11
sg20
S'1'
sg65
g36
(g77
S'\x00\x00\x00\x00\x00\x00\x00\x00'
tRp376
sg44
g45
sg40
g41
sg25
F0.23071884643286467
sS'trials.thisIndex'
p377
g36
(g80
S'K\x00\x00\x00'
tRp378
sg26
V5
sS'trials.thisRepN'
p379
I0
sg66
Vshark
p380
sg63
V../experiment_stimuli/bw_bc_bl/Living_Things/Marine_creatures/shark_0.jpg
p381
sg21
F0.3810480204410851
sS'trials.thisTrialN'
p382
I26
sa(dp383
g31
g32
sg17
F124.02389379683882
sg24
I0
sg35
g39
sg14
F124.01821749843657
sg16
g36
(g70
S'\x02\x00\x00\x00'
tRp384
sg42
g43
sg46
g47
sg15
g124
sg22
F126.10337875597179
sg64
g111
sg62
g112
sg49
g50
sS'trials.thisN'
p385
I27
sg19
I0
sg27
g36
(g38
S'\x00\x00\x00\x00\x00\x00\x18@'
tRp386
sg52
g53
sg23
S'3'
sg18
F125.29088065167889
sg33
g34
sg51
g11
sg20
S'1'
sg65
g36
(g77
S'\x00\x00\x00\x00\x00\x00\x00\x00'
tRp387
sg44
g45
sg40
g41
sg25
F0.20064750593155622
sS'trials.thisIndex'
p388
g36
(g80
S'F\x00\x00\x00'
tRp389
sg26
V5
sS'trials.thisRepN'
p390
I0
sg66
Vrooster
p391
sg63
V../experiment_stimuli/bw_bc_bl/Living_Things/Birds/rooster_23.jpg
p392
sg21
F0.79194315802305937
sS'trials.thisTrialN'
p393
I27
sa(dp394
g31
g32
sg17
F128.0418070438318
sg24
I0
sg35
g39
sg14
F128.03696081228554
sg16
g36
(g70
S'\x01\x00\x00\x00'
tRp395
sg42
g43
sg46
g47
sg15
g72
sg22
F131.73546945303679
sg64
g160
sg62
g112
sg49
g50
sS'trials.thisN'
p396
I28
sg19
I1
sg27
g36
(g38
S'\x00\x00\x00\x00\x00\x00\x1e@'
tRp397
sg52
g53
sg23
S'2'
sg18
F129.28957659844309
sg33
g34
sg51
g11
sg20
S'1'
sg65
g36
(g77
S'\x00\x00\x00\x00\x00\x00\x00\x00'
tRp398
sg44
g45
sg40
g41
sg25
F0.30087424395605922
sS'trials.thisIndex'
p399
g36
(g80
S"'\x00\x00\x00"
tRp400
sg26
V5
sS'trials.thisRepN'
p401
I0
sg66
Vhippopotamus
p402
sg63
V../experiment_stimuli/bw_bc_bl/Living_Things/Animals/hippopotamus_3.jpg
p403
sg21
F2.4253386110067368
sS'trials.thisTrialN'
p404
I28
sa(dp405
g31
g32
sg17
F133.77599540259689
sg24
I1
sg35
g39
sg14
F133.76941113220528
sg16
g36
(g70
S'\x01\x00\x00\x00'
tRp406
sg42
g43
sg46
g47
sg15
g72
sg22
F135.17295721173286
sg64
g160
sg62
g112
sg49
g50
sS'trials.thisN'
p407
I29
sg19
I1
sg27
g36
(g38
S'\x00\x00\x00\x00\x00\x00\x1e@'
tRp408
sg52
g53
sg23
S'1'
sg18
F135.01201491896063
sg33
g34
sg51
g11
sg20
S'1'
sg65
g36
(g77
S'\x00\x00\x00\x00\x00\x00\x00\x00'
tRp409
sg44
g45
sg40
g41
sg25
F0.27080837683752179
sS'trials.thisIndex'
p410
g36
(g80
S'D\x00\x00\x00'
tRp411
sg26
V5
sS'trials.thisRepN'
p412
I0
sg66
Vrhino
p413
sg63
V../experiment_stimuli/bw_bc_bl/Living_Things/Animals/rhino_17.jpg
p414
sg21
F0.14037603791803122
sS'trials.thisTrialN'
p415
I29
sa(dp416
g31
g32
sg17
F137.1817131806165
sg24
I0
sg35
g39
sg14
F137.17682027257979
sg16
g36
(g70
S'\x01\x00\x00\x00'
tRp417
sg42
g43
sg46
g47
sg15
g124
sg22
F140.40451158490032
sg64
g207
sg62
g74
sg49
g50
sS'trials.thisN'
p418
I30
sg19
I1
sg27
g36
(g38
S'\x00\x00\x00\x00\x00\x00\x1a@'
tRp419
sg52
g53
sg23
S'2'
sg18
F138.43946797167882
sg33
g34
sg51
g11
sg20
S'1'
sg65
g36
(g77
S'\x00\x00\x00\x00\x00\x00\x00\x00'
tRp420
sg44
g45
sg40
g41
sg25
F0.32091501308605075
sS'trials.thisIndex'
p421
g36
(g80
S'W\x00\x00\x00'
tRp422
sg26
V5
sS'trials.thisRepN'
p423
I0
sg66
Vtrain
p424
sg63
V../experiment_stimuli/bw_bc_bl/Nonliving_Things/Vehicles/train_0.jpg
p425
sg21
F1.944476873613894
sS'trials.thisTrialN'
p426
I30
sa(dp427
g31
g32
sg17
F142.46403137175366
sg24
I0
sg35
g39
sg14
F142.45830213744193
sg16
g36
(g70
S'\x01\x00\x00\x00'
tRp428
sg42
g43
sg46
g47
sg15
g72
sg22
F145.88640033174306
sg64
g111
sg62
g112
sg49
g50
sS'trials.thisN'
p429
I31
sg19
I1
sg27
g36
(g38
S'\x00\x00\x00\x00\x00\x00\x1c@'
tRp430
sg52
g53
sg23
S'2'
sg18
F143.71092741610482
sg33
g34
sg51
g11
sg20
S'1'
sg65
g36
(g77
S'\x00\x00\x00\x00\x00\x00\x00\x00'
tRp431
sg44
g45
sg40
g41
sg25
F0.28082698211073875
sS'trials.thisIndex'
p432
g36
(g80
S'C\x00\x00\x00'
tRp433
sg26
V5
sS'trials.thisRepN'
p434
I0
sg66
Vraven
p435
sg63
V../experiment_stimuli/bw_bc_bl/Living_Things/Birds/raven_4.jpg
p436
sg21
F2.1549103111028671
sS'trials.thisTrialN'
p437
I31
sa(dp438
g31
g32
sg17
F147.90677824662998
sg24
I1
sg35
g39
sg14
F147.90014143940061
sg16
g36
(g70
S'\x01\x00\x00\x00'
tRp439
sg42
g43
sg46
g47
sg15
g72
sg22
F149.30382740404457
sg64
g111
sg62
g112
sg49
g50
sS'trials.thisN'
p440
I32
sg19
I1
sg27
g36
(g38
S'\x00\x00\x00\x00\x00\x00\x18@'
tRp441
sg52
g53
sg23
S'1'
sg18
F149.14275177102536
sg33
g34
sg51
g11
sg20
S'1'
sg65
g36
(g77
S'\x00\x00\x00\x00\x00\x00\x00\x00'
tRp442
sg44
g45
sg40
g41
sg25
F0.22071971138939261
sS'trials.thisIndex'
p443
g36
(g80
S'!\x00\x00\x00'
tRp444
sg26
V5
sS'trials.thisRepN'
p445
I0
sg66
Vgoldfinch
p446
sg63
V../experiment_stimuli/bw_bc_bl/Living_Things/Birds/goldfinch_0.jpg
p447
sg21
F0.1405211566016078
sS'trials.thisTrialN'
p448
I32
sa(dp449
g31
g32
sg17
F151.26241837302223
sg24
I0
sg35
g39
sg14
F151.2574344817549
sg16
g36
(g70
S'\x01\x00\x00\x00'
tRp450
sg42
g43
sg46
g47
sg15
g124
sg22
F153.87377058714628
sg64
g252
sg62
g74
sg49
g50
sS'trials.thisN'
p451
I33
sg19
I1
sg27
g36
(g38
S'\x00\x00\x00\x00\x00\x00\x18@'
tRp452
sg52
g53
sg23
S'3'
sg18
F152.52008397411555
sg33
g34
sg51
g11
sg20
S'1'
sg65
g36
(g77
S'\x00\x00\x00\x00\x00\x00\x00\x00'
tRp453
sg44
g45
sg40
g41
sg25
F0.55142493359744549
sS'trials.thisIndex'
p454
g36
(g80
S'$\x00\x00\x00'
tRp455
sg26
V5
sS'trials.thisRepN'
p456
I0
sg66
Vguitar
p457
sg63
V../experiment_stimuli/bw_bc_bl/Nonliving_Things/Musical_Inst/guitar_12.jpg
p458
sg21
F1.3331191786564887
sS'trials.thisTrialN'
p459
I33
sa(dp460
g31
g32
sg17
F156.16310871392488
sg24
I1
sg35
g39
sg14
F156.15809875167906
sg16
g36
(g70
S'\x01\x00\x00\x00'
tRp461
sg42
g43
sg46
g47
sg15
g124
sg22
F157.65197598887607
sg64
g148
sg62
g74
sg49
g50
sS'trials.thisN'
p462
I34
sg19
I0
sg27
g36
(g38
S'\x00\x00\x00\x00\x00\x00\x18@'
tRp463
sg52
g53
sg23
S'1'
sg18
F157.40069169271737
sg33
g34
sg51
g11
sg20
S'2'
sg65
g36
(g77
S'\x00\x00\x00\x00\x00\x00\x00\x00'
tRp464
sg44
g45
sg40
g41
sg25
F0.17063390230759978
sS'trials.thisIndex'
p465
g36
(g80
S'\x0e\x00\x00\x00'
tRp466
sg26
V5
sS'trials.thisRepN'
p467
I0
sg66
Vcathedral
p468
sg63
V../experiment_stimuli/bw_bc_bl/Nonliving_Things/Buildings/cathedral_0.jpg
p469
sg21
F0.2307230718433857
sS'trials.thisTrialN'
p470
I34
sa(dp471
g31
g32
sg17
F159.56126432167366
sg24
I0
sg35
g39
sg14
F159.55547490436584
sg16
g36
(g70
S'\x01\x00\x00\x00'
tRp472
sg42
g43
sg46
g47
sg15
g124
sg22
F166.17050956189632
sg64
g125
sg62
g74
sg49
g50
sS'trials.thisN'
p473
I35
sg19
I1
sg27
g36
(g38
S'\x00\x00\x00\x00\x00\x00\x18@'
tRp474
sg52
g53
sg23
S'3'
sg18
F160.81812158040702
sg33
g34
sg51
g11
sg20
S'1'
sg65
g36
(g77
S'\x00\x00\x00\x00\x00\x00\x00\x00'
tRp475
sg44
g45
sg40
g41
sg25
F0.62157212430611253
sS'trials.thisIndex'
p476
g36
(g80
S'\x16\x00\x00\x00'
tRp477
sg26
V5
sS'trials.thisRepN'
p478
I0
sg66
Vcup
p479
sg63
V../experiment_stimuli/bw_bc_bl/Nonliving_Things/Kitchen_Uten/cup_23.jpg
p480
sg21
F5.3318260535597801
sS'trials.thisTrialN'
p481
I35
sa(dp482
g31
g32
sg17
F168.53014274220914
sg24
I0
sg35
g39
sg14
F168.52497072564438
sg16
g36
(g70
S'\x01\x00\x00\x00'
tRp483
sg42
g43
sg46
g47
sg15
g72
sg22
F169.8584878644906
sg64
g160
sg62
g112
sg49
g50
sS'trials.thisN'
p484
I36
sg19
I1
sg27
g36
(g38
S'\x00\x00\x00\x00\x00\x00\x18@'
tRp485
sg52
g53
sg23
S'2'
sg18
F169.76757511403412
sg33
g34
sg51
g11
sg20
S'1'
sg65
g36
(g77
S'\x00\x00\x00\x00\x00\x00\x00\x00'
tRp486
sg44
g45
sg40
g41
sg25
F0.21067701652646065
sS'trials.thisIndex'
p487
g36
(g80
S'2\x00\x00\x00'
tRp488
sg26
V5
sS'trials.thisRepN'
p489
I0
sg66
Vlynx
p490
sg63
V../experiment_stimuli/bw_bc_bl/Living_Things/Animals/lynx_25.jpg
p491
sg21
F0.070372868329286575
sS'trials.thisTrialN'
p492
I36
sa(dp493
g31
g32
sg17
F171.80709148058668
sg24
I1
sg35
g39
sg14
F171.80209864163771
sg16
g36
(g70
S'\x01\x00\x00\x00'
tRp494
sg42
g43
sg46
g47
sg15
g72
sg22
F173.32607217365876
sg64
g195
sg62
g112
sg49
g50
sS'trials.thisN'
p495
I37
sg19
I0
sg27
g36
(g38
S'\x00\x00\x00\x00\x00\x00\x1a@'
tRp496
sg52
g53
sg23
S'1'
sg18
F173.03467965871096
sg33
g34
sg51
g11
sg20
S'2'
sg65
g36
(g77
S'\x00\x00\x00\x00\x00\x00\x00\x00'
tRp497
sg44
g45
sg40
g41
sg25
F0.13050146959722042
sS'trials.thisIndex'
p498
g36
(g80
S'1\x00\x00\x00'
tRp499
sg26
V5
sS'trials.thisRepN'
p500
I0
sg66
Vlobster
p501
sg63
V../experiment_stimuli/bw_bc_bl/Living_Things/Marine_creatures/lobster_15.jpg
p502
sg21
F0.27082411805167794
sS'trials.thisTrialN'
p503
I37
sa(dp504
g31
g32
sg17
F175.19434010516852
sg24
I0
sg35
g39
sg14
F175.18946423474699
sg16
g36
(g70
S'\x02\x00\x00\x00'
tRp505
sg42
g43
sg46
g47
sg15
g72
sg22
F177.82583036180586
sg64
g73
sg62
g74
sg49
g50
sS'trials.thisN'
p506
I38
sg19
I1
sg27
g36
(g38
S'\x00\x00\x00\x00\x00\x00\x1c@'
tRp507
sg52
g53
sg23
S'2'
sg18
F176.44208538578823
sg33
g34
sg51
g11
sg20
S'2'
sg65
g36
(g77
S'\x00\x00\x00\x00\x00\x00\x00\x00'
tRp508
sg44
g45
sg40
g41
sg25
F0.200648442376405
sS'trials.thisIndex'
p509
g36
(g80
S'\x05\x00\x00\x00'
tRp510
sg26
V5
sS'trials.thisRepN'
p511
I0
sg66
Vbed
p512
sg63
V../experiment_stimuli/bw_bc_bl/Nonliving_Things/Furniture/bed_6.jpg
p513
sg21
F1.3631909321993589
sS'trials.thisTrialN'
p514
I38
sa(dp515
g31
g32
sg17
F179.76421720674261
sg24
I1
sg35
g39
sg14
F179.75939937308431
sg16
g36
(g70
S'\x02\x00\x00\x00'
tRp516
sg42
g43
sg46
g47
sg15
g72
sg22
F181.09294747747481
sg64
g73
sg62
g74
sg49
g50
sS'trials.thisN'
p517
I39
sg19
I0
sg27
g36
(g38
S'\x00\x00\x00\x00\x00\x00\x1c@'
tRp518
sg52
g53
sg23
S'1'
sg18
F181.00200066715479
sg33
g34
sg51
g11
sg20
S'1'
sg65
g36
(g77
S'\x00\x00\x00\x00\x00\x00\x00\x00'
tRp519
sg44
g45
sg40
g41
sg25
F0.21067885123193264
sS'trials.thisIndex'
p520
g36
(g80
S'\x08\x00\x00\x00'
tRp521
sg26
V5
sS'trials.thisRepN'
p522
I0
sg66
Vbookcase
p523
sg63
V../experiment_stimuli/bw_bc_bl/Nonliving_Things/Furniture/bookcase_23.jpg
p524
sg21
F0.070398307405412197
sS'trials.thisTrialN'
p525
I39
sa(dp526
g31
g32
sg17
F183.04244926478714
sg24
I1
sg35
g39
sg14
F183.03651877027005
sg16
g36
(g70
S'\x02\x00\x00\x00'
tRp527
sg42
g43
sg46
g47
sg15
g124
sg22
F184.70079382648692
sg64
g195
sg62
g112
sg49
g50
sS'trials.thisN'
p528
I40
sg19
I1
sg27
g36
(g38
S'\x00\x00\x00\x00\x00\x00\x18@'
tRp529
sg52
g53
sg23
S'1'
sg18
F184.28914834978059
sg33
g34
sg51
g11
sg20
S'2'
sg65
g36
(g77
S'\x00\x00\x00\x00\x00\x00\x00\x00'
tRp530
sg44
g45
sg40
g41
sg25
F0.060198615305125713
sS'trials.thisIndex'
p531
g36
(g80
S'P\x00\x00\x00'
tRp532
sg26
V5
sS'trials.thisRepN'
p533
I0
sg66
Vsperm-whale
p534
sg63
V../experiment_stimuli/bw_bc_bl/Living_Things/Marine_creatures/sperm-whale_9.jpg
p535
sg21
F0.39109383104369044
sS'trials.thisTrialN'
p536
I40
sa(dp537
g31
g32
sg17
F186.49893881147727
sg24
I0
sg35
g39
sg14
F186.49403828009963
sg16
g36
(g70
S'\x01\x00\x00\x00'
tRp538
sg42
g43
sg46
g47
sg15
g124
sg22
F189.3408582797274
sg64
g73
sg62
g74
sg49
g50
sS'trials.thisN'
p539
I41
sg19
I1
sg27
g36
(g38
S'\x00\x00\x00\x00\x00\x00\x18@'
tRp540
sg52
g53
sg23
S'3'
sg18
F187.76670545572415
sg33
g34
sg51
g11
sg20
S'1'
sg65
g36
(g77
S'\x00\x00\x00\x00\x00\x00\x00\x00'
tRp541
sg44
g45
sg40
g41
sg25
F0.2908503757789731
sS'trials.thisIndex'
p542
g36
(g80
S'N\x00\x00\x00'
tRp543
sg26
V5
sS'trials.thisRepN'
p544
I0
sg66
Vsofa
p545
sg63
V../experiment_stimuli/bw_bc_bl/Nonliving_Things/Furniture/sofa_9.jpg
p546
sg21
F1.5536067089997232
sS'trials.thisTrialN'
p547
I41
sa(dp548
g31
g32
sg17
F191.36953629786149
sg24
I1
sg35
g39
sg14
F191.36463416460901
sg16
g36
(g70
S'\x01\x00\x00\x00'
tRp549
sg42
g43
sg46
g47
sg15
g72
sg22
F195.65459374478087
sg64
g111
sg62
g112
sg49
g50
sS'trials.thisN'
p550
I42
sg19
I0
sg27
g36
(g38
S'\x00\x00\x00\x00\x00\x00\x1c@'
tRp551
sg52
g53
sg23
S'1'
sg18
F192.61725409375504
sg33
g34
sg51
g11
sg20
S'2'
sg65
g36
(g77
S'\x00\x00\x00\x00\x00\x00\x00\x00'
tRp552
sg44
g45
sg40
g41
sg25
F0.10048438794910908
sS'trials.thisIndex'
p553
g36
(g80
S',\x00\x00\x00'
tRp554
sg26
V5
sS'trials.thisRepN'
p555
I0
sg66
Vkiwi
p556
sg63
V../experiment_stimuli/bw_bc_bl/Living_Things/Birds/kiwi_7.jpg
p557
sg21
F3.0167845054529607
sS'trials.thisTrialN'
p558
I42
sa(dp559
g31
g32
sg17
F197.49281761050224
sg24
I1
sg35
g39
sg14
F197.48794393939897
sg16
g36
(g70
S'\x01\x00\x00\x00'
tRp560
sg42
g43
sg46
g47
sg15
g72
sg22
F200.04413327062503
sg64
g160
sg62
g112
sg49
g50
sS'trials.thisN'
p561
I43
sg19
I0
sg27
g36
(g38
S'\x00\x00\x00\x00\x00\x00\x1e@'
tRp562
sg52
g53
sg23
S'1'
sg18
F198.76061246870086
sg33
g34
sg51
g11
sg20
S'2'
sg65
g36
(g77
S'\x00\x00\x00\x00\x00\x00\x00\x00'
tRp563
sg44
g45
sg40
g41
sg25
F0.10045362170785666
sS'trials.thisIndex'
p564
g36
(g80
S'Z\x00\x00\x00'
tRp565
sg26
V5
sS'trials.thisRepN'
p566
I0
sg66
Vturtle
p567
sg63
V../experiment_stimuli/bw_bc_bl/Living_Things/Animals/turtle_5.jpg
p568
sg21
F1.2629711194895208
sS'trials.thisTrialN'
p569
I43
sa(dp570
g31
g32
sg17
F201.88238009857014
sg24
I1
sg35
g39
sg14
F201.87748077791184
sg16
g36
(g70
S'\x01\x00\x00\x00'
tRp571
sg42
g43
sg46
g47
sg15
g124
sg22
F203.4314891458489
sg64
g148
sg62
g74
sg49
g50
sS'trials.thisN'
p572
I44
sg19
I1
sg27
g36
(g38
S'\x00\x00\x00\x00\x00\x00\x18@'
tRp573
sg52
g53
sg23
S'1'
sg18
F203.16017696773633
sg33
g34
sg51
g11
sg20
S'1'
sg65
g36
(g77
S'\x00\x00\x00\x00\x00\x00\x00\x00'
tRp574
sg44
g45
sg40
g41
sg25
F0.28084823349490762
sS'trials.thisIndex'
p575
g36
(g80
S'5\x00\x00\x00'
tRp576
sg26
V5
sS'trials.thisRepN'
p577
I0
sg66
Vmill
p578
sg63
V../experiment_stimuli/bw_bc_bl/Nonliving_Things/Buildings/mill_5.jpg
p579
sg21
F0.25076167564839125
sS'trials.thisTrialN'
p580
I44
sa(dp581
g31
g32
sg17
F205.45118582248688
sg24
I0
sg35
g39
sg14
F205.44523809151724
sg16
g36
(g70
S'\x01\x00\x00\x00'
tRp582
sg42
g43
sg46
g47
sg15
g124
sg22
F208.88334636064246
sg64
g73
sg62
g74
sg49
g50
sS'trials.thisN'
p583
I45
sg19
I0
sg27
g36
(g38
S'\x00\x00\x00\x00\x00\x00\x1a@'
tRp584
sg52
g53
sg23
S'3'
sg18
F206.75799731351435
sg33
g34
sg51
g11
sg20
S'2'
sg65
g36
(g77
S'\x00\x00\x00\x00\x00\x00\x00\x00'
tRp585
sg44
g45
sg40
g41
sg25
F0.25076532596722245
sS'trials.thisIndex'
p586
g36
(g80
S'\x0f\x00\x00\x00'
tRp587
sg26
V5
sS'trials.thisRepN'
p588
I0
sg66
Vchair
p589
sg63
V../experiment_stimuli/bw_bc_bl/Nonliving_Things/Furniture/chair_10.jpg
p590
sg21
F2.1048025283962488
sS'trials.thisTrialN'
p591
I45
sa(dp592
g31
g32
sg17
F210.87398927658796
sg24
I0
sg35
g39
sg14
F210.86702623683959
sg16
g36
(g70
S'\x01\x00\x00\x00'
tRp593
sg42
g43
sg46
g47
sg15
g72
sg22
F212.57137763593346
sg64
g160
sg62
g112
sg49
g50
sS'trials.thisN'
p594
I46
sg19
I1
sg27
g36
(g38
S'\x00\x00\x00\x00\x00\x00\x18@'
tRp595
sg52
g53
sg23
S'3'
sg18
F212.14971885178238
sg33
g34
sg51
g11
sg20
S'1'
sg65
g36
(g77
S'\x00\x00\x00\x00\x00\x00\x00\x00'
tRp596
sg44
g45
sg40
g41
sg25
F0.28081855736672878
sS'trials.thisIndex'
p597
g36
(g80
S'(\x00\x00\x00'
tRp598
sg26
V5
sS'trials.thisRepN'
p599
I0
sg66
Vhorse
p600
sg63
V../experiment_stimuli/bw_bc_bl/Living_Things/Animals/horse_11.jpg
p601
sg21
F0.40110370656475425
sS'trials.thisTrialN'
p602
I46
sa(dp603
g31
g32
sg17
F214.58995201671496
sg24
I0
sg35
g39
sg14
F214.58510974003002
sg16
g36
(g70
S'\x01\x00\x00\x00'
tRp604
sg42
g43
sg46
g47
sg15
g124
sg22
F216.36962643498555
sg64
g73
sg62
g74
sg49
g50
sS'trials.thisN'
p605
I47
sg19
I1
sg27
g36
(g38
S'\x00\x00\x00\x00\x00\x00 @'
tRp606
sg52
g53
sg23
S'3'
sg18
F215.84775454038754
sg33
g34
sg51
g11
sg20
S'1'
sg65
g36
(g77
S'\x00\x00\x00\x00\x00\x00\x00\x00'
tRp607
sg44
g45
sg40
g41
sg25
F0.3109010998159647
sS'trials.thisIndex'
p608
g36
(g80
S'\x1d\x00\x00\x00'
tRp609
sg26
V5
sS'trials.thisRepN'
p610
I0
sg66
Vfilling-cabinet
p611
sg63
V../experiment_stimuli/bw_bc_bl/Nonliving_Things/Furniture/filling-cabinet_23.jpg
p612
sg21
F0.50131005700677633
sS'trials.thisTrialN'
p613
I47
sa(dp614
g31
g32
sg17
F218.41820222418755
sg24
I1
sg35
g39
sg14
F218.41343425121158
sg16
g36
(g70
S'\x01\x00\x00\x00'
tRp615
sg42
g43
sg46
g47
sg15
g124
sg22
F219.99752106051892
sg64
g125
sg62
g74
sg49
g50
sS'trials.thisN'
p616
I48
sg19
I0
sg27
g36
(g38
S'\x00\x00\x00\x00\x00\x00\x1e@'
tRp617
sg52
g53
sg23
S'1'
sg18
F219.65604598866776
sg33
g34
sg51
g11
sg20
S'2'
sg65
g36
(g77
S'\x00\x00\x00\x00\x00\x00\x00\x00'
tRp618
sg44
g45
sg40
g41
sg25
F0.10046345600858331
sS'trials.thisIndex'
p619
g36
(g80
S'\x1f\x00\x00\x00'
tRp620
sg26
V5
sS'trials.thisRepN'
p621
I0
sg66
Vfrying-pan
p622
sg63
V../experiment_stimuli/bw_bc_bl/Nonliving_Things/Kitchen_Uten/frying-pan_26.jpg
p623
sg21
F0.32092064851894975
sS'trials.thisTrialN'
p624
I48
sa(dp625
g31
g32
sg17
F221.83567188633606
sg24
I0
sg35
g39
sg14
F221.83086410863325
sg16
g36
(g70
S'\x02\x00\x00\x00'
tRp626
sg42
g43
sg46
g47
sg15
g72
sg22
F223.3848793040961
sg64
g73
sg62
g74
sg49
g50
sS'trials.thisN'
p627
I49
sg19
I0
sg27
g36
(g38
S'\x00\x00\x00\x00\x00\x00\x18@'
tRp628
sg52
g53
sg23
S'2'
sg18
F223.09351479681209
sg33
g34
sg51
g11
sg20
S'1'
sg65
g36
(g77
S'\x00\x00\x00\x00\x00\x00\x00\x00'
tRp629
sg44
g45
sg40
g41
sg25
F2.8263704506680369
sS'trials.thisIndex'
p630
g36
(g80
S'\x13\x00\x00\x00'
tRp631
sg26
V5
sS'trials.thisRepN'
p632
I0
sg66
Vcouch
p633
sg63
V../experiment_stimuli/bw_bc_bl/Nonliving_Things/Furniture/couch_19.jpg
p634
sg21
F0.26987020252272487
sS'trials.thisTrialN'
p635
I49
sa(dp636
g31
g32
sg17
F227.94910736242309
sg24
I0
sg35
g39
sg14
F227.94415441062301
sg16
g36
(g70
S'\x01\x00\x00\x00'
tRp637
sg42
g43
sg46
g47
sg15
g72
sg22
F230.95121590141207
sg64
g111
sg62
g112
sg49
g50
sS'trials.thisN'
p638
I50
sg19
I0
sg27
g36
(g38
S'\x00\x00\x00\x00\x00\x00\x1c@'
tRp639
sg52
g53
sg23
S'2'
sg18
F229.19679369265214
sg33
g34
sg51
g11
sg20
S'2'
sg65
g36
(g77
S'\x00\x00\x00\x00\x00\x00\x00\x00'
tRp640
sg44
g45
sg40
g41
sg25
F0.30088599538430572
sS'trials.thisIndex'
p641
g36
(g80
S'O\x00\x00\x00'
tRp642
sg26
V5
sS'trials.thisRepN'
p643
I0
sg66
Vsparrow
p644
sg63
V../experiment_stimuli/bw_bc_bl/Living_Things/Birds/sparrow_3.jpg
p645
sg21
F1.7338460935279727
sS'trials.thisTrialN'
p646
I50
sa(dp647
g31
g32
sg17
F232.98994779819623
sg24
I1
sg35
g39
sg14
F232.98511710716411
sg16
g36
(g70
S'\x01\x00\x00\x00'
tRp648
sg42
g43
sg46
g47
sg15
g72
sg22
F234.48902936233208
sg64
g111
sg62
g112
sg49
g50
sS'trials.thisN'
p649
I51
sg19
I0
sg27
g36
(g38
S'\x00\x00\x00\x00\x00\x00\x1c@'
tRp650
sg52
g53
sg23
S'1'
sg18
F234.22771365754306
sg33
g34
sg51
g11
sg20
S'2'
sg65
g36
(g77
S'\x00\x00\x00\x00\x00\x00\x00\x00'
tRp651
sg44
g45
sg40
g41
sg25
F0.11048736143857241
sS'trials.thisIndex'
p652
g36
(g80
S'8\x00\x00\x00'
tRp653
sg26
V5
sS'trials.thisRepN'
p654
I0
sg66
Vostrich
p655
sg63
V../experiment_stimuli/bw_bc_bl/Living_Things/Birds/ostrich_26.jpg
p656
sg21
F0.24075412331148982
sS'trials.thisTrialN'
p657
I51
sa(dp658
g31
g32
sg17
F236.33836977928877
sg24
I1
sg35
g39
sg14
F236.33239039499313
sg16
g36
(g70
S'\x02\x00\x00\x00'
tRp659
sg42
g43
sg46
g47
sg15
g72
sg22
F238.08684506546706
sg64
g125
sg62
g74
sg49
g50
sS'trials.thisN'
p660
I52
sg19
I1
sg27
g36
(g38
S'\x00\x00\x00\x00\x00\x00\x1a@'
tRp661
sg52
g53
sg23
S'1'
sg18
F237.5950362291187
sg33
g34
sg51
g11
sg20
S'2'
sg65
g36
(g77
S'\x00\x00\x00\x00\x00\x00\x00\x00'
tRp662
sg44
g45
sg40
g41
sg25
F0.11030335258692503
sS'trials.thisIndex'
p663
g36
(g80
S'M\x00\x00\x00'
tRp664
sg26
V5
sS'trials.thisRepN'
p665
I0
sg66
Vsmall-saucepan
p666
sg63
V../experiment_stimuli/bw_bc_bl/Nonliving_Things/Kitchen_Uten/small-saucepan_25.jpg
p667
sg21
F0.47124741319566965
sS'trials.thisTrialN'
p668
I52
sa(dp669
g31
g32
sg17
F239.93615759955719
sg24
I0
sg35
g39
sg14
F239.9302165042609
sg16
g36
(g70
S'\x02\x00\x00\x00'
tRp670
sg42
g43
sg46
g47
sg15
g72
sg22
F242.74697930645198
sg64
g207
sg62
g74
sg49
g50
sS'trials.thisN'
p671
I53
sg19
I1
sg27
g36
(g38
S'\x00\x00\x00\x00\x00\x00\x1a@'
tRp672
sg52
g53
sg23
S'2'
sg18
F241.21290558855981
sg33
g34
sg51
g11
sg20
S'2'
sg65
g36
(g77
S'\x00\x00\x00\x00\x00\x00\x00\x00'
tRp673
sg44
g45
sg40
g41
sg25
F1.0224447594955564
sS'trials.thisIndex'
p674
g36
(g80
S'\x07\x00\x00\x00'
tRp675
sg26
V5
sS'trials.thisRepN'
p676
I0
sg66
Vboat
p677
sg63
V../experiment_stimuli/bw_bc_bl/Nonliving_Things/Vehicles/boat_6.jpg
p678
sg21
F1.5135223539546132
sS'trials.thisTrialN'
p679
I53
sa(dp680
g31
g32
sg17
F245.50728244800121
sg24
I0
sg35
g39
sg14
F245.50233263149858
sg16
g36
(g70
S'\x02\x00\x00\x00'
tRp681
sg42
g43
sg46
g47
sg15
g72
sg22
F247.50733697321266
sg64
g252
sg62
g74
sg49
g50
sS'trials.thisN'
p682
I54
sg19
I1
sg27
g36
(g38
S'\x00\x00\x00\x00\x00\x00\x18@'
tRp683
sg52
g53
sg23
S'3'
sg18
F246.77499595750123
sg33
g34
sg51
g11
sg20
S'2'
sg65
g36
(g77
S'\x00\x00\x00\x00\x00\x00\x00\x00'
tRp684
sg44
g45
sg40
g41
sg25
F0.34095517732203007
sS'trials.thisIndex'
p685
g36
(g80
S'\\\x00\x00\x00'
tRp686
sg26
V5
sS'trials.thisRepN'
p687
I0
sg66
Vviolin
p688
sg63
V../experiment_stimuli/bw_bc_bl/Nonliving_Things/Musical_Inst/violin_24.jpg
p689
sg21
F0.71178253926336765
sS'trials.thisTrialN'
p690
I54
sa(dp691
g31
g32
sg17
F249.58608609717339
sg24
I1
sg35
g39
sg14
F249.58118703542277
sg16
g36
(g70
S'\x01\x00\x00\x00'
tRp692
sg42
g43
sg46
g47
sg15
g72
sg22
F251.30563087249175
sg64
g195
sg62
g112
sg49
g50
sS'trials.thisN'
p693
I55
sg19
I0
sg27
g36
(g38
S'\x00\x00\x00\x00\x00\x00\x1c@'
tRp694
sg52
g53
sg23
S'1'
sg18
F250.84384089196101
sg33
g34
sg51
g11
sg20
S'2'
sg65
g36
(g77
S'\x00\x00\x00\x00\x00\x00\x00\x00'
tRp695
sg44
g45
sg40
g41
sg25
F0.20067204721271992
sS'trials.thisIndex'
p696
g36
(g80
S'\x15\x00\x00\x00'
tRp697
sg26
V5
sS'trials.thisRepN'
p698
I0
sg66
Vcrab
p699
sg63
V../experiment_stimuli/bw_bc_bl/Living_Things/Marine_creatures/crab_2.jpg
p700
sg21
F0.44120603473857045
sS'trials.thisTrialN'
p701
I55
sa(dp702
g31
g32
sg17
F253.24389896728098
sg24
I0
sg35
g39
sg14
F253.23914875695482
sg16
g36
(g70
S'\x01\x00\x00\x00'
tRp703
sg42
g43
sg46
g47
sg15
g124
sg22
F256.80753321992233
sg64
g73
sg62
g74
sg49
g50
sS'trials.thisN'
p704
I56
sg19
I1
sg27
g36
(g38
S'\x00\x00\x00\x00\x00\x00\x1e@'
tRp705
sg52
g53
sg23
S'2'
sg18
F254.51181585388258
sg33
g34
sg51
g11
sg20
S'1'
sg65
g36
(g77
S'\x00\x00\x00\x00\x00\x00\x00\x00'
tRp706
sg44
g45
sg40
g41
sg25
F0.32092074258252978
sS'trials.thisIndex'
p707
g36
(g80
S'\x00\x00\x00\x00'
tRp708
sg26
V5
sS'trials.thisRepN'
p709
I0
sg66
VChest-of-drawers
p710
sg63
V../experiment_stimuli/bw_bc_bl/Nonliving_Things/Furniture/Chest-of-drawers_25.jpg
p711
sg21
F2.2751732808537781
sS'trials.thisTrialN'
p712
I56
sa(dp713
g31
g32
sg17
F258.86613615136594
sg24
I0
sg35
g39
sg14
F258.86137123825029
sg16
g36
(g70
S'\x02\x00\x00\x00'
tRp714
sg42
g43
sg46
g47
sg15
g124
sg22
F260.16487734066322
sg64
g160
sg62
g112
sg49
g50
sS'trials.thisN'
p715
I57
sg19
I1
sg27
g36
(g38
S'\x00\x00\x00\x00\x00\x00\x1a@'
tRp716
sg52
g53
sg23
S'2'
sg18
F260.12401958741248
sg33
g34
sg51
g11
sg20
S'2'
sg65
g36
(g77
S'\x00\x00\x00\x00\x00\x00\x00\x00'
tRp717
sg44
g45
sg40
g41
sg25
F0.26078258128836751
sS'trials.thisIndex'
p718
g36
(g80
S'\x01\x00\x00\x00'
tRp719
sg26
V5
sS'trials.thisRepN'
p720
I0
sg66
Varmadillo
p721
sg63
V../experiment_stimuli/bw_bc_bl/Living_Things/Animals/armadillo_14.jpg
p722
sg21
F0.020294498652219772
sS'trials.thisTrialN'
p723
I57
sa(dp724
g31
g32
sg17
F262.16338323429227
sg24
I1
sg35
g39
sg14
F262.1585405478254
sg16
g36
(g70
S'\x01\x00\x00\x00'
tRp725
sg42
g43
sg46
g47
sg15
g124
sg22
F263.55224428698421
sg64
g125
sg62
g74
sg49
g50
sS'trials.thisN'
p726
I58
sg19
I0
sg27
g36
(g38
S'\x00\x00\x00\x00\x00\x00\x1e@'
tRp727
sg52
g53
sg23
S'1'
sg18
F263.42118329182267
sg33
g34
sg51
g11
sg20
S'2'
sg65
g36
(g77
S'\x00\x00\x00\x00\x00\x00\x00\x00'
tRp728
sg44
g45
sg40
g41
sg25
F0.17064031213521957
sS'trials.thisIndex'
p729
g36
(g80
S'S\x00\x00\x00'
tRp730
sg26
V5
sS'trials.thisRepN'
p731
I0
sg66
Vteapot
p732
sg63
V../experiment_stimuli/bw_bc_bl/Nonliving_Things/Kitchen_Uten/teapot_12.jpg
p733
sg21
F0.11048039142042398
sS'trials.thisTrialN'
p734
I58
sa(dp735
g31
g32
sg17
F265.46057400619611
sg24
I0
sg35
g39
sg14
F265.45570312812924
sg16
g36
(g70
S'\x01\x00\x00\x00'
tRp736
sg42
g43
sg46
g47
sg15
g124
sg22
F268.89385516289622
sg64
g252
sg62
g74
sg49
g50
sS'trials.thisN'
p737
I59
sg19
I1
sg27
g36
(g38
S'\x00\x00\x00\x00\x00\x00\x18@'
tRp738
sg52
g53
sg23
S'2'
sg18
F266.71836257912219
sg33
g34
sg51
g11
sg20
S'1'
sg65
g36
(g77
S'\x00\x00\x00\x00\x00\x00\x00\x00'
tRp739
sg44
g45
sg40
g41
sg25
F0.45119379367679358
sS'trials.thisIndex'
p740
g36
(g80
S'>\x00\x00\x00'
tRp741
sg26
V5
sS'trials.thisRepN'
p742
I0
sg66
Vpiano
p743
sg63
V../experiment_stimuli/bw_bc_bl/Nonliving_Things/Musical_Inst/piano__11.jpg
p744
sg21
F2.1549495966173708
sS'trials.thisTrialN'
p745
I59
sa(dp746
g31
g32
sg17
F271.08401955245063
sg24
I0
sg35
g39
sg14
F271.07792680850253
sg16
g36
(g70
S'\x02\x00\x00\x00'
tRp747
sg42
g43
sg46
g47
sg15
g72
sg22
F272.35136149963364
sg64
g207
sg62
g74
sg49
g50
sS'trials.thisN'
p748
I60
sg19
I1
sg27
g36
(g38
S'\x00\x00\x00\x00\x00\x00\x18@'
tRp749
sg52
g53
sg23
S'2'
sg18
F272.33055472606793
sg33
g34
sg51
g11
sg20
S'2'
sg65
g36
(g77
S'\x00\x00\x00\x00\x00\x00\x00\x00'
tRp750
sg44
g45
sg40
g41
sg25
F0.25078201713040471
sS'trials.thisIndex'
p751
g36
(g80
S'6\x00\x00\x00'
tRp752
sg26
V5
sS'trials.thisRepN'
p753
I0
sg66
Vmotorbike
p754
sg63
V../experiment_stimuli/bw_bc_bl/Nonliving_Things/Vehicles/motorbike_8.jpg
p755
sg21
F0.00025163544341921806
sS'trials.thisTrialN'
p756
I60
sa(dp757
g31
g32
sg17
F274.33979135332629
sg24
I1
sg35
g39
sg14
F274.33500628266484
sg16
g36
(g70
S'\x01\x00\x00\x00'
tRp758
sg42
g43
sg46
g47
sg15
g124
sg22
F275.80886003933847
sg64
g207
sg62
g74
sg49
g50
sS'trials.thisN'
p759
I61
sg19
I1
sg27
g36
(g38
S'\x00\x00\x00\x00\x00\x00\x1c@'
tRp760
sg52
g53
sg23
S'1'
sg18
F275.57763758394867
sg33
g34
sg51
g11
sg20
S'1'
sg65
g36
(g77
S'\x00\x00\x00\x00\x00\x00\x00\x00'
tRp761
sg44
g45
sg40
g41
sg25
F2.1649415697902441
sS'trials.thisIndex'
p762
g36
(g80
S'@\x00\x00\x00'
tRp763
sg26
V5
sS'trials.thisRepN'
p764
I0
sg66
Vplane
p765
sg63
V../experiment_stimuli/bw_bc_bl/Nonliving_Things/Vehicles/plane_5.jpg
p766
sg21
F0.21068326476961374
sS'trials.thisTrialN'
p767
I61
sa(dp768
g31
g32
sg17
F279.71166711160913
sg24
I1
sg35
g39
sg14
F279.70668581826612
sg16
g36
(g70
S'\x01\x00\x00\x00'
tRp769
sg42
g43
sg46
g47
sg15
g72
sg22
F281.30079628527164
sg64
g111
sg62
g112
sg49
g50
sS'trials.thisN'
p770
I62
sg19
I0
sg27
g36
(g38
S'\x00\x00\x00\x00\x00\x00\x18@'
tRp771
sg52
g53
sg23
S'1'
sg18
F280.95931121334434
sg33
g34
sg51
g11
sg20
S'2'
sg65
g36
(g77
S'\x00\x00\x00\x00\x00\x00\x00\x00'
tRp772
sg44
g45
sg40
g41
sg25
F0.12047518836334348
sS'trials.thisIndex'
p773
g36
(g80
S'U\x00\x00\x00'
tRp774
sg26
V5
sS'trials.thisRepN'
p775
I0
sg66
Vtoucan
p776
sg63
V../experiment_stimuli/bw_bc_bl/Living_Things/Birds/toucan_20.jpg
p777
sg21
F0.3209297196008265
sS'trials.thisTrialN'
p778
I62
sa(dp779
g31
g32
sg17
F283.15908944280818
sg24
I1
sg35
g39
sg14
F283.15419873781502
sg16
g36
(g70
S'\x02\x00\x00\x00'
tRp780
sg42
g43
sg46
g47
sg15
g124
sg22
F285.27945433091372
sg64
g160
sg62
g112
sg49
g50
sS'trials.thisN'
p781
I63
sg19
I1
sg27
g36
(g38
S'\x00\x00\x00\x00\x00\x00 @'
tRp782
sg52
g53
sg23
S'1'
sg18
F284.44689377723262
sg33
g34
sg51
g11
sg20
S'2'
sg65
g36
(g77
S'\x00\x00\x00\x00\x00\x00\x00\x00'
tRp783
sg44
g45
sg40
g41
sg25
F0.15039582690224051
sS'trials.thisIndex'
p784
g36
(g80
S'0\x00\x00\x00'
tRp785
sg26
V5
sS'trials.thisRepN'
p786
I0
sg66
Vlioness
p787
sg63
V../experiment_stimuli/bw_bc_bl/Living_Things/Animals/lioness_14.jpg
p788
sg21
F0.81198672810569406
sS'trials.thisTrialN'
p789
I63
sa(dp790
g31
g32
sg17
F287.16910915961489
sg24
I0
sg35
g39
sg14
F287.16289460193366
sg16
g36
(g70
S'\x01\x00\x00\x00'
tRp791
sg42
g43
sg46
g47
sg15
g72
sg22
F289.05764279281721
sg64
g160
sg62
g112
sg49
g50
sS'trials.thisN'
p792
I64
sg19
I1
sg27
g36
(g38
S'\x00\x00\x00\x00\x00\x00\x18@'
tRp793
sg52
g53
sg23
S'2'
sg18
F288.46563343331218
sg33
g34
sg51
g11
sg20
S'1'
sg65
g36
(g77
S'\x00\x00\x00\x00\x00\x00\x00\x00'
tRp794
sg44
g45
sg40
g41
sg25
F0.80196226248517632
sS'trials.thisIndex'
p795
g36
(g80
S'R\x00\x00\x00'
tRp796
sg26
V5
sS'trials.thisRepN'
p797
I0
sg66
Vtapir
p798
sg63
V../experiment_stimuli/bw_bc_bl/Living_Things/Animals/tapir_7.jpg
p799
sg21
F0.57147521059960127
sS'trials.thisTrialN'
p800
I64
sa(dp801
g31
g32
sg17
F291.59723036270589
sg24
I0
sg35
g39
sg14
F291.5925321476534
sg16
g36
(g70
S'\x01\x00\x00\x00'
tRp802
sg42
g43
sg46
g47
sg15
g124
sg22
F294.84008914511651
sg64
g125
sg62
g74
sg49
g50
sS'trials.thisN'
p803
I65
sg19
I1
sg27
g36
(g38
S'\x00\x00\x00\x00\x00\x00\x18@'
tRp804
sg52
g53
sg23
S'2'
sg18
F292.88523324672133
sg33
g34
sg51
g11
sg20
S'1'
sg65
g36
(g77
S'\x00\x00\x00\x00\x00\x00\x00\x00'
tRp805
sg44
g45
sg40
g41
sg25
F0.29085566196590662
sS'trials.thisIndex'
p806
g36
(g80
S'\x12\x00\x00\x00'
tRp807
sg26
V5
sS'trials.thisRepN'
p808
I0
sg66
Vcoking-pot
p809
sg63
V../experiment_stimuli/bw_bc_bl/Nonliving_Things/Kitchen_Uten/coking-pot_15.jpg
p810
sg21
F1.9242555960081518
sS'trials.thisTrialN'
p811
I65
sa(dp812
g31
g32
sg17
F296.86881889170036
sg24
I0
sg35
g39
sg14
F296.86398434406146
sg16
g36
(g70
S'\x02\x00\x00\x00'
tRp813
sg42
g43
sg46
g47
sg15
g72
sg22
F302.13609309121966
sg64
g207
sg62
g74
sg49
g50
sS'trials.thisN'
p814
I66
sg19
I1
sg27
g36
(g38
S'\x00\x00\x00\x00\x00\x00\x1e@'
tRp815
sg52
g53
sg23
S'3'
sg18
F298.14667683467269
sg33
g34
sg51
g11
sg20
S'2'
sg65
g36
(g77
S'\x00\x00\x00\x00\x00\x00\x00\x00'
tRp816
sg44
g45
sg40
g41
sg25
F0.41111907828599215
sS'trials.thisIndex'
p817
g36
(g80
S'[\x00\x00\x00'
tRp818
sg26
V5
sS'trials.thisRepN'
p819
I0
sg66
Vvan
p820
sg63
V../experiment_stimuli/bw_bc_bl/Nonliving_Things/Vehicles/van_12.jpg
p821
sg21
F3.9688588255085051
sS'trials.thisTrialN'
p822
I66
sa(dp823
g31
g32
sg17
F304.2849703351967
sg24
I0
sg35
g39
sg14
F304.28012305125594
sg16
g36
(g70
S'\x01\x00\x00\x00'
tRp824
sg42
g43
sg46
g47
sg15
g124
sg22
F306.64589401194826
sg64
g252
sg62
g74
sg49
g50
sS'trials.thisN'
p825
I67
sg19
I1
sg27
g36
(g38
S'\x00\x00\x00\x00\x00\x00\x1c@'
tRp826
sg52
g53
sg23
S'2'
sg18
F305.55277496343479
sg33
g34
sg51
g11
sg20
S'1'
sg65
g36
(g77
S'\x00\x00\x00\x00\x00\x00\x00\x00'
tRp827
sg44
g45
sg40
g41
sg25
F0.29083628952503204
sS'trials.thisIndex'
p828
g36
(g80
S'H\x00\x00\x00'
tRp829
sg26
V5
sS'trials.thisRepN'
p830
I0
sg66
Vsaxophone
p831
sg63
V../experiment_stimuli/bw_bc_bl/Nonliving_Things/Musical_Inst/saxophone_25.jpg
p832
sg21
F1.0725711164996028
sS'trials.thisTrialN'
p833
I67
sa(dp834
g31
g32
sg17
F308.67450647428632
sg24
I0
sg35
g39
sg14
F308.66966311447322
sg16
g36
(g70
S'\x01\x00\x00\x00'
tRp835
sg42
g43
sg46
g47
sg15
g72
sg22
F311.45636730641127
sg64
g160
sg62
g112
sg49
g50
sS'trials.thisN'
p836
I68
sg19
I1
sg27
g36
(g38
S'\x00\x00\x00\x00\x00\x00\x18@'
tRp837
sg52
g53
sg23
S'3'
sg18
F309.92229075403884
sg33
g34
sg51
g11
sg20
S'1'
sg65
g36
(g77
S'\x00\x00\x00\x00\x00\x00\x00\x00'
tRp838
sg44
g45
sg40
g41
sg25
F1.0024111550301313
sS'trials.thisIndex'
p839
g36
(g80
S'_\x00\x00\x00'
tRp840
sg26
V5
sS'trials.thisRepN'
p841
I0
sg66
Vzebra
p842
sg63
V../experiment_stimuli/bw_bc_bl/Living_Things/Animals/zebra_12.jpg
p843
sg21
F1.5135358651168644
sS'trials.thisTrialN'
p844
I68
sa(dp845
g31
g32
sg17
F314.19648636458442
sg24
I1
sg35
g39
sg14
F314.19165937369689
sg16
g36
(g70
S'\x01\x00\x00\x00'
tRp846
sg42
g43
sg46
g47
sg15
g72
sg22
F315.64543113205582
sg64
g111
sg62
g112
sg49
g50
sS'trials.thisN'
p847
I69
sg19
I1
sg27
g36
(g38
S'\x00\x00\x00\x00\x00\x00\x18@'
tRp848
sg52
g53
sg23
S'1'
sg18
F315.42424142034724
sg33
g34
sg51
g11
sg20
S'1'
sg65
g36
(g77
S'\x00\x00\x00\x00\x00\x00\x00\x00'
tRp849
sg44
g45
sg40
g41
sg25
F0.23071001889184117
sS'trials.thisIndex'
p850
g36
(g80
S'?\x00\x00\x00'
tRp851
sg26
V5
sS'trials.thisRepN'
p852
I0
sg66
Vpigeon
p853
sg63
V../experiment_stimuli/bw_bc_bl/Living_Things/Birds/pigeon_16.jpg
p854
sg21
F0.20065888576209545
sS'trials.thisTrialN'
p855
I69
sa(dp856
g31
g32
sg17
F317.61386255454272
sg24
I1
sg35
g39
sg14
F317.60910277254879
sg16
g36
(g70
S'\x01\x00\x00\x00'
tRp857
sg42
g43
sg46
g47
sg15
g72
sg22
F318.88252852763981
sg64
g195
sg62
g112
sg49
g50
sS'trials.thisN'
p858
I70
sg19
I1
sg27
g36
(g38
S'\x00\x00\x00\x00\x00\x00\x18@'
tRp859
sg52
g53
sg23
S'1'
sg18
F318.86171534098685
sg33
g34
sg51
g11
sg20
S'1'
sg65
g36
(g77
S'\x00\x00\x00\x00\x00\x00\x00\x00'
tRp860
sg44
g45
sg40
g41
sg25
F0.24074010131880641
sS'trials.thisIndex'
p861
g36
(g80
S'+\x00\x00\x00'
tRp862
sg26
V5
sS'trials.thisRepN'
p863
I0
sg66
Vkiller-whale
p864
sg63
V../experiment_stimuli/bw_bc_bl/Living_Things/Marine_creatures/killer-whale_4.jpg
p865
sg21
F0.00024871062487363815
sS'trials.thisTrialN'
p866
I70
sa(dp867
g31
g32
sg17
F320.86102147120982
sg24
I0
sg35
g39
sg14
F320.85616709664464
sg16
g36
(g70
S'\x02\x00\x00\x00'
tRp868
sg42
g43
sg46
g47
sg15
g124
sg22
F326.08815588103607
sg64
g111
sg62
g112
sg49
g50
sS'trials.thisN'
p869
I71
sg19
I1
sg27
g36
(g38
S'\x00\x00\x00\x00\x00\x00\x18@'
tRp870
sg52
g53
sg23
S'3'
sg18
F322.12881511868909
sg33
g34
sg51
g11
sg20
S'2'
sg65
g36
(g77
S'\x00\x00\x00\x00\x00\x00\x00\x00'
tRp871
sg44
g45
sg40
g41
sg25
F0.97233202215284109
sS'trials.thisIndex'
p872
g36
(g80
S'J\x00\x00\x00'
tRp873
sg26
V5
sS'trials.thisRepN'
p874
I0
sg66
Vseagull
p875
sg63
V../experiment_stimuli/bw_bc_bl/Living_Things/Birds/seagull_14.jpg
p876
sg21
F3.9387881434522569
sS'trials.thisTrialN'
p877
I71
sa(dp878
g31
g32
sg17
F328.79955349722877
sg24
I0
sg35
g39
sg14
F328.79340387461707
sg16
g36
(g70
S'\x01\x00\x00\x00'
tRp879
sg42
g43
sg46
g47
sg15
g72
sg22
F330.84851472405717
sg64
g111
sg62
g112
sg49
g50
sS'trials.thisN'
p880
I72
sg19
I1
sg27
g36
(g38
S'\x00\x00\x00\x00\x00\x00\x18@'
tRp881
sg52
g53
sg23
S'3'
sg18
F330.05604986660182
sg33
g34
sg51
g11
sg20
S'1'
sg65
g36
(g77
S'\x00\x00\x00\x00\x00\x00\x00\x00'
tRp882
sg44
g45
sg40
g41
sg25
F0.28084824094548821
sS'trials.thisIndex'
p883
g36
(g80
S'&\x00\x00\x00'
tRp884
sg26
V5
sS'trials.thisRepN'
p885
I0
sg66
Vhen
p886
sg63
V../experiment_stimuli/bw_bc_bl/Living_Things/Birds/hen_1.jpg
p887
sg21
F0.77190086245536804
sS'trials.thisTrialN'
p888
I72
sa(dp889
g31
g32
sg17
F332.86704514687881
sg24
I1
sg35
g39
sg14
F332.86224756855518
sg16
g36
(g70
S'\x01\x00\x00\x00'
tRp890
sg42
g43
sg46
g47
sg15
g124
sg22
F334.45635354332626
sg64
g73
sg62
g74
sg49
g50
sS'trials.thisN'
p891
I73
sg19
I0
sg27
g36
(g38
S'\x00\x00\x00\x00\x00\x00\x18@'
tRp892
sg52
g53
sg23
S'1'
sg18
F334.0948327886872
sg33
g34
sg51
g11
sg20
S'2'
sg65
g36
(g77
S'\x00\x00\x00\x00\x00\x00\x00\x00'
tRp893
sg44
g45
sg40
g41
sg25
F0.11046288441866636
sS'trials.thisIndex'
p894
g36
(g80
S'\x06\x00\x00\x00'
tRp895
sg26
V5
sS'trials.thisRepN'
p896
I0
sg66
Vbedside-table
p897
sg63
V../experiment_stimuli/bw_bc_bl/Nonliving_Things/Furniture/bedside-table_2.jpg
p898
sg21
F0.34096436528488994
sS'trials.thisTrialN'
p899
I73
sa(dp900
g31
g32
sg17
F336.30595735507086
sg24
I0
sg35
g39
sg14
F336.29973503062502
sg16
g36
(g70
S'\x01\x00\x00\x00'
tRp901
sg42
g43
sg46
g47
sg15
g72
sg22
F338.98619644343853
sg64
g195
sg62
g112
sg49
g50
sS'trials.thisN'
p902
I74
sg19
I1
sg27
g36
(g38
S'\x00\x00\x00\x00\x00\x00\x18@'
tRp903
sg52
g53
sg23
S'3'
sg18
F337.55234701978043
sg33
g34
sg51
g11
sg20
S'1'
sg65
g36
(g77
S'\x00\x00\x00\x00\x00\x00\x00\x00'
tRp904
sg44
g45
sg40
g41
sg25
F0.20065988600254059
sS'trials.thisIndex'
p905
g36
(g80
S'^\x00\x00\x00'
tRp906
sg26
V5
sS'trials.thisRepN'
p907
I0
sg66
Vwhale
p908
sg63
V../experiment_stimuli/bw_bc_bl/Living_Things/Marine_creatures/whale_1.jpg
p909
sg21
F1.413301951251924
sS'trials.thisTrialN'
p910
I74
sa(dp911
g31
g32
sg17
F340.92461222410202
sg24
I1
sg35
g39
sg14
F340.91976752644405
sg16
g36
(g70
S'\x02\x00\x00\x00'
tRp912
sg42
g43
sg46
g47
sg15
g124
sg22
F342.27337651653215
sg64
g160
sg62
g112
sg49
g50
sS'trials.thisN'
p913
I75
sg19
I1
sg27
g36
(g38
S'\x00\x00\x00\x00\x00\x00\x18@'
tRp914
sg52
g53
sg23
S'1'
sg18
F342.16237565875053
sg33
g34
sg51
g11
sg20
S'2'
sg65
g36
(g77
S'\x00\x00\x00\x00\x00\x00\x00\x00'
tRp915
sg44
g45
sg40
g41
sg25
F0.20066632935777307
sS'trials.thisIndex'
p916
g36
(g80
S'\x10\x00\x00\x00'
tRp917
sg26
V5
sS'trials.thisRepN'
p918
I0
sg66
Vcheetah
p919
sg63
V../experiment_stimuli/bw_bc_bl/Living_Things/Animals/cheetah_14.jpg
p920
sg21
F0.090438340324908495
sS'trials.thisTrialN'
p921
I75
sa(dp922
g31
g32
sg17
F344.21447518328205
sg24
I0
sg35
g39
sg14
F344.20691003929824
sg16
g36
(g70
S'\x02\x00\x00\x00'
tRp923
sg42
g43
sg46
g47
sg15
g72
sg22
F348.41671075252816
sg64
g125
sg62
g74
sg49
g50
sS'trials.thisN'
p924
I76
sg19
I1
sg27
g36
(g38
S'\x00\x00\x00\x00\x00\x00\x18@'
tRp925
sg52
g53
sg23
S'2'
sg18
F345.46956380968913
sg33
g34
sg51
g11
sg20
S'2'
sg65
g36
(g77
S'\x00\x00\x00\x00\x00\x00\x00\x00'
tRp926
sg44
g45
sg40
g41
sg25
F1.3231027461588383
sS'trials.thisIndex'
p927
g36
(g80
S'B\x00\x00\x00'
tRp928
sg26
V5
sS'trials.thisRepN'
p929
I0
sg66
Vpot
p930
sg63
V../experiment_stimuli/bw_bc_bl/Nonliving_Things/Kitchen_Uten/pot_14.jpg
p931
sg21
F2.9265838572755456
sS'trials.thisTrialN'
p932
I76
sa(dp933
g31
g32
sg17
F351.47757255565375
sg24
I1
sg35
g39
sg14
F351.47270413255319
sg16
g36
(g70
S'\x02\x00\x00\x00'
tRp934
sg42
g43
sg46
g47
sg15
g124
sg22
F353.20712147746235
sg64
g183
sg62
g112
sg49
g50
sS'trials.thisN'
p935
I77
sg19
I0
sg27
g36
(g38
S'\x00\x00\x00\x00\x00\x00\x1a@'
tRp936
sg52
g53
sg23
S'1'
sg18
F352.71532168611884
sg33
g34
sg51
g11
sg20
S'1'
sg65
g36
(g77
S'\x00\x00\x00\x00\x00\x00\x00\x00'
tRp937
sg44
g45
sg40
g41
sg25
F0.20065113389864564
sS'trials.thisIndex'
p938
g36
(g80
S'I\x00\x00\x00'
tRp939
sg26
V5
sS'trials.thisRepN'
p940
I0
sg66
Vscorpion
p941
sg63
V../experiment_stimuli/bw_bc_bl/Living_Things/Insects/scorpion_25.jpg
p942
sg21
F0.47124814568087459
sS'trials.thisTrialN'
p943
I77
sa(dp944
g31
g32
sg17
F355.14545657858253
sg24
I0
sg35
g39
sg14
F355.14068768825382
sg16
g36
(g70
S'\x01\x00\x00\x00'
tRp945
sg42
g43
sg46
g47
sg15
g124
sg22
F357.28599545266479
sg64
g148
sg62
g74
sg49
g50
sS'trials.thisN'
p946
I78
sg19
I1
sg27
g36
(g38
S'\x00\x00\x00\x00\x00\x00\x1a@'
tRp947
sg52
g53
sg23
S'2'
sg18
F356.42337470920756
sg33
g34
sg51
g11
sg20
S'1'
sg65
g36
(g77
S'\x00\x00\x00\x00\x00\x00\x00\x00'
tRp948
sg44
g45
sg40
g41
sg25
F0.20071602426469326
sS'trials.thisIndex'
p949
g36
(g80
S'\x0c\x00\x00\x00'
tRp950
sg26
V5
sS'trials.thisRepN'
p951
I0
sg66
Vcastle
p952
sg63
V../experiment_stimuli/bw_bc_bl/Nonliving_Things/Buildings/castle_10.jpg
p953
sg21
F0.84207599656656384
sS'trials.thisTrialN'
p954
I78
sa(dp955
g31
g32
sg17
F359.22425980679691
sg24
I0
sg35
g39
sg14
F359.21954851318151
sg16
g36
(g70
S'\x01\x00\x00\x00'
tRp956
sg42
g43
sg46
g47
sg15
g72
sg22
F361.70561080006883
sg64
g183
sg62
g112
sg49
g50
sS'trials.thisN'
p957
I79
sg19
I1
sg27
g36
(g38
S'\x00\x00\x00\x00\x00\x00\x1e@'
tRp958
sg52
g53
sg23
S'3'
sg18
F360.48219692660496
sg33
g34
sg51
g11
sg20
S'1'
sg65
g36
(g77
S'\x00\x00\x00\x00\x00\x00\x00\x00'
tRp959
sg44
g45
sg40
g41
sg25
F0.19068191573023796
sS'trials.thisIndex'
p960
g36
(g80
S'\n\x00\x00\x00'
tRp961
sg26
V5
sS'trials.thisRepN'
p962
I0
sg66
Vbutterfly
p963
sg63
V../experiment_stimuli/bw_bc_bl/Living_Things/Insects/butterfly_25.jpg
p964
sg21
F1.2028620662167668
sS'trials.thisTrialN'
p965
I79
sa(dp966
g31
g32
sg17
F363.63400473166257
sg24
I0
sg35
g39
sg14
F363.6291362894699
sg16
g36
(g70
S'\x02\x00\x00\x00'
tRp967
sg42
g43
sg46
g47
sg15
g124
sg22
F369.44240905717015
sg64
g111
sg62
g112
sg49
g50
sS'trials.thisN'
p968
I80
sg19
I1
sg27
g36
(g38
S'\x00\x00\x00\x00\x00\x00\x18@'
tRp969
sg52
g53
sg23
S'2'
sg18
F364.8817605082877
sg33
g34
sg51
g11
sg20
S'2'
sg65
g36
(g77
S'\x00\x00\x00\x00\x00\x00\x00\x00'
tRp970
sg44
g45
sg40
g41
sg25
F0.42114238208159804
sS'trials.thisIndex'
p971
g36
(g80
S'=\x00\x00\x00'
tRp972
sg26
V5
sS'trials.thisRepN'
p973
I0
sg66
Vpenguin
p974
sg63
V../experiment_stimuli/bw_bc_bl/Living_Things/Birds/penguin_17.jpg
p975
sg21
F4.540095201227814
sS'trials.thisTrialN'
p976
I80
sa(dp977
g31
g32
sg17
F371.60170192271471
sg24
I1
sg35
g39
sg14
F371.59645524201915
sg16
g36
(g70
S'\x02\x00\x00\x00'
tRp978
sg42
g43
sg46
g47
sg15
g72
sg22
F373.38097877521068
sg64
g252
sg62
g74
sg49
g50
sS'trials.thisN'
p979
I81
sg19
I0
sg27
g36
(g38
S'\x00\x00\x00\x00\x00\x00\x18@'
tRp980
sg52
g53
sg23
S'1'
sg18
F372.83907078811899
sg33
g34
sg51
g11
sg20
S'1'
sg65
g36
(g77
S'\x00\x00\x00\x00\x00\x00\x00\x00'
tRp981
sg44
g45
sg40
g41
sg25
F0.18062916491180658
sS'trials.thisIndex'
p982
g36
(g80
S'X\x00\x00\x00'
tRp983
sg26
V5
sS'trials.thisRepN'
p984
I0
sg66
Vtrumpet
p985
sg63
V../experiment_stimuli/bw_bc_bl/Nonliving_Things/Musical_Inst/trumpet_13.jpg
p986
sg21
F0.52135678194463253
sS'trials.thisTrialN'
p987
I81
sa(dp988
g31
g32
sg17
F375.29934278689325
sg24
I1
sg35
g39
sg14
F375.29450302477926
sg16
g36
(g70
S'\x02\x00\x00\x00'
tRp989
sg42
g43
sg46
g47
sg15
g124
sg22
F377.45985213015229
sg64
g111
sg62
g112
sg49
g50
sS'trials.thisN'
p990
I82
sg19
I1
sg27
g36
(g38
S'\x00\x00\x00\x00\x00\x00\x1a@'
tRp991
sg52
g53
sg23
S'1'
sg18
F376.54712664522231
sg33
g34
sg51
g11
sg20
S'2'
sg65
g36
(g77
S'\x00\x00\x00\x00\x00\x00\x00\x00'
tRp992
sg44
g45
sg40
g41
sg25
F0.10043519735336304
sS'trials.thisIndex'
p993
g36
(g80
S'*\x00\x00\x00'
tRp994
sg26
V5
sS'trials.thisRepN'
p995
I0
sg66
Vhummingbird
p996
sg63
V../experiment_stimuli/bw_bc_bl/Living_Things/Birds/hummingbird_6.jpg
p997
sg21
F0.8921678545884788
sS'trials.thisTrialN'
p998
I82
sa(dp999
g31
g32
sg17
F379.30091569619253
sg24
I0
sg35
g39
sg14
F379.29319779854268
sg16
g36
(g70
S'\x01\x00\x00\x00'
tRp1000
sg42
g43
sg46
g47
sg15
g72
sg22
F384.53525100275874
sg64
g195
sg62
g112
sg49
g50
sS'trials.thisN'
p1001
I83
sg19
I0
sg27
g36
(g38
S'\x00\x00\x00\x00\x00\x00\x18@'
tRp1002
sg52
g53
sg23
S'2'
sg18
F380.57589067658409
sg33
g34
sg51
g11
sg20
S'2'
sg65
g36
(g77
S'\x00\x00\x00\x00\x00\x00\x00\x00'
tRp1003
sg44
g45
sg40
g41
sg25
F0.39107075659558177
sS'trials.thisIndex'
p1004
g36
(g80
S'A\x00\x00\x00'
tRp1005
sg26
V5
sS'trials.thisRepN'
p1006
I0
sg66
Vpomfret
p1007
sg63
V../experiment_stimuli/bw_bc_bl/Living_Things/Marine_creatures/pomfret_23.jpg
p1008
sg21
F3.9388084774836898
sS'trials.thisTrialN'
p1009
I83
sa(dp1010
g31
g32
sg17
F386.66414811182767
sg24
I1
sg35
g39
sg14
F386.65920712985098
sg16
g36
(g70
S'\x01\x00\x00\x00'
tRp1011
sg42
g43
sg46
g47
sg15
g72
sg22
F389.00498263258487
sg64
g160
sg62
g112
sg49
g50
sS'trials.thisN'
p1012
I84
sg19
I0
sg27
g36
(g38
S'\x00\x00\x00\x00\x00\x00\x18@'
tRp1013
sg52
g53
sg23
S'1'
sg18
F387.93187831249088
sg33
g34
sg51
g11
sg20
S'2'
sg65
g36
(g77
S'\x00\x00\x00\x00\x00\x00\x00\x00'
tRp1014
sg44
g45
sg40
g41
sg25
F0.10050606820732355
sS'trials.thisIndex'
p1015
g36
(g80
S' \x00\x00\x00'
tRp1016
sg26
V5
sS'trials.thisRepN'
p1017
I0
sg66
Vgiraffe
p1018
sg63
V../experiment_stimuli/bw_bc_bl/Living_Things/Animals/giraffe_6.jpg
p1019
sg21
F1.0525307459756732
sS'trials.thisTrialN'
p1020
I84
sa(dp1021
g31
g32
sg17
F390.84303620737046
sg24
I0
sg35
g39
sg14
F390.83829212095588
sg16
g36
(g70
S'\x02\x00\x00\x00'
tRp1022
sg42
g43
sg46
g47
sg15
g124
sg22
F394.34655195986852
sg64
g160
sg62
g112
sg49
g50
sS'trials.thisN'
p1023
I85
sg19
I1
sg27
g36
(g38
S'\x00\x00\x00\x00\x00\x00\x1e@'
tRp1024
sg52
g53
sg23
S'3'
sg18
F392.1410276745446
sg33
g34
sg51
g11
sg20
S'2'
sg65
g36
(g77
S'\x00\x00\x00\x00\x00\x00\x00\x00'
tRp1025
sg44
g45
sg40
g41
sg25
F0.93224724614992738
sS'trials.thisIndex'
p1026
g36
(g80
S'\x1b\x00\x00\x00'
tRp1027
sg26
V5
sS'trials.thisRepN'
p1028
I0
sg66
Velephant
p1029
sg63
V../experiment_stimuli/bw_bc_bl/Living_Things/Animals/elephant_6.jpg
p1030
sg21
F2.1849813014268875
sS'trials.thisTrialN'
p1031
I85
sa(dp1032
g31
g32
sg17
F397.0165382749401
sg24
I0
sg35
g39
sg14
F397.01171256555244
sg16
g36
(g70
S'\x01\x00\x00\x00'
tRp1033
sg42
g43
sg46
g47
sg15
g72
sg22
F399.15703326556832
sg64
g195
sg62
g112
sg49
g50
sS'trials.thisN'
p1034
I86
sg19
I1
sg27
g36
(g38
S'\x00\x00\x00\x00\x00\x00\x18@'
tRp1035
sg52
g53
sg23
S'2'
sg18
F398.29441765369847
sg33
g34
sg51
g11
sg20
S'1'
sg65
g36
(g77
S'\x00\x00\x00\x00\x00\x00\x00\x00'
tRp1036
sg44
g45
sg40
g41
sg25
F0.34096065443009138
sS'trials.thisIndex'
p1037
g36
(g80
S'7\x00\x00\x00'
tRp1038
sg26
V5
sS'trials.thisRepN'
p1039
I0
sg66
Vnarwhal
p1040
sg63
V../experiment_stimuli/bw_bc_bl/Living_Things/Marine_creatures/narwhal_22.jpg
p1041
sg21
F0.8420692034997046
sS'trials.thisTrialN'
p1042
I86
sa(dp1043
g31
g32
sg17
F401.23576177749783
sg24
I0
sg35
g39
sg14
F401.23088711034507
sg16
g36
(g70
S'\x01\x00\x00\x00'
tRp1044
sg42
g43
sg46
g47
sg15
g124
sg22
F404.28817347157747
sg64
g73
sg62
g74
sg49
g50
sS'trials.thisN'
p1045
I87
sg19
I1
sg27
g36
(g38
S'\x00\x00\x00\x00\x00\x00\x18@'
tRp1046
sg52
g53
sg23
S'3'
sg18
F402.49353435076773
sg33
g34
sg51
g11
sg20
S'1'
sg65
g36
(g77
S'\x00\x00\x00\x00\x00\x00\x00\x00'
tRp1047
sg44
g45
sg40
g41
sg25
F0.98220447078347206
sS'trials.thisIndex'
p1048
g36
(g80
S'E\x00\x00\x00'
tRp1049
sg26
V5
sS'trials.thisRepN'
p1050
I0
sg66
Vrocking-chair
p1051
sg63
V../experiment_stimuli/bw_bc_bl/Nonliving_Things/Furniture/rocking-chair_22.jpg
p1052
sg21
F1.7740895771421492
sS'trials.thisTrialN'
p1053
I87
sa(dp1054
g31
g32
sg17
F407.00819892715663
sg24
I1
sg35
g39
sg14
F407.00343674700707
sg16
g36
(g70
S'\x02\x00\x00\x00'
tRp1055
sg42
g43
sg46
g47
sg15
g72
sg22
F408.56748278345913
sg64
g125
sg62
g74
sg49
g50
sS'trials.thisN'
p1056
I88
sg19
I1
sg27
g36
(g38
S'\x00\x00\x00\x00\x00\x00\x1a@'
tRp1057
sg52
g53
sg23
S'1'
sg18
F408.24604826653376
sg33
g34
sg51
g11
sg20
S'2'
sg65
g36
(g77
S'\x00\x00\x00\x00\x00\x00\x00\x00'
tRp1058
sg44
g45
sg40
g41
sg25
F0.18066800618544221
sS'trials.thisIndex'
p1059
g36
(g80
S'G\x00\x00\x00'
tRp1060
sg26
V5
sS'trials.thisRepN'
p1061
I0
sg66
Vsaucepan
p1062
sg63
V../experiment_stimuli/bw_bc_bl/Nonliving_Things/Kitchen_Uten/saucepan_10.jpg
p1063
sg21
F0.30089136771857738
sS'trials.thisTrialN'
p1064
I88
sa(dp1065
g31
g32
sg17
F410.48575857793912
sg24
I0
sg35
g39
sg14
F410.48099974729121
sg16
g36
(g70
S'\x01\x00\x00\x00'
tRp1066
sg42
g43
sg46
g47
sg15
g72
sg22
F413.92913286481053
sg64
g160
sg62
g112
sg49
g50
sS'trials.thisN'
p1067
I89
sg19
I1
sg27
g36
(g38
S'\x00\x00\x00\x00\x00\x00\x1a@'
tRp1068
sg52
g53
sg23
S'3'
sg18
F411.75366602838039
sg33
g34
sg51
g11
sg20
S'1'
sg65
g36
(g77
S'\x00\x00\x00\x00\x00\x00\x00\x00'
tRp1069
sg44
g45
sg40
g41
sg25
F0.1610677121207118
sS'trials.thisIndex'
p1070
g36
(g80
S'\x14\x00\x00\x00'
tRp1071
sg26
V5
sS'trials.thisRepN'
p1072
I0
sg66
Vcow
p1073
sg63
V../experiment_stimuli/bw_bc_bl/Living_Things/Animals/cow_8.jpg
p1074
sg21
F2.1549147740006447
sS'trials.thisTrialN'
p1075
I89
sa(dp1076
g31
g32
sg17
F415.8274490092881
sg24
I0
sg35
g39
sg14
F415.82260660082102
sg16
g36
(g70
S'\x01\x00\x00\x00'
tRp1077
sg42
g43
sg46
g47
sg15
g124
sg22
F419.49121528258547
sg64
g148
sg62
g74
sg49
g50
sS'trials.thisN'
p1078
I90
sg19
I1
sg27
g36
(g38
S'\x00\x00\x00\x00\x00\x00\x18@'
tRp1079
sg52
g53
sg23
S'3'
sg18
F417.07523646578193
sg33
g34
sg51
g11
sg20
S'1'
sg65
g36
(g77
S'\x00\x00\x00\x00\x00\x00\x00\x00'
tRp1080
sg44
g45
sg40
g41
sg25
F0.34098414704203606
sS'trials.thisIndex'
p1081
g36
(g80
S'#\x00\x00\x00'
tRp1082
sg26
V5
sS'trials.thisRepN'
p1083
I0
sg66
Vgranary
p1084
sg63
V../experiment_stimuli/bw_bc_bl/Nonliving_Things/Buildings/granary_24.jpg
p1085
sg21
F2.3954335846938193
sS'trials.thisTrialN'
p1086
I90
sa(dp1087
g31
g32
sg17
F421.57986848289147
sg24
I1
sg35
g39
sg14
F421.57511235913262
sg16
g36
(g70
S'\x01\x00\x00\x00'
tRp1088
sg42
g43
sg46
g47
sg15
g124
sg22
F423.24940762110054
sg64
g252
sg62
g74
sg49
g50
sS'trials.thisN'
p1089
I91
sg19
I0
sg27
g36
(g38
S'\x00\x00\x00\x00\x00\x00 @'
tRp1090
sg52
g53
sg23
S'1'
sg18
F422.80769424047321
sg33
g34
sg51
g11
sg20
S'2'
sg65
g36
(g77
S'\x00\x00\x00\x00\x00\x00\x00\x00'
tRp1091
sg44
g45
sg40
g41
sg25
F0.050334019586443901
sS'trials.thisIndex'
p1092
g36
(g80
S'\x19\x00\x00\x00'
tRp1093
sg26
V5
sS'trials.thisRepN'
p1094
I0
sg66
Vdrum
p1095
sg63
V../experiment_stimuli/bw_bc_bl/Nonliving_Things/Musical_Inst/drum_6.jpg
p1096
sg21
F0.42114134831354022
sS'trials.thisTrialN'
p1097
I91
sa(dp1098
g31
g32
sg17
F425.03749300958589
sg24
I1
sg35
g39
sg14
F425.03262813901529
sg16
g36
(g70
S'\x01\x00\x00\x00'
tRp1099
sg42
g43
sg46
g47
sg15
g72
sg22
F427.56877540796995
sg64
g111
sg62
g112
sg49
g50
sS'trials.thisN'
p1100
I92
sg19
I1
sg27
g36
(g38
S'\x00\x00\x00\x00\x00\x00\x1c@'
tRp1101
sg52
g53
sg23
S'1'
sg18
F426.28535792371258
sg33
g34
sg51
g11
sg20
S'1'
sg65
g36
(g77
S'\x00\x00\x00\x00\x00\x00\x00\x00'
tRp1102
sg44
g45
sg40
g41
sg25
F0.18060903716832399
sS'trials.thisIndex'
p1103
g36
(g80
S'9\x00\x00\x00'
tRp1104
sg26
V5
sS'trials.thisRepN'
p1105
I0
sg66
Vowl
p1106
sg63
V../experiment_stimuli/bw_bc_bl/Living_Things/Birds/owl_4.jpg
p1107
sg21
F1.2629710403271019
sS'trials.thisTrialN'
p1108
I92
sa(dp1109
g31
g32
sg17
F429.48702613543719
sg24
I0
sg35
g39
sg14
F429.48229900328442
sg16
g36
(g70
S'\x01\x00\x00\x00'
tRp1110
sg42
g43
sg46
g47
sg15
g124
sg22
F432.789974023588
sg64
g148
sg62
g74
sg49
g50
sS'trials.thisN'
p1111
I93
sg19
I1
sg27
g36
(g38
S'\x00\x00\x00\x00\x00\x00\x18@'
tRp1112
sg52
g53
sg23
S'2'
sg18
F430.75497749447823
sg33
g34
sg51
g11
sg20
S'1'
sg65
g36
(g77
S'\x00\x00\x00\x00\x00\x00\x00\x00'
tRp1113
sg44
g45
sg40
g41
sg25
F0.18060573283582926
sS'trials.thisIndex'
p1114
g36
(g80
S')\x00\x00\x00'
tRp1115
sg26
V5
sS'trials.thisRepN'
p1116
I0
sg66
Vhouse
p1117
sg63
V../experiment_stimuli/bw_bc_bl/Nonliving_Things/Buildings/house_6.jpg
p1118
sg21
F2.014446868095547
sS'trials.thisTrialN'
p1119
I93
sa(dp1120
g31
g32
sg17
F434.70886552706361
sg24
I0
sg35
g39
sg14
F434.70365702267736
sg16
g36
(g70
S'\x01\x00\x00\x00'
tRp1121
sg42
g43
sg46
g47
sg15
g72
sg22
F436.00711604673415
sg64
g160
sg62
g112
sg49
g50
sS'trials.thisN'
p1122
I94
sg19
I1
sg27
g36
(g38
S'\x00\x00\x00\x00\x00\x00\x1e@'
tRp1123
sg52
g53
sg23
S'2'
sg18
F435.9763332544826
sg33
g34
sg51
g11
sg20
S'1'
sg65
g36
(g77
S'\x00\x00\x00\x00\x00\x00\x00\x00'
tRp1124
sg44
g45
sg40
g41
sg25
F0.21068717818707228
sS'trials.thisIndex'
p1125
g36
(g80
S'T\x00\x00\x00'
tRp1126
sg26
V5
sS'trials.thisRepN'
p1127
I0
sg66
Vtiger
p1128
sg63
V../experiment_stimuli/bw_bc_bl/Living_Things/Animals/tiger_25.jpg
p1129
sg21
F0.010251060128211975
sS'trials.thisTrialN'
p1130
I94
sa(dp1131
g31
g32
sg17
F437.95552175166085
sg24
I0
sg35
g39
sg14
F437.95071448246017
sg16
g36
(g70
S'\x01\x00\x00\x00'
tRp1132
sg42
g43
sg46
g47
sg15
g72
sg22
F439.42457241564989
sg64
g111
sg62
g112
sg49
g50
sS'trials.thisN'
p1133
I95
sg19
I0
sg27
g36
(g38
S'\x00\x00\x00\x00\x00\x00 @'
tRp1134
sg52
g53
sg23
S'2'
sg18
F439.2033488471061
sg33
g34
sg51
g11
sg20
S'2'
sg65
g36
(g77
S'\x00\x00\x00\x00\x00\x00\x00\x00'
tRp1135
sg44
g45
sg40
g41
sg25
F1.824197412468493
sS'trials.thisIndex'
p1136
g36
(g80
S'\x04\x00\x00\x00'
tRp1137
sg26
V5
sS'trials.thisRepN'
p1138
I0
sg66
Vbarn-owl
p1139
sg63
V../experiment_stimuli/bw_bc_bl/Living_Things/Birds/barn-owl_12.jpg
p1140
sg21
F0.20067370496690273
sS'trials.thisTrialN'
p1141
I95
sasS'loops'
p1142
(lp1143
g1
(cpsychopy.data
TrialHandler
p1144
g3
NtRp1145
(dp1146
S'origin'
p1147
NsS'thisTrial'
p1148
(lp1149
sS'_exp'
p1150
I97317136
sg10
S'trials'
p1151
sg6
I-1
sS'thisRepN'
p1152
I1
sg28
I01
sg29
g30
sS'data'
p1153
g1
(cpsychopy.data
DataHandler
p1154
c__builtin__
dict
p1155
(dp1156
g20
cnumpy.core.multiarray
_reconstruct
p1157
(cnumpy
ndarray
p1158
(I0
tS'b'
tRp1159
(I1
(I96
I1
tg37
(S'O4'
I0
I1
tRp1160
(I3
S'|'
NNNI-1
I-1
I63
tbI00
(lp1161
S'1'
aS'2'
aS'2'
aS'1'
aS'2'
aS'2'
aS'2'
aS'2'
aS'1'
aS'1'
aS'1'
aS'2'
aS'1'
aS'1'
aS'2'
aS'2'
aS'2'
aS'2'
aS'1'
aS'1'
aS'1'
aS'2'
aS'1'
aS'2'
aS'1'
aS'2'
aS'1'
aS'2'
aS'2'
aS'1'
aS'1'
aS'2'
aS'2'
aS'1'
aS'2'
aS'1'
aS'1'
aS'1'
aS'1'
aS'1'
aS'1'
aS'1'
aS'2'
aS'1'
aS'2'
aS'2'
aS'2'
aS'2'
aS'2'
aS'2'
aS'1'
aS'2'
aS'2'
aS'1'
aS'2'
aS'1'
aS'2'
aS'1'
aS'1'
aS'1'
aS'1'
aS'2'
aS'1'
aS'1'
aS'1'
aS'2'
aS'2'
aS'1'
aS'1'
aS'1'
aS'1'
aS'2'
aS'1'
aS'1'
aS'2'
aS'1'
aS'1'
aS'2'
aS'1'
aS'2'
aS'2'
aS'1'
aS'1'
aS'2'
aS'1'
aS'2'
aS'1'
aS'1'
aS'1'
aS'2'
aS'2'
aS'2'
aS'2'
aS'1'
aS'1'
aS'1'
atbsg17
cnumpy.ma.core
_mareconstruct
p1162
(cnumpy.ma.core
MaskedArray
p1163
g1158
(I0
tp1164
S'b'
tRp1165
(I1
(I96
I1
tg37
(S'f4'
I0
I1
tRp1166
(I3
S'<'
NNNI-1
I-1
I0
tbI00
S"p>}C\xden\x81C\x9e\x94\x99B\xe8oAAO\xfa\xdaC\xc01/C\xfbn\xa6C\xa8\xefoC\xa4\xc33Cu\xa2xB\xb5\x9c\xb3Cd)WB\x9e\x92\xb1C\xbb5\x10B\xc1)\x1cC\x81sMCZv\xaaCx$\xd9Br\xcc\x91C\xef\xd5]C->\xcdC\n\x96yC\xaf\x8f\x1fCg,\xe8B\xdd\xbc\xe1B9\xca\xd2C\xb6\x80\x87B\xe9k\xc3C\x94K\x01B\x07\x97VC\xd9=\xacA\x0fkZC\x03U\xc1C#\xe8\x13CjL\xaaB\xea\xe9\xcfC.C\x17C5\xc6\xb0BXf\xa4C\xb4\n\x00C\xbe\xdfRCW\xbe\xd6CQ\xa6\xbbC\x93\xce\x9eC\x9a^?C\t\x13/Bb\x16\xf6@Z0o@]\x94\x8dC\x9e\xce+C\xb7\x87(C*9\x8fAaPAB\xe4\xe1IC\xc1\x8a\x87C\x1e\x82\xc6Cm\xfdhC\xcd\x84\xd4CE\xb0!B\xf9\xc5\xd5AN&dB'\xd1\xb5C\xf4\xba\x84C&\x19\x9dC~+\x89C\x84\xa6\xbdCt\x1b\xacC\xcbv\x0eC\xa8\xc6\x05C-\x9e\xc8C<\x0c\xf8B\r\x81\xcbCz$\x98C!\xbd\xafC6n\xa0Cr\xcf\xf0B\xed/\xd2B\x9fVlC\xba\x7f:C\xf9\xf2cC\xde\n7CI\xea\xc4B\xa5\x95\x8fC\xea\x14\x83C\xbcZ\xd9C\x18\xdb\x8bC\x9a\xdf\xbaB\x85.\tC\x05\xcd\xb9C}\x9f\x90B)~EC5o\x94C\xdd\x81uCs\xcc\xa1B*'\xa8CVV\x9aC"
S'\x00\x00\x00\x00\x00\x00\x00\x00\x00\x00\x00\x00\x00\x00\x00\x00\x00\x00\x00\x00\x00\x00\x00\x00\x00\x00\x00\x00\x00\x00\x00\x00\x00\x00\x00\x00\x00\x00\x00\x00\x00\x00\x00\x00\x00\x00\x00\x00\x00\x00\x00\x00\x00\x00\x00\x00\x00\x00\x00\x00\x00\x00\x00\x00\x00\x00\x00\x00\x00\x00\x00\x00\x00\x00\x00\x00\x00\x00\x00\x00\x00\x00\x00\x00\x00\x00\x00\x00\x00\x00\x00\x00\x00\x00\x00\x00'
NtbsS'ran'
p1167
g1162
(g1163
g1158
g1164
S'b'
tRp1168
(I1
(I96
I1
tg1166
I00
S'\x00\x00\x80?\x00\x00\x80?\x00\x00\x80?\x00\x00\x80?\x00\x00\x80?\x00\x00\x80?\x00\x00\x80?\x00\x00\x80?\x00\x00\x80?\x00\x00\x80?\x00\x00\x80?\x00\x00\x80?\x00\x00\x80?\x00\x00\x80?\x00\x00\x80?\x00\x00\x80?\x00\x00\x80?\x00\x00\x80?\x00\x00\x80?\x00\x00\x80?\x00\x00\x80?\x00\x00\x80?\x00\x00\x80?\x00\x00\x80?\x00\x00\x80?\x00\x00\x80?\x00\x00\x80?\x00\x00\x80?\x00\x00\x80?\x00\x00\x80?\x00\x00\x80?\x00\x00\x80?\x00\x00\x80?\x00\x00\x80?\x00\x00\x80?\x00\x00\x80?\x00\x00\x80?\x00\x00\x80?\x00\x00\x80?\x00\x00\x80?\x00\x00\x80?\x00\x00\x80?\x00\x00\x80?\x00\x00\x80?\x00\x00\x80?\x00\x00\x80?\x00\x00\x80?\x00\x00\x80?\x00\x00\x80?\x00\x00\x80?\x00\x00\x80?\x00\x00\x80?\x00\x00\x80?\x00\x00\x80?\x00\x00\x80?\x00\x00\x80?\x00\x00\x80?\x00\x00\x80?\x00\x00\x80?\x00\x00\x80?\x00\x00\x80?\x00\x00\x80?\x00\x00\x80?\x00\x00\x80?\x00\x00\x80?\x00\x00\x80?\x00\x00\x80?\x00\x00\x80?\x00\x00\x80?\x00\x00\x80?\x00\x00\x80?\x00\x00\x80?\x00\x00\x80?\x00\x00\x80?\x00\x00\x80?\x00\x00\x80?\x00\x00\x80?\x00\x00\x80?\x00\x00\x80?\x00\x00\x80?\x00\x00\x80?\x00\x00\x80?\x00\x00\x80?\x00\x00\x80?\x00\x00\x80?\x00\x00\x80?\x00\x00\x80?\x00\x00\x80?\x00\x00\x80?\x00\x00\x80?\x00\x00\x80?\x00\x00\x80?\x00\x00\x80?\x00\x00\x80?\x00\x00\x80?\x00\x00\x80?'
S'\x00\x00\x00\x00\x00\x00\x00\x00\x00\x00\x00\x00\x00\x00\x00\x00\x00\x00\x00\x00\x00\x00\x00\x00\x00\x00\x00\x00\x00\x00\x00\x00\x00\x00\x00\x00\x00\x00\x00\x00\x00\x00\x00\x00\x00\x00\x00\x00\x00\x00\x00\x00\x00\x00\x00\x00\x00\x00\x00\x00\x00\x00\x00\x00\x00\x00\x00\x00\x00\x00\x00\x00\x00\x00\x00\x00\x00\x00\x00\x00\x00\x00\x00\x00\x00\x00\x00\x00\x00\x00\x00\x00\x00\x00\x00\x00'
Ntbsg24
g1162
(g1163
g1158
g1164
S'b'
tRp1169
(I1
(I96
I1
tg1166
I00
S'\x00\x00\x00\x00\x00\x00\x00\x00\x00\x00\x00\x00\x00\x00\x80?\x00\x00\x00\x00\x00\x00\x00\x00\x00\x00\x80?\x00\x00\x00\x00\x00\x00\x80?\x00\x00\x00\x00\x00\x00\x00\x00\x00\x00\x80?\x00\x00\x00\x00\x00\x00\x00\x00\x00\x00\x80?\x00\x00\x00\x00\x00\x00\x80?\x00\x00\x00\x00\x00\x00\x00\x00\x00\x00\x00\x00\x00\x00\x00\x00\x00\x00\x80?\x00\x00\x00\x00\x00\x00\x00\x00\x00\x00\x80?\x00\x00\x80?\x00\x00\x80?\x00\x00\x00\x00\x00\x00\x80?\x00\x00\x00\x00\x00\x00\x00\x00\x00\x00\x80?\x00\x00\x80?\x00\x00\x80?\x00\x00\x80?\x00\x00\x00\x00\x00\x00\x00\x00\x00\x00\x80?\x00\x00\x00\x00\x00\x00\x00\x00\x00\x00\x00\x00\x00\x00\x00\x00\x00\x00\x80?\x00\x00\x80?\x00\x00\x80?\x00\x00\x00\x00\x00\x00\x00\x00\x00\x00\x00\x00\x00\x00\x80?\x00\x00\x80?\x00\x00\x00\x00\x00\x00\x80?\x00\x00\x00\x00\x00\x00\x80?\x00\x00\x00\x00\x00\x00\x00\x00\x00\x00\x80?\x00\x00\x80?\x00\x00\x80?\x00\x00\x00\x00\x00\x00\x80?\x00\x00\x00\x00\x00\x00\x00\x00\x00\x00\x80?\x00\x00\x80?\x00\x00\x00\x00\x00\x00\x00\x00\x00\x00\x00\x00\x00\x00\x80?\x00\x00\x00\x00\x00\x00\x00\x00\x00\x00\x80?\x00\x00\x00\x00\x00\x00\x80?\x00\x00\x00\x00\x00\x00\x80?\x00\x00\x80?\x00\x00\x80?\x00\x00\x00\x00\x00\x00\x00\x00\x00\x00\x80?\x00\x00\x00\x00\x00\x00\x00\x00\x00\x00\x80?\x00\x00\x00\x00\x00\x00\x80?\x00\x00\x00\x00\x00\x00\x00\x00\x00\x00\x80?\x00\x00\x00\x00\x00\x00\x80?\x00\x00\x00\x00\x00\x00\x00\x00\x00\x00\x00\x00\x00\x00\x00\x00\x00\x00\x00\x00'
S'\x00\x00\x00\x00\x00\x00\x00\x00\x00\x00\x00\x00\x00\x00\x00\x00\x00\x00\x00\x00\x00\x00\x00\x00\x00\x00\x00\x00\x00\x00\x00\x00\x00\x00\x00\x00\x00\x00\x00\x00\x00\x00\x00\x00\x00\x00\x00\x00\x00\x00\x00\x00\x00\x00\x00\x00\x00\x00\x00\x00\x00\x00\x00\x00\x00\x00\x00\x00\x00\x00\x00\x00\x00\x00\x00\x00\x00\x00\x00\x00\x00\x00\x00\x00\x00\x00\x00\x00\x00\x00\x00\x00\x00\x00\x00\x00'
Ntbsg14
g1162
(g1163
g1158
g1164
S'b'
tRp1170
(I1
(I96
I1
tg1166
I00
S'9=}CAn\x81C1\x92\x99B\xaa[AA\xb1\xf9\xdaC\x810/C^n\xa6C#\xeeoCh\xc23Ch\x9dxB\x1a\x9c\xb3Ce$WB\x02\x92\xb1C\x1f0\x10By(\x1cC\xfbqMC\xbbu\xaaC\x19!\xd9B\xd8\xcb\x91C\xb4\xd4]C\x91=\xcdC\xc9\x94yC4\x8e\x1fCs)\xe8BY\xba\xe1B\x9d\xc9\xd2C\xe3}\x87BMk\xc3C\x85F\x01B\xca\x95VC\x054\xacA\xd7iZCaT\xc1Cp\xe6\x13C\x93I\xaaBK\xe9\xcfC\xe7A\x17C\xf0\xc2\xb0B\x8ee\xa4Cv\t\x00C\xf5\xddRC\xbc\xbd\xd6C\xb2\xa5\xbbC\xf7\xcd\x9eCY]?C\x14\x0e/B\x17\xee\xf5@B\xdem@\xbd\x93\x8dCV\xcd+Cd\x86(C&.\x8fAmKAB\xa3\xe0IC\xfa\x89\x87C\x80\x81\xc6C1\xfchC-\x84\xd4Cw\xaa!B\xcd\xbb\xd5Aa!dB\x88\xd0\xb5CT\xba\x84C\x88\x18\x9dC\xe1*\x89C\x88\xa5\xbdC|\x1a\xacCSu\x0eC\xf8\xc4\x05C\x8e\x9d\xc8CT\t\xf8Bq\x80\xcbC\xdb#\x98C\x82\xbc\xafC\x97m\xa0C\xfd\xcc\xf0B\x93,\xd2B\x18UlCy~:C\xb4\xf1cCY\t7C\xc0\xe7\xc4B\xda\x94\x8fCK\x14\x83C\x11Z\xd9Cu\xda\x8bC\n\xdd\xbaBD-\tCY\xcc\xb9C\x91\x9c\x90B\xea|EC\x97n\x94C\x99\x80uC\xfa\xc9\xa1B^&\xa8C\xb8U\x9aC'
S'\x00\x00\x00\x00\x00\x00\x00\x00\x00\x00\x00\x00\x00\x00\x00\x00\x00\x00\x00\x00\x00\x00\x00\x00\x00\x00\x00\x00\x00\x00\x00\x00\x00\x00\x00\x00\x00\x00\x00\x00\x00\x00\x00\x00\x00\x00\x00\x00\x00\x00\x00\x00\x00\x00\x00\x00\x00\x00\x00\x00\x00\x00\x00\x00\x00\x00\x00\x00\x00\x00\x00\x00\x00\x00\x00\x00\x00\x00\x00\x00\x00\x00\x00\x00\x00\x00\x00\x00\x00\x00\x00\x00\x00\x00\x00\x00'
Ntbsg16
g1157
(g1158
(I0
tS'b'
tRp1171
(I1
(I96
I1
tg1160
I00
(lp1172
g703
ag714
ag263
ag98
ag1132
ag505
ag890
ag670
ag516
ag229
ag956
ag206
ag945
ag159
ag461
ag582
ag912
ag340
ag802
ag626
ag1066
ag692
ag472
ag362
ag351
ag1088
ag240
ag1022
ag147
ag604
ag123
ag615
ag1011
ag439
ag285
ag1077
ag450
ag296
ag879
ag395
ag593
ag1110
ag989
ag857
ag549
ag182
ag87
ag71
ag780
ag494
ag483
ag110
ag194
ag571
ag747
ag1033
ag648
ag1099
ag171
ag136
ag218
ag967
ag736
ag846
ag758
ag1000
ag923
ag428
ag406
ag1044
ag384
ag1055
ag824
ag934
ag868
ag373
ag329
ag659
ag538
ag637
ag527
ag318
ag791
ag725
ag1121
ag769
ag307
ag417
ag978
ag251
ag560
ag813
ag681
ag274
ag901
ag835
atbsg15
g1157
(g1158
(I0
tS'b'
tRp1173
(I1
(I96
I1
tg1160
I00
(lp1174
g124
ag124
ag72
ag72
ag72
ag72
ag124
ag72
ag72
ag124
ag72
ag72
ag124
ag72
ag124
ag124
ag124
ag124
ag124
ag72
ag72
ag72
ag124
ag72
ag72
ag124
ag124
ag124
ag124
ag124
ag124
ag124
ag72
ag72
ag124
ag124
ag124
ag124
ag72
ag72
ag72
ag124
ag124
ag72
ag72
ag72
ag72
ag72
ag124
ag72
ag72
ag72
ag124
ag124
ag72
ag72
ag72
ag72
ag124
ag72
ag72
ag124
ag124
ag72
ag124
ag72
ag72
ag72
ag72
ag124
ag124
ag72
ag124
ag124
ag124
ag124
ag124
ag72
ag124
ag72
ag124
ag124
ag72
ag124
ag72
ag72
ag124
ag124
ag72
ag72
ag72
ag72
ag72
ag124
ag72
ag72
atbsg22
g1162
(g1163
g1158
g1164
S'b'
tRp1175
(I1
(I96
I1
tg1166
I00
S']g\x80C\x1b\x15\x82C\xbc\x1e\x9dB+\xfaWAX\xb6\xdbCj\xd31Cj:\xa7C:\xbfrC\xcb\x175C,q\x82BQ\xda\xb4C\x7f\x8e\\B\x9b\xa4\xb2C\xed\xed\x18B\xe8\xa6\x1dC#\xe2PC\xfe"\xabC\xcc\x9e\xddB\x88k\x93C\x87b_C\xee\xf6\xceC>N{C\xa7+&C[\xd5\xecB\x8d<\xe4B\xed\x9f\xd3C\xdbV\x8aB\\,\xc5C\xb6\xb1\x08B\xa0^XC\x1bb\xc5A^\xff[C\xa3\x80\xc2C\xc8M\x15C9\xef\xacB\xe0\xbe\xd1C\xaf\xdf\x19C\xb5m\xb3B\x9cl\xa5CH\xbc\x03CF\x92TC\x1ee\xd8C\xdc\xba\xbcC\xf7p\x9fC\x93\xa7CCUQ8B\xddB"A"k\xb7@\xc5\xa3\x8eCyS-C\xc6\xdb)C\x14\xbc\x9cA6RLBvnKC\xf9,\x88C\x1a\x94\xc7C1}jC\xce\xc8\xd5C\x96=\'B\x13\xc7\xe7A!\xaepB\xa1\xb8\xb8Cjr\x86C\x9d\xd2\x9dC\x89\xe7\x89C\x83D\xc0CW5\xaeC\xeb\xe2\x11CG,\x07C\xe3$\xcaC\xee4\xfcB\xa3H\xccC\xadR\x99C\x83\x9a\xb0CI\x0b\xa3C\xf2\x1b\xf4B\xc58\xd5B;\x16nCBW=C\x83\xf3fCg\xb38C\x9bN\xceBa\x87\x90C\xb0\xc6\x83C\xe9\x00\xdaC\x80\xa6\x8cC\x81\xff\xc0B\x8eg\x0cC\xc4\xb0\xbaC\x07\x86\x95BL\x0bHCk\x11\x97C\xe1\x81wCk=\xa6B<~\xa9Cj\xba\x9bC'
S'\x00\x00\x00\x00\x00\x00\x00\x00\x00\x00\x00\x00\x00\x00\x00\x00\x00\x00\x00\x00\x00\x00\x00\x00\x00\x00\x00\x00\x00\x00\x00\x00\x00\x00\x00\x00\x00\x00\x00\x00\x00\x00\x00\x00\x00\x00\x00\x00\x00\x00\x00\x00\x00\x00\x00\x00\x00\x00\x00\x00\x00\x00\x00\x00\x00\x00\x00\x00\x00\x00\x00\x00\x00\x00\x00\x00\x00\x00\x00\x00\x00\x00\x00\x00\x00\x00\x00\x00\x00\x00\x00\x00\x00\x00\x00\x00'
Ntbsg26
g1157
(g1158
(I0
tS'b'
tRp1176
(I1
(I96
I1
tg1160
I00
(lp1177
g36
(g80
S'\x05\x00\x00\x00'
tRp1178
ag36
(g80
S'\x04\x00\x00\x00'
tRp1179
ag36
(g80
S'\x04\x00\x00\x00'
tRp1180
ag36
(g80
S'\x01\x00\x00\x00'
tRp1181
ag36
(g80
S'\x03\x00\x00\x00'
tRp1182
ag36
(g80
S'\x03\x00\x00\x00'
tRp1183
aI1
ag36
(g80
S'\x06\x00\x00\x00'
tRp1184
ag36
(g80
S'\x02\x00\x00\x00'
tRp1185
ag36
(g80
S'\x06\x00\x00\x00'
tRp1186
ag36
(g80
S'\x04\x00\x00\x00'
tRp1187
ag36
(g80
S'\x02\x00\x00\x00'
tRp1188
ag36
(g80
S'\x05\x00\x00\x00'
tRp1189
ag36
(g80
S'\x04\x00\x00\x00'
tRp1190
ag36
(g80
S'\x02\x00\x00\x00'
tRp1191
ag36
(g80
S'\t\x00\x00\x00'
tRp1192
aI1
ag36
(g80
S'\x02\x00\x00\x00'
tRp1193
ag36
(g80
S'\x07\x00\x00\x00'
tRp1194
ag36
(g80
S'\x04\x00\x00\x00'
tRp1195
ag36
(g80
S'\x05\x00\x00\x00'
tRp1196
ag36
(g80
S'\x03\x00\x00\x00'
tRp1197
ag36
(g80
S'\x04\x00\x00\x00'
tRp1198
ag36
(g80
S'\x03\x00\x00\x00'
tRp1199
ag36
(g80
S'\x01\x00\x00\x00'
tRp1200
aI1
ag36
(g80
S'\x03\x00\x00\x00'
tRp1201
ag36
(g80
S'\x08\x00\x00\x00'
tRp1202
ag36
(g80
S'\x03\x00\x00\x00'
tRp1203
ag36
(g80
S'\x04\x00\x00\x00'
tRp1204
ag36
(g80
S'\x06\x00\x00\x00'
tRp1205
ag36
(g80
S'\x02\x00\x00\x00'
tRp1206
ag36
(g80
S'\x05\x00\x00\x00'
tRp1207
ag36
(g80
S'\x02\x00\x00\x00'
tRp1208
ag36
(g80
S'\x01\x00\x00\x00'
tRp1209
ag36
(g80
S'\x02\x00\x00\x00'
tRp1210
ag36
(g80
S'\x04\x00\x00\x00'
tRp1211
ag36
(g80
S'\x02\x00\x00\x00'
tRp1212
ag36
(g80
S'\x03\x00\x00\x00'
tRp1213
ag36
(g80
S'\x03\x00\x00\x00'
tRp1214
ag36
(g80
S'\x06\x00\x00\x00'
tRp1215
ag36
(g80
S'\x05\x00\x00\x00'
tRp1216
ag36
(g80
S'\x03\x00\x00\x00'
tRp1217
ag36
(g80
S'\x03\x00\x00\x00'
tRp1218
ag36
(g80
S'\x03\x00\x00\x00'
tRp1219
ag36
(g80
S'\x04\x00\x00\x00'
tRp1220
aS'4.0'
p1221
aS'5.0'
p1222
ag36
(g80
S'\x06\x00\x00\x00'
tRp1223
ag36
(g80
S'\x01\x00\x00\x00'
tRp1224
ag36
(g80
S'\x02\x00\x00\x00'
tRp1225
ag36
(g80
S'\x04\x00\x00\x00'
tRp1226
ag36
(g80
S'\x03\x00\x00\x00'
tRp1227
ag36
(g80
S'\x06\x00\x00\x00'
tRp1228
ag36
(g80
S'\x03\x00\x00\x00'
tRp1229
ag36
(g80
S'\x05\x00\x00\x00'
tRp1230
ag36
(g80
S'\x02\x00\x00\x00'
tRp1231
ag36
(g80
S'\x03\x00\x00\x00'
tRp1232
ag36
(g80
S'\x03\x00\x00\x00'
tRp1233
ag36
(g80
S'\x05\x00\x00\x00'
tRp1234
ag36
(g80
S'\x05\x00\x00\x00'
tRp1235
ag36
(g80
S'\x02\x00\x00\x00'
tRp1236
ag36
(g80
S'\x04\x00\x00\x00'
tRp1237
ag36
(g80
S'\x01\x00\x00\x00'
tRp1238
ag36
(g80
S'\x02\x00\x00\x00'
tRp1239
ag36
(g80
S'\x06\x00\x00\x00'
tRp1240
ag36
(g80
S'\x03\x00\x00\x00'
tRp1241
ag36
(g80
S'\x03\x00\x00\x00'
tRp1242
ag36
(g80
S'\x02\x00\x00\x00'
tRp1243
ag36
(g80
S'\x04\x00\x00\x00'
tRp1244
ag36
(g80
S'\x05\x00\x00\x00'
tRp1245
ag36
(g80
S'\x02\x00\x00\x00'
tRp1246
ag36
(g80
S'\x04\x00\x00\x00'
tRp1247
ag36
(g80
S'\x02\x00\x00\x00'
tRp1248
ag36
(g80
S'\x05\x00\x00\x00'
tRp1249
ag36
(g80
S'\x02\x00\x00\x00'
tRp1250
aI1
ag36
(g80
S'\x04\x00\x00\x00'
tRp1251
ag36
(g80
S'\x05\x00\x00\x00'
tRp1252
ag36
(g80
S'\x03\x00\x00\x00'
tRp1253
ag36
(g80
S'\x03\x00\x00\x00'
tRp1254
ag36
(g80
S'\x03\x00\x00\x00'
tRp1255
ag36
(g80
S'\x08\x00\x00\x00'
tRp1256
ag36
(g80
S'\x03\x00\x00\x00'
tRp1257
ag36
(g80
S'\x04\x00\x00\x00'
tRp1258
ag36
(g80
S'\x03\x00\x00\x00'
tRp1259
ag36
(g80
S'\x04\x00\x00\x00'
tRp1260
ag36
(g80
S'\x04\x00\x00\x00'
tRp1261
ag36
(g80
S'\x01\x00\x00\x00'
tRp1262
ag36
(g80
S'\x06\x00\x00\x00'
tRp1263
ag36
(g80
S'\x05\x00\x00\x00'
tRp1264
ag36
(g80
S'\x06\x00\x00\x00'
tRp1265
ag36
(g80
S'\x05\x00\x00\x00'
tRp1266
ag36
(g80
S'\x03\x00\x00\x00'
tRp1267
ag36
(g80
S'\x02\x00\x00\x00'
tRp1268
ag36
(g80
S'\x03\x00\x00\x00'
tRp1269
atbsg21
g1162
(g1163
g1158
g1164
S'b'
tRp1270
(I1
(I96
I1
tg1166
I00
S"p\x9c\x11@\xa6@\xa6<5\x8a\xfb>\x87k$>h}M>\n}\xae?\xe2\x92\xae>\x1a\xbb\xc1?\xfd,\x90=\xbd\xcc\xe1?b\xf7\x99?\xba2\xb9=K\x92W?\xe2\xf5f?\xabBl>\x16\xb5\x06@\xbd7\xb9=\xf9{{?\x02N\xf6?m,\x8a> \xea\t@\xc2\xe5\xe1>R\x9e\xaa@<\xb9\x86?`t\x8e9\xd7\x9f\xd7>\xd4.\x1a>\xbc\xd6\x0b@+\xdd\x14?\xdbU\x00?\xcc\x0f\xec?\xb6O\xa4>T\xb9\x86?\xc7\xe4\x0f>\xe2$\x90=\xc9N\x19@\xa6\xa3\xaa?\xef&\x90=L\x9bE?\xbf8\x1b@w]\xcd>\xb3\xec\x00@\x1ded?`e\x829\xff\x12A@\x1c(\x84?+\x1e\x96?\xf4\x9b3?]\xdeO?u\xa9\x8a>\xa6\x1f\x90=c}\xd2>\xc6\xe1\xbd?\xd6c\x80>\xf0\xed\x839\xd9\x91W?@\x88v>\t\xa9\xa1?\x10\xc4\xf6=\xe3Yv?T\x10\xec?vH\x91@\xb2\xea\t@\x86yM>[\xbdW>p\x15|@&M;@\r\xea\t@\xbc\xbe\x0f>^\x15\xe3?\xc9\xbcJ?o\x0e\x9a>\x03J\x89?pG\xf1>\x1b\x15|@\xba\x18\xc3>\xe1\x94\x8a>WG\xf1>\x96\xdc\xc6?\xab\xee\xdd?s=\xc8>\x1c_[@3L\x12?\x8bC\xe2=\x10\xf4'<\xe6P\xa4>g]\xe4?\x9e\xe4\xf8?\xa3w\x05?\xb8\x8c\x93?\n\xa9\xa1?\xc8\x01~@a76?\xaf\xcas?\x14\xe7\xb4?\x8b\xbb\xc1?"
S'\x00\x00\x00\x00\x00\x00\x00\x00\x00\x00\x00\x00\x00\x00\x00\x00\x00\x00\x00\x00\x00\x00\x00\x00\x00\x00\x00\x00\x00\x00\x00\x00\x00\x00\x00\x00\x00\x00\x00\x00\x00\x00\x00\x00\x00\x00\x00\x00\x00\x00\x00\x00\x00\x00\x00\x00\x00\x00\x00\x00\x00\x00\x00\x00\x00\x00\x00\x00\x00\x00\x00\x00\x00\x00\x00\x00\x00\x00\x00\x00\x00\x00\x00\x00\x00\x00\x00\x00\x00\x00\x00\x00\x00\x00\x00\x00'
NtbsS'order'
p1271
g1162
(g1163
g1158
g1164
S'b'
tRp1272
(I1
(I96
I1
tg1166
I00
S'\x00\x00`B\x00\x00dB\x00\x00\x80A\x00\x00\x00@\x00\x00\xbeB\x00\x00\x18B\x00\x00\x92B\x00\x00TB\x00\x00\x1cB\x00\x00PA\x00\x00\x9eB\x00\x000A\x00\x00\x9cB\x00\x00\xe0@\x00\x00\x08B\x00\x004B\x00\x00\x96B\x00\x00\xb8A\x00\x00\x82B\x00\x00DB\x00\x00\xb2B\x00\x00\\B\x00\x00\x0cB\x00\x00\xc8A\x00\x00\xc0A\x00\x00\xb6B\x00\x00`A\x00\x00\xaaB\x00\x00\xc0@\x00\x00<B\x00\x00\x80@\x00\x00@B\x00\x00\xa8B\x00\x00\x00B\x00\x00\x90A\x00\x00\xb4B\x00\x00\x04B\x00\x00\x98A\x00\x00\x90B\x00\x00\xe0A\x00\x008B\x00\x00\xbaB\x00\x00\xa4B\x00\x00\x8cB\x00\x00(B\x00\x00\x10A\x00\x00\x80?\x00\x00\x00\x00\x00\x00|B\x00\x00\x14B\x00\x00\x10B\x00\x00@@\x00\x00 A\x00\x000B\x00\x00pB\x00\x00\xacB\x00\x00LB\x00\x00\xb8B\x00\x00\x00A\x00\x00\xa0@\x00\x00@A\x00\x00\xa0B\x00\x00lB\x00\x00\x8aB\x00\x00tB\x00\x00\xa6B\x00\x00\x98B\x00\x00\xf8A\x00\x00\xe8A\x00\x00\xaeB\x00\x00\xd8A\x00\x00\xb0B\x00\x00\x86B\x00\x00\x9aB\x00\x00\x8eB\x00\x00\xd0A\x00\x00\xb0A\x00\x00PB\x00\x00$B\x00\x00HB\x00\x00 B\x00\x00\xa8A\x00\x00\x80B\x00\x00hB\x00\x00\xbcB\x00\x00xB\x00\x00\xa0A\x00\x00\xf0A\x00\x00\xa2B\x00\x00pA\x00\x00,B\x00\x00\x84B\x00\x00XB\x00\x00\x88A\x00\x00\x94B\x00\x00\x88B'
S'\x00\x00\x00\x00\x00\x00\x00\x00\x00\x00\x00\x00\x00\x00\x00\x00\x00\x00\x00\x00\x00\x00\x00\x00\x00\x00\x00\x00\x00\x00\x00\x00\x00\x00\x00\x00\x00\x00\x00\x00\x00\x00\x00\x00\x00\x00\x00\x00\x00\x00\x00\x00\x00\x00\x00\x00\x00\x00\x00\x00\x00\x00\x00\x00\x00\x00\x00\x00\x00\x00\x00\x00\x00\x00\x00\x00\x00\x00\x00\x00\x00\x00\x00\x00\x00\x00\x00\x00\x00\x00\x00\x00\x00\x00\x00\x00'
Ntbsg19
g1162
(g1163
g1158
g1164
S'b'
tRp1273
(I1
(I96
I1
tg1166
I00
S'\x00\x00\x80?\x00\x00\x80?\x00\x00\x80?\x00\x00\x00\x00\x00\x00\x00\x00\x00\x00\x80?\x00\x00\x00\x00\x00\x00\x80?\x00\x00\x00\x00\x00\x00\x80?\x00\x00\x80?\x00\x00\x80?\x00\x00\x80?\x00\x00\x80?\x00\x00\x00\x00\x00\x00\x00\x00\x00\x00\x80?\x00\x00\x00\x00\x00\x00\x80?\x00\x00\x00\x00\x00\x00\x80?\x00\x00\x00\x00\x00\x00\x80?\x00\x00\x00\x00\x00\x00\x80?\x00\x00\x00\x00\x00\x00\x00\x00\x00\x00\x80?\x00\x00\x00\x00\x00\x00\x80?\x00\x00\x80?\x00\x00\x00\x00\x00\x00\x00\x00\x00\x00\x80?\x00\x00\x80?\x00\x00\x80?\x00\x00\x80?\x00\x00\x80?\x00\x00\x80?\x00\x00\x80?\x00\x00\x80?\x00\x00\x80?\x00\x00\x80?\x00\x00\x80?\x00\x00\x00\x00\x00\x00\x00\x00\x00\x00\x80?\x00\x00\x80?\x00\x00\x80?\x00\x00\x00\x00\x00\x00\x80?\x00\x00\x00\x00\x00\x00\x80?\x00\x00\x80?\x00\x00\x80?\x00\x00\x80?\x00\x00\x00\x00\x00\x00\x80?\x00\x00\x80?\x00\x00\x80?\x00\x00\x80?\x00\x00\x80?\x00\x00\x80?\x00\x00\x80?\x00\x00\x80?\x00\x00\x00\x00\x00\x00\x80?\x00\x00\x80?\x00\x00\x80?\x00\x00\x80?\x00\x00\x00\x00\x00\x00\x80?\x00\x00\x80?\x00\x00\x00\x00\x00\x00\x80?\x00\x00\x00\x00\x00\x00\x80?\x00\x00\x80?\x00\x00\x80?\x00\x00\x00\x00\x00\x00\x80?\x00\x00\x80?\x00\x00\x80?\x00\x00\x00\x00\x00\x00\x80?\x00\x00\x00\x00\x00\x00\x80?\x00\x00\x80?\x00\x00\x00\x00\x00\x00\x80?\x00\x00\x00\x00\x00\x00\x80?\x00\x00\x80?\x00\x00\x80?\x00\x00\x80?\x00\x00\x80?'
S'\x00\x00\x00\x00\x00\x00\x00\x00\x00\x00\x00\x00\x00\x00\x00\x00\x00\x00\x00\x00\x00\x00\x00\x00\x00\x00\x00\x00\x00\x00\x00\x00\x00\x00\x00\x00\x00\x00\x00\x00\x00\x00\x00\x00\x00\x00\x00\x00\x00\x00\x00\x00\x00\x00\x00\x00\x00\x00\x00\x00\x00\x00\x00\x00\x00\x00\x00\x00\x00\x00\x00\x00\x00\x00\x00\x00\x00\x00\x00\x00\x00\x00\x00\x00\x00\x00\x00\x00\x00\x00\x00\x00\x00\x00\x00\x00'
Ntbsg27
g1157
(g1158
(I0
tS'b'
tRp1274
(I1
(I96
I1
tg1160
I00
(lp1275
g705
ag716
ag265
ag101
ag1134
ag507
ag892
ag672
ag518
ag231
ag958
ag209
ag947
ag162
ag463
ag584
ag914
ag342
ag804
ag628
ag1068
ag694
ag474
ag364
ag353
ag1090
ag242
ag1024
ag150
ag606
ag127
ag617
ag1013
ag441
ag287
ag1079
ag452
ag298
ag881
ag397
ag595
ag1112
ag991
ag859
ag551
ag185
ag89
ag76
ag782
ag496
ag485
ag114
ag197
ag573
ag749
ag1035
ag650
ag1101
ag173
ag138
ag220
ag969
ag738
ag848
ag760
ag1002
ag925
ag430
ag408
ag1046
ag386
ag1057
ag826
ag936
ag870
ag375
ag331
ag661
ag540
ag639
ag529
ag320
ag793
ag727
ag1123
ag771
ag309
ag419
ag980
ag254
ag562
ag815
ag683
ag276
ag903
ag837
atbsg23
g1157
(g1158
(I0
tS'b'
tRp1276
(I1
(I96
I1
tg1160
I00
(lp1277
S'2'
aS'2'
aS'2'
aS'1'
aS'2'
aS'2'
aS'1'
aS'2'
aS'1'
aS'3'
aS'3'
aS'1'
aS'2'
aS'2'
aS'1'
aS'3'
aS'1'
aS'2'
aS'2'
aS'2'
aS'3'
aS'1'
aS'3'
aS'2'
aS'1'
aS'1'
aS'1'
aS'3'
aS'1'
aS'3'
aS'2'
aS'1'
aS'1'
aS'1'
aS'1'
aS'3'
aS'3'
aS'1'
aS'3'
aS'2'
aS'3'
aS'2'
aS'1'
aS'1'
aS'1'
aS'2'
aS'3'
aS'2'
aS'1'
aS'1'
aS'2'
aS'1'
aS'2'
aS'1'
aS'2'
aS'2'
aS'1'
aS'1'
aS'1'
aS'3'
aS'1'
aS'2'
aS'2'
aS'1'
aS'1'
aS'2'
aS'2'
aS'2'
aS'1'
aS'3'
aS'3'
aS'1'
aS'2'
aS'1'
aS'3'
aS'1'
aS'1'
aS'1'
aS'3'
aS'2'
aS'1'
aS'3'
aS'2'
aS'1'
aS'2'
aS'1'
aS'2'
aS'2'
aS'1'
aS'3'
aS'1'
aS'3'
aS'3'
aS'3'
aS'3'
aS'3'
atbsg18
g1162
(g1163
g1158
g1164
S'b'
tRp1278
(I1
(I96
I1
tg1166
I00
S'\x06\x83~C\xe0\x0f\x82C\xac\x18\x9cBR\x14UA\x07\x9a\xdbC-q0C#\x0c\xa7C\x816qC\x83\x005C\xe3\xbe}B\xb9=\xb4C\xcf\x1c\\B16\xb2C\x0e=\x15B\x94f\x1dC\x0c\xc2NC\xc9\x14\xabCL\x9d\xdbBOq\x92C\xf1\x17_Cx\xe0\xcdC\x06\xd8zCp\xd1 C\xcc\xaa\xeaBo1\xe4Bcg\xd3C<\xff\x89B\r\x12\xc4C4I\x06B\x06\xd9WC\xf8v\xb6A\xf3\xa7[CH\xf7\xc1C\x8b$\x15C\xa9\xc0\xacB\xa1\x89\xd0C$\x85\x18C(?\xb3B-\x07\xa5C"J\x01CT&TC\xa3`\xd7C\x08F\xbcCMn\x9fC\x04\x9e@C\x07\x1b4B\xdc*\x0fA\xe9\xfa\x9f@49\x8eC\xe1\x08-C\x80\xc4)C\x07H\x99A\x1dNFB\x01)KCP*\x88C\xaf%\xc7CK:jC\x87$\xd5C&\xad&B3\xea\xdfA\x968iB\xdep\xb6C\xf3[\x85CN\xb6\x9dC\xf0\xc9\x89C\xb7I\xbeC\x1b\xbc\xacC\xff\xb5\x0fC\x13\x03\x07C,?\xc9C\xee\x94\xfaB\x7f\x1f\xccC\xc1\xc6\x98C\x90[\xb0C}\x10\xa1C1I\xf3B\xa8\xa3\xd4BT\x98mCG\xc4;Ca2eC\x06J8C\x1ai\xc7B\x9a;\x90C\xe9\xb5\x83C\xf8\xfc\xd9C\xcbz\x8cC\x84c\xbdB\x81p\nCgk\xbaCN-\x93B\xb7\xc2FC\xc6\x12\x95Cf\xc6vCQK\xa4B\xb3\xc6\xa8C\x0e\xf6\x9aC'
S'\x00\x00\x00\x00\x00\x00\x00\x00\x00\x00\x00\x00\x00\x00\x00\x00\x00\x00\x00\x00\x00\x00\x00\x00\x00\x00\x00\x00\x00\x00\x00\x00\x00\x00\x00\x00\x00\x00\x00\x00\x00\x00\x00\x00\x00\x00\x00\x00\x00\x00\x00\x00\x00\x00\x00\x00\x00\x00\x00\x00\x00\x00\x00\x00\x00\x00\x00\x00\x00\x00\x00\x00\x00\x00\x00\x00\x00\x00\x00\x00\x00\x00\x00\x00\x00\x00\x00\x00\x00\x00\x00\x00\x00\x00\x00\x00'
Ntbsg25
g1162
(g1163
g1158
g1164
S'b'
tRp1279
(I1
(I96
I1
tg1166
I00
S'\xb9O\xa4>K\x85\x85>\x05\xfe\x19?\x13\xa0*@M\x7f\xe9?\xc9vM>]:\xe2=x\xdf\x82?2\xbcW>\xdd\xbdJ?\x1fBC>xy$>\x80\x88M>I\x03\xe7>\xa7\xba.>Pd\x80>y{M>(P\xa4>\t\xeb\x94>A\xe34@\xef\xee$>\xf9|M>Z\x1f\x1f?\xe1c\x80>-Dl>\x0c+N=d\x9e\xb3?\xc1\xa7n?\x01\xf2\x0f>n.\x9f>\xb3,\x9f>\xc9\xbf\xcd= \xd6\xcd=Y\x04b>K\xf38>y\x95\xae>/*\r?\x80\x05\xfe?W\xcb\x8f>0\x0c\x9a>s\xc7\x8f>\xb6\xf08>\xf8\xb0\xcd=\x93\x84v>\xc2\xca\xcd=!\xe7\x02?\xb4\xbdW>6\xfda>]\x01\x1a>-\xa2\x05>\xb7\xbbW> wM>\xf0\xeax?W\xcb\x8f>\x80f\x80>e\x92\xae>3G\xe2=\x93\xf18>\xa2\xd6a>\xb3\x8e\xce?\xe1P\x80>\xf9\x9f\xd7>\xdf\x02\xe7>??l>g\x8e\n@m:\xc8>n[\xa9?\x8e\xc8\x8f>e\xa7\x8a>\xc1q{?\x8avM>\t\x019>~\xe8\x94>~wM>\xc0\xeax?\x90Al>\xda\x16b>\xb9\xe6\xe1=W\xea\x94>\xbb\r\x9a>\xd3\x92v=QyM>fMM?V\xbc.>a\xbeW>\xb2\xbb\xf6=\xd7\x0cb>\xf9N\xa4>\xda\xf68>\x80\xea\x94>\xa1\xba\xcd=3~\xd2>\xad\x91\xae>\x11\xea\x94>\xc9yM>\x02O\x80?'
S'\x00\x00\x00\x00\x00\x00\x00\x00\x00\x00\x00\x00\x00\x00\x00\x00\x00\x00\x00\x00\x00\x00\x00\x00\x00\x00\x00\x00\x00\x00\x00\x00\x00\x00\x00\x00\x00\x00\x00\x00\x00\x00\x00\x00\x00\x00\x00\x00\x00\x00\x00\x00\x00\x00\x00\x00\x00\x00\x00\x00\x00\x00\x00\x00\x00\x00\x00\x00\x00\x00\x00\x00\x00\x00\x00\x00\x00\x00\x00\x00\x00\x00\x00\x00\x00\x00\x00\x00\x00\x00\x00\x00\x00\x00\x00\x00'
NtbstRp1280
(dp1281
S'isNumeric'
p1282
(dp1283
g23
I00
sg20
I00
sg17
I01
sg1167
I01
sg22
I01
sg24
I01
sg14
I01
sg18
I01
sg16
I00
sg19
I01
sg26
I00
sg27
I00
sg15
I00
sg21
I01
sg1271
I01
sg25
I01
ssg1151
g1145
sS'dataTypes'
p1284
(lp1285
g1167
ag1271
ag14
ag15
ag16
ag17
ag18
ag19
ag20
ag21
ag22
ag23
ag24
ag25
ag26
ag27
asS'dataShape'
p1286
(lp1287
I96
aI1
asbsS'method'
p1288
S'random'
p1289
sS'sequenceIndices'
p1290
g1157
(g1158
(I0
tS'b'
tRp1291
(I1
(I96
I1
tg80
I01
S'/\x00\x00\x00.\x00\x00\x00\x03\x00\x00\x003\x00\x00\x00\x1e\x00\x00\x00;\x00\x00\x00\x1c\x00\x00\x00\r\x00\x00\x00:\x00\x00\x00-\x00\x00\x004\x00\x00\x00\x0b\x00\x00\x00<\x00\x00\x00\t\x00\x00\x00\x1a\x00\x00\x00Y\x00\x00\x00\x02\x00\x00\x00]\x00\x00\x00"\x00\x00\x00%\x00\x00\x00V\x00\x00\x00Q\x00\x00\x00L\x00\x00\x00\x11\x00\x00\x00\x18\x00\x00\x00\x17\x00\x00\x00K\x00\x00\x00F\x00\x00\x00\'\x00\x00\x00D\x00\x00\x00W\x00\x00\x00C\x00\x00\x00!\x00\x00\x00$\x00\x00\x00\x0e\x00\x00\x00\x16\x00\x00\x002\x00\x00\x001\x00\x00\x00\x05\x00\x00\x00\x08\x00\x00\x00P\x00\x00\x00N\x00\x00\x00,\x00\x00\x00Z\x00\x00\x005\x00\x00\x00\x0f\x00\x00\x00(\x00\x00\x00\x1d\x00\x00\x00\x1f\x00\x00\x00\x13\x00\x00\x00O\x00\x00\x008\x00\x00\x00M\x00\x00\x00\x07\x00\x00\x00\\\x00\x00\x00\x15\x00\x00\x00\x00\x00\x00\x00\x01\x00\x00\x00S\x00\x00\x00>\x00\x00\x006\x00\x00\x00@\x00\x00\x00U\x00\x00\x000\x00\x00\x00R\x00\x00\x00\x12\x00\x00\x00[\x00\x00\x00H\x00\x00\x00_\x00\x00\x00?\x00\x00\x00+\x00\x00\x00J\x00\x00\x00&\x00\x00\x00\x06\x00\x00\x00^\x00\x00\x00\x10\x00\x00\x00B\x00\x00\x00I\x00\x00\x00\x0c\x00\x00\x00\n\x00\x00\x00=\x00\x00\x00X\x00\x00\x00*\x00\x00\x00A\x00\x00\x00 \x00\x00\x00\x1b\x00\x00\x007\x00\x00\x00E\x00\x00\x00G\x00\x00\x00\x14\x00\x00\x00#\x00\x00\x00\x19\x00\x00\x009\x00\x00\x00)\x00\x00\x00T\x00\x00\x00\x04\x00\x00\x00'
tbsS'finished'
p1292
I01
sS'nReps'
p1293
I1
sS'nRemaining'
p1294
I-1
sS'trialList'
p1295
(lp1296
g1
(cpsychopy.data
TrialType
p1297
g1155
(dp1298
g62
g74
sg63
g711
sg64
g73
sg65
g706
sg66
g710
stRp1299
ag1
(g1297
g1155
(dp1300
g62
g112
sg63
g722
sg64
g160
sg65
g717
sg66
g721
stRp1301
ag1
(g1297
g1155
(dp1302
g62
g74
sg63
g271
sg64
g73
sg65
g266
sg66
g270
stRp1303
ag1
(g1297
g1155
(dp1304
g62
g74
sg63
g107
sg64
g99
sg65
g102
sg66
g106
stRp1305
ag1
(g1297
g1155
(dp1306
g62
g112
sg63
g1140
sg64
g111
sg65
g1135
sg66
g1139
stRp1307
ag1
(g1297
g1155
(dp1308
g62
g74
sg63
g513
sg64
g73
sg65
g508
sg66
g512
stRp1309
ag1
(g1297
g1155
(dp1310
g62
g74
sg63
g898
sg64
g73
sg65
g893
sg66
g897
stRp1311
ag1
(g1297
g1155
(dp1312
g62
g74
sg63
g678
sg64
g207
sg65
g673
sg66
g677
stRp1313
ag1
(g1297
g1155
(dp1314
g62
g74
sg63
g524
sg64
g73
sg65
g519
sg66
g523
stRp1315
ag1
(g1297
g1155
(dp1316
g62
g74
sg63
g237
sg64
g207
sg65
g232
sg66
g236
stRp1317
ag1
(g1297
g1155
(dp1318
g62
g112
sg63
g964
sg64
g183
sg65
g959
sg66
g963
stRp1319
ag1
(g1297
g1155
(dp1320
g62
g74
sg63
g215
sg64
g207
sg65
g210
sg66
g214
stRp1321
ag1
(g1297
g1155
(dp1322
g62
g74
sg63
g953
sg64
g148
sg65
g948
sg66
g952
stRp1323
ag1
(g1297
g1155
(dp1324
g62
g112
sg63
g168
sg64
g160
sg65
g163
sg66
g167
stRp1325
ag1
(g1297
g1155
(dp1326
g62
g74
sg63
g469
sg64
g148
sg65
g464
sg66
g468
stRp1327
ag1
(g1297
g1155
(dp1328
g62
g74
sg63
g590
sg64
g73
sg65
g585
sg66
g589
stRp1329
ag1
(g1297
g1155
(dp1330
g62
g112
sg63
g920
sg64
g160
sg65
g915
sg66
g919
stRp1331
ag1
(g1297
g1155
(dp1332
g62
g74
sg63
g348
sg64
g148
sg65
g343
sg66
g347
stRp1333
ag1
(g1297
g1155
(dp1334
g62
g74
sg63
g810
sg64
g125
sg65
g805
sg66
g809
stRp1335
ag1
(g1297
g1155
(dp1336
g62
g74
sg63
g634
sg64
g73
sg65
g629
sg66
g633
stRp1337
ag1
(g1297
g1155
(dp1338
g62
g112
sg63
g1074
sg64
g160
sg65
g1069
sg66
g1073
stRp1339
ag1
(g1297
g1155
(dp1340
g62
g112
sg63
g700
sg64
g195
sg65
g695
sg66
g699
stRp1341
ag1
(g1297
g1155
(dp1342
g62
g74
sg63
g480
sg64
g125
sg65
g475
sg66
g479
stRp1343
ag1
(g1297
g1155
(dp1344
g62
g112
sg63
g370
sg64
g195
sg65
g365
sg66
g369
stRp1345
ag1
(g1297
g1155
(dp1346
g62
g112
sg63
g359
sg64
g183
sg65
g354
sg66
g358
stRp1347
ag1
(g1297
g1155
(dp1348
g62
g74
sg63
g1096
sg64
g252
sg65
g1091
sg66
g1095
stRp1349
ag1
(g1297
g1155
(dp1350
g62
g112
sg63
g248
sg64
g111
sg65
g243
sg66
g247
stRp1351
ag1
(g1297
g1155
(dp1352
g62
g112
sg63
g1030
sg64
g160
sg65
g1025
sg66
g1029
stRp1353
ag1
(g1297
g1155
(dp1354
g62
g74
sg63
g156
sg64
g148
sg65
g151
sg66
g155
stRp1355
ag1
(g1297
g1155
(dp1356
g62
g74
sg63
g612
sg64
g73
sg65
g607
sg66
g611
stRp1357
ag1
(g1297
g1155
(dp1358
g62
g74
sg63
g133
sg64
g125
sg65
g128
sg66
g132
stRp1359
ag1
(g1297
g1155
(dp1360
g62
g74
sg63
g623
sg64
g125
sg65
g618
sg66
g622
stRp1361
ag1
(g1297
g1155
(dp1362
g62
g112
sg63
g1019
sg64
g160
sg65
g1014
sg66
g1018
stRp1363
ag1
(g1297
g1155
(dp1364
g62
g112
sg63
g447
sg64
g111
sg65
g442
sg66
g446
stRp1365
ag1
(g1297
g1155
(dp1366
g62
g112
sg63
g293
sg64
g111
sg65
g288
sg66
g292
stRp1367
ag1
(g1297
g1155
(dp1368
g62
g74
sg63
g1085
sg64
g148
sg65
g1080
sg66
g1084
stRp1369
ag1
(g1297
g1155
(dp1370
g62
g74
sg63
g458
sg64
g252
sg65
g453
sg66
g457
stRp1371
ag1
(g1297
g1155
(dp1372
g62
g74
sg63
g304
sg64
g99
sg65
g299
sg66
g303
stRp1373
ag1
(g1297
g1155
(dp1374
g62
g112
sg63
g887
sg64
g111
sg65
g882
sg66
g886
stRp1375
ag1
(g1297
g1155
(dp1376
g62
g112
sg63
g403
sg64
g160
sg65
g398
sg66
g402
stRp1377
ag1
(g1297
g1155
(dp1378
g62
g112
sg63
g601
sg64
g160
sg65
g596
sg66
g600
stRp1379
ag1
(g1297
g1155
(dp1380
g62
g74
sg63
g1118
sg64
g148
sg65
g1113
sg66
g1117
stRp1381
ag1
(g1297
g1155
(dp1382
g62
g112
sg63
g997
sg64
g111
sg65
g992
sg66
g996
stRp1383
ag1
(g1297
g1155
(dp1384
g62
g112
sg63
g865
sg64
g195
sg65
g860
sg66
g864
stRp1385
ag1
(g1297
g1155
(dp1386
g62
g112
sg63
g557
sg64
g111
sg65
g552
sg66
g556
stRp1387
ag1
(g1297
g1155
(dp1388
g62
g112
sg63
g191
sg64
g183
sg65
g186
sg66
g190
stRp1389
ag1
(g1297
g1155
(dp1390
g62
g74
sg63
g95
sg64
g73
sg65
g90
sg66
g94
stRp1391
ag1
(g1297
g1155
(dp1392
g62
g74
sg63
g84
sg64
g73
sg65
g78
sg66
g83
stRp1393
ag1
(g1297
g1155
(dp1394
g62
g112
sg63
g788
sg64
g160
sg65
g783
sg66
g787
stRp1395
ag1
(g1297
g1155
(dp1396
g62
g112
sg63
g502
sg64
g195
sg65
g497
sg66
g501
stRp1397
ag1
(g1297
g1155
(dp1398
g62
g112
sg63
g491
sg64
g160
sg65
g486
sg66
g490
stRp1399
ag1
(g1297
g1155
(dp1400
g62
g112
sg63
g120
sg64
g111
sg65
g115
sg66
g119
stRp1401
ag1
(g1297
g1155
(dp1402
g62
g112
sg63
g203
sg64
g195
sg65
g198
sg66
g202
stRp1403
ag1
(g1297
g1155
(dp1404
g62
g74
sg63
g579
sg64
g148
sg65
g574
sg66
g578
stRp1405
ag1
(g1297
g1155
(dp1406
g62
g74
sg63
g755
sg64
g207
sg65
g750
sg66
g754
stRp1407
ag1
(g1297
g1155
(dp1408
g62
g112
sg63
g1041
sg64
g195
sg65
g1036
sg66
g1040
stRp1409
ag1
(g1297
g1155
(dp1410
g62
g112
sg63
g656
sg64
g111
sg65
g651
sg66
g655
stRp1411
ag1
(g1297
g1155
(dp1412
g62
g112
sg63
g1107
sg64
g111
sg65
g1102
sg66
g1106
stRp1413
ag1
(g1297
g1155
(dp1414
g62
g74
sg63
g179
sg64
g148
sg65
g174
sg66
g178
stRp1415
ag1
(g1297
g1155
(dp1416
g62
g112
sg63
g144
sg64
g111
sg65
g139
sg66
g143
stRp1417
ag1
(g1297
g1155
(dp1418
g62
g112
sg63
g226
sg64
g111
sg65
g221
sg66
g225
stRp1419
ag1
(g1297
g1155
(dp1420
g62
g112
sg63
g975
sg64
g111
sg65
g970
sg66
g974
stRp1421
ag1
(g1297
g1155
(dp1422
g62
g74
sg63
g744
sg64
g252
sg65
g739
sg66
g743
stRp1423
ag1
(g1297
g1155
(dp1424
g62
g112
sg63
g854
sg64
g111
sg65
g849
sg66
g853
stRp1425
ag1
(g1297
g1155
(dp1426
g62
g74
sg63
g766
sg64
g207
sg65
g761
sg66
g765
stRp1427
ag1
(g1297
g1155
(dp1428
g62
g112
sg63
g1008
sg64
g195
sg65
g1003
sg66
g1007
stRp1429
ag1
(g1297
g1155
(dp1430
g62
g74
sg63
g931
sg64
g125
sg65
g926
sg66
g930
stRp1431
ag1
(g1297
g1155
(dp1432
g62
g112
sg63
g436
sg64
g111
sg65
g431
sg66
g435
stRp1433
ag1
(g1297
g1155
(dp1434
g62
g112
sg63
g414
sg64
g160
sg65
g409
sg66
g413
stRp1435
ag1
(g1297
g1155
(dp1436
g62
g74
sg63
g1052
sg64
g73
sg65
g1047
sg66
g1051
stRp1437
ag1
(g1297
g1155
(dp1438
g62
g112
sg63
g392
sg64
g111
sg65
g387
sg66
g391
stRp1439
ag1
(g1297
g1155
(dp1440
g62
g74
sg63
g1063
sg64
g125
sg65
g1058
sg66
g1062
stRp1441
ag1
(g1297
g1155
(dp1442
g62
g74
sg63
g832
sg64
g252
sg65
g827
sg66
g831
stRp1443
ag1
(g1297
g1155
(dp1444
g62
g112
sg63
g942
sg64
g183
sg65
g937
sg66
g941
stRp1445
ag1
(g1297
g1155
(dp1446
g62
g112
sg63
g876
sg64
g111
sg65
g871
sg66
g875
stRp1447
ag1
(g1297
g1155
(dp1448
g62
g112
sg63
g381
sg64
g195
sg65
g376
sg66
g380
stRp1449
ag1
(g1297
g1155
(dp1450
g62
g74
sg63
g337
sg64
g207
sg65
g332
sg66
g336
stRp1451
ag1
(g1297
g1155
(dp1452
g62
g74
sg63
g667
sg64
g125
sg65
g662
sg66
g666
stRp1453
ag1
(g1297
g1155
(dp1454
g62
g74
sg63
g546
sg64
g73
sg65
g541
sg66
g545
stRp1455
ag1
(g1297
g1155
(dp1456
g62
g112
sg63
g645
sg64
g111
sg65
g640
sg66
g644
stRp1457
ag1
(g1297
g1155
(dp1458
g62
g112
sg63
g535
sg64
g195
sg65
g530
sg66
g534
stRp1459
ag1
(g1297
g1155
(dp1460
g62
g74
sg63
g326
sg64
g73
sg65
g321
sg66
g325
stRp1461
ag1
(g1297
g1155
(dp1462
g62
g112
sg63
g799
sg64
g160
sg65
g794
sg66
g798
stRp1463
ag1
(g1297
g1155
(dp1464
g62
g74
sg63
g733
sg64
g125
sg65
g728
sg66
g732
stRp1465
ag1
(g1297
g1155
(dp1466
g62
g112
sg63
g1129
sg64
g160
sg65
g1124
sg66
g1128
stRp1467
ag1
(g1297
g1155
(dp1468
g62
g112
sg63
g777
sg64
g111
sg65
g772
sg66
g776
stRp1469
ag1
(g1297
g1155
(dp1470
g62
g74
sg63
g315
sg64
g207
sg65
g310
sg66
g314
stRp1471
ag1
(g1297
g1155
(dp1472
g62
g74
sg63
g425
sg64
g207
sg65
g420
sg66
g424
stRp1473
ag1
(g1297
g1155
(dp1474
g62
g74
sg63
g986
sg64
g252
sg65
g981
sg66
g985
stRp1475
ag1
(g1297
g1155
(dp1476
g62
g74
sg63
g260
sg64
g252
sg65
g255
sg66
g259
stRp1477
ag1
(g1297
g1155
(dp1478
g62
g112
sg63
g568
sg64
g160
sg65
g563
sg66
g567
stRp1479
ag1
(g1297
g1155
(dp1480
g62
g74
sg63
g821
sg64
g207
sg65
g816
sg66
g820
stRp1481
ag1
(g1297
g1155
(dp1482
g62
g74
sg63
g689
sg64
g252
sg65
g684
sg66
g688
stRp1483
ag1
(g1297
g1155
(dp1484
g62
g74
sg63
g282
sg64
g73
sg65
g277
sg66
g281
stRp1485
ag1
(g1297
g1155
(dp1486
g62
g112
sg63
g909
sg64
g195
sg65
g904
sg66
g908
stRp1487
ag1
(g1297
g1155
(dp1488
g62
g112
sg63
g843
sg64
g160
sg65
g838
sg66
g842
stRp1489
asS'seed'
p1490
NsS'thisIndex'
p1491
g1137
sS'thisN'
p1492
I96
sS'thisTrialN'
p1493
I0
sS'nTotal'
p1494
I96
sS'_warnUseOfNext'
p1495
I01
sbasS'savePickle'
p1496
I00
sb.