ccopy_reg
_reconstructor
p1
(cpsychopy.data
ExperimentHandler
p2
c__builtin__
object
p3
NtRp4
(dp5
S'originPath'
p6
NsS'dataFileName'
p7
VC:\u005cDocuments and Settings\u005cExperimental user\u005cMy Documents\u005cconsciousness\u005cuncon_feat\u005cexperiment_scripts\u005cdata/alba_Experiment_EEG_version_2019_jun_13_0953
p8
sS'runtimeInfo'
p9
NsS'name'
p10
VExperiment_EEG_version
p11
sS'dataNames'
p12
(lp13
S'image_onset_time'
p14
aS'response_window'
p15
aS'correctAns'
p16
aS'probe_onset'
p17
aS'discrim_resptime'
p18
aS'response.corr'
p19
aS'response.keys'
p20
aS'response.rt'
p21
aS'visible_resptime'
p22
aS'visible.keys'
p23
aS'visible.corr'
p24
aS'visible.rt'
p25
aS'probeFrames'
p26
aS'jitter2'
p27
asS'autoLog'
p28
I01
sS'extraInfo'
p29
(dp30
Vn_square
p31
V32
p32
sVexperiment_color
p33
Vbw
p34
sS'frameRate'
p35
cnumpy.core.multiarray
scalar
p36
(cnumpy
dtype
p37
(S'f8'
I0
I1
tRp38
(I3
S'<'
NNNI-1
I-1
I0
tbS'\x90\xad\xe3{N\xf2X@'
tRp39
sS'date'
p40
V2019_jun_13_0953
p41
sVsession
p42
V012
p43
sVimage_size
p44
V256
p45
sVpremask_dur
p46
V20
p47
sVprobeFrames
p48
V5
sVparticipant
p49
Valba
p50
sS'expName'
p51
g11
sVpostmask_dur
p52
V20
p53
ssS'loopsUnfinished'
p54
(lp55
sS'saveWideText'
p56
I00
sS'thisEntry'
p57
(dp58
sS'version'
p59
S''
sS'_paramNamesSoFar'
p60
(lp61
S'category'
p62
aS'probe_path'
p63
aS'subcategory'
p64
aS'fixation_duration'
p65
aS'label'
p66
asS'entries'
p67
(lp68
(dp69
g31
g32
sg17
F3.7373234760016203
sg24
I0
sg35
g39
sg14
F3.7162837171927094
sg16
g36
(g37
(S'i4'
I0
I1
tRp70
(I3
S'<'
NNNI-1
I-1
I0
tbS'\x01\x00\x00\x00'
tRp71
sg42
g43
sg46
g47
sg15
S'nV_V'
p72
sg22
F9.5198003086261451
sg64
VBuildings
p73
sg62
VNonliving_Things
p74
sg49
g50
sS'trials.thisN'
p75
I0
sg19
I1
sg27
g36
(g38
S'\x00\x00\x00\x00\x00\x00\x1e@'
tRp76
sg52
g53
sg23
S'2'
sg18
F4.9989625993184745
sg33
g34
sg51
g11
sg20
S'1'
sg65
g36
(g37
(S'i8'
I0
I1
tRp77
(I3
S'<'
NNNI-1
I-1
I0
tbS'\x00\x00\x00\x00\x00\x00\x00\x00'
tRp78
sg44
g45
sg40
g41
sg25
F0.14051416050642729
sS'trials.thisIndex'
p79
g36
(g37
(S'i4'
I0
I1
tRp80
(I3
S'<'
NNNI-1
I-1
I0
tbS'\x11\x00\x00\x00'
tRp81
sg26
V5
sS'trials.thisRepN'
p82
I0
sg66
Vchurch
p83
sg63
V../experiment_stimuli/bw_bc_bl/Nonliving_Things/Buildings/church_2.jpg
p84
sg21
F4.4899900839664042
sS'trials.thisTrialN'
p85
I0
sa(dp86
g31
g32
sg17
F11.397918877657503
sg24
I1
sg35
g39
sg14
F11.392992997076362
sg16
g36
(g70
S'\x02\x00\x00\x00'
tRp87
sg42
g43
sg46
g47
sg15
S'V_nV'
p88
sg22
F13.367926295381039
sg64
g73
sg62
g74
sg49
g50
sS'trials.thisN'
p89
I1
sg19
I1
sg27
g36
(g38
S'\x00\x00\x00\x00\x00\x00\x1a@'
tRp90
sg52
g53
sg23
S'1'
sg18
F12.655610801652074
sg33
g34
sg51
g11
sg20
S'2'
sg65
g36
(g77
S'\x00\x00\x00\x00\x00\x00\x00\x00'
tRp91
sg44
g45
sg40
g41
sg25
F0.060348124708980322
sS'trials.thisIndex'
p92
g36
(g80
S':\x00\x00\x00'
tRp93
sg26
V5
sS'trials.thisRepN'
p94
I0
sg66
Vpalace
p95
sg63
V../experiment_stimuli/bw_bc_bl/Nonliving_Things/Buildings/palace_8.jpg
p96
sg21
F0.69173811608925462
sS'trials.thisTrialN'
p97
I1
sa(dp98
g31
g32
sg17
F15.165926910471171
sg24
I0
sg35
g39
sg14
F15.161160748917609
sg16
g36
(g70
S'\x01\x00\x00\x00'
tRp99
sg42
g43
sg46
g47
sg15
g72
sg22
F18.198250061832368
sg64
VVehicles
p100
sg62
g74
sg49
g50
sS'trials.thisN'
p101
I2
sg19
I1
sg27
g36
(g38
S'\x00\x00\x00\x00\x00\x00\x1a@'
tRp102
sg52
g53
sg23
S'2'
sg18
F16.433822917286307
sg33
g34
sg51
g11
sg20
S'1'
sg65
g36
(g77
S'\x00\x00\x00\x00\x00\x00\x00\x00'
tRp103
sg44
g45
sg40
g41
sg25
F0.15055323857814074
sS'trials.thisIndex'
p104
g36
(g80
S'L\x00\x00\x00'
tRp105
sg26
V5
sS'trials.thisRepN'
p106
I0
sg66
Vship
p107
sg63
V../experiment_stimuli/bw_bc_bl/Nonliving_Things/Vehicles/ship_4.jpg
p108
sg21
F1.743863589130342
sS'trials.thisTrialN'
p109
I2
sa(dp110
g31
g32
sg17
F20.086650768760592
sg24
I0
sg35
g39
sg14
F20.081849822308868
sg16
g36
(g70
S'\x02\x00\x00\x00'
tRp111
sg42
g43
sg46
g47
sg15
g72
sg22
F22.557719747535884
sg64
VAnimals
p112
sg62
VLiving_Things
p113
sg49
g50
sS'trials.thisN'
p114
I3
sg19
I1
sg27
g36
(g38
S'\x00\x00\x00\x00\x00\x00\x18@'
tRp115
sg52
g53
sg23
S'3'
sg18
F21.344501100480556
sg33
g34
sg51
g11
sg20
S'2'
sg65
g36
(g77
S'\x00\x00\x00\x00\x00\x00\x00\x00'
tRp116
sg44
g45
sg40
g41
sg25
F0.1304990709759295
sS'trials.thisIndex'
p117
g36
(g80
S'D\x00\x00\x00'
tRp118
sg26
V5
sS'trials.thisRepN'
p119
I0
sg66
Vrhino
p120
sg63
V../experiment_stimuli/bw_bc_bl/Living_Things/Animals/rhino_1.jpg
p121
sg21
F1.1926646595820785
sS'trials.thisTrialN'
p122
I3
sa(dp123
g31
g32
sg17
F24.426215142011642
sg24
I1
sg35
g39
sg14
F24.42129756975919
sg16
g36
(g70
S'\x02\x00\x00\x00'
tRp124
sg42
g43
sg46
g47
sg15
g72
sg22
F25.945249413605779
sg64
VBirds
p125
sg62
g113
sg49
g50
sS'trials.thisN'
p126
I4
sg19
I0
sg27
g36
(g38
S'\x00\x00\x00\x00\x00\x00\x18@'
tRp127
sg52
g53
sg23
S'1'
sg18
F25.653869860805571
sg33
g34
sg51
g11
sg20
S'1'
sg65
g36
(g77
S'\x00\x00\x00\x00\x00\x00\x00\x00'
tRp128
sg44
g45
sg40
g41
sg25
F1.3732128445990384
sS'trials.thisIndex'
p129
g36
(g80
S'O\x00\x00\x00'
tRp130
sg26
V5
sS'trials.thisRepN'
p131
I0
sg66
Vsparrow
p132
sg63
V../experiment_stimuli/bw_bc_bl/Living_Things/Birds/sparrow_6.jpg
p133
sg21
F0.27082285471260548
sS'trials.thisTrialN'
p134
I4
sa(dp135
g31
g32
sg17
F29.056209762115031
sg24
I1
sg35
g39
sg14
F29.051350294146687
sg16
g36
(g70
S'\x02\x00\x00\x00'
tRp136
sg42
g43
sg46
g47
sg15
g72
sg22
F30.645463896449655
sg64
VMarine_creatures
p137
sg62
g113
sg49
g50
sS'trials.thisN'
p138
I5
sg19
I1
sg27
g36
(g38
S'\x00\x00\x00\x00\x00\x00\x1a@'
tRp139
sg52
g53
sg23
S'1'
sg18
F30.293950599618256
sg33
g34
sg51
g11
sg20
S'2'
sg65
g36
(g77
S'\x00\x00\x00\x00\x00\x00\x00\x00'
tRp140
sg44
g45
sg40
g41
sg25
F0.12048086849972606
sS'trials.thisIndex'
p141
g36
(g80
S'K\x00\x00\x00'
tRp142
sg26
V5
sS'trials.thisRepN'
p143
I0
sg66
Vshark
p144
sg63
V../experiment_stimuli/bw_bc_bl/Living_Things/Marine_creatures/shark_7.jpg
p145
sg21
F0.33096293685957789
sS'trials.thisTrialN'
p146
I5
sa(dp147
g31
g32
sg17
F32.504184099845588
sg24
I0
sg35
g39
sg14
F32.498855710029602
sg16
g36
(g70
S'\x02\x00\x00\x00'
tRp148
sg42
g43
sg46
g47
sg15
g88
sg22
F35.065074130892754
sg64
g73
sg62
g74
sg49
g50
sS'trials.thisN'
p149
I6
sg19
I0
sg27
g36
(g38
S'\x00\x00\x00\x00\x00\x00\x18@'
tRp150
sg52
g53
sg23
S'2'
sg18
F33.7715103183873
sg33
g34
sg51
g11
sg20
S'1'
sg65
g36
(g77
S'\x00\x00\x00\x00\x00\x00\x00\x00'
tRp151
sg44
g45
sg40
g41
sg25
F0.23071291390806437
sS'trials.thisIndex'
p152
g36
(g80
S'\x0c\x00\x00\x00'
tRp153
sg26
V5
sS'trials.thisRepN'
p154
I0
sg66
Vcastle
p155
sg63
V../experiment_stimuli/bw_bc_bl/Nonliving_Things/Buildings/castle_1.jpg
p156
sg21
F1.272994592320174
sS'trials.thisTrialN'
p157
I6
sa(dp158
g31
g32
sg17
F37.034157363232225
sg24
I1
sg35
g39
sg14
F37.02871360257268
sg16
g36
(g70
S'\x02\x00\x00\x00'
tRp159
sg42
g43
sg46
g47
sg15
g72
sg22
F38.672952930442989
sg64
g137
sg62
g113
sg49
g50
sS'trials.thisN'
p160
I7
sg19
I0
sg27
g36
(g38
S'\x00\x00\x00\x00\x00\x00\x18@'
tRp161
sg52
g53
sg23
S'1'
sg18
F38.291351782623678
sg33
g34
sg51
g11
sg20
S'1'
sg65
g36
(g77
S'\x00\x00\x00\x00\x00\x00\x00\x00'
tRp162
sg44
g45
sg40
g41
sg25
F2.375388243701309
sS'trials.thisIndex'
p163
g36
(g80
S'7\x00\x00\x00'
tRp164
sg26
V5
sS'trials.thisRepN'
p165
I0
sg66
Vnarwhal
p166
sg63
V../experiment_stimuli/bw_bc_bl/Living_Things/Marine_creatures/narwhal_19.jpg
p167
sg21
F0.36107801692560315
sS'trials.thisTrialN'
p168
I7
sa(dp169
g31
g32
sg17
F42.786112178117037
sg24
I1
sg35
g39
sg14
F42.781204015016556
sg16
g36
(g70
S'\x02\x00\x00\x00'
tRp170
sg42
g43
sg46
g47
sg15
g88
sg22
F44.335216811858118
sg64
g100
sg62
g74
sg49
g50
sS'trials.thisN'
p171
I8
sg19
I1
sg27
g36
(g38
S'\x00\x00\x00\x00\x00\x00\x18@'
tRp172
sg52
g53
sg23
S'1'
sg18
F44.053864473011345
sg33
g34
sg51
g11
sg20
S'2'
sg65
g36
(g77
S'\x00\x00\x00\x00\x00\x00\x00\x00'
tRp173
sg44
g45
sg40
g41
sg25
F0.10043428000062704
sS'trials.thisIndex'
p174
g36
(g80
S'@\x00\x00\x00'
tRp175
sg26
V5
sS'trials.thisRepN'
p176
I0
sg66
Vplane
p177
sg63
V../experiment_stimuli/bw_bc_bl/Nonliving_Things/Vehicles/plane_9.jpg
p178
sg21
F0.26079380279406905
sS'trials.thisTrialN'
p179
I8
sa(dp180
g31
g32
sg17
F46.17340435506776
sg24
I0
sg35
g39
sg14
F46.168588130734861
sg16
g36
(g70
S'\x01\x00\x00\x00'
tRp181
sg42
g43
sg46
g47
sg15
g88
sg22
F50.62891395483166
sg64
g112
sg62
g113
sg49
g50
sS'trials.thisN'
p182
I9
sg19
I1
sg27
g36
(g38
S'\x00\x00\x00\x00\x00\x00\x18@'
tRp183
sg52
g53
sg23
S'2'
sg18
F47.471291199326515
sg33
g34
sg51
g11
sg20
S'1'
sg65
g36
(g77
S'\x00\x00\x00\x00\x00\x00\x00\x00'
tRp184
sg44
g45
sg40
g41
sg25
F0.93225027667358518
sS'trials.thisIndex'
p185
g36
(g80
S'R\x00\x00\x00'
tRp186
sg26
V5
sS'trials.thisRepN'
p187
I0
sg66
Vtapir
p188
sg63
V../experiment_stimuli/bw_bc_bl/Living_Things/Animals/tapir_11.jpg
p189
sg21
F3.1370577835477889
sS'trials.thisTrialN'
p190
I9
sa(dp191
g31
g32
sg17
F53.298883833456784
sg24
I1
sg35
g39
sg14
F53.294049552641809
sg16
g36
(g70
S'\x02\x00\x00\x00'
tRp192
sg42
g43
sg46
g47
sg15
g72
sg22
F55.67987518850714
sg64
g125
sg62
g113
sg49
g50
sS'trials.thisN'
p193
I10
sg19
I1
sg27
g36
(g38
S'\x00\x00\x00\x00\x00\x00 @'
tRp194
sg52
g53
sg23
S'1'
sg18
F54.586772734764963
sg33
g34
sg51
g11
sg20
S'2'
sg65
g36
(g77
S'\x00\x00\x00\x00\x00\x00\x00\x00'
tRp195
sg44
g45
sg40
g41
sg25
F0.15054885484278202
sS'trials.thisIndex'
p196
g36
(g80
S'8\x00\x00\x00'
tRp197
sg26
V5
sS'trials.thisRepN'
p198
I0
sg66
Vostrich
p199
sg63
V../experiment_stimuli/bw_bc_bl/Living_Things/Birds/ostrich_11.jpg
p200
sg21
F1.0725607411004603
sS'trials.thisTrialN'
p201
I10
sa(dp202
g31
g32
sg17
F57.56932512531057
sg24
I0
sg35
g39
sg14
F57.563325590919703
sg16
g36
(g70
S'\x02\x00\x00\x00'
tRp203
sg42
g43
sg46
g47
sg15
g88
sg22
F60.941338840406388
sg64
VFurniture
p204
sg62
g74
sg49
g50
sS'trials.thisN'
p205
I11
sg19
I1
sg27
g36
(g38
S'\x00\x00\x00\x00\x00\x00\x1a@'
tRp206
sg52
g53
sg23
S'3'
sg18
F58.876086222473532
sg33
g34
sg51
g11
sg20
S'2'
sg65
g36
(g77
S'\x00\x00\x00\x00\x00\x00\x00\x00'
tRp207
sg44
g45
sg40
g41
sg25
F0.32091256929561496
sS'trials.thisIndex'
p208
g36
(g80
S'\x06\x00\x00\x00'
tRp209
sg26
V5
sS'trials.thisRepN'
p210
I0
sg66
Vbedside-table
p211
sg63
V../experiment_stimuli/bw_bc_bl/Nonliving_Things/Furniture/bedside-table_12.jpg
p212
sg21
F2.0446798899210989
sS'trials.thisTrialN'
p213
I11
sa(dp214
g31
g32
sg17
F63.000069424044341
sg24
I0
sg35
g39
sg14
F62.995143073610961
sg16
g36
(g70
S'\x02\x00\x00\x00'
tRp215
sg42
g43
sg46
g47
sg15
g72
sg22
F65.72169664921239
sg64
g112
sg62
g113
sg49
g50
sS'trials.thisN'
p216
I12
sg19
I1
sg27
g36
(g38
S'\x00\x00\x00\x00\x00\x00\x1a@'
tRp217
sg52
g53
sg23
S'2'
sg18
F64.287857540883124
sg33
g34
sg51
g11
sg20
S'2'
sg65
g36
(g77
S'\x00\x00\x00\x00\x00\x00\x00\x00'
tRp218
sg44
g45
sg40
g41
sg25
F0.25076361512765288
sS'trials.thisIndex'
p219
g36
(g80
S'2\x00\x00\x00'
tRp220
sg26
V5
sS'trials.thisRepN'
p221
I0
sg66
Vlynx
p222
sg63
V../experiment_stimuli/bw_bc_bl/Living_Things/Animals/lynx_3.jpg
p223
sg21
F1.4133014134131372
sS'trials.thisTrialN'
p224
I12
sa(dp225
g31
g32
sg17
F67.710358724929392
sg24
I0
sg35
g39
sg14
F67.705378401558846
sg16
g36
(g70
S'\x02\x00\x00\x00'
tRp226
sg42
g43
sg46
g47
sg15
g88
sg22
F72.396220123860985
sg64
g204
sg62
g74
sg49
g50
sS'trials.thisN'
p227
I13
sg19
I0
sg27
g36
(g38
S'\x00\x00\x00\x00\x00\x00\x1a@'
tRp228
sg52
g53
sg23
S'2'
sg18
F68.988070663064718
sg33
g34
sg51
g11
sg20
S'1'
sg65
g36
(g77
S'\x00\x00\x00\x00\x00\x00\x00\x00'
tRp229
sg44
g45
sg40
g41
sg25
F0.20066286297515035
sS'trials.thisIndex'
p230
g36
(g80
S'/\x00\x00\x00'
tRp231
sg26
V5
sS'trials.thisRepN'
p232
I0
sg66
Vlectern
p233
sg63
V../experiment_stimuli/bw_bc_bl/Nonliving_Things/Furniture/lectern_20.jpg
p234
sg21
F3.3875883417204022
sS'trials.thisTrialN'
p235
I13
sa(dp236
g31
g32
sg17
F74.334684076253325
sg24
I0
sg35
g39
sg14
F74.329782864544541
sg16
g36
(g70
S'\x01\x00\x00\x00'
tRp237
sg42
g43
sg46
g47
sg15
g72
sg22
F76.755687227007002
sg64
VKitchen_Uten
p238
sg62
g74
sg49
g50
sS'trials.thisN'
p239
I14
sg19
I1
sg27
g36
(g38
S'\x00\x00\x00\x00\x00\x00\x18@'
tRp240
sg52
g53
sg23
S'2'
sg18
F75.60244619473815
sg33
g34
sg51
g11
sg20
S'1'
sg65
g36
(g77
S'\x00\x00\x00\x00\x00\x00\x00\x00'
tRp241
sg44
g45
sg40
g41
sg25
F0.46123401448130608
sS'trials.thisIndex'
p242
g36
(g80
S'\x1f\x00\x00\x00'
tRp243
sg26
V5
sS'trials.thisRepN'
p244
I0
sg66
Vfrying-pan
p245
sg63
V../experiment_stimuli/bw_bc_bl/Nonliving_Things/Kitchen_Uten/frying-pan_25.jpg
p246
sg21
F1.1326838796958327
sS'trials.thisTrialN'
p247
I14
sa(dp248
g31
g32
sg17
F78.954678832087666
sg24
I1
sg35
g39
sg14
F78.949829751159996
sg16
g36
(g70
S'\x02\x00\x00\x00'
tRp249
sg42
g43
sg46
g47
sg15
g88
sg22
F80.5038489876315
sg64
VMusical_Inst
p250
sg62
g74
sg49
g50
sS'trials.thisN'
p251
I15
sg19
I1
sg27
g36
(g38
S'\x00\x00\x00\x00\x00\x00\x1e@'
tRp252
sg52
g53
sg23
S'1'
sg18
F80.212474085390568
sg33
g34
sg51
g11
sg20
S'2'
sg65
g36
(g77
S'\x00\x00\x00\x00\x00\x00\x00\x00'
tRp253
sg44
g45
sg40
g41
sg25
F0.1205294243991375
sS'trials.thisIndex'
p254
g36
(g80
S'>\x00\x00\x00'
tRp255
sg26
V5
sS'trials.thisRepN'
p256
I0
sg66
Vpiano
p257
sg63
V../experiment_stimuli/bw_bc_bl/Nonliving_Things/Musical_Inst/piano__10.jpg
p258
sg21
F0.27081260271370411
sS'trials.thisTrialN'
p259
I15
sa(dp260
g31
g32
sg17
F82.362097250763327
sg24
I0
sg35
g39
sg14
F82.357245538383722
sg16
g36
(g70
S'\x01\x00\x00\x00'
tRp261
sg42
g43
sg46
g47
sg15
g72
sg22
F86.456779364030808
sg64
g204
sg62
g74
sg49
g50
sS'trials.thisN'
p262
I16
sg19
I1
sg27
g36
(g38
S'\x00\x00\x00\x00\x00\x00\x1a@'
tRp263
sg52
g53
sg23
S'3'
sg18
F83.649943291675299
sg33
g34
sg51
g11
sg20
S'1'
sg65
g36
(g77
S'\x00\x00\x00\x00\x00\x00\x00\x00'
tRp264
sg44
g45
sg40
g41
sg25
F0.43115715961903334
sS'trials.thisIndex'
p265
g36
(g80
S'.\x00\x00\x00'
tRp266
sg26
V5
sS'trials.thisRepN'
p267
I0
sg66
Vlamp
p268
sg63
V../experiment_stimuli/bw_bc_bl/Nonliving_Things/Furniture/lamp_12.jpg
p269
sg21
F2.7862833817489445
sS'trials.thisTrialN'
p270
I16
sa(dp271
g31
g32
sg17
F88.625622100196779
sg24
I0
sg35
g39
sg14
F88.620858747046441
sg16
g36
(g70
S'\x01\x00\x00\x00'
tRp272
sg42
g43
sg46
g47
sg15
g88
sg22
F90.706030117347836
sg64
g137
sg62
g113
sg49
g50
sS'trials.thisN'
p273
I17
sg19
I0
sg27
g36
(g38
S'\x00\x00\x00\x00\x00\x00\x18@'
tRp274
sg52
g53
sg23
S'3'
sg18
F89.893514979630709
sg33
g34
sg51
g11
sg20
S'2'
sg65
g36
(g77
S'\x00\x00\x00\x00\x00\x00\x00\x00'
tRp275
sg44
g45
sg40
g41
sg25
F0.20065879542380571
sS'trials.thisIndex'
p276
g36
(g80
S'A\x00\x00\x00'
tRp277
sg26
V5
sS'trials.thisRepN'
p278
I0
sg66
Vpomfret
p279
sg63
V../experiment_stimuli/bw_bc_bl/Living_Things/Marine_creatures/pomfret_7.jpg
p280
sg21
F0.79194663185626268
sS'trials.thisTrialN'
p281
I17
sa(dp282
g31
g32
sg17
F92.646028950344771
sg24
I0
sg35
g39
sg14
F92.639582272153348
sg16
g36
(g70
S'\x02\x00\x00\x00'
tRp283
sg42
g43
sg46
g47
sg15
g88
sg22
F100.78792100772262
sg64
g100
sg62
g74
sg49
g50
sS'trials.thisN'
p284
I18
sg19
I1
sg27
g36
(g38
S'\x00\x00\x00\x00\x00\x00\x18@'
tRp285
sg52
g53
sg23
S'3'
sg18
F93.892209050245583
sg33
g34
sg51
g11
sg20
S'2'
sg65
g36
(g77
S'\x00\x00\x00\x00\x00\x00\x00\x00'
tRp286
sg44
g45
sg40
g41
sg25
F0.26078384416177869
sS'trials.thisIndex'
p287
g36
(g80
S'6\x00\x00\x00'
tRp288
sg26
V5
sS'trials.thisRepN'
p289
I0
sg66
Vmotorbike
p290
sg63
V../experiment_stimuli/bw_bc_bl/Nonliving_Things/Vehicles/motorbike_26.jpg
p291
sg21
F6.8751713945530355
sS'trials.thisTrialN'
p292
I18
sa(dp293
g31
g32
sg17
F102.78658508695662
sg24
I1
sg35
g39
sg14
F102.78163156379014
sg16
g36
(g70
S'\x02\x00\x00\x00'
tRp294
sg42
g43
sg46
g47
sg15
g72
sg22
F104.25549486931413
sg64
g112
sg62
g113
sg49
g50
sS'trials.thisN'
p295
I19
sg19
I1
sg27
g36
(g38
S'\x00\x00\x00\x00\x00\x00\x18@'
tRp296
sg52
g53
sg23
S'1'
sg18
F104.0142147121951
sg33
g34
sg51
g11
sg20
S'2'
sg65
g36
(g77
S'\x00\x00\x00\x00\x00\x00\x00\x00'
tRp297
sg44
g45
sg40
g41
sg25
F0.1205283566378057
sS'trials.thisIndex'
p298
g36
(g80
S'_\x00\x00\x00'
tRp299
sg26
V5
sS'trials.thisRepN'
p300
I0
sg66
Vzebra
p301
sg63
V../experiment_stimuli/bw_bc_bl/Living_Things/Animals/zebra_9.jpg
p302
sg21
F0.22070856858044863
sS'trials.thisTrialN'
p303
I19
sa(dp304
g31
g32
sg17
F106.11394652025774
sg24
I1
sg35
g39
sg14
F106.10886360798031
sg16
g36
(g70
S'\x02\x00\x00\x00'
tRp305
sg42
g43
sg46
g47
sg15
g72
sg22
F107.64285355294123
sg64
g125
sg62
g113
sg49
g50
sS'trials.thisN'
p306
I20
sg19
I0
sg27
g36
(g38
S'\x00\x00\x00\x00\x00\x00\x18@'
tRp307
sg52
g53
sg23
S'1'
sg18
F107.35146550787613
sg33
g34
sg51
g11
sg20
S'1'
sg65
g36
(g77
S'\x00\x00\x00\x00\x00\x00\x00\x00'
tRp308
sg44
g45
sg40
g41
sg25
F0.20066477311775088
sS'trials.thisIndex'
p309
g36
(g80
S',\x00\x00\x00'
tRp310
sg26
V5
sS'trials.thisRepN'
p311
I0
sg66
Vkiwi
p312
sg63
V../experiment_stimuli/bw_bc_bl/Living_Things/Birds/kiwi_24.jpg
p313
sg21
F0.27083058701828122
sS'trials.thisTrialN'
p314
I20
sa(dp315
g31
g32
sg17
F109.58193371072412
sg24
I1
sg35
g39
sg14
F109.5764097860083
sg16
g36
(g70
S'\x02\x00\x00\x00'
tRp316
sg42
g43
sg46
g47
sg15
g72
sg22
F110.97005660133436
sg64
g112
sg62
g113
sg49
g50
sS'trials.thisN'
p317
I21
sg19
I0
sg27
g36
(g38
S'\x00\x00\x00\x00\x00\x00\x18@'
tRp318
sg52
g53
sg23
S'1'
sg18
F110.82902937661856
sg33
g34
sg51
g11
sg20
S'1'
sg65
g36
(g77
S'\x00\x00\x00\x00\x00\x00\x00\x00'
tRp319
sg44
g45
sg40
g41
sg25
F2.2451070309616625
sS'trials.thisIndex'
p320
g36
(g80
S'Z\x00\x00\x00'
tRp321
sg26
V5
sS'trials.thisRepN'
p322
I0
sg66
Vturtle
p323
sg63
V../experiment_stimuli/bw_bc_bl/Living_Things/Animals/turtle_4.jpg
p324
sg21
F0.12047369545325637
sS'trials.thisTrialN'
p325
I21
sa(dp326
g31
g32
sg17
F114.95387534797192
sg24
I1
sg35
g39
sg14
F114.94809113349766
sg16
g36
(g70
S'\x02\x00\x00\x00'
tRp327
sg42
g43
sg46
g47
sg15
g88
sg22
F116.91300039179623
sg64
VTools
p328
sg62
g74
sg49
g50
sS'trials.thisN'
p329
I22
sg19
I0
sg27
g36
(g38
S'\x00\x00\x00\x00\x00\x00\x1a@'
tRp330
sg52
g53
sg23
S'1'
sg18
F116.22075288090855
sg33
g34
sg51
g11
sg20
S'1'
sg65
g36
(g77
S'\x00\x00\x00\x00\x00\x00\x00\x00'
tRp331
sg44
g45
sg40
g41
sg25
F0.24074192810803652
sS'trials.thisIndex'
p332
g36
(g80
S'\x03\x00\x00\x00'
tRp333
sg26
V5
sS'trials.thisRepN'
p334
I0
sg66
Vaxe
p335
sg63
V../experiment_stimuli/bw_bc_bl/Nonliving_Things/Tools/axe_23.jpg
p336
sg21
F0.67168763233348727
sS'trials.thisTrialN'
p337
I22
sa(dp338
g31
g32
sg17
F118.89166769711301
sg24
I0
sg35
g39
sg14
F118.88664756994694
sg16
g36
(g70
S'\x01\x00\x00\x00'
tRp339
sg42
g43
sg46
g47
sg15
g72
sg22
F122.17443338176236
sg64
g250
sg62
g74
sg49
g50
sS'trials.thisN'
p340
I23
sg19
I1
sg27
g36
(g38
S'\x00\x00\x00\x00\x00\x00\x1a@'
tRp341
sg52
g53
sg23
S'3'
sg18
F120.18937967950478
sg33
g34
sg51
g11
sg20
S'1'
sg65
g36
(g77
S'\x00\x00\x00\x00\x00\x00\x00\x00'
tRp342
sg44
g45
sg40
g41
sg25
F0.26079896790906787
sS'trials.thisIndex'
p343
g36
(g80
S'Y\x00\x00\x00'
tRp344
sg26
V5
sS'trials.thisRepN'
p345
I0
sg66
Vtuba
p346
sg63
V../experiment_stimuli/bw_bc_bl/Nonliving_Things/Musical_Inst/tuba_1.jpg
p347
sg21
F1.9644993282854557
sS'trials.thisTrialN'
p348
I23
sa(dp349
g31
g32
sg17
F124.1731027206406
sg24
I0
sg35
g39
sg14
F124.16812365269288
sg16
g36
(g70
S'\x01\x00\x00\x00'
tRp350
sg42
g43
sg46
g47
sg15
g88
sg22
F126.86463140649721
sg64
g112
sg62
g113
sg49
g50
sS'trials.thisN'
p351
I24
sg19
I1
sg27
g36
(g38
S'\x00\x00\x00\x00\x00\x00\x18@'
tRp352
sg52
g53
sg23
S'2'
sg18
F125.44079442601651
sg33
g34
sg51
g11
sg20
S'1'
sg65
g36
(g77
S'\x00\x00\x00\x00\x00\x00\x00\x00'
tRp353
sg44
g45
sg40
g41
sg25
F0.34097957145422697
sS'trials.thisIndex'
p354
g36
(g80
S'\r\x00\x00\x00'
tRp355
sg26
V5
sS'trials.thisRepN'
p356
I0
sg66
Vcat
p357
sg63
V../experiment_stimuli/bw_bc_bl/Living_Things/Animals/cat_7.jpg
p358
sg21
F1.4032753203064203
sS'trials.thisTrialN'
p359
I24
sa(dp360
g31
g32
sg17
F128.94432694558054
sg24
I1
sg35
g39
sg14
F128.93849964579567
sg16
g36
(g70
S'\x02\x00\x00\x00'
tRp361
sg42
g43
sg46
g47
sg15
g72
sg22
F130.56266663689166
sg64
g125
sg62
g113
sg49
g50
sS'trials.thisN'
p362
I25
sg19
I0
sg27
g36
(g38
S'\x00\x00\x00\x00\x00\x00\x1a@'
tRp363
sg52
g53
sg23
S'1'
sg18
F130.20114491600543
sg33
g34
sg51
g11
sg20
S'1'
sg65
g36
(g77
S'\x00\x00\x00\x00\x00\x00\x00\x00'
tRp364
sg44
g45
sg40
g41
sg25
F0.2006505960598588
sS'trials.thisIndex'
p365
g36
(g80
S'C\x00\x00\x00'
tRp366
sg26
V5
sS'trials.thisRepN'
p367
I0
sg66
Vraven
p368
sg63
V../experiment_stimuli/bw_bc_bl/Living_Things/Birds/raven_17.jpg
p369
sg21
F0.34096554899588227
sS'trials.thisTrialN'
p370
I25
sa(dp371
g31
g32
sg17
F132.50110215414315
sg24
I0
sg35
g39
sg14
F132.49623457714915
sg16
g36
(g70
S'\x01\x00\x00\x00'
tRp372
sg42
g43
sg46
g47
sg15
g88
sg22
F135.663741634693
sg64
g125
sg62
g113
sg49
g50
sS'trials.thisN'
p373
I26
sg19
I1
sg27
g36
(g38
S'\x00\x00\x00\x00\x00\x00\x1e@'
tRp374
sg52
g53
sg23
S'3'
sg18
F133.78894494334236
sg33
g34
sg51
g11
sg20
S'1'
sg65
g36
(g77
S'\x00\x00\x00\x00\x00\x00\x00\x00'
tRp375
sg44
g45
sg40
g41
sg25
F0.21072598220780492
sS'trials.thisIndex'
p376
g36
(g80
S'9\x00\x00\x00'
tRp377
sg26
V5
sS'trials.thisRepN'
p378
I0
sg66
Vowl
p379
sg63
V../experiment_stimuli/bw_bc_bl/Living_Things/Birds/owl_6.jpg
p380
sg21
F1.8442295575514436
sS'trials.thisTrialN'
p381
I26
sa(dp382
g31
g32
sg17
F137.61213867831975
sg24
I0
sg35
g39
sg14
F137.60734463389963
sg16
g36
(g70
S'\x01\x00\x00\x00'
tRp383
sg42
g43
sg46
g47
sg15
g72
sg22
F140.89515812229365
sg64
g100
sg62
g74
sg49
g50
sS'trials.thisN'
p384
I27
sg19
I1
sg27
g36
(g38
S'\x00\x00\x00\x00\x00\x00\x18@'
tRp385
sg52
g53
sg23
S'3'
sg18
F138.8800142602995
sg33
g34
sg51
g11
sg20
S'1'
sg65
g36
(g77
S'\x00\x00\x00\x00\x00\x00\x00\x00'
tRp386
sg44
g45
sg40
g41
sg25
F0.29085283866152167
sS'trials.thisIndex'
p387
g36
(g80
S'\t\x00\x00\x00'
tRp388
sg26
V5
sS'trials.thisRepN'
p389
I0
sg66
Vbus
p390
sg63
V../experiment_stimuli/bw_bc_bl/Nonliving_Things/Vehicles/bus_25.jpg
p391
sg21
F1.994580652564764
sS'trials.thisTrialN'
p392
I27
sa(dp393
g31
g32
sg17
F142.9246411062777
sg24
I1
sg35
g39
sg14
F142.91889386856928
sg16
g36
(g70
S'\x01\x00\x00\x00'
tRp394
sg42
g43
sg46
g47
sg15
g88
sg22
F144.61323853954673
sg64
g125
sg62
g113
sg49
g50
sS'trials.thisN'
p395
I28
sg19
I0
sg27
g36
(g38
S'\x00\x00\x00\x00\x00\x00\x1a@'
tRp396
sg52
g53
sg23
S'1'
sg18
F144.17151643289253
sg33
g34
sg51
g11
sg20
S'2'
sg65
g36
(g77
S'\x00\x00\x00\x00\x00\x00\x00\x00'
tRp397
sg44
g45
sg40
g41
sg25
F0.12054754793643951
sS'trials.thisIndex'
p398
g36
(g80
S'&\x00\x00\x00'
tRp399
sg26
V5
sS'trials.thisRepN'
p400
I0
sg66
Vhen
p401
sg63
V../experiment_stimuli/bw_bc_bl/Living_Things/Birds/hen_14.jpg
p402
sg21
F0.42115703271701932
sS'trials.thisTrialN'
p403
I28
sa(dp404
g31
g32
sg17
F146.47240886837244
sg24
I1
sg35
g39
sg14
F146.46660229703411
sg16
g36
(g70
S'\x01\x00\x00\x00'
tRp405
sg42
g43
sg46
g47
sg15
g88
sg22
F150.09513358259574
sg64
g125
sg62
g113
sg49
g50
sS'trials.thisN'
p406
I29
sg19
I0
sg27
g36
(g38
S'\x00\x00\x00\x00\x00\x00\x1a@'
tRp407
sg52
g53
sg23
S'1'
sg18
F147.72924724034965
sg33
g34
sg51
g11
sg20
S'2'
sg65
g36
(g77
S'\x00\x00\x00\x00\x00\x00\x00\x00'
tRp408
sg44
g45
sg40
g41
sg25
F0.1104724439792335
sS'trials.thisIndex'
p409
g36
(g80
S'=\x00\x00\x00'
tRp410
sg26
V5
sS'trials.thisRepN'
p411
I0
sg66
Vpenguin
p412
sg63
V../experiment_stimuli/bw_bc_bl/Living_Things/Birds/penguin_3.jpg
p413
sg21
F2.3453244715929031
sS'trials.thisTrialN'
p414
I29
sa(dp415
g31
g32
sg17
F151.94324188958853
sg24
I0
sg35
g39
sg14
F151.93850002158433
sg16
g36
(g70
S'\x02\x00\x00\x00'
tRp416
sg42
g43
sg46
g47
sg15
g88
sg22
F154.59491218067706
sg64
g204
sg62
g74
sg49
g50
sS'trials.thisN'
p417
I30
sg19
I0
sg27
g36
(g38
S'\x00\x00\x00\x00\x00\x00\x1a@'
tRp418
sg52
g53
sg23
S'2'
sg18
F153.22119022300467
sg33
g34
sg51
g11
sg20
S'1'
sg65
g36
(g77
S'\x00\x00\x00\x00\x00\x00\x00\x00'
tRp419
sg44
g45
sg40
g41
sg25
F0.1204795902594924
sS'trials.thisIndex'
p420
g36
(g80
S'\x02\x00\x00\x00'
tRp421
sg26
V5
sS'trials.thisRepN'
p422
I0
sg66
Varmchair
p423
sg63
V../experiment_stimuli/bw_bc_bl/Nonliving_Things/Furniture/armchair_22.jpg
p424
sg21
F1.3531681769527495
sS'trials.thisTrialN'
p425
I30
sa(dp426
g31
g32
sg17
F156.45321549940854
sg24
I0
sg35
g39
sg14
F156.4483052873984
sg16
g36
(g70
S'\x01\x00\x00\x00'
tRp427
sg42
g43
sg46
g47
sg15
g88
sg22
F158.58356956066564
sg64
g125
sg62
g113
sg49
g50
sS'trials.thisN'
p428
I31
sg19
I1
sg27
g36
(g38
S'\x00\x00\x00\x00\x00\x00\x1a@'
tRp429
sg52
g53
sg23
S'3'
sg18
F157.72097253846005
sg33
g34
sg51
g11
sg20
S'1'
sg65
g36
(g77
S'\x00\x00\x00\x00\x00\x00\x00\x00'
tRp430
sg44
g45
sg40
g41
sg25
F0.77191487327218056
sS'trials.thisIndex'
p431
g36
(g80
S'J\x00\x00\x00'
tRp432
sg26
V5
sS'trials.thisRepN'
p433
I0
sg66
Vseagull
p434
sg63
V../experiment_stimuli/bw_bc_bl/Living_Things/Birds/seagull_22.jpg
p435
sg21
F0.84205951960757375
sS'trials.thisTrialN'
p436
I31
sa(dp437
g31
g32
sg17
F161.09509281022474
sg24
I1
sg35
g39
sg14
F161.08839951083064
sg16
g36
(g70
S'\x01\x00\x00\x00'
tRp438
sg42
g43
sg46
g47
sg15
g88
sg22
F163.36399153014645
sg64
g125
sg62
g113
sg49
g50
sS'trials.thisN'
p439
I32
sg19
I1
sg27
g36
(g38
S'\x00\x00\x00\x00\x00\x00\x1a@'
tRp440
sg52
g53
sg23
S'1'
sg18
F162.34101553028449
sg33
g34
sg51
g11
sg20
S'1'
sg65
g36
(g77
S'\x00\x00\x00\x00\x00\x00\x00\x00'
tRp441
sg44
g45
sg40
g41
sg25
F0.24074787553399801
sS'trials.thisIndex'
p442
g36
(g80
S'<\x00\x00\x00'
tRp443
sg26
V5
sS'trials.thisRepN'
p444
I0
sg66
Vpelican
p445
sg63
V../experiment_stimuli/bw_bc_bl/Living_Things/Birds/pelican_0.jpg
p446
sg21
F1.0024123322218657
sS'trials.thisTrialN'
p447
I32
sa(dp448
g31
g32
sg17
F165.34245403436944
sg24
I0
sg35
g39
sg14
F165.3376317457296
sg16
g36
(g70
S'\x01\x00\x00\x00'
tRp449
sg42
g43
sg46
g47
sg15
g88
sg22
F170.59972235467285
sg64
VInsects
p450
sg62
g113
sg49
g50
sS'trials.thisN'
p451
I33
sg19
I1
sg27
g36
(g38
S'\x00\x00\x00\x00\x00\x00\x1a@'
tRp452
sg52
g53
sg23
S'2'
sg18
F166.6002793922089
sg33
g34
sg51
g11
sg20
S'1'
sg65
g36
(g77
S'\x00\x00\x00\x00\x00\x00\x00\x00'
tRp453
sg44
g45
sg40
g41
sg25
F0.29086163174360991
sS'trials.thisIndex'
p454
g36
(g80
S'\n\x00\x00\x00'
tRp455
sg26
V5
sS'trials.thisRepN'
p456
I0
sg66
Vbutterfly
p457
sg63
V../experiment_stimuli/bw_bc_bl/Living_Things/Insects/butterfly_10.jpg
p458
sg21
F3.9788809297606349
sS'trials.thisTrialN'
p459
I33
sa(dp460
g31
g32
sg17
F172.62828859593719
sg24
I1
sg35
g39
sg14
F172.62346929265186
sg16
g36
(g70
S'\x02\x00\x00\x00'
tRp461
sg42
g43
sg46
g47
sg15
g88
sg22
F173.95698299538344
sg64
g100
sg62
g74
sg49
g50
sS'trials.thisN'
p462
I34
sg19
I1
sg27
g36
(g38
S'\x00\x00\x00\x00\x00\x00\x1e@'
tRp463
sg52
g53
sg23
S'1'
sg18
F173.87609478551894
sg33
g34
sg51
g11
sg20
S'2'
sg65
g36
(g77
S'\x00\x00\x00\x00\x00\x00\x00\x00'
tRp464
sg44
g45
sg40
g41
sg25
F0.20066541200503707
sS'trials.thisIndex'
p465
g36
(g80
S'\x07\x00\x00\x00'
tRp466
sg26
V5
sS'trials.thisRepN'
p467
I0
sg66
Vboat
p468
sg63
V../experiment_stimuli/bw_bc_bl/Nonliving_Things/Vehicles/boat_15.jpg
p469
sg21
F0.060357221867889166
sS'trials.thisTrialN'
p470
I34
sa(dp471
g31
g32
sg17
F175.89561069011688
sg24
I1
sg35
g39
sg14
F175.8905733525753
sg16
g36
(g70
S'\x02\x00\x00\x00'
tRp472
sg42
g43
sg46
g47
sg15
g72
sg22
F177.4545937012881
sg64
g450
sg62
g113
sg49
g50
sS'trials.thisN'
p473
I35
sg19
I0
sg27
g36
(g38
S'\x00\x00\x00\x00\x00\x00\x1c@'
tRp474
sg52
g53
sg23
S'1'
sg18
F177.17326101614162
sg33
g34
sg51
g11
sg20
S'1'
sg65
g36
(g77
S'\x00\x00\x00\x00\x00\x00\x00\x00'
tRp475
sg44
g45
sg40
g41
sg25
F2.4455402954481542
sS'trials.thisIndex'
p476
g36
(g80
S'I\x00\x00\x00'
tRp477
sg26
V5
sS'trials.thisRepN'
p478
I0
sg66
Vscorpion
p479
sg63
V../experiment_stimuli/bw_bc_bl/Living_Things/Insects/scorpion_16.jpg
p480
sg21
F0.26078428747132421
sS'trials.thisTrialN'
p481
I35
sa(dp482
g31
g32
sg17
F181.63806985504925
sg24
I0
sg35
g39
sg14
F181.6330752200447
sg16
g36
(g70
S'\x01\x00\x00\x00'
tRp483
sg42
g43
sg46
g47
sg15
g88
sg22
F184.88075837353244
sg64
g112
sg62
g113
sg49
g50
sS'trials.thisN'
p484
I36
sg19
I1
sg27
g36
(g38
S'\x00\x00\x00\x00\x00\x00\x1a@'
tRp485
sg52
g53
sg23
S'2'
sg18
F182.92576578911394
sg33
g34
sg51
g11
sg20
S'1'
sg65
g36
(g77
S'\x00\x00\x00\x00\x00\x00\x00\x00'
tRp486
sg44
g45
sg40
g41
sg25
F0.30092672817409039
sS'trials.thisIndex'
p487
g36
(g80
S'\x10\x00\x00\x00'
tRp488
sg26
V5
sS'trials.thisRepN'
p489
I0
sg66
Vcheetah
p490
sg63
V../experiment_stimuli/bw_bc_bl/Living_Things/Animals/cheetah_0.jpg
p491
sg21
F1.9344330402091146
sS'trials.thisTrialN'
p492
I36
sa(dp493
g31
g32
sg17
F186.91943923290819
sg24
I0
sg35
g39
sg14
F186.91453428799286
sg16
g36
(g70
S'\x02\x00\x00\x00'
tRp494
sg42
g43
sg46
g47
sg15
g88
sg22
F188.85939920926467
sg64
g73
sg62
g74
sg49
g50
sS'trials.thisN'
p495
I37
sg19
I1
sg27
g36
(g38
S'\x00\x00\x00\x00\x00\x00\x18@'
tRp496
sg52
g53
sg23
S'2'
sg18
F188.19723183941096
sg33
g34
sg51
g11
sg20
S'2'
sg65
g36
(g77
S'\x00\x00\x00\x00\x00\x00\x00\x00'
tRp497
sg44
g45
sg40
g41
sg25
F0.28082776023074985
sS'trials.thisIndex'
p498
g36
(g80
S'\x0e\x00\x00\x00'
tRp499
sg26
V5
sS'trials.thisRepN'
p500
I0
sg66
Vcathedral
p501
sg63
V../experiment_stimuli/bw_bc_bl/Nonliving_Things/Buildings/cathedral_6.jpg
p502
sg21
F0.64162337081506848
sS'trials.thisTrialN'
p503
I37
sa(dp504
g31
g32
sg17
F190.87821535672992
sg24
I0
sg35
g39
sg14
F190.87314760964364
sg16
g36
(g70
S'\x01\x00\x00\x00'
tRp505
sg42
g43
sg46
g47
sg15
g72
sg22
F193.77007184736431
sg64
g250
sg62
g74
sg49
g50
sS'trials.thisN'
p506
I38
sg19
I1
sg27
g36
(g38
S'\x00\x00\x00\x00\x00\x00\x18@'
tRp507
sg52
g53
sg23
S'3'
sg18
F192.14581383857876
sg33
g34
sg51
g11
sg20
S'1'
sg65
g36
(g77
S'\x00\x00\x00\x00\x00\x00\x00\x00'
tRp508
sg44
g45
sg40
g41
sg25
F0.27081800857558846
sS'trials.thisIndex'
p509
g36
(g80
S'X\x00\x00\x00'
tRp510
sg26
V5
sS'trials.thisRepN'
p511
I0
sg66
Vtrumpet
p512
sg63
V../experiment_stimuli/bw_bc_bl/Nonliving_Things/Musical_Inst/trumpet_4.jpg
p513
sg21
F1.6037113559432328
sS'trials.thisTrialN'
p514
I38
sa(dp515
g31
g32
sg17
F195.7787717487663
sg24
I1
sg35
g39
sg14
F195.77379935001954
sg16
g36
(g70
S'\x02\x00\x00\x00'
tRp516
sg42
g43
sg46
g47
sg15
g72
sg22
F197.48817068850622
sg64
g137
sg62
g113
sg49
g50
sS'trials.thisN'
p517
I39
sg19
I1
sg27
g36
(g38
S'\x00\x00\x00\x00\x00\x00\x18@'
tRp518
sg52
g53
sg23
S'1'
sg18
F197.0163993020542
sg33
g34
sg51
g11
sg20
S'2'
sg65
g36
(g77
S'\x00\x00\x00\x00\x00\x00\x00\x00'
tRp519
sg44
g45
sg40
g41
sg25
F0.10044176829978824
sS'trials.thisIndex'
p520
g36
(g80
S'\x15\x00\x00\x00'
tRp521
sg26
V5
sS'trials.thisRepN'
p522
I0
sg66
Vcrab
p523
sg63
V../experiment_stimuli/bw_bc_bl/Living_Things/Marine_creatures/crab_26.jpg
p524
sg21
F0.44118635077029467
sS'trials.thisTrialN'
p525
I39
sa(dp526
g31
g32
sg17
F199.32639932492748
sg24
I1
sg35
g39
sg14
F199.32153261266649
sg16
g36
(g70
S'\x01\x00\x00\x00'
tRp527
sg42
g43
sg46
g47
sg15
g88
sg22
F201.51692151324823
sg64
g125
sg62
g113
sg49
g50
sS'trials.thisN'
p528
I40
sg19
I1
sg27
g36
(g38
S'\x00\x00\x00\x00\x00\x00\x1a@'
tRp529
sg52
g53
sg23
S'1'
sg18
F200.58415751857683
sg33
g34
sg51
g11
sg20
S'1'
sg65
g36
(g77
S'\x00\x00\x00\x00\x00\x00\x00\x00'
tRp530
sg44
g45
sg40
g41
sg25
F0.20065384451299906
sS'trials.thisIndex'
p531
g36
(g80
S'\x04\x00\x00\x00'
tRp532
sg26
V5
sS'trials.thisRepN'
p533
I0
sg66
Vbarn-owl
p534
sg63
V../experiment_stimuli/bw_bc_bl/Living_Things/Birds/barn-owl_26.jpg
p535
sg21
F0.91220990195870399
sS'trials.thisTrialN'
p536
I40
sa(dp537
g31
g32
sg17
F203.45536360889673
sg24
I1
sg35
g39
sg14
F203.45049615995958
sg16
g36
(g70
S'\x02\x00\x00\x00'
tRp538
sg42
g43
sg46
g47
sg15
g88
sg22
F207.67029081238434
sg64
g204
sg62
g74
sg49
g50
sS'trials.thisN'
p539
I41
sg19
I1
sg27
g36
(g38
S'\x00\x00\x00\x00\x00\x00\x1a@'
tRp540
sg52
g53
sg23
S'1'
sg18
F204.74320661276579
sg33
g34
sg51
g11
sg20
S'2'
sg65
g36
(g77
S'\x00\x00\x00\x00\x00\x00\x00\x00'
tRp541
sg44
g45
sg40
g41
sg25
F0.12047466170042753
sS'trials.thisIndex'
p542
g36
(g80
S'\x05\x00\x00\x00'
tRp543
sg26
V5
sS'trials.thisRepN'
p544
I0
sg66
Vbed
p545
sg63
V../experiment_stimuli/bw_bc_bl/Nonliving_Things/Furniture/bed_21.jpg
p546
sg21
F2.9065389186143875
sS'trials.thisTrialN'
p547
I41
sa(dp548
g31
g32
sg17
F209.52851989166811
sg24
I0
sg35
g39
sg14
F209.52372056199238
sg16
g36
(g70
S'\x01\x00\x00\x00'
tRp549
sg42
g43
sg46
g47
sg15
g72
sg22
F211.59885805333033
sg64
g238
sg62
g74
sg49
g50
sS'trials.thisN'
p550
I42
sg19
I0
sg27
g36
(g38
S'\x00\x00\x00\x00\x00\x00\x1a@'
tRp551
sg52
g53
sg23
S'2'
sg18
F210.82642688602209
sg33
g34
sg51
g11
sg20
S'2'
sg65
g36
(g77
S'\x00\x00\x00\x00\x00\x00\x00\x00'
tRp552
sg44
g45
sg40
g41
sg25
F0.27081045275554061
sS'trials.thisIndex'
p553
g36
(g80
S'\x1e\x00\x00\x00'
tRp554
sg26
V5
sS'trials.thisRepN'
p555
I0
sg66
Vfondue
p556
sg63
V../experiment_stimuli/bw_bc_bl/Nonliving_Things/Kitchen_Uten/fondue_10.jpg
p557
sg21
F0.75186866847798228
sS'trials.thisTrialN'
p558
I42
sa(dp559
g31
g32
sg17
F213.60947158932686
sg24
I0
sg35
g39
sg14
F213.60256008990109
sg16
g36
(g70
S'\x02\x00\x00\x00'
tRp560
sg42
g43
sg46
g47
sg15
g88
sg22
F216.62980255903676
sg64
g73
sg62
g74
sg49
g50
sS'trials.thisN'
p561
I43
sg19
I1
sg27
g36
(g38
S'\x00\x00\x00\x00\x00\x00\x18@'
tRp562
sg52
g53
sg23
S'2'
sg18
F214.89527601655573
sg33
g34
sg51
g11
sg20
S'2'
sg65
g36
(g77
S'\x00\x00\x00\x00\x00\x00\x00\x00'
tRp563
sg44
g45
sg40
g41
sg25
F0.26079987036064267
sS'trials.thisIndex'
p564
g36
(g80
S')\x00\x00\x00'
tRp565
sg26
V5
sS'trials.thisRepN'
p566
I0
sg66
Vhouse
p567
sg63
V../experiment_stimuli/bw_bc_bl/Nonliving_Things/Buildings/house_5.jpg
p568
sg21
F1.7139658406376839
sS'trials.thisTrialN'
p569
I43
sa(dp570
g31
g32
sg17
F218.62935542594641
sg24
I0
sg35
g39
sg14
F218.62347761541605
sg16
g36
(g70
S'\x01\x00\x00\x00'
tRp571
sg42
g43
sg46
g47
sg15
g72
sg22
F220.56819454627112
sg64
g204
sg62
g74
sg49
g50
sS'trials.thisN'
p572
I44
sg19
I1
sg27
g36
(g38
S'\x00\x00\x00\x00\x00\x00\x1a@'
tRp573
sg52
g53
sg23
S'2'
sg18
F219.90616569668055
sg33
g34
sg51
g11
sg20
S'1'
sg65
g36
(g77
S'\x00\x00\x00\x00\x00\x00\x00\x00'
tRp574
sg44
g45
sg40
g41
sg25
F0.71176382526755333
sS'trials.thisIndex'
p575
g36
(g80
S'\x00\x00\x00\x00'
tRp576
sg26
V5
sS'trials.thisRepN'
p577
I0
sg66
VChest-of-drawers
p578
sg63
V../experiment_stimuli/bw_bc_bl/Nonliving_Things/Furniture/Chest-of-drawers_8.jpg
p579
sg21
F0.64146112930029631
sS'trials.thisTrialN'
p580
I44
sa(dp581
g31
g32
sg17
F223.02011571684852
sg24
I0
sg35
g39
sg14
F223.01301691960543
sg16
g36
(g70
S'\x02\x00\x00\x00'
tRp582
sg42
g43
sg46
g47
sg15
g88
sg22
F225.07816730579361
sg64
g328
sg62
g74
sg49
g50
sS'trials.thisN'
p583
I45
sg19
I1
sg27
g36
(g38
S'\x00\x00\x00\x00\x00\x00 @'
tRp584
sg52
g53
sg23
S'3'
sg18
F224.28568779816851
sg33
g34
sg51
g11
sg20
S'2'
sg65
g36
(g77
S'\x00\x00\x00\x00\x00\x00\x00\x00'
tRp585
sg44
g45
sg40
g41
sg25
F0.51133729005232453
sS'trials.thisIndex'
p586
g36
(g80
S'%\x00\x00\x00'
tRp587
sg26
V5
sS'trials.thisRepN'
p588
I0
sg66
Vhammer
p589
sg63
V../experiment_stimuli/bw_bc_bl/Nonliving_Things/Tools/hammer_2.jpg
p590
sg21
F0.77191577246412635
sS'trials.thisTrialN'
p591
I45
sa(dp592
g31
g32
sg17
F227.32732659485191
sg24
I1
sg35
g39
sg14
F227.32238912768662
sg16
g36
(g70
S'\x01\x00\x00\x00'
tRp593
sg42
g43
sg46
g47
sg15
g72
sg22
F231.87292309990153
sg64
g250
sg62
g74
sg49
g50
sS'trials.thisN'
p594
I46
sg19
I1
sg27
g36
(g38
S'\x00\x00\x00\x00\x00\x00\x1a@'
tRp595
sg52
g53
sg23
S'1'
sg18
F228.57501065451652
sg33
g34
sg51
g11
sg20
S'1'
sg65
g36
(g77
S'\x00\x00\x00\x00\x00\x00\x00\x00'
tRp596
sg44
g45
sg40
g41
sg25
F0.22071184637024999
sS'trials.thisIndex'
p597
g36
(g80
S'$\x00\x00\x00'
tRp598
sg26
V5
sS'trials.thisRepN'
p599
I0
sg66
Vguitar
p600
sg63
V../experiment_stimuli/bw_bc_bl/Nonliving_Things/Musical_Inst/guitar_15.jpg
p601
sg21
F3.2773461798205972
sS'trials.thisTrialN'
p602
I46
sa(dp603
g31
g32
sg17
F233.83146743429825
sg24
I0
sg35
g39
sg14
F233.82652464788407
sg16
g36
(g70
S'\x01\x00\x00\x00'
tRp604
sg42
g43
sg46
g47
sg15
g72
sg22
F237.25464001437649
sg64
g250
sg62
g74
sg49
g50
sS'trials.thisN'
p605
I47
sg19
I1
sg27
g36
(g38
S'\x00\x00\x00\x00\x00\x00\x1a@'
tRp606
sg52
g53
sg23
S'3'
sg18
F235.10921679297462
sg33
g34
sg51
g11
sg20
S'1'
sg65
g36
(g77
S'\x00\x00\x00\x00\x00\x00\x00\x00'
tRp607
sg44
g45
sg40
g41
sg25
F0.12048237631097436
sS'trials.thisIndex'
p608
g36
(g80
S'\\\x00\x00\x00'
tRp609
sg26
V5
sS'trials.thisRepN'
p610
I0
sg66
Vviolin
p611
sg63
V../experiment_stimuli/bw_bc_bl/Nonliving_Things/Musical_Inst/violin_25.jpg
p612
sg21
F2.124858986120671
sS'trials.thisTrialN'
p613
I47
sa(dp614
g31
g32
sg17
F239.11301139602438
sg24
I1
sg35
g39
sg14
F239.10801357682794
sg16
g36
(g70
S'\x02\x00\x00\x00'
tRp615
sg42
g43
sg46
g47
sg15
g88
sg22
F241.50388873787597
sg64
g238
sg62
g74
sg49
g50
sS'trials.thisN'
p616
I48
sg19
I1
sg27
g36
(g38
S'\x00\x00\x00\x00\x00\x00\x1e@'
tRp617
sg52
g53
sg23
S'1'
sg18
F240.36063815606758
sg33
g34
sg51
g11
sg20
S'2'
sg65
g36
(g77
S'\x00\x00\x00\x00\x00\x00\x00\x00'
tRp618
sg44
g45
sg40
g41
sg25
F0.080441351979970932
sS'trials.thisIndex'
p619
g36
(g80
S'S\x00\x00\x00'
tRp620
sg26
V5
sS'trials.thisRepN'
p621
I0
sg66
Vteapot
p622
sg63
V../experiment_stimuli/bw_bc_bl/Nonliving_Things/Kitchen_Uten/teapot_19.jpg
p623
sg21
F1.1226692073978484
sS'trials.thisTrialN'
p624
I48
sa(dp625
g31
g32
sg17
F243.32221397105604
sg24
I1
sg35
g39
sg14
F243.31716999039054
sg16
g36
(g70
S'\x01\x00\x00\x00'
tRp626
sg42
g43
sg46
g47
sg15
g88
sg22
F245.36224176594988
sg64
g137
sg62
g113
sg49
g50
sS'trials.thisN'
p627
I49
sg19
I1
sg27
g36
(g38
S'\x00\x00\x00\x00\x00\x00\x18@'
tRp628
sg52
g53
sg23
S'1'
sg18
F244.58982737688348
sg33
g34
sg51
g11
sg20
S'1'
sg65
g36
(g77
S'\x00\x00\x00\x00\x00\x00\x00\x00'
tRp629
sg44
g45
sg40
g41
sg25
F0.18062942055985332
sS'trials.thisIndex'
p630
g36
(g80
S'1\x00\x00\x00'
tRp631
sg26
V5
sS'trials.thisRepN'
p632
I0
sg66
Vlobster
p633
sg63
V../experiment_stimuli/bw_bc_bl/Living_Things/Marine_creatures/lobster_23.jpg
p634
sg21
F0.75185897294431925
sS'trials.thisTrialN'
p635
I49
sa(dp636
g31
g32
sg17
F247.28063571639359
sg24
I0
sg35
g39
sg14
F247.27577007189393
sg16
g36
(g70
S'\x02\x00\x00\x00'
tRp637
sg42
g43
sg46
g47
sg15
g72
sg22
F249.08033458841965
sg64
g137
sg62
g113
sg49
g50
sS'trials.thisN'
p638
I50
sg19
I1
sg27
g36
(g38
S'\x00\x00\x00\x00\x00\x00\x1c@'
tRp639
sg52
g53
sg23
S'3'
sg18
F248.57850395236164
sg33
g34
sg51
g11
sg20
S'2'
sg65
g36
(g77
S'\x00\x00\x00\x00\x00\x00\x00\x00'
tRp640
sg44
g45
sg40
g41
sg25
F0.35098130768164992
sS'trials.thisIndex'
p641
g36
(g80
S'^\x00\x00\x00'
tRp642
sg26
V5
sS'trials.thisRepN'
p643
I0
sg66
Vwhale
p644
sg63
V../experiment_stimuli/bw_bc_bl/Living_Things/Marine_creatures/whale_11.jpg
p645
sg21
F0.48128561116755009
sS'trials.thisTrialN'
p646
I50
sa(dp647
g31
g32
sg17
F251.17025072220713
sg24
I0
sg35
g39
sg14
F251.16422005649656
sg16
g36
(g70
S'\x01\x00\x00\x00'
tRp648
sg42
g43
sg46
g47
sg15
g88
sg22
F253.53004117775708
sg64
g125
sg62
g113
sg49
g50
sS'trials.thisN'
p649
I51
sg19
I1
sg27
g36
(g38
S'\x00\x00\x00\x00\x00\x00\x1e@'
tRp650
sg52
g53
sg23
S'3'
sg18
F252.44691662956029
sg33
g34
sg51
g11
sg20
S'1'
sg65
g36
(g77
S'\x00\x00\x00\x00\x00\x00\x00\x00'
tRp651
sg44
g45
sg40
g41
sg25
F0.65165385184809566
sS'trials.thisIndex'
p652
g36
(g80
S'\x1a\x00\x00\x00'
tRp653
sg26
V5
sS'trials.thisRepN'
p654
I0
sg66
Vduck
p655
sg63
V../experiment_stimuli/bw_bc_bl/Living_Things/Birds/duck_18.jpg
p656
sg21
F1.0625597489997745
sS'trials.thisTrialN'
p657
I51
sa(dp658
g31
g32
sg17
F255.91938922181726
sg24
I0
sg35
g39
sg14
F255.91454627271742
sg16
g36
(g70
S'\x01\x00\x00\x00'
tRp659
sg42
g43
sg46
g47
sg15
g88
sg22
F259.78361602313817
sg64
g112
sg62
g113
sg49
g50
sS'trials.thisN'
p660
I52
sg19
I1
sg27
g36
(g38
S'\x00\x00\x00\x00\x00\x00\x18@'
tRp661
sg52
g53
sg23
S'3'
sg18
F257.17719527240843
sg33
g34
sg51
g11
sg20
S'1'
sg65
g36
(g77
S'\x00\x00\x00\x00\x00\x00\x00\x00'
tRp662
sg44
g45
sg40
g41
sg25
F0.26078036287799478
sS'trials.thisIndex'
p663
g36
(g80
S'(\x00\x00\x00'
tRp664
sg26
V5
sS'trials.thisRepN'
p665
I0
sg66
Vhorse
p666
sg63
V../experiment_stimuli/bw_bc_bl/Living_Things/Animals/horse_16.jpg
p667
sg21
F2.5858640451915562
sS'trials.thisTrialN'
p668
I52
sa(dp669
g31
g32
sg17
F261.78218594193459
sg24
I1
sg35
g39
sg14
F261.77729625627398
sg16
g36
(g70
S'\x01\x00\x00\x00'
tRp670
sg42
g43
sg46
g47
sg15
g88
sg22
F263.30110067734495
sg64
g125
sg62
g113
sg49
g50
sS'trials.thisN'
p671
I53
sg19
I0
sg27
g36
(g38
S'\x00\x00\x00\x00\x00\x00\x1c@'
tRp672
sg52
g53
sg23
S'1'
sg18
F263.02992113260552
sg33
g34
sg51
g11
sg20
S'2'
sg65
g36
(g77
S'\x00\x00\x00\x00\x00\x00\x00\x00'
tRp673
sg44
g45
sg40
g41
sg25
F0.16062848502770066
sS'trials.thisIndex'
p674
g36
(g80
S'F\x00\x00\x00'
tRp675
sg26
V5
sS'trials.thisRepN'
p676
I0
sg66
Vrooster
p677
sg63
V../experiment_stimuli/bw_bc_bl/Living_Things/Birds/rooster_17.jpg
p678
sg21
F0.25061524193733931
sS'trials.thisTrialN'
p679
I53
sa(dp680
g31
g32
sg17
F265.19959727767855
sg24
I1
sg35
g39
sg14
F265.19473192282021
sg16
g36
(g70
S'\x02\x00\x00\x00'
tRp681
sg42
g43
sg46
g47
sg15
g72
sg22
F266.48817329667509
sg64
g125
sg62
g113
sg49
g50
sS'trials.thisN'
p682
I54
sg19
I0
sg27
g36
(g38
S'\x00\x00\x00\x00\x00\x00\x18@'
tRp683
sg52
g53
sg23
S'1'
sg18
F266.45737561397254
sg33
g34
sg51
g11
sg20
S'1'
sg65
g36
(g77
S'\x00\x00\x00\x00\x00\x00\x00\x00'
tRp684
sg44
g45
sg40
g41
sg25
F0.24073881562799215
sS'trials.thisIndex'
p685
g36
(g80
S'?\x00\x00\x00'
tRp686
sg26
V5
sS'trials.thisRepN'
p687
I0
sg66
Vpigeon
p688
sg63
V../experiment_stimuli/bw_bc_bl/Living_Things/Birds/pigeon_10.jpg
p689
sg21
F0.010247612372040749
sS'trials.thisTrialN'
p690
I54
sa(dp691
g31
g32
sg17
F268.46654168562964
sg24
I0
sg35
g39
sg14
F268.46183188445866
sg16
g36
(g70
S'\x01\x00\x00\x00'
tRp692
sg42
g43
sg46
g47
sg15
g88
sg22
F272.08034256566316
sg64
g125
sg62
g113
sg49
g50
sS'trials.thisN'
p693
I55
sg19
I1
sg27
g36
(g38
S'\x00\x00\x00\x00\x00\x00\x1a@'
tRp694
sg52
g53
sg23
S'3'
sg18
F269.7445188681595
sg33
g34
sg51
g11
sg20
S'1'
sg65
g36
(g77
S'\x00\x00\x00\x00\x00\x00\x00\x00'
tRp695
sg44
g45
sg40
g41
sg25
F0.29089993145316839
sS'trials.thisIndex'
p696
g36
(g80
S'"\x00\x00\x00'
tRp697
sg26
V5
sS'trials.thisRepN'
p698
I0
sg66
Vgoose
p699
sg63
V../experiment_stimuli/bw_bc_bl/Living_Things/Birds/goose_15.jpg
p700
sg21
F2.3152700895443559
sS'trials.thisTrialN'
p701
I55
sa(dp702
g31
g32
sg17
F274.10893300967291
sg24
I1
sg35
g39
sg14
F274.10410093190148
sg16
g36
(g70
S'\x01\x00\x00\x00'
tRp703
sg42
g43
sg46
g47
sg15
g72
sg22
F276.83070654096082
sg64
g250
sg62
g74
sg49
g50
sS'trials.thisN'
p704
I56
sg19
I0
sg27
g36
(g38
S'\x00\x00\x00\x00\x00\x00\x1a@'
tRp705
sg52
g53
sg23
S'1'
sg18
F275.35671774111688
sg33
g34
sg51
g11
sg20
S'2'
sg65
g36
(g77
S'\x00\x00\x00\x00\x00\x00\x00\x00'
tRp706
sg44
g45
sg40
g41
sg25
F1.6037073149345815
sS'trials.thisIndex'
p707
g36
(g80
S'\x19\x00\x00\x00'
tRp708
sg26
V5
sS'trials.thisRepN'
p709
I0
sg66
Vdrum
p710
sg63
V../experiment_stimuli/bw_bc_bl/Nonliving_Things/Musical_Inst/drum_19.jpg
p711
sg21
F1.4534057565033436
sS'trials.thisTrialN'
p712
I56
sa(dp713
g31
g32
sg17
F280.17211334872991
sg24
I0
sg35
g39
sg14
F280.16727504925802
sg16
g36
(g70
S'\x02\x00\x00\x00'
tRp714
sg42
g43
sg46
g47
sg15
g88
sg22
F285.32916781120002
sg64
g204
sg62
g74
sg49
g50
sS'trials.thisN'
p715
I57
sg19
I1
sg27
g36
(g38
S'\x00\x00\x00\x00\x00\x00\x1a@'
tRp716
sg52
g53
sg23
S'3'
sg18
F281.43994396179914
sg33
g34
sg51
g11
sg20
S'2'
sg65
g36
(g77
S'\x00\x00\x00\x00\x00\x00\x00\x00'
tRp717
sg44
g45
sg40
g41
sg25
F0.32097174134105444
sS'trials.thisIndex'
p718
g36
(g80
S'Q\x00\x00\x00'
tRp719
sg26
V5
sS'trials.thisRepN'
p720
I0
sg66
Vtable
p721
sg63
V../experiment_stimuli/bw_bc_bl/Nonliving_Things/Furniture/table_10.jpg
p722
sg21
F3.8686448615044355
sS'trials.thisTrialN'
p723
I57
sa(dp724
g31
g32
sg17
F287.38905355846509
sg24
I1
sg35
g39
sg14
F287.38296300685033
sg16
g36
(g70
S'\x02\x00\x00\x00'
tRp725
sg42
g43
sg46
g47
sg15
g72
sg22
F289.07730277115479
sg64
g125
sg62
g113
sg49
g50
sS'trials.thisN'
p726
I58
sg19
I1
sg27
g36
(g38
S'\x00\x00\x00\x00\x00\x00\x18@'
tRp727
sg52
g53
sg23
S'1'
sg18
F288.62556960899383
sg33
g34
sg51
g11
sg20
S'2'
sg65
g36
(g77
S'\x00\x00\x00\x00\x00\x00\x00\x00'
tRp728
sg44
g45
sg40
g41
sg25
F0.12053204048424959
sS'trials.thisIndex'
p729
g36
(g80
S'*\x00\x00\x00'
tRp730
sg26
V5
sS'trials.thisRepN'
p731
I0
sg66
Vhummingbird
p732
sg63
V../experiment_stimuli/bw_bc_bl/Living_Things/Birds/hummingbird_17.jpg
p733
sg21
F0.4311759639531374
sS'trials.thisTrialN'
p734
I58
sa(dp735
g31
g32
sg17
F290.93546209204942
sg24
I1
sg35
g39
sg14
F290.93067405931652
sg16
g36
(g70
S'\x01\x00\x00\x00'
tRp736
sg42
g43
sg46
g47
sg15
g88
sg22
F293.4868971076794
sg64
g137
sg62
g113
sg49
g50
sS'trials.thisN'
p737
I59
sg19
I0
sg27
g36
(g38
S'\x00\x00\x00\x00\x00\x00\x1c@'
tRp738
sg52
g53
sg23
S'1'
sg18
F292.18330005928874
sg33
g34
sg51
g11
sg20
S'2'
sg65
g36
(g77
S'\x00\x00\x00\x00\x00\x00\x00\x00'
tRp739
sg44
g45
sg40
g41
sg25
F0.18067412683740258
sS'trials.thisIndex'
p740
g36
(g80
S'4\x00\x00\x00'
tRp741
sg26
V5
sS'trials.thisRepN'
p742
I0
sg66
Vmanatee
p743
sg63
V../experiment_stimuli/bw_bc_bl/Living_Things/Marine_creatures/manatee_19.jpg
p744
sg21
F1.2830243315547705
sS'trials.thisTrialN'
p745
I59
sa(dp746
g31
g32
sg17
F295.40645344788209
sg24
I0
sg35
g39
sg14
F295.40039421897382
sg16
g36
(g70
S'\x02\x00\x00\x00'
tRp747
sg42
g43
sg46
g47
sg15
g88
sg22
F297.51567351492122
sg64
g100
sg62
g74
sg49
g50
sS'trials.thisN'
p748
I60
sg19
I1
sg27
g36
(g38
S'\x00\x00\x00\x00\x00\x00\x1a@'
tRp749
sg52
g53
sg23
S'2'
sg18
F296.68308287160471
sg33
g34
sg51
g11
sg20
S'2'
sg65
g36
(g77
S'\x00\x00\x00\x00\x00\x00\x00\x00'
tRp750
sg44
g45
sg40
g41
sg25
F1.4434262374415994
sS'trials.thisIndex'
p751
g36
(g80
S'V\x00\x00\x00'
tRp752
sg26
V5
sS'trials.thisRepN'
p753
I0
sg66
Vtractor
p754
sg63
V../experiment_stimuli/bw_bc_bl/Nonliving_Things/Vehicles/tractor_11.jpg
p755
sg21
F0.81201341561973095
sS'trials.thisTrialN'
p756
I60
sa(dp757
g31
g32
sg17
F300.6966931046918
sg24
I0
sg35
g39
sg14
F300.69190469942987
sg16
g36
(g70
S'\x02\x00\x00\x00'
tRp758
sg42
g43
sg46
g47
sg15
g88
sg22
F303.10779767949134
sg64
g204
sg62
g74
sg49
g50
sS'trials.thisN'
p759
I61
sg19
I1
sg27
g36
(g38
S'\x00\x00\x00\x00\x00\x00\x18@'
tRp760
sg52
g53
sg23
S'2'
sg18
F301.96456809341908
sg33
g34
sg51
g11
sg20
S'2'
sg65
g36
(g77
S'\x00\x00\x00\x00\x00\x00\x00\x00'
tRp761
sg44
g45
sg40
g41
sg25
F0.25061453459784389
sS'trials.thisIndex'
p762
g36
(g80
S'\x08\x00\x00\x00'
tRp763
sg26
V5
sS'trials.thisRepN'
p764
I0
sg66
Vbookcase
p765
sg63
V../experiment_stimuli/bw_bc_bl/Nonliving_Things/Furniture/bookcase_10.jpg
p766
sg21
F1.122665380127728
sS'trials.thisTrialN'
p767
I61
sa(dp768
g31
g32
sg17
F305.0975451907143
sg24
I1
sg35
g39
sg14
F305.09145846171305
sg16
g36
(g70
S'\x02\x00\x00\x00'
tRp769
sg42
g43
sg46
g47
sg15
g72
sg22
F307.26682840893045
sg64
g112
sg62
g113
sg49
g50
sS'trials.thisN'
p770
I62
sg19
I1
sg27
g36
(g38
S'\x00\x00\x00\x00\x00\x00\x1c@'
tRp771
sg52
g53
sg23
S'1'
sg18
F306.35410629585385
sg33
g34
sg51
g11
sg20
S'2'
sg65
g36
(g77
S'\x00\x00\x00\x00\x00\x00\x00\x00'
tRp772
sg44
g45
sg40
g41
sg25
F0.23071597423404455
sS'trials.thisIndex'
p773
g36
(g80
S'\x1b\x00\x00\x00'
tRp774
sg26
V5
sS'trials.thisRepN'
p775
I0
sg66
Velephant
p776
sg63
V../experiment_stimuli/bw_bc_bl/Living_Things/Animals/elephant_14.jpg
p777
sg21
F0.89216050086542964
sS'trials.thisTrialN'
p778
I62
sa(dp779
g31
g32
sg17
F309.2352313650772
sg24
I0
sg35
g39
sg14
F309.23045852314681
sg16
g36
(g70
S'\x01\x00\x00\x00'
tRp780
sg42
g43
sg46
g47
sg15
g88
sg22
F311.84664079267532
sg64
g112
sg62
g113
sg49
g50
sS'trials.thisN'
p781
I63
sg19
I1
sg27
g36
(g38
S'\x00\x00\x00\x00\x00\x00\x18@'
tRp782
sg52
g53
sg23
S'2'
sg18
F310.52318615978584
sg33
g34
sg51
g11
sg20
S'1'
sg65
g36
(g77
S'\x00\x00\x00\x00\x00\x00\x00\x00'
tRp783
sg44
g45
sg40
g41
sg25
F0.26077941944822669
sS'trials.thisIndex'
p784
g36
(g80
S'\x14\x00\x00\x00'
tRp785
sg26
V5
sS'trials.thisRepN'
p786
I0
sg66
Vcow
p787
sg63
V../experiment_stimuli/bw_bc_bl/Living_Things/Animals/cow_23.jpg
p788
sg21
F1.3029072461649776
sS'trials.thisTrialN'
p789
I63
sa(dp790
g31
g32
sg17
F313.84531066473573
sg24
I0
sg35
g39
sg14
F313.84048023028299
sg16
g36
(g70
S'\x01\x00\x00\x00'
tRp791
sg42
g43
sg46
g47
sg15
g88
sg22
F315.93568860692903
sg64
g112
sg62
g113
sg49
g50
sS'trials.thisN'
p792
I64
sg19
I1
sg27
g36
(g38
S'\x00\x00\x00\x00\x00\x00\x1a@'
tRp793
sg52
g53
sg23
S'3'
sg18
F315.13319702865556
sg33
g34
sg51
g11
sg20
S'1'
sg65
g36
(g77
S'\x00\x00\x00\x00\x00\x00\x00\x00'
tRp794
sg44
g45
sg40
g41
sg25
F0.2106700805015862
sS'trials.thisIndex'
p795
g36
(g80
S"'\x00\x00\x00"
tRp796
sg26
V5
sS'trials.thisRepN'
p797
I0
sg66
Vhippopotamus
p798
sg63
V../experiment_stimuli/bw_bc_bl/Living_Things/Animals/hippopotamus_5.jpg
p799
sg21
F0.78193502360954881
sS'trials.thisTrialN'
p800
I64
sa(dp801
g31
g32
sg17
F317.88399133598432
sg24
I1
sg35
g39
sg14
F317.87926659919322
sg16
g36
(g70
S'\x02\x00\x00\x00'
tRp802
sg42
g43
sg46
g47
sg15
g88
sg22
F319.59363621240482
sg64
g73
sg62
g74
sg49
g50
sS'trials.thisN'
p803
I65
sg19
I0
sg27
g36
(g38
S'\x00\x00\x00\x00\x00\x00\x18@'
tRp804
sg52
g53
sg23
S'1'
sg18
F319.13188881380484
sg33
g34
sg51
g11
sg20
S'1'
sg65
g36
(g77
S'\x00\x00\x00\x00\x00\x00\x00\x00'
tRp805
sg44
g45
sg40
g41
sg25
F0.2407416426576674
sS'trials.thisIndex'
p806
g36
(g80
S'\x1c\x00\x00\x00'
tRp807
sg26
V5
sS'trials.thisRepN'
p808
I0
sg66
Vfactory
p809
sg63
V../experiment_stimuli/bw_bc_bl/Nonliving_Things/Buildings/factory_3.jpg
p810
sg21
F0.43116165976971388
sS'trials.thisTrialN'
p811
I65
sa(dp812
g31
g32
sg17
F321.57342826854438
sg24
I1
sg35
g39
sg14
F321.56730229966342
sg16
g36
(g70
S'\x02\x00\x00\x00'
tRp813
sg42
g43
sg46
g47
sg15
g88
sg22
F323.85288079222664
sg64
g204
sg62
g74
sg49
g50
sS'trials.thisN'
p814
I66
sg19
I1
sg27
g36
(g38
S'\x00\x00\x00\x00\x00\x00\x18@'
tRp815
sg52
g53
sg23
S'1'
sg18
F322.8299261382781
sg33
g34
sg51
g11
sg20
S'2'
sg65
g36
(g77
S'\x00\x00\x00\x00\x00\x00\x00\x00'
tRp816
sg44
g45
sg40
g41
sg25
F0.27065330091863871
sS'trials.thisIndex'
p817
g36
(g80
S'\x1d\x00\x00\x00'
tRp818
sg26
V5
sS'trials.thisRepN'
p819
I0
sg66
Vfilling-cabinet
p820
sg63
V../experiment_stimuli/bw_bc_bl/Nonliving_Things/Furniture/filling-cabinet_13.jpg
p821
sg21
F1.0024065240286291
sS'trials.thisTrialN'
p822
I66
sa(dp823
g31
g32
sg17
F325.86130990833044
sg24
I0
sg35
g39
sg14
F325.85660847555846
sg16
g36
(g70
S'\x01\x00\x00\x00'
tRp824
sg42
g43
sg46
g47
sg15
g72
sg22
F328.14224938442931
sg64
g204
sg62
g74
sg49
g50
sS'trials.thisN'
p825
I67
sg19
I1
sg27
g36
(g38
S'\x00\x00\x00\x00\x00\x00\x18@'
tRp826
sg52
g53
sg23
S'3'
sg18
F327.12927736202255
sg33
g34
sg51
g11
sg20
S'1'
sg65
g36
(g77
S'\x00\x00\x00\x00\x00\x00\x00\x00'
tRp827
sg44
g45
sg40
g41
sg25
F0.51133421808481216
sS'trials.thisIndex'
p828
g36
(g80
S']\x00\x00\x00'
tRp829
sg26
V5
sS'trials.thisRepN'
p830
I0
sg66
Vwardrobe
p831
sg63
V../experiment_stimuli/bw_bc_bl/Nonliving_Things/Furniture/wardrobe_9.jpg
p832
sg21
F0.99239780241623521
sS'trials.thisTrialN'
p833
I67
sa(dp834
g31
g32
sg17
F330.39128940459341
sg24
I1
sg35
g39
sg14
F330.38645349210128
sg16
g36
(g70
S'\x02\x00\x00\x00'
tRp835
sg42
g43
sg46
g47
sg15
g72
sg22
F331.98056371882558
sg64
g450
sg62
g113
sg49
g50
sS'trials.thisN'
p836
I68
sg19
I1
sg27
g36
(g38
S'\x00\x00\x00\x00\x00\x00\x18@'
tRp837
sg52
g53
sg23
S'1'
sg18
F331.63908006390557
sg33
g34
sg51
g11
sg20
S'2'
sg65
g36
(g77
S'\x00\x00\x00\x00\x00\x00\x00\x00'
tRp838
sg44
g45
sg40
g41
sg25
F0.090421596076339483
sS'trials.thisIndex'
p839
g36
(g80
S'\x18\x00\x00\x00'
tRp840
sg26
V5
sS'trials.thisRepN'
p841
I0
sg66
Vdragonfly
p842
sg63
V../experiment_stimuli/bw_bc_bl/Living_Things/Insects/dragonfly_5.jpg
p843
sg21
F0.32092485902830958
sS'trials.thisTrialN'
p844
I68
sa(dp845
g31
g32
sg17
F333.80994990281761
sg24
I0
sg35
g39
sg14
F333.80388177884743
sg16
g36
(g70
S'\x02\x00\x00\x00'
tRp846
sg42
g43
sg46
g47
sg15
g88
sg22
F336.22982695326209
sg64
g238
sg62
g74
sg49
g50
sS'trials.thisN'
p847
I69
sg19
I1
sg27
g36
(g38
S'\x00\x00\x00\x00\x00\x00\x1c@'
tRp848
sg52
g53
sg23
S'3'
sg18
F335.06654950790107
sg33
g34
sg51
g11
sg20
S'2'
sg65
g36
(g77
S'\x00\x00\x00\x00\x00\x00\x00\x00'
tRp849
sg44
g45
sg40
g41
sg25
F0.15059528686106205
sS'trials.thisIndex'
p850
g36
(g80
S'\x12\x00\x00\x00'
tRp851
sg26
V5
sS'trials.thisRepN'
p852
I0
sg66
Vcoking-pot
p853
sg63
V../experiment_stimuli/bw_bc_bl/Nonliving_Things/Kitchen_Uten/coking-pot_9.jpg
p854
sg21
F1.1427278523333371
sS'trials.thisTrialN'
p855
I69
sa(dp856
g31
g32
sg17
F338.11807176796719
sg24
I1
sg35
g39
sg14
F338.11325350217521
sg16
g36
(g70
S'\x01\x00\x00\x00'
tRp857
sg42
g43
sg46
g47
sg15
g72
sg22
F339.62703417567536
sg64
g204
sg62
g74
sg49
g50
sS'trials.thisN'
p858
I70
sg19
I1
sg27
g36
(g38
S'\x00\x00\x00\x00\x00\x00\x18@'
tRp859
sg52
g53
sg23
S'1'
sg18
F339.34583375928923
sg33
g34
sg51
g11
sg20
S'1'
sg65
g36
(g77
S'\x00\x00\x00\x00\x00\x00\x00\x00'
tRp860
sg44
g45
sg40
g41
sg25
F0.19065006682649255
sS'trials.thisIndex'
p861
g36
(g80
S'\x0f\x00\x00\x00'
tRp862
sg26
V5
sS'trials.thisRepN'
p863
I0
sg66
Vchair
p864
sg63
V../experiment_stimuli/bw_bc_bl/Nonliving_Things/Furniture/chair_14.jpg
p865
sg21
F0.26064442144706845
sS'trials.thisTrialN'
p866
I70
sa(dp867
g31
g32
sg17
F341.55547404289246
sg24
I0
sg35
g39
sg14
F341.55073379492387
sg16
g36
(g70
S'\x01\x00\x00\x00'
tRp868
sg42
g43
sg46
g47
sg15
g72
sg22
F344.24722145497799
sg64
g238
sg62
g74
sg49
g50
sS'trials.thisN'
p869
I71
sg19
I1
sg27
g36
(g38
S'\x00\x00\x00\x00\x00\x00\x1a@'
tRp870
sg52
g53
sg23
S'3'
sg18
F342.81337815150619
sg33
g34
sg51
g11
sg20
S'1'
sg65
g36
(g77
S'\x00\x00\x00\x00\x00\x00\x00\x00'
tRp871
sg44
g45
sg40
g41
sg25
F0.14057335909456015
sS'trials.thisIndex'
p872
g36
(g80
S'B\x00\x00\x00'
tRp873
sg26
V5
sS'trials.thisRepN'
p874
I0
sg66
Vpot
p875
sg63
V../experiment_stimuli/bw_bc_bl/Nonliving_Things/Kitchen_Uten/pot_7.jpg
p876
sg21
F1.4133011843077838
sS'trials.thisTrialN'
p877
I71
sa(dp878
g31
g32
sg17
F346.12545374035835
sg24
I1
sg35
g39
sg14
F346.12066447036341
sg16
g36
(g70
S'\x02\x00\x00\x00'
tRp879
sg42
g43
sg46
g47
sg15
g88
sg22
F347.51433794666082
sg64
g238
sg62
g74
sg49
g50
sS'trials.thisN'
p880
I72
sg19
I0
sg27
g36
(g38
S'\x00\x00\x00\x00\x00\x00\x1a@'
tRp881
sg52
g53
sg23
S'1'
sg18
F347.35324273910373
sg33
g34
sg51
g11
sg20
S'1'
sg65
g36
(g77
S'\x00\x00\x00\x00\x00\x00\x00\x00'
tRp882
sg44
g45
sg40
g41
sg25
F1.5235418044030666
sS'trials.thisIndex'
p883
g36
(g80
S'M\x00\x00\x00'
tRp884
sg26
V5
sS'trials.thisRepN'
p885
I0
sg66
Vsmall-saucepan
p886
sg63
V../experiment_stimuli/bw_bc_bl/Nonliving_Things/Kitchen_Uten/small-saucepan_4.jpg
p887
sg21
F0.14052760414779186
sS'trials.thisTrialN'
p888
I72
sa(dp889
g31
g32
sg17
F350.77566870581359
sg24
I1
sg35
g39
sg14
F350.77079753484577
sg16
g36
(g70
S'\x02\x00\x00\x00'
tRp890
sg42
g43
sg46
g47
sg15
g72
sg22
F353.38711231015623
sg64
g112
sg62
g113
sg49
g50
sS'trials.thisN'
p891
I73
sg19
I0
sg27
g36
(g38
S'\x00\x00\x00\x00\x00\x00\x18@'
tRp892
sg52
g53
sg23
S'1'
sg18
F352.03341927565634
sg33
g34
sg51
g11
sg20
S'1'
sg65
g36
(g77
S'\x00\x00\x00\x00\x00\x00\x00\x00'
tRp893
sg44
g45
sg40
g41
sg25
F0.29084872175008059
sS'trials.thisIndex'
p894
g36
(g80
S'T\x00\x00\x00'
tRp895
sg26
V5
sS'trials.thisRepN'
p896
I0
sg66
Vtiger
p897
sg63
V../experiment_stimuli/bw_bc_bl/Living_Things/Animals/tiger_10.jpg
p898
sg21
F1.3331257007084787
sS'trials.thisTrialN'
p899
I73
sa(dp900
g31
g32
sg17
F355.41717822477221
sg24
I0
sg35
g39
sg14
F355.41087311599404
sg16
g36
(g70
S'\x02\x00\x00\x00'
tRp901
sg42
g43
sg46
g47
sg15
g88
sg22
F358.02719674399123
sg64
g204
sg62
g74
sg49
g50
sS'trials.thisN'
p902
I74
sg19
I1
sg27
g36
(g38
S'\x00\x00\x00\x00\x00\x00\x1e@'
tRp903
sg52
g53
sg23
S'3'
sg18
F356.70357189932838
sg33
g34
sg51
g11
sg20
S'2'
sg65
g36
(g77
S'\x00\x00\x00\x00\x00\x00\x00\x00'
tRp904
sg44
g45
sg40
g41
sg25
F0.81198091991245747
sS'trials.thisIndex'
p905
g36
(g80
S'E\x00\x00\x00'
tRp906
sg26
V5
sS'trials.thisRepN'
p907
I0
sg66
Vrocking-chair
p908
sg63
V../experiment_stimuli/bw_bc_bl/Nonliving_Things/Furniture/rocking-chair_19.jpg
p909
sg21
F1.3030780972912908
sS'trials.thisTrialN'
p910
I74
sa(dp911
g31
g32
sg17
F360.57690292038023
sg24
I0
sg35
g39
sg14
F360.57208407949656
sg16
g36
(g70
S'\x01\x00\x00\x00'
tRp912
sg42
g43
sg46
g47
sg15
g72
sg22
F362.69735638285056
sg64
g238
sg62
g74
sg49
g50
sS'trials.thisN'
p913
I75
sg19
I1
sg27
g36
(g38
S'\x00\x00\x00\x00\x00\x00 @'
tRp914
sg52
g53
sg23
S'2'
sg18
F361.83472754154354
sg33
g34
sg51
g11
sg20
S'1'
sg65
g36
(g77
S'\x00\x00\x00\x00\x00\x00\x00\x00'
tRp915
sg44
g45
sg40
g41
sg25
F0.37102340813726187
sS'trials.thisIndex'
p916
g36
(g80
S'\x16\x00\x00\x00'
tRp917
sg26
V5
sS'trials.thisRepN'
p918
I0
sg66
Vcup
p919
sg63
V../experiment_stimuli/bw_bc_bl/Nonliving_Things/Kitchen_Uten/cup_6.jpg
p920
sg21
F0.84207718074321747
sS'trials.thisTrialN'
p921
I75
sa(dp922
g31
g32
sg17
F364.80747680179775
sg24
I1
sg35
g39
sg14
F364.801273830235
sg16
g36
(g70
S'\x01\x00\x00\x00'
tRp923
sg42
g43
sg46
g47
sg15
g88
sg22
F366.26510115945712
sg64
g450
sg62
g113
sg49
g50
sS'trials.thisN'
p924
I76
sg19
I0
sg27
g36
(g38
S'\x00\x00\x00\x00\x00\x00\x1a@'
tRp925
sg52
g53
sg23
S'1'
sg18
F366.05389739852399
sg33
g34
sg51
g11
sg20
S'2'
sg65
g36
(g77
S'\x00\x00\x00\x00\x00\x00\x00\x00'
tRp926
sg44
g45
sg40
g41
sg25
F0.27080408809706569
sS'trials.thisIndex'
p927
g36
(g80
S'-\x00\x00\x00'
tRp928
sg26
V5
sS'trials.thisRepN'
p929
I0
sg66
Vladybird
p930
sg63
V../experiment_stimuli/bw_bc_bl/Living_Things/Insects/ladybird_14.jpg
p931
sg21
F0.19063281873241067
sS'trials.thisTrialN'
p932
I76
sa(dp933
g31
g32
sg17
F368.27370915235952
sg24
I1
sg35
g39
sg14
F368.26883584260941
sg16
g36
(g70
S'\x01\x00\x00\x00'
tRp934
sg42
g43
sg46
g47
sg15
g72
sg22
F369.73263963824138
sg64
g100
sg62
g74
sg49
g50
sS'trials.thisN'
p935
I77
sg19
I1
sg27
g36
(g38
S'\x00\x00\x00\x00\x00\x00\x18@'
tRp936
sg52
g53
sg23
S'1'
sg18
F369.53146253060549
sg33
g34
sg51
g11
sg20
S'1'
sg65
g36
(g77
S'\x00\x00\x00\x00\x00\x00\x00\x00'
tRp937
sg44
g45
sg40
g41
sg25
F2.0546859349124134
sS'trials.thisIndex'
p938
g36
(g80
S'W\x00\x00\x00'
tRp939
sg26
V5
sS'trials.thisRepN'
p940
I0
sg66
Vtrain
p941
sg63
V../experiment_stimuli/bw_bc_bl/Nonliving_Things/Vehicles/train_8.jpg
p942
sg21
F0.18060837546363473
sS'trials.thisTrialN'
p943
I77
sa(dp944
g31
g32
sg17
F373.52515177475289
sg24
I1
sg35
g39
sg14
F373.52027060417458
sg16
g36
(g70
S'\x02\x00\x00\x00'
tRp945
sg42
g43
sg46
g47
sg15
g72
sg22
F375.12435127049685
sg64
g125
sg62
g113
sg49
g50
sS'trials.thisN'
p946
I78
sg19
I1
sg27
g36
(g38
S'\x00\x00\x00\x00\x00\x00\x1c@'
tRp947
sg52
g53
sg23
S'1'
sg18
F374.81294378638268
sg33
g34
sg51
g11
sg20
S'2'
sg65
g36
(g77
S'\x00\x00\x00\x00\x00\x00\x00\x00'
tRp948
sg44
g45
sg40
g41
sg25
F0.12048171833157539
sS'trials.thisIndex'
p949
g36
(g80
S'3\x00\x00\x00'
tRp950
sg26
V5
sS'trials.thisRepN'
p951
I0
sg66
Vmagpie
p952
sg63
V../experiment_stimuli/bw_bc_bl/Living_Things/Birds/magpie_26.jpg
p953
sg21
F0.29085901472717524
sS'trials.thisTrialN'
p954
I78
sa(dp955
g31
g32
sg17
F376.98262007441372
sg24
I0
sg35
g39
sg14
F376.9777492643334
sg16
g36
(g70
S'\x02\x00\x00\x00'
tRp956
sg42
g43
sg46
g47
sg15
g88
sg22
F379.37359709152952
sg64
g100
sg62
g74
sg49
g50
sS'trials.thisN'
p957
I79
sg19
I1
sg27
g36
(g38
S'\x00\x00\x00\x00\x00\x00\x18@'
tRp958
sg52
g53
sg23
S'3'
sg18
F378.30052939942107
sg33
g34
sg51
g11
sg20
S'2'
sg65
g36
(g77
S'\x00\x00\x00\x00\x00\x00\x00\x00'
tRp959
sg44
g45
sg40
g41
sg25
F0.17044332250952721
sS'trials.thisIndex'
p960
g36
(g80
S'[\x00\x00\x00'
tRp961
sg26
V5
sS'trials.thisRepN'
p962
I0
sg66
Vvan
p963
sg63
V../experiment_stimuli/bw_bc_bl/Nonliving_Things/Vehicles/van_2.jpg
p964
sg21
F1.0525157381780446
sS'trials.thisTrialN'
p965
I79
sa(dp966
g31
g32
sg17
F381.28338535688818
sg24
I0
sg35
g39
sg14
F381.2770903268829
sg16
g36
(g70
S'\x01\x00\x00\x00'
tRp967
sg42
g43
sg46
g47
sg15
g88
sg22
F385.32656190730631
sg64
g137
sg62
g113
sg49
g50
sS'trials.thisN'
p968
I80
sg19
I1
sg27
g36
(g38
S'\x00\x00\x00\x00\x00\x00\x1a@'
tRp969
sg52
g53
sg23
S'3'
sg18
F382.57983154896647
sg33
g34
sg51
g11
sg20
S'1'
sg65
g36
(g77
S'\x00\x00\x00\x00\x00\x00\x00\x00'
tRp970
sg44
g45
sg40
g41
sg25
F0.27081601275131106
sS'trials.thisIndex'
p971
g36
(g80
S'\x17\x00\x00\x00'
tRp972
sg26
V5
sS'trials.thisRepN'
p973
I0
sg66
Vdolphin
p974
sg63
V../experiment_stimuli/bw_bc_bl/Living_Things/Marine_creatures/dolphin_2.jpg
p975
sg21
F2.7261536456644535
sS'trials.thisTrialN'
p976
I80
sa(dp977
g31
g32
sg17
F387.33496345952153
sg24
I1
sg35
g39
sg14
F387.33025529794395
sg16
g36
(g70
S'\x01\x00\x00\x00'
tRp978
sg42
g43
sg46
g47
sg15
g72
sg22
F388.98455830477178
sg64
g204
sg62
g74
sg49
g50
sS'trials.thisN'
p979
I81
sg19
I1
sg27
g36
(g38
S'\x00\x00\x00\x00\x00\x00\x1e@'
tRp980
sg52
g53
sg23
S'1'
sg18
F388.60292379325256
sg33
g34
sg51
g11
sg20
S'1'
sg65
g36
(g77
S'\x00\x00\x00\x00\x00\x00\x00\x00'
tRp981
sg44
g45
sg40
g41
sg25
F0.41111257113516331
sS'trials.thisIndex'
p982
g36
(g80
S'\x13\x00\x00\x00'
tRp983
sg26
V5
sS'trials.thisRepN'
p984
I0
sg66
Vcouch
p985
sg63
V../experiment_stimuli/bw_bc_bl/Nonliving_Things/Furniture/couch_7.jpg
p986
sg21
F0.36105893831700087
sS'trials.thisTrialN'
p987
I81
sa(dp988
g31
g32
sg17
F391.14330660644919
sg24
I1
sg35
g39
sg14
F391.13853553216904
sg16
g36
(g70
S'\x02\x00\x00\x00'
tRp989
sg42
g43
sg46
g47
sg15
g88
sg22
F396.73133436683565
sg64
g238
sg62
g74
sg49
g50
sS'trials.thisN'
p990
I82
sg19
I0
sg27
g36
(g38
S'\x00\x00\x00\x00\x00\x00\x1a@'
tRp991
sg52
g53
sg23
S'1'
sg18
F392.42122335731983
sg33
g34
sg51
g11
sg20
S'1'
sg65
g36
(g77
S'\x00\x00\x00\x00\x00\x00\x00\x00'
tRp992
sg44
g45
sg40
g41
sg25
F0.96231364272534847
sS'trials.thisIndex'
p993
g36
(g80
S'G\x00\x00\x00'
tRp994
sg26
V5
sS'trials.thisRepN'
p995
I0
sg66
Vsaucepan
p996
sg63
V../experiment_stimuli/bw_bc_bl/Nonliving_Things/Kitchen_Uten/saucepan_7.jpg
p997
sg21
F4.2895513116382062
sS'trials.thisTrialN'
p998
I82
sa(dp999
g31
g32
sg17
F399.43152624508366
sg24
I0
sg35
g39
sg14
F399.42655510548502
sg16
g36
(g70
S'\x01\x00\x00\x00'
tRp1000
sg42
g43
sg46
g47
sg15
g72
sg22
F401.63205250818282
sg64
g250
sg62
g74
sg49
g50
sS'trials.thisN'
p1001
I83
sg19
I1
sg27
g36
(g38
S'\x00\x00\x00\x00\x00\x00\x1a@'
tRp1002
sg52
g53
sg23
S'3'
sg18
F400.74933886434883
sg33
g34
sg51
g11
sg20
S'1'
sg65
g36
(g77
S'\x00\x00\x00\x00\x00\x00\x00\x00'
tRp1003
sg44
g45
sg40
g41
sg25
F0.18065656675025821
sS'trials.thisIndex'
p1004
g36
(g80
S'H\x00\x00\x00'
tRp1005
sg26
V5
sS'trials.thisRepN'
p1006
I0
sg66
Vsaxophone
p1007
sg63
V../experiment_stimuli/bw_bc_bl/Nonliving_Things/Musical_Inst/saxophone_0.jpg
p1008
sg21
F0.86215283675119281
sS'trials.thisTrialN'
p1009
I83
sa(dp1010
g31
g32
sg17
F403.55030430294573
sg24
I0
sg35
g39
sg14
F403.54551017982885
sg16
g36
(g70
S'\x02\x00\x00\x00'
tRp1011
sg42
g43
sg46
g47
sg15
g72
sg22
F405.34007359156385
sg64
g112
sg62
g113
sg49
g50
sS'trials.thisN'
p1012
I84
sg19
I1
sg27
g36
(g38
S'\x00\x00\x00\x00\x00\x00\x1a@'
tRp1013
sg52
g53
sg23
S'3'
sg18
F404.83821868849918
sg33
g34
sg51
g11
sg20
S'2'
sg65
g36
(g77
S'\x00\x00\x00\x00\x00\x00\x00\x00'
tRp1014
sg44
g45
sg40
g41
sg25
F0.32093369262292981
sS'trials.thisIndex'
p1015
g36
(g80
S'\x01\x00\x00\x00'
tRp1016
sg26
V5
sS'trials.thisRepN'
p1017
I0
sg66
Varmadillo
p1018
sg63
V../experiment_stimuli/bw_bc_bl/Living_Things/Animals/armadillo_8.jpg
p1019
sg21
F0.48127006599679589
sS'trials.thisTrialN'
p1020
I84
sa(dp1021
g31
g32
sg17
F407.40867766924202
sg24
I1
sg35
g39
sg14
F407.40390475606546
sg16
g36
(g70
S'\x02\x00\x00\x00'
tRp1022
sg42
g43
sg46
g47
sg15
g72
sg22
F408.91785309324041
sg64
g125
sg62
g113
sg49
g50
sS'trials.thisN'
p1023
I85
sg19
I1
sg27
g36
(g38
S'\x00\x00\x00\x00\x00\x00\x18@'
tRp1024
sg52
g53
sg23
S'1'
sg18
F408.66654482344165
sg33
g34
sg51
g11
sg20
S'2'
sg65
g36
(g77
S'\x00\x00\x00\x00\x00\x00\x00\x00'
tRp1025
sg44
g45
sg40
g41
sg25
F0.12049183482304215
sS'trials.thisIndex'
p1026
g36
(g80
S'U\x00\x00\x00'
tRp1027
sg26
V5
sS'trials.thisRepN'
p1028
I0
sg66
Vtoucan
p1029
sg63
V../experiment_stimuli/bw_bc_bl/Living_Things/Birds/toucan_17.jpg
p1030
sg21
F0.2307296097278595
sS'trials.thisTrialN'
p1031
I85
sa(dp1032
g31
g32
sg17
F410.77600676007569
sg24
I0
sg35
g39
sg14
F410.7712199036032
sg16
g36
(g70
S'\x02\x00\x00\x00'
tRp1033
sg42
g43
sg46
g47
sg15
g72
sg22
F412.91651967586949
sg64
g137
sg62
g113
sg49
g50
sS'trials.thisN'
p1034
I86
sg19
I1
sg27
g36
(g38
S'\x00\x00\x00\x00\x00\x00\x18@'
tRp1035
sg52
g53
sg23
S'3'
sg18
F412.0639374232851
sg33
g34
sg51
g11
sg20
S'2'
sg65
g36
(g77
S'\x00\x00\x00\x00\x00\x00\x00\x00'
tRp1036
sg44
g45
sg40
g41
sg25
F0.23072045901790261
sS'trials.thisIndex'
p1037
g36
(g80
S'+\x00\x00\x00'
tRp1038
sg26
V5
sS'trials.thisRepN'
p1039
I0
sg66
Vkiller-whale
p1040
sg63
V../experiment_stimuli/bw_bc_bl/Living_Things/Marine_creatures/killer-whale_26.jpg
p1041
sg21
F0.83204047149047256
sS'trials.thisTrialN'
p1042
I86
sa(dp1043
g31
g32
sg17
F414.88499817578122
sg24
I1
sg35
g39
sg14
F414.88015022268519
sg16
g36
(g70
S'\x02\x00\x00\x00'
tRp1044
sg42
g43
sg46
g47
sg15
g72
sg22
F416.20351409725845
sg64
g125
sg62
g113
sg49
g50
sS'trials.thisN'
p1045
I87
sg19
I1
sg27
g36
(g38
S'\x00\x00\x00\x00\x00\x00\x1e@'
tRp1046
sg52
g53
sg23
S'1'
sg18
F416.13277709530666
sg33
g34
sg51
g11
sg20
S'2'
sg65
g36
(g77
S'\x00\x00\x00\x00\x00\x00\x00\x00'
tRp1047
sg44
g45
sg40
g41
sg25
F0.21068694163113832
sS'trials.thisIndex'
p1048
g36
(g80
S'!\x00\x00\x00'
tRp1049
sg26
V5
sS'trials.thisRepN'
p1050
I0
sg66
Vgoldfinch
p1051
sg63
V../experiment_stimuli/bw_bc_bl/Living_Things/Birds/goldfinch_18.jpg
p1052
sg21
F0.050179322715848684
sS'trials.thisTrialN'
p1053
I87
sa(dp1054
g31
g32
sg17
F418.15207808557898
sg24
I0
sg35
g39
sg14
F418.14725215081125
sg16
g36
(g70
S'\x02\x00\x00\x00'
tRp1055
sg42
g43
sg46
g47
sg15
g88
sg22
F421.01415417902172
sg64
g73
sg62
g74
sg49
g50
sS'trials.thisN'
p1056
I88
sg19
I1
sg27
g36
(g38
S'\x00\x00\x00\x00\x00\x00\x18@'
tRp1057
sg52
g53
sg23
S'2'
sg18
F419.42994221299887
sg33
g34
sg51
g11
sg20
S'2'
sg65
g36
(g77
S'\x00\x00\x00\x00\x00\x00\x00\x00'
tRp1058
sg44
g45
sg40
g41
sg25
F0.27081015147268772
sS'trials.thisIndex'
p1059
g36
(g80
S'5\x00\x00\x00'
tRp1060
sg26
V5
sS'trials.thisRepN'
p1061
I0
sg66
Vmill
p1062
sg63
V../experiment_stimuli/bw_bc_bl/Nonliving_Things/Buildings/mill_21.jpg
p1063
sg21
F1.5636323019862175
sS'trials.thisTrialN'
p1064
I88
sa(dp1065
g31
g32
sg17
F423.02285634400323
sg24
I1
sg35
g39
sg14
F423.01787133235484
sg16
g36
(g70
S'\x02\x00\x00\x00'
tRp1066
sg42
g43
sg46
g47
sg15
g72
sg22
F424.51228048652411
sg64
g112
sg62
g113
sg49
g50
sS'trials.thisN'
p1067
I89
sg19
I0
sg27
g36
(g38
S'\x00\x00\x00\x00\x00\x00\x18@'
tRp1068
sg52
g53
sg23
S'1'
sg18
F424.2905125496909
sg33
g34
sg51
g11
sg20
S'1'
sg65
g36
(g77
S'\x00\x00\x00\x00\x00\x00\x00\x00'
tRp1069
sg44
g45
sg40
g41
sg25
F0.23072081990540028
sS'trials.thisIndex'
p1070
g36
(g80
S' \x00\x00\x00'
tRp1071
sg26
V5
sS'trials.thisRepN'
p1072
I0
sg66
Vgiraffe
p1073
sg63
V../experiment_stimuli/bw_bc_bl/Living_Things/Animals/giraffe_0.jpg
p1074
sg21
F0.2006612466648221
sS'trials.thisTrialN'
p1075
I89
sa(dp1076
g31
g32
sg17
F426.48010324453935
sg24
I0
sg35
g39
sg14
F426.47536220308393
sg16
g36
(g70
S'\x02\x00\x00\x00'
tRp1077
sg42
g43
sg46
g47
sg15
g88
sg22
F428.56053508445621
sg64
g204
sg62
g74
sg49
g50
sS'trials.thisN'
p1078
I90
sg19
I1
sg27
g36
(g38
S'\x00\x00\x00\x00\x00\x00\x18@'
tRp1079
sg52
g53
sg23
S'2'
sg18
F427.77809835784137
sg33
g34
sg51
g11
sg20
S'2'
sg65
g36
(g77
S'\x00\x00\x00\x00\x00\x00\x00\x00'
tRp1080
sg44
g45
sg40
g41
sg25
F0.49129765573889017
sS'trials.thisIndex'
p1081
g36
(g80
S'N\x00\x00\x00'
tRp1082
sg26
V5
sS'trials.thisRepN'
p1083
I0
sg66
Vsofa
p1084
sg63
V../experiment_stimuli/bw_bc_bl/Nonliving_Things/Furniture/sofa_21.jpg
p1085
sg21
F0.76188922394067049
sS'trials.thisTrialN'
p1086
I90
sa(dp1087
g31
g32
sg17
F430.78963078465313
sg24
I0
sg35
g39
sg14
F430.7847338472493
sg16
g36
(g70
S'\x01\x00\x00\x00'
tRp1088
sg42
g43
sg46
g47
sg15
g88
sg22
F433.10039847251028
sg64
g125
sg62
g113
sg49
g50
sS'trials.thisN'
p1089
I91
sg19
I1
sg27
g36
(g38
S'\x00\x00\x00\x00\x00\x00\x1c@'
tRp1090
sg52
g53
sg23
S'3'
sg18
F432.07744002901018
sg33
g34
sg51
g11
sg20
S'1'
sg65
g36
(g77
S'\x00\x00\x00\x00\x00\x00\x00\x00'
tRp1091
sg44
g45
sg40
g41
sg25
F0.44118782412260771
sS'trials.thisIndex'
p1092
g36
(g80
S';\x00\x00\x00'
tRp1093
sg26
V5
sS'trials.thisRepN'
p1094
I0
sg66
Vpartridge
p1095
sg63
V../experiment_stimuli/bw_bc_bl/Living_Things/Birds/partridge_25.jpg
p1096
sg21
F1.0024045086465776
sS'trials.thisTrialN'
p1097
I91
sa(dp1098
g31
g32
sg17
F435.27938152197748
sg24
I0
sg35
g39
sg14
F435.27448842301965
sg16
g36
(g70
S'\x01\x00\x00\x00'
tRp1099
sg42
g43
sg46
g47
sg15
g88
sg22
F437.78058515582234
sg64
g112
sg62
g113
sg49
g50
sS'trials.thisN'
p1100
I92
sg19
I1
sg27
g36
(g38
S'\x00\x00\x00\x00\x00\x00\x18@'
tRp1101
sg52
g53
sg23
S'3'
sg18
F436.54715767037123
sg33
g34
sg51
g11
sg20
S'1'
sg65
g36
(g77
S'\x00\x00\x00\x00\x00\x00\x00\x00'
tRp1102
sg44
g45
sg40
g41
sg25
F0.2708217678591609
sS'trials.thisIndex'
p1103
g36
(g80
S'0\x00\x00\x00'
tRp1104
sg26
V5
sS'trials.thisRepN'
p1105
I0
sg66
Vlioness
p1106
sg63
V../experiment_stimuli/bw_bc_bl/Living_Things/Animals/lioness_11.jpg
p1107
sg21
F1.2128574345260859
sS'trials.thisTrialN'
p1108
I92
sa(dp1109
g31
g32
sg17
F439.78923394158483
sg24
I0
sg35
g39
sg14
F439.78429496707395
sg16
g36
(g70
S'\x02\x00\x00\x00'
tRp1110
sg42
g43
sg46
g47
sg15
g88
sg22
F441.84950486011803
sg64
g73
sg62
g74
sg49
g50
sS'trials.thisN'
p1111
I93
sg19
I1
sg27
g36
(g38
S'\x00\x00\x00\x00\x00\x00\x18@'
tRp1112
sg52
g53
sg23
S'2'
sg18
F441.03691876074299
sg33
g34
sg51
g11
sg20
S'2'
sg65
g36
(g77
S'\x00\x00\x00\x00\x00\x00\x00\x00'
tRp1113
sg44
g45
sg40
g41
sg25
F0.48126498004421592
sS'trials.thisIndex'
p1114
g36
(g80
S'#\x00\x00\x00'
tRp1115
sg26
V5
sS'trials.thisRepN'
p1116
I0
sg66
Vgranary
p1117
sg63
V../experiment_stimuli/bw_bc_bl/Nonliving_Things/Buildings/granary_20.jpg
p1118
sg21
F0.7920278524979949
sS'trials.thisTrialN'
p1119
I93
sa(dp1120
g31
g32
sg17
F444.0684487358667
sg24
I1
sg35
g39
sg14
F444.06363598862663
sg16
g36
(g70
S'\x02\x00\x00\x00'
tRp1121
sg42
g43
sg46
g47
sg15
g88
sg22
F446.70998178841546
sg64
g100
sg62
g74
sg49
g50
sS'trials.thisN'
p1122
I94
sg19
I1
sg27
g36
(g38
S'\x00\x00\x00\x00\x00\x00\x18@'
tRp1123
sg52
g53
sg23
S'1'
sg18
F445.30620464449748
sg33
g34
sg51
g11
sg20
S'2'
sg65
g36
(g77
S'\x00\x00\x00\x00\x00\x00\x00\x00'
tRp1124
sg44
g45
sg40
g41
sg25
F0.21072978666052222
sS'trials.thisIndex'
p1125
g36
(g80
S'\x0b\x00\x00\x00'
tRp1126
sg26
V5
sS'trials.thisRepN'
p1127
I0
sg66
Vcar
p1128
sg63
V../experiment_stimuli/bw_bc_bl/Nonliving_Things/Vehicles/car_16.jpg
p1129
sg21
F1.3832352426834404
sS'trials.thisTrialN'
p1130
I94
sa(dp1131
g31
g32
sg17
F448.65844159806147
sg24
I0
sg35
g39
sg14
F448.65360158449039
sg16
g36
(g70
S'\x02\x00\x00\x00'
tRp1132
sg42
g43
sg46
g47
sg15
g72
sg22
F450.67861077841371
sg64
g137
sg62
g113
sg49
g50
sS'trials.thisN'
p1133
I95
sg19
I1
sg27
g36
(g38
S'\x00\x00\x00\x00\x00\x00\x18@'
tRp1134
sg52
g53
sg23
S'3'
sg18
F449.91622173879296
sg33
g34
sg51
g11
sg20
S'2'
sg65
g36
(g77
S'\x00\x00\x00\x00\x00\x00\x00\x00'
tRp1135
sg44
g45
sg40
g41
sg25
F0.2808232638053596
sS'trials.thisIndex'
p1136
g36
(g80
S'P\x00\x00\x00'
tRp1137
sg26
V5
sS'trials.thisRepN'
p1138
I0
sg66
Vsperm-whale
p1139
sg63
V../experiment_stimuli/bw_bc_bl/Living_Things/Marine_creatures/sperm-whale_18.jpg
p1140
sg21
F0.74183855624869466
sS'trials.thisTrialN'
p1141
I95
sasS'loops'
p1142
(lp1143
g1
(cpsychopy.data
TrialHandler
p1144
g3
NtRp1145
(dp1146
S'origin'
p1147
NsS'thisTrial'
p1148
(lp1149
sS'_exp'
p1150
I97317136
sg10
S'trials'
p1151
sg6
I-1
sS'thisRepN'
p1152
I1
sg28
I01
sg29
g30
sS'data'
p1153
g1
(cpsychopy.data
DataHandler
p1154
c__builtin__
dict
p1155
(dp1156
g20
cnumpy.core.multiarray
_reconstruct
p1157
(cnumpy
ndarray
p1158
(I0
tS'b'
tRp1159
(I1
(I96
I1
tg37
(S'O4'
I0
I1
tRp1160
(I3
S'|'
NNNI-1
I-1
I63
tbI00
(lp1161
S'1'
aS'2'
aS'1'
aS'1'
aS'1'
aS'2'
aS'2'
aS'2'
aS'2'
aS'1'
aS'1'
aS'2'
aS'1'
aS'1'
aS'2'
aS'1'
aS'1'
aS'1'
aS'2'
aS'1'
aS'1'
aS'2'
aS'1'
aS'1'
aS'2'
aS'2'
aS'1'
aS'2'
aS'1'
aS'2'
aS'2'
aS'1'
aS'1'
aS'2'
aS'1'
aS'2'
aS'1'
aS'2'
aS'2'
aS'1'
aS'1'
aS'2'
aS'2'
aS'2'
aS'1'
aS'2'
aS'1'
aS'1'
aS'1'
aS'1'
aS'2'
aS'2'
aS'2'
aS'2'
aS'2'
aS'1'
aS'2'
aS'1'
aS'2'
aS'1'
aS'1'
aS'2'
aS'2'
aS'1'
aS'2'
aS'2'
aS'1'
aS'1'
aS'2'
aS'2'
aS'2'
aS'1'
aS'1'
aS'1'
aS'1'
aS'2'
aS'1'
aS'1'
aS'2'
aS'1'
aS'2'
aS'2'
aS'1'
aS'2'
aS'1'
aS'2'
aS'2'
aS'1'
aS'1'
aS'1'
aS'1'
aS'2'
aS'1'
aS'1'
aS'2'
aS'2'
atbsg17
cnumpy.ma.core
_mareconstruct
p1162
(cnumpy.ma.core
MaskedArray
p1163
g1158
(I0
tp1164
S'b'
tRp1165
(I1
(I96
I1
tg37
(S'f4'
I0
I1
tRp1166
(I3
S'<'
NNNI-1
I-1
I0
tbI00
S'\x1d\xa1ZCp\xc6\xc9Cx\xf1\x17Cb\xe8\xe5B\x8fSGC\x93tKC\xfdFfB\xd8\xa0,C-Y\x96C\xb5\x9c\tC\xabW%C\xc3\x08\xdeCI\x04\x02B\xa1X\xf8B`\xeb:C\x1d\x0f\xa9CY\xa35CO0o@\xac\xe7\xa6C\xe0\xaa\xc1C\x1c\x9e\x9aC^\xc7CC\xd8I\xb4CF\xa4\xbeC\x162\xa5C\xf2\r\x89C\x96+{C|\x8c\x98C\'\xf1\x9eCf\xc9\xa0CM\x87QC\\\xab\x94B\xed\x82\xd3CHq\xcfC\xb8;\x86C\x06\xe5\xdbC\xccScC&\x05_C\xb5\xec\x0eC3\xec\x9cC]\xeb\x7fC\x06\x9cUC\xcd\xb1\x8fCTc\xcdCW:\xd4B[g\xb6Ce\xb9\xa4B\xb4k\x87B\xc3\xa3\xd9C}RsC\x12\x00|B8\xc3\xbaC\xbdw\x91Cw\x13\xd1C\xc4J\xb9B\xfa"\x14B\x0f2UBH\x80\x04C\xe0]6A\x13e\xd7CX\x18!C\xf0x\x12C\xcc\xe8\x9dB\x8c\x99\x84C\xfb$+BR@\xb1B\x1a\xc7\xaaC\xbf\xf1\x00Cv\xb1\xa0Af\xb5\xb1C\x1f\xe4\x82CX\x92\xc3C<\xb7\xc7CG\xe5/C\x06t\x1cC\x1es\xe8A\xa3\xa7rA\x0f\x10\xadCt=\xd5C\xe3h\xc3AHT\xe0C\x08\x16\x8cC\x91\xb18B\xee\x1coCIc\xafCP\xb4\xcbC\x07\xb4\x93C\t#\xb8C\xd3\xe0>C\x89\xc8\xedB\xf3)\xdbB\xc6}\xbcC\xdb\xd4iC?\xee\xa2C\xd8GwC\xbb\x92\xcdB'
S'\x00\x00\x00\x00\x00\x00\x00\x00\x00\x00\x00\x00\x00\x00\x00\x00\x00\x00\x00\x00\x00\x00\x00\x00\x00\x00\x00\x00\x00\x00\x00\x00\x00\x00\x00\x00\x00\x00\x00\x00\x00\x00\x00\x00\x00\x00\x00\x00\x00\x00\x00\x00\x00\x00\x00\x00\x00\x00\x00\x00\x00\x00\x00\x00\x00\x00\x00\x00\x00\x00\x00\x00\x00\x00\x00\x00\x00\x00\x00\x00\x00\x00\x00\x00\x00\x00\x00\x00\x00\x00\x00\x00\x00\x00\x00\x00'
NtbsS'ran'
p1167
g1162
(g1163
g1158
g1164
S'b'
tRp1168
(I1
(I96
I1
tg1166
I00
S'\x00\x00\x80?\x00\x00\x80?\x00\x00\x80?\x00\x00\x80?\x00\x00\x80?\x00\x00\x80?\x00\x00\x80?\x00\x00\x80?\x00\x00\x80?\x00\x00\x80?\x00\x00\x80?\x00\x00\x80?\x00\x00\x80?\x00\x00\x80?\x00\x00\x80?\x00\x00\x80?\x00\x00\x80?\x00\x00\x80?\x00\x00\x80?\x00\x00\x80?\x00\x00\x80?\x00\x00\x80?\x00\x00\x80?\x00\x00\x80?\x00\x00\x80?\x00\x00\x80?\x00\x00\x80?\x00\x00\x80?\x00\x00\x80?\x00\x00\x80?\x00\x00\x80?\x00\x00\x80?\x00\x00\x80?\x00\x00\x80?\x00\x00\x80?\x00\x00\x80?\x00\x00\x80?\x00\x00\x80?\x00\x00\x80?\x00\x00\x80?\x00\x00\x80?\x00\x00\x80?\x00\x00\x80?\x00\x00\x80?\x00\x00\x80?\x00\x00\x80?\x00\x00\x80?\x00\x00\x80?\x00\x00\x80?\x00\x00\x80?\x00\x00\x80?\x00\x00\x80?\x00\x00\x80?\x00\x00\x80?\x00\x00\x80?\x00\x00\x80?\x00\x00\x80?\x00\x00\x80?\x00\x00\x80?\x00\x00\x80?\x00\x00\x80?\x00\x00\x80?\x00\x00\x80?\x00\x00\x80?\x00\x00\x80?\x00\x00\x80?\x00\x00\x80?\x00\x00\x80?\x00\x00\x80?\x00\x00\x80?\x00\x00\x80?\x00\x00\x80?\x00\x00\x80?\x00\x00\x80?\x00\x00\x80?\x00\x00\x80?\x00\x00\x80?\x00\x00\x80?\x00\x00\x80?\x00\x00\x80?\x00\x00\x80?\x00\x00\x80?\x00\x00\x80?\x00\x00\x80?\x00\x00\x80?\x00\x00\x80?\x00\x00\x80?\x00\x00\x80?\x00\x00\x80?\x00\x00\x80?\x00\x00\x80?\x00\x00\x80?\x00\x00\x80?\x00\x00\x80?\x00\x00\x80?\x00\x00\x80?'
S'\x00\x00\x00\x00\x00\x00\x00\x00\x00\x00\x00\x00\x00\x00\x00\x00\x00\x00\x00\x00\x00\x00\x00\x00\x00\x00\x00\x00\x00\x00\x00\x00\x00\x00\x00\x00\x00\x00\x00\x00\x00\x00\x00\x00\x00\x00\x00\x00\x00\x00\x00\x00\x00\x00\x00\x00\x00\x00\x00\x00\x00\x00\x00\x00\x00\x00\x00\x00\x00\x00\x00\x00\x00\x00\x00\x00\x00\x00\x00\x00\x00\x00\x00\x00\x00\x00\x00\x00\x00\x00\x00\x00\x00\x00\x00\x00'
Ntbsg24
g1162
(g1163
g1158
g1164
S'b'
tRp1169
(I1
(I96
I1
tg1166
I00
S'\x00\x00\x00\x00\x00\x00\x00\x00\x00\x00\x00\x00\x00\x00\x80?\x00\x00\x80?\x00\x00\x80?\x00\x00\x00\x00\x00\x00\x80?\x00\x00\x00\x00\x00\x00\x00\x00\x00\x00\x00\x00\x00\x00\x80?\x00\x00\x00\x00\x00\x00\x00\x00\x00\x00\x00\x00\x00\x00\x80?\x00\x00\x00\x00\x00\x00\x00\x00\x00\x00\x00\x00\x00\x00\x80?\x00\x00\x00\x00\x00\x00\x80?\x00\x00\x00\x00\x00\x00\x00\x00\x00\x00\x80?\x00\x00\x80?\x00\x00\x00\x00\x00\x00\x80?\x00\x00\x80?\x00\x00\x80?\x00\x00\x00\x00\x00\x00\x00\x00\x00\x00\x80?\x00\x00\x80?\x00\x00\x00\x00\x00\x00\x00\x00\x00\x00\x80?\x00\x00\x00\x00\x00\x00\x80?\x00\x00\x00\x00\x00\x00\x00\x00\x00\x00\x00\x00\x00\x00\x80?\x00\x00\x00\x00\x00\x00\x80?\x00\x00\x80?\x00\x00\x00\x00\x00\x00\x00\x00\x00\x00\x00\x00\x00\x00\x80?\x00\x00\x00\x00\x00\x00\x80?\x00\x00\x80?\x00\x00\x00\x00\x00\x00\x00\x00\x00\x00\x80?\x00\x00\x80?\x00\x00\x00\x00\x00\x00\x80?\x00\x00\x00\x00\x00\x00\x80?\x00\x00\x80?\x00\x00\x80?\x00\x00\x80?\x00\x00\x80?\x00\x00\x00\x00\x00\x00\x00\x00\x00\x00\x80?\x00\x00\x00\x00\x00\x00\x00\x00\x00\x00\x80?\x00\x00\x80?\x00\x00\x00\x00\x00\x00\x80?\x00\x00\x00\x00\x00\x00\x80?\x00\x00\x00\x00\x00\x00\x80?\x00\x00\x00\x00\x00\x00\x80?\x00\x00\x00\x00\x00\x00\x00\x00\x00\x00\x00\x00\x00\x00\x80?\x00\x00\x80?\x00\x00\x80?\x00\x00\x00\x00\x00\x00\x80?\x00\x00\x00\x00\x00\x00\x00\x00\x00\x00\x80?\x00\x00\x00\x00\x00\x00\x00\x00\x00\x00\x00\x00\x00\x00\x00\x00\x00\x00\x80?'
S'\x00\x00\x00\x00\x00\x00\x00\x00\x00\x00\x00\x00\x00\x00\x00\x00\x00\x00\x00\x00\x00\x00\x00\x00\x00\x00\x00\x00\x00\x00\x00\x00\x00\x00\x00\x00\x00\x00\x00\x00\x00\x00\x00\x00\x00\x00\x00\x00\x00\x00\x00\x00\x00\x00\x00\x00\x00\x00\x00\x00\x00\x00\x00\x00\x00\x00\x00\x00\x00\x00\x00\x00\x00\x00\x00\x00\x00\x00\x00\x00\x00\x00\x00\x00\x00\x00\x00\x00\x00\x00\x00\x00\x00\x00\x00\x00'
Ntbsg14
g1162
(g1163
g1158
g1164
S'b'
tRp1170
(I1
(I96
I1
tg1166
I00
S'\x9c\x9fZC\xd3\xc5\xc9CB\xf0\x17Cl\xe5\xe5BPRGCTsKC\xd8@fB\x9c\x9f,C\x90X\x96C{\x9b\tCoV%C%\x08\xdeC\xd4\xfe\x01B\x14V\xf8B\x1f\xea:C\x7f\x0e\xa9C\x11\xa25C\x98\xd7m@\xe6\xe6\xa6CF\xaa\xc1C\x80\x9d\x9aC\x18\xc6CC:I\xb4Cx\xa3\xbeCw1\xa5CS\r\x89C\n*{C\xb5\x8b\x98C\x8c\xf0\x9eC\x9d\xc8\xa0C\x13\x86QC\xd9\xa8\x94BJ\x82\xd3C\xa9p\xcfC\x1d;\x86Cd\xe4\xdbC\x88RcCU\x03_C=\xeb\x0eC\x95\xeb\x9cC \xea\x7fCA\x9aUC\x05\xb1\x8fC\xb7b\xcdC\xbd7\xd4B\x90f\xb6C\xe9\xb6\xa4B\'i\x87B"\xa3\xd9C2QsC\x07\xfb{B\x98\xc2\xbaC w\x91C\xd9\x12\xd1CwG\xb9Bg\x1d\x14B\x1b-UB\t\x7f\x04C\xb3I6Ard\xd7C\xa1\x16!Csw\x12CP\xe6\x9dB\xed\x98\x84C\xf4\x1f+B\xe1=\xb1B~\xc6\xaaCB\xf0\x00C\xa1\xa7\xa0A\x97\xb4\xb1C~\xe3\x82C\xbc\x91\xc3C\x99\xb6\xc7C\xfd\xe3/C\xc4r\x1cC*i\xe8A\x1d\x94rAr\x0f\xadC\xd9<\xd5C\xd1^\xc3A\xa9S\xe0Ci\x15\x8cC\xa2\xac8B\xa7\x1boC\xa9b\xafC\xb3\xb3\xcbC@\xb3\x93Ci"\xb8C\x87\xdf>C\xf7\xc5\xedB\x1f\'\xdbB\'}\xbcC\x97\xd3iC\xa5\xed\xa2C\x99FwC2\x90\xcdB'
S'\x00\x00\x00\x00\x00\x00\x00\x00\x00\x00\x00\x00\x00\x00\x00\x00\x00\x00\x00\x00\x00\x00\x00\x00\x00\x00\x00\x00\x00\x00\x00\x00\x00\x00\x00\x00\x00\x00\x00\x00\x00\x00\x00\x00\x00\x00\x00\x00\x00\x00\x00\x00\x00\x00\x00\x00\x00\x00\x00\x00\x00\x00\x00\x00\x00\x00\x00\x00\x00\x00\x00\x00\x00\x00\x00\x00\x00\x00\x00\x00\x00\x00\x00\x00\x00\x00\x00\x00\x00\x00\x00\x00\x00\x00\x00\x00'
Ntbsg16
g1157
(g1158
(I0
tS'b'
tRp1171
(I1
(I96
I1
tg1160
I00
(lp1172
g571
ag1011
ag416
ag327
ag527
ag538
ag203
ag461
ag758
ag383
ag449
ag1121
ag148
ag350
ag494
ag857
ag483
ag71
ag846
ag978
ag780
ag516
ag912
ag967
ag835
ag703
ag648
ag769
ag802
ag813
ag549
ag237
ag1066
ag1044
ag692
ag1110
ag593
ag582
ag394
ag791
ag659
ag560
ag725
ag1033
ag305
ag923
ag261
ag226
ag1099
ag626
ag215
ag945
ag736
ag1055
ag283
ag159
ag192
ag372
ag87
ag1088
ag438
ag405
ag249
ag681
ag170
ag272
ag868
ag361
ag111
ag901
ag670
ag989
ag1000
ag472
ag427
ag136
ag99
ag879
ag1077
ag124
ag1132
ag714
ag181
ag615
ag890
ag1022
ag747
ag934
ag505
ag339
ag316
ag956
ag604
ag824
ag637
ag294
atbsg15
g1157
(g1158
(I0
tS'b'
tRp1173
(I1
(I96
I1
tg1160
I00
(lp1174
g72
ag72
ag88
ag88
ag88
ag88
ag88
ag88
ag88
ag72
ag88
ag88
ag88
ag88
ag88
ag72
ag88
ag72
ag88
ag72
ag88
ag72
ag72
ag88
ag72
ag72
ag88
ag72
ag88
ag88
ag72
ag72
ag72
ag72
ag88
ag88
ag72
ag88
ag88
ag88
ag88
ag88
ag72
ag72
ag72
ag88
ag72
ag88
ag88
ag88
ag72
ag72
ag88
ag88
ag88
ag72
ag72
ag88
ag88
ag88
ag88
ag88
ag88
ag72
ag88
ag88
ag72
ag72
ag72
ag88
ag88
ag88
ag72
ag72
ag88
ag72
ag72
ag88
ag88
ag72
ag72
ag88
ag88
ag88
ag72
ag72
ag88
ag72
ag72
ag72
ag72
ag88
ag72
ag72
ag72
ag72
atbsg22
g1162
(g1163
g1158
g1164
S'b'
tRp1175
(I1
(I96
I1
tg1166
I00
S'u\x91\\C\x88\xab\xcaCL\x98\x1aCu\xd3\xe9BU\x84IC\x98\xabOC\xee\xc3sB\xfd\xf4-C\xcc\x8d\x97C)\xe5\x0cC\x87\x99*C\xe1Z\xdfC\xa3B\x0cB\xb1\xba\xfdB\x02\xdc<CC\xd0\xa9Cy\xe18C\x1aQ\x18Ak\x1d\xa8C\x06~\xc2C_\xec\x9bC\xf9|ECCY\xb5C\xcd\xa9\xc0C\x83\xfd\xa5CUj\x8aC\xb1\x87}C\'\xa2\x99C\xfc\xcb\x9fC+\xed\xa1CO\x99SC\xe9\x82\x99B\x92A\xd4C\r\x1a\xd0CI\n\x88C\xbd\xec\xdcCx\xdfgC\x03\x14aC\xfd\x9c\x10C\xc5\xf7\x9dCN\xe4\x81C;\xa1XC\xe5\x89\x90CQu\xceC$I\xd7B\xef!\xb7C\xdf\xe9\xacB\xdd\xca\x90B\xea\xe3\xdaC\xbc\\uC\x82q\x83B\xeb\x8f\xbbCS\xbe\x92C\xd0\x81\xd2Cj\x93\xc9B\x1b\xb1\x1aB1\xb8^B\xeb\xa9\x07C\x07\xe3UA\xda\x8c\xd8C/]#C[\x18\x16C\xf8\x01\xa1B|>\x85CCW1B}i\xb5B\xa5\x1f\xacC\x0b\x90\x02C6v\xb4A{\x03\xb3C\x8a\xa6\x83C\x9c]\xc6C\xe7\xd0\xc8C`t1Ce\x95\x1eC\xe9)\xf5A\x04\x96\x91A\xd6\xc1\xadC\xc0G\xd6C\xdf\x8f\xcfA\xddV\xe1C"\xaa\x8eC\x02\x84JB\xff\x80qC\x8d\xb1\xb0C|u\xccC\x02\xc2\x94C\xc7\xdd\xb8C#\xc5ACOY\xf4B\xab\xf0\xddB\xd2\xaf\xbdC0AmC5\x12\xa4C\x91\x14yC\xd0\x82\xd0B'
S'\x00\x00\x00\x00\x00\x00\x00\x00\x00\x00\x00\x00\x00\x00\x00\x00\x00\x00\x00\x00\x00\x00\x00\x00\x00\x00\x00\x00\x00\x00\x00\x00\x00\x00\x00\x00\x00\x00\x00\x00\x00\x00\x00\x00\x00\x00\x00\x00\x00\x00\x00\x00\x00\x00\x00\x00\x00\x00\x00\x00\x00\x00\x00\x00\x00\x00\x00\x00\x00\x00\x00\x00\x00\x00\x00\x00\x00\x00\x00\x00\x00\x00\x00\x00\x00\x00\x00\x00\x00\x00\x00\x00\x00\x00\x00\x00'
Ntbsg26
g1157
(g1158
(I0
tS'b'
tRp1176
(I1
(I96
I1
tg1160
I00
(lp1177
g36
(g80
S'\x06\x00\x00\x00'
tRp1178
ag36
(g80
S'\x07\x00\x00\x00'
tRp1179
ag36
(g80
S'\x06\x00\x00\x00'
tRp1180
ag36
(g80
S'\x05\x00\x00\x00'
tRp1181
ag36
(g80
S'\x04\x00\x00\x00'
tRp1182
ag36
(g80
S'\x07\x00\x00\x00'
tRp1183
ag36
(g80
S'\t\x00\x00\x00'
tRp1184
ag36
(g80
S'\x03\x00\x00\x00'
tRp1185
ag36
(g80
S'\x05\x00\x00\x00'
tRp1186
ag36
(g80
S'\x05\x00\x00\x00'
tRp1187
ag36
(g80
S'\x04\x00\x00\x00'
tRp1188
ag36
(g80
S'\x02\x00\x00\x00'
tRp1189
ag36
(g80
S'\x05\x00\x00\x00'
tRp1190
ag36
(g80
S'\x05\x00\x00\x00'
tRp1191
ag36
(g80
S'\x06\x00\x00\x00'
tRp1192
aI1
ag36
(g80
S'\x07\x00\x00\x00'
tRp1193
aS'5.0'
p1194
ag36
(g80
S'\x03\x00\x00\x00'
tRp1195
ag36
(g80
S'\x05\x00\x00\x00'
tRp1196
ag36
(g80
S'\x07\x00\x00\x00'
tRp1197
ag36
(g80
S'\x02\x00\x00\x00'
tRp1198
ag36
(g80
S'\x04\x00\x00\x00'
tRp1199
ag36
(g80
S'\x07\x00\x00\x00'
tRp1200
ag36
(g80
S'\x02\x00\x00\x00'
tRp1201
ag36
(g80
S'\x03\x00\x00\x00'
tRp1202
ag36
(g80
S'\x06\x00\x00\x00'
tRp1203
ag36
(g80
S'\x04\x00\x00\x00'
tRp1204
ag36
(g80
S'\x03\x00\x00\x00'
tRp1205
ag36
(g80
S'\x04\x00\x00\x00'
tRp1206
ag36
(g80
S'\x08\x00\x00\x00'
tRp1207
ag36
(g80
S'\x05\x00\x00\x00'
tRp1208
ag36
(g80
S'\x05\x00\x00\x00'
tRp1209
ag36
(g80
S'\x03\x00\x00\x00'
tRp1210
ag36
(g80
S'\x06\x00\x00\x00'
tRp1211
ag36
(g80
S'\x03\x00\x00\x00'
tRp1212
ag36
(g80
S'\x03\x00\x00\x00'
tRp1213
ag36
(g80
S'\x05\x00\x00\x00'
tRp1214
ag36
(g80
S'\x03\x00\x00\x00'
tRp1215
ag36
(g80
S'\x06\x00\x00\x00'
tRp1216
ag36
(g80
S'\x04\x00\x00\x00'
tRp1217
ag36
(g80
S'\x07\x00\x00\x00'
tRp1218
ag36
(g80
S'\x02\x00\x00\x00'
tRp1219
ag36
(g80
S'\x06\x00\x00\x00'
tRp1220
ag36
(g80
S'\x02\x00\x00\x00'
tRp1221
ag36
(g80
S'\x03\x00\x00\x00'
tRp1222
ag36
(g80
S'\x07\x00\x00\x00'
tRp1223
ag36
(g80
S'\x06\x00\x00\x00'
tRp1224
ag36
(g80
S'\x05\x00\x00\x00'
tRp1225
ag36
(g80
S'\x05\x00\x00\x00'
tRp1226
ag36
(g80
S'\x07\x00\x00\x00'
tRp1227
ag36
(g80
S'\x07\x00\x00\x00'
tRp1228
ag36
(g80
S'\x03\x00\x00\x00'
tRp1229
ag36
(g80
S'\x06\x00\x00\x00'
tRp1230
ag36
(g80
S'\x03\x00\x00\x00'
tRp1231
ag36
(g80
S'\x04\x00\x00\x00'
tRp1232
ag36
(g80
S'\x07\x00\x00\x00'
tRp1233
ag36
(g80
S'\x07\x00\x00\x00'
tRp1234
aS'4.0'
p1235
ag36
(g80
S'\x07\x00\x00\x00'
tRp1236
ag36
(g80
S'\x03\x00\x00\x00'
tRp1237
ag36
(g80
S'\x04\x00\x00\x00'
tRp1238
ag36
(g80
S'\x04\x00\x00\x00'
tRp1239
ag36
(g80
S'\x04\x00\x00\x00'
tRp1240
ag36
(g80
S'\x05\x00\x00\x00'
tRp1241
ag36
(g80
S'\x05\x00\x00\x00'
tRp1242
ag36
(g80
S'\x03\x00\x00\x00'
tRp1243
ag36
(g80
S'\x04\x00\x00\x00'
tRp1244
ag36
(g80
S'\x04\x00\x00\x00'
tRp1245
ag36
(g80
S'\x07\x00\x00\x00'
tRp1246
ag36
(g80
S'\x02\x00\x00\x00'
tRp1247
ag36
(g80
S'\x06\x00\x00\x00'
tRp1248
ag36
(g80
S'\t\x00\x00\x00'
tRp1249
ag36
(g80
S'\x06\x00\x00\x00'
tRp1250
ag36
(g80
S'\x05\x00\x00\x00'
tRp1251
ag36
(g80
S'\x02\x00\x00\x00'
tRp1252
ag36
(g80
S'\x05\x00\x00\x00'
tRp1253
ag36
(g80
S'\x01\x00\x00\x00'
tRp1254
ag36
(g80
S'\x08\x00\x00\x00'
tRp1255
ag36
(g80
S'\x01\x00\x00\x00'
tRp1256
ag36
(g80
S'\x04\x00\x00\x00'
tRp1257
ag36
(g80
S'\x05\x00\x00\x00'
tRp1258
ag36
(g80
S'\x08\x00\x00\x00'
tRp1259
ag36
(g80
S'\x03\x00\x00\x00'
tRp1260
ag36
(g80
S'\x04\x00\x00\x00'
tRp1261
ag36
(g80
S'\x04\x00\x00\x00'
tRp1262
ag36
(g80
S'\x06\x00\x00\x00'
tRp1263
ag36
(g80
S'\x04\x00\x00\x00'
tRp1264
ag36
(g80
S'\x05\x00\x00\x00'
tRp1265
ag36
(g80
S'\x08\x00\x00\x00'
tRp1266
ag36
(g80
S'\x03\x00\x00\x00'
tRp1267
ag36
(g80
S'\t\x00\x00\x00'
tRp1268
ag36
(g80
S'\x06\x00\x00\x00'
tRp1269
ag36
(g80
S'\x05\x00\x00\x00'
tRp1270
ag36
(g80
S'\x08\x00\x00\x00'
tRp1271
ag36
(g80
S'\x01\x00\x00\x00'
tRp1272
atbsg21
g1162
(g1163
g1158
g1164
S'b'
tRp1273
(I1
(I96
I1
tg1166
I00
S'\xcc6$?\x08i\xf6>\x9d4\xad?\xb8\xf3+?\x97\x86i?\xbc\x04:@\t\xdc\x02@"9w=\x80\xb3\x8f?kN\xff?\xfc\xa5~@\xda\r\xb1?}\xf1\xa2?\x87\x9e\xb3?nA$?0s\x85>\x80\x9b\xf7?\x00\xae\x8f@\xe8D\x92?\xb8\xdc\xb8>\xaa\xc5\xa6?-\xe3\xe1>_\x92W?My.@CP\xa4>3\t\xba?\xf5\x01\x88?\xa1dd?9\xc1\xdc>\xdbN\x80?wz@?\xc9\xfb\x90?$zM>\xd5\x88M=c-\x14@V\xc2J?\n\xc0Q@F\x9cE?\xe5\xa1\xd7>\xe5,H?\xcc~%@<c\xdb?\x19\xc3\xdc>\x9b\x00U?O\xaa\x8a>@5C>xR2@?\xceX@\xea>\x9b?\xd4y@?\x10\xe7\xb4?y\xeb\x94>$:\xa4?\x1a%\xc8?g\x01\xdc@8\xdf\xb8>\xacI\x89?\xb7\x0f\xec?\xc0\x151?\xcaN\x80?\x0cO\x80?\xcc\x19\x16@\xf3\xa7\x8a>\x9a\xe5\'<\xc4\x86\x85>\x04\xbdJ?\x0e\xe7\xb4?\t\x93\xae><\xa9\x98?C\xcb\xa6?\xa4P\x80>\x01D\x89@\x0c\xb6\\?\x85\x85\x85>6\x91W?\xf9s\xa9>\xec6\xdf?x\xe6\x0f>,\x0bC?K\xa9\x8a>"\xe9=?\xe1\x97w@\x8e\xc5H@\xa0\xb3\x8f?\xdd\xa3\xaa?bDl>\x1c\xe0O?g\xf18>jF\xcd?\xb7t\xfb?\xea\xba\xf6=\xd6\xb8\x86?\xb1\xfd\x07@\xc8\r~?\x11k\xf6>m\x01b>'
S'\x00\x00\x00\x00\x00\x00\x00\x00\x00\x00\x00\x00\x00\x00\x00\x00\x00\x00\x00\x00\x00\x00\x00\x00\x00\x00\x00\x00\x00\x00\x00\x00\x00\x00\x00\x00\x00\x00\x00\x00\x00\x00\x00\x00\x00\x00\x00\x00\x00\x00\x00\x00\x00\x00\x00\x00\x00\x00\x00\x00\x00\x00\x00\x00\x00\x00\x00\x00\x00\x00\x00\x00\x00\x00\x00\x00\x00\x00\x00\x00\x00\x00\x00\x00\x00\x00\x00\x00\x00\x00\x00\x00\x00\x00\x00\x00'
NtbsS'order'
p1274
g1162
(g1163
g1158
g1164
S'b'
tRp1275
(I1
(I96
I1
tg1166
I00
S'\x00\x000B\x00\x00\xa8B\x00\x00\xf0A\x00\x00\xb0A\x00\x00 B\x00\x00$B\x00\x000A\x00\x00\x08B\x00\x00tB\x00\x00\xd8A\x00\x00\x04B\x00\x00\xbcB\x00\x00\xc0@\x00\x00\xc0A\x00\x00\x14B\x00\x00\x8cB\x00\x00\x10B\x00\x00\x00\x00\x00\x00\x8aB\x00\x00\xa2B\x00\x00|B\x00\x00\x1cB\x00\x00\x96B\x00\x00\xa0B\x00\x00\x88B\x00\x00`B\x00\x00LB\x00\x00xB\x00\x00\x82B\x00\x00\x84B\x00\x00(B\x00\x00`A\x00\x00\xb2B\x00\x00\xaeB\x00\x00\\B\x00\x00\xbaB\x00\x008B\x00\x004B\x00\x00\xe0A\x00\x00\x80B\x00\x00PB\x00\x00,B\x00\x00hB\x00\x00\xacB\x00\x00\xa0A\x00\x00\x98B\x00\x00\x80A\x00\x00PA\x00\x00\xb8B\x00\x00DB\x00\x00@A\x00\x00\x9cB\x00\x00lB\x00\x00\xb0B\x00\x00\x90A\x00\x00\xe0@\x00\x00 A\x00\x00\xd0A\x00\x00\x80?\x00\x00\xb6B\x00\x00\x00B\x00\x00\xe8A\x00\x00pA\x00\x00XB\x00\x00\x00A\x00\x00\x88A\x00\x00\x8eB\x00\x00\xc8A\x00\x00@@\x00\x00\x94B\x00\x00TB\x00\x00\xa4B\x00\x00\xa6B\x00\x00\x0cB\x00\x00\xf8A\x00\x00\xa0@\x00\x00\x00@\x00\x00\x90B\x00\x00\xb4B\x00\x00\x80@\x00\x00\xbeB\x00\x00dB\x00\x00\x10A\x00\x00@B\x00\x00\x92B\x00\x00\xaaB\x00\x00pB\x00\x00\x9aB\x00\x00\x18B\x00\x00\xb8A\x00\x00\xa8A\x00\x00\x9eB\x00\x00<B\x00\x00\x86B\x00\x00HB\x00\x00\x98A'
S'\x00\x00\x00\x00\x00\x00\x00\x00\x00\x00\x00\x00\x00\x00\x00\x00\x00\x00\x00\x00\x00\x00\x00\x00\x00\x00\x00\x00\x00\x00\x00\x00\x00\x00\x00\x00\x00\x00\x00\x00\x00\x00\x00\x00\x00\x00\x00\x00\x00\x00\x00\x00\x00\x00\x00\x00\x00\x00\x00\x00\x00\x00\x00\x00\x00\x00\x00\x00\x00\x00\x00\x00\x00\x00\x00\x00\x00\x00\x00\x00\x00\x00\x00\x00\x00\x00\x00\x00\x00\x00\x00\x00\x00\x00\x00\x00'
Ntbsg19
g1162
(g1163
g1158
g1164
S'b'
tRp1276
(I1
(I96
I1
tg1166
I00
S'\x00\x00\x80?\x00\x00\x80?\x00\x00\x00\x00\x00\x00\x00\x00\x00\x00\x80?\x00\x00\x80?\x00\x00\x80?\x00\x00\x80?\x00\x00\x80?\x00\x00\x80?\x00\x00\x80?\x00\x00\x80?\x00\x00\x00\x00\x00\x00\x80?\x00\x00\x80?\x00\x00\x80?\x00\x00\x80?\x00\x00\x80?\x00\x00\x80?\x00\x00\x80?\x00\x00\x80?\x00\x00\x80?\x00\x00\x80?\x00\x00\x80?\x00\x00\x80?\x00\x00\x00\x00\x00\x00\x80?\x00\x00\x80?\x00\x00\x00\x00\x00\x00\x80?\x00\x00\x00\x00\x00\x00\x80?\x00\x00\x00\x00\x00\x00\x80?\x00\x00\x80?\x00\x00\x80?\x00\x00\x80?\x00\x00\x80?\x00\x00\x00\x00\x00\x00\x80?\x00\x00\x80?\x00\x00\x80?\x00\x00\x80?\x00\x00\x80?\x00\x00\x00\x00\x00\x00\x00\x00\x00\x00\x80?\x00\x00\x00\x00\x00\x00\x80?\x00\x00\x80?\x00\x00\x80?\x00\x00\x80?\x00\x00\x00\x00\x00\x00\x80?\x00\x00\x80?\x00\x00\x00\x00\x00\x00\x80?\x00\x00\x80?\x00\x00\x80?\x00\x00\x80?\x00\x00\x80?\x00\x00\x00\x00\x00\x00\x80?\x00\x00\x00\x00\x00\x00\x80?\x00\x00\x00\x00\x00\x00\x80?\x00\x00\x00\x00\x00\x00\x80?\x00\x00\x80?\x00\x00\x00\x00\x00\x00\x00\x00\x00\x00\x80?\x00\x00\x00\x00\x00\x00\x80?\x00\x00\x80?\x00\x00\x80?\x00\x00\x00\x00\x00\x00\x80?\x00\x00\x00\x00\x00\x00\x80?\x00\x00\x80?\x00\x00\x80?\x00\x00\x80?\x00\x00\x00\x00\x00\x00\x80?\x00\x00\x80?\x00\x00\x80?\x00\x00\x80?\x00\x00\x80?\x00\x00\x00\x00\x00\x00\x80?\x00\x00\x80?\x00\x00\x80?\x00\x00\x80?\x00\x00\x80?'
S'\x00\x00\x00\x00\x00\x00\x00\x00\x00\x00\x00\x00\x00\x00\x00\x00\x00\x00\x00\x00\x00\x00\x00\x00\x00\x00\x00\x00\x00\x00\x00\x00\x00\x00\x00\x00\x00\x00\x00\x00\x00\x00\x00\x00\x00\x00\x00\x00\x00\x00\x00\x00\x00\x00\x00\x00\x00\x00\x00\x00\x00\x00\x00\x00\x00\x00\x00\x00\x00\x00\x00\x00\x00\x00\x00\x00\x00\x00\x00\x00\x00\x00\x00\x00\x00\x00\x00\x00\x00\x00\x00\x00\x00\x00\x00\x00'
Ntbsg27
g1157
(g1158
(I0
tS'b'
tRp1277
(I1
(I96
I1
tg1160
I00
(lp1278
g573
ag1013
ag418
ag330
ag529
ag540
ag206
ag463
ag760
ag385
ag452
ag1123
ag150
ag352
ag496
ag859
ag485
ag76
ag848
ag980
ag782
ag518
ag914
ag969
ag837
ag705
ag650
ag771
ag804
ag815
ag551
ag240
ag1068
ag1046
ag694
ag1112
ag595
ag584
ag396
ag793
ag661
ag562
ag727
ag1035
ag307
ag925
ag263
ag228
ag1101
ag628
ag217
ag947
ag738
ag1057
ag285
ag161
ag194
ag374
ag90
ag1090
ag440
ag407
ag252
ag683
ag172
ag274
ag870
ag363
ag115
ag903
ag672
ag991
ag1002
ag474
ag429
ag139
ag102
ag881
ag1079
ag127
ag1134
ag716
ag183
ag617
ag892
ag1024
ag749
ag936
ag507
ag341
ag318
ag958
ag606
ag826
ag639
ag296
atbsg23
g1157
(g1158
(I0
tS'b'
tRp1279
(I1
(I96
I1
tg1160
I00
(lp1280
S'2'
aS'3'
aS'2'
aS'1'
aS'1'
aS'1'
aS'3'
aS'1'
aS'2'
aS'3'
aS'2'
aS'1'
aS'2'
aS'2'
aS'2'
aS'1'
aS'2'
aS'2'
aS'3'
aS'1'
aS'2'
aS'1'
aS'2'
aS'3'
aS'1'
aS'1'
aS'3'
aS'1'
aS'1'
aS'1'
aS'2'
aS'2'
aS'1'
aS'1'
aS'3'
aS'2'
aS'1'
aS'3'
aS'1'
aS'3'
aS'3'
aS'2'
aS'1'
aS'3'
aS'1'
aS'1'
aS'3'
aS'2'
aS'3'
aS'1'
aS'2'
aS'1'
aS'1'
aS'2'
aS'3'
aS'1'
aS'1'
aS'3'
aS'1'
aS'3'
aS'1'
aS'1'
aS'1'
aS'1'
aS'1'
aS'3'
aS'3'
aS'1'
aS'3'
aS'3'
aS'1'
aS'1'
aS'3'
aS'1'
aS'3'
aS'1'
aS'2'
aS'1'
aS'2'
aS'1'
aS'3'
aS'3'
aS'2'
aS'1'
aS'1'
aS'1'
aS'2'
aS'1'
aS'3'
aS'3'
aS'1'
aS'3'
aS'3'
aS'3'
aS'3'
aS'1'
atbsg18
g1162
(g1163
g1158
g1164
S'b'
tRp1281
(I1
(I96
I1
tg1166
I00
S'\xfa\xe7[CKk\xcaC\xa08\x19C\x07q\xe8B\x8b\x95HCC\xbeLC\x1d\x81kBH\xe0-Cw\xfb\x96CI\xe1\nC\xac\x99&C2\xa7\xdeC\x07\x16\x07B\xb0\xe1\xfaB~2<CD\xac\xa9C\xff\xec6C\x80\xf7\x9f@\x85\x88\xa7C-M\xc2C\xf8B\x9bC3\x04EC\xd8\xea\xb4C8J\xbfC\xcd\xd1\xa5C\xa9\xad\x89Cir|CS-\x99C\xe2\x90\x9fC;j\xa1C\x91\xd3RCt4\x97B0%\xd4C\xff\x10\xd0CL\xdf\x86C\xba\x84\xdcC4\x93dC#I`C\xe9+\x10C\r\x91\x9dC\xae\x96\x80C1\xe5VC\x13P\x90C/\x08\xceC\xf3\xb3\xd6B\xe6\x06\xb7C\xc5L\xa7B\xe4\xf9\x89B\tF\xdaC\xff\x96tCb\x93\x80B\x0fh\xbbCv\x17\x92C\x08\xb7\xd1C\xd0\xc8\xbbBX*\x19B\xdbXZB\xf8\xc9\x05Cb}JA\xea\t\xd8CMW"C\xb0\xba\x13C\xc9l\xa0B\x8b:\x85C(70B{\xc9\xb3B\x1dh\xabC~3\x02C\x8a\xc1\xaaA\x0fZ\xb2C\xd4\x83\x83C\xeb5\xc4C\xea_\xc8C[,1C\x92\xb8\x1dC\x03Z\xf2Axx\x83A7\xad\xadC\x99\xe3\xd5C ;\xcdAG\xf5\xe0CP\xb8\x8cC\x9a\xe2=BS\\pCG\x04\xb0CQU\xccCoW\x94C\x07\xc4\xb8CT%@C\xf6`\xf0Bw\xa8\xddBx&\xbdC\xf6\x1bkC\x8c\x90\xa3C\x19\x94xCG\x07\xd0B'
S'\x00\x00\x00\x00\x00\x00\x00\x00\x00\x00\x00\x00\x00\x00\x00\x00\x00\x00\x00\x00\x00\x00\x00\x00\x00\x00\x00\x00\x00\x00\x00\x00\x00\x00\x00\x00\x00\x00\x00\x00\x00\x00\x00\x00\x00\x00\x00\x00\x00\x00\x00\x00\x00\x00\x00\x00\x00\x00\x00\x00\x00\x00\x00\x00\x00\x00\x00\x00\x00\x00\x00\x00\x00\x00\x00\x00\x00\x00\x00\x00\x00\x00\x00\x00\x00\x00\x00\x00\x00\x00\x00\x00\x00\x00\x00\x00'
Ntbsg25
g1162
(g1163
g1158
g1164
S'b'
tRp1282
(I1
(I96
I1
tg1166
I00
S'\'66?lQ\xa4>\x01\xbe\xf6=\r\x85v>4xM>k\xbb\xf6=\xa7N\xa4><{M>\x8cP\x80>\xaa\xea\x94>\xd1\xeb\x94>\x8d\xc9W>\x02@l>\xe0\x94\xae>\xa8\xc8\x8f>\xc59C>\x11\x13\x9a>\xf2\xe2\x0f>\xa75\x1a>Y}\xd2>\xe1\x84\x85>j\xb4\xcd=\xc8\xf6\xbd>e\xa8\x8a>\xf5.\xb9=HF\xcd?\xc9\xd2&?\xcf@l>\xfa\x84v>\x12\x93\x8a>\xab\xa7\x8a>\xdd&\xec>\x14Bl>Q\xbeW>\xd6\xf0\x94>]h\xf6>I\x02b>\x00\xe7\x02?\xa2\xe1\xf6=\xe6\xb9W>\x01\x85\x85>\x90\x87\x85>\x81\xd9\xf6=\xfcAl>\x11{M>\xd5\xa6\x8a>\xa2\xc0\xdc>\x91zM>\'\xa9\x8a>\xeb\xf68>\x17d\x80>\x1e\xbf\xf6=\xa3\x029>\xa1\xa7\x8a>v\x85\x85>\\\x06\x18@{)\x1a>\x8d\xc8W>\x98/w=_\xe3\xe1>\x9c\x86v>`?\xe2="\xd8\xf6=<\x84v>}\xb0\xcd=\x80yM>v\xf2\x0f>ZwM>\x8c\xa1\x05>\xfb\xddO?\xcb{$>0Zv?\t\xfe8>\xbb\x83\x1c@7\x9cE?\xac\xbe\xf6=\xa1*\x1a>k\x03\xc3?^\x8b\xfb>p\xc5\xaf?\x11\xc8\x8f>hV\xa4>\xf4\xa7n?p\xbe\xa4= \xea\x94>l\xc4\xf6=1\xc2\xb8?\xf9\x7f\x03@\xa8\xa8\x8a>q\x87\x85>\xd5\xaf\x0f@\xb2\x88.>w\xbf\xf6=\xcd\xe6\x02?\xd2\xb3\xb3>\x92\xd7\xf6='
S'\x00\x00\x00\x00\x00\x00\x00\x00\x00\x00\x00\x00\x00\x00\x00\x00\x00\x00\x00\x00\x00\x00\x00\x00\x00\x00\x00\x00\x00\x00\x00\x00\x00\x00\x00\x00\x00\x00\x00\x00\x00\x00\x00\x00\x00\x00\x00\x00\x00\x00\x00\x00\x00\x00\x00\x00\x00\x00\x00\x00\x00\x00\x00\x00\x00\x00\x00\x00\x00\x00\x00\x00\x00\x00\x00\x00\x00\x00\x00\x00\x00\x00\x00\x00\x00\x00\x00\x00\x00\x00\x00\x00\x00\x00\x00\x00'
NtbstRp1283
(dp1284
S'isNumeric'
p1285
(dp1286
g23
I00
sg20
I00
sg17
I01
sg1167
I01
sg22
I01
sg24
I01
sg14
I01
sg18
I01
sg16
I00
sg19
I01
sg26
I00
sg27
I00
sg15
I00
sg21
I01
sg1274
I01
sg25
I01
ssg1151
g1145
sS'dataTypes'
p1287
(lp1288
g1167
ag1274
ag14
ag15
ag16
ag17
ag18
ag19
ag20
ag21
ag22
ag23
ag24
ag25
ag26
ag27
asS'dataShape'
p1289
(lp1290
I96
aI1
asbsS'method'
p1291
S'random'
p1292
sS'sequenceIndices'
p1293
g1157
(g1158
(I0
tS'b'
tRp1294
(I1
(I96
I1
tg80
I01
S'\x11\x00\x00\x00:\x00\x00\x00L\x00\x00\x00D\x00\x00\x00O\x00\x00\x00K\x00\x00\x00\x0c\x00\x00\x007\x00\x00\x00@\x00\x00\x00R\x00\x00\x008\x00\x00\x00\x06\x00\x00\x002\x00\x00\x00/\x00\x00\x00\x1f\x00\x00\x00>\x00\x00\x00.\x00\x00\x00A\x00\x00\x006\x00\x00\x00_\x00\x00\x00,\x00\x00\x00Z\x00\x00\x00\x03\x00\x00\x00Y\x00\x00\x00\r\x00\x00\x00C\x00\x00\x009\x00\x00\x00\t\x00\x00\x00&\x00\x00\x00=\x00\x00\x00\x02\x00\x00\x00J\x00\x00\x00<\x00\x00\x00\n\x00\x00\x00\x07\x00\x00\x00I\x00\x00\x00\x10\x00\x00\x00\x0e\x00\x00\x00X\x00\x00\x00\x15\x00\x00\x00\x04\x00\x00\x00\x05\x00\x00\x00\x1e\x00\x00\x00)\x00\x00\x00\x00\x00\x00\x00%\x00\x00\x00$\x00\x00\x00\\\x00\x00\x00S\x00\x00\x001\x00\x00\x00^\x00\x00\x00\x1a\x00\x00\x00(\x00\x00\x00F\x00\x00\x00?\x00\x00\x00"\x00\x00\x00\x19\x00\x00\x00Q\x00\x00\x00*\x00\x00\x004\x00\x00\x00V\x00\x00\x00\x08\x00\x00\x00\x1b\x00\x00\x00\x14\x00\x00\x00\'\x00\x00\x00\x1c\x00\x00\x00\x1d\x00\x00\x00]\x00\x00\x00\x18\x00\x00\x00\x12\x00\x00\x00\x0f\x00\x00\x00B\x00\x00\x00M\x00\x00\x00T\x00\x00\x00E\x00\x00\x00\x16\x00\x00\x00-\x00\x00\x00W\x00\x00\x003\x00\x00\x00[\x00\x00\x00\x17\x00\x00\x00\x13\x00\x00\x00G\x00\x00\x00H\x00\x00\x00\x01\x00\x00\x00U\x00\x00\x00+\x00\x00\x00!\x00\x00\x005\x00\x00\x00 \x00\x00\x00N\x00\x00\x00;\x00\x00\x000\x00\x00\x00#\x00\x00\x00\x0b\x00\x00\x00P\x00\x00\x00'
tbsS'finished'
p1295
I01
sS'nReps'
p1296
I1
sS'nRemaining'
p1297
I-1
sS'trialList'
p1298
(lp1299
g1
(cpsychopy.data
TrialType
p1300
g1155
(dp1301
g62
g74
sg63
g579
sg64
g204
sg65
g574
sg66
g578
stRp1302
ag1
(g1300
g1155
(dp1303
g62
g113
sg63
g1019
sg64
g112
sg65
g1014
sg66
g1018
stRp1304
ag1
(g1300
g1155
(dp1305
g62
g74
sg63
g424
sg64
g204
sg65
g419
sg66
g423
stRp1306
ag1
(g1300
g1155
(dp1307
g62
g74
sg63
g336
sg64
g328
sg65
g331
sg66
g335
stRp1308
ag1
(g1300
g1155
(dp1309
g62
g113
sg63
g535
sg64
g125
sg65
g530
sg66
g534
stRp1310
ag1
(g1300
g1155
(dp1311
g62
g74
sg63
g546
sg64
g204
sg65
g541
sg66
g545
stRp1312
ag1
(g1300
g1155
(dp1313
g62
g74
sg63
g212
sg64
g204
sg65
g207
sg66
g211
stRp1314
ag1
(g1300
g1155
(dp1315
g62
g74
sg63
g469
sg64
g100
sg65
g464
sg66
g468
stRp1316
ag1
(g1300
g1155
(dp1317
g62
g74
sg63
g766
sg64
g204
sg65
g761
sg66
g765
stRp1318
ag1
(g1300
g1155
(dp1319
g62
g74
sg63
g391
sg64
g100
sg65
g386
sg66
g390
stRp1320
ag1
(g1300
g1155
(dp1321
g62
g113
sg63
g458
sg64
g450
sg65
g453
sg66
g457
stRp1322
ag1
(g1300
g1155
(dp1323
g62
g74
sg63
g1129
sg64
g100
sg65
g1124
sg66
g1128
stRp1324
ag1
(g1300
g1155
(dp1325
g62
g74
sg63
g156
sg64
g73
sg65
g151
sg66
g155
stRp1326
ag1
(g1300
g1155
(dp1327
g62
g113
sg63
g358
sg64
g112
sg65
g353
sg66
g357
stRp1328
ag1
(g1300
g1155
(dp1329
g62
g74
sg63
g502
sg64
g73
sg65
g497
sg66
g501
stRp1330
ag1
(g1300
g1155
(dp1331
g62
g74
sg63
g865
sg64
g204
sg65
g860
sg66
g864
stRp1332
ag1
(g1300
g1155
(dp1333
g62
g113
sg63
g491
sg64
g112
sg65
g486
sg66
g490
stRp1334
ag1
(g1300
g1155
(dp1335
g62
g74
sg63
g84
sg64
g73
sg65
g78
sg66
g83
stRp1336
ag1
(g1300
g1155
(dp1337
g62
g74
sg63
g854
sg64
g238
sg65
g849
sg66
g853
stRp1338
ag1
(g1300
g1155
(dp1339
g62
g74
sg63
g986
sg64
g204
sg65
g981
sg66
g985
stRp1340
ag1
(g1300
g1155
(dp1341
g62
g113
sg63
g788
sg64
g112
sg65
g783
sg66
g787
stRp1342
ag1
(g1300
g1155
(dp1343
g62
g113
sg63
g524
sg64
g137
sg65
g519
sg66
g523
stRp1344
ag1
(g1300
g1155
(dp1345
g62
g74
sg63
g920
sg64
g238
sg65
g915
sg66
g919
stRp1346
ag1
(g1300
g1155
(dp1347
g62
g113
sg63
g975
sg64
g137
sg65
g970
sg66
g974
stRp1348
ag1
(g1300
g1155
(dp1349
g62
g113
sg63
g843
sg64
g450
sg65
g838
sg66
g842
stRp1350
ag1
(g1300
g1155
(dp1351
g62
g74
sg63
g711
sg64
g250
sg65
g706
sg66
g710
stRp1352
ag1
(g1300
g1155
(dp1353
g62
g113
sg63
g656
sg64
g125
sg65
g651
sg66
g655
stRp1354
ag1
(g1300
g1155
(dp1355
g62
g113
sg63
g777
sg64
g112
sg65
g772
sg66
g776
stRp1356
ag1
(g1300
g1155
(dp1357
g62
g74
sg63
g810
sg64
g73
sg65
g805
sg66
g809
stRp1358
ag1
(g1300
g1155
(dp1359
g62
g74
sg63
g821
sg64
g204
sg65
g816
sg66
g820
stRp1360
ag1
(g1300
g1155
(dp1361
g62
g74
sg63
g557
sg64
g238
sg65
g552
sg66
g556
stRp1362
ag1
(g1300
g1155
(dp1363
g62
g74
sg63
g246
sg64
g238
sg65
g241
sg66
g245
stRp1364
ag1
(g1300
g1155
(dp1365
g62
g113
sg63
g1074
sg64
g112
sg65
g1069
sg66
g1073
stRp1366
ag1
(g1300
g1155
(dp1367
g62
g113
sg63
g1052
sg64
g125
sg65
g1047
sg66
g1051
stRp1368
ag1
(g1300
g1155
(dp1369
g62
g113
sg63
g700
sg64
g125
sg65
g695
sg66
g699
stRp1370
ag1
(g1300
g1155
(dp1371
g62
g74
sg63
g1118
sg64
g73
sg65
g1113
sg66
g1117
stRp1372
ag1
(g1300
g1155
(dp1373
g62
g74
sg63
g601
sg64
g250
sg65
g596
sg66
g600
stRp1374
ag1
(g1300
g1155
(dp1375
g62
g74
sg63
g590
sg64
g328
sg65
g585
sg66
g589
stRp1376
ag1
(g1300
g1155
(dp1377
g62
g113
sg63
g402
sg64
g125
sg65
g397
sg66
g401
stRp1378
ag1
(g1300
g1155
(dp1379
g62
g113
sg63
g799
sg64
g112
sg65
g794
sg66
g798
stRp1380
ag1
(g1300
g1155
(dp1381
g62
g113
sg63
g667
sg64
g112
sg65
g662
sg66
g666
stRp1382
ag1
(g1300
g1155
(dp1383
g62
g74
sg63
g568
sg64
g73
sg65
g563
sg66
g567
stRp1384
ag1
(g1300
g1155
(dp1385
g62
g113
sg63
g733
sg64
g125
sg65
g728
sg66
g732
stRp1386
ag1
(g1300
g1155
(dp1387
g62
g113
sg63
g1041
sg64
g137
sg65
g1036
sg66
g1040
stRp1388
ag1
(g1300
g1155
(dp1389
g62
g113
sg63
g313
sg64
g125
sg65
g308
sg66
g312
stRp1390
ag1
(g1300
g1155
(dp1391
g62
g113
sg63
g931
sg64
g450
sg65
g926
sg66
g930
stRp1392
ag1
(g1300
g1155
(dp1393
g62
g74
sg63
g269
sg64
g204
sg65
g264
sg66
g268
stRp1394
ag1
(g1300
g1155
(dp1395
g62
g74
sg63
g234
sg64
g204
sg65
g229
sg66
g233
stRp1396
ag1
(g1300
g1155
(dp1397
g62
g113
sg63
g1107
sg64
g112
sg65
g1102
sg66
g1106
stRp1398
ag1
(g1300
g1155
(dp1399
g62
g113
sg63
g634
sg64
g137
sg65
g629
sg66
g633
stRp1400
ag1
(g1300
g1155
(dp1401
g62
g113
sg63
g223
sg64
g112
sg65
g218
sg66
g222
stRp1402
ag1
(g1300
g1155
(dp1403
g62
g113
sg63
g953
sg64
g125
sg65
g948
sg66
g952
stRp1404
ag1
(g1300
g1155
(dp1405
g62
g113
sg63
g744
sg64
g137
sg65
g739
sg66
g743
stRp1406
ag1
(g1300
g1155
(dp1407
g62
g74
sg63
g1063
sg64
g73
sg65
g1058
sg66
g1062
stRp1408
ag1
(g1300
g1155
(dp1409
g62
g74
sg63
g291
sg64
g100
sg65
g286
sg66
g290
stRp1410
ag1
(g1300
g1155
(dp1411
g62
g113
sg63
g167
sg64
g137
sg65
g162
sg66
g166
stRp1412
ag1
(g1300
g1155
(dp1413
g62
g113
sg63
g200
sg64
g125
sg65
g195
sg66
g199
stRp1414
ag1
(g1300
g1155
(dp1415
g62
g113
sg63
g380
sg64
g125
sg65
g375
sg66
g379
stRp1416
ag1
(g1300
g1155
(dp1417
g62
g74
sg63
g96
sg64
g73
sg65
g91
sg66
g95
stRp1418
ag1
(g1300
g1155
(dp1419
g62
g113
sg63
g1096
sg64
g125
sg65
g1091
sg66
g1095
stRp1420
ag1
(g1300
g1155
(dp1421
g62
g113
sg63
g446
sg64
g125
sg65
g441
sg66
g445
stRp1422
ag1
(g1300
g1155
(dp1423
g62
g113
sg63
g413
sg64
g125
sg65
g408
sg66
g412
stRp1424
ag1
(g1300
g1155
(dp1425
g62
g74
sg63
g258
sg64
g250
sg65
g253
sg66
g257
stRp1426
ag1
(g1300
g1155
(dp1427
g62
g113
sg63
g689
sg64
g125
sg65
g684
sg66
g688
stRp1428
ag1
(g1300
g1155
(dp1429
g62
g74
sg63
g178
sg64
g100
sg65
g173
sg66
g177
stRp1430
ag1
(g1300
g1155
(dp1431
g62
g113
sg63
g280
sg64
g137
sg65
g275
sg66
g279
stRp1432
ag1
(g1300
g1155
(dp1433
g62
g74
sg63
g876
sg64
g238
sg65
g871
sg66
g875
stRp1434
ag1
(g1300
g1155
(dp1435
g62
g113
sg63
g369
sg64
g125
sg65
g364
sg66
g368
stRp1436
ag1
(g1300
g1155
(dp1437
g62
g113
sg63
g121
sg64
g112
sg65
g116
sg66
g120
stRp1438
ag1
(g1300
g1155
(dp1439
g62
g74
sg63
g909
sg64
g204
sg65
g904
sg66
g908
stRp1440
ag1
(g1300
g1155
(dp1441
g62
g113
sg63
g678
sg64
g125
sg65
g673
sg66
g677
stRp1442
ag1
(g1300
g1155
(dp1443
g62
g74
sg63
g997
sg64
g238
sg65
g992
sg66
g996
stRp1444
ag1
(g1300
g1155
(dp1445
g62
g74
sg63
g1008
sg64
g250
sg65
g1003
sg66
g1007
stRp1446
ag1
(g1300
g1155
(dp1447
g62
g113
sg63
g480
sg64
g450
sg65
g475
sg66
g479
stRp1448
ag1
(g1300
g1155
(dp1449
g62
g113
sg63
g435
sg64
g125
sg65
g430
sg66
g434
stRp1450
ag1
(g1300
g1155
(dp1451
g62
g113
sg63
g145
sg64
g137
sg65
g140
sg66
g144
stRp1452
ag1
(g1300
g1155
(dp1453
g62
g74
sg63
g108
sg64
g100
sg65
g103
sg66
g107
stRp1454
ag1
(g1300
g1155
(dp1455
g62
g74
sg63
g887
sg64
g238
sg65
g882
sg66
g886
stRp1456
ag1
(g1300
g1155
(dp1457
g62
g74
sg63
g1085
sg64
g204
sg65
g1080
sg66
g1084
stRp1458
ag1
(g1300
g1155
(dp1459
g62
g113
sg63
g133
sg64
g125
sg65
g128
sg66
g132
stRp1460
ag1
(g1300
g1155
(dp1461
g62
g113
sg63
g1140
sg64
g137
sg65
g1135
sg66
g1139
stRp1462
ag1
(g1300
g1155
(dp1463
g62
g74
sg63
g722
sg64
g204
sg65
g717
sg66
g721
stRp1464
ag1
(g1300
g1155
(dp1465
g62
g113
sg63
g189
sg64
g112
sg65
g184
sg66
g188
stRp1466
ag1
(g1300
g1155
(dp1467
g62
g74
sg63
g623
sg64
g238
sg65
g618
sg66
g622
stRp1468
ag1
(g1300
g1155
(dp1469
g62
g113
sg63
g898
sg64
g112
sg65
g893
sg66
g897
stRp1470
ag1
(g1300
g1155
(dp1471
g62
g113
sg63
g1030
sg64
g125
sg65
g1025
sg66
g1029
stRp1472
ag1
(g1300
g1155
(dp1473
g62
g74
sg63
g755
sg64
g100
sg65
g750
sg66
g754
stRp1474
ag1
(g1300
g1155
(dp1475
g62
g74
sg63
g942
sg64
g100
sg65
g937
sg66
g941
stRp1476
ag1
(g1300
g1155
(dp1477
g62
g74
sg63
g513
sg64
g250
sg65
g508
sg66
g512
stRp1478
ag1
(g1300
g1155
(dp1479
g62
g74
sg63
g347
sg64
g250
sg65
g342
sg66
g346
stRp1480
ag1
(g1300
g1155
(dp1481
g62
g113
sg63
g324
sg64
g112
sg65
g319
sg66
g323
stRp1482
ag1
(g1300
g1155
(dp1483
g62
g74
sg63
g964
sg64
g100
sg65
g959
sg66
g963
stRp1484
ag1
(g1300
g1155
(dp1485
g62
g74
sg63
g612
sg64
g250
sg65
g607
sg66
g611
stRp1486
ag1
(g1300
g1155
(dp1487
g62
g74
sg63
g832
sg64
g204
sg65
g827
sg66
g831
stRp1488
ag1
(g1300
g1155
(dp1489
g62
g113
sg63
g645
sg64
g137
sg65
g640
sg66
g644
stRp1490
ag1
(g1300
g1155
(dp1491
g62
g113
sg63
g302
sg64
g112
sg65
g297
sg66
g301
stRp1492
asS'seed'
p1493
NsS'thisIndex'
p1494
g1137
sS'thisN'
p1495
I96
sS'thisTrialN'
p1496
I0
sS'nTotal'
p1497
I96
sS'_warnUseOfNext'
p1498
I01
sbasS'savePickle'
p1499
I00
sb.