ccopy_reg
_reconstructor
p1
(cpsychopy.data
ExperimentHandler
p2
c__builtin__
object
p3
NtRp4
(dp5
S'originPath'
p6
NsS'dataFileName'
p7
VC:\u005cDocuments and Settings\u005cExperimental user\u005cMy Documents\u005cconsciousness\u005cuncon_feat\u005cexperiment_scripts\u005cdata/maria_Experiment_EEG_version_2019_jun_06_1553
p8
sS'runtimeInfo'
p9
NsS'name'
p10
VExperiment_EEG_version
p11
sS'dataNames'
p12
(lp13
S'image_onset_time'
p14
aS'response_window'
p15
aS'correctAns'
p16
aS'probe_onset'
p17
aS'discrim_resptime'
p18
aS'response.corr'
p19
aS'response.keys'
p20
aS'response.rt'
p21
aS'visible_resptime'
p22
aS'visible.keys'
p23
aS'visible.corr'
p24
aS'visible.rt'
p25
aS'probeFrames'
p26
aS'jitter2'
p27
asS'autoLog'
p28
I01
sS'extraInfo'
p29
(dp30
Vn_square
p31
V32
p32
sVexperiment_color
p33
Vbw
p34
sS'frameRate'
p35
cnumpy.core.multiarray
scalar
p36
(cnumpy
dtype
p37
(S'f8'
I0
I1
tRp38
(I3
S'<'
NNNI-1
I-1
I0
tbS'f\xec3\x0e\r\xf2X@'
tRp39
sS'date'
p40
V2019_jun_06_1553
p41
sVsession
p42
V013
p43
sVimage_size
p44
V256
p45
sVpremask_dur
p46
V20
p47
sVprobeFrames
p48
V5
sVparticipant
p49
Vmaria
p50
sS'expName'
p51
g11
sVpostmask_dur
p52
V20
p53
ssS'loopsUnfinished'
p54
(lp55
sS'saveWideText'
p56
I00
sS'thisEntry'
p57
(dp58
sS'version'
p59
S''
sS'_paramNamesSoFar'
p60
(lp61
S'category'
p62
aS'probe_path'
p63
aS'subcategory'
p64
aS'fixation_duration'
p65
aS'label'
p66
asS'entries'
p67
(lp68
(dp69
g31
g32
sg17
F3.7372292964719236
sg24
I0
sg35
g39
sg14
F3.7164846239611506
sg16
g36
(g37
(S'i4'
I0
I1
tRp70
(I3
S'<'
NNNI-1
I-1
I0
tbS'\x02\x00\x00\x00'
tRp71
sg42
g43
sg46
g47
sg15
S'V_nV'
p72
sg22
F5.8520106379874051
sg64
VMusical_Inst
p73
sg62
VNonliving_Things
p74
sg49
g50
sS'trials.thisN'
p75
I0
sg19
I1
sg27
g36
(g38
S'\x00\x00\x00\x00\x00\x00\x1a@'
tRp76
sg52
g53
sg23
S'3'
sg18
F4.999165475834161
sg33
g34
sg51
g11
sg20
S'2'
sg65
g36
(g37
(S'i8'
I0
I1
tRp77
(I3
S'<'
NNNI-1
I-1
I0
tbS'\x00\x00\x00\x00\x00\x00\x00\x00'
tRp78
sg44
g45
sg40
g41
sg25
F0.090409637894481421
sS'trials.thisIndex'
p79
g36
(g37
(S'i4'
I0
I1
tRp80
(I3
S'<'
NNNI-1
I-1
I0
tbS'\\\x00\x00\x00'
tRp81
sg26
V5
sS'trials.thisRepN'
p82
I0
sg66
Vviolin
p83
sg63
V../experiment_stimuli/bw_bc_bl/Nonliving_Things/Musical_Inst/violin_24.jpg
p84
sg21
F0.82201752113178372
sS'trials.thisTrialN'
p85
I0
sa(dp86
g31
g32
sg17
F7.67989318119362
sg24
I1
sg35
g39
sg14
F7.6750696301460266
sg16
g36
(g70
S'\x01\x00\x00\x00'
tRp87
sg42
g43
sg46
g47
sg15
g72
sg22
F9.8203825266100466
sg64
VAnimals
p88
sg62
VLiving_Things
p89
sg49
g50
sS'trials.thisN'
p90
I1
sg19
I0
sg27
g36
(g38
S'\x00\x00\x00\x00\x00\x00\x18@'
tRp91
sg52
g53
sg23
S'1'
sg18
F8.9176894393749535
sg33
g34
sg51
g11
sg20
S'2'
sg65
g36
(g77
S'\x00\x00\x00\x00\x00\x00\x00\x00'
tRp92
sg44
g45
sg40
g41
sg25
F0.14053942309692502
sS'trials.thisIndex'
p93
g36
(g80
S'\r\x00\x00\x00'
tRp94
sg26
V5
sS'trials.thisRepN'
p95
I0
sg66
Vcat
p96
sg63
V../experiment_stimuli/bw_bc_bl/Living_Things/Animals/cat_1.jpg
p97
sg21
F0.88214628351852298
sS'trials.thisTrialN'
p98
I1
sa(dp99
g31
g32
sg17
F11.699210528284311
sg24
I0
sg35
g39
sg14
F11.693809158634394
sg16
g36
(g70
S'\x01\x00\x00\x00'
tRp100
sg42
g43
sg46
g47
sg15
S'nV_V'
p101
sg22
F14.340204773470759
sg64
VTools
p102
sg62
g74
sg49
g50
sS'trials.thisN'
p103
I2
sg19
I1
sg27
g36
(g38
S'\x00\x00\x00\x00\x00\x00\x1a@'
tRp104
sg52
g53
sg23
S'2'
sg18
F12.966499179601669
sg33
g34
sg51
g11
sg20
S'1'
sg65
g36
(g77
S'\x00\x00\x00\x00\x00\x00\x00\x00'
tRp105
sg44
g45
sg40
g41
sg25
F0.090413220692425966
sS'trials.thisIndex'
p106
g36
(g80
S'%\x00\x00\x00'
tRp107
sg26
V5
sS'trials.thisRepN'
p108
I0
sg66
Vhammer
p109
sg63
V../experiment_stimuli/bw_bc_bl/Nonliving_Things/Tools/hammer_13.jpg
p110
sg21
F1.3531698687002063
sS'trials.thisTrialN'
p111
I2
sa(dp112
g31
g32
sg17
F16.168402973562479
sg24
I0
sg35
g39
sg14
F16.163524833507836
sg16
g36
(g70
S'\x02\x00\x00\x00'
tRp113
sg42
g43
sg46
g47
sg15
g72
sg22
F17.978123176842928
sg64
VKitchen_Uten
p114
sg62
g74
sg49
g50
sS'trials.thisN'
p115
I3
sg19
I1
sg27
g36
(g38
S'\x00\x00\x00\x00\x00\x00\x18@'
tRp116
sg52
g53
sg23
S'3'
sg18
F17.426174002233893
sg33
g34
sg51
g11
sg20
S'2'
sg65
g36
(g77
S'\x00\x00\x00\x00\x00\x00\x00\x00'
tRp117
sg44
g45
sg40
g41
sg25
F0.17059076763689518
sS'trials.thisIndex'
p118
g36
(g80
S'\x1e\x00\x00\x00'
tRp119
sg26
V5
sS'trials.thisRepN'
p120
I0
sg66
Vfondue
p121
sg63
V../experiment_stimuli/bw_bc_bl/Nonliving_Things/Kitchen_Uten/fondue_26.jpg
p122
sg21
F0.53140170127153397
sS'trials.thisTrialN'
p123
I3
sa(dp124
g31
g32
sg17
F19.886427936609834
sg24
I0
sg35
g39
sg14
F19.881617129780352
sg16
g36
(g70
S'\x01\x00\x00\x00'
tRp125
sg42
g43
sg46
g47
sg15
g101
sg22
F21.71625408064574
sg64
VFurniture
p126
sg62
g74
sg49
g50
sS'trials.thisN'
p127
I4
sg19
I1
sg27
g36
(g38
S'\x00\x00\x00\x00\x00\x00\x1a@'
tRp128
sg52
g53
sg23
S'3'
sg18
F21.124210709705949
sg33
g34
sg51
g11
sg20
S'1'
sg65
g36
(g77
S'\x00\x00\x00\x00\x00\x00\x00\x00'
tRp129
sg44
g45
sg40
g41
sg25
F0.13049960089847445
sS'trials.thisIndex'
p130
g36
(g80
S'\x08\x00\x00\x00'
tRp131
sg26
V5
sS'trials.thisRepN'
p132
I0
sg66
Vbookcase
p133
sg63
V../experiment_stimuli/bw_bc_bl/Nonliving_Things/Furniture/bookcase_23.jpg
p134
sg21
F0.57146746991202235
sS'trials.thisTrialN'
p135
I4
sa(dp136
g31
g32
sg17
F23.584571526385844
sg24
I0
sg35
g39
sg14
F23.579687983728945
sg16
g36
(g70
S'\x01\x00\x00\x00'
tRp137
sg42
g43
sg46
g47
sg15
g72
sg22
F25.464393623638898
sg64
VBirds
p138
sg62
g89
sg49
g50
sS'trials.thisN'
p139
I5
sg19
I0
sg27
g36
(g38
S'\x00\x00\x00\x00\x00\x00\x1a@'
tRp140
sg52
g53
sg23
S'3'
sg18
F24.812226177658886
sg33
g34
sg51
g11
sg20
S'2'
sg65
g36
(g77
S'\x00\x00\x00\x00\x00\x00\x00\x00'
tRp141
sg44
g45
sg40
g41
sg25
F0.1305109541863203
sS'trials.thisIndex'
p142
g36
(g80
S',\x00\x00\x00'
tRp143
sg26
V5
sS'trials.thisRepN'
p144
I0
sg66
Vkiwi
p145
sg63
V../experiment_stimuli/bw_bc_bl/Living_Things/Birds/kiwi_7.jpg
p146
sg21
F0.6315989620052278
sS'trials.thisTrialN'
p147
I5
sa(dp148
g31
g32
sg17
F27.333173284307122
sg24
I0
sg35
g39
sg14
F27.327797331381589
sg16
g36
(g70
S'\x02\x00\x00\x00'
tRp149
sg42
g43
sg46
g47
sg15
g101
sg22
F29.433016703929752
sg64
g88
sg62
g89
sg49
g50
sS'trials.thisN'
p150
I6
sg19
I0
sg27
g36
(g38
S'\x00\x00\x00\x00\x00\x00\x1a@'
tRp151
sg52
g53
sg23
S'3'
sg18
F28.560372397303581
sg33
g34
sg51
g11
sg20
S'1'
sg65
g36
(g77
S'\x00\x00\x00\x00\x00\x00\x00\x00'
tRp152
sg44
g45
sg40
g41
sg25
F0.10044183954596519
sS'trials.thisIndex'
p153
g36
(g80
S'2\x00\x00\x00'
tRp154
sg26
V5
sS'trials.thisRepN'
p155
I0
sg66
Vlynx
p156
sg63
V../experiment_stimuli/bw_bc_bl/Living_Things/Animals/lynx_25.jpg
p157
sg21
F0.8520787782035768
sS'trials.thisTrialN'
p158
I6
sa(dp159
g31
g32
sg17
F31.271937164478004
sg24
I0
sg35
g39
sg14
F31.266352316364646
sg16
g36
(g70
S'\x01\x00\x00\x00'
tRp160
sg42
g43
sg46
g47
sg15
g101
sg22
F33.271346898749471
sg64
g126
sg62
g74
sg49
g50
sS'trials.thisN'
p161
I7
sg19
I1
sg27
g36
(g38
S'\x00\x00\x00\x00\x00\x00\x18@'
tRp162
sg52
g53
sg23
S'2'
sg18
F32.498935791663826
sg33
g34
sg51
g11
sg20
S'1'
sg65
g36
(g77
S'\x00\x00\x00\x00\x00\x00\x00\x00'
tRp163
sg44
g45
sg40
g41
sg25
F0.11046504974365234
sS'trials.thisIndex'
p164
g36
(g80
S'E\x00\x00\x00'
tRp165
sg26
V5
sS'trials.thisRepN'
p166
I0
sg66
Vrocking-chair
p167
sg63
V../experiment_stimuli/bw_bc_bl/Nonliving_Things/Furniture/rocking-chair_22.jpg
p168
sg21
F0.75186096876859665
sS'trials.thisTrialN'
p169
I7
sa(dp170
g31
g32
sg17
F35.119744167197496
sg24
I1
sg35
g39
sg14
F35.114712773356587
sg16
g36
(g70
S'\x01\x00\x00\x00'
tRp171
sg42
g43
sg46
g47
sg15
g72
sg22
F36.989437311887741
sg64
g138
sg62
g89
sg49
g50
sS'trials.thisN'
p172
I8
sg19
I0
sg27
g36
(g38
S'\x00\x00\x00\x00\x00\x00\x1a@'
tRp173
sg52
g53
sg23
S'1'
sg18
F36.347300992812961
sg33
g34
sg51
g11
sg20
S'2'
sg65
g36
(g77
S'\x00\x00\x00\x00\x00\x00\x00\x00'
tRp174
sg44
g45
sg40
g41
sg25
F0.11045273020863533
sS'trials.thisIndex'
p175
g36
(g80
S'!\x00\x00\x00'
tRp176
sg26
V5
sS'trials.thisRepN'
p177
I0
sg66
Vgoldfinch
p178
sg63
V../experiment_stimuli/bw_bc_bl/Living_Things/Birds/goldfinch_0.jpg
p179
sg21
F0.62158280098810792
sS'trials.thisTrialN'
p180
I8
sa(dp181
g31
g32
sg17
F38.837643909733742
sg24
I0
sg35
g39
sg14
F38.832814772613347
sg16
g36
(g70
S'\x02\x00\x00\x00'
tRp182
sg42
g43
sg46
g47
sg15
g101
sg22
F41.038221368100494
sg64
g138
sg62
g89
sg49
g50
sS'trials.thisN'
p183
I9
sg19
I0
sg27
g36
(g38
S'\x00\x00\x00\x00\x00\x00\x1c@'
tRp184
sg52
g53
sg23
S'2'
sg18
F40.095457546878606
sg33
g34
sg51
g11
sg20
S'1'
sg65
g36
(g77
S'\x00\x00\x00\x00\x00\x00\x00\x00'
tRp185
sg44
g45
sg40
g41
sg25
F0.11045237630605698
sS'trials.thisIndex'
p186
g36
(g80
S'*\x00\x00\x00'
tRp187
sg26
V5
sS'trials.thisRepN'
p188
I0
sg66
Vhummingbird
p189
sg63
V../experiment_stimuli/bw_bc_bl/Living_Things/Birds/hummingbird_6.jpg
p190
sg21
F0.92222867207601666
sS'trials.thisTrialN'
p191
I9
sa(dp192
g31
g32
sg17
F42.887063356116414
sg24
I0
sg35
g39
sg14
F42.881599411834031
sg16
g36
(g70
S'\x02\x00\x00\x00'
tRp193
sg42
g43
sg46
g47
sg15
g101
sg22
F45.006844287272543
sg64
VInsects
p194
sg62
g89
sg49
g50
sS'trials.thisN'
p195
I10
sg19
I0
sg27
g36
(g38
S'\x00\x00\x00\x00\x00\x00\x18@'
tRp196
sg52
g53
sg23
S'3'
sg18
F44.134223596658558
sg33
g34
sg51
g11
sg20
S'1'
sg65
g36
(g77
S'\x00\x00\x00\x00\x00\x00\x00\x00'
tRp197
sg44
g45
sg40
g41
sg25
F0.11046702321618795
sS'trials.thisIndex'
p198
g36
(g80
S'-\x00\x00\x00'
tRp199
sg26
V5
sS'trials.thisRepN'
p200
I0
sg66
Vladybird
p201
sg63
V../experiment_stimuli/bw_bc_bl/Living_Things/Insects/ladybird_19.jpg
p202
sg21
F0.8520784922875464
sS'trials.thisTrialN'
p203
I10
sa(dp204
g31
g32
sg17
F46.855136801488698
sg24
I0
sg35
g39
sg14
F46.850229270756245
sg16
g36
(g70
S'\x02\x00\x00\x00'
tRp205
sg42
g43
sg46
g47
sg15
g101
sg22
F48.895314801484346
sg64
VMarine_creatures
p206
sg62
g89
sg49
g50
sS'trials.thisN'
p207
I11
sg19
I0
sg27
g36
(g38
S'\x00\x00\x00\x00\x00\x00\x1a@'
tRp208
sg52
g53
sg23
S'2'
sg18
F48.082807565573603
sg33
g34
sg51
g11
sg20
S'1'
sg65
g36
(g77
S'\x00\x00\x00\x00\x00\x00\x00\x00'
tRp209
sg44
g45
sg40
g41
sg25
F0.090420738328248262
sS'trials.thisIndex'
p210
g36
(g80
S'4\x00\x00\x00'
tRp211
sg26
V5
sS'trials.thisRepN'
p212
I0
sg66
Vmanatee
p213
sg63
V../experiment_stimuli/bw_bc_bl/Living_Things/Marine_creatures/manatee_1.jpg
p214
sg21
F0.79195113945752382
sS'trials.thisTrialN'
p215
I11
sa(dp216
g31
g32
sg17
F50.723602763842791
sg24
I0
sg35
g39
sg14
F50.718648383859545
sg16
g36
(g70
S'\x01\x00\x00\x00'
tRp217
sg42
g43
sg46
g47
sg15
g101
sg22
F52.60335212899372
sg64
VBuildings
p218
sg62
g74
sg49
g50
sS'trials.thisN'
p219
I12
sg19
I1
sg27
g36
(g38
S'\x00\x00\x00\x00\x00\x00\x18@'
tRp220
sg52
g53
sg23
S'2'
sg18
F51.951215269509703
sg33
g34
sg51
g11
sg20
S'1'
sg65
g36
(g77
S'\x00\x00\x00\x00\x00\x00\x00\x00'
tRp221
sg44
g45
sg40
g41
sg25
F0.1004494377411902
sS'trials.thisIndex'
p222
g36
(g80
S'5\x00\x00\x00'
tRp223
sg26
V5
sS'trials.thisRepN'
p224
I0
sg66
Vmill
p225
sg63
V../experiment_stimuli/bw_bc_bl/Nonliving_Things/Buildings/mill_5.jpg
p226
sg21
F0.63159445812925696
sS'trials.thisTrialN'
p227
I12
sa(dp228
g31
g32
sg17
F54.441561212297529
sg24
I0
sg35
g39
sg14
F54.436723932623863
sg16
g36
(g70
S'\x01\x00\x00\x00'
tRp229
sg42
g43
sg46
g47
sg15
g101
sg22
F56.37155189178884
sg64
g114
sg62
g74
sg49
g50
sS'trials.thisN'
p230
I13
sg19
I1
sg27
g36
(g38
S'\x00\x00\x00\x00\x00\x00\x18@'
tRp231
sg52
g53
sg23
S'2'
sg18
F55.669299780391157
sg33
g34
sg51
g11
sg20
S'1'
sg65
g36
(g77
S'\x00\x00\x00\x00\x00\x00\x00\x00'
tRp232
sg44
g45
sg40
g41
sg25
F0.100440907292068
sS'trials.thisIndex'
p233
g36
(g80
S'\x12\x00\x00\x00'
tRp234
sg26
V5
sS'trials.thisRepN'
p235
I0
sg66
Vcoking-pot
p236
sg63
V../experiment_stimuli/bw_bc_bl/Nonliving_Things/Kitchen_Uten/coking-pot_15.jpg
p237
sg21
F0.68170750746503472
sS'trials.thisTrialN'
p238
I13
sa(dp239
g31
g32
sg17
F58.209878094028682
sg24
I1
sg35
g39
sg14
F58.204907458741218
sg16
g36
(g70
S'\x02\x00\x00\x00'
tRp240
sg42
g43
sg46
g47
sg15
g72
sg22
F60.029338194988668
sg64
g73
sg62
g74
sg49
g50
sS'trials.thisN'
p241
I14
sg19
I1
sg27
g36
(g38
S'\x00\x00\x00\x00\x00\x00\x18@'
tRp242
sg52
g53
sg23
S'1'
sg18
F59.437493159901351
sg33
g34
sg51
g11
sg20
S'2'
sg65
g36
(g77
S'\x00\x00\x00\x00\x00\x00\x00\x00'
tRp243
sg44
g45
sg40
g41
sg25
F0.070392709691077471
sS'trials.thisIndex'
p244
g36
(g80
S'X\x00\x00\x00'
tRp245
sg26
V5
sS'trials.thisRepN'
p246
I0
sg66
Vtrumpet
p247
sg63
V../experiment_stimuli/bw_bc_bl/Nonliving_Things/Musical_Inst/trumpet_13.jpg
p248
sg21
F0.57130148727446795
sS'trials.thisTrialN'
p249
I14
sa(dp250
g31
g32
sg17
F61.838392489124089
sg24
I0
sg35
g39
sg14
F61.832794532179832
sg16
g36
(g70
S'\x02\x00\x00\x00'
tRp251
sg42
g43
sg46
g47
sg15
g101
sg22
F63.857672228012234
sg64
g88
sg62
g89
sg49
g50
sS'trials.thisN'
p252
I15
sg19
I0
sg27
g36
(g38
S'\x00\x00\x00\x00\x00\x00\x18@'
tRp253
sg52
g53
sg23
S'2'
sg18
F63.075396762229502
sg33
g34
sg51
g11
sg20
S'1'
sg65
g36
(g77
S'\x00\x00\x00\x00\x00\x00\x00\x00'
tRp254
sg44
g45
sg40
g41
sg25
F0.080394284799695015
sS'trials.thisIndex'
p255
g36
(g80
S'\x14\x00\x00\x00'
tRp256
sg26
V5
sS'trials.thisRepN'
p257
I0
sg66
Vcow
p258
sg63
V../experiment_stimuli/bw_bc_bl/Living_Things/Animals/cow_8.jpg
p259
sg21
F0.76172232767567039
sS'trials.thisTrialN'
p260
I15
sa(dp261
g31
g32
sg17
F65.675933345686644
sg24
I1
sg35
g39
sg14
F65.671144621446729
sg16
g36
(g70
S'\x02\x00\x00\x00'
tRp262
sg42
g43
sg46
g47
sg15
g101
sg22
F67.726255252957344
sg64
g138
sg62
g89
sg49
g50
sS'trials.thisN'
p263
I16
sg19
I0
sg27
g36
(g38
S'\x00\x00\x00\x00\x00\x00\x18@'
tRp264
sg52
g53
sg23
S'1'
sg18
F66.903723197989166
sg33
g34
sg51
g11
sg20
S'1'
sg65
g36
(g77
S'\x00\x00\x00\x00\x00\x00\x00\x00'
tRp265
sg44
g45
sg40
g41
sg25
F0.23074377048760653
sS'trials.thisIndex'
p266
g36
(g80
S'\x04\x00\x00\x00'
tRp267
sg26
V5
sS'trials.thisRepN'
p268
I0
sg66
Vbarn-owl
p269
sg63
V../experiment_stimuli/bw_bc_bl/Living_Things/Birds/barn-owl_12.jpg
p270
sg21
F0.80198045074939728
sS'trials.thisTrialN'
p271
I16
sa(dp272
g31
g32
sg17
F69.694779083132744
sg24
I0
sg35
g39
sg14
F69.689874788746238
sg16
g36
(g70
S'\x02\x00\x00\x00'
tRp273
sg42
g43
sg46
g47
sg15
g72
sg22
F71.965467822737992
sg64
VVehicles
p274
sg62
g74
sg49
g50
sS'trials.thisN'
p275
I17
sg19
I1
sg27
g36
(g38
S'\x00\x00\x00\x00\x00\x00\x18@'
tRp276
sg52
g53
sg23
S'3'
sg18
F70.942499868106097
sg33
g34
sg51
g11
sg20
S'2'
sg65
g36
(g77
S'\x00\x00\x00\x00\x00\x00\x00\x00'
tRp277
sg44
g45
sg40
g41
sg25
F0.21067747892811894
sS'trials.thisIndex'
p278
g36
(g80
S'\x0b\x00\x00\x00'
tRp279
sg26
V5
sS'trials.thisRepN'
p280
I0
sg66
Vcar
p281
sg63
V../experiment_stimuli/bw_bc_bl/Nonliving_Things/Vehicles/car_19.jpg
p282
sg21
F1.0024064895696938
sS'trials.thisTrialN'
p283
I17
sa(dp284
g31
g32
sg17
F73.915289514698088
sg24
I1
sg35
g39
sg14
F73.909051525406539
sg16
g36
(g70
S'\x02\x00\x00\x00'
tRp285
sg42
g43
sg46
g47
sg15
g72
sg22
F75.863944795448333
sg64
g274
sg62
g74
sg49
g50
sS'trials.thisN'
p286
I18
sg19
I1
sg27
g36
(g38
S'\x00\x00\x00\x00\x00\x00\x18@'
tRp287
sg52
g53
sg23
S'1'
sg18
F75.141622985713184
sg33
g34
sg51
g11
sg20
S'2'
sg65
g36
(g77
S'\x00\x00\x00\x00\x00\x00\x00\x00'
tRp288
sg44
g45
sg40
g41
sg25
F0.11046353820711374
sS'trials.thisIndex'
p289
g36
(g80
S'@\x00\x00\x00'
tRp290
sg26
V5
sS'trials.thisRepN'
p291
I0
sg66
Vplane
p292
sg63
V../experiment_stimuli/bw_bc_bl/Nonliving_Things/Vehicles/plane_5.jpg
p293
sg21
F0.70176340080797672
sS'trials.thisTrialN'
p294
I18
sa(dp295
g31
g32
sg17
F77.712240170687437
sg24
I0
sg35
g39
sg14
F77.707301519345492
sg16
g36
(g70
S'\x02\x00\x00\x00'
tRp296
sg42
g43
sg46
g47
sg15
g101
sg22
F79.602047921624035
sg64
g138
sg62
g89
sg49
g50
sS'trials.thisN'
p297
I19
sg19
I0
sg27
g36
(g38
S'\x00\x00\x00\x00\x00\x00 @'
tRp298
sg52
g53
sg23
S'2'
sg18
F78.959928222931921
sg33
g34
sg51
g11
sg20
S'1'
sg65
g36
(g77
S'\x00\x00\x00\x00\x00\x00\x00\x00'
tRp299
sg44
g45
sg40
g41
sg25
F0.11046304181218147
sS'trials.thisIndex'
p300
g36
(g80
S'&\x00\x00\x00'
tRp301
sg26
V5
sS'trials.thisRepN'
p302
I0
sg66
Vhen
p303
sg63
V../experiment_stimuli/bw_bc_bl/Living_Things/Birds/hen_1.jpg
p304
sg21
F0.62157838372513652
sS'trials.thisTrialN'
p305
I19
sa(dp306
g31
g32
sg17
F81.450260286685079
sg24
I1
sg35
g39
sg14
F81.445432499051094
sg16
g36
(g70
S'\x01\x00\x00\x00'
tRp307
sg42
g43
sg46
g47
sg15
g72
sg22
F83.370241199620068
sg64
g206
sg62
g89
sg49
g50
sS'trials.thisN'
p308
I20
sg19
I1
sg27
g36
(g38
S'\x00\x00\x00\x00\x00\x00\x18@'
tRp309
sg52
g53
sg23
S'1'
sg18
F82.688031883444637
sg33
g34
sg51
g11
sg20
S'1'
sg65
g36
(g77
S'\x00\x00\x00\x00\x00\x00\x00\x00'
tRp310
sg44
g45
sg40
g41
sg25
F0.21067381370812654
sS'trials.thisIndex'
p311
g36
(g80
S'+\x00\x00\x00'
tRp312
sg26
V5
sS'trials.thisRepN'
p313
I0
sg66
Vkiller-whale
p314
sg63
V../experiment_stimuli/bw_bc_bl/Living_Things/Marine_creatures/killer-whale_4.jpg
p315
sg21
F0.66166758397594094
sS'trials.thisTrialN'
p316
I20
sa(dp317
g31
g32
sg17
F85.318834784906358
sg24
I1
sg35
g39
sg14
F85.313842642586678
sg16
g36
(g70
S'\x01\x00\x00\x00'
tRp318
sg42
g43
sg46
g47
sg15
g101
sg22
F87.148466984275728
sg64
g102
sg62
g74
sg49
g50
sS'trials.thisN'
p319
I21
sg19
I0
sg27
g36
(g38
S'\x00\x00\x00\x00\x00\x00 @'
tRp320
sg52
g53
sg23
S'1'
sg18
F86.586511025205255
sg33
g34
sg51
g11
sg20
S'2'
sg65
g36
(g77
S'\x00\x00\x00\x00\x00\x00\x00\x00'
tRp321
sg44
g45
sg40
g41
sg25
F0.11031105881556869
sS'trials.thisIndex'
p322
g36
(g80
S'\x03\x00\x00\x00'
tRp323
sg26
V5
sS'trials.thisRepN'
p324
I0
sg66
Vaxe
p325
sg63
V../experiment_stimuli/bw_bc_bl/Nonliving_Things/Tools/axe_19.jpg
p326
sg21
F0.54140601679682732
sS'trials.thisTrialN'
p327
I21
sa(dp328
g31
g32
sg17
F88.998174764215946
sg24
I0
sg35
g39
sg14
F88.991834554355592
sg16
g36
(g70
S'\x01\x00\x00\x00'
tRp329
sg42
g43
sg46
g47
sg15
g101
sg22
F90.866537536960095
sg64
g274
sg62
g74
sg49
g50
sS'trials.thisN'
p330
I22
sg19
I1
sg27
g36
(g38
S'\x00\x00\x00\x00\x00\x00\x1e@'
tRp331
sg52
g53
sg23
S'3'
sg18
F90.284543950576335
sg33
g34
sg51
g11
sg20
S'1'
sg65
g36
(g77
S'\x00\x00\x00\x00\x00\x00\x00\x00'
tRp332
sg44
g45
sg40
g41
sg25
F0.1104577868245542
sS'trials.thisIndex'
p333
g36
(g80
S'\t\x00\x00\x00'
tRp334
sg26
V5
sS'trials.thisRepN'
p335
I0
sg66
Vbus
p336
sg63
V../experiment_stimuli/bw_bc_bl/Nonliving_Things/Vehicles/bus_22.jpg
p337
sg21
F0.56143719237297773
sS'trials.thisTrialN'
p338
I22
sa(dp339
g31
g32
sg17
F92.716407648753375
sg24
I0
sg35
g39
sg14
F92.709928125143051
sg16
g36
(g70
S'\x02\x00\x00\x00'
tRp340
sg42
g43
sg46
g47
sg15
g101
sg22
F94.825151272118092
sg64
g138
sg62
g89
sg49
g50
sS'trials.thisN'
p341
I23
sg19
I1
sg27
g36
(g38
S'\x00\x00\x00\x00\x00\x00\x18@'
tRp342
sg52
g53
sg23
S'3'
sg18
F93.982599361333996
sg33
g34
sg51
g11
sg20
S'2'
sg65
g36
(g77
S'\x00\x00\x00\x00\x00\x00\x00\x00'
tRp343
sg44
g45
sg40
g41
sg25
F0.13052717922255397
sS'trials.thisIndex'
p344
g36
(g80
S'9\x00\x00\x00'
tRp345
sg26
V5
sS'trials.thisRepN'
p346
I0
sg66
Vowl
p347
sg63
V../experiment_stimuli/bw_bc_bl/Living_Things/Birds/owl_4.jpg
p348
sg21
F0.82201461493968964
sS'trials.thisTrialN'
p349
I23
sa(dp350
g31
g32
sg17
F96.693484018091112
sg24
I0
sg35
g39
sg14
F96.688562750816345
sg16
g36
(g70
S'\x02\x00\x00\x00'
tRp351
sg42
g43
sg46
g47
sg15
g101
sg22
F98.803809900768101
sg64
g138
sg62
g89
sg49
g50
sS'trials.thisN'
p352
I24
sg19
I1
sg27
g36
(g38
S'\x00\x00\x00\x00\x00\x00\x1c@'
tRp353
sg52
g53
sg23
S'2'
sg18
F97.94118616450578
sg33
g34
sg51
g11
sg20
S'2'
sg65
g36
(g77
S'\x00\x00\x00\x00\x00\x00\x00\x00'
tRp354
sg44
g45
sg40
g41
sg25
F0.59150443505495787
sS'trials.thisIndex'
p355
g36
(g80
S'=\x00\x00\x00'
tRp356
sg26
V5
sS'trials.thisRepN'
p357
I0
sg66
Vpenguin
p358
sg63
V../experiment_stimuli/bw_bc_bl/Living_Things/Birds/penguin_17.jpg
p359
sg21
F0.84205194795504212
sS'trials.thisTrialN'
p360
I24
sa(dp361
g31
g32
sg17
F101.13394814543426
sg24
I0
sg35
g39
sg14
F101.12821748387069
sg16
g36
(g70
S'\x02\x00\x00\x00'
tRp362
sg42
g43
sg46
g47
sg15
g72
sg22
F102.9628531341441
sg64
g114
sg62
g74
sg49
g50
sS'trials.thisN'
p363
I25
sg19
I1
sg27
g36
(g38
S'\x00\x00\x00\x00\x00\x00\x18@'
tRp364
sg52
g53
sg23
S'3'
sg18
F102.37082015769556
sg33
g34
sg51
g11
sg20
S'2'
sg65
g36
(g77
S'\x00\x00\x00\x00\x00\x00\x00\x00'
tRp365
sg44
g45
sg40
g41
sg25
F0.12049580039456487
sS'trials.thisIndex'
p366
g36
(g80
S'S\x00\x00\x00'
tRp367
sg26
V5
sS'trials.thisRepN'
p368
I0
sg66
Vteapot
p369
sg63
V../experiment_stimuli/bw_bc_bl/Nonliving_Things/Kitchen_Uten/teapot_12.jpg
p370
sg21
F0.57147105596959591
sS'trials.thisTrialN'
p371
I25
sa(dp372
g31
g32
sg17
F104.82124848058447
sg24
I1
sg35
g39
sg14
F104.81624201545492
sg16
g36
(g70
S'\x01\x00\x00\x00'
tRp373
sg42
g43
sg46
g47
sg15
g72
sg22
F106.83242829842493
sg64
g194
sg62
g89
sg49
g50
sS'trials.thisN'
p374
I26
sg19
I0
sg27
g36
(g38
S'\x00\x00\x00\x00\x00\x00\x1a@'
tRp375
sg52
g53
sg23
S'1'
sg18
F106.04881869349629
sg33
g34
sg51
g11
sg20
S'2'
sg65
g36
(g77
S'\x00\x00\x00\x00\x00\x00\x00\x00'
tRp376
sg44
g45
sg40
g41
sg25
F0.13035326451063156
sS'trials.thisIndex'
p377
g36
(g80
S'I\x00\x00\x00'
tRp378
sg26
V5
sS'trials.thisRepN'
p379
I0
sg66
Vscorpion
p380
sg63
V../experiment_stimuli/bw_bc_bl/Living_Things/Insects/scorpion_25.jpg
p381
sg21
F0.75303770368918777
sS'trials.thisTrialN'
p382
I26
sa(dp383
g31
g32
sg17
F108.70027196127921
sg24
I1
sg35
g39
sg14
F108.69466499285772
sg16
g36
(g70
S'\x01\x00\x00\x00'
tRp384
sg42
g43
sg46
g47
sg15
g101
sg22
F110.73973911395296
sg64
g126
sg62
g74
sg49
g50
sS'trials.thisN'
p385
I27
sg19
I0
sg27
g36
(g38
S'\x00\x00\x00\x00\x00\x00\x1c@'
tRp386
sg52
g53
sg23
S'1'
sg18
F109.9372660801746
sg33
g34
sg51
g11
sg20
S'2'
sg65
g36
(g77
S'\x00\x00\x00\x00\x00\x00\x00\x00'
tRp387
sg44
g45
sg40
g41
sg25
F0.12047522235661745
sS'trials.thisIndex'
p388
g36
(g80
S'.\x00\x00\x00'
tRp389
sg26
V5
sS'trials.thisRepN'
p390
I0
sg66
Vlamp
p391
sg63
V../experiment_stimuli/bw_bc_bl/Nonliving_Things/Furniture/lamp_24.jpg
p392
sg21
F0.78193462826311588
sS'trials.thisTrialN'
p393
I27
sa(dp394
g31
g32
sg17
F112.59803697001189
sg24
I1
sg35
g39
sg14
F112.59313602186739
sg16
g36
(g70
S'\x01\x00\x00\x00'
tRp395
sg42
g43
sg46
g47
sg15
g101
sg22
F114.41774894297123
sg64
g274
sg62
g74
sg49
g50
sS'trials.thisN'
p396
I28
sg19
I0
sg27
g36
(g38
S'\x00\x00\x00\x00\x00\x00\x18@'
tRp397
sg52
g53
sg23
S'1'
sg18
F113.84575786441565
sg33
g34
sg51
g11
sg20
S'2'
sg65
g36
(g77
S'\x00\x00\x00\x00\x00\x00\x00\x00'
tRp398
sg44
g45
sg40
g41
sg25
F0.10043745674192905
sS'trials.thisIndex'
p399
g36
(g80
S'6\x00\x00\x00'
tRp400
sg26
V5
sS'trials.thisRepN'
p401
I0
sg66
Vmotorbike
p402
sg63
V../experiment_stimuli/bw_bc_bl/Nonliving_Things/Vehicles/motorbike_8.jpg
p403
sg21
F0.55143230594694614
sS'trials.thisTrialN'
p404
I28
sa(dp405
g31
g32
sg17
F116.25770361442119
sg24
I0
sg35
g39
sg14
F116.25108673982322
sg16
g36
(g70
S'\x02\x00\x00\x00'
tRp406
sg42
g43
sg46
g47
sg15
g72
sg22
F118.45651316968724
sg64
g274
sg62
g74
sg49
g50
sS'trials.thisN'
p407
I29
sg19
I1
sg27
g36
(g38
S'\x00\x00\x00\x00\x00\x00\x1a@'
tRp408
sg52
g53
sg23
S'2'
sg18
F117.53377953125164
sg33
g34
sg51
g11
sg20
S'2'
sg65
g36
(g77
S'\x00\x00\x00\x00\x00\x00\x00\x00'
tRp409
sg44
g45
sg40
g41
sg25
F0.75186336319893599
sS'trials.thisIndex'
p410
g36
(g80
S'W\x00\x00\x00'
tRp411
sg26
V5
sS'trials.thisRepN'
p412
I0
sg66
Vtrain
p413
sg63
V../experiment_stimuli/bw_bc_bl/Nonliving_Things/Vehicles/train_0.jpg
p414
sg21
F0.90219127060845494
sS'trials.thisTrialN'
p415
I29
sa(dp416
g31
g32
sg17
F120.94607296213508
sg24
I0
sg35
g39
sg14
F120.94128871150315
sg16
g36
(g70
S'\x02\x00\x00\x00'
tRp417
sg42
g43
sg46
g47
sg15
g72
sg22
F122.81599560752511
sg64
g274
sg62
g74
sg49
g50
sS'trials.thisN'
p418
I30
sg19
I1
sg27
g36
(g38
S'\x00\x00\x00\x00\x00\x00\x18@'
tRp419
sg52
g53
sg23
S'3'
sg18
F122.21395097393543
sg33
g34
sg51
g11
sg20
S'2'
sg65
g36
(g77
S'\x00\x00\x00\x00\x00\x00\x00\x00'
tRp420
sg44
g45
sg40
g41
sg25
F0.17061080457642674
sS'trials.thisIndex'
p421
g36
(g80
S'\x07\x00\x00\x00'
tRp422
sg26
V5
sS'trials.thisRepN'
p423
I0
sg66
Vboat
p424
sg63
V../experiment_stimuli/bw_bc_bl/Nonliving_Things/Vehicles/boat_6.jpg
p425
sg21
F0.58149888599291444
sS'trials.thisTrialN'
p426
I30
sa(dp427
g31
g32
sg17
F124.72519967798144
sg24
I0
sg35
g39
sg14
F124.71949905296788
sg16
g36
(g70
S'\x02\x00\x00\x00'
tRp428
sg42
g43
sg46
g47
sg15
g101
sg22
F126.89486223319545
sg64
g88
sg62
g89
sg49
g50
sS'trials.thisN'
p429
I31
sg19
I0
sg27
g36
(g38
S'\x00\x00\x00\x00\x00\x00\x18@'
tRp430
sg52
g53
sg23
S'2'
sg18
F125.96210847515613
sg33
g34
sg51
g11
sg20
S'1'
sg65
g36
(g77
S'\x00\x00\x00\x00\x00\x00\x00\x00'
tRp431
sg44
g45
sg40
g41
sg25
F0.090415479615330696
sS'trials.thisIndex'
p432
g36
(g80
S'\x1b\x00\x00\x00'
tRp433
sg26
V5
sS'trials.thisRepN'
p434
I0
sg66
Velephant
p435
sg63
V../experiment_stimuli/bw_bc_bl/Living_Things/Animals/elephant_6.jpg
p436
sg21
F0.91220387211069465
sS'trials.thisTrialN'
p437
I31
sa(dp438
g31
g32
sg17
F128.72304200939834
sg24
I1
sg35
g39
sg14
F128.71820708271116
sg16
g36
(g70
S'\x01\x00\x00\x00'
tRp439
sg42
g43
sg46
g47
sg15
g72
sg22
F130.55285911960527
sg64
g194
sg62
g89
sg49
g50
sS'trials.thisN'
p440
I32
sg19
I0
sg27
g36
(g38
S'\x00\x00\x00\x00\x00\x00\x1a@'
tRp441
sg52
g53
sg23
S'1'
sg18
F129.95076776482165
sg33
g34
sg51
g11
sg20
S'2'
sg65
g36
(g77
S'\x00\x00\x00\x00\x00\x00\x00\x00'
tRp442
sg44
g45
sg40
g41
sg25
F0.1104620611295104
sS'trials.thisIndex'
p443
g36
(g80
S'\x18\x00\x00\x00'
tRp444
sg26
V5
sS'trials.thisRepN'
p445
I0
sg66
Vdragonfly
p446
sg63
V../experiment_stimuli/bw_bc_bl/Living_Things/Insects/dragonfly_19.jpg
p447
sg21
F0.58152022445574403
sS'trials.thisTrialN'
p448
I32
sa(dp449
g31
g32
sg17
F132.40109234163538
sg24
I0
sg35
g39
sg14
F132.39618193078786
sg16
g36
(g70
S'\x02\x00\x00\x00'
tRp450
sg42
g43
sg46
g47
sg15
g72
sg22
F134.51141793094575
sg64
g114
sg62
g74
sg49
g50
sS'trials.thisN'
p451
I33
sg19
I1
sg27
g36
(g38
S'\x00\x00\x00\x00\x00\x00\x1a@'
tRp452
sg52
g53
sg23
S'3'
sg18
F133.65882708504796
sg33
g34
sg51
g11
sg20
S'2'
sg65
g36
(g77
S'\x00\x00\x00\x00\x00\x00\x00\x00'
tRp453
sg44
g45
sg40
g41
sg25
F0.13050819467753172
sS'trials.thisIndex'
p454
g36
(g80
S'G\x00\x00\x00'
tRp455
sg26
V5
sS'trials.thisRepN'
p456
I0
sg66
Vsaucepan
p457
sg63
V../experiment_stimuli/bw_bc_bl/Nonliving_Things/Kitchen_Uten/saucepan_10.jpg
p458
sg21
F0.83203212916851044
sS'trials.thisTrialN'
p459
I33
sa(dp460
g31
g32
sg17
F136.37971860216931
sg24
I1
sg35
g39
sg14
F136.37483548093587
sg16
g36
(g70
S'\x01\x00\x00\x00'
tRp461
sg42
g43
sg46
g47
sg15
g72
sg22
F138.34976408770308
sg64
g138
sg62
g89
sg49
g50
sS'trials.thisN'
p462
I34
sg19
I0
sg27
g36
(g38
S'\x00\x00\x00\x00\x00\x00\x18@'
tRp463
sg52
g53
sg23
S'1'
sg18
F137.61743650818244
sg33
g34
sg51
g11
sg20
S'2'
sg65
g36
(g77
S'\x00\x00\x00\x00\x00\x00\x00\x00'
tRp464
sg44
g45
sg40
g41
sg25
F0.070374818984419107
sS'trials.thisIndex'
p465
g36
(g80
S';\x00\x00\x00'
tRp466
sg26
V5
sS'trials.thisRepN'
p467
I0
sg66
Vpartridge
p468
sg63
V../experiment_stimuli/bw_bc_bl/Living_Things/Birds/partridge_0.jpg
p469
sg21
F0.71177894901484251
sS'trials.thisTrialN'
p470
I34
sa(dp471
g31
g32
sg17
F140.1589515414089
sg24
I0
sg35
g39
sg14
F140.15304339723662
sg16
g36
(g70
S'\x01\x00\x00\x00'
tRp472
sg42
g43
sg46
g47
sg15
g72
sg22
F142.47876852937043
sg64
g138
sg62
g89
sg49
g50
sS'trials.thisN'
p473
I35
sg19
I0
sg27
g36
(g38
S'\x00\x00\x00\x00\x00\x00\x18@'
tRp474
sg52
g53
sg23
S'2'
sg18
F141.42571387765929
sg33
g34
sg51
g11
sg20
S'2'
sg65
g36
(g77
S'\x00\x00\x00\x00\x00\x00\x00\x00'
tRp475
sg44
g45
sg40
g41
sg25
F0.29085030453279614
sS'trials.thisIndex'
p476
g36
(g80
S'8\x00\x00\x00'
tRp477
sg26
V5
sS'trials.thisRepN'
p478
I0
sg66
Vostrich
p479
sg63
V../experiment_stimuli/bw_bc_bl/Living_Things/Birds/ostrich_26.jpg
p480
sg21
F1.0325035699643195
sS'trials.thisTrialN'
p481
I35
sa(dp482
g31
g32
sg17
F144.50748532824218
sg24
I0
sg35
g39
sg14
F144.50250046001747
sg16
g36
(g70
S'\x01\x00\x00\x00'
tRp483
sg42
g43
sg46
g47
sg15
g101
sg22
F146.50753001170233
sg64
g73
sg62
g74
sg49
g50
sS'trials.thisN'
p484
I36
sg19
I1
sg27
g36
(g38
S'\x00\x00\x00\x00\x00\x00\x1e@'
tRp485
sg52
g53
sg23
S'3'
sg18
F145.76514768879861
sg33
g34
sg51
g11
sg20
S'1'
sg65
g36
(g77
S'\x00\x00\x00\x00\x00\x00\x00\x00'
tRp486
sg44
g45
sg40
g41
sg25
F0.34095777152106166
sS'trials.thisIndex'
p487
g36
(g80
S'Y\x00\x00\x00'
tRp488
sg26
V5
sS'trials.thisRepN'
p489
I0
sg66
Vtuba
p490
sg63
V../experiment_stimuli/bw_bc_bl/Nonliving_Things/Musical_Inst/tuba_26.jpg
p491
sg21
F0.72179332422092557
sS'trials.thisTrialN'
p492
I36
sa(dp493
g31
g32
sg17
F148.58657748438418
sg24
I0
sg35
g39
sg14
F148.581368021667
sg16
g36
(g70
S'\x02\x00\x00\x00'
tRp494
sg42
g43
sg46
g47
sg15
g101
sg22
F150.53625634033233
sg64
g88
sg62
g89
sg49
g50
sS'trials.thisN'
p495
I37
sg19
I0
sg27
g36
(g38
S'\x00\x00\x00\x00\x00\x00\x18@'
tRp496
sg52
g53
sg23
S'2'
sg18
F149.81394794071093
sg33
g34
sg51
g11
sg20
S'1'
sg65
g36
(g77
S'\x00\x00\x00\x00\x00\x00\x00\x00'
tRp497
sg44
g45
sg40
g41
sg25
F0.14051998360082507
sS'trials.thisIndex'
p498
g36
(g80
S'R\x00\x00\x00'
tRp499
sg26
V5
sS'trials.thisRepN'
p500
I0
sg66
Vtapir
p501
sg63
V../experiment_stimuli/bw_bc_bl/Living_Things/Animals/tapir_7.jpg
p502
sg21
F0.7017551907338202
sS'trials.thisTrialN'
p503
I37
sa(dp504
g31
g32
sg17
F152.41485588299111
sg24
I0
sg35
g39
sg14
F152.40969343110919
sg16
g36
(g70
S'\x01\x00\x00\x00'
tRp505
sg42
g43
sg46
g47
sg15
g101
sg22
F154.30443282565102
sg64
g218
sg62
g74
sg49
g50
sS'trials.thisN'
p506
I38
sg19
I1
sg27
g36
(g38
S'\x00\x00\x00\x00\x00\x00\x18@'
tRp507
sg52
g53
sg23
S'2'
sg18
F153.64226941065863
sg33
g34
sg51
g11
sg20
S'1'
sg65
g36
(g77
S'\x00\x00\x00\x00\x00\x00\x00\x00'
tRp508
sg44
g45
sg40
g41
sg25
F0.16061783907935023
sS'trials.thisIndex'
p509
g36
(g80
S'\x1c\x00\x00\x00'
tRp510
sg26
V5
sS'trials.thisRepN'
p511
I0
sg66
Vfactory
p512
sg63
V../experiment_stimuli/bw_bc_bl/Nonliving_Things/Buildings/factory_11.jpg
p513
sg21
F0.64162097638472915
sS'trials.thisTrialN'
p514
I38
sa(dp515
g31
g32
sg17
F156.20371539518237
sg24
I0
sg35
g39
sg14
F156.1979298396036
sg16
g36
(g70
S'\x02\x00\x00\x00'
tRp516
sg42
g43
sg46
g47
sg15
g101
sg22
F159.67611946631223
sg64
g194
sg62
g89
sg49
g50
sS'trials.thisN'
p517
I39
sg19
I0
sg27
g36
(g38
S'\x00\x00\x00\x00\x00\x00\x18@'
tRp518
sg52
g53
sg23
S'2'
sg18
F157.43050643149763
sg33
g34
sg51
g11
sg20
S'1'
sg65
g36
(g77
S'\x00\x00\x00\x00\x00\x00\x00\x00'
tRp519
sg44
g45
sg40
g41
sg25
F0.090411919634789228
sS'trials.thisIndex'
p520
g36
(g80
S'\n\x00\x00\x00'
tRp521
sg26
V5
sS'trials.thisRepN'
p522
I0
sg66
Vbutterfly
p523
sg63
V../experiment_stimuli/bw_bc_bl/Living_Things/Insects/butterfly_25.jpg
p524
sg21
F2.2250652690418065
sS'trials.thisTrialN'
p525
I39
sa(dp526
g31
g32
sg17
F161.50532146822661
sg24
I1
sg35
g39
sg14
F161.49946287600324
sg16
g36
(g70
S'\x01\x00\x00\x00'
tRp527
sg42
g43
sg46
g47
sg15
g72
sg22
F163.7449859874323
sg64
g88
sg62
g89
sg49
g50
sS'trials.thisN'
p528
I40
sg19
I0
sg27
g36
(g38
S'\x00\x00\x00\x00\x00\x00\x18@'
tRp529
sg52
g53
sg23
S'1'
sg18
F162.7320300694555
sg33
g34
sg51
g11
sg20
S'2'
sg65
g36
(g77
S'\x00\x00\x00\x00\x00\x00\x00\x00'
tRp530
sg44
g45
sg40
g41
sg25
F0.13050377415493131
sS'trials.thisIndex'
p531
g36
(g80
S' \x00\x00\x00'
tRp532
sg26
V5
sS'trials.thisRepN'
p533
I0
sg66
Vgiraffe
p534
sg63
V../experiment_stimuli/bw_bc_bl/Living_Things/Animals/giraffe_6.jpg
p535
sg21
F0.9923878819681704
sS'trials.thisTrialN'
p536
I40
sa(dp537
g31
g32
sg17
F165.61321560340002
sg24
I0
sg35
g39
sg14
F165.60839204117656
sg16
g36
(g70
S'\x01\x00\x00\x00'
tRp538
sg42
g43
sg46
g47
sg15
g72
sg22
F167.47308013681322
sg64
g206
sg62
g89
sg49
g50
sS'trials.thisN'
p539
I41
sg19
I1
sg27
g36
(g38
S'\x00\x00\x00\x00\x00\x00\x1a@'
tRp540
sg52
g53
sg23
S'3'
sg18
F166.87103136070073
sg33
g34
sg51
g11
sg20
S'1'
sg65
g36
(g77
S'\x00\x00\x00\x00\x00\x00\x00\x00'
tRp541
sg44
g45
sg40
g41
sg25
F0.12053918745368719
sS'trials.thisIndex'
p542
g36
(g80
S'\x17\x00\x00\x00'
tRp543
sg26
V5
sS'trials.thisRepN'
p544
I0
sg66
Vdolphin
p545
sg63
V../experiment_stimuli/bw_bc_bl/Living_Things/Marine_creatures/dolphin_13.jpg
p546
sg21
F0.58150907419621944
sS'trials.thisTrialN'
p547
I41
sa(dp548
g31
g32
sg17
F169.3315371745266
sg24
I0
sg35
g39
sg14
F169.32647467963398
sg16
g36
(g70
S'\x01\x00\x00\x00'
tRp549
sg42
g43
sg46
g47
sg15
g72
sg22
F171.63211522717029
sg64
g138
sg62
g89
sg49
g50
sS'trials.thisN'
p550
I42
sg19
I0
sg27
g36
(g38
S'\x00\x00\x00\x00\x00\x00\x1e@'
tRp551
sg52
g53
sg23
S'3'
sg18
F170.569077485241
sg33
g34
sg51
g11
sg20
S'2'
sg65
g36
(g77
S'\x00\x00\x00\x00\x00\x00\x00\x00'
tRp552
sg44
g45
sg40
g41
sg25
F0.38104614801704884
sS'trials.thisIndex'
p553
g36
(g80
S'3\x00\x00\x00'
tRp554
sg26
V5
sS'trials.thisRepN'
p555
I0
sg66
Vmagpie
p556
sg63
V../experiment_stimuli/bw_bc_bl/Living_Things/Birds/magpie_9.jpg
p557
sg21
F1.0424914755858481
sS'trials.thisTrialN'
p558
I42
sa(dp559
g31
g32
sg17
F173.75198769383132
sg24
I0
sg35
g39
sg14
F173.74609326757491
sg16
g36
(g70
S'\x02\x00\x00\x00'
tRp560
sg42
g43
sg46
g47
sg15
g101
sg22
F175.85128394514322
sg64
g138
sg62
g89
sg49
g50
sS'trials.thisN'
p561
I43
sg19
I0
sg27
g36
(g38
S'\x00\x00\x00\x00\x00\x00\x1a@'
tRp562
sg52
g53
sg23
S'2'
sg18
F174.97865447634831
sg33
g34
sg51
g11
sg20
S'1'
sg65
g36
(g77
S'\x00\x00\x00\x00\x00\x00\x00\x00'
tRp563
sg44
g45
sg40
g41
sg25
F0.10045535070821643
sS'trials.thisIndex'
p564
g36
(g80
S'U\x00\x00\x00'
tRp565
sg26
V5
sS'trials.thisRepN'
p566
I0
sg66
Vtoucan
p567
sg63
V../experiment_stimuli/bw_bc_bl/Living_Things/Birds/toucan_20.jpg
p568
sg21
F0.85207668831571937
sS'trials.thisTrialN'
p569
I43
sa(dp570
g31
g32
sg17
F177.68944743135944
sg24
I1
sg35
g39
sg14
F177.68465735018253
sg16
g36
(g70
S'\x01\x00\x00\x00'
tRp571
sg42
g43
sg46
g47
sg15
g72
sg22
F179.57946424372494
sg64
g206
sg62
g89
sg49
g50
sS'trials.thisN'
p572
I44
sg19
I0
sg27
g36
(g38
S'\x00\x00\x00\x00\x00\x00\x1a@'
tRp573
sg52
g53
sg23
S'1'
sg18
F178.91721291979775
sg33
g34
sg51
g11
sg20
S'2'
sg65
g36
(g77
S'\x00\x00\x00\x00\x00\x00\x00\x00'
tRp574
sg44
g45
sg40
g41
sg25
F0.11046139523386955
sS'trials.thisIndex'
p575
g36
(g80
S'^\x00\x00\x00'
tRp576
sg26
V5
sS'trials.thisRepN'
p577
I0
sg66
Vwhale
p578
sg63
V../experiment_stimuli/bw_bc_bl/Living_Things/Marine_creatures/whale_1.jpg
p579
sg21
F0.6416320176795125
sS'trials.thisTrialN'
p580
I44
sa(dp581
g31
g32
sg17
F181.42770664580166
sg24
I0
sg35
g39
sg14
F181.42275728099048
sg16
g36
(g70
S'\x01\x00\x00\x00'
tRp582
sg42
g43
sg46
g47
sg15
g101
sg22
F183.30734984716401
sg64
g126
sg62
g74
sg49
g50
sS'trials.thisN'
p583
I45
sg19
I1
sg27
g36
(g38
S'\x00\x00\x00\x00\x00\x00\x18@'
tRp584
sg52
g53
sg23
S'3'
sg18
F182.67538493545726
sg33
g34
sg51
g11
sg20
S'1'
sg65
g36
(g77
S'\x00\x00\x00\x00\x00\x00\x00\x00'
tRp585
sg44
g45
sg40
g41
sg25
F0.12048439122736454
sS'trials.thisIndex'
p586
g36
(g80
S'/\x00\x00\x00'
tRp587
sg26
V5
sS'trials.thisRepN'
p588
I0
sg66
Vlectern
p589
sg63
V../experiment_stimuli/bw_bc_bl/Nonliving_Things/Furniture/lectern_3.jpg
p590
sg21
F0.60136981215327978
sS'trials.thisTrialN'
p591
I45
sa(dp592
g31
g32
sg17
F185.16686605010182
sg24
I1
sg35
g39
sg14
F185.16088449722156
sg16
g36
(g70
S'\x02\x00\x00\x00'
tRp593
sg42
g43
sg46
g47
sg15
g101
sg22
F187.34626380447298
sg64
g138
sg62
g89
sg49
g50
sS'trials.thisN'
p594
I46
sg19
I1
sg27
g36
(g38
S'\x00\x00\x00\x00\x00\x00\x1a@'
tRp595
sg52
g53
sg23
S'1'
sg18
F186.39346632221714
sg33
g34
sg51
g11
sg20
S'2'
sg65
g36
(g77
S'\x00\x00\x00\x00\x00\x00\x00\x00'
tRp596
sg44
g45
sg40
g41
sg25
F0.060377454850822687
sS'trials.thisIndex'
p597
g36
(g80
S'J\x00\x00\x00'
tRp598
sg26
V5
sS'trials.thisRepN'
p599
I0
sg66
Vseagull
p600
sg63
V../experiment_stimuli/bw_bc_bl/Living_Things/Birds/seagull_14.jpg
p601
sg21
F0.93225627997890115
sS'trials.thisTrialN'
p602
I46
sa(dp603
g31
g32
sg17
F189.14445967134088
sg24
I0
sg35
g39
sg14
F189.13953558821231
sg16
g36
(g70
S'\x01\x00\x00\x00'
tRp604
sg42
g43
sg46
g47
sg15
g72
sg22
F191.0343169523403
sg64
g88
sg62
g89
sg49
g50
sS'trials.thisN'
p605
I47
sg19
I1
sg27
g36
(g38
S'\x00\x00\x00\x00\x00\x00\x18@'
tRp606
sg52
g53
sg23
S'3'
sg18
F190.39215820515528
sg33
g34
sg51
g11
sg20
S'1'
sg65
g36
(g77
S'\x00\x00\x00\x00\x00\x00\x00\x00'
tRp607
sg44
g45
sg40
g41
sg25
F0.12048383476212621
sS'trials.thisIndex'
p608
g36
(g80
S'(\x00\x00\x00'
tRp609
sg26
V5
sS'trials.thisRepN'
p610
I0
sg66
Vhorse
p611
sg63
V../experiment_stimuli/bw_bc_bl/Living_Things/Animals/horse_11.jpg
p612
sg21
F0.62159010535106063
sS'trials.thisTrialN'
p613
I47
sa(dp614
g31
g32
sg17
F192.89251273032278
sg24
I0
sg35
g39
sg14
F192.88770649535581
sg16
g36
(g70
S'\x01\x00\x00\x00'
tRp615
sg42
g43
sg46
g47
sg15
g101
sg22
F195.08312139939517
sg64
g218
sg62
g74
sg49
g50
sS'trials.thisN'
p616
I48
sg19
I1
sg27
g36
(g38
S'\x00\x00\x00\x00\x00\x00\x18@'
tRp617
sg52
g53
sg23
S'2'
sg18
F194.12027001241222
sg33
g34
sg51
g11
sg20
S'1'
sg65
g36
(g77
S'\x00\x00\x00\x00\x00\x00\x00\x00'
tRp618
sg44
g45
sg40
g41
sg25
F0.1405213032849133
sS'trials.thisIndex'
p619
g36
(g80
S')\x00\x00\x00'
tRp620
sg26
V5
sS'trials.thisRepN'
p621
I0
sg66
Vhouse
p622
sg63
V../experiment_stimuli/bw_bc_bl/Nonliving_Things/Buildings/house_6.jpg
p623
sg21
F0.94229227164760232
sS'trials.thisTrialN'
p624
I48
sa(dp625
g31
g32
sg17
F196.96148485504091
sg24
I1
sg35
g39
sg14
F196.95653154654428
sg16
g36
(g70
S'\x01\x00\x00\x00'
tRp626
sg42
g43
sg46
g47
sg15
g101
sg22
F198.91149112023413
sg64
g114
sg62
g74
sg49
g50
sS'trials.thisN'
p627
I49
sg19
I1
sg27
g36
(g38
S'\x00\x00\x00\x00\x00\x00\x18@'
tRp628
sg52
g53
sg23
S'1'
sg18
F198.18910775147378
sg33
g34
sg51
g11
sg20
S'1'
sg65
g36
(g77
S'\x00\x00\x00\x00\x00\x00\x00\x00'
tRp629
sg44
g45
sg40
g41
sg25
F0.99237965978682041
sS'trials.thisIndex'
p630
g36
(g80
S'M\x00\x00\x00'
tRp631
sg26
V5
sS'trials.thisRepN'
p632
I0
sg66
Vsmall-saucepan
p633
sg63
V../experiment_stimuli/bw_bc_bl/Nonliving_Things/Kitchen_Uten/small-saucepan_25.jpg
p634
sg21
F0.7018175576813519
sS'trials.thisTrialN'
p635
I49
sa(dp636
g31
g32
sg17
F201.64165035448968
sg24
I1
sg35
g39
sg14
F201.6367186284624
sg16
g36
(g70
S'\x02\x00\x00\x00'
tRp637
sg42
g43
sg46
g47
sg15
g72
sg22
F203.5815696362406
sg64
g126
sg62
g74
sg49
g50
sS'trials.thisN'
p638
I50
sg19
I0
sg27
g36
(g38
S'\x00\x00\x00\x00\x00\x00\x18@'
tRp639
sg52
g53
sg23
S'1'
sg18
F202.88932978687808
sg33
g34
sg51
g11
sg20
S'1'
sg65
g36
(g77
S'\x00\x00\x00\x00\x00\x00\x00\x00'
tRp640
sg44
g45
sg40
g41
sg25
F0.23073363536968827
sS'trials.thisIndex'
p641
g36
(g80
S'\x06\x00\x00\x00'
tRp642
sg26
V5
sS'trials.thisRepN'
p643
I0
sg66
Vbedside-table
p644
sg63
V../experiment_stimuli/bw_bc_bl/Nonliving_Things/Furniture/bedside-table_2.jpg
p645
sg21
F0.67168682394549251
sS'trials.thisTrialN'
p646
I50
sa(dp647
g31
g32
sg17
F205.54997940035537
sg24
I0
sg35
g39
sg14
F205.54520406667143
sg16
g36
(g70
S'\x02\x00\x00\x00'
tRp648
sg42
g43
sg46
g47
sg15
g72
sg22
F207.32975424593315
sg64
g126
sg62
g74
sg49
g50
sS'trials.thisN'
p649
I51
sg19
I1
sg27
g36
(g38
S'\x00\x00\x00\x00\x00\x00 @'
tRp650
sg52
g53
sg23
S'3'
sg18
F206.81894125323743
sg33
g34
sg51
g11
sg20
S'2'
sg65
g36
(g77
S'\x00\x00\x00\x00\x00\x00\x00\x00'
tRp651
sg44
g45
sg40
g41
sg25
F0.1405312018468976
sS'trials.thisIndex'
p652
g36
(g80
S']\x00\x00\x00'
tRp653
sg26
V5
sS'trials.thisRepN'
p654
I0
sg66
Vwardrobe
p655
sg63
V../experiment_stimuli/bw_bc_bl/Nonliving_Things/Furniture/wardrobe_8.jpg
p656
sg21
F0.48129357350990176
sS'trials.thisTrialN'
p657
I51
sa(dp658
g31
g32
sg17
F209.20800415799022
sg24
I0
sg35
g39
sg14
F209.2031489610672
sg16
g36
(g70
S'\x01\x00\x00\x00'
tRp659
sg42
g43
sg46
g47
sg15
g72
sg22
F211.14805052476004
sg64
g138
sg62
g89
sg49
g50
sS'trials.thisN'
p660
I52
sg19
I0
sg27
g36
(g38
S'\x00\x00\x00\x00\x00\x00\x18@'
tRp661
sg52
g53
sg23
S'3'
sg18
F210.45577619085088
sg33
g34
sg51
g11
sg20
S'2'
sg65
g36
(g77
S'\x00\x00\x00\x00\x00\x00\x00\x00'
tRp662
sg44
g45
sg40
g41
sg25
F0.090421325527131557
sS'trials.thisIndex'
p663
g36
(g80
S'O\x00\x00\x00'
tRp664
sg26
V5
sS'trials.thisRepN'
p665
I0
sg66
Vsparrow
p666
sg63
V../experiment_stimuli/bw_bc_bl/Living_Things/Birds/sparrow_3.jpg
p667
sg21
F0.67168765887618065
sS'trials.thisTrialN'
p668
I52
sa(dp669
g31
g32
sg17
F212.97617022972554
sg24
I0
sg35
g39
sg14
F212.97134231822565
sg16
g36
(g70
S'\x02\x00\x00\x00'
tRp670
sg42
g43
sg46
g47
sg15
g101
sg22
F214.89615557529032
sg64
g88
sg62
g89
sg49
g50
sS'trials.thisN'
p671
I53
sg19
I1
sg27
g36
(g38
S'\x00\x00\x00\x00\x00\x00\x18@'
tRp672
sg52
g53
sg23
S'3'
sg18
F214.21395921753719
sg33
g34
sg51
g11
sg20
S'2'
sg65
g36
(g77
S'\x00\x00\x00\x00\x00\x00\x00\x00'
tRp673
sg44
g45
sg40
g41
sg25
F0.090416844002902508
sS'trials.thisIndex'
p674
g36
(g80
S'_\x00\x00\x00'
tRp675
sg26
V5
sS'trials.thisRepN'
p676
I0
sg66
Vzebra
p677
sg63
V../experiment_stimuli/bw_bc_bl/Living_Things/Animals/zebra_12.jpg
p678
sg21
F0.66166542237624526
sS'trials.thisTrialN'
p679
I53
sa(dp680
g31
g32
sg17
F216.72435812139884
sg24
I0
sg35
g39
sg14
F216.71948970668018
sg16
g36
(g70
S'\x02\x00\x00\x00'
tRp681
sg42
g43
sg46
g47
sg15
g72
sg22
F218.7244921461679
sg64
g126
sg62
g74
sg49
g50
sS'trials.thisN'
p682
I54
sg19
I0
sg27
g36
(g38
S'\x00\x00\x00\x00\x00\x00\x18@'
tRp683
sg52
g53
sg23
S'2'
sg18
F217.96210494823754
sg33
g34
sg51
g11
sg20
S'1'
sg65
g36
(g77
S'\x00\x00\x00\x00\x00\x00\x00\x00'
tRp684
sg44
g45
sg40
g41
sg25
F0.14037631312385201
sS'trials.thisIndex'
p685
g36
(g80
S'\x1d\x00\x00\x00'
tRp686
sg26
V5
sS'trials.thisRepN'
p687
I0
sg66
Vfilling-cabinet
p688
sg63
V../experiment_stimuli/bw_bc_bl/Nonliving_Things/Furniture/filling-cabinet_23.jpg
p689
sg21
F0.74184650694951415
sS'trials.thisTrialN'
p690
I54
sa(dp691
g31
g32
sg17
F220.60275228042156
sg24
I0
sg35
g39
sg14
F220.59791922569275
sg16
g36
(g70
S'\x01\x00\x00\x00'
tRp692
sg42
g43
sg46
g47
sg15
g72
sg22
F222.42259113118052
sg64
g88
sg62
g89
sg49
g50
sS'trials.thisN'
p693
I55
sg19
I1
sg27
g36
(g38
S'\x00\x00\x00\x00\x00\x00\x18@'
tRp694
sg52
g53
sg23
S'2'
sg18
F221.84052237728611
sg33
g34
sg51
g11
sg20
S'1'
sg65
g36
(g77
S'\x00\x00\x00\x00\x00\x00\x00\x00'
tRp695
sg44
g45
sg40
g41
sg25
F0.090439775958657265
sS'trials.thisIndex'
p696
g36
(g80
S'\x01\x00\x00\x00'
tRp697
sg26
V5
sS'trials.thisRepN'
p698
I0
sg66
Varmadillo
p699
sg63
V../experiment_stimuli/bw_bc_bl/Living_Things/Animals/armadillo_14.jpg
p700
sg21
F0.56147194001823664
sS'trials.thisTrialN'
p701
I55
sa(dp702
g31
g32
sg17
F224.25060700345784
sg24
I0
sg35
g39
sg14
F224.24585536122322
sg16
g36
(g70
S'\x02\x00\x00\x00'
tRp703
sg42
g43
sg46
g47
sg15
g101
sg22
F226.05041847936809
sg64
g138
sg62
g89
sg49
g50
sS'trials.thisN'
p704
I56
sg19
I1
sg27
g36
(g38
S'\x00\x00\x00\x00\x00\x00 @'
tRp705
sg52
g53
sg23
S'3'
sg18
F225.48845655797049
sg33
g34
sg51
g11
sg20
S'2'
sg65
g36
(g77
S'\x00\x00\x00\x00\x00\x00\x00\x00'
tRp706
sg44
g45
sg40
g41
sg25
F0.15058546420186758
sS'trials.thisIndex'
p707
g36
(g80
S'<\x00\x00\x00'
tRp708
sg26
V5
sS'trials.thisRepN'
p709
I0
sg66
Vpelican
p710
sg63
V../experiment_stimuli/bw_bc_bl/Living_Things/Birds/pelican_19.jpg
p711
sg21
F0.53139127278700471
sS'trials.thisTrialN'
p712
I56
sa(dp713
g31
g32
sg17
F227.93993742950261
sg24
I1
sg35
g39
sg14
F227.93387392675504
sg16
g36
(g70
S'\x02\x00\x00\x00'
tRp714
sg42
g43
sg46
g47
sg15
g101
sg22
F229.84872147720307
sg64
g138
sg62
g89
sg49
g50
sS'trials.thisN'
p715
I57
sg19
I1
sg27
g36
(g38
S'\x00\x00\x00\x00\x00\x00\x1c@'
tRp716
sg52
g53
sg23
S'1'
sg18
F229.17647129995748
sg33
g34
sg51
g11
sg20
S'2'
sg65
g36
(g77
S'\x00\x00\x00\x00\x00\x00\x00\x00'
tRp717
sg44
g45
sg40
g41
sg25
F0.10047988034784794
sS'trials.thisIndex'
p718
g36
(g80
S'?\x00\x00\x00'
tRp719
sg26
V5
sS'trials.thisRepN'
p720
I0
sg66
Vpigeon
p721
sg63
V../experiment_stimuli/bw_bc_bl/Living_Things/Birds/pigeon_16.jpg
p722
sg21
F0.65165591891855001
sS'trials.thisTrialN'
p723
I57
sa(dp724
g31
g32
sg17
F231.68797638779506
sg24
I1
sg35
g39
sg14
F231.68202309729531
sg16
g36
(g70
S'\x02\x00\x00\x00'
tRp725
sg42
g43
sg46
g47
sg15
g101
sg22
F233.516644210089
sg64
g88
sg62
g89
sg49
g50
sS'trials.thisN'
p726
I58
sg19
I1
sg27
g36
(g38
S'\x00\x00\x00\x00\x00\x00\x1a@'
tRp727
sg52
g53
sg23
S'1'
sg18
F232.92462127888575
sg33
g34
sg51
g11
sg20
S'2'
sg65
g36
(g77
S'\x00\x00\x00\x00\x00\x00\x00\x00'
tRp728
sg44
g45
sg40
g41
sg25
F0.11045503849163651
sS'trials.thisIndex'
p729
g36
(g80
S'D\x00\x00\x00'
tRp730
sg26
V5
sS'trials.thisRepN'
p731
I0
sg66
Vrhino
p732
sg63
V../experiment_stimuli/bw_bc_bl/Living_Things/Animals/rhino_17.jpg
p733
sg21
F0.57147088367491961
sS'trials.thisTrialN'
p734
I58
sa(dp735
g31
g32
sg17
F235.36485804477707
sg24
I0
sg35
g39
sg14
F235.36000878782943
sg16
g36
(g70
S'\x02\x00\x00\x00'
tRp736
sg42
g43
sg46
g47
sg15
g72
sg22
F237.45520805194974
sg64
g126
sg62
g74
sg49
g50
sS'trials.thisN'
p737
I59
sg19
I1
sg27
g36
(g38
S'\x00\x00\x00\x00\x00\x00\x1a@'
tRp738
sg52
g53
sg23
S'3'
sg18
F236.61263583647087
sg33
g34
sg51
g11
sg20
S'2'
sg65
g36
(g77
S'\x00\x00\x00\x00\x00\x00\x00\x00'
tRp739
sg44
g45
sg40
g41
sg25
F0.14053641166538
sS'trials.thisIndex'
p740
g36
(g80
S'Q\x00\x00\x00'
tRp741
sg26
V5
sS'trials.thisRepN'
p742
I0
sg66
Vtable
p743
sg63
V../experiment_stimuli/bw_bc_bl/Nonliving_Things/Furniture/table_5.jpg
p744
sg21
F0.82201505871489644
sS'trials.thisTrialN'
p745
I59
sa(dp746
g31
g32
sg17
F239.33336188271642
sg24
I0
sg35
g39
sg14
F239.3286373228766
sg16
g36
(g70
S'\x02\x00\x00\x00'
tRp747
sg42
g43
sg46
g47
sg15
g72
sg22
F241.56416074698791
sg64
g218
sg62
g74
sg49
g50
sS'trials.thisN'
p748
I60
sg19
I0
sg27
g36
(g38
S'\x00\x00\x00\x00\x00\x00\x1e@'
tRp749
sg52
g53
sg23
S'2'
sg18
F240.57125399308279
sg33
g34
sg51
g11
sg20
S'1'
sg65
g36
(g77
S'\x00\x00\x00\x00\x00\x00\x00\x00'
tRp750
sg44
g45
sg40
g41
sg25
F0.090438546612858772
sS'trials.thisIndex'
p751
g36
(g80
S'\x0c\x00\x00\x00'
tRp752
sg26
V5
sS'trials.thisRepN'
p753
I0
sg66
Vcastle
p754
sg63
V../experiment_stimuli/bw_bc_bl/Nonliving_Things/Buildings/castle_10.jpg
p755
sg21
F0.97236240841448307
sS'trials.thisTrialN'
p756
I60
sa(dp757
g31
g32
sg17
F243.39230371871963
sg24
I1
sg35
g39
sg14
F243.38746649120003
sg16
g36
(g70
S'\x02\x00\x00\x00'
tRp758
sg42
g43
sg46
g47
sg15
g101
sg22
F245.11184410005808
sg64
g206
sg62
g89
sg49
g50
sS'trials.thisN'
p759
I61
sg19
I1
sg27
g36
(g38
S'\x00\x00\x00\x00\x00\x00\x18@'
tRp760
sg52
g53
sg23
S'1'
sg18
F244.62006198894233
sg33
g34
sg51
g11
sg20
S'2'
sg65
g36
(g77
S'\x00\x00\x00\x00\x00\x00\x00\x00'
tRp761
sg44
g45
sg40
g41
sg25
F0.090409472119063139
sS'trials.thisIndex'
p762
g36
(g80
S'1\x00\x00\x00'
tRp763
sg26
V5
sS'trials.thisRepN'
p764
I0
sg66
Vlobster
p765
sg63
V../experiment_stimuli/bw_bc_bl/Living_Things/Marine_creatures/lobster_15.jpg
p766
sg21
F0.4712514840066433
sS'trials.thisTrialN'
p767
I61
sa(dp768
g31
g32
sg17
F246.94005675520748
sg24
I0
sg35
g39
sg14
F246.93517264118418
sg16
g36
(g70
S'\x01\x00\x00\x00'
tRp769
sg42
g43
sg46
g47
sg15
g101
sg22
F249.2207850846462
sg64
g274
sg62
g74
sg49
g50
sS'trials.thisN'
p770
I62
sg19
I1
sg27
g36
(g38
S'\x00\x00\x00\x00\x00\x00\x1a@'
tRp771
sg52
g53
sg23
S'3'
sg18
F248.18780015315861
sg33
g34
sg51
g11
sg20
S'1'
sg65
g36
(g77
S'\x00\x00\x00\x00\x00\x00\x00\x00'
tRp772
sg44
g45
sg40
g41
sg25
F0.14057919336482882
sS'trials.thisIndex'
p773
g36
(g80
S'V\x00\x00\x00'
tRp774
sg26
V5
sS'trials.thisRepN'
p775
I0
sg66
Vtractor
p776
sg63
V../experiment_stimuli/bw_bc_bl/Nonliving_Things/Vehicles/tractor_13.jpg
p777
sg21
F1.0124428947456181
sS'trials.thisTrialN'
p778
I62
sa(dp779
g31
g32
sg17
F251.09907741378993
sg24
I0
sg35
g39
sg14
F251.09421563381329
sg16
g36
(g70
S'\x02\x00\x00\x00'
tRp780
sg42
g43
sg46
g47
sg15
g101
sg22
F252.89879743615165
sg64
g138
sg62
g89
sg49
g50
sS'trials.thisN'
p781
I63
sg19
I0
sg27
g36
(g38
S'\x00\x00\x00\x00\x00\x00\x1c@'
tRp782
sg52
g53
sg23
S'2'
sg18
F252.33681989833713
sg33
g34
sg51
g11
sg20
S'1'
sg65
g36
(g77
S'\x00\x00\x00\x00\x00\x00\x00\x00'
tRp783
sg44
g45
sg40
g41
sg25
F0.1806584014557302
sS'trials.thisIndex'
p784
g36
(g80
S'F\x00\x00\x00'
tRp785
sg26
V5
sS'trials.thisRepN'
p786
I0
sg66
Vrooster
p787
sg63
V../experiment_stimuli/bw_bc_bl/Living_Things/Birds/rooster_23.jpg
p788
sg21
F0.54140170849859715
sS'trials.thisTrialN'
p789
I63
sa(dp790
g31
g32
sg17
F254.81822801474482
sg24
I1
sg35
g39
sg14
F254.81229652091861
sg16
g36
(g70
S'\x01\x00\x00\x00'
tRp791
sg42
g43
sg46
g47
sg15
g101
sg22
F256.48659900482744
sg64
g73
sg62
g74
sg49
g50
sS'trials.thisN'
p792
I64
sg19
I0
sg27
g36
(g38
S'\x00\x00\x00\x00\x00\x00\x18@'
tRp793
sg52
g53
sg23
S'1'
sg18
F256.0448879096657
sg33
g34
sg51
g11
sg20
S'2'
sg65
g36
(g77
S'\x00\x00\x00\x00\x00\x00\x00\x00'
tRp794
sg44
g45
sg40
g41
sg25
F0.1204765266738832
sS'trials.thisIndex'
p795
g36
(g80
S'>\x00\x00\x00'
tRp796
sg26
V5
sS'trials.thisRepN'
p797
I0
sg66
Vpiano
p798
sg63
V../experiment_stimuli/bw_bc_bl/Nonliving_Things/Musical_Inst/piano__11.jpg
p799
sg21
F0.42114598723128438
sS'trials.thisTrialN'
p800
I64
sa(dp801
g31
g32
sg17
F258.34478802373633
sg24
I0
sg35
g39
sg14
F258.33997057797387
sg16
g36
(g70
S'\x01\x00\x00\x00'
tRp802
sg42
g43
sg46
g47
sg15
g101
sg22
F260.23471848014742
sg64
g274
sg62
g74
sg49
g50
sS'trials.thisN'
p803
I65
sg19
I1
sg27
g36
(g38
S'\x00\x00\x00\x00\x00\x00\x1a@'
tRp804
sg52
g53
sg23
S'2'
sg18
F259.5925900824368
sg33
g34
sg51
g11
sg20
S'1'
sg65
g36
(g77
S'\x00\x00\x00\x00\x00\x00\x00\x00'
tRp805
sg44
g45
sg40
g41
sg25
F0.11045288061723113
sS'trials.thisIndex'
p806
g36
(g80
S'[\x00\x00\x00'
tRp807
sg26
V5
sS'trials.thisRepN'
p808
I0
sg66
Vvan
p809
sg63
V../experiment_stimuli/bw_bc_bl/Nonliving_Things/Vehicles/van_12.jpg
p810
sg21
F0.6115538920275867
sS'trials.thisTrialN'
p811
I65
sa(dp812
g31
g32
sg17
F262.08286209404469
sg24
I0
sg35
g39
sg14
F262.07809429429471
sg16
g36
(g70
S'\x01\x00\x00\x00'
tRp813
sg42
g43
sg46
g47
sg15
g101
sg22
F263.9227392822504
sg64
g114
sg62
g74
sg49
g50
sS'trials.thisN'
p814
I66
sg19
I1
sg27
g36
(g38
S'\x00\x00\x00\x00\x00\x00\x1a@'
tRp815
sg52
g53
sg23
S'2'
sg18
F263.32071308093145
sg33
g34
sg51
g11
sg20
S'1'
sg65
g36
(g77
S'\x00\x00\x00\x00\x00\x00\x00\x00'
tRp816
sg44
g45
sg40
g41
sg25
F0.11046390701085329
sS'trials.thisIndex'
p817
g36
(g80
S'\x16\x00\x00\x00'
tRp818
sg26
V5
sS'trials.thisRepN'
p819
I0
sg66
Vcup
p820
sg63
V../experiment_stimuli/bw_bc_bl/Nonliving_Things/Kitchen_Uten/cup_23.jpg
p821
sg21
F0.58149108197540045
sS'trials.thisTrialN'
p822
I66
sa(dp823
g31
g32
sg17
F265.77222380926833
sg24
I1
sg35
g39
sg14
F265.76611776230857
sg16
g36
(g70
S'\x02\x00\x00\x00'
tRp824
sg42
g43
sg46
g47
sg15
g72
sg22
F267.63081466173753
sg64
g114
sg62
g74
sg49
g50
sS'trials.thisN'
p825
I67
sg19
I1
sg27
g36
(g38
S'\x00\x00\x00\x00\x00\x00\x1e@'
tRp826
sg52
g53
sg23
S'1'
sg18
F267.00871090590954
sg33
g34
sg51
g11
sg20
S'2'
sg65
g36
(g77
S'\x00\x00\x00\x00\x00\x00\x00\x00'
tRp827
sg44
g45
sg40
g41
sg25
F0.13050647312775254
sS'trials.thisIndex'
p828
g36
(g80
S'B\x00\x00\x00'
tRp829
sg26
V5
sS'trials.thisRepN'
p830
I0
sg66
Vpot
p831
sg63
V../experiment_stimuli/bw_bc_bl/Nonliving_Things/Kitchen_Uten/pot_14.jpg
p832
sg21
F0.60154298273846507
sS'trials.thisTrialN'
p833
I67
sa(dp834
g31
g32
sg17
F269.49902818026021
sg24
I0
sg35
g39
sg14
F269.49423459125683
sg16
g36
(g70
S'\x01\x00\x00\x00'
tRp835
sg42
g43
sg46
g47
sg15
g101
sg22
F271.79985318798572
sg64
g218
sg62
g74
sg49
g50
sS'trials.thisN'
p836
I68
sg19
I1
sg27
g36
(g38
S'\x00\x00\x00\x00\x00\x00\x18@'
tRp837
sg52
g53
sg23
S'3'
sg18
F270.74684287421405
sg33
g34
sg51
g11
sg20
S'1'
sg65
g36
(g77
S'\x00\x00\x00\x00\x00\x00\x00\x00'
tRp838
sg44
g45
sg40
g41
sg25
F0.13054525852203369
sS'trials.thisIndex'
p839
g36
(g80
S'\x0e\x00\x00\x00'
tRp840
sg26
V5
sS'trials.thisRepN'
p841
I0
sg66
Vcathedral
p842
sg63
V../experiment_stimuli/bw_bc_bl/Nonliving_Things/Buildings/cathedral_0.jpg
p843
sg21
F1.0324591160751879
sS'trials.thisTrialN'
p844
I68
sa(dp845
g31
g32
sg17
F273.66945740487427
sg24
I0
sg35
g39
sg14
F273.66328315902501
sg16
g36
(g70
S'\x02\x00\x00\x00'
tRp846
sg42
g43
sg46
g47
sg15
g101
sg22
F275.53800898278132
sg64
g88
sg62
g89
sg49
g50
sS'trials.thisN'
p847
I69
sg19
I0
sg27
g36
(g38
S'\x00\x00\x00\x00\x00\x00\x18@'
tRp848
sg52
g53
sg23
S'2'
sg18
F274.90588270500302
sg33
g34
sg51
g11
sg20
S'1'
sg65
g36
(g77
S'\x00\x00\x00\x00\x00\x00\x00\x00'
tRp849
sg44
g45
sg40
g41
sg25
F0.27080170856788754
sS'trials.thisIndex'
p850
g36
(g80
S'Z\x00\x00\x00'
tRp851
sg26
V5
sS'trials.thisRepN'
p852
I0
sg66
Vturtle
p853
sg63
V../experiment_stimuli/bw_bc_bl/Living_Things/Animals/turtle_5.jpg
p854
sg21
F0.6115476437844336
sS'trials.thisTrialN'
p855
I69
sa(dp856
g31
g32
sg17
F277.54651183774695
sg24
I0
sg35
g39
sg14
F277.54173306468874
sg16
g36
(g70
S'\x02\x00\x00\x00'
tRp857
sg42
g43
sg46
g47
sg15
g101
sg22
F279.48658009152859
sg64
g138
sg62
g89
sg49
g50
sS'trials.thisN'
p858
I70
sg19
I0
sg27
g36
(g38
S'\x00\x00\x00\x00\x00\x00 @'
tRp859
sg52
g53
sg23
S'2'
sg18
F278.77428823988885
sg33
g34
sg51
g11
sg20
S'1'
sg65
g36
(g77
S'\x00\x00\x00\x00\x00\x00\x00\x00'
tRp860
sg44
g45
sg40
g41
sg25
F0.12049517640843987
sS'trials.thisIndex'
p861
g36
(g80
S'\x1a\x00\x00\x00'
tRp862
sg26
V5
sS'trials.thisRepN'
p863
I0
sg66
Vduck
p864
sg63
V../experiment_stimuli/bw_bc_bl/Living_Things/Birds/duck_1.jpg
p865
sg21
F0.69173520943149924
sS'trials.thisTrialN'
p866
I70
sa(dp867
g31
g32
sg17
F281.34474124992266
sg24
I1
sg35
g39
sg14
F281.3399609089829
sg16
g36
(g70
S'\x02\x00\x00\x00'
tRp868
sg42
g43
sg46
g47
sg15
g72
sg22
F283.12449643062428
sg64
g126
sg62
g74
sg49
g50
sS'trials.thisN'
p869
I71
sg19
I1
sg27
g36
(g38
S'\x00\x00\x00\x00\x00\x00\x18@'
tRp870
sg52
g53
sg23
S'1'
sg18
F282.58257209789008
sg33
g34
sg51
g11
sg20
S'2'
sg65
g36
(g77
S'\x00\x00\x00\x00\x00\x00\x00\x00'
tRp871
sg44
g45
sg40
g41
sg25
F0.12047900352627039
sS'trials.thisIndex'
p872
g36
(g80
S'N\x00\x00\x00'
tRp873
sg26
V5
sS'trials.thisRepN'
p874
I0
sg66
Vsofa
p875
sg63
V../experiment_stimuli/bw_bc_bl/Nonliving_Things/Furniture/sofa_9.jpg
p876
sg21
F0.52137556299567223
sS'trials.thisTrialN'
p877
I71
sa(dp878
g31
g32
sg17
F284.98400478437543
sg24
I0
sg35
g39
sg14
F284.97789850365371
sg16
g36
(g70
S'\x02\x00\x00\x00'
tRp879
sg42
g43
sg46
g47
sg15
g101
sg22
F286.92273599654436
sg64
g138
sg62
g89
sg49
g50
sS'trials.thisN'
p880
I72
sg19
I0
sg27
g36
(g38
S'\x00\x00\x00\x00\x00\x00\x1a@'
tRp881
sg52
g53
sg23
S'3'
sg18
F286.22047938453034
sg33
g34
sg51
g11
sg20
S'1'
sg65
g36
(g77
S'\x00\x00\x00\x00\x00\x00\x00\x00'
tRp882
sg44
g45
sg40
g41
sg25
F0.57152239792048931
sS'trials.thisIndex'
p883
g36
(g80
S'C\x00\x00\x00'
tRp884
sg26
V5
sS'trials.thisRepN'
p885
I0
sg66
Vraven
p886
sg63
V../experiment_stimuli/bw_bc_bl/Living_Things/Birds/raven_4.jpg
p887
sg21
F0.68171672197058797
sS'trials.thisTrialN'
p888
I72
sa(dp889
g31
g32
sg17
F289.23194544343278
sg24
I1
sg35
g39
sg14
F289.22711110673845
sg16
g36
(g70
S'\x02\x00\x00\x00'
tRp890
sg42
g43
sg46
g47
sg15
g72
sg22
F291.14191745826975
sg64
g274
sg62
g74
sg49
g50
sS'trials.thisN'
p891
I73
sg19
I1
sg27
g36
(g38
S'\x00\x00\x00\x00\x00\x00\x1c@'
tRp892
sg52
g53
sg23
S'1'
sg18
F290.4597047441639
sg33
g34
sg51
g11
sg20
S'2'
sg65
g36
(g77
S'\x00\x00\x00\x00\x00\x00\x00\x00'
tRp893
sg44
g45
sg40
g41
sg25
F0.12048047780990601
sS'trials.thisIndex'
p894
g36
(g80
S'L\x00\x00\x00'
tRp895
sg26
V5
sS'trials.thisRepN'
p896
I0
sg66
Vship
p897
sg63
V../experiment_stimuli/bw_bc_bl/Nonliving_Things/Vehicles/ship_8.jpg
p898
sg21
F0.66166954254731536
sS'trials.thisTrialN'
p899
I73
sa(dp900
g31
g32
sg17
F293.00136563275009
sg24
I0
sg35
g39
sg14
F292.99531608028337
sg16
g36
(g70
S'\x01\x00\x00\x00'
tRp901
sg42
g43
sg46
g47
sg15
g101
sg22
F294.76981436600909
sg64
g126
sg62
g74
sg49
g50
sS'trials.thisN'
p902
I74
sg19
I1
sg27
g36
(g38
S'\x00\x00\x00\x00\x00\x00\x1c@'
tRp903
sg52
g53
sg23
S'3'
sg18
F294.23790731839836
sg33
g34
sg51
g11
sg20
S'1'
sg65
g36
(g77
S'\x00\x00\x00\x00\x00\x00\x00\x00'
tRp904
sg44
g45
sg40
g41
sg25
F0.1506109070032835
sS'trials.thisIndex'
p905
g36
(g80
S'\x00\x00\x00\x00'
tRp906
sg26
V5
sS'trials.thisRepN'
p907
I0
sg66
VChest-of-drawers
p908
sg63
V../experiment_stimuli/bw_bc_bl/Nonliving_Things/Furniture/Chest-of-drawers_25.jpg
p909
sg21
F0.5113372104242444
sS'trials.thisTrialN'
p910
I74
sa(dp911
g31
g32
sg17
F296.65801290655509
sg24
I0
sg35
g39
sg14
F296.65325477998704
sg16
g36
(g70
S'\x02\x00\x00\x00'
tRp912
sg42
g43
sg46
g47
sg15
g72
sg22
F298.70835452433676
sg64
g73
sg62
g74
sg49
g50
sS'trials.thisN'
p913
I75
sg19
I1
sg27
g36
(g38
S'\x00\x00\x00\x00\x00\x00\x18@'
tRp914
sg52
g53
sg23
S'3'
sg18
F297.88584590516984
sg33
g34
sg51
g11
sg20
S'2'
sg65
g36
(g77
S'\x00\x00\x00\x00\x00\x00\x00\x00'
tRp915
sg44
g45
sg40
g41
sg25
F0.14052420575171709
sS'trials.thisIndex'
p916
g36
(g80
S'\x19\x00\x00\x00'
tRp917
sg26
V5
sS'trials.thisRepN'
p918
I0
sg66
Vdrum
p919
sg63
V../experiment_stimuli/bw_bc_bl/Nonliving_Things/Musical_Inst/drum_6.jpg
p920
sg21
F0.80196563526988029
sS'trials.thisTrialN'
p921
I75
sa(dp922
g31
g32
sg17
F300.58652784395963
sg24
I1
sg35
g39
sg14
F300.5817972724326
sg16
g36
(g70
S'\x01\x00\x00\x00'
tRp923
sg42
g43
sg46
g47
sg15
g72
sg22
F302.4565219799988
sg64
g206
sg62
g89
sg49
g50
sS'trials.thisN'
p924
I76
sg19
I0
sg27
g36
(g38
S'\x00\x00\x00\x00\x00\x00\x18@'
tRp925
sg52
g53
sg23
S'1'
sg18
F301.81437609391287
sg33
g34
sg51
g11
sg20
S'2'
sg65
g36
(g77
S'\x00\x00\x00\x00\x00\x00\x00\x00'
tRp926
sg44
g45
sg40
g41
sg25
F0.20065703988075256
sS'trials.thisIndex'
p927
g36
(g80
S'P\x00\x00\x00'
tRp928
sg26
V5
sS'trials.thisRepN'
p929
I0
sg66
Vsperm-whale
p930
sg63
V../experiment_stimuli/bw_bc_bl/Living_Things/Marine_creatures/sperm-whale_9.jpg
p931
sg21
F0.61155329830944538
sS'trials.thisTrialN'
p932
I76
sa(dp933
g31
g32
sg17
F304.39490267401561
sg24
I1
sg35
g39
sg14
F304.39007259719074
sg16
g36
(g70
S'\x01\x00\x00\x00'
tRp934
sg42
g43
sg46
g47
sg15
g72
sg22
F306.25476557249203
sg64
g206
sg62
g89
sg49
g50
sS'trials.thisN'
p935
I77
sg19
I1
sg27
g36
(g38
S'\x00\x00\x00\x00\x00\x00\x18@'
tRp936
sg52
g53
sg23
S'1'
sg18
F305.63268331624568
sg33
g34
sg51
g11
sg20
S'1'
sg65
g36
(g77
S'\x00\x00\x00\x00\x00\x00\x00\x00'
tRp937
sg44
g45
sg40
g41
sg25
F0.2307189479470253
sS'trials.thisIndex'
p938
g36
(g80
S'A\x00\x00\x00'
tRp939
sg26
V5
sS'trials.thisRepN'
p940
I0
sg66
Vpomfret
p941
sg63
V../experiment_stimuli/bw_bc_bl/Living_Things/Marine_creatures/pomfret_23.jpg
p942
sg21
F0.60153540363535285
sS'trials.thisTrialN'
p943
I77
sa(dp944
g31
g32
sg17
F308.22327588358894
sg24
I1
sg35
g39
sg14
F308.21840393869206
sg16
g36
(g70
S'\x02\x00\x00\x00'
tRp945
sg42
g43
sg46
g47
sg15
g101
sg22
F310.41365691646934
sg64
g88
sg62
g89
sg49
g50
sS'trials.thisN'
p946
I78
sg19
I1
sg27
g36
(g38
S'\x00\x00\x00\x00\x00\x00\x1c@'
tRp947
sg52
g53
sg23
S'1'
sg18
F309.50108780199662
sg33
g34
sg51
g11
sg20
S'2'
sg65
g36
(g77
S'\x00\x00\x00\x00\x00\x00\x00\x00'
tRp948
sg44
g45
sg40
g41
sg25
F0.13051053695380688
sS'trials.thisIndex'
p949
g36
(g80
S'0\x00\x00\x00'
tRp950
sg26
V5
sS'trials.thisRepN'
p951
I0
sg66
Vlioness
p952
sg63
V../experiment_stimuli/bw_bc_bl/Living_Things/Animals/lioness_14.jpg
p953
sg21
F0.89200931135565042
sS'trials.thisTrialN'
p954
I78
sa(dp955
g31
g32
sg17
F312.28208234161139
sg24
I0
sg35
g39
sg14
F312.27722066733986
sg16
g36
(g70
S'\x02\x00\x00\x00'
tRp956
sg42
g43
sg46
g47
sg15
g101
sg22
F314.08180117653683
sg64
g206
sg62
g89
sg49
g50
sS'trials.thisN'
p957
I79
sg19
I1
sg27
g36
(g38
S'\x00\x00\x00\x00\x00\x00\x1a@'
tRp958
sg52
g53
sg23
S'3'
sg18
F313.55991011718288
sg33
g34
sg51
g11
sg20
S'2'
sg65
g36
(g77
S'\x00\x00\x00\x00\x00\x00\x00\x00'
tRp959
sg44
g45
sg40
g41
sg25
F0.12048158701509237
sS'trials.thisIndex'
p960
g36
(g80
S'\x15\x00\x00\x00'
tRp961
sg26
V5
sS'trials.thisRepN'
p962
I0
sg66
Vcrab
p963
sg63
V../experiment_stimuli/bw_bc_bl/Living_Things/Marine_creatures/crab_2.jpg
p964
sg21
F0.50133330142125487
sS'trials.thisTrialN'
p965
I79
sa(dp966
g31
g32
sg17
F315.94002628186718
sg24
I0
sg35
g39
sg14
F315.93517303559929
sg16
g36
(g70
S'\x02\x00\x00\x00'
tRp967
sg42
g43
sg46
g47
sg15
g72
sg22
F317.76978179533035
sg64
g73
sg62
g74
sg49
g50
sS'trials.thisN'
p968
I80
sg19
I1
sg27
g36
(g38
S'\x00\x00\x00\x00\x00\x00\x18@'
tRp969
sg52
g53
sg23
S'3'
sg18
F317.19782423088327
sg33
g34
sg51
g11
sg20
S'2'
sg65
g36
(g77
S'\x00\x00\x00\x00\x00\x00\x00\x00'
tRp970
sg44
g45
sg40
g41
sg25
F0.13049664627760649
sS'trials.thisIndex'
p971
g36
(g80
S'$\x00\x00\x00'
tRp972
sg26
V5
sS'trials.thisRepN'
p973
I0
sg66
Vguitar
p974
sg63
V../experiment_stimuli/bw_bc_bl/Nonliving_Things/Musical_Inst/guitar_12.jpg
p975
sg21
F0.55142463278025389
sS'trials.thisTrialN'
p976
I80
sa(dp977
g31
g32
sg17
F319.63789901789278
sg24
I0
sg35
g39
sg14
F319.63321156287566
sg16
g36
(g70
S'\x01\x00\x00\x00'
tRp978
sg42
g43
sg46
g47
sg15
g101
sg22
F321.39756688848138
sg64
g126
sg62
g74
sg49
g50
sS'trials.thisN'
p979
I81
sg19
I1
sg27
g36
(g38
S'\x00\x00\x00\x00\x00\x00\x18@'
tRp980
sg52
g53
sg23
S'2'
sg18
F320.8758132555522
sg33
g34
sg51
g11
sg20
S'1'
sg65
g36
(g77
S'\x00\x00\x00\x00\x00\x00\x00\x00'
tRp981
sg44
g45
sg40
g41
sg25
F0.10045622289180756
sS'trials.thisIndex'
p982
g36
(g80
S'\x13\x00\x00\x00'
tRp983
sg26
V5
sS'trials.thisRepN'
p984
I0
sg66
Vcouch
p985
sg63
V../experiment_stimuli/bw_bc_bl/Nonliving_Things/Furniture/couch_19.jpg
p986
sg21
F0.50115810474380851
sS'trials.thisTrialN'
p987
I81
sa(dp988
g31
g32
sg17
F323.23587108356878
sg24
I1
sg35
g39
sg14
F323.23103172471747
sg16
g36
(g70
S'\x02\x00\x00\x00'
tRp989
sg42
g43
sg46
g47
sg15
g72
sg22
F325.22586230980232
sg64
g218
sg62
g74
sg49
g50
sS'trials.thisN'
p990
I82
sg19
I1
sg27
g36
(g38
S'\x00\x00\x00\x00\x00\x00\x1a@'
tRp991
sg52
g53
sg23
S'1'
sg18
F324.47363853035495
sg33
g34
sg51
g11
sg20
S'2'
sg65
g36
(g77
S'\x00\x00\x00\x00\x00\x00\x00\x00'
tRp992
sg44
g45
sg40
g41
sg25
F0.14057772746309638
sS'trials.thisIndex'
p993
g36
(g80
S':\x00\x00\x00'
tRp994
sg26
V5
sS'trials.thisRepN'
p995
I0
sg66
Vpalace
p996
sg63
V../experiment_stimuli/bw_bc_bl/Nonliving_Things/Buildings/palace_25.jpg
p997
sg21
F0.73165744636207819
sS'trials.thisTrialN'
p998
I82
sa(dp999
g31
g32
sg17
F327.10711870528758
sg24
I0
sg35
g39
sg14
F327.09944412345067
sg16
g36
(g70
S'\x01\x00\x00\x00'
tRp1000
sg42
g43
sg46
g47
sg15
g101
sg22
F330.10671572433785
sg64
g126
sg62
g74
sg49
g50
sS'trials.thisN'
p1001
I83
sg19
I1
sg27
g36
(g38
S'\x00\x00\x00\x00\x00\x00\x1a@'
tRp1002
sg52
g53
sg23
S'2'
sg18
F328.36209328891709
sg33
g34
sg51
g11
sg20
S'1'
sg65
g36
(g77
S'\x00\x00\x00\x00\x00\x00\x00\x00'
tRp1003
sg44
g45
sg40
g41
sg25
F0.090412573888897896
sS'trials.thisIndex'
p1004
g36
(g80
S'\x02\x00\x00\x00'
tRp1005
sg26
V5
sS'trials.thisRepN'
p1006
I0
sg66
Varmchair
p1007
sg63
V../experiment_stimuli/bw_bc_bl/Nonliving_Things/Furniture/armchair_1.jpg
p1008
sg21
F1.7240741206333041
sS'trials.thisTrialN'
p1009
I83
sa(dp1010
g31
g32
sg17
F331.93627049541101
sg24
I1
sg35
g39
sg14
F331.92994422558695
sg16
g36
(g70
S'\x02\x00\x00\x00'
tRp1011
sg42
g43
sg46
g47
sg15
g101
sg22
F335.06743206270039
sg64
g206
sg62
g89
sg49
g50
sS'trials.thisN'
p1012
I84
sg19
I1
sg27
g36
(g38
S'\x00\x00\x00\x00\x00\x00\x1e@'
tRp1013
sg52
g53
sg23
S'1'
sg18
F333.18257260555401
sg33
g34
sg51
g11
sg20
S'2'
sg65
g36
(g77
S'\x00\x00\x00\x00\x00\x00\x00\x00'
tRp1014
sg44
g45
sg40
g41
sg25
F0.68169831251725554
sS'trials.thisIndex'
p1015
g36
(g80
S'7\x00\x00\x00'
tRp1016
sg26
V5
sS'trials.thisRepN'
p1017
I0
sg66
Vnarwhal
p1018
sg63
V../experiment_stimuli/bw_bc_bl/Living_Things/Marine_creatures/narwhal_22.jpg
p1019
sg21
F1.864279571454972
sS'trials.thisTrialN'
p1020
I84
sa(dp1021
g31
g32
sg17
F337.48826859146357
sg24
I0
sg35
g39
sg14
F337.48201423790306
sg16
g36
(g70
S'\x01\x00\x00\x00'
tRp1022
sg42
g43
sg46
g47
sg15
g101
sg22
F339.71754208626226
sg64
g126
sg62
g74
sg49
g50
sS'trials.thisN'
p1023
I85
sg19
I1
sg27
g36
(g38
S'\x00\x00\x00\x00\x00\x00\x18@'
tRp1024
sg52
g53
sg23
S'3'
sg18
F338.76470119133592
sg33
g34
sg51
g11
sg20
S'1'
sg65
g36
(g77
S'\x00\x00\x00\x00\x00\x00\x00\x00'
tRp1025
sg44
g45
sg40
g41
sg25
F0.20064506633207202
sS'trials.thisIndex'
p1026
g36
(g80
S'\x05\x00\x00\x00'
tRp1027
sg26
V5
sS'trials.thisRepN'
p1028
I0
sg66
Vbed
p1029
sg63
V../experiment_stimuli/bw_bc_bl/Nonliving_Things/Furniture/bed_6.jpg
p1030
sg21
F0.93227387778460979
sS'trials.thisTrialN'
p1031
I85
sa(dp1032
g31
g32
sg17
F341.65586180007085
sg24
I0
sg35
g39
sg14
F341.65107809472829
sg16
g36
(g70
S'\x01\x00\x00\x00'
tRp1033
sg42
g43
sg46
g47
sg15
g101
sg22
F343.54583123326302
sg64
g114
sg62
g74
sg49
g50
sS'trials.thisN'
p1034
I86
sg19
I1
sg27
g36
(g38
S'\x00\x00\x00\x00\x00\x00\x18@'
tRp1035
sg52
g53
sg23
S'3'
sg18
F342.91372156422585
sg33
g34
sg51
g11
sg20
S'1'
sg65
g36
(g77
S'\x00\x00\x00\x00\x00\x00\x00\x00'
tRp1036
sg44
g45
sg40
g41
sg25
F0.20070111472159624
sS'trials.thisIndex'
p1037
g36
(g80
S'\x1f\x00\x00\x00'
tRp1038
sg26
V5
sS'trials.thisRepN'
p1039
I0
sg66
Vfrying-pan
p1040
sg63
V../experiment_stimuli/bw_bc_bl/Nonliving_Things/Kitchen_Uten/frying-pan_26.jpg
p1041
sg21
F0.61155110597610474
sS'trials.thisTrialN'
p1042
I86
sa(dp1043
g31
g32
sg17
F345.48417517589405
sg24
I0
sg35
g39
sg14
F345.47939427476376
sg16
g36
(g70
S'\x02\x00\x00\x00'
tRp1044
sg42
g43
sg46
g47
sg15
g101
sg22
F347.53453105269
sg64
g88
sg62
g89
sg49
g50
sS'trials.thisN'
p1045
I87
sg19
I0
sg27
g36
(g38
S'\x00\x00\x00\x00\x00\x00\x1a@'
tRp1046
sg52
g53
sg23
S'2'
sg18
F346.71198437036946
sg33
g34
sg51
g11
sg20
S'1'
sg65
g36
(g77
S'\x00\x00\x00\x00\x00\x00\x00\x00'
tRp1047
sg44
g45
sg40
g41
sg25
F0.12048167316243052
sS'trials.thisIndex'
p1048
g36
(g80
S'\x10\x00\x00\x00'
tRp1049
sg26
V5
sS'trials.thisRepN'
p1050
I0
sg66
Vcheetah
p1051
sg63
V../experiment_stimuli/bw_bc_bl/Living_Things/Animals/cheetah_14.jpg
p1052
sg21
F0.801963503472507
sS'trials.thisTrialN'
p1053
I87
sa(dp1054
g31
g32
sg17
F349.39292582450435
sg24
I0
sg35
g39
sg14
F349.38789029512554
sg16
g36
(g70
S'\x01\x00\x00\x00'
tRp1055
sg42
g43
sg46
g47
sg15
g101
sg22
F351.44299578433856
sg64
g73
sg62
g74
sg49
g50
sS'trials.thisN'
p1056
I88
sg19
I1
sg27
g36
(g38
S'\x00\x00\x00\x00\x00\x00\x1a@'
tRp1057
sg52
g53
sg23
S'2'
sg18
F350.63050136389211
sg33
g34
sg51
g11
sg20
S'1'
sg65
g36
(g77
S'\x00\x00\x00\x00\x00\x00\x00\x00'
tRp1058
sg44
g45
sg40
g41
sg25
F0.37102348310872912
sS'trials.thisIndex'
p1059
g36
(g80
S'H\x00\x00\x00'
tRp1060
sg26
V5
sS'trials.thisRepN'
p1061
I0
sg66
Vsaxophone
p1062
sg63
V../experiment_stimuli/bw_bc_bl/Nonliving_Things/Musical_Inst/saxophone_25.jpg
p1063
sg21
F0.79194633848965168
sS'trials.thisTrialN'
p1064
I88
sa(dp1065
g31
g32
sg17
F353.55174256814644
sg24
I1
sg35
g39
sg14
F353.54693452827632
sg16
g36
(g70
S'\x01\x00\x00\x00'
tRp1066
sg42
g43
sg46
g47
sg15
g72
sg22
F355.66202957555652
sg64
g88
sg62
g89
sg49
g50
sS'trials.thisN'
p1067
I89
sg19
I0
sg27
g36
(g38
S'\x00\x00\x00\x00\x00\x00\x1a@'
tRp1068
sg52
g53
sg23
S'1'
sg18
F354.7795198308304
sg33
g34
sg51
g11
sg20
S'2'
sg65
g36
(g77
S'\x00\x00\x00\x00\x00\x00\x00\x00'
tRp1069
sg44
g45
sg40
g41
sg25
F0.15054691536352038
sS'trials.thisIndex'
p1070
g36
(g80
S"'\x00\x00\x00"
tRp1071
sg26
V5
sS'trials.thisRepN'
p1072
I0
sg66
Vhippopotamus
p1073
sg63
V../experiment_stimuli/bw_bc_bl/Living_Things/Animals/hippopotamus_3.jpg
p1074
sg21
F0.86194215528666973
sS'trials.thisTrialN'
p1075
I89
sa(dp1076
g31
g32
sg17
F357.55049251066521
sg24
I0
sg35
g39
sg14
F357.54562867851928
sg16
g36
(g70
S'\x01\x00\x00\x00'
tRp1077
sg42
g43
sg46
g47
sg15
g101
sg22
F359.36024082964286
sg64
g126
sg62
g74
sg49
g50
sS'trials.thisN'
p1078
I90
sg19
I1
sg27
g36
(g38
S'\x00\x00\x00\x00\x00\x00\x18@'
tRp1079
sg52
g53
sg23
S'3'
sg18
F358.79834194062278
sg33
g34
sg51
g11
sg20
S'1'
sg65
g36
(g77
S'\x00\x00\x00\x00\x00\x00\x00\x00'
tRp1080
sg44
g45
sg40
g41
sg25
F0.15056721959263086
sS'trials.thisIndex'
p1081
g36
(g80
S'\x0f\x00\x00\x00'
tRp1082
sg26
V5
sS'trials.thisRepN'
p1083
I0
sg66
Vchair
p1084
sg63
V../experiment_stimuli/bw_bc_bl/Nonliving_Things/Furniture/chair_10.jpg
p1085
sg21
F0.54142368957400322
sS'trials.thisTrialN'
p1086
I90
sa(dp1087
g31
g32
sg17
F361.24844997888431
sg24
I0
sg35
g39
sg14
F361.24367038952187
sg16
g36
(g70
S'\x02\x00\x00\x00'
tRp1088
sg42
g43
sg46
g47
sg15
g72
sg22
F363.97028337791562
sg64
g218
sg62
g74
sg49
g50
sS'trials.thisN'
p1089
I91
sg19
I1
sg27
g36
(g38
S'\x00\x00\x00\x00\x00\x00\x18@'
tRp1090
sg52
g53
sg23
S'3'
sg18
F362.47625245526433
sg33
g34
sg51
g11
sg20
S'2'
sg65
g36
(g77
S'\x00\x00\x00\x00\x00\x00\x00\x00'
tRp1091
sg44
g45
sg40
g41
sg25
F0.18062758212909102
sS'trials.thisIndex'
p1092
g36
(g80
S'#\x00\x00\x00'
tRp1093
sg26
V5
sS'trials.thisRepN'
p1094
I0
sg66
Vgranary
p1095
sg63
V../experiment_stimuli/bw_bc_bl/Nonliving_Things/Buildings/granary_24.jpg
p1096
sg21
F1.47344302944839
sS'trials.thisTrialN'
p1097
I91
sa(dp1098
g31
g32
sg17
F365.88871100451797
sg24
I1
sg35
g39
sg14
F365.88375219609588
sg16
g36
(g70
S'\x02\x00\x00\x00'
tRp1099
sg42
g43
sg46
g47
sg15
g101
sg22
F367.87875554570928
sg64
g88
sg62
g89
sg49
g50
sS'trials.thisN'
p1100
I92
sg19
I0
sg27
g36
(g38
S'\x00\x00\x00\x00\x00\x00\x18@'
tRp1101
sg52
g53
sg23
S'1'
sg18
F367.11634535947815
sg33
g34
sg51
g11
sg20
S'1'
sg65
g36
(g77
S'\x00\x00\x00\x00\x00\x00\x00\x00'
tRp1102
sg44
g45
sg40
g41
sg25
F0.16056709131225944
sS'trials.thisIndex'
p1103
g36
(g80
S'T\x00\x00\x00'
tRp1104
sg26
V5
sS'trials.thisRepN'
p1105
I0
sg66
Vtiger
p1106
sg63
V../experiment_stimuli/bw_bc_bl/Living_Things/Animals/tiger_25.jpg
p1107
sg21
F0.74183942098170519
sS'trials.thisTrialN'
p1108
I92
sa(dp1109
g31
g32
sg17
F369.77692100359127
sg24
I1
sg35
g39
sg14
F369.77220491366461
sg16
g36
(g70
S'\x01\x00\x00\x00'
tRp1110
sg42
g43
sg46
g47
sg15
g72
sg22
F371.78707011789083
sg64
g206
sg62
g89
sg49
g50
sS'trials.thisN'
p1111
I93
sg19
I0
sg27
g36
(g38
S'\x00\x00\x00\x00\x00\x00\x18@'
tRp1112
sg52
g53
sg23
S'1'
sg18
F371.01481157261878
sg33
g34
sg51
g11
sg20
S'2'
sg65
g36
(g77
S'\x00\x00\x00\x00\x00\x00\x00\x00'
tRp1113
sg44
g45
sg40
g41
sg25
F0.10043890029191971
sS'trials.thisIndex'
p1114
g36
(g80
S'K\x00\x00\x00'
tRp1115
sg26
V5
sS'trials.thisRepN'
p1116
I0
sg66
Vshark
p1117
sg63
V../experiment_stimuli/bw_bc_bl/Living_Things/Marine_creatures/shark_0.jpg
p1118
sg21
F0.7517005386762321
sS'trials.thisTrialN'
p1119
I93
sa(dp1120
g31
g32
sg17
F373.62534146709368
sg24
I0
sg35
g39
sg14
F373.6205873740837
sg16
g36
(g70
S'\x02\x00\x00\x00'
tRp1121
sg42
g43
sg46
g47
sg15
g101
sg22
F376.15671353787184
sg64
g138
sg62
g89
sg49
g50
sS'trials.thisN'
p1122
I94
sg19
I1
sg27
g36
(g38
S'\x00\x00\x00\x00\x00\x00\x18@'
tRp1123
sg52
g53
sg23
S'3'
sg18
F374.87320416048169
sg33
g34
sg51
g11
sg20
S'2'
sg65
g36
(g77
S'\x00\x00\x00\x00\x00\x00\x00\x00'
tRp1124
sg44
g45
sg40
g41
sg25
F0.99237912194803357
sS'trials.thisIndex'
p1125
g36
(g80
S'"\x00\x00\x00'
tRp1126
sg26
V5
sS'trials.thisRepN'
p1127
I0
sg66
Vgoose
p1128
sg63
V../experiment_stimuli/bw_bc_bl/Living_Things/Birds/goose_11.jpg
p1129
sg21
F1.2629698673263192
sS'trials.thisTrialN'
p1130
I94
sa(dp1131
g31
g32
sg17
F378.89673660462722
sg24
I0
sg35
g39
sg14
F378.89203205564991
sg16
g36
(g70
S'\x02\x00\x00\x00'
tRp1132
sg42
g43
sg46
g47
sg15
g72
sg22
F381.07742979144678
sg64
g218
sg62
g74
sg49
g50
sS'trials.thisN'
p1133
I95
sg19
I1
sg27
g36
(g38
S'\x00\x00\x00\x00\x00\x00\x18@'
tRp1134
sg52
g53
sg23
S'2'
sg18
F380.12461605342105
sg33
g34
sg51
g11
sg20
S'2'
sg65
g36
(g77
S'\x00\x00\x00\x00\x00\x00\x00\x00'
tRp1135
sg44
g45
sg40
g41
sg25
F0.29085628176108003
sS'trials.thisIndex'
p1136
g36
(g80
S'\x11\x00\x00\x00'
tRp1137
sg26
V5
sS'trials.thisRepN'
p1138
I0
sg66
Vchurch
p1139
sg63
V../experiment_stimuli/bw_bc_bl/Nonliving_Things/Buildings/church_15.jpg
p1140
sg21
F0.93225656962022185
sS'trials.thisTrialN'
p1141
I95
sasS'loops'
p1142
(lp1143
g1
(cpsychopy.data
TrialHandler
p1144
g3
NtRp1145
(dp1146
S'origin'
p1147
NsS'thisTrial'
p1148
(lp1149
sS'_exp'
p1150
I97317136
sg10
S'trials'
p1151
sg6
I-1
sS'thisRepN'
p1152
I1
sg28
I01
sg29
g30
sS'data'
p1153
g1
(cpsychopy.data
DataHandler
p1154
c__builtin__
dict
p1155
(dp1156
g20
cnumpy.core.multiarray
_reconstruct
p1157
(cnumpy
ndarray
p1158
(I0
tS'b'
tRp1159
(I1
(I96
I1
tg37
(S'O4'
I0
I1
tRp1160
(I3
S'|'
NNNI-1
I-1
I63
tbI00
(lp1161
S'1'
aS'1'
aS'1'
aS'2'
aS'1'
aS'1'
aS'1'
aS'2'
aS'1'
aS'1'
aS'1'
aS'2'
aS'1'
aS'2'
aS'1'
aS'1'
aS'1'
aS'2'
aS'1'
aS'1'
aS'1'
aS'2'
aS'1'
aS'1'
aS'2'
aS'2'
aS'1'
aS'1'
aS'1'
aS'1'
aS'2'
aS'1'
aS'2'
aS'2'
aS'2'
aS'2'
aS'2'
aS'1'
aS'1'
aS'2'
aS'1'
aS'1'
aS'1'
aS'1'
aS'2'
aS'1'
aS'2'
aS'1'
aS'2'
aS'2'
aS'1'
aS'2'
aS'1'
aS'1'
aS'2'
aS'2'
aS'2'
aS'2'
aS'2'
aS'2'
aS'2'
aS'2'
aS'2'
aS'2'
aS'2'
aS'1'
aS'2'
aS'1'
aS'2'
aS'1'
aS'1'
aS'2'
aS'1'
aS'2'
aS'2'
aS'2'
aS'2'
aS'1'
aS'2'
aS'2'
aS'2'
aS'2'
aS'1'
aS'2'
aS'1'
aS'1'
aS'1'
aS'2'
aS'2'
aS'1'
aS'1'
aS'1'
aS'2'
aS'2'
aS'2'
aS'2'
atbsg17
cnumpy.ma.core
_mareconstruct
p1162
(cnumpy.ma.core
MaskedArray
p1163
g1158
(I0
tp1164
S'b'
tRp1165
(I1
(I96
I1
tg37
(S'f4'
I0
I1
tRp1166
(I3
S'<'
NNNI-1
I-1
I0
tbI00
S'-\x80\x92CN\x9a\\C\xb6\x8d\xa3C>\xa3\xaaB\x14Z\x83B\x80\xbe\xa8CC\xa4ICd\xe4\xf1Bh\x17\x9fA\x11\xff\xb1B\'4\x1cC\xbac\x8bBWUoC\xaf\xc1\xf5@\xe0\xbf\x86Cw\xc6\xb2C\xf9\xbd\xacC\xc8r\xbdC)\xc4YB\xa7\xd1\x9fC\x84ZwB\x1b$\x9cC\x9b\n\x83C\xfc\x9c%C\x19\xb9\x00C:T\x94C\xf4\xc5\x8aCMs\xf9B4j\x18Cp\xb9XC\xe4X\x81A\xf3\xd3\xaaC]\x81!C\x9ez\x0cB\x0b\xd0\xbaC\xcd\x9f\xb4CS\xf8\x9dC\xf7/;A\xabl\x9bB\xa0\xc6\xb0C\xfb$=C|\xe4@C\xbfY\x1bB\x89\xe6\xa2B4\xad\xbcAZ\x8c+B\x8af\xd9B~m5C\x94\x1c\x9aCndsCW\xaa\xdaA\xe0T)C\xa9k;B\xf8\xe4JB22\xe1B\xd8\xf7\xa5C\xb1(\x0cC\xcdn\xb9B1\x9e\xa1C5a\x08C(@`C\x10c\xc1Bw\xd1~C\xa0\xf0cC\xa1\xd4\x93B\x8c2\x98C\xd8\xe2\x84C\xf4}\x8eC\x1f\xb0gC\xed,\xfaA]\x19{C\xaef\x04CK\xb2\xaeC{\xa4\xd1B\xb8*9Cr\xe3\xb8C\xb0\x9d\x90C$\xf6DC \xac\x8cC@5QC\x13K\x96Cg]kC*\x96\x14C\x95D\xcaB\xc1\xf1\xb6C\x82\xc0-C\xa8\xf0vC\xf2\x83\xe8B\xea\xd6hB\xeb\x81\x10C\xb1\xd5\x88C",\x81C\xc4.o@\xcb\x8cMC\x80\xb01C\xe6\xf9TC'
S'\x00\x00\x00\x00\x00\x00\x00\x00\x00\x00\x00\x00\x00\x00\x00\x00\x00\x00\x00\x00\x00\x00\x00\x00\x00\x00\x00\x00\x00\x00\x00\x00\x00\x00\x00\x00\x00\x00\x00\x00\x00\x00\x00\x00\x00\x00\x00\x00\x00\x00\x00\x00\x00\x00\x00\x00\x00\x00\x00\x00\x00\x00\x00\x00\x00\x00\x00\x00\x00\x00\x00\x00\x00\x00\x00\x00\x00\x00\x00\x00\x00\x00\x00\x00\x00\x00\x00\x00\x00\x00\x00\x00\x00\x00\x00\x00'
NtbsS'ran'
p1167
g1162
(g1163
g1158
g1164
S'b'
tRp1168
(I1
(I96
I1
tg1166
I00
S'\x00\x00\x80?\x00\x00\x80?\x00\x00\x80?\x00\x00\x80?\x00\x00\x80?\x00\x00\x80?\x00\x00\x80?\x00\x00\x80?\x00\x00\x80?\x00\x00\x80?\x00\x00\x80?\x00\x00\x80?\x00\x00\x80?\x00\x00\x80?\x00\x00\x80?\x00\x00\x80?\x00\x00\x80?\x00\x00\x80?\x00\x00\x80?\x00\x00\x80?\x00\x00\x80?\x00\x00\x80?\x00\x00\x80?\x00\x00\x80?\x00\x00\x80?\x00\x00\x80?\x00\x00\x80?\x00\x00\x80?\x00\x00\x80?\x00\x00\x80?\x00\x00\x80?\x00\x00\x80?\x00\x00\x80?\x00\x00\x80?\x00\x00\x80?\x00\x00\x80?\x00\x00\x80?\x00\x00\x80?\x00\x00\x80?\x00\x00\x80?\x00\x00\x80?\x00\x00\x80?\x00\x00\x80?\x00\x00\x80?\x00\x00\x80?\x00\x00\x80?\x00\x00\x80?\x00\x00\x80?\x00\x00\x80?\x00\x00\x80?\x00\x00\x80?\x00\x00\x80?\x00\x00\x80?\x00\x00\x80?\x00\x00\x80?\x00\x00\x80?\x00\x00\x80?\x00\x00\x80?\x00\x00\x80?\x00\x00\x80?\x00\x00\x80?\x00\x00\x80?\x00\x00\x80?\x00\x00\x80?\x00\x00\x80?\x00\x00\x80?\x00\x00\x80?\x00\x00\x80?\x00\x00\x80?\x00\x00\x80?\x00\x00\x80?\x00\x00\x80?\x00\x00\x80?\x00\x00\x80?\x00\x00\x80?\x00\x00\x80?\x00\x00\x80?\x00\x00\x80?\x00\x00\x80?\x00\x00\x80?\x00\x00\x80?\x00\x00\x80?\x00\x00\x80?\x00\x00\x80?\x00\x00\x80?\x00\x00\x80?\x00\x00\x80?\x00\x00\x80?\x00\x00\x80?\x00\x00\x80?\x00\x00\x80?\x00\x00\x80?\x00\x00\x80?\x00\x00\x80?\x00\x00\x80?\x00\x00\x80?'
S'\x00\x00\x00\x00\x00\x00\x00\x00\x00\x00\x00\x00\x00\x00\x00\x00\x00\x00\x00\x00\x00\x00\x00\x00\x00\x00\x00\x00\x00\x00\x00\x00\x00\x00\x00\x00\x00\x00\x00\x00\x00\x00\x00\x00\x00\x00\x00\x00\x00\x00\x00\x00\x00\x00\x00\x00\x00\x00\x00\x00\x00\x00\x00\x00\x00\x00\x00\x00\x00\x00\x00\x00\x00\x00\x00\x00\x00\x00\x00\x00\x00\x00\x00\x00\x00\x00\x00\x00\x00\x00\x00\x00\x00\x00\x00\x00'
Ntbsg24
g1162
(g1163
g1158
g1164
S'b'
tRp1169
(I1
(I96
I1
tg1166
I00
S'\x00\x00\x00\x00\x00\x00\x00\x00\x00\x00\x00\x00\x00\x00\x80?\x00\x00\x80?\x00\x00\x00\x00\x00\x00\x80?\x00\x00\x00\x00\x00\x00\x00\x00\x00\x00\x00\x00\x00\x00\x00\x00\x00\x00\x00\x00\x00\x00\x00\x00\x00\x00\x80?\x00\x00\x00\x00\x00\x00\x00\x00\x00\x00\x00\x00\x00\x00\x00\x00\x00\x00\x00\x00\x00\x00\x00\x00\x00\x00\x00\x00\x00\x00\x00\x00\x00\x00\x00\x00\x00\x00\x00\x00\x00\x00\x80?\x00\x00\x00\x00\x00\x00\x00\x00\x00\x00\x00\x00\x00\x00\x00\x00\x00\x00\x00\x00\x00\x00\x00\x00\x00\x00\x00\x00\x00\x00\x80?\x00\x00\x80?\x00\x00\x00\x00\x00\x00\x00\x00\x00\x00\x00\x00\x00\x00\x00\x00\x00\x00\x00\x00\x00\x00\x80?\x00\x00\x00\x00\x00\x00\x00\x00\x00\x00\x00\x00\x00\x00\x80?\x00\x00\x00\x00\x00\x00\x00\x00\x00\x00\x80?\x00\x00\x00\x00\x00\x00\x80?\x00\x00\x80?\x00\x00\x00\x00\x00\x00\x00\x00\x00\x00\x00\x00\x00\x00\x00\x00\x00\x00\x80?\x00\x00\x80?\x00\x00\x00\x00\x00\x00\x00\x00\x00\x00\x80?\x00\x00\x80?\x00\x00\x00\x00\x00\x00\x00\x00\x00\x00\x80?\x00\x00\x80?\x00\x00\x80?\x00\x00\x80?\x00\x00\x80?\x00\x00\x00\x00\x00\x00\x80?\x00\x00\x00\x00\x00\x00\x00\x00\x00\x00\x00\x00\x00\x00\x00\x00\x00\x00\x80?\x00\x00\x80?\x00\x00\x80?\x00\x00\x80?\x00\x00\x80?\x00\x00\x80?\x00\x00\x00\x00\x00\x00\x80?\x00\x00\x00\x00\x00\x00\x00\x00\x00\x00\x00\x00\x00\x00\x80?\x00\x00\x00\x00\x00\x00\x00\x00\x00\x00\x00\x00\x00\x00\x80?\x00\x00\x00\x00\x00\x00\x00\x00\x00\x00\x00\x00\x00\x00\x00\x00\x00\x00\x00\x00\x00\x00\x80?\x00\x00\x00\x00'
S'\x00\x00\x00\x00\x00\x00\x00\x00\x00\x00\x00\x00\x00\x00\x00\x00\x00\x00\x00\x00\x00\x00\x00\x00\x00\x00\x00\x00\x00\x00\x00\x00\x00\x00\x00\x00\x00\x00\x00\x00\x00\x00\x00\x00\x00\x00\x00\x00\x00\x00\x00\x00\x00\x00\x00\x00\x00\x00\x00\x00\x00\x00\x00\x00\x00\x00\x00\x00\x00\x00\x00\x00\x00\x00\x00\x00\x00\x00\x00\x00\x00\x00\x00\x00\x00\x00\x00\x00\x00\x00\x00\x00\x00\x00\x00\x00'
Ntbsg14
g1162
(g1163
g1158
g1164
S'b'
tRp1170
(I1
(I96
I1
tg1166
I00
S'g\x7f\x92C\x11\x99\\C\xbb\x8c\xa3C\xb0\xa0\xaaB\xa0W\x83B\xb3\xbd\xa8C\x00\xa3IC\xf1\xe1\xf1B\x8d\r\x9fA\xd2\xfb\xb1B\xac2\x1cC7a\x8bB"ToC,\x9a\xf5@C\xbf\x86C\xd7\xc5\xb2C]\xbd\xacC.r\xbdC5\xbfYB\r\xd1\x9fC\xc8TwB|#\x9cC\xff\t\x83C\xc0\x9b%C\xdc\xb7\x00C\x9eS\x94CX\xc5\x8aCbp\xf9B\xe2h\x18C0\xb8XC\xe6N\x81AW\xd3\xaaC\xdd\x7f!Cwu\x0cBo\xcf\xbaC1\x9f\xb4C\xb4\xf7\x9dC\xd8\x19;A#j\x9bB\x02\xc6\xb0C\xb9#=CA\xe3@C\xcdT\x1bB\x10\xe4\xa2B3\xa3\xbcA\xc2\x86+B\xabc\xd9B:l5C\xf5\x1b\x9aC1csCT\x9f\xdaA\x94S)C\xa3f;B\xe5\xdfJB\xb0/\xe1B\x08\xf7\xa5C.\'\x0cC|k\xb9B\x92\x9d\xa1C\xf5_\x08C\xf0>`C\x8b`\xc1B\xf3\xcf~C\x12\xefcCo\xd1\x93B\xee1\x98C\x10\xe2\x84C,}\x8eC\x99\xaegC}!\xfaA\x1f\x18{Cle\x04C\xa6\xb1\xaeC\xea\xa1\xd1B0)9C\xd8\xe2\xb8C\x12\x9d\x90C\xdf\xf4DC\x84\xab\x8cC\x024QCxJ\x96C*\\kC\xd5\x94\x14C\xa6A\xcaB\x1f\xf1\xb6C\x00\xbf-Cg\xefvC\x8e\x80\xe8B\xd3\xd1hB\xa4\x80\x10C\xe6\xd4\x88C\x84+\x81C\xe2\xdam@\x92\x8bMCF\xaf1C\xaa\xf8TC'
S'\x00\x00\x00\x00\x00\x00\x00\x00\x00\x00\x00\x00\x00\x00\x00\x00\x00\x00\x00\x00\x00\x00\x00\x00\x00\x00\x00\x00\x00\x00\x00\x00\x00\x00\x00\x00\x00\x00\x00\x00\x00\x00\x00\x00\x00\x00\x00\x00\x00\x00\x00\x00\x00\x00\x00\x00\x00\x00\x00\x00\x00\x00\x00\x00\x00\x00\x00\x00\x00\x00\x00\x00\x00\x00\x00\x00\x00\x00\x00\x00\x00\x00\x00\x00\x00\x00\x00\x00\x00\x00\x00\x00\x00\x00\x00\x00'
Ntbsg16
g1157
(g1158
(I0
tS'b'
tRp1171
(I1
(I96
I1
tg1160
I00
(lp1172
g901
ag692
ag1000
ag318
ag262
ag1022
ag637
ag417
ag125
ag329
ag516
ag273
ag747
ag87
ag835
ag1077
ag1044
ag1132
ag229
ag978
ag251
ag956
ag813
ag538
ag439
ag912
ag857
ag428
ag505
ag681
ag113
ag1033
ag527
ag171
ag1121
ag1088
ag967
ag100
ag296
ag1066
ag604
ag615
ag182
ag307
ag137
ag193
ag384
ag582
ag945
ag758
ag149
ag549
ag205
ag217
ag395
ag1011
ag472
ag340
ag989
ag461
ag703
ag351
ag791
ag714
ag285
ag934
ag824
ag879
ag725
ag160
ag780
ag450
ag1055
ag373
ag593
ag1110
ag890
ag626
ag868
ag659
ag923
ag736
ag494
ag362
ag1099
ag560
ag769
ag406
ag240
ag483
ag846
ag802
ag71
ag648
ag571
ag670
atbsg15
g1157
(g1158
(I0
tS'b'
tRp1173
(I1
(I96
I1
tg1160
I00
(lp1174
g101
ag72
ag101
ag101
ag101
ag101
ag72
ag72
ag101
ag101
ag101
ag72
ag72
ag72
ag101
ag101
ag101
ag72
ag101
ag101
ag101
ag101
ag101
ag72
ag72
ag72
ag101
ag101
ag101
ag72
ag72
ag101
ag72
ag72
ag101
ag72
ag72
ag101
ag101
ag72
ag72
ag101
ag101
ag72
ag72
ag101
ag101
ag101
ag101
ag101
ag101
ag72
ag101
ag101
ag101
ag101
ag72
ag101
ag72
ag72
ag101
ag101
ag101
ag101
ag72
ag72
ag72
ag101
ag101
ag101
ag101
ag72
ag101
ag72
ag101
ag72
ag72
ag101
ag72
ag72
ag72
ag72
ag101
ag72
ag101
ag101
ag101
ag72
ag72
ag101
ag101
ag101
ag72
ag72
ag72
ag101
atbsg22
g1162
(g1163
g1158
g1164
S'b'
tRp1175
(I1
(I96
I1
tg1166
I00
S"\x89b\x93C/l^C\xa9\r\xa5C\x04L\xaeB\xd8s\x87B\xd8\xdb\xa9C\xe2\x94KC\xca\xa1\xf5B\xe3\xba\xadA\xab\xbb\xb5B\x16\xad\x1fCR\xee\x8fBm\x90qCI \x1dAb\xe6\x87C\x1c\xae\xb3Cl\xc4\xadC\xe9\x89\xbeCx|aB\xe3\xb2\xa0CBn\x7fBx\n\x9dC\x1c\xf6\x83C\x1cy'C\x88\x8d\x02C\xabZ\x95CH\xbe\x8bC+\xca\xfdB\xefM\x1aCx\xb9ZC2\xd3\x8fA\xde\xc5\xabC\xb7\xbe#C/\xf5\x13B\x0f\x14\xbcC2\xfc\xb5C\x88\xe2\x9eC{qeA@4\x9fB\xbd\xd4\xb1C\xc9\x08?CG\x15CC$'$B\x90\xbd\xa6B\x14\xb7\xcbA\x02\x074B\xbfz\xddB\xaeN7C\xf34\x9bC\xa2\x1cuC\xd1v\xebA\xd2\xa1+C\xcd\x94CB\xd5iRB\xe3\xd5\xe4B\xa2\x88\xa7C\x91z\x0eCz\xa6\xbdB\xe9\x9c\xa2C\x8aY\nC\xe8\x0cbC\x8d\x9b\xc5BI>\x80CF\xd9eCW\xba\x97B\x9c \x99C\xbf\xd0\x85C\x1cv\x8fCC\x84iC\xdc\x15\x05B\x18\xe6|C\xec\x82\x06C\xb4\xb8\xafC4\xaa\xd5B\xa5X;C\xbf\xe4\xb9C*\x92\x91CW\xe9FC\xef\x8f\x8dC\xe7%SCo:\x97C\x89tmCH\x89\x16C\xfb\xec\xcdB{\xf0\xb7C\xee\xd9/C\x858yC\xbc\xe9\xecB\x0b\x1epB\xed\x81\x12C\xdd\xc4\x89C\x0b\x1e\x82C\xacC\xbb@kTOCX\x943Cj\xe5VC"
S'\x00\x00\x00\x00\x00\x00\x00\x00\x00\x00\x00\x00\x00\x00\x00\x00\x00\x00\x00\x00\x00\x00\x00\x00\x00\x00\x00\x00\x00\x00\x00\x00\x00\x00\x00\x00\x00\x00\x00\x00\x00\x00\x00\x00\x00\x00\x00\x00\x00\x00\x00\x00\x00\x00\x00\x00\x00\x00\x00\x00\x00\x00\x00\x00\x00\x00\x00\x00\x00\x00\x00\x00\x00\x00\x00\x00\x00\x00\x00\x00\x00\x00\x00\x00\x00\x00\x00\x00\x00\x00\x00\x00\x00\x00\x00\x00'
Ntbsg26
g1157
(g1158
(I0
tS'b'
tRp1176
(I1
(I96
I1
tg1160
I00
(lp1177
g36
(g80
S'\x02\x00\x00\x00'
tRp1178
aI1
ag36
(g80
S'\x04\x00\x00\x00'
tRp1179
ag36
(g80
S'\x05\x00\x00\x00'
tRp1180
ag36
(g80
S'\x01\x00\x00\x00'
tRp1181
ag36
(g80
S'\x05\x00\x00\x00'
tRp1182
ag36
(g80
S'\x03\x00\x00\x00'
tRp1183
ag36
(g80
S'\x05\x00\x00\x00'
tRp1184
ag36
(g80
S'\x02\x00\x00\x00'
tRp1185
ag36
(g80
S'\x07\x00\x00\x00'
tRp1186
aI1
ag36
(g80
S'\x03\x00\x00\x00'
tRp1187
ag36
(g80
S'\x01\x00\x00\x00'
tRp1188
ag36
(g80
S'\x02\x00\x00\x00'
tRp1189
ag36
(g80
S'\x02\x00\x00\x00'
tRp1190
ag36
(g80
S'\x03\x00\x00\x00'
tRp1191
ag36
(g80
S'\x01\x00\x00\x00'
tRp1192
ag36
(g80
S'\x01\x00\x00\x00'
tRp1193
aI1
ag36
(g80
S'\x02\x00\x00\x00'
tRp1194
ag36
(g80
S'\x02\x00\x00\x00'
tRp1195
ag36
(g80
S'\x06\x00\x00\x00'
tRp1196
ag36
(g80
S'\x02\x00\x00\x00'
tRp1197
ag36
(g80
S'\x04\x00\x00\x00'
tRp1198
ag36
(g80
S'\x01\x00\x00\x00'
tRp1199
aI1
aI1
ag36
(g80
S'\x02\x00\x00\x00'
tRp1200
aI1
aI1
ag36
(g80
S'\x04\x00\x00\x00'
tRp1201
ag36
(g80
S'\x03\x00\x00\x00'
tRp1202
aI1
aI1
ag36
(g80
S'\x03\x00\x00\x00'
tRp1203
ag36
(g80
S'\x01\x00\x00\x00'
tRp1204
ag36
(g80
S'\x04\x00\x00\x00'
tRp1205
ag36
(g80
S'\x05\x00\x00\x00'
tRp1206
ag36
(g80
S'\x03\x00\x00\x00'
tRp1207
aI1
ag36
(g80
S'\x03\x00\x00\x00'
tRp1208
aI1
ag36
(g80
S'\x04\x00\x00\x00'
tRp1209
ag36
(g80
S'\x02\x00\x00\x00'
tRp1210
aI1
ag36
(g80
S'\x03\x00\x00\x00'
tRp1211
ag36
(g80
S'\x02\x00\x00\x00'
tRp1212
ag36
(g80
S'\x03\x00\x00\x00'
tRp1213
ag36
(g80
S'\x05\x00\x00\x00'
tRp1214
aI1
aI1
ag36
(g80
S'\x02\x00\x00\x00'
tRp1215
aI1
aI1
ag36
(g80
S'\x03\x00\x00\x00'
tRp1216
ag36
(g80
S'\x03\x00\x00\x00'
tRp1217
ag36
(g80
S'\x05\x00\x00\x00'
tRp1218
ag36
(g80
S'\x05\x00\x00\x00'
tRp1219
ag36
(g80
S'\x01\x00\x00\x00'
tRp1220
ag36
(g80
S'\x02\x00\x00\x00'
tRp1221
aI1
ag36
(g80
S'\x03\x00\x00\x00'
tRp1222
aI1
aI1
ag36
(g80
S'\x01\x00\x00\x00'
tRp1223
ag36
(g80
S'\x02\x00\x00\x00'
tRp1224
ag36
(g80
S'\x01\x00\x00\x00'
tRp1225
ag36
(g80
S'\x02\x00\x00\x00'
tRp1226
ag36
(g80
S'\x02\x00\x00\x00'
tRp1227
aI1
ag36
(g80
S'\x01\x00\x00\x00'
tRp1228
ag36
(g80
S'\x04\x00\x00\x00'
tRp1229
aI1
aI1
ag36
(g80
S'\x01\x00\x00\x00'
tRp1230
ag36
(g80
S'\x02\x00\x00\x00'
tRp1231
aI1
aI1
aI1
ag36
(g80
S'\x03\x00\x00\x00'
tRp1232
aI1
ag36
(g80
S'\x03\x00\x00\x00'
tRp1233
ag36
(g80
S'\x01\x00\x00\x00'
tRp1234
ag36
(g80
S'\x02\x00\x00\x00'
tRp1235
aI1
aI1
ag36
(g80
S'\x03\x00\x00\x00'
tRp1236
ag36
(g80
S'\x06\x00\x00\x00'
tRp1237
aI1
ag36
(g80
S'\x04\x00\x00\x00'
tRp1238
aI1
ag36
(g80
S'\x03\x00\x00\x00'
tRp1239
aS'5.0'
p1240
ag36
(g80
S'\x05\x00\x00\x00'
tRp1241
aI1
aI1
atbsg21
g1162
(g1163
g1158
g1164
S'b'
tRp1242
(I1
(I96
I1
tg1166
I00
S'\xff\xe6\x02?\xa0\xbc\x0f?v\xae\xdc?\x96\x99\n?\x97NM?\x80\xa9n?\xab\xf3+?\x1c\xdd\x14?\xb1K\x12?Y\xba\x0f?xg\x0e@\xdbN\x80?\xbe\xecx?W\xd4a?\x9f\'\x84?\xbe\x9a\n?{MM?^\xa8n?b\x84.?\xe6K\x00?<\x00C?aW\x00?\x99\xdc\x14?\xc7\xdd\x14?\x82\xde\x14?\x9fMM?\x8f\x151?1\x86i?FA$?\xa7\xe9=?\xf1\t\x08?\x9d\x8e\x1c?"\r~?\r \x1f?\xff\xa8\xa1?\xc8\x99\xbc?**\r?\xac4\xad?\xc3\x1f\x1f?>\xa8\\?\x87 \x1f?\x11:q?.\x17l?\x0cc)?x\xb0!?\xd1!Z?\xde,H?_\xf3\x19?\xb9Zd?\xe0G\xf1>\xd6!Z?\\p\x85?O\xbdJ?-\xb0!?\xab*\r?\xb7\xa0\xee?\x14)\x84?\x8doR?\xe7M;?%76?B\t\x08?\xb7\x90W?r\xa0\xd7>\xec\xd2&?\xc4\xa63?9\xfe\x19?\xb9\xfe\x19?\xfd\x84.?\xeaK\x12?\xf6y@?M\x99\n?\x0f\x00U?\xff\xbcJ?\x14\xc7@?Y\xa8n?ro@?-c)?Q\xaa3?\xdex\x05?\xb9\xf3+?\xc2\x8e\x1c?\x94oR?:\xa63?\xedK\x12?0\xe9=?\xb3!Z?\xbb\x97\x81?\x02\xf6f?\xd0@\x12?s\xc78?c\x8e\x1c?\xcc\x8e\x1c?\xbeoR?\x1cl\xf6>\xffA$?\xe8b)?'
S'\x00\x00\x00\x00\x00\x00\x00\x00\x00\x00\x00\x00\x00\x00\x00\x00\x00\x00\x00\x00\x00\x00\x00\x00\x00\x00\x00\x00\x00\x00\x00\x00\x00\x00\x00\x00\x00\x00\x00\x00\x00\x00\x00\x00\x00\x00\x00\x00\x00\x00\x00\x00\x00\x00\x00\x00\x00\x00\x00\x00\x00\x00\x00\x00\x00\x00\x00\x00\x00\x00\x00\x00\x00\x00\x00\x00\x00\x00\x00\x00\x00\x00\x00\x00\x00\x00\x00\x00\x00\x00\x00\x00\x00\x00\x00\x00'
NtbsS'order'
p1243
g1162
(g1163
g1158
g1164
S'b'
tRp1244
(I1
(I96
I1
tg1166
I00
S'\x00\x00\x94B\x00\x00\\B\x00\x00\xa6B\x00\x00\xa8A\x00\x00\x80A\x00\x00\xaaB\x00\x00HB\x00\x00\xf0A\x00\x00\x80@\x00\x00\xb0A\x00\x00\x1cB\x00\x00\x88A\x00\x00pB\x00\x00\x80?\x00\x00\x88B\x00\x00\xb4B\x00\x00\xaeB\x00\x00\xbeB\x00\x00PA\x00\x00\xa2B\x00\x00pA\x00\x00\x9eB\x00\x00\x84B\x00\x00$B\x00\x00\x00B\x00\x00\x96B\x00\x00\x8cB\x00\x00\xf8A\x00\x00\x18B\x00\x00XB\x00\x00@@\x00\x00\xacB\x00\x00 B\x00\x00\x00A\x00\x00\xbcB\x00\x00\xb6B\x00\x00\xa0B\x00\x00\x00@\x00\x00\x98A\x00\x00\xb2B\x00\x00<B\x00\x00@B\x00\x00\x10A\x00\x00\xa0A\x00\x00\xa0@\x00\x00 A\x00\x00\xd8A\x00\x004B\x00\x00\x9cB\x00\x00tB\x00\x00\xc0@\x00\x00(B\x00\x000A\x00\x00@A\x00\x00\xe0A\x00\x00\xa8B\x00\x00\x0cB\x00\x00\xb8A\x00\x00\xa4B\x00\x00\x08B\x00\x00`B\x00\x00\xc0A\x00\x00\x80B\x00\x00dB\x00\x00\x90A\x00\x00\x9aB\x00\x00\x86B\x00\x00\x90B\x00\x00hB\x00\x00\xe0@\x00\x00|B\x00\x00\x04B\x00\x00\xb0B\x00\x00\xd0A\x00\x008B\x00\x00\xbaB\x00\x00\x92B\x00\x00DB\x00\x00\x8eB\x00\x00PB\x00\x00\x98B\x00\x00lB\x00\x00\x14B\x00\x00\xc8A\x00\x00\xb8B\x00\x00,B\x00\x00xB\x00\x00\xe8A\x00\x00`A\x00\x00\x10B\x00\x00\x8aB\x00\x00\x82B\x00\x00\x00\x00\x00\x00LB\x00\x000B\x00\x00TB'
S'\x00\x00\x00\x00\x00\x00\x00\x00\x00\x00\x00\x00\x00\x00\x00\x00\x00\x00\x00\x00\x00\x00\x00\x00\x00\x00\x00\x00\x00\x00\x00\x00\x00\x00\x00\x00\x00\x00\x00\x00\x00\x00\x00\x00\x00\x00\x00\x00\x00\x00\x00\x00\x00\x00\x00\x00\x00\x00\x00\x00\x00\x00\x00\x00\x00\x00\x00\x00\x00\x00\x00\x00\x00\x00\x00\x00\x00\x00\x00\x00\x00\x00\x00\x00\x00\x00\x00\x00\x00\x00\x00\x00\x00\x00\x00\x00'
Ntbsg19
g1162
(g1163
g1158
g1164
S'b'
tRp1245
(I1
(I96
I1
tg1166
I00
S'\x00\x00\x80?\x00\x00\x80?\x00\x00\x80?\x00\x00\x00\x00\x00\x00\x00\x00\x00\x00\x80?\x00\x00\x00\x00\x00\x00\x80?\x00\x00\x80?\x00\x00\x80?\x00\x00\x00\x00\x00\x00\x80?\x00\x00\x00\x00\x00\x00\x00\x00\x00\x00\x80?\x00\x00\x80?\x00\x00\x00\x00\x00\x00\x80?\x00\x00\x80?\x00\x00\x80?\x00\x00\x00\x00\x00\x00\x80?\x00\x00\x80?\x00\x00\x80?\x00\x00\x00\x00\x00\x00\x80?\x00\x00\x00\x00\x00\x00\x00\x00\x00\x00\x80?\x00\x00\x00\x00\x00\x00\x80?\x00\x00\x80?\x00\x00\x00\x00\x00\x00\x00\x00\x00\x00\x80?\x00\x00\x80?\x00\x00\x80?\x00\x00\x80?\x00\x00\x00\x00\x00\x00\x00\x00\x00\x00\x80?\x00\x00\x80?\x00\x00\x00\x00\x00\x00\x80?\x00\x00\x00\x00\x00\x00\x00\x00\x00\x00\x00\x00\x00\x00\x80?\x00\x00\x80?\x00\x00\x80?\x00\x00\x00\x00\x00\x00\x00\x00\x00\x00\x00\x00\x00\x00\x80?\x00\x00\x00\x00\x00\x00\x80?\x00\x00\x00\x00\x00\x00\x80?\x00\x00\x80?\x00\x00\x00\x00\x00\x00\x80?\x00\x00\x80?\x00\x00\x00\x00\x00\x00\x80?\x00\x00\x80?\x00\x00\x80?\x00\x00\x80?\x00\x00\x00\x00\x00\x00\x80?\x00\x00\x80?\x00\x00\x00\x00\x00\x00\x80?\x00\x00\x80?\x00\x00\x00\x00\x00\x00\x80?\x00\x00\x00\x00\x00\x00\x80?\x00\x00\x80?\x00\x00\x80?\x00\x00\x00\x00\x00\x00\x00\x00\x00\x00\x80?\x00\x00\x00\x00\x00\x00\x80?\x00\x00\x00\x00\x00\x00\x00\x00\x00\x00\x80?\x00\x00\x80?\x00\x00\x80?\x00\x00\x80?\x00\x00\x00\x00\x00\x00\x80?\x00\x00\x80?\x00\x00\x80?\x00\x00\x00\x00\x00\x00\x80?'
S'\x00\x00\x00\x00\x00\x00\x00\x00\x00\x00\x00\x00\x00\x00\x00\x00\x00\x00\x00\x00\x00\x00\x00\x00\x00\x00\x00\x00\x00\x00\x00\x00\x00\x00\x00\x00\x00\x00\x00\x00\x00\x00\x00\x00\x00\x00\x00\x00\x00\x00\x00\x00\x00\x00\x00\x00\x00\x00\x00\x00\x00\x00\x00\x00\x00\x00\x00\x00\x00\x00\x00\x00\x00\x00\x00\x00\x00\x00\x00\x00\x00\x00\x00\x00\x00\x00\x00\x00\x00\x00\x00\x00\x00\x00\x00\x00'
Ntbsg27
g1157
(g1158
(I0
tS'b'
tRp1246
(I1
(I96
I1
tg1160
I00
(lp1247
g903
ag694
ag1002
ag320
ag264
ag1024
ag639
ag419
ag128
ag331
ag518
ag276
ag749
ag91
ag837
ag1079
ag1046
ag1134
ag231
ag980
ag253
ag958
ag815
ag540
ag441
ag914
ag859
ag430
ag507
ag683
ag116
ag1035
ag529
ag173
ag1123
ag1090
ag969
ag104
ag298
ag1068
ag606
ag617
ag184
ag309
ag140
ag196
ag386
ag584
ag947
ag760
ag151
ag551
ag208
ag220
ag397
ag1013
ag474
ag342
ag991
ag463
ag705
ag353
ag793
ag716
ag287
ag936
ag826
ag881
ag727
ag162
ag782
ag452
ag1057
ag375
ag595
ag1112
ag892
ag628
ag870
ag661
ag925
ag738
ag496
ag364
ag1101
ag562
ag771
ag408
ag242
ag485
ag848
ag804
ag76
ag650
ag573
ag672
atbsg23
g1157
(g1158
(I0
tS'b'
tRp1248
(I1
(I96
I1
tg1160
I00
(lp1249
S'3'
aS'2'
aS'2'
aS'1'
aS'1'
aS'3'
aS'1'
aS'3'
aS'3'
aS'3'
aS'2'
aS'3'
aS'2'
aS'1'
aS'3'
aS'3'
aS'2'
aS'2'
aS'2'
aS'2'
aS'2'
aS'3'
aS'2'
aS'3'
aS'1'
aS'3'
aS'2'
aS'2'
aS'2'
aS'2'
aS'3'
aS'3'
aS'1'
aS'1'
aS'3'
aS'3'
aS'3'
aS'2'
aS'2'
aS'1'
aS'3'
aS'2'
aS'2'
aS'1'
aS'3'
aS'3'
aS'1'
aS'3'
aS'1'
aS'1'
aS'3'
aS'3'
aS'2'
aS'2'
aS'1'
aS'1'
aS'2'
aS'3'
aS'1'
aS'1'
aS'3'
aS'2'
aS'1'
aS'1'
aS'1'
aS'1'
aS'1'
aS'3'
aS'1'
aS'2'
aS'2'
aS'3'
aS'2'
aS'1'
aS'1'
aS'1'
aS'1'
aS'1'
aS'1'
aS'3'
aS'1'
aS'3'
aS'2'
aS'3'
aS'1'
aS'2'
aS'3'
aS'2'
aS'1'
aS'3'
aS'2'
aS'2'
aS'3'
aS'3'
aS'1'
aS'3'
atbsg18
g1162
(g1163
g1158
g1164
S'b'
tRp1250
(I1
(I96
I1
tg1166
I00
S't\x1e\x93C,\xd7]CY.\xa4CK,\xadB\xb5\xce\x85B\xe2a\xa9C\xab\xe3JC\x8bm\xf4Bb\xfe\xa8A\xb0\x91\xb4B6n\x1dC\x8f\xe2\x8dB>\x92pC\xdb\xae\x0eA\x99_\x87C0f\xb3C"[\xadC\xf3\x0f\xbeC]\xad^B\x1bp\xa0C5M|B\xab\xc7\x9cC\r\xa9\x83C\xfc\xde&Cf\xf3\x01Cc\xf1\x94C\x1cc\x8bC\x99\xec\xfbBl\xa4\x19CM\xf6YC\xceh\x8bA\xf5t\xabCf\xbb"C\xa3c\x11B\xc5o\xbbC\xf6<\xb5CR\x99\x9eC\xc8vOA|\xeb\x9dB\xc7c\xb1Cdd>C\xca\x1eBC\xc0a BF`\xa5Bp\x7f\xc6Ar\x890B\xe1\xdf\xdbB\xe6\xac6C$\xc0\x9aC\xbc\x9etC\xa5{\xe4A\xaf\x91*C\xccT@B\x0b\xceOB\x07\xb1\xe3B_\x97\xa6C\xfcl\rC\x17\xf7\xbbB\xa0<\xa2C\x10\x9e\tC\x0b}aC\xe3\xe1\xc3B\xbf\x05\x80C--eC\x83H\x96B\xfc\xd0\x98C\x1d\x81\x85C9\x1c\x8fC\xb4\xechC\xe9\xfe\x01B:V|C\xa9\xa8\x05C\xb4P\xafC\xff\x18\xd4B\xbad:C\xe5\x81\xb9C\xd8:\x91Ci0FC\x92J\x8dC\xaetRC=\xe8\x96C\xd6\x9clC_\xd0\x15C\xdc\xbd\xccB\xe4\x8e\xb7C\x89\xfa.C\x140xCL\x11\xebB\xfe\xbfmB\xe1\xc3\x11C\xf4s\x89C\xda\xcb\x81C*\xf9\x9f@\xa6\xd1NC\xce\xea2C\xc66VC'
S'\x00\x00\x00\x00\x00\x00\x00\x00\x00\x00\x00\x00\x00\x00\x00\x00\x00\x00\x00\x00\x00\x00\x00\x00\x00\x00\x00\x00\x00\x00\x00\x00\x00\x00\x00\x00\x00\x00\x00\x00\x00\x00\x00\x00\x00\x00\x00\x00\x00\x00\x00\x00\x00\x00\x00\x00\x00\x00\x00\x00\x00\x00\x00\x00\x00\x00\x00\x00\x00\x00\x00\x00\x00\x00\x00\x00\x00\x00\x00\x00\x00\x00\x00\x00\x00\x00\x00\x00\x00\x00\x00\x00\x00\x00\x00\x00'
Ntbsg25
g1162
(g1163
g1158
g1164
S'b'
tRp1251
(I1
(I96
I1
tg1166
I00
S"\xbf9\x1a>}8\xb9=:*\xb9=\xc4\xea\xe1=\x18Hl>\xe6uM>pEl>\x99\xb4.>\xb0\xa1\x05>\xb17\xe2=\xe2)\xb9=\xd6\xbbW>\xd87\xb9=\x91\xe9\x0f>\xa8\xad\x05>K.\x1a>\x18\xbf\xf6=\x1d\xeb\x94>\xf6\xb3\xcd=\xfe\xbb\xcd=\xc2\xa5\xa4=\r\xbf\xf6=\xe7:\xe2=@\xdd\xf6=\xef9\xe2=\x94\xe5\x0f>-\xc6\xf6=\xc0+\xb9=\x01y$>\xcf\xbe\x0f>Y\xaf.>\x98\x84M>\xc8\xa2\x05>\n5\xe2=\x8f\x0c~?p\xf68>\xea\xa0\x05>\x91*\xb9=r:\xe2=\xf8(\x1a>;\xc0\xf6=\xd1\xe4\x0f>\xdb4\xe2=\xe0\xbaW>\xaa\xa4\x05>\x89<\xe2=\xb7\xbb\xf6=\x85\xc0\xf6=\x8e\xa4\x05>\x9a(\xb9=t\xb4\xcd={\x18\xc3>\x82.\xb9=o\xb8\xcd='\xb2\xcd=\xc8\x83.?U\xea\x94>\xeb\xa8\x05>\x9c\xf3\x0f>\xac \x90=\x133\x1a>\xd6l\x17?f\xbc\xf6=e\xc8\xcd=\xb5:\xe2=\x96Al>}\xa3\x05>KO\x12?@6\xe2=\x80;\xe2=\x84\xfe8>\xf1\xa3\x05>\xca\xf6\xbd>T{\x05>ZNw=\xe9\xb2\xcd=x\xbe\xf6=\x98\x0c~?\xb2\xbd\xf6=\xd1.\xb9=\nyM>\xc7\xe8\x0f>x\xe4\x0f>\x81\xc6\xf6=\xb3k$>\x89\xbb\xcd=\xfe\xf3\x0f>\x1ez@?\x0e*\x90=\x04\x92\xae>\x86\xa6\x8a>\x1f5\xe2=\xb0(\xb9=i\xe7\x0f>\x969\xe2=w,\xb9="
S'\x00\x00\x00\x00\x00\x00\x00\x00\x00\x00\x00\x00\x00\x00\x00\x00\x00\x00\x00\x00\x00\x00\x00\x00\x00\x00\x00\x00\x00\x00\x00\x00\x00\x00\x00\x00\x00\x00\x00\x00\x00\x00\x00\x00\x00\x00\x00\x00\x00\x00\x00\x00\x00\x00\x00\x00\x00\x00\x00\x00\x00\x00\x00\x00\x00\x00\x00\x00\x00\x00\x00\x00\x00\x00\x00\x00\x00\x00\x00\x00\x00\x00\x00\x00\x00\x00\x00\x00\x00\x00\x00\x00\x00\x00\x00\x00'
NtbstRp1252
(dp1253
S'isNumeric'
p1254
(dp1255
g23
I00
sg20
I00
sg17
I01
sg1167
I01
sg22
I01
sg24
I01
sg14
I01
sg18
I01
sg16
I00
sg19
I01
sg26
I00
sg27
I00
sg15
I00
sg21
I01
sg1243
I01
sg25
I01
ssg1151
g1145
sS'dataTypes'
p1256
(lp1257
g1167
ag1243
ag14
ag15
ag16
ag17
ag18
ag19
ag20
ag21
ag22
ag23
ag24
ag25
ag26
ag27
asS'dataShape'
p1258
(lp1259
I96
aI1
asbsS'method'
p1260
S'random'
p1261
sS'sequenceIndices'
p1262
g1157
(g1158
(I0
tS'b'
tRp1263
(I1
(I96
I1
tg80
I01
S'\\\x00\x00\x00\r\x00\x00\x00%\x00\x00\x00\x1e\x00\x00\x00\x08\x00\x00\x00,\x00\x00\x002\x00\x00\x00E\x00\x00\x00!\x00\x00\x00*\x00\x00\x00-\x00\x00\x004\x00\x00\x005\x00\x00\x00\x12\x00\x00\x00X\x00\x00\x00\x14\x00\x00\x00\x04\x00\x00\x00\x0b\x00\x00\x00@\x00\x00\x00&\x00\x00\x00+\x00\x00\x00\x03\x00\x00\x00\t\x00\x00\x009\x00\x00\x00=\x00\x00\x00S\x00\x00\x00I\x00\x00\x00.\x00\x00\x006\x00\x00\x00W\x00\x00\x00\x07\x00\x00\x00\x1b\x00\x00\x00\x18\x00\x00\x00G\x00\x00\x00;\x00\x00\x008\x00\x00\x00Y\x00\x00\x00R\x00\x00\x00\x1c\x00\x00\x00\n\x00\x00\x00 \x00\x00\x00\x17\x00\x00\x003\x00\x00\x00U\x00\x00\x00^\x00\x00\x00/\x00\x00\x00J\x00\x00\x00(\x00\x00\x00)\x00\x00\x00M\x00\x00\x00\x06\x00\x00\x00]\x00\x00\x00O\x00\x00\x00_\x00\x00\x00\x1d\x00\x00\x00\x01\x00\x00\x00<\x00\x00\x00?\x00\x00\x00D\x00\x00\x00Q\x00\x00\x00\x0c\x00\x00\x001\x00\x00\x00V\x00\x00\x00F\x00\x00\x00>\x00\x00\x00[\x00\x00\x00\x16\x00\x00\x00B\x00\x00\x00\x0e\x00\x00\x00Z\x00\x00\x00\x1a\x00\x00\x00N\x00\x00\x00C\x00\x00\x00L\x00\x00\x00\x00\x00\x00\x00\x19\x00\x00\x00P\x00\x00\x00A\x00\x00\x000\x00\x00\x00\x15\x00\x00\x00$\x00\x00\x00\x13\x00\x00\x00:\x00\x00\x00\x02\x00\x00\x007\x00\x00\x00\x05\x00\x00\x00\x1f\x00\x00\x00\x10\x00\x00\x00H\x00\x00\x00\'\x00\x00\x00\x0f\x00\x00\x00#\x00\x00\x00T\x00\x00\x00K\x00\x00\x00"\x00\x00\x00\x11\x00\x00\x00'
tbsS'finished'
p1264
I01
sS'nReps'
p1265
I1
sS'nRemaining'
p1266
I-1
sS'trialList'
p1267
(lp1268
g1
(cpsychopy.data
TrialType
p1269
g1155
(dp1270
g62
g74
sg63
g909
sg64
g126
sg65
g904
sg66
g908
stRp1271
ag1
(g1269
g1155
(dp1272
g62
g89
sg63
g700
sg64
g88
sg65
g695
sg66
g699
stRp1273
ag1
(g1269
g1155
(dp1274
g62
g74
sg63
g1008
sg64
g126
sg65
g1003
sg66
g1007
stRp1275
ag1
(g1269
g1155
(dp1276
g62
g74
sg63
g326
sg64
g102
sg65
g321
sg66
g325
stRp1277
ag1
(g1269
g1155
(dp1278
g62
g89
sg63
g270
sg64
g138
sg65
g265
sg66
g269
stRp1279
ag1
(g1269
g1155
(dp1280
g62
g74
sg63
g1030
sg64
g126
sg65
g1025
sg66
g1029
stRp1281
ag1
(g1269
g1155
(dp1282
g62
g74
sg63
g645
sg64
g126
sg65
g640
sg66
g644
stRp1283
ag1
(g1269
g1155
(dp1284
g62
g74
sg63
g425
sg64
g274
sg65
g420
sg66
g424
stRp1285
ag1
(g1269
g1155
(dp1286
g62
g74
sg63
g134
sg64
g126
sg65
g129
sg66
g133
stRp1287
ag1
(g1269
g1155
(dp1288
g62
g74
sg63
g337
sg64
g274
sg65
g332
sg66
g336
stRp1289
ag1
(g1269
g1155
(dp1290
g62
g89
sg63
g524
sg64
g194
sg65
g519
sg66
g523
stRp1291
ag1
(g1269
g1155
(dp1292
g62
g74
sg63
g282
sg64
g274
sg65
g277
sg66
g281
stRp1293
ag1
(g1269
g1155
(dp1294
g62
g74
sg63
g755
sg64
g218
sg65
g750
sg66
g754
stRp1295
ag1
(g1269
g1155
(dp1296
g62
g89
sg63
g97
sg64
g88
sg65
g92
sg66
g96
stRp1297
ag1
(g1269
g1155
(dp1298
g62
g74
sg63
g843
sg64
g218
sg65
g838
sg66
g842
stRp1299
ag1
(g1269
g1155
(dp1300
g62
g74
sg63
g1085
sg64
g126
sg65
g1080
sg66
g1084
stRp1301
ag1
(g1269
g1155
(dp1302
g62
g89
sg63
g1052
sg64
g88
sg65
g1047
sg66
g1051
stRp1303
ag1
(g1269
g1155
(dp1304
g62
g74
sg63
g1140
sg64
g218
sg65
g1135
sg66
g1139
stRp1305
ag1
(g1269
g1155
(dp1306
g62
g74
sg63
g237
sg64
g114
sg65
g232
sg66
g236
stRp1307
ag1
(g1269
g1155
(dp1308
g62
g74
sg63
g986
sg64
g126
sg65
g981
sg66
g985
stRp1309
ag1
(g1269
g1155
(dp1310
g62
g89
sg63
g259
sg64
g88
sg65
g254
sg66
g258
stRp1311
ag1
(g1269
g1155
(dp1312
g62
g89
sg63
g964
sg64
g206
sg65
g959
sg66
g963
stRp1313
ag1
(g1269
g1155
(dp1314
g62
g74
sg63
g821
sg64
g114
sg65
g816
sg66
g820
stRp1315
ag1
(g1269
g1155
(dp1316
g62
g89
sg63
g546
sg64
g206
sg65
g541
sg66
g545
stRp1317
ag1
(g1269
g1155
(dp1318
g62
g89
sg63
g447
sg64
g194
sg65
g442
sg66
g446
stRp1319
ag1
(g1269
g1155
(dp1320
g62
g74
sg63
g920
sg64
g73
sg65
g915
sg66
g919
stRp1321
ag1
(g1269
g1155
(dp1322
g62
g89
sg63
g865
sg64
g138
sg65
g860
sg66
g864
stRp1323
ag1
(g1269
g1155
(dp1324
g62
g89
sg63
g436
sg64
g88
sg65
g431
sg66
g435
stRp1325
ag1
(g1269
g1155
(dp1326
g62
g74
sg63
g513
sg64
g218
sg65
g508
sg66
g512
stRp1327
ag1
(g1269
g1155
(dp1328
g62
g74
sg63
g689
sg64
g126
sg65
g684
sg66
g688
stRp1329
ag1
(g1269
g1155
(dp1330
g62
g74
sg63
g122
sg64
g114
sg65
g117
sg66
g121
stRp1331
ag1
(g1269
g1155
(dp1332
g62
g74
sg63
g1041
sg64
g114
sg65
g1036
sg66
g1040
stRp1333
ag1
(g1269
g1155
(dp1334
g62
g89
sg63
g535
sg64
g88
sg65
g530
sg66
g534
stRp1335
ag1
(g1269
g1155
(dp1336
g62
g89
sg63
g179
sg64
g138
sg65
g174
sg66
g178
stRp1337
ag1
(g1269
g1155
(dp1338
g62
g89
sg63
g1129
sg64
g138
sg65
g1124
sg66
g1128
stRp1339
ag1
(g1269
g1155
(dp1340
g62
g74
sg63
g1096
sg64
g218
sg65
g1091
sg66
g1095
stRp1341
ag1
(g1269
g1155
(dp1342
g62
g74
sg63
g975
sg64
g73
sg65
g970
sg66
g974
stRp1343
ag1
(g1269
g1155
(dp1344
g62
g74
sg63
g110
sg64
g102
sg65
g105
sg66
g109
stRp1345
ag1
(g1269
g1155
(dp1346
g62
g89
sg63
g304
sg64
g138
sg65
g299
sg66
g303
stRp1347
ag1
(g1269
g1155
(dp1348
g62
g89
sg63
g1074
sg64
g88
sg65
g1069
sg66
g1073
stRp1349
ag1
(g1269
g1155
(dp1350
g62
g89
sg63
g612
sg64
g88
sg65
g607
sg66
g611
stRp1351
ag1
(g1269
g1155
(dp1352
g62
g74
sg63
g623
sg64
g218
sg65
g618
sg66
g622
stRp1353
ag1
(g1269
g1155
(dp1354
g62
g89
sg63
g190
sg64
g138
sg65
g185
sg66
g189
stRp1355
ag1
(g1269
g1155
(dp1356
g62
g89
sg63
g315
sg64
g206
sg65
g310
sg66
g314
stRp1357
ag1
(g1269
g1155
(dp1358
g62
g89
sg63
g146
sg64
g138
sg65
g141
sg66
g145
stRp1359
ag1
(g1269
g1155
(dp1360
g62
g89
sg63
g202
sg64
g194
sg65
g197
sg66
g201
stRp1361
ag1
(g1269
g1155
(dp1362
g62
g74
sg63
g392
sg64
g126
sg65
g387
sg66
g391
stRp1363
ag1
(g1269
g1155
(dp1364
g62
g74
sg63
g590
sg64
g126
sg65
g585
sg66
g589
stRp1365
ag1
(g1269
g1155
(dp1366
g62
g89
sg63
g953
sg64
g88
sg65
g948
sg66
g952
stRp1367
ag1
(g1269
g1155
(dp1368
g62
g89
sg63
g766
sg64
g206
sg65
g761
sg66
g765
stRp1369
ag1
(g1269
g1155
(dp1370
g62
g89
sg63
g157
sg64
g88
sg65
g152
sg66
g156
stRp1371
ag1
(g1269
g1155
(dp1372
g62
g89
sg63
g557
sg64
g138
sg65
g552
sg66
g556
stRp1373
ag1
(g1269
g1155
(dp1374
g62
g89
sg63
g214
sg64
g206
sg65
g209
sg66
g213
stRp1375
ag1
(g1269
g1155
(dp1376
g62
g74
sg63
g226
sg64
g218
sg65
g221
sg66
g225
stRp1377
ag1
(g1269
g1155
(dp1378
g62
g74
sg63
g403
sg64
g274
sg65
g398
sg66
g402
stRp1379
ag1
(g1269
g1155
(dp1380
g62
g89
sg63
g1019
sg64
g206
sg65
g1014
sg66
g1018
stRp1381
ag1
(g1269
g1155
(dp1382
g62
g89
sg63
g480
sg64
g138
sg65
g475
sg66
g479
stRp1383
ag1
(g1269
g1155
(dp1384
g62
g89
sg63
g348
sg64
g138
sg65
g343
sg66
g347
stRp1385
ag1
(g1269
g1155
(dp1386
g62
g74
sg63
g997
sg64
g218
sg65
g992
sg66
g996
stRp1387
ag1
(g1269
g1155
(dp1388
g62
g89
sg63
g469
sg64
g138
sg65
g464
sg66
g468
stRp1389
ag1
(g1269
g1155
(dp1390
g62
g89
sg63
g711
sg64
g138
sg65
g706
sg66
g710
stRp1391
ag1
(g1269
g1155
(dp1392
g62
g89
sg63
g359
sg64
g138
sg65
g354
sg66
g358
stRp1393
ag1
(g1269
g1155
(dp1394
g62
g74
sg63
g799
sg64
g73
sg65
g794
sg66
g798
stRp1395
ag1
(g1269
g1155
(dp1396
g62
g89
sg63
g722
sg64
g138
sg65
g717
sg66
g721
stRp1397
ag1
(g1269
g1155
(dp1398
g62
g74
sg63
g293
sg64
g274
sg65
g288
sg66
g292
stRp1399
ag1
(g1269
g1155
(dp1400
g62
g89
sg63
g942
sg64
g206
sg65
g937
sg66
g941
stRp1401
ag1
(g1269
g1155
(dp1402
g62
g74
sg63
g832
sg64
g114
sg65
g827
sg66
g831
stRp1403
ag1
(g1269
g1155
(dp1404
g62
g89
sg63
g887
sg64
g138
sg65
g882
sg66
g886
stRp1405
ag1
(g1269
g1155
(dp1406
g62
g89
sg63
g733
sg64
g88
sg65
g728
sg66
g732
stRp1407
ag1
(g1269
g1155
(dp1408
g62
g74
sg63
g168
sg64
g126
sg65
g163
sg66
g167
stRp1409
ag1
(g1269
g1155
(dp1410
g62
g89
sg63
g788
sg64
g138
sg65
g783
sg66
g787
stRp1411
ag1
(g1269
g1155
(dp1412
g62
g74
sg63
g458
sg64
g114
sg65
g453
sg66
g457
stRp1413
ag1
(g1269
g1155
(dp1414
g62
g74
sg63
g1063
sg64
g73
sg65
g1058
sg66
g1062
stRp1415
ag1
(g1269
g1155
(dp1416
g62
g89
sg63
g381
sg64
g194
sg65
g376
sg66
g380
stRp1417
ag1
(g1269
g1155
(dp1418
g62
g89
sg63
g601
sg64
g138
sg65
g596
sg66
g600
stRp1419
ag1
(g1269
g1155
(dp1420
g62
g89
sg63
g1118
sg64
g206
sg65
g1113
sg66
g1117
stRp1421
ag1
(g1269
g1155
(dp1422
g62
g74
sg63
g898
sg64
g274
sg65
g893
sg66
g897
stRp1423
ag1
(g1269
g1155
(dp1424
g62
g74
sg63
g634
sg64
g114
sg65
g629
sg66
g633
stRp1425
ag1
(g1269
g1155
(dp1426
g62
g74
sg63
g876
sg64
g126
sg65
g871
sg66
g875
stRp1427
ag1
(g1269
g1155
(dp1428
g62
g89
sg63
g667
sg64
g138
sg65
g662
sg66
g666
stRp1429
ag1
(g1269
g1155
(dp1430
g62
g89
sg63
g931
sg64
g206
sg65
g926
sg66
g930
stRp1431
ag1
(g1269
g1155
(dp1432
g62
g74
sg63
g744
sg64
g126
sg65
g739
sg66
g743
stRp1433
ag1
(g1269
g1155
(dp1434
g62
g89
sg63
g502
sg64
g88
sg65
g497
sg66
g501
stRp1435
ag1
(g1269
g1155
(dp1436
g62
g74
sg63
g370
sg64
g114
sg65
g365
sg66
g369
stRp1437
ag1
(g1269
g1155
(dp1438
g62
g89
sg63
g1107
sg64
g88
sg65
g1102
sg66
g1106
stRp1439
ag1
(g1269
g1155
(dp1440
g62
g89
sg63
g568
sg64
g138
sg65
g563
sg66
g567
stRp1441
ag1
(g1269
g1155
(dp1442
g62
g74
sg63
g777
sg64
g274
sg65
g772
sg66
g776
stRp1443
ag1
(g1269
g1155
(dp1444
g62
g74
sg63
g414
sg64
g274
sg65
g409
sg66
g413
stRp1445
ag1
(g1269
g1155
(dp1446
g62
g74
sg63
g248
sg64
g73
sg65
g243
sg66
g247
stRp1447
ag1
(g1269
g1155
(dp1448
g62
g74
sg63
g491
sg64
g73
sg65
g486
sg66
g490
stRp1449
ag1
(g1269
g1155
(dp1450
g62
g89
sg63
g854
sg64
g88
sg65
g849
sg66
g853
stRp1451
ag1
(g1269
g1155
(dp1452
g62
g74
sg63
g810
sg64
g274
sg65
g805
sg66
g809
stRp1453
ag1
(g1269
g1155
(dp1454
g62
g74
sg63
g84
sg64
g73
sg65
g78
sg66
g83
stRp1455
ag1
(g1269
g1155
(dp1456
g62
g74
sg63
g656
sg64
g126
sg65
g651
sg66
g655
stRp1457
ag1
(g1269
g1155
(dp1458
g62
g89
sg63
g579
sg64
g206
sg65
g574
sg66
g578
stRp1459
ag1
(g1269
g1155
(dp1460
g62
g89
sg63
g678
sg64
g88
sg65
g673
sg66
g677
stRp1461
asS'seed'
p1462
NsS'thisIndex'
p1463
g1137
sS'thisN'
p1464
I96
sS'thisTrialN'
p1465
I0
sS'nTotal'
p1466
I96
sS'_warnUseOfNext'
p1467
I01
sbasS'savePickle'
p1468
I00
sb.