ccopy_reg
_reconstructor
p1
(cpsychopy.data
ExperimentHandler
p2
c__builtin__
object
p3
NtRp4
(dp5
S'originPath'
p6
NsS'dataFileName'
p7
VC:\u005cDocuments and Settings\u005cExperimental user\u005cMy Documents\u005cconsciousness\u005cuncon_feat\u005cexperiment_scripts\u005cdata/maria_Experiment_EEG_version_2019_jun_06_1601
p8
sS'runtimeInfo'
p9
NsS'name'
p10
VExperiment_EEG_version
p11
sS'dataNames'
p12
(lp13
S'image_onset_time'
p14
aS'response_window'
p15
aS'correctAns'
p16
aS'probe_onset'
p17
aS'discrim_resptime'
p18
aS'response.corr'
p19
aS'response.keys'
p20
aS'response.rt'
p21
aS'visible_resptime'
p22
aS'visible.keys'
p23
aS'visible.corr'
p24
aS'visible.rt'
p25
aS'probeFrames'
p26
aS'jitter2'
p27
asS'autoLog'
p28
I01
sS'extraInfo'
p29
(dp30
Vn_square
p31
V32
p32
sVexperiment_color
p33
Vbw
p34
sS'frameRate'
p35
cnumpy.core.multiarray
scalar
p36
(cnumpy
dtype
p37
(S'f8'
I0
I1
tRp38
(I3
S'<'
NNNI-1
I-1
I0
tbS'\xac\xcdc\x85\x0b\xf2X@'
tRp39
sS'date'
p40
V2019_jun_06_1601
p41
sVsession
p42
V014
p43
sVimage_size
p44
V256
p45
sVpremask_dur
p46
V20
p47
sVprobeFrames
p48
V5
sVparticipant
p49
Vmaria
p50
sS'expName'
p51
g11
sVpostmask_dur
p52
V20
p53
ssS'loopsUnfinished'
p54
(lp55
sS'saveWideText'
p56
I00
sS'thisEntry'
p57
(dp58
sS'version'
p59
S''
sS'_paramNamesSoFar'
p60
(lp61
S'category'
p62
aS'probe_path'
p63
aS'subcategory'
p64
aS'fixation_duration'
p65
aS'label'
p66
asS'entries'
p67
(lp68
(dp69
g31
g32
sg17
F3.7359089474193752
sg24
I0
sg35
g39
sg14
F3.7154296203516424
sg16
g36
(g37
(S'i4'
I0
I1
tRp70
(I3
S'<'
NNNI-1
I-1
I0
tbS'\x01\x00\x00\x00'
tRp71
sg42
g43
sg46
g47
sg15
S'V_nV'
p72
sg22
F6.4823681134730577
sg64
VAnimals
p73
sg62
VLiving_Things
p74
sg49
g50
sS'trials.thisN'
p75
I0
sg19
I0
sg27
g36
(g38
S'\x00\x00\x00\x00\x00\x00\x1c@'
tRp76
sg52
g53
sg23
S'2'
sg18
F4.998117983341217
sg33
g34
sg51
g11
sg20
S'2'
sg65
g36
(g37
(S'i8'
I0
I1
tRp77
(I3
S'<'
NNNI-1
I-1
I0
tbS'\x00\x00\x00\x00\x00\x00\x00\x00'
tRp78
sg44
g45
sg40
g41
sg25
F0.20065299421548843
sS'trials.thisIndex'
p79
g36
(g37
(S'i4'
I0
I1
tRp80
(I3
S'<'
NNNI-1
I-1
I0
tbS'\x1b\x00\x00\x00'
tRp81
sg26
V5
sS'trials.thisRepN'
p82
I0
sg66
Velephant
p83
sg63
V../experiment_stimuli/bw_bc_bl/Living_Things/Animals/elephant_23.jpg
p84
sg21
F1.4533909973688424
sS'trials.thisTrialN'
p85
I0
sa(dp86
g31
g32
sg17
F8.4204123094677925
sg24
I0
sg35
g39
sg14
F8.4156411858275533
sg16
g36
(g70
S'\x02\x00\x00\x00'
tRp87
sg42
g43
sg46
g47
sg15
g72
sg22
F11.011946995276958
sg64
VBuildings
p88
sg62
VNonliving_Things
p89
sg49
g50
sS'trials.thisN'
p90
I1
sg19
I1
sg27
g36
(g38
S'\x00\x00\x00\x00\x00\x00\x18@'
tRp91
sg52
g53
sg23
S'3'
sg18
F9.6782864863052964
sg33
g34
sg51
g11
sg20
S'2'
sg65
g36
(g77
S'\x00\x00\x00\x00\x00\x00\x00\x00'
tRp92
sg44
g45
sg40
g41
sg25
F0.11046140687540174
sS'trials.thisIndex'
p93
g36
(g80
S')\x00\x00\x00'
tRp94
sg26
V5
sS'trials.thisRepN'
p95
I0
sg66
Vhouse
p96
sg63
V../experiment_stimuli/bw_bc_bl/Nonliving_Things/Buildings/house_3.jpg
p97
sg21
F1.3130919537506998
sS'trials.thisTrialN'
p98
I1
sa(dp99
g31
g32
sg17
F12.86024866392836
sg24
I0
sg35
g39
sg14
F12.855296279769391
sg16
g36
(g70
S'\x02\x00\x00\x00'
tRp100
sg42
g43
sg46
g47
sg15
g72
sg22
F14.559643980115652
sg64
VFurniture
p101
sg62
g89
sg49
g50
sS'trials.thisN'
p102
I2
sg19
I1
sg27
g36
(g38
S'\x00\x00\x00\x00\x00\x00\x18@'
tRp103
sg52
g53
sg23
S'3'
sg18
F14.097896874882281
sg33
g34
sg51
g11
sg20
S'2'
sg65
g36
(g77
S'\x00\x00\x00\x00\x00\x00\x00\x00'
tRp104
sg44
g45
sg40
g41
sg25
F0.12048257887363434
sS'trials.thisIndex'
p105
g36
(g80
S']\x00\x00\x00'
tRp106
sg26
V5
sS'trials.thisRepN'
p107
I0
sg66
Vwardrobe
p108
sg63
V../experiment_stimuli/bw_bc_bl/Nonliving_Things/Furniture/wardrobe_18.jpg
p109
sg21
F0.44118935847654939
sS'trials.thisTrialN'
p110
I2
sa(dp111
g31
g32
sg17
F16.418911883141845
sg24
I0
sg35
g39
sg14
F16.413027436938137
sg16
g36
(g70
S'\x02\x00\x00\x00'
tRp112
sg42
g43
sg46
g47
sg15
g72
sg22
F18.518246918451041
sg64
g101
sg62
g89
sg49
g50
sS'trials.thisN'
p113
I3
sg19
I1
sg27
g36
(g38
S'\x00\x00\x00\x00\x00\x00\x18@'
tRp114
sg52
g53
sg23
S'2'
sg18
F17.645606675185263
sg33
g34
sg51
g11
sg20
S'2'
sg65
g36
(g77
S'\x00\x00\x00\x00\x00\x00\x00\x00'
tRp115
sg44
g45
sg40
g41
sg25
F0.35100163472816348
sS'trials.thisIndex'
p116
g36
(g80
S'\x08\x00\x00\x00'
tRp117
sg26
V5
sS'trials.thisRepN'
p118
I0
sg66
Vbookcase
p119
sg63
V../experiment_stimuli/bw_bc_bl/Nonliving_Things/Furniture/bookcase_15.jpg
p120
sg21
F0.85208720667287707
sS'trials.thisTrialN'
p121
I3
sa(dp122
g31
g32
sg17
F20.606991888489574
sg24
I0
sg35
g39
sg14
F20.602142468560487
sg16
g36
(g70
S'\x02\x00\x00\x00'
tRp123
sg42
g43
sg46
g47
sg15
S'nV_V'
p124
sg22
F22.376639964990318
sg64
g73
sg62
g74
sg49
g50
sS'trials.thisN'
p125
I4
sg19
I0
sg27
g36
(g38
S'\x00\x00\x00\x00\x00\x00\x1a@'
tRp126
sg52
g53
sg23
S'2'
sg18
F21.83472319599241
sg33
g34
sg51
g11
sg20
S'1'
sg65
g36
(g77
S'\x00\x00\x00\x00\x00\x00\x00\x00'
tRp127
sg44
g45
sg40
g41
sg25
F0.050333542283624411
sS'trials.thisIndex'
p128
g36
(g80
S'\x01\x00\x00\x00'
tRp129
sg26
V5
sS'trials.thisRepN'
p130
I0
sg66
Varmadillo
p131
sg63
V../experiment_stimuli/bw_bc_bl/Living_Things/Animals/armadillo_11.jpg
p132
sg21
F0.52135890582576394
sS'trials.thisTrialN'
p133
I4
sa(dp134
g31
g32
sg17
F24.164708285592496
sg24
I0
sg35
g39
sg14
F24.159871125593781
sg16
g36
(g70
S'\x01\x00\x00\x00'
tRp135
sg42
g43
sg46
g47
sg15
g124
sg22
F25.994500598870218
sg64
VKitchen_Uten
p136
sg62
g89
sg49
g50
sS'trials.thisN'
p137
I5
sg19
I1
sg27
g36
(g38
S'\x00\x00\x00\x00\x00\x00\x1a@'
tRp138
sg52
g53
sg23
S'2'
sg18
F25.39244319871068
sg33
g34
sg51
g11
sg20
S'1'
sg65
g36
(g77
S'\x00\x00\x00\x00\x00\x00\x00\x00'
tRp139
sg44
g45
sg40
g41
sg25
F0.060368947684764862
sS'trials.thisIndex'
p140
g36
(g80
S'\x1f\x00\x00\x00'
tRp141
sg26
V5
sS'trials.thisRepN'
p142
I0
sg66
Vfrying-pan
p143
sg63
V../experiment_stimuli/bw_bc_bl/Nonliving_Things/Kitchen_Uten/frying-pan_1.jpg
p144
sg21
F0.5815097619779408
sS'trials.thisTrialN'
p145
I5
sa(dp146
g31
g32
sg17
F27.792639655526727
sg24
I1
sg35
g39
sg14
F27.787753529381007
sg16
g36
(g70
S'\x02\x00\x00\x00'
tRp147
sg42
g43
sg46
g47
sg15
g72
sg22
F29.642415062058717
sg64
g101
sg62
g89
sg49
g50
sS'trials.thisN'
p148
I6
sg19
I1
sg27
g36
(g38
S'\x00\x00\x00\x00\x00\x00\x1a@'
tRp149
sg52
g53
sg23
S'1'
sg18
F29.020332313142717
sg33
g34
sg51
g11
sg20
S'2'
sg65
g36
(g77
S'\x00\x00\x00\x00\x00\x00\x00\x00'
tRp150
sg44
g45
sg40
g41
sg25
F0.040303580462932587
sS'trials.thisIndex'
p151
g36
(g80
S'\x13\x00\x00\x00'
tRp152
sg26
V5
sS'trials.thisRepN'
p153
I0
sg66
Vcouch
p154
sg63
V../experiment_stimuli/bw_bc_bl/Nonliving_Things/Furniture/couch_2.jpg
p155
sg21
F0.60153341526165605
sS'trials.thisTrialN'
p156
I6
sa(dp157
g31
g32
sg17
F31.421552759129554
sg24
I0
sg35
g39
sg14
F31.415686489548534
sg16
g36
(g70
S'\x01\x00\x00\x00'
tRp158
sg42
g43
sg46
g47
sg15
g72
sg22
F33.701260478235781
sg64
VBirds
p159
sg62
g74
sg49
g50
sS'trials.thisN'
p160
I7
sg19
I0
sg27
g36
(g38
S'\x00\x00\x00\x00\x00\x00\x1c@'
tRp161
sg52
g53
sg23
S'2'
sg18
F32.678280523978174
sg33
g34
sg51
g11
sg20
S'2'
sg65
g36
(g77
S'\x00\x00\x00\x00\x00\x00\x00\x00'
tRp162
sg44
g45
sg40
g41
sg25
F0.15055711474269629
sS'trials.thisIndex'
p163
g36
(g80
S'C\x00\x00\x00'
tRp164
sg26
V5
sS'trials.thisRepN'
p165
I0
sg66
Vraven
p166
sg63
V../experiment_stimuli/bw_bc_bl/Living_Things/Birds/raven_11.jpg
p167
sg21
F1.0024064183235168
sS'trials.thisTrialN'
p168
I7
sa(dp169
g31
g32
sg17
F35.590069187339395
sg24
I0
sg35
g39
sg14
F35.584695313125849
sg16
g36
(g70
S'\x02\x00\x00\x00'
tRp170
sg42
g43
sg46
g47
sg15
g124
sg22
F37.479475252330303
sg64
VMarine_creatures
p171
sg62
g74
sg49
g50
sS'trials.thisN'
p172
I8
sg19
I0
sg27
g36
(g38
S'\x00\x00\x00\x00\x00\x00\x18@'
tRp173
sg52
g53
sg23
S'2'
sg18
F36.837319103069603
sg33
g34
sg51
g11
sg20
S'1'
sg65
g36
(g77
S'\x00\x00\x00\x00\x00\x00\x00\x00'
tRp174
sg44
g45
sg40
g41
sg25
F0.090436817612498999
sS'trials.thisIndex'
p175
g36
(g80
S'P\x00\x00\x00'
tRp176
sg26
V5
sS'trials.thisRepN'
p177
I0
sg66
Vsperm-whale
p178
sg63
V../experiment_stimuli/bw_bc_bl/Living_Things/Marine_creatures/sperm-whale_11.jpg
p179
sg21
F0.62159661669284105
sS'trials.thisTrialN'
p180
I8
sa(dp181
g31
g32
sg17
F39.307750666514039
sg24
I1
sg35
g39
sg14
F39.302778049372137
sg16
g36
(g70
S'\x01\x00\x00\x00'
tRp182
sg42
g43
sg46
g47
sg15
g72
sg22
F41.267704172059894
sg64
VInsects
p183
sg62
g74
sg49
g50
sS'trials.thisN'
p184
I9
sg19
I0
sg27
g36
(g38
S'\x00\x00\x00\x00\x00\x00\x18@'
tRp185
sg52
g53
sg23
S'1'
sg18
F40.545380208175629
sg33
g34
sg51
g11
sg20
S'2'
sg65
g36
(g77
S'\x00\x00\x00\x00\x00\x00\x00\x00'
tRp186
sg44
g45
sg40
g41
sg25
F0.050338373053818941
sS'trials.thisIndex'
p187
g36
(g80
S'I\x00\x00\x00'
tRp188
sg26
V5
sS'trials.thisRepN'
p189
I0
sg66
Vscorpion
p190
sg63
V../experiment_stimuli/bw_bc_bl/Living_Things/Insects/scorpion_9.jpg
p191
sg21
F0.701751375105232
sS'trials.thisTrialN'
p192
I9
sa(dp193
g31
g32
sg17
F43.055849950294942
sg24
I0
sg35
g39
sg14
F43.050961580127478
sg16
g36
(g70
S'\x02\x00\x00\x00'
tRp194
sg42
g43
sg46
g47
sg15
g72
sg22
F45.236322214826941
sg64
VMusical_Inst
p195
sg62
g89
sg49
g50
sS'trials.thisN'
p196
I10
sg19
I1
sg27
g36
(g38
S'\x00\x00\x00\x00\x00\x00\x1a@'
tRp197
sg52
g53
sg23
S'3'
sg18
F44.303548543713987
sg33
g34
sg51
g11
sg20
S'2'
sg65
g36
(g77
S'\x00\x00\x00\x00\x00\x00\x00\x00'
tRp198
sg44
g45
sg40
g41
sg25
F0.070384318940341473
sS'trials.thisIndex'
p199
g36
(g80
S'\x19\x00\x00\x00'
tRp200
sg26
V5
sS'trials.thisRepN'
p201
I0
sg66
Vdrum
p202
sg63
V../experiment_stimuli/bw_bc_bl/Nonliving_Things/Musical_Inst/drum_1.jpg
p203
sg21
F0.91220734547823668
sS'trials.thisTrialN'
p204
I10
sa(dp205
g31
g32
sg17
F47.044563758186996
sg24
I0
sg35
g39
sg14
F47.039597656112164
sg16
g36
(g70
S'\x02\x00\x00\x00'
tRp206
sg42
g43
sg46
g47
sg15
g124
sg22
F48.924181000795215
sg64
g73
sg62
g74
sg49
g50
sS'trials.thisN'
p207
I11
sg19
I0
sg27
g36
(g38
S'\x00\x00\x00\x00\x00\x00\x18@'
tRp208
sg52
g53
sg23
S'2'
sg18
F48.272175841964781
sg33
g34
sg51
g11
sg20
S'1'
sg65
g36
(g77
S'\x00\x00\x00\x00\x00\x00\x00\x00'
tRp209
sg44
g45
sg40
g41
sg25
F0.1004425878636539
sS'trials.thisIndex'
p210
g36
(g80
S'(\x00\x00\x00'
tRp211
sg26
V5
sS'trials.thisRepN'
p212
I0
sg66
Vhorse
p213
sg63
V../experiment_stimuli/bw_bc_bl/Living_Things/Animals/horse_0.jpg
p214
sg21
F0.63144233264029026
sS'trials.thisTrialN'
p215
I11
sa(dp216
g31
g32
sg17
F50.762502567842603
sg24
I1
sg35
g39
sg14
F50.757677313871682
sg16
g36
(g70
S'\x02\x00\x00\x00'
tRp217
sg42
g43
sg46
g47
sg15
g72
sg22
F52.642417313996702
sg64
g101
sg62
g89
sg49
g50
sS'trials.thisN'
p218
I12
sg19
I1
sg27
g36
(g38
S'\x00\x00\x00\x00\x00\x00\x18@'
tRp219
sg52
g53
sg23
S'1'
sg18
F51.990260120015591
sg33
g34
sg51
g11
sg20
S'2'
sg65
g36
(g77
S'\x00\x00\x00\x00\x00\x00\x00\x00'
tRp220
sg44
g45
sg40
g41
sg25
F0.080393442418426275
sS'trials.thisIndex'
p221
g36
(g80
S'/\x00\x00\x00'
tRp222
sg26
V5
sS'trials.thisRepN'
p223
I0
sg66
Vlectern
p224
sg63
V../experiment_stimuli/bw_bc_bl/Nonliving_Things/Furniture/lectern_13.jpg
p225
sg21
F0.63159101130440831
sS'trials.thisTrialN'
p226
I12
sa(dp227
g31
g32
sg17
F54.461160481441766
sg24
I0
sg35
g39
sg14
F54.455714032519609
sg16
g36
(g70
S'\x01\x00\x00\x00'
tRp228
sg42
g43
sg46
g47
sg15
g124
sg22
F56.360491565428674
sg64
VVehicles
p229
sg62
g89
sg49
g50
sS'trials.thisN'
p230
I13
sg19
I1
sg27
g36
(g38
S'\x00\x00\x00\x00\x00\x00\x18@'
tRp231
sg52
g53
sg23
S'3'
sg18
F55.718362239189446
sg33
g34
sg51
g11
sg20
S'1'
sg65
g36
(g77
S'\x00\x00\x00\x00\x00\x00\x00\x00'
tRp232
sg44
g45
sg40
g41
sg25
F0.12053792458027601
sS'trials.thisIndex'
p233
g36
(g80
S'[\x00\x00\x00'
tRp234
sg26
V5
sS'trials.thisRepN'
p235
I0
sg66
Vvan
p236
sg63
V../experiment_stimuli/bw_bc_bl/Nonliving_Things/Vehicles/van_8.jpg
p237
sg21
F0.6215802407823503
sS'trials.thisTrialN'
p238
I13
sa(dp239
g31
g32
sg17
F58.219405255280435
sg24
I1
sg35
g39
sg14
F58.213890766259283
sg16
g36
(g70
S'\x01\x00\x00\x00'
tRp240
sg42
g43
sg46
g47
sg15
g72
sg22
F60.329167472198606
sg64
g73
sg62
g74
sg49
g50
sS'trials.thisN'
p241
I14
sg19
I0
sg27
g36
(g38
S'\x00\x00\x00\x00\x00\x00\x18@'
tRp242
sg52
g53
sg23
S'1'
sg18
F59.456495503894985
sg33
g34
sg51
g11
sg20
S'2'
sg65
g36
(g77
S'\x00\x00\x00\x00\x00\x00\x00\x00'
tRp243
sg44
g45
sg40
g41
sg25
F0.090268515050411224
sS'trials.thisIndex'
p244
g36
(g80
S'\r\x00\x00\x00'
tRp245
sg26
V5
sS'trials.thisRepN'
p246
I0
sg66
Vcat
p247
sg63
V../experiment_stimuli/bw_bc_bl/Living_Things/Animals/cat_23.jpg
p248
sg21
F0.85209230799227953
sS'trials.thisTrialN'
p249
I14
sa(dp250
g31
g32
sg17
F62.157949819229543
sg24
I0
sg35
g39
sg14
F62.15244202548638
sg16
g36
(g70
S'\x01\x00\x00\x00'
tRp251
sg42
g43
sg46
g47
sg15
g124
sg22
F63.997183143626899
sg64
g136
sg62
g89
sg49
g50
sS'trials.thisN'
p252
I15
sg19
I1
sg27
g36
(g38
S'\x00\x00\x00\x00\x00\x00\x1c@'
tRp253
sg52
g53
sg23
S'3'
sg18
F63.405073010828346
sg33
g34
sg51
g11
sg20
S'1'
sg65
g36
(g77
S'\x00\x00\x00\x00\x00\x00\x00\x00'
tRp254
sg44
g45
sg40
g41
sg25
F0.10044141439720988
sS'trials.thisIndex'
p255
g36
(g80
S'\x16\x00\x00\x00'
tRp256
sg26
V5
sS'trials.thisRepN'
p257
I0
sg66
Vcup
p258
sg63
V../experiment_stimuli/bw_bc_bl/Nonliving_Things/Kitchen_Uten/cup_19.jpg
p259
sg21
F0.57151954434812069
sS'trials.thisTrialN'
p260
I15
sa(dp261
g31
g32
sg17
F65.835295416880399
sg24
I0
sg35
g39
sg14
F65.830442264676094
sg16
g36
(g70
S'\x02\x00\x00\x00'
tRp262
sg42
g43
sg46
g47
sg15
g72
sg22
F67.735211496707052
sg64
g101
sg62
g89
sg49
g50
sS'trials.thisN'
p263
I16
sg19
I1
sg27
g36
(g38
S'\x00\x00\x00\x00\x00\x00\x1a@'
tRp264
sg52
g53
sg23
S'2'
sg18
F67.063032491598278
sg33
g34
sg51
g11
sg20
S'2'
sg65
g36
(g77
S'\x00\x00\x00\x00\x00\x00\x00\x00'
tRp265
sg44
g45
sg40
g41
sg25
F0.63159255590289831
sS'trials.thisIndex'
p266
g36
(g80
S'\x05\x00\x00\x00'
tRp267
sg26
V5
sS'trials.thisRepN'
p268
I0
sg66
Vbed
p269
sg63
V../experiment_stimuli/bw_bc_bl/Nonliving_Things/Furniture/bed_3.jpg
p270
sg21
F0.65164401335641742
sS'trials.thisTrialN'
p271
I16
sa(dp272
g31
g32
sg17
F70.104697622358799
sg24
I1
sg35
g39
sg14
F70.099724321160465
sg16
g36
(g70
S'\x02\x00\x00\x00'
tRp273
sg42
g43
sg46
g47
sg15
g124
sg22
F71.954392936080694
sg64
g73
sg62
g74
sg49
g50
sS'trials.thisN'
p274
I17
sg19
I1
sg27
g36
(g38
S'\x00\x00\x00\x00\x00\x00\x1a@'
tRp275
sg52
g53
sg23
S'1'
sg18
F71.332303394097835
sg33
g34
sg51
g11
sg20
S'2'
sg65
g36
(g77
S'\x00\x00\x00\x00\x00\x00\x00\x00'
tRp276
sg44
g45
sg40
g41
sg25
F0.050336414482444525
sS'trials.thisIndex'
p277
g36
(g80
S'\x10\x00\x00\x00'
tRp278
sg26
V5
sS'trials.thisRepN'
p279
I0
sg66
Vcheetah
p280
sg63
V../experiment_stimuli/bw_bc_bl/Living_Things/Animals/cheetah_3.jpg
p281
sg21
F0.60153861436992884
sS'trials.thisTrialN'
p282
I17
sa(dp283
g31
g32
sg17
F73.742456907872111
sg24
I0
sg35
g39
sg14
F73.737628216855228
sg16
g36
(g70
S'\x02\x00\x00\x00'
tRp284
sg42
g43
sg46
g47
sg15
g72
sg22
F75.712569139897823
sg64
g88
sg62
g89
sg49
g50
sS'trials.thisN'
p285
I18
sg19
I0
sg27
g36
(g38
S'\x00\x00\x00\x00\x00\x00 @'
tRp286
sg52
g53
sg23
S'2'
sg18
F74.980229451321065
sg33
g34
sg51
g11
sg20
S'1'
sg65
g36
(g77
S'\x00\x00\x00\x00\x00\x00\x00\x00'
tRp287
sg44
g45
sg40
g41
sg25
F0.11045351950451732
sS'trials.thisIndex'
p288
g36
(g80
S'\x0e\x00\x00\x00'
tRp289
sg26
V5
sS'trials.thisRepN'
p290
I0
sg66
Vcathedral
p291
sg63
V../experiment_stimuli/bw_bc_bl/Nonliving_Things/Buildings/cathedral_3.jpg
p292
sg21
F0.71177091589197516
sS'trials.thisTrialN'
p293
I18
sa(dp294
g31
g32
sg17
F77.562197665683925
sg24
I1
sg35
g39
sg14
F77.555931442882866
sg16
g36
(g70
S'\x02\x00\x00\x00'
tRp295
sg42
g43
sg46
g47
sg15
g72
sg22
F79.560929991304874
sg64
g101
sg62
g89
sg49
g50
sS'trials.thisN'
p296
I19
sg19
I1
sg27
g36
(g38
S'\x00\x00\x00\x00\x00\x00 @'
tRp297
sg52
g53
sg23
S'1'
sg18
F78.788506320677698
sg33
g34
sg51
g11
sg20
S'2'
sg65
g36
(g77
S'\x00\x00\x00\x00\x00\x00\x00\x00'
tRp298
sg44
g45
sg40
g41
sg25
F0.070379465818405151
sS'trials.thisIndex'
p299
g36
(g80
S'N\x00\x00\x00'
tRp300
sg26
V5
sS'trials.thisRepN'
p301
I0
sg66
Vsofa
p302
sg63
V../experiment_stimuli/bw_bc_bl/Nonliving_Things/Furniture/sofa_23.jpg
p303
sg21
F0.75186053337529302
sS'trials.thisTrialN'
p304
I19
sa(dp305
g31
g32
sg17
F81.369035239797086
sg24
I0
sg35
g39
sg14
F81.364207545761019
sg16
g36
(g70
S'\x01\x00\x00\x00'
tRp306
sg42
g43
sg46
g47
sg15
g124
sg22
F83.499476329889148
sg64
g101
sg62
g89
sg49
g50
sS'trials.thisN'
p307
I20
sg19
I1
sg27
g36
(g38
S'\x00\x00\x00\x00\x00\x00\x1c@'
tRp308
sg52
g53
sg23
S'3'
sg18
F82.606810685712844
sg33
g34
sg51
g11
sg20
S'1'
sg65
g36
(g77
S'\x00\x00\x00\x00\x00\x00\x00\x00'
tRp309
sg44
g45
sg40
g41
sg25
F0.1305595962330699
sS'trials.thisIndex'
p310
g36
(g80
S'\x00\x00\x00\x00'
tRp311
sg26
V5
sS'trials.thisRepN'
p312
I0
sg66
VChest-of-drawers
p313
sg63
V../experiment_stimuli/bw_bc_bl/Nonliving_Things/Furniture/Chest-of-drawers_20.jpg
p314
sg21
F0.8721263031475246
sS'trials.thisTrialN'
p315
I20
sa(dp316
g31
g32
sg17
F85.36784286564216
sg24
I1
sg35
g39
sg14
F85.362903146538883
sg16
g36
(g70
S'\x01\x00\x00\x00'
tRp317
sg42
g43
sg46
g47
sg15
g72
sg22
F87.448079960420728
sg64
g73
sg62
g74
sg49
g50
sS'trials.thisN'
p318
I21
sg19
I0
sg27
g36
(g38
S'\x00\x00\x00\x00\x00\x00\x18@'
tRp319
sg52
g53
sg23
S'1'
sg18
F86.59548381716013
sg33
g34
sg51
g11
sg20
S'2'
sg65
g36
(g77
S'\x00\x00\x00\x00\x00\x00\x00\x00'
tRp320
sg44
g45
sg40
g41
sg25
F0.090421836357563734
sS'trials.thisIndex'
p321
g36
(g80
S'0\x00\x00\x00'
tRp322
sg26
V5
sS'trials.thisRepN'
p323
I0
sg66
Vlioness
p324
sg63
V../experiment_stimuli/bw_bc_bl/Living_Things/Animals/lioness_24.jpg
p325
sg21
F0.83204855024814606
sS'trials.thisTrialN'
p326
I21
sa(dp327
g31
g32
sg17
F89.277080281637609
sg24
I0
sg35
g39
sg14
F89.271395543124527
sg16
g36
(g70
S'\x01\x00\x00\x00'
tRp328
sg42
g43
sg46
g47
sg15
g72
sg22
F91.196210977155715
sg64
g73
sg62
g74
sg49
g50
sS'trials.thisN'
p329
I22
sg19
I0
sg27
g36
(g38
S'\x00\x00\x00\x00\x00\x00\x1a@'
tRp330
sg52
g53
sg23
S'3'
sg18
F90.514009070582688
sg33
g34
sg51
g11
sg20
S'2'
sg65
g36
(g77
S'\x00\x00\x00\x00\x00\x00\x00\x00'
tRp331
sg44
g45
sg40
g41
sg25
F0.19064947264268994
sS'trials.thisIndex'
p332
g36
(g80
S'R\x00\x00\x00'
tRp333
sg26
V5
sS'trials.thisRepN'
p334
I0
sg66
Vtapir
p335
sg63
V../experiment_stimuli/bw_bc_bl/Living_Things/Animals/tapir_19.jpg
p336
sg21
F0.66166864801198244
sS'trials.thisTrialN'
p337
I22
sa(dp338
g31
g32
sg17
F93.124703764449805
sg24
I0
sg35
g39
sg14
F93.119762266986072
sg16
g36
(g70
S'\x01\x00\x00\x00'
tRp339
sg42
g43
sg46
g47
sg15
g124
sg22
F95.154839524067938
sg64
VTools
p340
sg62
g89
sg49
g50
sS'trials.thisN'
p341
I23
sg19
I0
sg27
g36
(g38
S'\x00\x00\x00\x00\x00\x00\x18@'
tRp342
sg52
g53
sg23
S'2'
sg18
F94.352343430742621
sg33
g34
sg51
g11
sg20
S'2'
sg65
g36
(g77
S'\x00\x00\x00\x00\x00\x00\x00\x00'
tRp343
sg44
g45
sg40
g41
sg25
F0.2106822719797492
sS'trials.thisIndex'
p344
g36
(g80
S'%\x00\x00\x00'
tRp345
sg26
V5
sS'trials.thisRepN'
p346
I0
sg66
Vhammer
p347
sg63
V../experiment_stimuli/bw_bc_bl/Nonliving_Things/Tools/hammer_3.jpg
p348
sg21
F0.78192935418337584
sS'trials.thisTrialN'
p349
I23
sa(dp350
g31
g32
sg17
F97.103455692064017
sg24
I1
sg35
g39
sg14
F97.098412914667279
sg16
g36
(g70
S'\x01\x00\x00\x00'
tRp351
sg42
g43
sg46
g47
sg15
g124
sg22
F98.812803128734231
sg64
g88
sg62
g89
sg49
g50
sS'trials.thisN'
p352
I24
sg19
I0
sg27
g36
(g38
S'\x00\x00\x00\x00\x00\x00\x18@'
tRp353
sg52
g53
sg23
S'1'
sg18
F98.330986300017685
sg33
g34
sg51
g11
sg20
S'2'
sg65
g36
(g77
S'\x00\x00\x00\x00\x00\x00\x00\x00'
tRp354
sg44
g45
sg40
g41
sg25
F0.12050207098945975
sS'trials.thisIndex'
p355
g36
(g80
S'5\x00\x00\x00'
tRp356
sg26
V5
sS'trials.thisRepN'
p357
I0
sg66
Vmill
p358
sg63
V../experiment_stimuli/bw_bc_bl/Nonliving_Things/Buildings/mill_6.jpg
p359
sg21
F0.46122745797038078
sS'trials.thisTrialN'
p360
I24
sa(dp361
g31
g32
sg17
F100.67185332067311
sg24
I1
sg35
g39
sg14
F100.66616776259616
sg16
g36
(g70
S'\x01\x00\x00\x00'
tRp362
sg42
g43
sg46
g47
sg15
g72
sg22
F102.82150313537568
sg64
g159
sg62
g74
sg49
g50
sS'trials.thisN'
p363
I25
sg19
I1
sg27
g36
(g38
S'\x00\x00\x00\x00\x00\x00\x1e@'
tRp364
sg52
g53
sg23
S'1'
sg18
F101.9087678687647
sg33
g34
sg51
g11
sg20
S'1'
sg65
g36
(g77
S'\x00\x00\x00\x00\x00\x00\x00\x00'
tRp365
sg44
g45
sg40
g41
sg25
F0.25076696509495378
sS'trials.thisIndex'
p366
g36
(g80
S'\x04\x00\x00\x00'
tRp367
sg26
V5
sS'trials.thisRepN'
p368
I0
sg66
Vbarn-owl
p369
sg63
V../experiment_stimuli/bw_bc_bl/Living_Things/Birds/barn-owl_8.jpg
p370
sg21
F0.89194652251899242
sS'trials.thisTrialN'
p371
I25
sa(dp372
g31
g32
sg17
F104.81000008620322
sg24
I1
sg35
g39
sg14
F104.8051629671827
sg16
g36
(g70
S'\x02\x00\x00\x00'
tRp373
sg42
g43
sg46
g47
sg15
g124
sg22
F106.56967412913218
sg64
g159
sg62
g74
sg49
g50
sS'trials.thisN'
p374
I26
sg19
I1
sg27
g36
(g38
S'\x00\x00\x00\x00\x00\x00\x18@'
tRp375
sg52
g53
sg23
S'1'
sg18
F106.06781568471342
sg33
g34
sg51
g11
sg20
S'2'
sg65
g36
(g77
S'\x00\x00\x00\x00\x00\x00\x00\x00'
tRp376
sg44
g45
sg40
g41
sg25
F0.11045756842941046
sS'trials.thisIndex'
p377
g36
(g80
S'"\x00\x00\x00'
tRp378
sg26
V5
sS'trials.thisRepN'
p379
I0
sg66
Vgoose
p380
sg63
V../experiment_stimuli/bw_bc_bl/Living_Things/Birds/goose_1.jpg
p381
sg21
F0.47127526579424739
sS'trials.thisTrialN'
p382
I26
sa(dp383
g31
g32
sg17
F108.41784557793289
sg24
I1
sg35
g39
sg14
F108.41300506424159
sg16
g36
(g70
S'\x02\x00\x00\x00'
tRp384
sg42
g43
sg46
g47
sg15
g124
sg22
F110.71864689327776
sg64
g171
sg62
g74
sg49
g50
sS'trials.thisN'
p385
I27
sg19
I1
sg27
g36
(g38
S'\x00\x00\x00\x00\x00\x00\x1c@'
tRp386
sg52
g53
sg23
S'1'
sg18
F109.7057138136588
sg33
g34
sg51
g11
sg20
S'2'
sg65
g36
(g77
S'\x00\x00\x00\x00\x00\x00\x00\x00'
tRp387
sg44
g45
sg40
g41
sg25
F0.090263861231505871
sS'trials.thisIndex'
p388
g36
(g80
S'+\x00\x00\x00'
tRp389
sg26
V5
sS'trials.thisRepN'
p390
I0
sg66
Vkiller-whale
p391
sg63
V../experiment_stimuli/bw_bc_bl/Living_Things/Marine_creatures/killer-whale_2.jpg
p392
sg21
F0.99237787770107388
sS'trials.thisTrialN'
p393
I27
sa(dp394
g31
g32
sg17
F112.54690327821299
sg24
I1
sg35
g39
sg14
F112.54198395321146
sg16
g36
(g70
S'\x02\x00\x00\x00'
tRp395
sg42
g43
sg46
g47
sg15
g124
sg22
F114.64728549402207
sg64
g159
sg62
g74
sg49
g50
sS'trials.thisN'
p396
I28
sg19
I1
sg27
g36
(g38
S'\x00\x00\x00\x00\x00\x00\x18@'
tRp397
sg52
g53
sg23
S'1'
sg18
F113.854733355809
sg33
g34
sg51
g11
sg20
S'2'
sg65
g36
(g77
S'\x00\x00\x00\x00\x00\x00\x00\x00'
tRp398
sg44
g45
sg40
g41
sg25
F0.080393164418637753
sS'trials.thisIndex'
p399
g36
(g80
S'8\x00\x00\x00'
tRp400
sg26
V5
sS'trials.thisRepN'
p401
I0
sg66
Vostrich
p402
sg63
V../experiment_stimuli/bw_bc_bl/Living_Things/Birds/ostrich_1.jpg
p403
sg21
F0.77198525983840227
sS'trials.thisTrialN'
p404
I28
sa(dp405
g31
g32
sg17
F116.46714984858409
sg24
I0
sg35
g39
sg14
F116.4604956577532
sg16
g36
(g70
S'\x01\x00\x00\x00'
tRp406
sg42
g43
sg46
g47
sg15
g124
sg22
F118.38531554630026
sg64
g229
sg62
g89
sg49
g50
sS'trials.thisN'
p407
I29
sg19
I1
sg27
g36
(g38
S'\x00\x00\x00\x00\x00\x00\x1a@'
tRp408
sg52
g53
sg23
S'3'
sg18
F117.80331450188532
sg33
g34
sg51
g11
sg20
S'1'
sg65
g36
(g77
S'\x00\x00\x00\x00\x00\x00\x00\x00'
tRp409
sg44
g45
sg40
g41
sg25
F0.15059686591848731
sS'trials.thisIndex'
p410
g36
(g80
S'6\x00\x00\x00'
tRp411
sg26
V5
sS'trials.thisRepN'
p412
I0
sg66
Vmotorbike
p413
sg63
V../experiment_stimuli/bw_bc_bl/Nonliving_Things/Vehicles/motorbike_22.jpg
p414
sg21
F0.56145215081050992
sS'trials.thisTrialN'
p415
I29
sa(dp416
g31
g32
sg17
F120.2736424729228
sg24
I0
sg35
g39
sg14
F120.26879663625732
sg16
g36
(g70
S'\x01\x00\x00\x00'
tRp417
sg42
g43
sg46
g47
sg15
g72
sg22
F122.26373817073181
sg64
g183
sg62
g74
sg49
g50
sS'trials.thisN'
p418
I30
sg19
I1
sg27
g36
(g38
S'\x00\x00\x00\x00\x00\x00\x1a@'
tRp419
sg52
g53
sg23
S'3'
sg18
F121.58154135057703
sg33
g34
sg51
g11
sg20
S'1'
sg65
g36
(g77
S'\x00\x00\x00\x00\x00\x00\x00\x00'
tRp420
sg44
g45
sg40
g41
sg25
F0.12053822819143534
sS'trials.thisIndex'
p421
g36
(g80
S'\x18\x00\x00\x00'
tRp422
sg26
V5
sS'trials.thisRepN'
p423
I0
sg66
Vdragonfly
p424
sg63
V../experiment_stimuli/bw_bc_bl/Living_Things/Insects/dragonfly_18.jpg
p425
sg21
F0.66166624985635281
sS'trials.thisTrialN'
p426
I30
sa(dp427
g31
g32
sg17
F124.12206334248185
sg24
I0
sg35
g39
sg14
F124.11713886400685
sg16
g36
(g70
S'\x02\x00\x00\x00'
tRp428
sg42
g43
sg46
g47
sg15
g124
sg22
F126.15222891001031
sg64
g171
sg62
g74
sg49
g50
sS'trials.thisN'
p429
I31
sg19
I0
sg27
g36
(g38
S'\x00\x00\x00\x00\x00\x00\x18@'
tRp430
sg52
g53
sg23
S'3'
sg18
F125.3998296931386
sg33
g34
sg51
g11
sg20
S'1'
sg65
g36
(g77
S'\x00\x00\x00\x00\x00\x00\x00\x00'
tRp431
sg44
g45
sg40
g41
sg25
F0.31089176563546062
sS'trials.thisIndex'
p432
g36
(g80
S'A\x00\x00\x00'
tRp433
sg26
V5
sS'trials.thisRepN'
p434
I0
sg66
Vpomfret
p435
sg63
V../experiment_stimuli/bw_bc_bl/Living_Things/Marine_creatures/pomfret_26.jpg
p436
sg21
F0.73183388356119394
sS'trials.thisTrialN'
p437
I31
sa(dp438
g31
g32
sg17
F128.20181083166972
sg24
I0
sg35
g39
sg14
F128.19601581292227
sg16
g36
(g70
S'\x02\x00\x00\x00'
tRp439
sg42
g43
sg46
g47
sg15
g124
sg22
F131.12299530394375
sg64
g73
sg62
g74
sg49
g50
sS'trials.thisN'
p440
I32
sg19
I0
sg27
g36
(g38
S'\x00\x00\x00\x00\x00\x00\x1a@'
tRp441
sg52
g53
sg23
S'3'
sg18
F129.45866222633049
sg33
g34
sg51
g11
sg20
S'1'
sg65
g36
(g77
S'\x00\x00\x00\x00\x00\x00\x00\x00'
tRp442
sg44
g45
sg40
g41
sg25
F0.29087117267772555
sS'trials.thisIndex'
p443
g36
(g80
S"'\x00\x00\x00"
tRp444
sg26
V5
sS'trials.thisRepN'
p445
I0
sg66
Vhippopotamus
p446
sg63
V../experiment_stimuli/bw_bc_bl/Living_Things/Animals/hippopotamus_14.jpg
p447
sg21
F1.6437956537120044
sS'trials.thisTrialN'
p448
I32
sa(dp449
g31
g32
sg17
F133.15170322731137
sg24
I1
sg35
g39
sg14
F133.1467724442482
sg16
g36
(g70
S'\x01\x00\x00\x00'
tRp450
sg42
g43
sg46
g47
sg15
g124
sg22
F134.96137685887516
sg64
g229
sg62
g89
sg49
g50
sS'trials.thisN'
p451
I33
sg19
I0
sg27
g36
(g38
S'\x00\x00\x00\x00\x00\x00\x18@'
tRp452
sg52
g53
sg23
S'1'
sg18
F134.37935954751447
sg33
g34
sg51
g11
sg20
S'2'
sg65
g36
(g77
S'\x00\x00\x00\x00\x00\x00\x00\x00'
tRp453
sg44
g45
sg40
g41
sg25
F0.010239462368190289
sS'trials.thisIndex'
p454
g36
(g80
S'W\x00\x00\x00'
tRp455
sg26
V5
sS'trials.thisRepN'
p456
I0
sg66
Vtrain
p457
sg63
V../experiment_stimuli/bw_bc_bl/Nonliving_Things/Vehicles/train_16.jpg
p458
sg21
F0.56145542906597257
sS'trials.thisTrialN'
p459
I33
sa(dp460
g31
g32
sg17
F136.70933017926291
sg24
I0
sg35
g39
sg14
F136.70450393948704
sg16
g36
(g70
S'\x01\x00\x00\x00'
tRp461
sg42
g43
sg46
g47
sg15
g72
sg22
F138.86987574398518
sg64
g171
sg62
g74
sg49
g50
sS'trials.thisN'
p462
I34
sg19
I1
sg27
g36
(g38
S'\x00\x00\x00\x00\x00\x00\x1e@'
tRp463
sg52
g53
sg23
S'2'
sg18
F137.95712832733989
sg33
g34
sg51
g11
sg20
S'1'
sg65
g36
(g77
S'\x00\x00\x00\x00\x00\x00\x00\x00'
tRp464
sg44
g45
sg40
g41
sg25
F0.17060621827840805
sS'trials.thisIndex'
p465
g36
(g80
S'7\x00\x00\x00'
tRp466
sg26
V5
sS'trials.thisRepN'
p467
I0
sg66
Vnarwhal
p468
sg63
V../experiment_stimuli/bw_bc_bl/Living_Things/Marine_creatures/narwhal_18.jpg
p469
sg21
F0.8921861806884408
sS'trials.thisTrialN'
p470
I34
sa(dp471
g31
g32
sg17
F140.78031232766807
sg24
I1
sg35
g39
sg14
F140.77334633329883
sg16
g36
(g70
S'\x01\x00\x00\x00'
tRp472
sg42
g43
sg46
g47
sg15
g72
sg22
F142.66810067091137
sg64
g159
sg62
g74
sg49
g50
sS'trials.thisN'
p473
I35
sg19
I0
sg27
g36
(g38
S'\x00\x00\x00\x00\x00\x00\x1a@'
tRp474
sg52
g53
sg23
S'1'
sg18
F142.01595187559724
sg33
g34
sg51
g11
sg20
S'2'
sg65
g36
(g77
S'\x00\x00\x00\x00\x00\x00\x00\x00'
tRp475
sg44
g45
sg40
g41
sg25
F0.10043910285457969
sS'trials.thisIndex'
p476
g36
(g80
S'!\x00\x00\x00'
tRp477
sg26
V5
sS'trials.thisRepN'
p478
I0
sg66
Vgoldfinch
p479
sg63
V../experiment_stimuli/bw_bc_bl/Living_Things/Birds/goldfinch_8.jpg
p480
sg21
F0.63159715384244919
sS'trials.thisTrialN'
p481
I35
sa(dp482
g31
g32
sg17
F144.50638954713941
sg24
I0
sg35
g39
sg14
F144.50146832037717
sg16
g36
(g70
S'\x02\x00\x00\x00'
tRp483
sg42
g43
sg46
g47
sg15
g72
sg22
F146.43629043409601
sg64
g101
sg62
g89
sg49
g50
sS'trials.thisN'
p484
I36
sg19
I1
sg27
g36
(g38
S'\x00\x00\x00\x00\x00\x00\x1a@'
tRp485
sg52
g53
sg23
S'3'
sg18
F145.77412052638829
sg33
g34
sg51
g11
sg20
S'2'
sg65
g36
(g77
S'\x00\x00\x00\x00\x00\x00\x00\x00'
tRp486
sg44
g45
sg40
g41
sg25
F0.13050191709771752
sS'trials.thisIndex'
p487
g36
(g80
S'\x06\x00\x00\x00'
tRp488
sg26
V5
sS'trials.thisRepN'
p489
I0
sg66
Vbedside-table
p490
sg63
V../experiment_stimuli/bw_bc_bl/Nonliving_Things/Furniture/bedside-table_11.jpg
p491
sg21
F0.64162690099328756
sS'trials.thisTrialN'
p492
I36
sa(dp493
g31
g32
sg17
F148.30463133845478
sg24
I1
sg35
g39
sg14
F148.29971247259527
sg16
g36
(g70
S'\x01\x00\x00\x00'
tRp494
sg42
g43
sg46
g47
sg15
g72
sg22
F150.24459565291181
sg64
g73
sg62
g74
sg49
g50
sS'trials.thisN'
p495
I37
sg19
I0
sg27
g36
(g38
S'\x00\x00\x00\x00\x00\x00\x18@'
tRp496
sg52
g53
sg23
S'1'
sg18
F149.55233439011499
sg33
g34
sg51
g11
sg20
S'2'
sg65
g36
(g77
S'\x00\x00\x00\x00\x00\x00\x00\x00'
tRp497
sg44
g45
sg40
g41
sg25
F0.14052563766017556
sS'trials.thisIndex'
p498
g36
(g80
S'Z\x00\x00\x00'
tRp499
sg26
V5
sS'trials.thisRepN'
p500
I0
sg66
Vturtle
p501
sg63
V../experiment_stimuli/bw_bc_bl/Living_Things/Animals/turtle_23.jpg
p502
sg21
F0.67169321095570922
sS'trials.thisTrialN'
p503
I37
sa(dp504
g31
g32
sg17
F152.1238649985753
sg24
I0
sg35
g39
sg14
F152.11800728878006
sg16
g36
(g70
S'\x01\x00\x00\x00'
tRp505
sg42
g43
sg46
g47
sg15
g124
sg22
F154.01279426924884
sg64
g229
sg62
g89
sg49
g50
sS'trials.thisN'
p506
I38
sg19
I1
sg27
g36
(g38
S'\x00\x00\x00\x00\x00\x00\x1c@'
tRp507
sg52
g53
sg23
S'3'
sg18
F153.39068514481187
sg33
g34
sg51
g11
sg20
S'1'
sg65
g36
(g77
S'\x00\x00\x00\x00\x00\x00\x00\x00'
tRp508
sg44
g45
sg40
g41
sg25
F0.10044663306325674
sS'trials.thisIndex'
p509
g36
(g80
S'\x07\x00\x00\x00'
tRp510
sg26
V5
sS'trials.thisRepN'
p511
I0
sg66
Vboat
p512
sg63
V../experiment_stimuli/bw_bc_bl/Nonliving_Things/Vehicles/boat_25.jpg
p513
sg21
F0.60154115967452526
sS'trials.thisTrialN'
p514
I38
sa(dp515
g31
g32
sg17
F155.85310102626681
sg24
I1
sg35
g39
sg14
F155.84617980150506
sg16
g36
(g70
S'\x01\x00\x00\x00'
tRp516
sg42
g43
sg46
g47
sg15
g72
sg22
F157.76091232337058
sg64
g183
sg62
g74
sg49
g50
sS'trials.thisN'
p517
I39
sg19
I1
sg27
g36
(g38
S'\x00\x00\x00\x00\x00\x00\x18@'
tRp518
sg52
g53
sg23
S'1'
sg18
F157.09873938607052
sg33
g34
sg51
g11
sg20
S'1'
sg65
g36
(g77
S'\x00\x00\x00\x00\x00\x00\x00\x00'
tRp519
sg44
g45
sg40
g41
sg25
F0.18061627773568034
sS'trials.thisIndex'
p520
g36
(g80
S'\n\x00\x00\x00'
tRp521
sg26
V5
sS'trials.thisRepN'
p522
I0
sg66
Vbutterfly
p523
sg63
V../experiment_stimuli/bw_bc_bl/Living_Things/Insects/butterfly_14.jpg
p524
sg21
F0.64162616431713104
sS'trials.thisTrialN'
p525
I39
sa(dp526
g31
g32
sg17
F159.67934296559542
sg24
I1
sg35
g39
sg14
F159.6744347945787
sg16
g36
(g70
S'\x02\x00\x00\x00'
tRp527
sg42
g43
sg46
g47
sg15
g124
sg22
F161.70950575126335
sg64
g159
sg62
g74
sg49
g50
sS'trials.thisN'
p528
I40
sg19
I1
sg27
g36
(g38
S'\x00\x00\x00\x00\x00\x00\x18@'
tRp529
sg52
g53
sg23
S'1'
sg18
F160.93708054628223
sg33
g34
sg51
g11
sg20
S'2'
sg65
g36
(g77
S'\x00\x00\x00\x00\x00\x00\x00\x00'
tRp530
sg44
g45
sg40
g41
sg25
F0.11047002673149109
sS'trials.thisIndex'
p531
g36
(g80
S'U\x00\x00\x00'
tRp532
sg26
V5
sS'trials.thisRepN'
p533
I0
sg66
Vtoucan
p534
sg63
V../experiment_stimuli/bw_bc_bl/Living_Things/Birds/toucan_24.jpg
p535
sg21
F0.75186275830492377
sS'trials.thisTrialN'
p536
I40
sa(dp537
g31
g32
sg17
F163.55794221861288
sg24
I1
sg35
g39
sg14
F163.5528920236975
sg16
g36
(g70
S'\x02\x00\x00\x00'
tRp538
sg42
g43
sg46
g47
sg15
g124
sg22
F165.38749983208254
sg64
g159
sg62
g74
sg49
g50
sS'trials.thisN'
p539
I41
sg19
I1
sg27
g36
(g38
S'\x00\x00\x00\x00\x00\x00\x18@'
tRp540
sg52
g53
sg23
S'1'
sg18
F164.82553079770878
sg33
g34
sg51
g11
sg20
S'2'
sg65
g36
(g77
S'\x00\x00\x00\x00\x00\x00\x00\x00'
tRp541
sg44
g45
sg40
g41
sg25
F0.10043688118457794
sS'trials.thisIndex'
p542
g36
(g80
S'<\x00\x00\x00'
tRp543
sg26
V5
sS'trials.thisRepN'
p544
I0
sg66
Vpelican
p545
sg63
V../experiment_stimuli/bw_bc_bl/Living_Things/Birds/pelican_4.jpg
p546
sg21
F0.54140425380319357
sS'trials.thisTrialN'
p547
I41
sa(dp548
g31
g32
sg17
F167.22564308671281
sg24
I0
sg35
g39
sg14
F167.22085027489811
sg16
g36
(g70
S'\x02\x00\x00\x00'
tRp549
sg42
g43
sg46
g47
sg15
g72
sg22
F170.80930309742689
sg64
g136
sg62
g89
sg49
g50
sS'trials.thisN'
p550
I42
sg19
I1
sg27
g36
(g38
S'\x00\x00\x00\x00\x00\x00\x18@'
tRp551
sg52
g53
sg23
S'3'
sg18
F168.51355102099478
sg33
g34
sg51
g11
sg20
S'2'
sg65
g36
(g77
S'\x00\x00\x00\x00\x00\x00\x00\x00'
tRp552
sg44
g45
sg40
g41
sg25
F0.51133456407114863
sS'trials.thisIndex'
p553
g36
(g80
S'\x12\x00\x00\x00'
tRp554
sg26
V5
sS'trials.thisRepN'
p555
I0
sg66
Vcoking-pot
p556
sg63
V../experiment_stimuli/bw_bc_bl/Nonliving_Things/Kitchen_Uten/coking-pot_24.jpg
p557
sg21
F2.2751875813119113
sS'trials.thisTrialN'
p558
I42
sa(dp559
g31
g32
sg17
F173.06054391292855
sg24
I1
sg35
g39
sg14
F173.05352108832449
sg16
g36
(g70
S'\x01\x00\x00\x00'
tRp560
sg42
g43
sg46
g47
sg15
g72
sg22
F175.03849585959688
sg64
g73
sg62
g74
sg49
g50
sS'trials.thisN'
p561
I43
sg19
I0
sg27
g36
(g38
S'\x00\x00\x00\x00\x00\x00\x1c@'
tRp562
sg52
g53
sg23
S'1'
sg18
F174.32619002694264
sg33
g34
sg51
g11
sg20
S'2'
sg65
g36
(g77
S'\x00\x00\x00\x00\x00\x00\x00\x00'
tRp563
sg44
g45
sg40
g41
sg25
F0.090422652661800385
sS'trials.thisIndex'
p564
g36
(g80
S' \x00\x00\x00'
tRp565
sg26
V5
sS'trials.thisRepN'
p566
I0
sg66
Vgiraffe
p567
sg63
V../experiment_stimuli/bw_bc_bl/Living_Things/Animals/giraffe_25.jpg
p568
sg21
F0.69173331512138247
sS'trials.thisTrialN'
p569
I43
sa(dp570
g31
g32
sg17
F176.86673451866955
sg24
I0
sg35
g39
sg14
F176.86180125456303
sg16
g36
(g70
S'\x02\x00\x00\x00'
tRp571
sg42
g43
sg46
g47
sg15
g124
sg22
F178.96703258948401
sg64
g159
sg62
g74
sg49
g50
sS'trials.thisN'
p572
I44
sg19
I0
sg27
g36
(g38
S'\x00\x00\x00\x00\x00\x00\x1c@'
tRp573
sg52
g53
sg23
S'2'
sg18
F178.14448924176395
sg33
g34
sg51
g11
sg20
S'1'
sg65
g36
(g77
S'\x00\x00\x00\x00\x00\x00\x00\x00'
tRp574
sg44
g45
sg40
g41
sg25
F0.13052053283900023
sS'trials.thisIndex'
p575
g36
(g80
S'*\x00\x00\x00'
tRp576
sg26
V5
sS'trials.thisRepN'
p577
I0
sg66
Vhummingbird
p578
sg63
V../experiment_stimuli/bw_bc_bl/Living_Things/Birds/hummingbird_11.jpg
p579
sg21
F0.80196302244439721
sS'trials.thisTrialN'
p580
I44
sa(dp581
g31
g32
sg17
F180.83633946161717
sg24
I0
sg35
g39
sg14
F180.83042650064453
sg16
g36
(g70
S'\x01\x00\x00\x00'
tRp582
sg42
g43
sg46
g47
sg15
g72
sg22
F184.25854707788676
sg64
g159
sg62
g74
sg49
g50
sS'trials.thisN'
p583
I45
sg19
I0
sg27
g36
(g38
S'\x00\x00\x00\x00\x00\x00\x18@'
tRp584
sg52
g53
sg23
S'2'
sg18
F182.10309228906408
sg33
g34
sg51
g11
sg20
S'2'
sg65
g36
(g77
S'\x00\x00\x00\x00\x00\x00\x00\x00'
tRp585
sg44
g45
sg40
g41
sg25
F0.2307216958142817
sS'trials.thisIndex'
p586
g36
(g80
S'O\x00\x00\x00'
tRp587
sg26
V5
sS'trials.thisRepN'
p588
I0
sg66
Vsparrow
p589
sg63
V../experiment_stimuli/bw_bc_bl/Living_Things/Birds/sparrow_7.jpg
p590
sg21
F2.1348819588311017
sS'trials.thisTrialN'
p591
I45
sa(dp592
g31
g32
sg17
F186.22710400959477
sg24
I0
sg35
g39
sg14
F186.22215841058642
sg16
g36
(g70
S'\x02\x00\x00\x00'
tRp593
sg42
g43
sg46
g47
sg15
g124
sg22
F188.17705536494032
sg64
g73
sg62
g74
sg49
g50
sS'trials.thisN'
p594
I46
sg19
I0
sg27
g36
(g38
S'\x00\x00\x00\x00\x00\x00 @'
tRp595
sg52
g53
sg23
S'3'
sg18
F187.48479469260201
sg33
g34
sg51
g11
sg20
S'1'
sg65
g36
(g77
S'\x00\x00\x00\x00\x00\x00\x00\x00'
tRp596
sg44
g45
sg40
g41
sg25
F0.41096081770956516
sS'trials.thisIndex'
p597
g36
(g80
S'T\x00\x00\x00'
tRp598
sg26
V5
sS'trials.thisRepN'
p599
I0
sg66
Vtiger
p600
sg63
V../experiment_stimuli/bw_bc_bl/Living_Things/Animals/tiger_24.jpg
p601
sg21
F0.67169076390564442
sS'trials.thisTrialN'
p602
I46
sa(dp603
g31
g32
sg17
F190.32593945087865
sg24
I0
sg35
g39
sg14
F190.32105861790478
sg16
g36
(g70
S'\x02\x00\x00\x00'
tRp604
sg42
g43
sg46
g47
sg15
g72
sg22
F192.22583036869764
sg64
g136
sg62
g89
sg49
g50
sS'trials.thisN'
p605
I47
sg19
I1
sg27
g36
(g38
S'\x00\x00\x00\x00\x00\x00\x1a@'
tRp606
sg52
g53
sg23
S'3'
sg18
F191.55363619094715
sg33
g34
sg51
g11
sg20
S'2'
sg65
g36
(g77
S'\x00\x00\x00\x00\x00\x00\x00\x00'
tRp607
sg44
g45
sg40
g41
sg25
F0.19048017449676991
sS'trials.thisIndex'
p608
g36
(g80
S'M\x00\x00\x00'
tRp609
sg26
V5
sS'trials.thisRepN'
p610
I0
sg66
Vsmall-saucepan
p611
sg63
V../experiment_stimuli/bw_bc_bl/Nonliving_Things/Kitchen_Uten/small-saucepan_18.jpg
p612
sg21
F0.65164650604128838
sS'trials.thisTrialN'
p613
I47
sa(dp614
g31
g32
sg17
F194.15431300597265
sg24
I1
sg35
g39
sg14
F194.14937601285055
sg16
g36
(g70
S'\x02\x00\x00\x00'
tRp615
sg42
g43
sg46
g47
sg15
g124
sg22
F196.15424102544785
sg64
g159
sg62
g74
sg49
g50
sS'trials.thisN'
p616
I48
sg19
I0
sg27
g36
(g38
S'\x00\x00\x00\x00\x00\x00\x1a@'
tRp617
sg52
g53
sg23
S'1'
sg18
F195.38196513429284
sg33
g34
sg51
g11
sg20
S'1'
sg65
g36
(g77
S'\x00\x00\x00\x00\x00\x00\x00\x00'
tRp618
sg44
g45
sg40
g41
sg25
F0.19063787162303925
sS'trials.thisIndex'
p619
g36
(g80
S'3\x00\x00\x00'
tRp620
sg26
V5
sS'trials.thisRepN'
p621
I0
sg66
Vmagpie
p622
sg63
V../experiment_stimuli/bw_bc_bl/Living_Things/Birds/magpie_8.jpg
p623
sg21
F0.75171050895005465
sS'trials.thisTrialN'
p624
I48
sa(dp625
g31
g32
sg17
F198.08283301442862
sg24
I0
sg35
g39
sg14
F198.07792129879817
sg16
g36
(g70
S'\x02\x00\x00\x00'
tRp626
sg42
g43
sg46
g47
sg15
g72
sg22
F200.2733195903711
sg64
g195
sg62
g89
sg49
g50
sS'trials.thisN'
p627
I49
sg19
I1
sg27
g36
(g38
S'\x00\x00\x00\x00\x00\x00\x1a@'
tRp628
sg52
g53
sg23
S'3'
sg18
F199.3305440810509
sg33
g34
sg51
g11
sg20
S'2'
sg65
g36
(g77
S'\x00\x00\x00\x00\x00\x00\x00\x00'
tRp629
sg44
g45
sg40
g41
sg25
F0.090408303309231997
sS'trials.thisIndex'
p630
g36
(g80
S'$\x00\x00\x00'
tRp631
sg26
V5
sS'trials.thisRepN'
p632
I0
sg66
Vguitar
p633
sg63
V../experiment_stimuli/bw_bc_bl/Nonliving_Things/Musical_Inst/guitar_22.jpg
p634
sg21
F0.92222727322950959
sS'trials.thisTrialN'
p635
I49
sa(dp636
g31
g32
sg17
F202.10152246057987
sg24
I1
sg35
g39
sg14
F202.09665990574285
sg16
g36
(g70
S'\x01\x00\x00\x00'
tRp637
sg42
g43
sg46
g47
sg15
g72
sg22
F204.01147334370762
sg64
g171
sg62
g74
sg49
g50
sS'trials.thisN'
p638
I50
sg19
I0
sg27
g36
(g38
S'\x00\x00\x00\x00\x00\x00\x1c@'
tRp639
sg52
g53
sg23
S'1'
sg18
F203.32923505781218
sg33
g34
sg51
g11
sg20
S'2'
sg65
g36
(g77
S'\x00\x00\x00\x00\x00\x00\x00\x00'
tRp640
sg44
g45
sg40
g41
sg25
F0.10044373059645295
sS'trials.thisIndex'
p641
g36
(g80
S'K\x00\x00\x00'
tRp642
sg26
V5
sS'trials.thisRepN'
p643
I0
sg66
Vshark
p644
sg63
V../experiment_stimuli/bw_bc_bl/Living_Things/Marine_creatures/shark_26.jpg
p645
sg21
F0.66166661074385047
sS'trials.thisTrialN'
p646
I50
sa(dp647
g31
g32
sg17
F205.8496681987308
sg24
I1
sg35
g39
sg14
F205.84480865160003
sg16
g36
(g70
S'\x02\x00\x00\x00'
tRp648
sg42
g43
sg46
g47
sg15
g72
sg22
F208.15047331526875
sg64
g195
sg62
g89
sg49
g50
sS'trials.thisN'
p649
I51
sg19
I0
sg27
g36
(g38
S'\x00\x00\x00\x00\x00\x00\x1c@'
tRp650
sg52
g53
sg23
S'1'
sg18
F207.10746080521494
sg33
g34
sg51
g11
sg20
S'1'
sg65
g36
(g77
S'\x00\x00\x00\x00\x00\x00\x00\x00'
tRp651
sg44
g45
sg40
g41
sg25
F1.0623786421492696
sS'trials.thisIndex'
p652
g36
(g80
S'>\x00\x00\x00'
tRp653
sg26
V5
sS'trials.thisRepN'
p654
I0
sg66
Vpiano
p655
sg63
V../experiment_stimuli/bw_bc_bl/Nonliving_Things/Musical_Inst/piano__7.jpg
p656
sg21
F1.0224572513252497
sS'trials.thisTrialN'
p657
I51
sa(dp658
g31
g32
sg17
F210.95073506468907
sg24
I0
sg35
g39
sg14
F210.94589348370209
sg16
g36
(g70
S'\x01\x00\x00\x00'
tRp659
sg42
g43
sg46
g47
sg15
g72
sg22
F213.01106391055509
sg64
g171
sg62
g74
sg49
g50
sS'trials.thisN'
p660
I52
sg19
I1
sg27
g36
(g38
S'\x00\x00\x00\x00\x00\x00\x1a@'
tRp661
sg52
g53
sg23
S'2'
sg18
F212.21856197481975
sg33
g34
sg51
g11
sg20
S'1'
sg65
g36
(g77
S'\x00\x00\x00\x00\x00\x00\x00\x00'
tRp662
sg44
g45
sg40
g41
sg25
F0.29086284525692463
sS'trials.thisIndex'
p663
g36
(g80
S'4\x00\x00\x00'
tRp664
sg26
V5
sS'trials.thisRepN'
p665
I0
sg66
Vmanatee
p666
sg63
V../experiment_stimuli/bw_bc_bl/Living_Things/Marine_creatures/manatee_8.jpg
p667
sg21
F0.77191604627296329
sS'trials.thisTrialN'
p668
I52
sa(dp669
g31
g32
sg17
F215.03978896979243
sg24
I1
sg35
g39
sg14
F215.03478186018765
sg16
g36
(g70
S'\x01\x00\x00\x00'
tRp670
sg42
g43
sg46
g47
sg15
g124
sg22
F217.11994669353589
sg64
g340
sg62
g89
sg49
g50
sS'trials.thisN'
p671
I53
sg19
I1
sg27
g36
(g38
S'\x00\x00\x00\x00\x00\x00\x18@'
tRp672
sg52
g53
sg23
S'1'
sg18
F216.29743439005688
sg33
g34
sg51
g11
sg20
S'1'
sg65
g36
(g77
S'\x00\x00\x00\x00\x00\x00\x00\x00'
tRp673
sg44
g45
sg40
g41
sg25
F0.20065446104854345
sS'trials.thisIndex'
p674
g36
(g80
S'\x03\x00\x00\x00'
tRp675
sg26
V5
sS'trials.thisRepN'
p676
I0
sg66
Vaxe
p677
sg63
V../experiment_stimuli/bw_bc_bl/Nonliving_Things/Tools/axe_3.jpg
p678
sg21
F0.80196700012311339
sS'trials.thisTrialN'
p679
I53
sa(dp680
g31
g32
sg17
F219.06064319703728
sg24
I0
sg35
g39
sg14
F219.05351586220786
sg16
g36
(g70
S'\x02\x00\x00\x00'
tRp681
sg42
g43
sg46
g47
sg15
g72
sg22
F220.86811361880973
sg64
g101
sg62
g89
sg49
g50
sS'trials.thisN'
p682
I54
sg19
I1
sg27
g36
(g38
S'\x00\x00\x00\x00\x00\x00 @'
tRp683
sg52
g53
sg23
S'3'
sg18
F220.3362054922618
sg33
g34
sg51
g11
sg20
S'2'
sg65
g36
(g77
S'\x00\x00\x00\x00\x00\x00\x00\x00'
tRp684
sg44
g45
sg40
g41
sg25
F0.10045332461595535
sS'trials.thisIndex'
p685
g36
(g80
S'\x02\x00\x00\x00'
tRp686
sg26
V5
sS'trials.thisRepN'
p687
I0
sg66
Varmchair
p688
sg63
V../experiment_stimuli/bw_bc_bl/Nonliving_Things/Furniture/armchair_16.jpg
p689
sg21
F0.511338428594172
sS'trials.thisTrialN'
p690
I54
sa(dp691
g31
g32
sg17
F222.70738695096225
sg24
I0
sg35
g39
sg14
F222.70145130995661
sg16
g36
(g70
S'\x02\x00\x00\x00'
tRp692
sg42
g43
sg46
g47
sg15
g72
sg22
F224.60625395923853
sg64
g136
sg62
g89
sg49
g50
sS'trials.thisN'
p693
I55
sg19
I1
sg27
g36
(g38
S'\x00\x00\x00\x00\x00\x00\x18@'
tRp694
sg52
g53
sg23
S'3'
sg18
F223.96409302065149
sg33
g34
sg51
g11
sg20
S'2'
sg65
g36
(g77
S'\x00\x00\x00\x00\x00\x00\x00\x00'
tRp695
sg44
g45
sg40
g41
sg25
F0.33094113972038031
sS'trials.thisIndex'
p696
g36
(g80
S'S\x00\x00\x00'
tRp697
sg26
V5
sS'trials.thisRepN'
p698
I0
sg66
Vteapot
p699
sg63
V../experiment_stimuli/bw_bc_bl/Nonliving_Things/Kitchen_Uten/teapot_16.jpg
p700
sg21
F0.62158397026360035
sS'trials.thisTrialN'
p701
I55
sa(dp702
g31
g32
sg17
F226.67498610634357
sg24
I0
sg35
g39
sg14
F226.67007796606049
sg16
g36
(g70
S'\x02\x00\x00\x00'
tRp703
sg42
g43
sg46
g47
sg15
g124
sg22
F229.38660808000714
sg64
g73
sg62
g74
sg49
g50
sS'trials.thisN'
p704
I56
sg19
I1
sg27
g36
(g38
S'\x00\x00\x00\x00\x00\x00\x18@'
tRp705
sg52
g53
sg23
S'3'
sg18
F227.90265875309706
sg33
g34
sg51
g11
sg20
S'2'
sg65
g36
(g77
S'\x00\x00\x00\x00\x00\x00\x00\x00'
tRp706
sg44
g45
sg40
g41
sg25
F0.10043920809403062
sS'trials.thisIndex'
p707
g36
(g80
S'2\x00\x00\x00'
tRp708
sg26
V5
sS'trials.thisRepN'
p709
I0
sg66
Vlynx
p710
sg63
V../experiment_stimuli/bw_bc_bl/Living_Things/Animals/lynx_12.jpg
p711
sg21
F1.4634089441969991
sS'trials.thisTrialN'
p712
I56
sa(dp713
g31
g32
sg17
F231.22484548343346
sg24
I0
sg35
g39
sg14
F231.21996144764125
sg16
g36
(g70
S'\x01\x00\x00\x00'
tRp714
sg42
g43
sg46
g47
sg15
g124
sg22
F233.44545711623505
sg64
g229
sg62
g89
sg49
g50
sS'trials.thisN'
p715
I57
sg19
I0
sg27
g36
(g38
S'\x00\x00\x00\x00\x00\x00\x18@'
tRp716
sg52
g53
sg23
S'2'
sg18
F232.45254451688379
sg33
g34
sg51
g11
sg20
S'2'
sg65
g36
(g77
S'\x00\x00\x00\x00\x00\x00\x00\x00'
tRp717
sg44
g45
sg40
g41
sg25
F0.2006517956033349
sS'trials.thisIndex'
p718
g36
(g80
S'\x0b\x00\x00\x00'
tRp719
sg26
V5
sS'trials.thisRepN'
p720
I0
sg66
Vcar
p721
sg63
V../experiment_stimuli/bw_bc_bl/Nonliving_Things/Vehicles/car_10.jpg
p722
sg21
F0.97234172467142344
sS'trials.thisTrialN'
p723
I57
sa(dp724
g31
g32
sg17
F235.38383420975879
sg24
I1
sg35
g39
sg14
F235.37900442490354
sg16
g36
(g70
S'\x02\x00\x00\x00'
tRp725
sg42
g43
sg46
g47
sg15
g72
sg22
F237.57443605456501
sg64
g88
sg62
g89
sg49
g50
sS'trials.thisN'
p726
I58
sg19
I0
sg27
g36
(g38
S'\x00\x00\x00\x00\x00\x00\x1c@'
tRp727
sg52
g53
sg23
S'1'
sg18
F236.61157706240192
sg33
g34
sg51
g11
sg20
S'1'
sg65
g36
(g77
S'\x00\x00\x00\x00\x00\x00\x00\x00'
tRp728
sg44
g45
sg40
g41
sg25
F0.29085360141471028
sS'trials.thisIndex'
p729
g36
(g80
S'\x0c\x00\x00\x00'
tRp730
sg26
V5
sS'trials.thisRepN'
p731
I0
sg66
Vcastle
p732
sg63
V../experiment_stimuli/bw_bc_bl/Nonliving_Things/Buildings/castle_17.jpg
p733
sg21
F0.94229250866919756
sS'trials.thisTrialN'
p734
I58
sa(dp735
g31
g32
sg17
F239.60305976541713
sg24
I0
sg35
g39
sg14
F239.59817707166076
sg16
g36
(g70
S'\x02\x00\x00\x00'
tRp736
sg42
g43
sg46
g47
sg15
g124
sg22
F242.0541654471308
sg64
g159
sg62
g74
sg49
g50
sS'trials.thisN'
p737
I59
sg19
I1
sg27
g36
(g38
S'\x00\x00\x00\x00\x00\x00\x18@'
tRp738
sg52
g53
sg23
S'2'
sg18
F240.85080322995782
sg33
g34
sg51
g11
sg20
S'2'
sg65
g36
(g77
S'\x00\x00\x00\x00\x00\x00\x00\x00'
tRp739
sg44
g45
sg40
g41
sg25
F0.21067070122808218
sS'trials.thisIndex'
p740
g36
(g80
S';\x00\x00\x00'
tRp741
sg26
V5
sS'trials.thisRepN'
p742
I0
sg66
Vpartridge
p743
sg63
V../experiment_stimuli/bw_bc_bl/Living_Things/Birds/partridge_5.jpg
p744
sg21
F1.1828074175864458
sS'trials.thisTrialN'
p745
I59
sa(dp746
g31
g32
sg17
F244.00262851221487
sg24
I0
sg35
g39
sg14
F243.99774568341672
sg16
g36
(g70
S'\x02\x00\x00\x00'
tRp747
sg42
g43
sg46
g47
sg15
g72
sg22
F246.57402644492686
sg64
g195
sg62
g89
sg49
g50
sS'trials.thisN'
p748
I60
sg19
I0
sg27
g36
(g38
S'\x00\x00\x00\x00\x00\x00\x1a@'
tRp749
sg52
g53
sg23
S'2'
sg18
F245.25036702211946
sg33
g34
sg51
g11
sg20
S'1'
sg65
g36
(g77
S'\x00\x00\x00\x00\x00\x00\x00\x00'
tRp750
sg44
g45
sg40
g41
sg25
F0.090410615317523479
sS'trials.thisIndex'
p751
g36
(g80
S'H\x00\x00\x00'
tRp752
sg26
V5
sS'trials.thisRepN'
p753
I0
sg66
Vsaxophone
p754
sg63
V../experiment_stimuli/bw_bc_bl/Nonliving_Things/Musical_Inst/saxophone_22.jpg
p755
sg21
F1.303079642355442
sS'trials.thisTrialN'
p756
I60
sa(dp757
g31
g32
sg17
F248.40212725661695
sg24
I1
sg35
g39
sg14
F248.39730458101258
sg16
g36
(g70
S'\x02\x00\x00\x00'
tRp758
sg42
g43
sg46
g47
sg15
g72
sg22
F250.55263710068539
sg64
g195
sg62
g89
sg49
g50
sS'trials.thisN'
p759
I61
sg19
I0
sg27
g36
(g38
S'\x00\x00\x00\x00\x00\x00 @'
tRp760
sg52
g53
sg23
S'1'
sg18
F249.62989098485559
sg33
g34
sg51
g11
sg20
S'1'
sg65
g36
(g77
S'\x00\x00\x00\x00\x00\x00\x00\x00'
tRp761
sg44
g45
sg40
g41
sg25
F0.26078026136383414
sS'trials.thisIndex'
p762
g36
(g80
S'\\\x00\x00\x00'
tRp763
sg26
V5
sS'trials.thisRepN'
p764
I0
sg66
Vviolin
p765
sg63
V../experiment_stimuli/bw_bc_bl/Nonliving_Things/Musical_Inst/violin_6.jpg
p766
sg21
F0.90218743262812495
sS'trials.thisTrialN'
p767
I61
sa(dp768
g31
g32
sg17
F252.552402371075
sg24
I1
sg35
g39
sg14
F252.54632437881082
sg16
g36
(g70
S'\x02\x00\x00\x00'
tRp769
sg42
g43
sg46
g47
sg15
g124
sg22
F254.41103751538321
sg64
g171
sg62
g74
sg49
g50
sS'trials.thisN'
p770
I62
sg19
I1
sg27
g36
(g38
S'\x00\x00\x00\x00\x00\x00\x1a@'
tRp771
sg52
g53
sg23
S'1'
sg18
F253.78892854554579
sg33
g34
sg51
g11
sg20
S'2'
sg65
g36
(g77
S'\x00\x00\x00\x00\x00\x00\x00\x00'
tRp772
sg44
g45
sg40
g41
sg25
F0.08039399515837431
sS'trials.thisIndex'
p773
g36
(g80
S'\x15\x00\x00\x00'
tRp774
sg26
V5
sS'trials.thisRepN'
p775
I0
sg66
Vcrab
p776
sg63
V../experiment_stimuli/bw_bc_bl/Living_Things/Marine_creatures/crab_6.jpg
p777
sg21
F0.6015429338440299
sS'trials.thisTrialN'
p778
I62
sa(dp779
g31
g32
sg17
F256.22912856424227
sg24
I1
sg35
g39
sg14
F256.22432114789262
sg16
g36
(g70
S'\x02\x00\x00\x00'
tRp780
sg42
g43
sg46
g47
sg15
g72
sg22
F258.82058882247657
sg64
g101
sg62
g89
sg49
g50
sS'trials.thisN'
p781
I63
sg19
I0
sg27
g36
(g38
S'\x00\x00\x00\x00\x00\x00\x1a@'
tRp782
sg52
g53
sg23
S'1'
sg18
F257.48696299735457
sg33
g34
sg51
g11
sg20
S'1'
sg65
g36
(g77
S'\x00\x00\x00\x00\x00\x00\x00\x00'
tRp783
sg44
g45
sg40
g41
sg25
F0.20065791253000498
sS'trials.thisIndex'
p784
g36
(g80
S'.\x00\x00\x00'
tRp785
sg26
V5
sS'trials.thisRepN'
p786
I0
sg66
Vlamp
p787
sg63
V../experiment_stimuli/bw_bc_bl/Nonliving_Things/Furniture/lamp_22.jpg
p788
sg21
F1.3130777925252914
sS'trials.thisTrialN'
p789
I63
sa(dp790
g31
g32
sg17
F260.75902244495228
sg24
I1
sg35
g39
sg14
F260.75416287546977
sg16
g36
(g70
S'\x02\x00\x00\x00'
tRp791
sg42
g43
sg46
g47
sg15
g124
sg22
F262.56878669513389
sg64
g159
sg62
g74
sg49
g50
sS'trials.thisN'
p792
I64
sg19
I1
sg27
g36
(g38
S'\x00\x00\x00\x00\x00\x00\x18@'
tRp793
sg52
g53
sg23
S'1'
sg18
F262.02683870494366
sg33
g34
sg51
g11
sg20
S'2'
sg65
g36
(g77
S'\x00\x00\x00\x00\x00\x00\x00\x00'
tRp794
sg44
g45
sg40
g41
sg25
F0.12048585340380669
sS'trials.thisIndex'
p795
g36
(g80
S'=\x00\x00\x00'
tRp796
sg26
V5
sS'trials.thisRepN'
p797
I0
sg66
Vpenguin
p798
sg63
V../experiment_stimuli/bw_bc_bl/Living_Things/Birds/penguin_0.jpg
p799
sg21
F0.52139377733692527
sS'trials.thisTrialN'
p800
I64
sa(dp801
g31
g32
sg17
F264.42701132735237
sg24
I0
sg35
g39
sg14
F264.42215253971517
sg16
g36
(g70
S'\x01\x00\x00\x00'
tRp802
sg42
g43
sg46
g47
sg15
g124
sg22
F266.80799081455916
sg64
g88
sg62
g89
sg49
g50
sS'trials.thisN'
p803
I65
sg19
I1
sg27
g36
(g38
S'\x00\x00\x00\x00\x00\x00\x18@'
tRp804
sg52
g53
sg23
S'3'
sg18
F265.72487255558372
sg33
g34
sg51
g11
sg20
S'1'
sg65
g36
(g77
S'\x00\x00\x00\x00\x00\x00\x00\x00'
tRp805
sg44
g45
sg40
g41
sg25
F0.15039822971448302
sS'trials.thisIndex'
p806
g36
(g80
S'\x1c\x00\x00\x00'
tRp807
sg26
V5
sS'trials.thisRepN'
p808
I0
sg66
Vfactory
p809
sg63
V../experiment_stimuli/bw_bc_bl/Nonliving_Things/Buildings/factory_8.jpg
p810
sg21
F1.0525179491378367
sS'trials.thisTrialN'
p811
I65
sa(dp812
g31
g32
sg17
F268.69618195714429
sg24
I1
sg35
g39
sg14
F268.69142337841913
sg16
g36
(g70
S'\x01\x00\x00\x00'
tRp813
sg42
g43
sg46
g47
sg15
g124
sg22
F270.63628344610333
sg64
g136
sg62
g89
sg49
g50
sS'trials.thisN'
p814
I66
sg19
I0
sg27
g36
(g38
S'\x00\x00\x00\x00\x00\x00\x18@'
tRp815
sg52
g53
sg23
S'1'
sg18
F269.97411125293002
sg33
g34
sg51
g11
sg20
S'2'
sg65
g36
(g77
S'\x00\x00\x00\x00\x00\x00\x00\x00'
tRp816
sg44
g45
sg40
g41
sg25
F0.090265632141381502
sS'trials.thisIndex'
p817
g36
(g80
S'B\x00\x00\x00'
tRp818
sg26
V5
sS'trials.thisRepN'
p819
I0
sg66
Vpot
p820
sg63
V../experiment_stimuli/bw_bc_bl/Nonliving_Things/Kitchen_Uten/pot_23.jpg
p821
sg21
F0.64162138244137168
sS'trials.thisTrialN'
p822
I66
sa(dp823
g31
g32
sg17
F272.46440022345632
sg24
I0
sg35
g39
sg14
F272.4596163444221
sg16
g36
(g70
S'\x02\x00\x00\x00'
tRp824
sg42
g43
sg46
g47
sg15
g72
sg22
F274.28421617578715
sg64
g136
sg62
g89
sg49
g50
sS'trials.thisN'
p825
I67
sg19
I1
sg27
g36
(g38
S'\x00\x00\x00\x00\x00\x00\x18@'
tRp826
sg52
g53
sg23
S'3'
sg18
F273.76234632264823
sg33
g34
sg51
g11
sg20
S'2'
sg65
g36
(g77
S'\x00\x00\x00\x00\x00\x00\x00\x00'
tRp827
sg44
g45
sg40
g41
sg25
F0.090419427026063204
sS'trials.thisIndex'
p828
g36
(g80
S'G\x00\x00\x00'
tRp829
sg26
V5
sS'trials.thisRepN'
p830
I0
sg66
Vsaucepan
p831
sg63
V../experiment_stimuli/bw_bc_bl/Nonliving_Things/Kitchen_Uten/saucepan_14.jpg
p832
sg21
F0.50131597835570574
sS'trials.thisTrialN'
p833
I67
sa(dp834
g31
g32
sg17
F276.11229608906433
sg24
I1
sg35
g39
sg14
F276.1075459648855
sg16
g36
(g70
S'\x01\x00\x00\x00'
tRp835
sg42
g43
sg46
g47
sg15
g72
sg22
F278.05240820581093
sg64
g171
sg62
g74
sg49
g50
sS'trials.thisN'
p836
I68
sg19
I0
sg27
g36
(g38
S'\x00\x00\x00\x00\x00\x00\x1a@'
tRp837
sg52
g53
sg23
S'1'
sg18
F277.38020976120606
sg33
g34
sg51
g11
sg20
S'2'
sg65
g36
(g77
S'\x00\x00\x00\x00\x00\x00\x00\x00'
tRp838
sg44
g45
sg40
g41
sg25
F0.090409592725336552
sS'trials.thisIndex'
p839
g36
(g80
S'\x17\x00\x00\x00'
tRp840
sg26
V5
sS'trials.thisRepN'
p841
I0
sg66
Vdolphin
p842
sg63
V../experiment_stimuli/bw_bc_bl/Living_Things/Marine_creatures/dolphin_15.jpg
p843
sg21
F0.6516431188210845
sS'trials.thisTrialN'
p844
I68
sa(dp845
g31
g32
sg17
F279.8805302688852
sg24
I0
sg35
g39
sg14
F279.8757343525067
sg16
g36
(g70
S'\x01\x00\x00\x00'
tRp846
sg42
g43
sg46
g47
sg15
g72
sg22
F282.6323608206585
sg64
g159
sg62
g74
sg49
g50
sS'trials.thisN'
p847
I69
sg19
I1
sg27
g36
(g38
S'\x00\x00\x00\x00\x00\x00\x1e@'
tRp848
sg52
g53
sg23
S'3'
sg18
F281.16844599647447
sg33
g34
sg51
g11
sg20
S'1'
sg65
g36
(g77
S'\x00\x00\x00\x00\x00\x00\x00\x00'
tRp849
sg44
g45
sg40
g41
sg25
F0.12048330483958125
sS'trials.thisIndex'
p850
g36
(g80
S'J\x00\x00\x00'
tRp851
sg26
V5
sS'trials.thisRepN'
p852
I0
sg66
Vseagull
p853
sg63
V../experiment_stimuli/bw_bc_bl/Living_Things/Birds/seagull_7.jpg
p854
sg21
F1.4433627841062844
sS'trials.thisTrialN'
p855
I69
sa(dp856
g31
g32
sg17
F284.49046327034011
sg24
I0
sg35
g39
sg14
F284.48575404798612
sg16
g36
(g70
S'\x01\x00\x00\x00'
tRp857
sg42
g43
sg46
g47
sg15
g72
sg22
F286.32039185939357
sg64
g171
sg62
g74
sg49
g50
sS'trials.thisN'
p858
I70
sg19
I0
sg27
g36
(g38
S'\x00\x00\x00\x00\x00\x00\x18@'
tRp859
sg52
g53
sg23
S'3'
sg18
F285.74840916413814
sg33
g34
sg51
g11
sg20
S'2'
sg65
g36
(g77
S'\x00\x00\x00\x00\x00\x00\x00\x00'
tRp860
sg44
g45
sg40
g41
sg25
F0.10043979482725263
sS'trials.thisIndex'
p861
g36
(g80
S'^\x00\x00\x00'
tRp862
sg26
V5
sS'trials.thisRepN'
p863
I0
sg66
Vwhale
p864
sg63
V../experiment_stimuli/bw_bc_bl/Living_Things/Marine_creatures/whale_3.jpg
p865
sg21
F0.55143802333623171
sS'trials.thisTrialN'
p866
I70
sa(dp867
g31
g32
sg17
F288.15861130086705
sg24
I1
sg35
g39
sg14
F288.1537528662011
sg16
g36
(g70
S'\x01\x00\x00\x00'
tRp868
sg42
g43
sg46
g47
sg15
g72
sg22
F290.08857026929036
sg64
g73
sg62
g74
sg49
g50
sS'trials.thisN'
p869
I71
sg19
I1
sg27
g36
(g38
S'\x00\x00\x00\x00\x00\x00\x18@'
tRp870
sg52
g53
sg23
S'1'
sg18
F289.38630887959152
sg33
g34
sg51
g11
sg20
S'1'
sg65
g36
(g77
S'\x00\x00\x00\x00\x00\x00\x00\x00'
tRp871
sg44
g45
sg40
g41
sg25
F0.18060986045747995
sS'trials.thisIndex'
p872
g36
(g80
S'_\x00\x00\x00'
tRp873
sg26
V5
sS'trials.thisRepN'
p874
I0
sg66
Vzebra
p875
sg63
V../experiment_stimuli/bw_bc_bl/Living_Things/Animals/zebra_4.jpg
p876
sg21
F0.6817104434594512
sS'trials.thisTrialN'
p877
I71
sa(dp878
g31
g32
sg17
F292.00693778833374
sg24
I0
sg35
g39
sg14
F292.00209402292967
sg16
g36
(g70
S'\x02\x00\x00\x00'
tRp879
sg42
g43
sg46
g47
sg15
g124
sg22
F294.20753377955407
sg64
g183
sg62
g74
sg49
g50
sS'trials.thisN'
p880
I72
sg19
I0
sg27
g36
(g38
S'\x00\x00\x00\x00\x00\x00\x1e@'
tRp881
sg52
g53
sg23
S'2'
sg18
F293.25471880519763
sg33
g34
sg51
g11
sg20
S'1'
sg65
g36
(g77
S'\x00\x00\x00\x00\x00\x00\x00\x00'
tRp882
sg44
g45
sg40
g41
sg25
F0.33078262349590659
sS'trials.thisIndex'
p883
g36
(g80
S'-\x00\x00\x00'
tRp884
sg26
V5
sS'trials.thisRepN'
p885
I0
sg66
Vladybird
p886
sg63
V../experiment_stimuli/bw_bc_bl/Living_Things/Insects/ladybird_11.jpg
p887
sg21
F0.93225459940731525
sS'trials.thisTrialN'
p888
I72
sa(dp889
g31
g32
sg17
F296.27626379905269
sg24
I0
sg35
g39
sg14
F296.27137859072536
sg16
g36
(g70
S'\x01\x00\x00\x00'
tRp890
sg42
g43
sg46
g47
sg15
g124
sg22
F298.31648072274402
sg64
g88
sg62
g89
sg49
g50
sS'trials.thisN'
p891
I73
sg19
I1
sg27
g36
(g38
S'\x00\x00\x00\x00\x00\x00\x1e@'
tRp892
sg52
g53
sg23
S'2'
sg18
F297.51398039236665
sg33
g34
sg51
g11
sg20
S'1'
sg65
g36
(g77
S'\x00\x00\x00\x00\x00\x00\x00\x00'
tRp893
sg44
g45
sg40
g41
sg25
F0.12047371407970786
sS'trials.thisIndex'
p894
g36
(g80
S'#\x00\x00\x00'
tRp895
sg26
V5
sS'trials.thisRepN'
p896
I0
sg66
Vgranary
p897
sg63
V../experiment_stimuli/bw_bc_bl/Nonliving_Things/Buildings/granary_7.jpg
p898
sg21
F0.78193521127104759
sS'trials.thisTrialN'
p899
I73
sa(dp900
g31
g32
sg17
F300.17469450924546
sg24
I0
sg35
g39
sg14
F300.16984839038923
sg16
g36
(g70
S'\x02\x00\x00\x00'
tRp901
sg42
g43
sg46
g47
sg15
g124
sg22
F302.06463236315176
sg64
g159
sg62
g74
sg49
g50
sS'trials.thisN'
p902
I74
sg19
I0
sg27
g36
(g38
S'\x00\x00\x00\x00\x00\x00 @'
tRp903
sg52
g53
sg23
S'2'
sg18
F301.40243144473061
sg33
g34
sg51
g11
sg20
S'1'
sg65
g36
(g77
S'\x00\x00\x00\x00\x00\x00\x00\x00'
tRp904
sg44
g45
sg40
g41
sg25
F0.12048454117029905
sS'trials.thisIndex'
p905
g36
(g80
S'\x1a\x00\x00\x00'
tRp906
sg26
V5
sS'trials.thisRepN'
p907
I0
sg66
Vduck
p908
sg63
V../experiment_stimuli/bw_bc_bl/Living_Things/Birds/duck_20.jpg
p909
sg21
F0.64164250995963812
sS'trials.thisTrialN'
p910
I74
sa(dp911
g31
g32
sg17
F303.92292803898454
sg24
I1
sg35
g39
sg14
F303.91800205688924
sg16
g36
(g70
S'\x02\x00\x00\x00'
tRp912
sg42
g43
sg46
g47
sg15
g72
sg22
F305.77270426182076
sg64
g101
sg62
g89
sg49
g50
sS'trials.thisN'
p913
I75
sg19
I1
sg27
g36
(g38
S'\x00\x00\x00\x00\x00\x00 @'
tRp914
sg52
g53
sg23
S'1'
sg18
F305.15058202110231
sg33
g34
sg51
g11
sg20
S'2'
sg65
g36
(g77
S'\x00\x00\x00\x00\x00\x00\x00\x00'
tRp915
sg44
g45
sg40
g41
sg25
F0.060371259227395058
sS'trials.thisIndex'
p916
g36
(g80
S'\x0f\x00\x00\x00'
tRp917
sg26
V5
sS'trials.thisRepN'
p918
I0
sg66
Vchair
p919
sg63
V../experiment_stimuli/bw_bc_bl/Nonliving_Things/Furniture/chair_22.jpg
p920
sg21
F0.6015493399463594
sS'trials.thisTrialN'
p921
I75
sa(dp922
g31
g32
sg17
F307.57360096648335
sg24
I0
sg35
g39
sg14
F307.56592988083139
sg16
g36
(g70
S'\x01\x00\x00\x00'
tRp923
sg42
g43
sg46
g47
sg15
g72
sg22
F309.94173204386607
sg64
g73
sg62
g74
sg49
g50
sS'trials.thisN'
p924
I76
sg19
I1
sg27
g36
(g38
S'\x00\x00\x00\x00\x00\x00\x18@'
tRp925
sg52
g53
sg23
S'2'
sg18
F308.81855291873217
sg33
g34
sg51
g11
sg20
S'1'
sg65
g36
(g77
S'\x00\x00\x00\x00\x00\x00\x00\x00'
tRp926
sg44
g45
sg40
g41
sg25
F0.51134294038638473
sS'trials.thisIndex'
p927
g36
(g80
S'D\x00\x00\x00'
tRp928
sg26
V5
sS'trials.thisRepN'
p929
I0
sg66
Vrhino
p930
sg63
V../experiment_stimuli/bw_bc_bl/Living_Things/Animals/rhino_5.jpg
p931
sg21
F1.1026291223242879
sS'trials.thisTrialN'
p932
I76
sa(dp933
g31
g32
sg17
F312.19092351244763
sg24
I1
sg35
g39
sg14
F312.18596625607461
sg16
g36
(g70
S'\x02\x00\x00\x00'
tRp934
sg42
g43
sg46
g47
sg15
g72
sg22
F314.01057632826269
sg64
g195
sg62
g89
sg49
g50
sS'trials.thisN'
p935
I77
sg19
I0
sg27
g36
(g38
S'\x00\x00\x00\x00\x00\x00\x18@'
tRp936
sg52
g53
sg23
S'1'
sg18
F313.42857634322718
sg33
g34
sg51
g11
sg20
S'1'
sg65
g36
(g77
S'\x00\x00\x00\x00\x00\x00\x00\x00'
tRp937
sg44
g45
sg40
g41
sg25
F0.18061006767675281
sS'trials.thisIndex'
p938
g36
(g80
S'Y\x00\x00\x00'
tRp939
sg26
V5
sS'trials.thisRepN'
p940
I0
sg66
Vtuba
p941
sg63
V../experiment_stimuli/bw_bc_bl/Nonliving_Things/Musical_Inst/tuba_14.jpg
p942
sg21
F0.56145315477624536
sS'trials.thisTrialN'
p943
I77
sa(dp944
g31
g32
sg17
F315.92916035884991
sg24
I0
sg35
g39
sg14
F315.92410381045192
sg16
g36
(g70
S'\x02\x00\x00\x00'
tRp945
sg42
g43
sg46
g47
sg15
g72
sg22
F317.97920608893037
sg64
g101
sg62
g89
sg49
g50
sS'trials.thisN'
p946
I78
sg19
I1
sg27
g36
(g38
S'\x00\x00\x00\x00\x00\x00\x1a@'
tRp947
sg52
g53
sg23
S'2'
sg18
F317.18673969386145
sg33
g34
sg51
g11
sg20
S'2'
sg65
g36
(g77
S'\x00\x00\x00\x00\x00\x00\x00\x00'
tRp948
sg44
g45
sg40
g41
sg25
F0.18060986790806055
sS'trials.thisIndex'
p949
g36
(g80
S'E\x00\x00\x00'
tRp950
sg26
V5
sS'trials.thisRepN'
p951
I0
sg66
Vrocking-chair
p952
sg63
V../experiment_stimuli/bw_bc_bl/Nonliving_Things/Furniture/rocking-chair_18.jpg
p953
sg21
F0.77189747896045446
sS'trials.thisTrialN'
p954
I78
sa(dp955
g31
g32
sg17
F319.90755971288309
sg24
I1
sg35
g39
sg14
F319.90275461599231
sg16
g36
(g70
S'\x02\x00\x00\x00'
tRp956
sg42
g43
sg46
g47
sg15
g124
sg22
F321.81755408039317
sg64
g159
sg62
g74
sg49
g50
sS'trials.thisN'
p957
I79
sg19
I1
sg27
g36
(g38
S'\x00\x00\x00\x00\x00\x00\x1a@'
tRp958
sg52
g53
sg23
S'1'
sg18
F321.15537346573547
sg33
g34
sg51
g11
sg20
S'2'
sg65
g36
(g77
S'\x00\x00\x00\x00\x00\x00\x00\x00'
tRp959
sg44
g45
sg40
g41
sg25
F0.11046164762228727
sS'trials.thisIndex'
p960
g36
(g80
S'F\x00\x00\x00'
tRp961
sg26
V5
sS'trials.thisRepN'
p962
I0
sg66
Vrooster
p963
sg63
V../experiment_stimuli/bw_bc_bl/Living_Things/Birds/rooster_24.jpg
p964
sg21
F0.64164204383268952
sS'trials.thisTrialN'
p965
I79
sa(dp966
g31
g32
sg17
F323.66568406717852
sg24
I1
sg35
g39
sg14
F323.66091698501259
sg16
g36
(g70
S'\x01\x00\x00\x00'
tRp967
sg42
g43
sg46
g47
sg15
g72
sg22
F325.52559179486707
sg64
g159
sg62
g74
sg49
g50
sS'trials.thisN'
p968
I80
sg19
I1
sg27
g36
(g38
S'\x00\x00\x00\x00\x00\x00\x18@'
tRp969
sg52
g53
sg23
S'1'
sg18
F324.93358380394056
sg33
g34
sg51
g11
sg20
S'1'
sg65
g36
(g77
S'\x00\x00\x00\x00\x00\x00\x00\x00'
tRp970
sg44
g45
sg40
g41
sg25
F0.16056471550837159
sS'trials.thisIndex'
p971
g36
(g80
S',\x00\x00\x00'
tRp972
sg26
V5
sS'trials.thisRepN'
p973
I0
sg66
Vkiwi
p974
sg63
V../experiment_stimuli/bw_bc_bl/Living_Things/Birds/kiwi_1.jpg
p975
sg21
F0.57146260188892484
sS'trials.thisTrialN'
p976
I80
sa(dp977
g31
g32
sg17
F327.42387963924557
sg24
I1
sg35
g39
sg14
F327.41910952283069
sg16
g36
(g70
S'\x02\x00\x00\x00'
tRp978
sg42
g43
sg46
g47
sg15
g72
sg22
F329.28380994172767
sg64
g101
sg62
g89
sg49
g50
sS'trials.thisN'
p979
I81
sg19
I0
sg27
g36
(g38
S'\x00\x00\x00\x00\x00\x00\x1a@'
tRp980
sg52
g53
sg23
S'1'
sg18
F328.72181978728622
sg33
g34
sg51
g11
sg20
S'1'
sg65
g36
(g77
S'\x00\x00\x00\x00\x00\x00\x00\x00'
tRp981
sg44
g45
sg40
g41
sg25
F0.17058900790289044
sS'trials.thisIndex'
p982
g36
(g80
S'\x1d\x00\x00\x00'
tRp983
sg26
V5
sS'trials.thisRepN'
p984
I0
sg66
Vfilling-cabinet
p985
sg63
V../experiment_stimuli/bw_bc_bl/Nonliving_Things/Furniture/filling-cabinet_21.jpg
p986
sg21
F0.54142495291307569
sS'trials.thisTrialN'
p987
I81
sa(dp988
g31
g32
sg17
F331.19202725635841
sg24
I0
sg35
g39
sg14
F331.18727409467101
sg16
g36
(g70
S'\x01\x00\x00\x00'
tRp989
sg42
g43
sg46
g47
sg15
g72
sg22
F333.42303799651563
sg64
g159
sg62
g74
sg49
g50
sS'trials.thisN'
p990
I82
sg19
I1
sg27
g36
(g38
S'\x00\x00\x00\x00\x00\x00\x1a@'
tRp991
sg52
g53
sg23
S'3'
sg18
F332.53009868692607
sg33
g34
sg51
g11
sg20
S'1'
sg65
g36
(g77
S'\x00\x00\x00\x00\x00\x00\x00\x00'
tRp992
sg44
g45
sg40
g41
sg25
F0.11047019623219967
sS'trials.thisIndex'
p993
g36
(g80
S'?\x00\x00\x00'
tRp994
sg26
V5
sS'trials.thisRepN'
p995
I0
sg66
Vpigeon
p996
sg63
V../experiment_stimuli/bw_bc_bl/Living_Things/Birds/pigeon_1.jpg
p997
sg21
F0.87237494252622128
sS'trials.thisTrialN'
p998
I82
sa(dp999
g31
g32
sg17
F335.27251762198284
sg24
I0
sg35
g39
sg14
F335.26613626955077
sg16
g36
(g70
S'\x01\x00\x00\x00'
tRp1000
sg42
g43
sg46
g47
sg15
g124
sg22
F337.41145765408874
sg64
g88
sg62
g89
sg49
g50
sS'trials.thisN'
p1001
I83
sg19
I0
sg27
g36
(g38
S'\x00\x00\x00\x00\x00\x00\x1e@'
tRp1002
sg52
g53
sg23
S'2'
sg18
F336.56888063484803
sg33
g34
sg51
g11
sg20
S'2'
sg65
g36
(g77
S'\x00\x00\x00\x00\x00\x00\x00\x00'
tRp1003
sg44
g45
sg40
g41
sg25
F0.28085069172084332
sS'trials.thisIndex'
p1004
g36
(g80
S':\x00\x00\x00'
tRp1005
sg26
V5
sS'trials.thisRepN'
p1006
I0
sg66
Vpalace
p1007
sg63
V../experiment_stimuli/bw_bc_bl/Nonliving_Things/Buildings/palace_20.jpg
p1008
sg21
F0.82202297914773226
sS'trials.thisTrialN'
p1009
I83
sa(dp1010
g31
g32
sg17
F339.42991063464433
sg24
I0
sg35
g39
sg14
F339.42518079606816
sg16
g36
(g70
S'\x01\x00\x00\x00'
tRp1011
sg42
g43
sg46
g47
sg15
g72
sg22
F341.3800603589043
sg64
g159
sg62
g74
sg49
g50
sS'trials.thisN'
p1012
I84
sg19
I1
sg27
g36
(g38
S'\x00\x00\x00\x00\x00\x00 @'
tRp1013
sg52
g53
sg23
S'2'
sg18
F340.71789772575721
sg33
g34
sg51
g11
sg20
S'1'
sg65
g36
(g77
S'\x00\x00\x00\x00\x00\x00\x00\x00'
tRp1014
sg44
g45
sg40
g41
sg25
F0.13055122084915638
sS'trials.thisIndex'
p1015
g36
(g80
S'&\x00\x00\x00'
tRp1016
sg26
V5
sS'trials.thisRepN'
p1017
I0
sg66
Vhen
p1018
sg63
V../experiment_stimuli/bw_bc_bl/Living_Things/Birds/hen_19.jpg
p1019
sg21
F0.64161597657948732
sS'trials.thisTrialN'
p1020
I84
sa(dp1021
g31
g32
sg17
F343.24835393717512
sg24
I0
sg35
g39
sg14
F343.24348979210481
sg16
g36
(g70
S'\x02\x00\x00\x00'
tRp1022
sg42
g43
sg46
g47
sg15
g72
sg22
F345.43891215138137
sg64
g101
sg62
g89
sg49
g50
sS'trials.thisN'
p1023
I85
sg19
I0
sg27
g36
(g38
S'\x00\x00\x00\x00\x00\x00 @'
tRp1024
sg52
g53
sg23
S'3'
sg18
F344.5261799977161
sg33
g34
sg51
g11
sg20
S'1'
sg65
g36
(g77
S'\x00\x00\x00\x00\x00\x00\x00\x00'
tRp1025
sg44
g45
sg40
g41
sg25
F0.12050051847472787
sS'trials.thisIndex'
p1026
g36
(g80
S'Q\x00\x00\x00'
tRp1027
sg26
V5
sS'trials.thisRepN'
p1028
I0
sg66
Vtable
p1029
sg63
V../experiment_stimuli/bw_bc_bl/Nonliving_Things/Furniture/table_17.jpg
p1030
sg21
F0.89217188116163015
sS'trials.thisTrialN'
p1031
I85
sa(dp1032
g31
g32
sg17
F347.29720650427043
sg24
I0
sg35
g39
sg14
F347.29230041615665
sg16
g36
(g70
S'\x02\x00\x00\x00'
tRp1033
sg42
g43
sg46
g47
sg15
g124
sg22
F349.26723894383758
sg64
g171
sg62
g74
sg49
g50
sS'trials.thisN'
p1034
I86
sg19
I0
sg27
g36
(g38
S'\x00\x00\x00\x00\x00\x00\x1a@'
tRp1035
sg52
g53
sg23
S'2'
sg18
F348.54491322860122
sg33
g34
sg51
g11
sg20
S'1'
sg65
g36
(g77
S'\x00\x00\x00\x00\x00\x00\x00\x00'
tRp1036
sg44
g45
sg40
g41
sg25
F0.14052997995167971
sS'trials.thisIndex'
p1037
g36
(g80
S'1\x00\x00\x00'
tRp1038
sg26
V5
sS'trials.thisRepN'
p1039
I0
sg66
Vlobster
p1040
sg63
V../experiment_stimuli/bw_bc_bl/Living_Things/Marine_creatures/lobster_9.jpg
p1041
sg21
F0.70174889359623194
sS'trials.thisTrialN'
p1042
I86
sa(dp1043
g31
g32
sg17
F351.14720678748563
sg24
I0
sg35
g39
sg14
F351.14065565913916
sg16
g36
(g70
S'\x01\x00\x00\x00'
tRp1044
sg42
g43
sg46
g47
sg15
g124
sg22
F353.84717045398429
sg64
g136
sg62
g89
sg49
g50
sS'trials.thisN'
p1045
I87
sg19
I1
sg27
g36
(g38
S'\x00\x00\x00\x00\x00\x00\x18@'
tRp1046
sg52
g53
sg23
S'2'
sg18
F352.38325739325956
sg33
g34
sg51
g11
sg20
S'1'
sg65
g36
(g77
S'\x00\x00\x00\x00\x00\x00\x00\x00'
tRp1047
sg44
g45
sg40
g41
sg25
F0.43115281034260988
sS'trials.thisIndex'
p1048
g36
(g80
S'\x1e\x00\x00\x00'
tRp1049
sg26
V5
sS'trials.thisRepN'
p1050
I0
sg66
Vfondue
p1051
sg63
V../experiment_stimuli/bw_bc_bl/Nonliving_Things/Kitchen_Uten/fondue_21.jpg
p1052
sg21
F1.4433654267340899
sS'trials.thisTrialN'
p1053
I87
sa(dp1054
g31
g32
sg17
F356.01607912173495
sg24
I1
sg35
g39
sg14
F356.01124773174524
sg16
g36
(g70
S'\x01\x00\x00\x00'
tRp1055
sg42
g43
sg46
g47
sg15
g72
sg22
F357.72564170183614
sg64
g73
sg62
g74
sg49
g50
sS'trials.thisN'
p1056
I88
sg19
I0
sg27
g36
(g38
S'\x00\x00\x00\x00\x00\x00\x1e@'
tRp1057
sg52
g53
sg23
S'1'
sg18
F357.24382045539096
sg33
g34
sg51
g11
sg20
S'2'
sg65
g36
(g77
S'\x00\x00\x00\x00\x00\x00\x00\x00'
tRp1058
sg44
g45
sg40
g41
sg25
F0.090439904481172562
sS'trials.thisIndex'
p1059
g36
(g80
S'\x14\x00\x00\x00'
tRp1060
sg26
V5
sS'trials.thisRepN'
p1061
I0
sg66
Vcow
p1062
sg63
V../experiment_stimuli/bw_bc_bl/Living_Things/Animals/cow_7.jpg
p1063
sg21
F0.46125310845673084
sS'trials.thisTrialN'
p1064
I88
sa(dp1065
g31
g32
sg17
F359.55386970704421
sg24
I0
sg35
g39
sg14
F359.54892734857276
sg16
g36
(g70
S'\x02\x00\x00\x00'
tRp1066
sg42
g43
sg46
g47
sg15
g124
sg22
F361.35332261631265
sg64
g159
sg62
g74
sg49
g50
sS'trials.thisN'
p1067
I89
sg19
I1
sg27
g36
(g38
S'\x00\x00\x00\x00\x00\x00\x18@'
tRp1068
sg52
g53
sg23
S'3'
sg18
F360.80155698815361
sg33
g34
sg51
g11
sg20
S'2'
sg65
g36
(g77
S'\x00\x00\x00\x00\x00\x00\x00\x00'
tRp1069
sg44
g45
sg40
g41
sg25
F0.070391837507486343
sS'trials.thisIndex'
p1070
g36
(g80
S'9\x00\x00\x00'
tRp1071
sg26
V5
sS'trials.thisRepN'
p1072
I0
sg66
Vowl
p1073
sg63
V../experiment_stimuli/bw_bc_bl/Living_Things/Birds/owl_16.jpg
p1074
sg21
F0.53122725710272789
sS'trials.thisTrialN'
p1075
I89
sa(dp1076
g31
g32
sg17
F363.16163479769602
sg24
I1
sg35
g39
sg14
F363.15676583349705
sg16
g36
(g70
S'\x02\x00\x00\x00'
tRp1077
sg42
g43
sg46
g47
sg15
g72
sg22
F365.19182895496488
sg64
g88
sg62
g89
sg49
g50
sS'trials.thisN'
p1078
I90
sg19
I1
sg27
g36
(g38
S'\x00\x00\x00\x00\x00\x00\x18@'
tRp1079
sg52
g53
sg23
S'1'
sg18
F364.38936697365716
sg33
g34
sg51
g11
sg20
S'2'
sg65
g36
(g77
S'\x00\x00\x00\x00\x00\x00\x00\x00'
tRp1080
sg44
g45
sg40
g41
sg25
F0.060365612618625164
sS'trials.thisIndex'
p1081
g36
(g80
S'\x11\x00\x00\x00'
tRp1082
sg26
V5
sS'trials.thisRepN'
p1083
I0
sg66
Vchurch
p1084
sg63
V../experiment_stimuli/bw_bc_bl/Nonliving_Things/Buildings/church_21.jpg
p1085
sg21
F0.78192554600536823
sS'trials.thisTrialN'
p1086
I90
sa(dp1087
g31
g32
sg17
F366.98999524815008
sg24
I0
sg35
g39
sg14
F366.98510062601417
sg16
g36
(g70
S'\x02\x00\x00\x00'
tRp1088
sg42
g43
sg46
g47
sg15
g72
sg22
F369.04020434431732
sg64
g229
sg62
g89
sg49
g50
sS'trials.thisN'
p1089
I91
sg19
I0
sg27
g36
(g38
S'\x00\x00\x00\x00\x00\x00\x1a@'
tRp1090
sg52
g53
sg23
S'2'
sg18
F368.2477430133149
sg33
g34
sg51
g11
sg20
S'1'
sg65
g36
(g77
S'\x00\x00\x00\x00\x00\x00\x00\x00'
tRp1091
sg44
g45
sg40
g41
sg25
F0.14057855075225234
sS'trials.thisIndex'
p1092
g36
(g80
S'\t\x00\x00\x00'
tRp1093
sg26
V5
sS'trials.thisRepN'
p1094
I0
sg66
Vbus
p1095
sg63
V../experiment_stimuli/bw_bc_bl/Nonliving_Things/Vehicles/bus_17.jpg
p1096
sg21
F0.77190469345077872
sS'trials.thisTrialN'
p1097
I91
sa(dp1098
g31
g32
sg17
F370.91846237750724
sg24
I0
sg35
g39
sg14
F370.91364473570138
sg16
g36
(g70
S'\x02\x00\x00\x00'
tRp1099
sg42
g43
sg46
g47
sg15
g72
sg22
F372.75830488465726
sg64
g195
sg62
g89
sg49
g50
sS'trials.thisN'
p1100
I92
sg19
I1
sg27
g36
(g38
S'\x00\x00\x00\x00\x00\x00\x1c@'
tRp1101
sg52
g53
sg23
S'2'
sg18
F372.16626316821203
sg33
g34
sg51
g11
sg20
S'2'
sg65
g36
(g77
S'\x00\x00\x00\x00\x00\x00\x00\x00'
tRp1102
sg44
g45
sg40
g41
sg25
F0.18061327049508691
sS'trials.thisIndex'
p1103
g36
(g80
S'X\x00\x00\x00'
tRp1104
sg26
V5
sS'trials.thisRepN'
p1105
I0
sg66
Vtrumpet
p1106
sg63
V../experiment_stimuli/bw_bc_bl/Nonliving_Things/Musical_Inst/trumpet_20.jpg
p1107
sg21
F0.57147052232176065
sS'trials.thisTrialN'
p1108
I92
sa(dp1109
g31
g32
sg17
F374.67663588887081
sg24
I1
sg35
g39
sg14
F374.67180227767676
sg16
g36
(g70
S'\x02\x00\x00\x00'
tRp1110
sg42
g43
sg46
g47
sg15
g72
sg22
F377.0376154333353
sg64
g229
sg62
g89
sg49
g50
sS'trials.thisN'
p1111
I93
sg19
I0
sg27
g36
(g38
S'\x00\x00\x00\x00\x00\x00\x1a@'
tRp1112
sg52
g53
sg23
S'1'
sg18
F375.91441491385922
sg33
g34
sg51
g11
sg20
S'1'
sg65
g36
(g77
S'\x00\x00\x00\x00\x00\x00\x00\x00'
tRp1113
sg44
g45
sg40
g41
sg25
F0.54139486700296402
sS'trials.thisIndex'
p1114
g36
(g80
S'@\x00\x00\x00'
tRp1115
sg26
V5
sS'trials.thisRepN'
p1116
I0
sg66
Vplane
p1117
sg63
V../experiment_stimuli/bw_bc_bl/Nonliving_Things/Vehicles/plane_16.jpg
p1118
sg21
F1.1026229648850858
sS'trials.thisTrialN'
p1119
I93
sa(dp1120
g31
g32
sg17
F379.31662780977786
sg24
I0
sg35
g39
sg14
F379.31189149012789
sg16
g36
(g70
S'\x02\x00\x00\x00'
tRp1121
sg42
g43
sg46
g47
sg15
g72
sg22
F381.17657773243263
sg64
g229
sg62
g89
sg49
g50
sS'trials.thisN'
p1122
I94
sg19
I1
sg27
g36
(g38
S'\x00\x00\x00\x00\x00\x00\x18@'
tRp1123
sg52
g53
sg23
S'3'
sg18
F380.58457412803546
sg33
g34
sg51
g11
sg20
S'2'
sg65
g36
(g77
S'\x00\x00\x00\x00\x00\x00\x00\x00'
tRp1124
sg44
g45
sg40
g41
sg25
F0.10044170450419188
sS'trials.thisIndex'
p1125
g36
(g80
S'L\x00\x00\x00'
tRp1126
sg26
V5
sS'trials.thisRepN'
p1127
I0
sg66
Vship
p1128
sg63
V../experiment_stimuli/bw_bc_bl/Nonliving_Things/Vehicles/ship_14.jpg
p1129
sg21
F0.57146778563037515
sS'trials.thisTrialN'
p1130
I94
sa(dp1131
g31
g32
sg17
F383.01478426344693
sg24
I0
sg35
g39
sg14
F383.00993781769648
sg16
g36
(g70
S'\x02\x00\x00\x00'
tRp1132
sg42
g43
sg46
g47
sg15
g72
sg22
F384.80448610614985
sg64
g229
sg62
g89
sg49
g50
sS'trials.thisN'
p1133
I95
sg19
I1
sg27
g36
(g38
S'\x00\x00\x00\x00\x00\x00\x18@'
tRp1134
sg52
g53
sg23
S'2'
sg18
F384.25254449946806
sg33
g34
sg51
g11
sg20
S'2'
sg65
g36
(g77
S'\x00\x00\x00\x00\x00\x00\x00\x00'
tRp1135
sg44
g45
sg40
g41
sg25
F0.37103520147502422
sS'trials.thisIndex'
p1136
g36
(g80
S'V\x00\x00\x00'
tRp1137
sg26
V5
sS'trials.thisRepN'
p1138
I0
sg66
Vtractor
p1139
sg63
V../experiment_stimuli/bw_bc_bl/Nonliving_Things/Vehicles/tractor_24.jpg
p1140
sg21
F0.5313937203027308
sS'trials.thisTrialN'
p1141
I95
sasS'loops'
p1142
(lp1143
g1
(cpsychopy.data
TrialHandler
p1144
g3
NtRp1145
(dp1146
S'origin'
p1147
NsS'thisTrial'
p1148
(lp1149
sS'_exp'
p1150
I97317136
sg10
S'trials'
p1151
sg6
I-1
sS'thisRepN'
p1152
I1
sg28
I01
sg29
g30
sS'data'
p1153
g1
(cpsychopy.data
DataHandler
p1154
c__builtin__
dict
p1155
(dp1156
g20
cnumpy.core.multiarray
_reconstruct
p1157
(cnumpy
ndarray
p1158
(I0
tS'b'
tRp1159
(I1
(I96
I1
tg37
(S'O4'
I0
I1
tRp1160
(I3
S'|'
NNNI-1
I-1
I63
tbI00
(lp1161
S'1'
aS'1'
aS'2'
aS'1'
aS'1'
aS'2'
aS'2'
aS'1'
aS'2'
aS'1'
aS'1'
aS'2'
aS'1'
aS'2'
aS'1'
aS'2'
aS'2'
aS'2'
aS'2'
aS'2'
aS'2'
aS'2'
aS'1'
aS'2'
aS'1'
aS'2'
aS'1'
aS'2'
aS'1'
aS'1'
aS'1'
aS'1'
aS'2'
aS'2'
aS'2'
aS'1'
aS'2'
aS'2'
aS'1'
aS'1'
aS'1'
aS'2'
aS'1'
aS'2'
aS'1'
aS'1'
aS'1'
aS'2'
aS'2'
aS'1'
aS'2'
aS'1'
aS'1'
aS'2'
aS'1'
aS'1'
aS'2'
aS'2'
aS'2'
aS'2'
aS'2'
aS'2'
aS'1'
aS'1'
aS'1'
aS'1'
aS'2'
aS'2'
aS'1'
aS'2'
aS'2'
aS'2'
aS'1'
aS'2'
aS'1'
aS'2'
aS'2'
aS'2'
aS'2'
aS'2'
aS'1'
aS'1'
aS'2'
aS'2'
aS'1'
aS'2'
aS'2'
aS'2'
aS'2'
aS'1'
aS'2'
aS'1'
aS'1'
aS'2'
aS'2'
aS'1'
atbsg17
cnumpy.ma.core
_mareconstruct
p1162
(cnumpy.ma.core
MaskedArray
p1163
g1158
(I0
tp1164
S'b'
tRp1165
(I1
(I96
I1
tg37
(S'f4'
I0
I1
tRp1166
(I3
S'<'
NNNI-1
I-1
I0
tbI00
S'\xf2\xbc\xa2B\x1f\xdb\xa4A\x86\x0f[C0\nWC\xfdW\xc9B\xac\xab\x83B\xa3\x81\x10C\xb6\x1f\x18C\xeeY\x83A\xb8~\xb7Ce\xda\x1bC\x8f9gCCbkC\xac\xe0hB#|\x93B#\xf6\x97C\x9b5\x8cB\xb0\x94\xb5C\xc49\'CSW\xdeA\x0f\x02\xb2Cj\x8d|C\xbe\xa1xB`\x0e\x8aC\x1b\x8c\xf0B19,B\\\x16\x96C"\x19o@\xa86\x84CB\xb6\xa3C\xd8\x92\xafCSQ\xc1A\x80\x0f-C\xc3\xc7\x0cC\xb8\x9e\xd1B]#\x94C5\x15FC\xd9?\xbaB\x07\xb7\xa9C\xaa3\x00C\xa2-<B\x02\xba\x06A\xe2\xdd0C\xf0\xd5\xd8B5\xd5\xa1C\xe3\x00\x92CT\x1d\x80C\xcd\x0cKBV\xbc\xaaB\x0b\xa6\xadC\xcc\xacbC\x81\'BCc\xf3RC\xf84\xc2B.\xef\xe8B\x97\xb5\x08C\x04\x18\xe1B\xe5\xc6\xb3C\xe2\xa2\xa7Cb\x9aoC\xd5\x8e#C(a\x82C\x84\xd9MC\x94\x98\xa5C\x9cV\xbbC\x7f>\xf8B\x1cY\x86CW_\xfbAl\xc9\x99C\xef\xf6\x9dC+\xf4\x9fCq;\x88C\xac\x00tC#;\x1dB\xb5\xf0\x8bC\xfd\x19JC\x87\xa8\xbdCqS>C\xd8\x1f\x9bB\x1a\xd64C;\\\x0eB\xca\x9f\xabC\xdd\x8d\xb2B\x17\xb5^C#::C\xe9\xad\x1fC\xe4\x81\xbfC\xd6&\x05C\x90u\xb9Cp\x18\x9cC\xfcM\x14C:\xd8YB\xf2fxC\x94\xc3MA\xc8>\x8eCM\x14\x90C'
S'\x00\x00\x00\x00\x00\x00\x00\x00\x00\x00\x00\x00\x00\x00\x00\x00\x00\x00\x00\x00\x00\x00\x00\x00\x00\x00\x00\x00\x00\x00\x00\x00\x00\x00\x00\x00\x00\x00\x00\x00\x00\x00\x00\x00\x00\x00\x00\x00\x00\x00\x00\x00\x00\x00\x00\x00\x00\x00\x00\x00\x00\x00\x00\x00\x00\x00\x00\x00\x00\x00\x00\x00\x00\x00\x00\x00\x00\x00\x00\x00\x00\x00\x00\x00\x00\x00\x00\x00\x00\x00\x00\x00\x00\x00\x00\x00'
NtbsS'ran'
p1167
g1162
(g1163
g1158
g1164
S'b'
tRp1168
(I1
(I96
I1
tg1166
I00
S'\x00\x00\x80?\x00\x00\x80?\x00\x00\x80?\x00\x00\x80?\x00\x00\x80?\x00\x00\x80?\x00\x00\x80?\x00\x00\x80?\x00\x00\x80?\x00\x00\x80?\x00\x00\x80?\x00\x00\x80?\x00\x00\x80?\x00\x00\x80?\x00\x00\x80?\x00\x00\x80?\x00\x00\x80?\x00\x00\x80?\x00\x00\x80?\x00\x00\x80?\x00\x00\x80?\x00\x00\x80?\x00\x00\x80?\x00\x00\x80?\x00\x00\x80?\x00\x00\x80?\x00\x00\x80?\x00\x00\x80?\x00\x00\x80?\x00\x00\x80?\x00\x00\x80?\x00\x00\x80?\x00\x00\x80?\x00\x00\x80?\x00\x00\x80?\x00\x00\x80?\x00\x00\x80?\x00\x00\x80?\x00\x00\x80?\x00\x00\x80?\x00\x00\x80?\x00\x00\x80?\x00\x00\x80?\x00\x00\x80?\x00\x00\x80?\x00\x00\x80?\x00\x00\x80?\x00\x00\x80?\x00\x00\x80?\x00\x00\x80?\x00\x00\x80?\x00\x00\x80?\x00\x00\x80?\x00\x00\x80?\x00\x00\x80?\x00\x00\x80?\x00\x00\x80?\x00\x00\x80?\x00\x00\x80?\x00\x00\x80?\x00\x00\x80?\x00\x00\x80?\x00\x00\x80?\x00\x00\x80?\x00\x00\x80?\x00\x00\x80?\x00\x00\x80?\x00\x00\x80?\x00\x00\x80?\x00\x00\x80?\x00\x00\x80?\x00\x00\x80?\x00\x00\x80?\x00\x00\x80?\x00\x00\x80?\x00\x00\x80?\x00\x00\x80?\x00\x00\x80?\x00\x00\x80?\x00\x00\x80?\x00\x00\x80?\x00\x00\x80?\x00\x00\x80?\x00\x00\x80?\x00\x00\x80?\x00\x00\x80?\x00\x00\x80?\x00\x00\x80?\x00\x00\x80?\x00\x00\x80?\x00\x00\x80?\x00\x00\x80?\x00\x00\x80?\x00\x00\x80?\x00\x00\x80?\x00\x00\x80?'
S'\x00\x00\x00\x00\x00\x00\x00\x00\x00\x00\x00\x00\x00\x00\x00\x00\x00\x00\x00\x00\x00\x00\x00\x00\x00\x00\x00\x00\x00\x00\x00\x00\x00\x00\x00\x00\x00\x00\x00\x00\x00\x00\x00\x00\x00\x00\x00\x00\x00\x00\x00\x00\x00\x00\x00\x00\x00\x00\x00\x00\x00\x00\x00\x00\x00\x00\x00\x00\x00\x00\x00\x00\x00\x00\x00\x00\x00\x00\x00\x00\x00\x00\x00\x00\x00\x00\x00\x00\x00\x00\x00\x00\x00\x00\x00\x00'
Ntbsg24
g1162
(g1163
g1158
g1164
S'b'
tRp1169
(I1
(I96
I1
tg1166
I00
S'\x00\x00\x00\x00\x00\x00\x00\x00\x00\x00\x00\x00\x00\x00\x80?\x00\x00\x80?\x00\x00\x00\x00\x00\x00\x00\x00\x00\x00\x00\x00\x00\x00\x00\x00\x00\x00\x00\x00\x00\x00\x80?\x00\x00\x00\x00\x00\x00\x80?\x00\x00\x80?\x00\x00\x00\x00\x00\x00\x80?\x00\x00\x80?\x00\x00\x80?\x00\x00\x00\x00\x00\x00\x80?\x00\x00\x80?\x00\x00\x80?\x00\x00\x00\x00\x00\x00\x80?\x00\x00\x00\x00\x00\x00\x00\x00\x00\x00\x00\x00\x00\x00\x00\x00\x00\x00\x00\x00\x00\x00\x80?\x00\x00\x00\x00\x00\x00\x00\x00\x00\x00\x80?\x00\x00\x80?\x00\x00\x80?\x00\x00\x00\x00\x00\x00\x00\x00\x00\x00\x00\x00\x00\x00\x00\x00\x00\x00\x00\x00\x00\x00\x00\x00\x00\x00\x00\x00\x00\x00\x00\x00\x00\x00\x80?\x00\x00\x80?\x00\x00\x00\x00\x00\x00\x80?\x00\x00\x80?\x00\x00\x80?\x00\x00\x00\x00\x00\x00\x00\x00\x00\x00\x80?\x00\x00\x00\x00\x00\x00\x80?\x00\x00\x00\x00\x00\x00\x00\x00\x00\x00\x80?\x00\x00\x00\x00\x00\x00\x00\x00\x00\x00\x00\x00\x00\x00\x80?\x00\x00\x80?\x00\x00\x80?\x00\x00\x00\x00\x00\x00\x80?\x00\x00\x00\x00\x00\x00\x80?\x00\x00\x00\x00\x00\x00\x00\x00\x00\x00\x00\x00\x00\x00\x80?\x00\x00\x00\x00\x00\x00\x00\x00\x00\x00\x80?\x00\x00\x00\x00\x00\x00\x80?\x00\x00\x00\x00\x00\x00\x00\x00\x00\x00\x80?\x00\x00\x00\x00\x00\x00\x00\x00\x00\x00\x00\x00\x00\x00\x00\x00\x00\x00\x00\x00\x00\x00\x00\x00\x00\x00\x80?\x00\x00\x00\x00\x00\x00\x80?\x00\x00\x00\x00\x00\x00\x80?\x00\x00\x80?\x00\x00\x00\x00\x00\x00\x80?\x00\x00\x00\x00\x00\x00\x00\x00\x00\x00\x80?'
S'\x00\x00\x00\x00\x00\x00\x00\x00\x00\x00\x00\x00\x00\x00\x00\x00\x00\x00\x00\x00\x00\x00\x00\x00\x00\x00\x00\x00\x00\x00\x00\x00\x00\x00\x00\x00\x00\x00\x00\x00\x00\x00\x00\x00\x00\x00\x00\x00\x00\x00\x00\x00\x00\x00\x00\x00\x00\x00\x00\x00\x00\x00\x00\x00\x00\x00\x00\x00\x00\x00\x00\x00\x00\x00\x00\x00\x00\x00\x00\x00\x00\x00\x00\x00\x00\x00\x00\x00\x00\x00\x00\x00\x00\x00\x00\x00'
Ntbsg14
g1162
(g1163
g1158
g1164
S'b'
tRp1170
(I1
(I96
I1
tg1166
I00
S'y\xba\xa2B0\xd1\xa4A\xb3\r[C\xe7\x08WC\x14U\xc9B0\xa9\x83B`\x80\x10C6\x1e\x18C\xe1M\x83A\x18~\xb7C\x9f\xd8\x1bCO8gC\x06akC\x06\xdbhB\xaay\x93B\x81\xf5\x97C\x0f3\x8cB\x11\x94\xb5C\x8a8\'CRM\xdeAq\x01\xb2C\xdc\x8b|C\x1a\x9cxB\xc4\r\x8aC\xa0\x89\xf0B/4,B\xbe\x15\x96C\x99\xc9m@\t6\x84C\xa5\xb5\xa3C\x01\x92\xafCkG\xc1A\xb4\r-C\xfa\xc5\x0cC>\x9c\xd1B\xbd"\x94C\xf3\x13FCQ=\xbaBl\xb6\xa9C.2\x00C\x8c(<Bw\xa6\x06A\x9f\xdc0Cu\xd3\xd8B\x99\xd4\xa1CE\x00\x92C\xb7\x1c\x80C\xdd\x07KB\xce\xb9\xaaBj\xa5\xadC\x8a\xabbC>&BC&\xf2RCc2\xc2B\xc6\xeb\xe8BZ\xb4\x08C\x7f\x15\xe1BC\xc6\xb3C\x11\xa2\xa7C"\x99oC\x8a\x8d#C\x88`\x82CE\xd8MC\xf9\x97\xa5C\xfeU\xbbC\xfa;\xf8B\x81X\x86CSS\xfbAp\xc8\x99CI\xf6\x9dC\x8d\xf3\x9fC\xd5:\x88Cl\xffsC\x0b6\x1dB\x18\xf0\x8bC\xbf\x18JC\xec\xa7\xbdC1R>C\xa3\x1c\x9bB\x97\xd44C\xbaV\x0eB+\x9f\xabC\xf4\x8a\xb2B\x92\xb3^C\xdf8:C\xa8\xac\x1fCF\x81\xbfC\x93%\x05C\xf2t\xb9C\xce\x17\x9cC\xbaL\x14C\xa7\xd2YB\xb6exCK\xafMA->\x8eC\xae\x13\x90C'
S'\x00\x00\x00\x00\x00\x00\x00\x00\x00\x00\x00\x00\x00\x00\x00\x00\x00\x00\x00\x00\x00\x00\x00\x00\x00\x00\x00\x00\x00\x00\x00\x00\x00\x00\x00\x00\x00\x00\x00\x00\x00\x00\x00\x00\x00\x00\x00\x00\x00\x00\x00\x00\x00\x00\x00\x00\x00\x00\x00\x00\x00\x00\x00\x00\x00\x00\x00\x00\x00\x00\x00\x00\x00\x00\x00\x00\x00\x00\x00\x00\x00\x00\x00\x00\x00\x00\x00\x00\x00\x00\x00\x00\x00\x00\x00\x00'
Ntbsg16
g1157
(g1158
(I0
tS'b'
tRp1171
(I1
(I96
I1
tg1160
I00
(lp1172
g306
ag123
ag681
ag670
ag362
ag262
ag483
ag505
ag112
ag1088
ag516
ag714
ag725
ag240
ag284
ag912
ag273
ag1077
ag549
ag147
ag1055
ag769
ag251
ag835
ag417
ag194
ag901
ag71
ag802
ag978
ag1044
ag135
ag560
ag472
ag373
ag890
ag626
ag339
ag1011
ag439
ag206
ag87
ag571
ag384
ag967
ag879
ag780
ag217
ag317
ag1033
ag703
ag615
ag659
ag351
ag406
ag461
ag395
ag1066
ag1000
ag736
ag538
ag791
ag648
ag989
ag1110
ag428
ag813
ag158
ag923
ag945
ag956
ag824
ag747
ag182
ag846
ag637
ag1121
ag604
ag295
ag582
ag170
ag1022
ag328
ag692
ag593
ag527
ag1132
ag450
ag1099
ag934
ag494
ag228
ag758
ag100
ag857
ag868
atbsg15
g1157
(g1158
(I0
tS'b'
tRp1173
(I1
(I96
I1
tg1160
I00
(lp1174
g124
ag124
ag72
ag124
ag72
ag72
ag72
ag124
ag72
ag72
ag72
ag124
ag72
ag72
ag72
ag72
ag124
ag72
ag72
ag72
ag72
ag124
ag124
ag72
ag72
ag72
ag124
ag72
ag124
ag72
ag124
ag124
ag72
ag72
ag124
ag124
ag72
ag124
ag72
ag124
ag124
ag72
ag124
ag124
ag72
ag124
ag72
ag72
ag72
ag124
ag124
ag124
ag72
ag124
ag124
ag72
ag124
ag124
ag124
ag124
ag124
ag124
ag72
ag72
ag72
ag124
ag124
ag72
ag72
ag72
ag124
ag72
ag72
ag72
ag72
ag72
ag72
ag72
ag72
ag72
ag124
ag72
ag72
ag72
ag124
ag124
ag72
ag124
ag72
ag72
ag72
ag124
ag72
ag72
ag72
ag72
atbsg22
g1162
(g1163
g1158
g1164
S'b'
tRp1175
(I1
(I96
I1
tg1166
I00
S"\xbb\xff\xa6B\\\x03\xb3A=\xde\\C\xb5\x1eYC\x9c\xa4\xcdBnx\x87B\xb1o\x12CF\x03\x1aC_%\x94A%\x85\xb8C\xcb\xc2\x1dC\triC\x0e\x93mC\x11QqB\xd6l\x97B\xe8\xe2\x98C\xa6\xe8\x8fB\x8e\x98\xb6C.\xcf*C\xab#\xedA\xe2\xdc\xb2C:i~C\x1e\xfd\x7fB\xb5\x06\x8bC\t\x87\xf4B\xfe\xf14BF\x08\x97C\x8fo\xcf@lg\x85CT\xa4\xa4Cp\xec\xb0C\xbd\xf4\xcfA\xdb\t/C\t\xab\x0eC\xac#\xd5B\x82(\x95C\xf8EHCGO\xbeB\xa6\xb0\xaaC}\x1f\x03C]\xb2CB\xef00A\x8f\xf72C\xf2o\xddBG\xc3\xa2C\x90\x1a\x93C\ti\x81C\xd6\x91RBk\xe5\xaeB5\xa2\xaeC\xf9beC|'DC\xd5\x02UC(\xa0\xc5BH\xc5\xecB\xb0\xde\nCiK\xe5B:\xad\xb4C\xab\xb4\xa8C\xde\rrC3c%C\xceH\x83C\x85&PC&\xb6\xa6C\xd1\x84\xbcC\xf1M\xfcBrQ\x87C\x17\xce\x06B\x8b\xf8\x9aCW\xfd\x9eC\xa6\xe8\xa0Ca$\x89C\xf3\x92vC!\x12%B\xf1P\x8dC\xf0\x02LC\x9a\x96\xbeC\xd09@C2\x1f\x9fB0B8C\xfc\xea\x15B.\xb8\xacCvd\xb6B3\x9b`CT-<C\xa2\xb5!C\xf9f\xc0C\x1d\xf6\x06C\x10a\xbaC[\x01\x9dC\x9e>\x16C%qaBz\x8dzCM\xf4hA\x03)\x8fCV\x0b\x91C"
S'\x00\x00\x00\x00\x00\x00\x00\x00\x00\x00\x00\x00\x00\x00\x00\x00\x00\x00\x00\x00\x00\x00\x00\x00\x00\x00\x00\x00\x00\x00\x00\x00\x00\x00\x00\x00\x00\x00\x00\x00\x00\x00\x00\x00\x00\x00\x00\x00\x00\x00\x00\x00\x00\x00\x00\x00\x00\x00\x00\x00\x00\x00\x00\x00\x00\x00\x00\x00\x00\x00\x00\x00\x00\x00\x00\x00\x00\x00\x00\x00\x00\x00\x00\x00\x00\x00\x00\x00\x00\x00\x00\x00\x00\x00\x00\x00'
Ntbsg26
g1157
(g1158
(I0
tS'b'
tRp1176
(I1
(I96
I1
tg1160
I00
(lp1177
g36
(g80
S'\x02\x00\x00\x00'
tRp1178
aI1
ag36
(g80
S'\x06\x00\x00\x00'
tRp1179
ag36
(g80
S'\x04\x00\x00\x00'
tRp1180
ag36
(g80
S'\x02\x00\x00\x00'
tRp1181
ag36
(g80
S'\x01\x00\x00\x00'
tRp1182
ag36
(g80
S'\x05\x00\x00\x00'
tRp1183
ag36
(g80
S'\x05\x00\x00\x00'
tRp1184
aI1
ag36
(g80
S'\x04\x00\x00\x00'
tRp1185
ag36
(g80
S'\x03\x00\x00\x00'
tRp1186
aI1
aI1
ag36
(g80
S'\x02\x00\x00\x00'
tRp1187
ag36
(g80
S'\x02\x00\x00\x00'
tRp1188
aI1
aI1
ag36
(g80
S'\x01\x00\x00\x00'
tRp1189
ag36
(g80
S'\x07\x00\x00\x00'
tRp1190
aI1
ag36
(g80
S'\x01\x00\x00\x00'
tRp1191
ag36
(g80
S'\x02\x00\x00\x00'
tRp1192
ag36
(g80
S'\x03\x00\x00\x00'
tRp1193
ag36
(g80
S'\x05\x00\x00\x00'
tRp1194
ag36
(g80
S'\t\x00\x00\x00'
tRp1195
ag36
(g80
S'\x03\x00\x00\x00'
tRp1196
ag36
(g80
S'\x01\x00\x00\x00'
tRp1197
aS'5.0'
p1198
ag36
(g80
S'\x08\x00\x00\x00'
tRp1199
ag36
(g80
S'\x08\x00\x00\x00'
tRp1200
ag36
(g80
S'\x02\x00\x00\x00'
tRp1201
aI1
ag36
(g80
S'\x05\x00\x00\x00'
tRp1202
ag36
(g80
S'\x02\x00\x00\x00'
tRp1203
ag36
(g80
S'\x04\x00\x00\x00'
tRp1204
ag36
(g80
S'\x02\x00\x00\x00'
tRp1205
ag36
(g80
S'\x03\x00\x00\x00'
tRp1206
aI1
ag36
(g80
S'\x07\x00\x00\x00'
tRp1207
ag36
(g80
S'\x04\x00\x00\x00'
tRp1208
ag36
(g80
S'\x01\x00\x00\x00'
tRp1209
aS'4.0'
p1210
ag36
(g80
S'\x06\x00\x00\x00'
tRp1211
ag36
(g80
S'\x07\x00\x00\x00'
tRp1212
ag36
(g80
S'\x05\x00\x00\x00'
tRp1213
ag36
(g80
S'\x03\x00\x00\x00'
tRp1214
ag36
(g80
S'\x04\x00\x00\x00'
tRp1215
aI1
aI1
ag36
(g80
S'\x03\x00\x00\x00'
tRp1216
aI1
aI1
ag36
(g80
S'\x05\x00\x00\x00'
tRp1217
aI1
ag36
(g80
S'\x0c\x00\x00\x00'
tRp1218
ag36
(g80
S'\x03\x00\x00\x00'
tRp1219
ag36
(g80
S'\t\x00\x00\x00'
tRp1220
ag36
(g80
S'\x03\x00\x00\x00'
tRp1221
ag36
(g80
S'\x08\x00\x00\x00'
tRp1222
ag36
(g80
S'\x03\x00\x00\x00'
tRp1223
ag36
(g80
S'\x05\x00\x00\x00'
tRp1224
ag36
(g80
S'\x05\x00\x00\x00'
tRp1225
ag36
(g80
S'\x04\x00\x00\x00'
tRp1226
ag36
(g80
S'\n\x00\x00\x00'
tRp1227
ag36
(g80
S'\x02\x00\x00\x00'
tRp1228
ag36
(g80
S'\x06\x00\x00\x00'
tRp1229
ag36
(g80
S'\x06\x00\x00\x00'
tRp1230
ag36
(g80
S'\x04\x00\x00\x00'
tRp1231
ag36
(g80
S'\x03\x00\x00\x00'
tRp1232
ag36
(g80
S'\x03\x00\x00\x00'
tRp1233
ag36
(g80
S'\x02\x00\x00\x00'
tRp1234
ag36
(g80
S'\x08\x00\x00\x00'
tRp1235
ag36
(g80
S'\x02\x00\x00\x00'
tRp1236
ag36
(g80
S'\x02\x00\x00\x00'
tRp1237
ag36
(g80
S'\x07\x00\x00\x00'
tRp1238
aI1
ag36
(g80
S'\x05\x00\x00\x00'
tRp1239
ag36
(g80
S'\x01\x00\x00\x00'
tRp1240
ag36
(g80
S'\x01\x00\x00\x00'
tRp1241
ag36
(g80
S'\x05\x00\x00\x00'
tRp1242
ag36
(g80
S'\x03\x00\x00\x00'
tRp1243
ag36
(g80
S'\x06\x00\x00\x00'
tRp1244
ag36
(g80
S'\x02\x00\x00\x00'
tRp1245
ag36
(g80
S'\x03\x00\x00\x00'
tRp1246
ag36
(g80
S'\x04\x00\x00\x00'
tRp1247
ag36
(g80
S'\x04\x00\x00\x00'
tRp1248
ag36
(g80
S'\x02\x00\x00\x00'
tRp1249
ag36
(g80
S'\x01\x00\x00\x00'
tRp1250
ag36
(g80
S'\x03\x00\x00\x00'
tRp1251
ag36
(g80
S'\x02\x00\x00\x00'
tRp1252
ag36
(g80
S'\x03\x00\x00\x00'
tRp1253
ag36
(g80
S'\x04\x00\x00\x00'
tRp1254
ag36
(g80
S'\x01\x00\x00\x00'
tRp1255
ag36
(g80
S'\x02\x00\x00\x00'
tRp1256
ag36
(g80
S'\x04\x00\x00\x00'
tRp1257
ag36
(g80
S'\x01\x00\x00\x00'
tRp1258
atbsg21
g1162
(g1163
g1158
g1164
S'b'
tRp1259
(I1
(I96
I1
tg1166
I00
S'\xabC_?\xc7w\x05?\x13\xe7\x02?\xb6MM?\x9bVd?$\xd2&?\xa9A$?\x9a\xfe\x19?c"Z?\x8c\x9bE?\x9dA$?c\xebx?\x15:q?\xb9"Z?\x9e66?#\xff\x19?o\xfe\x19?F,H?\xac\x9c\x11@\x18\xfe\x19?^)\xec>\xb8\xfe\x19?\x1bO\x12?\x15\xd2&?\xf6b)?l\x86i?\xafB$?\xb7\x08\xba?\xe8\xb8\x86?\xd3\x9a\n?3\xc0\xb8?\xd3\xdd\x14?o\x151?Z\xb0!?\xfeJ\xf1>\xe8,H?\x16\x17l?\x86,H?\xf2@$?\xe5g\xd2?4\xa6!?f\x13\xa8?sMM?z\x0c~?`K\x12?=\xa8n?\xef\x12\xa8?\xf3\xaf!?"\x01U?\xd1\xa53?\xfcP\xbb?\x1ap@?J\x9cE?\x01&\xec>T\xbb\x0f?Pfd?\xd3\xa0E?\x82\xfe\x07?\x19pR?<f\x97?x\x99\n?\x10z\x05?\xe1\xdf\x82?\xf7S_?\xc0"\x8d?wY;?MA$?\xdaN\x80?\xf3"\x8d?\x13\x9bE?\xa7B$?>V\x00?P\xcb\xa6?\xfa\xa53?\x1d\xc0\xb8?\xfcb)?\xb6K\x12?N\xd2&?\xefy@?\xe8\xa1\x08@\xf5 \x1f?`ed?\x1ec)?! \x1f?\xed\xf3+?\x14z@?k\t\x08?\x8b\xbb\x0f?\xe4K\x12?e\xbb\x0f?\x16\xf4+?\xe2\x1f\x1f?\xc1\xf5f?\x92\xe3\xe1>\x0b+\r?\x93\x84.?'
S'\x00\x00\x00\x00\x00\x00\x00\x00\x00\x00\x00\x00\x00\x00\x00\x00\x00\x00\x00\x00\x00\x00\x00\x00\x00\x00\x00\x00\x00\x00\x00\x00\x00\x00\x00\x00\x00\x00\x00\x00\x00\x00\x00\x00\x00\x00\x00\x00\x00\x00\x00\x00\x00\x00\x00\x00\x00\x00\x00\x00\x00\x00\x00\x00\x00\x00\x00\x00\x00\x00\x00\x00\x00\x00\x00\x00\x00\x00\x00\x00\x00\x00\x00\x00\x00\x00\x00\x00\x00\x00\x00\x00\x00\x00\x00\x00'
NtbsS'order'
p1260
g1162
(g1163
g1158
g1164
S'b'
tRp1261
(I1
(I96
I1
tg1166
I00
S'\x00\x00\xa0A\x00\x00\x80@\x00\x00XB\x00\x00TB\x00\x00\xc8A\x00\x00\x80A\x00\x00\x10B\x00\x00\x18B\x00\x00@@\x00\x00\xb6B\x00\x00\x1cB\x00\x00dB\x00\x00hB\x00\x00`A\x00\x00\x90A\x00\x00\x96B\x00\x00\x88A\x00\x00\xb4B\x00\x00(B\x00\x00\xc0@\x00\x00\xb0B\x00\x00xB\x00\x00pA\x00\x00\x88B\x00\x00\xf0A\x00\x00 A\x00\x00\x94B\x00\x00\x00\x00\x00\x00\x82B\x00\x00\xa2B\x00\x00\xaeB\x00\x00\xa0@\x00\x00,B\x00\x00\x0cB\x00\x00\xd0A\x00\x00\x92B\x00\x00DB\x00\x00\xb8A\x00\x00\xa8B\x00\x00\x00B\x00\x000A\x00\x00\x80?\x00\x000B\x00\x00\xd8A\x00\x00\xa0B\x00\x00\x90B\x00\x00|B\x00\x00@A\x00\x00\xa8A\x00\x00\xacB\x00\x00`B\x00\x00@B\x00\x00PB\x00\x00\xc0A\x00\x00\xe8A\x00\x00\x08B\x00\x00\xe0A\x00\x00\xb2B\x00\x00\xa6B\x00\x00lB\x00\x00$B\x00\x00\x80B\x00\x00LB\x00\x00\xa4B\x00\x00\xbaB\x00\x00\xf8A\x00\x00\x84B\x00\x00\xe0@\x00\x00\x98B\x00\x00\x9cB\x00\x00\x9eB\x00\x00\x86B\x00\x00pB\x00\x00\x10A\x00\x00\x8aB\x00\x00HB\x00\x00\xbcB\x00\x00<B\x00\x00\x98A\x00\x004B\x00\x00\x00A\x00\x00\xaaB\x00\x00\xb0A\x00\x00\\B\x00\x008B\x00\x00 B\x00\x00\xbeB\x00\x00\x04B\x00\x00\xb8B\x00\x00\x9aB\x00\x00\x14B\x00\x00PA\x00\x00tB\x00\x00\x00@\x00\x00\x8cB\x00\x00\x8eB'
S'\x00\x00\x00\x00\x00\x00\x00\x00\x00\x00\x00\x00\x00\x00\x00\x00\x00\x00\x00\x00\x00\x00\x00\x00\x00\x00\x00\x00\x00\x00\x00\x00\x00\x00\x00\x00\x00\x00\x00\x00\x00\x00\x00\x00\x00\x00\x00\x00\x00\x00\x00\x00\x00\x00\x00\x00\x00\x00\x00\x00\x00\x00\x00\x00\x00\x00\x00\x00\x00\x00\x00\x00\x00\x00\x00\x00\x00\x00\x00\x00\x00\x00\x00\x00\x00\x00\x00\x00\x00\x00\x00\x00\x00\x00\x00\x00'
Ntbsg19
g1162
(g1163
g1158
g1164
S'b'
tRp1262
(I1
(I96
I1
tg1166
I00
S'\x00\x00\x80?\x00\x00\x00\x00\x00\x00\x80?\x00\x00\x80?\x00\x00\x80?\x00\x00\x80?\x00\x00\x80?\x00\x00\x80?\x00\x00\x80?\x00\x00\x00\x00\x00\x00\x80?\x00\x00\x00\x00\x00\x00\x00\x00\x00\x00\x00\x00\x00\x00\x00\x00\x00\x00\x80?\x00\x00\x80?\x00\x00\x80?\x00\x00\x80?\x00\x00\x80?\x00\x00\x00\x00\x00\x00\x80?\x00\x00\x80?\x00\x00\x00\x00\x00\x00\x80?\x00\x00\x80?\x00\x00\x00\x00\x00\x00\x00\x00\x00\x00\x80?\x00\x00\x00\x00\x00\x00\x80?\x00\x00\x80?\x00\x00\x00\x00\x00\x00\x00\x00\x00\x00\x80?\x00\x00\x80?\x00\x00\x80?\x00\x00\x00\x00\x00\x00\x80?\x00\x00\x00\x00\x00\x00\x00\x00\x00\x00\x80?\x00\x00\x00\x00\x00\x00\x80?\x00\x00\x80?\x00\x00\x00\x00\x00\x00\x00\x00\x00\x00\x80?\x00\x00\x00\x00\x00\x00\x00\x00\x00\x00\x80?\x00\x00\x00\x00\x00\x00\x80?\x00\x00\x00\x00\x00\x00\x80?\x00\x00\x80?\x00\x00\x80?\x00\x00\x80?\x00\x00\x00\x00\x00\x00\x80?\x00\x00\x80?\x00\x00\x80?\x00\x00\x00\x00\x00\x00\x80?\x00\x00\x00\x00\x00\x00\x00\x00\x00\x00\x00\x00\x00\x00\x00\x00\x00\x00\x80?\x00\x00\x80?\x00\x00\x80?\x00\x00\x80?\x00\x00\x00\x00\x00\x00\x00\x00\x00\x00\x80?\x00\x00\x00\x00\x00\x00\x80?\x00\x00\x80?\x00\x00\x80?\x00\x00\x00\x00\x00\x00\x00\x00\x00\x00\x00\x00\x00\x00\x00\x00\x00\x00\x80?\x00\x00\x00\x00\x00\x00\x80?\x00\x00\x80?\x00\x00\x00\x00\x00\x00\x80?\x00\x00\x00\x00\x00\x00\x00\x00\x00\x00\x80?\x00\x00\x00\x00\x00\x00\x80?\x00\x00\x00\x00\x00\x00\x80?'
S'\x00\x00\x00\x00\x00\x00\x00\x00\x00\x00\x00\x00\x00\x00\x00\x00\x00\x00\x00\x00\x00\x00\x00\x00\x00\x00\x00\x00\x00\x00\x00\x00\x00\x00\x00\x00\x00\x00\x00\x00\x00\x00\x00\x00\x00\x00\x00\x00\x00\x00\x00\x00\x00\x00\x00\x00\x00\x00\x00\x00\x00\x00\x00\x00\x00\x00\x00\x00\x00\x00\x00\x00\x00\x00\x00\x00\x00\x00\x00\x00\x00\x00\x00\x00\x00\x00\x00\x00\x00\x00\x00\x00\x00\x00\x00\x00'
Ntbsg27
g1157
(g1158
(I0
tS'b'
tRp1263
(I1
(I96
I1
tg1160
I00
(lp1264
g308
ag126
ag683
ag672
ag364
ag264
ag485
ag507
ag114
ag1090
ag518
ag716
ag727
ag242
ag286
ag914
ag275
ag1079
ag551
ag149
ag1057
ag771
ag253
ag837
ag419
ag197
ag903
ag76
ag804
ag980
ag1046
ag138
ag562
ag474
ag375
ag892
ag628
ag342
ag1013
ag441
ag208
ag91
ag573
ag386
ag969
ag881
ag782
ag219
ag319
ag1035
ag705
ag617
ag661
ag353
ag408
ag463
ag397
ag1068
ag1002
ag738
ag540
ag793
ag650
ag991
ag1112
ag430
ag815
ag161
ag925
ag947
ag958
ag826
ag749
ag185
ag848
ag639
ag1123
ag606
ag297
ag584
ag173
ag1024
ag330
ag694
ag595
ag529
ag1134
ag452
ag1101
ag936
ag496
ag231
ag760
ag103
ag859
ag870
atbsg23
g1157
(g1158
(I0
tS'b'
tRp1265
(I1
(I96
I1
tg1160
I00
(lp1266
S'3'
aS'2'
aS'3'
aS'1'
aS'1'
aS'2'
aS'3'
aS'3'
aS'2'
aS'2'
aS'1'
aS'2'
aS'1'
aS'1'
aS'2'
aS'1'
aS'1'
aS'1'
aS'3'
aS'1'
aS'1'
aS'1'
aS'3'
aS'1'
aS'3'
aS'3'
aS'2'
aS'2'
aS'3'
aS'1'
aS'2'
aS'2'
aS'1'
aS'1'
aS'1'
aS'2'
aS'3'
aS'2'
aS'2'
aS'3'
aS'2'
aS'3'
aS'2'
aS'1'
aS'1'
aS'2'
aS'1'
aS'1'
aS'1'
aS'2'
aS'3'
aS'1'
aS'2'
aS'1'
aS'3'
aS'2'
aS'1'
aS'3'
aS'2'
aS'2'
aS'1'
aS'1'
aS'1'
aS'3'
aS'1'
aS'3'
aS'1'
aS'2'
aS'2'
aS'2'
aS'1'
aS'3'
aS'2'
aS'1'
aS'3'
aS'1'
aS'3'
aS'3'
aS'1'
aS'2'
aS'2'
aS'3'
aS'3'
aS'3'
aS'3'
aS'1'
aS'2'
aS'1'
aS'2'
aS'1'
aS'1'
aS'3'
aS'1'
aS'3'
aS'3'
aS'1'
atbsg18
g1162
(g1163
g1158
g1164
S'b'
tRp1267
(I1
(I96
I1
tg1166
I00
S'\xb06\xa5B\x83\xad\xaeA\x12V\\C%LXCJ\xd1\xcbBF \x86B-\xc6\x11C\x04d\x19C4*\x8dA\xb6\x1f\xb8CG\x19\x1dC\xdashC\x90\x9clCt\xd3mB\xe1\xf5\x95BF\x93\x98C$\xaa\x8eB\xd71\xb6Cx\x83(C\xa4)\xe8A6\x9f\xb2C\xf7\xc9}C\xcb\x9e}B\xab\xb0\x8aC\xc0)\xf3B\xd561B\x83\xb3\x96C\x95\xf0\x9f@\xc9\xdc\x84Ce\\\xa4C\x0f1\xb0C\xb9#\xcbA\x81S.C\x15\x04\x0eC\xb9"\xd4B\xca\xc1\x94C\x9fTGCf\xb4\xbcB\xe4[\xaaCku\x01C\xb5\x16ABC\xda\x1aA\xfd$2CSi\xdbB\x80w\xa2C\x9b\xa0\x92CU\xbe\x80C\x07\xf6OB\xe30\xadB\xc0E\xaeC\x15\xe7cC\xc8aCC\xf47TCw\xa9\xc4BL\x9b\xebB\x06\xf5\tC\xa0\xb5\xe3B\x99f\xb4C\xd1H\xa8C\xce\xd9pCV\xd3$Co\x03\x83C\x83\x1bOC\xdaC\xa6C\x0c\xf5\xbbC\xb6\xcc\xfaB\xb0\xfc\x86C\x8f\xb6\x02B\xc6h\x9aC\xe7\x97\x9eC\xe3\x93\xa0C\x95\xe1\x88C\x18@uCx."B\x90\x95\x8cCITKC\xd3J\xbeC\xbb\x8d?C\xb7\x93\x9dBd\x1a6CjY\x13BZC\xacC,\x07\xb5B\xcf\xf6_C\x1c|;C\xe5\xef CS \xc0C\x1ea\x06CH\x15\xbaC\xdc\xb6\x9cCf\x8d\x15C\x9a\xdf^BA\xa1yC\xfc\x90aA\xcc\xdf\x8eCs\xb1\x90C'
S'\x00\x00\x00\x00\x00\x00\x00\x00\x00\x00\x00\x00\x00\x00\x00\x00\x00\x00\x00\x00\x00\x00\x00\x00\x00\x00\x00\x00\x00\x00\x00\x00\x00\x00\x00\x00\x00\x00\x00\x00\x00\x00\x00\x00\x00\x00\x00\x00\x00\x00\x00\x00\x00\x00\x00\x00\x00\x00\x00\x00\x00\x00\x00\x00\x00\x00\x00\x00\x00\x00\x00\x00\x00\x00\x00\x00\x00\x00\x00\x00\x00\x00\x00\x00\x00\x00\x00\x00\x00\x00\x00\x00\x00\x00\x00\x00'
Ntbsg25
g1162
(g1163
g1158
g1164
S'b'
tRp1268
(I1
(I96
I1
tg1166
I00
S"j\xb1\x05>\x8b*N=y\xba\xcd=]xM>\x87d\x80>\r\xb0!?K\xa2\x05>\xf7\xb6\xcd=|\xb6\xb3>\xd3\xf3\x0f>y\xf38>\xaawM>\xc3\xea\x94>\xb3\xde\xb8=t5\xe2=\xdaGw=\x8e-N=\xefAw=\xd2\xe6\x02?^\x15%=\x8e8\xb9=\x9b\xa5\xa4=:\xb4\xcd=\xaa(\xb9=\xbf\xdc\xf6=\xa7%\x90=\x99\xc0\xf6=\xfawM>\xfe\x01\x1a>\xe3\xae.>\x10\xc0\xdc>nEw=\x83/\xb9=\x04\xb3\xcd=\x947\xe2=\xec\xba\xf6=\xfd'\xb9=\x18\xbdW>8\xaf\x05>\x11\xed\x94>\xd8\xb4\xcd=\x979\xe2=-\xa7\x05>B\xdc\xb8=\x14k$>W\\\xa9>EyM>Q\xa5\xa4=\x15/\xb9=\x17\xe7\x0f>\x12\xb3\xcd=\x936C>\xfa\xeb\x94>\xca\xc9\xf6=\x116\x1a>f\xb3.>,\xa5\xa4=\x98)\x90=\xa9\xcb\x8f>\x0f\xbaW>\xda\xb1\xcd=J\xc1\xf6=\x06\xfc\x87?3>\xe2=\xdb\x98\n?5-\x9f>0\xdd\xb8=\xa5+\x1a>_\xe7\x02?\xcb\xf18>\xb79\xe2=\xd2-\xb9=3)\xb9=\x9c/N=\xf3\xbf\xf6=q\xb5\xcd=a\xb4\xcd=<\rC>\x1c#\x90=OBl>\xf06\xb9=\xfa\xc8\xf6=\x9e9C>\x1eq\xa9>ui\xd2>\x1c>\xe2=S\xf8\xbd>k\xc3'<\xaf\xf28>\xd8\xf18>\xf4\xe5\x0f>\x96\xdc\xf6=\xfe\x84\x85>\x92\xbf\xf6=a\xb3\xcd=\xcb\xf18>"
S'\x00\x00\x00\x00\x00\x00\x00\x00\x00\x00\x00\x00\x00\x00\x00\x00\x00\x00\x00\x00\x00\x00\x00\x00\x00\x00\x00\x00\x00\x00\x00\x00\x00\x00\x00\x00\x00\x00\x00\x00\x00\x00\x00\x00\x00\x00\x00\x00\x00\x00\x00\x00\x00\x00\x00\x00\x00\x00\x00\x00\x00\x00\x00\x00\x00\x00\x00\x00\x00\x00\x00\x00\x00\x00\x00\x00\x00\x00\x00\x00\x00\x00\x00\x00\x00\x00\x00\x00\x00\x00\x00\x00\x00\x00\x00\x00'
NtbstRp1269
(dp1270
S'isNumeric'
p1271
(dp1272
g23
I00
sg20
I00
sg17
I01
sg1167
I01
sg22
I01
sg24
I01
sg14
I01
sg18
I01
sg16
I00
sg19
I01
sg26
I00
sg27
I00
sg15
I00
sg21
I01
sg1260
I01
sg25
I01
ssg1151
g1145
sS'dataTypes'
p1273
(lp1274
g1167
ag1260
ag14
ag15
ag16
ag17
ag18
ag19
ag20
ag21
ag22
ag23
ag24
ag25
ag26
ag27
asS'dataShape'
p1275
(lp1276
I96
aI1
asbsS'method'
p1277
S'random'
p1278
sS'sequenceIndices'
p1279
g1157
(g1158
(I0
tS'b'
tRp1280
(I1
(I96
I1
tg80
I01
S'\x1b\x00\x00\x00)\x00\x00\x00]\x00\x00\x00\x08\x00\x00\x00\x01\x00\x00\x00\x1f\x00\x00\x00\x13\x00\x00\x00C\x00\x00\x00P\x00\x00\x00I\x00\x00\x00\x19\x00\x00\x00(\x00\x00\x00/\x00\x00\x00[\x00\x00\x00\r\x00\x00\x00\x16\x00\x00\x00\x05\x00\x00\x00\x10\x00\x00\x00\x0e\x00\x00\x00N\x00\x00\x00\x00\x00\x00\x000\x00\x00\x00R\x00\x00\x00%\x00\x00\x005\x00\x00\x00\x04\x00\x00\x00"\x00\x00\x00+\x00\x00\x008\x00\x00\x006\x00\x00\x00\x18\x00\x00\x00A\x00\x00\x00\'\x00\x00\x00W\x00\x00\x007\x00\x00\x00!\x00\x00\x00\x06\x00\x00\x00Z\x00\x00\x00\x07\x00\x00\x00\n\x00\x00\x00U\x00\x00\x00<\x00\x00\x00\x12\x00\x00\x00 \x00\x00\x00*\x00\x00\x00O\x00\x00\x00T\x00\x00\x00M\x00\x00\x003\x00\x00\x00$\x00\x00\x00K\x00\x00\x00>\x00\x00\x004\x00\x00\x00\x03\x00\x00\x00\x02\x00\x00\x00S\x00\x00\x002\x00\x00\x00\x0b\x00\x00\x00\x0c\x00\x00\x00;\x00\x00\x00H\x00\x00\x00\\\x00\x00\x00\x15\x00\x00\x00.\x00\x00\x00=\x00\x00\x00\x1c\x00\x00\x00B\x00\x00\x00G\x00\x00\x00\x17\x00\x00\x00J\x00\x00\x00^\x00\x00\x00_\x00\x00\x00-\x00\x00\x00#\x00\x00\x00\x1a\x00\x00\x00\x0f\x00\x00\x00D\x00\x00\x00Y\x00\x00\x00E\x00\x00\x00F\x00\x00\x00,\x00\x00\x00\x1d\x00\x00\x00?\x00\x00\x00:\x00\x00\x00&\x00\x00\x00Q\x00\x00\x001\x00\x00\x00\x1e\x00\x00\x00\x14\x00\x00\x009\x00\x00\x00\x11\x00\x00\x00\t\x00\x00\x00X\x00\x00\x00@\x00\x00\x00L\x00\x00\x00V\x00\x00\x00'
tbsS'finished'
p1281
I01
sS'nReps'
p1282
I1
sS'nRemaining'
p1283
I-1
sS'trialList'
p1284
(lp1285
g1
(cpsychopy.data
TrialType
p1286
g1155
(dp1287
g62
g89
sg63
g314
sg64
g101
sg65
g309
sg66
g313
stRp1288
ag1
(g1286
g1155
(dp1289
g62
g74
sg63
g132
sg64
g73
sg65
g127
sg66
g131
stRp1290
ag1
(g1286
g1155
(dp1291
g62
g89
sg63
g689
sg64
g101
sg65
g684
sg66
g688
stRp1292
ag1
(g1286
g1155
(dp1293
g62
g89
sg63
g678
sg64
g340
sg65
g673
sg66
g677
stRp1294
ag1
(g1286
g1155
(dp1295
g62
g74
sg63
g370
sg64
g159
sg65
g365
sg66
g369
stRp1296
ag1
(g1286
g1155
(dp1297
g62
g89
sg63
g270
sg64
g101
sg65
g265
sg66
g269
stRp1298
ag1
(g1286
g1155
(dp1299
g62
g89
sg63
g491
sg64
g101
sg65
g486
sg66
g490
stRp1300
ag1
(g1286
g1155
(dp1301
g62
g89
sg63
g513
sg64
g229
sg65
g508
sg66
g512
stRp1302
ag1
(g1286
g1155
(dp1303
g62
g89
sg63
g120
sg64
g101
sg65
g115
sg66
g119
stRp1304
ag1
(g1286
g1155
(dp1305
g62
g89
sg63
g1096
sg64
g229
sg65
g1091
sg66
g1095
stRp1306
ag1
(g1286
g1155
(dp1307
g62
g74
sg63
g524
sg64
g183
sg65
g519
sg66
g523
stRp1308
ag1
(g1286
g1155
(dp1309
g62
g89
sg63
g722
sg64
g229
sg65
g717
sg66
g721
stRp1310
ag1
(g1286
g1155
(dp1311
g62
g89
sg63
g733
sg64
g88
sg65
g728
sg66
g732
stRp1312
ag1
(g1286
g1155
(dp1313
g62
g74
sg63
g248
sg64
g73
sg65
g243
sg66
g247
stRp1314
ag1
(g1286
g1155
(dp1315
g62
g89
sg63
g292
sg64
g88
sg65
g287
sg66
g291
stRp1316
ag1
(g1286
g1155
(dp1317
g62
g89
sg63
g920
sg64
g101
sg65
g915
sg66
g919
stRp1318
ag1
(g1286
g1155
(dp1319
g62
g74
sg63
g281
sg64
g73
sg65
g276
sg66
g280
stRp1320
ag1
(g1286
g1155
(dp1321
g62
g89
sg63
g1085
sg64
g88
sg65
g1080
sg66
g1084
stRp1322
ag1
(g1286
g1155
(dp1323
g62
g89
sg63
g557
sg64
g136
sg65
g552
sg66
g556
stRp1324
ag1
(g1286
g1155
(dp1325
g62
g89
sg63
g155
sg64
g101
sg65
g150
sg66
g154
stRp1326
ag1
(g1286
g1155
(dp1327
g62
g74
sg63
g1063
sg64
g73
sg65
g1058
sg66
g1062
stRp1328
ag1
(g1286
g1155
(dp1329
g62
g74
sg63
g777
sg64
g171
sg65
g772
sg66
g776
stRp1330
ag1
(g1286
g1155
(dp1331
g62
g89
sg63
g259
sg64
g136
sg65
g254
sg66
g258
stRp1332
ag1
(g1286
g1155
(dp1333
g62
g74
sg63
g843
sg64
g171
sg65
g838
sg66
g842
stRp1334
ag1
(g1286
g1155
(dp1335
g62
g74
sg63
g425
sg64
g183
sg65
g420
sg66
g424
stRp1336
ag1
(g1286
g1155
(dp1337
g62
g89
sg63
g203
sg64
g195
sg65
g198
sg66
g202
stRp1338
ag1
(g1286
g1155
(dp1339
g62
g74
sg63
g909
sg64
g159
sg65
g904
sg66
g908
stRp1340
ag1
(g1286
g1155
(dp1341
g62
g74
sg63
g84
sg64
g73
sg65
g78
sg66
g83
stRp1342
ag1
(g1286
g1155
(dp1343
g62
g89
sg63
g810
sg64
g88
sg65
g805
sg66
g809
stRp1344
ag1
(g1286
g1155
(dp1345
g62
g89
sg63
g986
sg64
g101
sg65
g981
sg66
g985
stRp1346
ag1
(g1286
g1155
(dp1347
g62
g89
sg63
g1052
sg64
g136
sg65
g1047
sg66
g1051
stRp1348
ag1
(g1286
g1155
(dp1349
g62
g89
sg63
g144
sg64
g136
sg65
g139
sg66
g143
stRp1350
ag1
(g1286
g1155
(dp1351
g62
g74
sg63
g568
sg64
g73
sg65
g563
sg66
g567
stRp1352
ag1
(g1286
g1155
(dp1353
g62
g74
sg63
g480
sg64
g159
sg65
g475
sg66
g479
stRp1354
ag1
(g1286
g1155
(dp1355
g62
g74
sg63
g381
sg64
g159
sg65
g376
sg66
g380
stRp1356
ag1
(g1286
g1155
(dp1357
g62
g89
sg63
g898
sg64
g88
sg65
g893
sg66
g897
stRp1358
ag1
(g1286
g1155
(dp1359
g62
g89
sg63
g634
sg64
g195
sg65
g629
sg66
g633
stRp1360
ag1
(g1286
g1155
(dp1361
g62
g89
sg63
g348
sg64
g340
sg65
g343
sg66
g347
stRp1362
ag1
(g1286
g1155
(dp1363
g62
g74
sg63
g1019
sg64
g159
sg65
g1014
sg66
g1018
stRp1364
ag1
(g1286
g1155
(dp1365
g62
g74
sg63
g447
sg64
g73
sg65
g442
sg66
g446
stRp1366
ag1
(g1286
g1155
(dp1367
g62
g74
sg63
g214
sg64
g73
sg65
g209
sg66
g213
stRp1368
ag1
(g1286
g1155
(dp1369
g62
g89
sg63
g97
sg64
g88
sg65
g92
sg66
g96
stRp1370
ag1
(g1286
g1155
(dp1371
g62
g74
sg63
g579
sg64
g159
sg65
g574
sg66
g578
stRp1372
ag1
(g1286
g1155
(dp1373
g62
g74
sg63
g392
sg64
g171
sg65
g387
sg66
g391
stRp1374
ag1
(g1286
g1155
(dp1375
g62
g74
sg63
g975
sg64
g159
sg65
g970
sg66
g974
stRp1376
ag1
(g1286
g1155
(dp1377
g62
g74
sg63
g887
sg64
g183
sg65
g882
sg66
g886
stRp1378
ag1
(g1286
g1155
(dp1379
g62
g89
sg63
g788
sg64
g101
sg65
g783
sg66
g787
stRp1380
ag1
(g1286
g1155
(dp1381
g62
g89
sg63
g225
sg64
g101
sg65
g220
sg66
g224
stRp1382
ag1
(g1286
g1155
(dp1383
g62
g74
sg63
g325
sg64
g73
sg65
g320
sg66
g324
stRp1384
ag1
(g1286
g1155
(dp1385
g62
g74
sg63
g1041
sg64
g171
sg65
g1036
sg66
g1040
stRp1386
ag1
(g1286
g1155
(dp1387
g62
g74
sg63
g711
sg64
g73
sg65
g706
sg66
g710
stRp1388
ag1
(g1286
g1155
(dp1389
g62
g74
sg63
g623
sg64
g159
sg65
g618
sg66
g622
stRp1390
ag1
(g1286
g1155
(dp1391
g62
g74
sg63
g667
sg64
g171
sg65
g662
sg66
g666
stRp1392
ag1
(g1286
g1155
(dp1393
g62
g89
sg63
g359
sg64
g88
sg65
g354
sg66
g358
stRp1394
ag1
(g1286
g1155
(dp1395
g62
g89
sg63
g414
sg64
g229
sg65
g409
sg66
g413
stRp1396
ag1
(g1286
g1155
(dp1397
g62
g74
sg63
g469
sg64
g171
sg65
g464
sg66
g468
stRp1398
ag1
(g1286
g1155
(dp1399
g62
g74
sg63
g403
sg64
g159
sg65
g398
sg66
g402
stRp1400
ag1
(g1286
g1155
(dp1401
g62
g74
sg63
g1074
sg64
g159
sg65
g1069
sg66
g1073
stRp1402
ag1
(g1286
g1155
(dp1403
g62
g89
sg63
g1008
sg64
g88
sg65
g1003
sg66
g1007
stRp1404
ag1
(g1286
g1155
(dp1405
g62
g74
sg63
g744
sg64
g159
sg65
g739
sg66
g743
stRp1406
ag1
(g1286
g1155
(dp1407
g62
g74
sg63
g546
sg64
g159
sg65
g541
sg66
g545
stRp1408
ag1
(g1286
g1155
(dp1409
g62
g74
sg63
g799
sg64
g159
sg65
g794
sg66
g798
stRp1410
ag1
(g1286
g1155
(dp1411
g62
g89
sg63
g656
sg64
g195
sg65
g651
sg66
g655
stRp1412
ag1
(g1286
g1155
(dp1413
g62
g74
sg63
g997
sg64
g159
sg65
g992
sg66
g996
stRp1414
ag1
(g1286
g1155
(dp1415
g62
g89
sg63
g1118
sg64
g229
sg65
g1113
sg66
g1117
stRp1416
ag1
(g1286
g1155
(dp1417
g62
g74
sg63
g436
sg64
g171
sg65
g431
sg66
g435
stRp1418
ag1
(g1286
g1155
(dp1419
g62
g89
sg63
g821
sg64
g136
sg65
g816
sg66
g820
stRp1420
ag1
(g1286
g1155
(dp1421
g62
g74
sg63
g167
sg64
g159
sg65
g162
sg66
g166
stRp1422
ag1
(g1286
g1155
(dp1423
g62
g74
sg63
g931
sg64
g73
sg65
g926
sg66
g930
stRp1424
ag1
(g1286
g1155
(dp1425
g62
g89
sg63
g953
sg64
g101
sg65
g948
sg66
g952
stRp1426
ag1
(g1286
g1155
(dp1427
g62
g74
sg63
g964
sg64
g159
sg65
g959
sg66
g963
stRp1428
ag1
(g1286
g1155
(dp1429
g62
g89
sg63
g832
sg64
g136
sg65
g827
sg66
g831
stRp1430
ag1
(g1286
g1155
(dp1431
g62
g89
sg63
g755
sg64
g195
sg65
g750
sg66
g754
stRp1432
ag1
(g1286
g1155
(dp1433
g62
g74
sg63
g191
sg64
g183
sg65
g186
sg66
g190
stRp1434
ag1
(g1286
g1155
(dp1435
g62
g74
sg63
g854
sg64
g159
sg65
g849
sg66
g853
stRp1436
ag1
(g1286
g1155
(dp1437
g62
g74
sg63
g645
sg64
g171
sg65
g640
sg66
g644
stRp1438
ag1
(g1286
g1155
(dp1439
g62
g89
sg63
g1129
sg64
g229
sg65
g1124
sg66
g1128
stRp1440
ag1
(g1286
g1155
(dp1441
g62
g89
sg63
g612
sg64
g136
sg65
g607
sg66
g611
stRp1442
ag1
(g1286
g1155
(dp1443
g62
g89
sg63
g303
sg64
g101
sg65
g298
sg66
g302
stRp1444
ag1
(g1286
g1155
(dp1445
g62
g74
sg63
g590
sg64
g159
sg65
g585
sg66
g589
stRp1446
ag1
(g1286
g1155
(dp1447
g62
g74
sg63
g179
sg64
g171
sg65
g174
sg66
g178
stRp1448
ag1
(g1286
g1155
(dp1449
g62
g89
sg63
g1030
sg64
g101
sg65
g1025
sg66
g1029
stRp1450
ag1
(g1286
g1155
(dp1451
g62
g74
sg63
g336
sg64
g73
sg65
g331
sg66
g335
stRp1452
ag1
(g1286
g1155
(dp1453
g62
g89
sg63
g700
sg64
g136
sg65
g695
sg66
g699
stRp1454
ag1
(g1286
g1155
(dp1455
g62
g74
sg63
g601
sg64
g73
sg65
g596
sg66
g600
stRp1456
ag1
(g1286
g1155
(dp1457
g62
g74
sg63
g535
sg64
g159
sg65
g530
sg66
g534
stRp1458
ag1
(g1286
g1155
(dp1459
g62
g89
sg63
g1140
sg64
g229
sg65
g1135
sg66
g1139
stRp1460
ag1
(g1286
g1155
(dp1461
g62
g89
sg63
g458
sg64
g229
sg65
g453
sg66
g457
stRp1462
ag1
(g1286
g1155
(dp1463
g62
g89
sg63
g1107
sg64
g195
sg65
g1102
sg66
g1106
stRp1464
ag1
(g1286
g1155
(dp1465
g62
g89
sg63
g942
sg64
g195
sg65
g937
sg66
g941
stRp1466
ag1
(g1286
g1155
(dp1467
g62
g74
sg63
g502
sg64
g73
sg65
g497
sg66
g501
stRp1468
ag1
(g1286
g1155
(dp1469
g62
g89
sg63
g237
sg64
g229
sg65
g232
sg66
g236
stRp1470
ag1
(g1286
g1155
(dp1471
g62
g89
sg63
g766
sg64
g195
sg65
g761
sg66
g765
stRp1472
ag1
(g1286
g1155
(dp1473
g62
g89
sg63
g109
sg64
g101
sg65
g104
sg66
g108
stRp1474
ag1
(g1286
g1155
(dp1475
g62
g74
sg63
g865
sg64
g171
sg65
g860
sg66
g864
stRp1476
ag1
(g1286
g1155
(dp1477
g62
g74
sg63
g876
sg64
g73
sg65
g871
sg66
g875
stRp1478
asS'seed'
p1479
NsS'thisIndex'
p1480
g1137
sS'thisN'
p1481
I96
sS'thisTrialN'
p1482
I0
sS'nTotal'
p1483
I96
sS'_warnUseOfNext'
p1484
I01
sbasS'savePickle'
p1485
I00
sb.