ccopy_reg
_reconstructor
p1
(cpsychopy.data
ExperimentHandler
p2
c__builtin__
object
p3
NtRp4
(dp5
S'originPath'
p6
NsS'dataFileName'
p7
VC:\u005cDocuments and Settings\u005cExperimental user\u005cMy Documents\u005cconsciousness\u005cuncon_feat\u005cexperiment_scripts\u005cdata/maria_Experiment_EEG_version_2019_jun_05_1614
p8
sS'runtimeInfo'
p9
NsS'name'
p10
VExperiment_EEG_version
p11
sS'dataNames'
p12
(lp13
S'image_onset_time'
p14
aS'response_window'
p15
aS'correctAns'
p16
aS'probe_onset'
p17
aS'discrim_resptime'
p18
aS'response.corr'
p19
aS'response.keys'
p20
aS'response.rt'
p21
aS'visible_resptime'
p22
aS'visible.keys'
p23
aS'visible.corr'
p24
aS'visible.rt'
p25
aS'probeFrames'
p26
aS'jitter2'
p27
asS'autoLog'
p28
I01
sS'extraInfo'
p29
(dp30
Vn_square
p31
V32
p32
sVexperiment_color
p33
Vbw
p34
sS'frameRate'
p35
cnumpy.core.multiarray
scalar
p36
(cnumpy
dtype
p37
(S'f8'
I0
I1
tRp38
(I3
S'<'
NNNI-1
I-1
I0
tbS'pB\xe5\x0e*\xf2X@'
tRp39
sS'date'
p40
V2019_jun_05_1614
p41
sVsession
p42
V003
p43
sVimage_size
p44
V256
p45
sVpremask_dur
p46
V20
p47
sVprobeFrames
p48
V5
sVparticipant
p49
Vmaria
p50
sS'expName'
p51
g11
sVpostmask_dur
p52
V20
p53
ssS'loopsUnfinished'
p54
(lp55
sS'saveWideText'
p56
I00
sS'thisEntry'
p57
(dp58
sS'version'
p59
S''
sS'_paramNamesSoFar'
p60
(lp61
S'category'
p62
aS'probe_path'
p63
aS'subcategory'
p64
aS'fixation_duration'
p65
aS'label'
p66
asS'entries'
p67
(lp68
(dp69
g31
g32
sg17
F3.7388375857844949
sg24
I0
sg35
g39
sg14
F3.7160270293243229
sg16
g36
(g37
(S'i4'
I0
I1
tRp70
(I3
S'<'
NNNI-1
I-1
I0
tbS'\x01\x00\x00\x00'
tRp71
sg42
g43
sg46
g47
sg15
S'V_nV'
p72
sg22
F6.5931703504174948
sg64
VInsects
p73
sg62
VLiving_Things
p74
sg49
g50
sS'trials.thisN'
p75
I0
sg19
I1
sg27
g36
(g38
S'\x00\x00\x00\x00\x00\x00\x18@'
tRp76
sg52
g53
sg23
S'3'
sg18
F4.9987107603810728
sg33
g34
sg51
g11
sg20
S'1'
sg65
g36
(g37
(S'i8'
I0
I1
tRp77
(I3
S'<'
NNNI-1
I-1
I0
tbS'\x00\x00\x00\x00\x00\x00\x00\x00'
tRp78
sg44
g45
sg40
g41
sg25
F0.11046355683356524
sS'trials.thisIndex'
p79
g36
(g37
(S'i4'
I0
I1
tRp80
(I3
S'<'
NNNI-1
I-1
I0
tbS'\x18\x00\x00\x00'
tRp81
sg26
V5
sS'trials.thisRepN'
p82
I0
sg66
Vdragonfly
p83
sg63
V../experiment_stimuli/bw_bc_bl/Living_Things/Insects/dragonfly_10.jpg
p84
sg21
F1.5636269939132035
sS'trials.thisTrialN'
p85
I0
sa(dp86
g31
g32
sg17
F8.4412055187858641
sg24
I0
sg35
g39
sg14
F8.4362791460007429
sg16
g36
(g70
S'\x01\x00\x00\x00'
tRp87
sg42
g43
sg46
g47
sg15
g72
sg22
F11.75414747511968
sg64
VMarine_creatures
p88
sg62
g74
sg49
g50
sS'trials.thisN'
p89
I1
sg19
I0
sg27
g36
(g38
S'\x00\x00\x00\x00\x00\x00\x1e@'
tRp90
sg52
g53
sg23
S'2'
sg18
F9.6889124885201454
sg33
g34
sg51
g11
sg20
S'2'
sg65
g36
(g77
S'\x00\x00\x00\x00\x00\x00\x00\x00'
tRp91
sg44
g45
sg40
g41
sg25
F0.24074171436950564
sS'trials.thisIndex'
p92
g36
(g80
S'A\x00\x00\x00'
tRp93
sg26
V5
sS'trials.thisRepN'
p94
I0
sg66
Vpomfret
p95
sg63
V../experiment_stimuli/bw_bc_bl/Living_Things/Marine_creatures/pomfret_4.jpg
p96
sg21
F2.0446691648103297
sS'trials.thisTrialN'
p97
I1
sa(dp98
g31
g32
sg17
F13.732600967399776
sg24
I0
sg35
g39
sg14
F13.727807866875082
sg16
g36
(g70
S'\x02\x00\x00\x00'
tRp99
sg42
g43
sg46
g47
sg15
g72
sg22
F15.692742522805929
sg64
VKitchen_Uten
p100
sg62
VNonliving_Things
p101
sg49
g50
sS'trials.thisN'
p102
I2
sg19
I1
sg27
g36
(g38
S'\x00\x00\x00\x00\x00\x00\x1a@'
tRp103
sg52
g53
sg23
S'2'
sg18
F14.970381853170693
sg33
g34
sg51
g11
sg20
S'2'
sg65
g36
(g77
S'\x00\x00\x00\x00\x00\x00\x00\x00'
tRp104
sg44
g45
sg40
g41
sg25
F0.21070118574425578
sS'trials.thisIndex'
p105
g36
(g80
S'B\x00\x00\x00'
tRp106
sg26
V5
sS'trials.thisRepN'
p107
I0
sg66
Vpot
p108
sg63
V../experiment_stimuli/bw_bc_bl/Nonliving_Things/Kitchen_Uten/pot_24.jpg
p109
sg21
F0.70176040846854448
sS'trials.thisTrialN'
p110
I2
sa(dp111
g31
g32
sg17
F17.64117666753009
sg24
I1
sg35
g39
sg14
F17.636281327810138
sg16
g36
(g70
S'\x02\x00\x00\x00'
tRp112
sg42
g43
sg46
g47
sg15
S'nV_V'
p113
sg22
F19.721457569859922
sg64
g88
sg62
g74
sg49
g50
sS'trials.thisN'
p114
I3
sg19
I0
sg27
g36
(g38
S'\x00\x00\x00\x00\x00\x00\x18@'
tRp115
sg52
g53
sg23
S'1'
sg18
F18.868875490967184
sg33
g34
sg51
g11
sg20
S'1'
sg65
g36
(g77
S'\x00\x00\x00\x00\x00\x00\x00\x00'
tRp116
sg44
g45
sg40
g41
sg25
F0.21067638462409377
sS'trials.thisIndex'
p117
g36
(g80
S'7\x00\x00\x00'
tRp118
sg26
V5
sS'trials.thisRepN'
p119
I0
sg66
Vnarwhal
p120
sg63
V../experiment_stimuli/bw_bc_bl/Living_Things/Marine_creatures/narwhal_15.jpg
p121
sg21
F0.83203526074066758
sS'trials.thisTrialN'
p122
I3
sa(dp123
g31
g32
sg17
F21.669790204614401
sg24
I0
sg35
g39
sg14
F21.665035877842456
sg16
g36
(g70
S'\x01\x00\x00\x00'
tRp124
sg42
g43
sg46
g47
sg15
g113
sg22
F23.830380893312395
sg64
VFurniture
p125
sg62
g101
sg49
g50
sS'trials.thisN'
p126
I4
sg19
I1
sg27
g36
(g38
S'\x00\x00\x00\x00\x00\x00\x18@'
tRp127
sg52
g53
sg23
S'3'
sg18
F22.927681591827422
sg33
g34
sg51
g11
sg20
S'1'
sg65
g36
(g77
S'\x00\x00\x00\x00\x00\x00\x00\x00'
tRp128
sg44
g45
sg40
g41
sg25
F0.17065572505816817
sS'trials.thisIndex'
p129
g36
(g80
S'\x02\x00\x00\x00'
tRp130
sg26
V5
sS'trials.thisRepN'
p131
I0
sg66
Varmchair
p132
sg63
V../experiment_stimuli/bw_bc_bl/Nonliving_Things/Furniture/armchair_8.jpg
p133
sg21
F0.88214512215927243
sS'trials.thisTrialN'
p134
I4
sa(dp135
g31
g32
sg17
F25.73870995035395
sg24
I0
sg35
g39
sg14
F25.733875331934541
sg16
g36
(g70
S'\x02\x00\x00\x00'
tRp136
sg42
g43
sg46
g47
sg15
g72
sg22
F28.470465361140668
sg64
g125
sg62
g101
sg49
g50
sS'trials.thisN'
p137
I5
sg19
I1
sg27
g36
(g38
S'\x00\x00\x00\x00\x00\x00\x1a@'
tRp138
sg52
g53
sg23
S'2'
sg18
F26.976479122415185
sg33
g34
sg51
g11
sg20
S'2'
sg65
g36
(g77
S'\x00\x00\x00\x00\x00\x00\x00\x00'
tRp139
sg44
g45
sg40
g41
sg25
F0.24074563477188349
sS'trials.thisIndex'
p140
g36
(g80
S'\x08\x00\x00\x00'
tRp141
sg26
V5
sS'trials.thisRepN'
p142
I0
sg66
Vbookcase
p143
sg63
V../experiment_stimuli/bw_bc_bl/Nonliving_Things/Furniture/bookcase_8.jpg
p144
sg21
F1.4734251727350056
sS'trials.thisTrialN'
p145
I5
sa(dp146
g31
g32
sg17
F30.448901549447328
sg24
I1
sg35
g39
sg14
F30.444124956615269
sg16
g36
(g70
S'\x01\x00\x00\x00'
tRp147
sg42
g43
sg46
g47
sg15
g113
sg22
F32.629503966774791
sg64
g125
sg62
g101
sg49
g50
sS'trials.thisN'
p148
I6
sg19
I1
sg27
g36
(g38
S'\x00\x00\x00\x00\x00\x00\x18@'
tRp149
sg52
g53
sg23
S'1'
sg18
F31.676698480732739
sg33
g34
sg51
g11
sg20
S'1'
sg65
g36
(g77
S'\x00\x00\x00\x00\x00\x00\x00\x00'
tRp150
sg44
g45
sg40
g41
sg25
F0.19063693145290017
sS'trials.thisIndex'
p151
g36
(g80
S'.\x00\x00\x00'
tRp152
sg26
V5
sS'trials.thisRepN'
p153
I0
sg66
Vlamp
p154
sg63
V../experiment_stimuli/bw_bc_bl/Nonliving_Things/Furniture/lamp_13.jpg
p155
sg21
F0.93225550558418036
sS'trials.thisTrialN'
p156
I6
sa(dp157
g31
g32
sg17
F34.558504453394562
sg24
I0
sg35
g39
sg14
F34.553045080509037
sg16
g36
(g70
S'\x01\x00\x00\x00'
tRp158
sg42
g43
sg46
g47
sg15
g113
sg22
F37.049118065740913
sg64
VVehicles
p159
sg62
g101
sg49
g50
sS'trials.thisN'
p160
I7
sg19
I1
sg27
g36
(g38
S'\x00\x00\x00\x00\x00\x00\x1e@'
tRp161
sg52
g53
sg23
S'2'
sg18
F35.795648171566427
sg33
g34
sg51
g11
sg20
S'1'
sg65
g36
(g77
S'\x00\x00\x00\x00\x00\x00\x00\x00'
tRp162
sg44
g45
sg40
g41
sg25
F0.12048632325604558
sS'trials.thisIndex'
p163
g36
(g80
S'6\x00\x00\x00'
tRp164
sg26
V5
sS'trials.thisRepN'
p165
I0
sg66
Vmotorbike
p166
sg63
V../experiment_stimuli/bw_bc_bl/Nonliving_Things/Vehicles/motorbike_16.jpg
p167
sg21
F1.2329044593498111
sS'trials.thisTrialN'
p168
I7
sa(dp169
g31
g32
sg17
F38.908386321738362
sg24
I1
sg35
g39
sg14
F38.902500383555889
sg16
g36
(g70
S'\x01\x00\x00\x00'
tRp170
sg42
g43
sg46
g47
sg15
g113
sg22
F40.917622986249626
sg64
VMusical_Inst
p171
sg62
g101
sg49
g50
sS'trials.thisN'
p172
I8
sg19
I1
sg27
g36
(g38
S'\x00\x00\x00\x00\x00\x00\x18@'
tRp173
sg52
g53
sg23
S'1'
sg18
F40.13508568610996
sg33
g34
sg51
g11
sg20
S'1'
sg65
g36
(g77
S'\x00\x00\x00\x00\x00\x00\x00\x00'
tRp174
sg44
g45
sg40
g41
sg25
F0.20066167181357741
sS'trials.thisIndex'
p175
g36
(g80
S'\\\x00\x00\x00'
tRp176
sg26
V5
sS'trials.thisRepN'
p177
I0
sg66
Vviolin
p178
sg63
V../experiment_stimuli/bw_bc_bl/Nonliving_Things/Musical_Inst/violin_10.jpg
p179
sg21
F0.76197848562151194
sS'trials.thisTrialN'
p180
I8
sa(dp181
g31
g32
sg17
F42.856648408342153
sg24
I0
sg35
g39
sg14
F42.851081894244999
sg16
g36
(g70
S'\x02\x00\x00\x00'
tRp182
sg42
g43
sg46
g47
sg15
g72
sg22
F46.81031702272594
sg64
VBuildings
p183
sg62
g101
sg49
g50
sS'trials.thisN'
p184
I9
sg19
I1
sg27
g36
(g38
S'\x00\x00\x00\x00\x00\x00\x1e@'
tRp185
sg52
g53
sg23
S'2'
sg18
F44.11373742762953
sg33
g34
sg51
g11
sg20
S'2'
sg65
g36
(g77
S'\x00\x00\x00\x00\x00\x00\x00\x00'
tRp186
sg44
g45
sg40
g41
sg25
F0.23071568086743355
sS'trials.thisIndex'
p187
g36
(g80
S'#\x00\x00\x00'
tRp188
sg26
V5
sS'trials.thisRepN'
p189
I0
sg66
Vgranary
p190
sg63
V../experiment_stimuli/bw_bc_bl/Nonliving_Things/Buildings/granary_17.jpg
p191
sg21
F2.6760424794629216
sS'trials.thisTrialN'
p192
I9
sa(dp193
g31
g32
sg17
F48.779413055162877
sg24
I0
sg35
g39
sg14
F48.773962464183569
sg16
g36
(g70
S'\x01\x00\x00\x00'
tRp194
sg42
g43
sg46
g47
sg15
g72
sg22
F51.420360112562776
sg64
VBirds
p195
sg62
g74
sg49
g50
sS'trials.thisN'
p196
I10
sg19
I1
sg27
g36
(g38
S'\x00\x00\x00\x00\x00\x00\x1c@'
tRp197
sg52
g53
sg23
S'2'
sg18
F50.026584648992866
sg33
g34
sg51
g11
sg20
S'1'
sg65
g36
(g77
S'\x00\x00\x00\x00\x00\x00\x00\x00'
tRp198
sg44
g45
sg40
g41
sg25
F0.14054292719811201
sS'trials.thisIndex'
p199
g36
(g80
S';\x00\x00\x00'
tRp200
sg26
V5
sS'trials.thisRepN'
p201
I0
sg66
Vpartridge
p202
sg63
V../experiment_stimuli/bw_bc_bl/Living_Things/Birds/partridge_2.jpg
p203
sg21
F1.3732152581214905
sS'trials.thisTrialN'
p204
I10
sa(dp205
g31
g32
sg17
F53.298811357002705
sg24
I0
sg35
g39
sg14
F53.293783496599644
sg16
g36
(g70
S'\x02\x00\x00\x00'
tRp206
sg42
g43
sg46
g47
sg15
g113
sg22
F55.609466479159892
sg64
VAnimals
p207
sg62
g74
sg49
g50
sS'trials.thisN'
p208
I11
sg19
I1
sg27
g36
(g38
S'\x00\x00\x00\x00\x00\x00\x1e@'
tRp209
sg52
g53
sg23
S'2'
sg18
F54.536386689171195
sg33
g34
sg51
g11
sg20
S'2'
sg65
g36
(g77
S'\x00\x00\x00\x00\x00\x00\x00\x00'
tRp210
sg44
g45
sg40
g41
sg25
F0.2808255348354578
sS'trials.thisIndex'
p211
g36
(g80
S'_\x00\x00\x00'
tRp212
sg26
V5
sS'trials.thisRepN'
p213
I0
sg66
Vzebra
p214
sg63
V../experiment_stimuli/bw_bc_bl/Living_Things/Animals/zebra_18.jpg
p215
sg21
F1.0525106554850936
sS'trials.thisTrialN'
p216
I11
sa(dp217
g31
g32
sg17
F57.628192864824086
sg24
I1
sg35
g39
sg14
F57.623195921536535
sg16
g36
(g70
S'\x01\x00\x00\x00'
tRp218
sg42
g43
sg46
g47
sg15
g72
sg22
F62.424291737377644
sg64
g207
sg62
g74
sg49
g50
sS'trials.thisN'
p219
I12
sg19
I0
sg27
g36
(g38
S'\x00\x00\x00\x00\x00\x00\x1e@'
tRp220
sg52
g53
sg23
S'1'
sg18
F58.855777614749968
sg33
g34
sg51
g11
sg20
S'2'
sg65
g36
(g77
S'\x00\x00\x00\x00\x00\x00\x00\x00'
tRp221
sg44
g45
sg40
g41
sg25
F0.060200810898095369
sS'trials.thisIndex'
p222
g36
(g80
S' \x00\x00\x00'
tRp223
sg26
V5
sS'trials.thisRepN'
p224
I0
sg66
Vgiraffe
p225
sg63
V../experiment_stimuli/bw_bc_bl/Living_Things/Animals/giraffe_3.jpg
p226
sg21
F3.5479479702189565
sS'trials.thisTrialN'
p227
I12
sa(dp228
g31
g32
sg17
F64.222464808262885
sg24
I1
sg35
g39
sg14
F64.217530243564397
sg16
g36
(g70
S'\x02\x00\x00\x00'
tRp229
sg42
g43
sg46
g47
sg15
g72
sg22
F66.152407108806074
sg64
g125
sg62
g101
sg49
g50
sS'trials.thisN'
p230
I13
sg19
I0
sg27
g36
(g38
S'\x00\x00\x00\x00\x00\x00\x18@'
tRp231
sg52
g53
sg23
S'1'
sg18
F65.470159112475812
sg33
g34
sg51
g11
sg20
S'1'
sg65
g36
(g77
S'\x00\x00\x00\x00\x00\x00\x00\x00'
tRp232
sg44
g45
sg40
g41
sg25
F0.2206941363401711
sS'trials.thisIndex'
p233
g36
(g80
S'\x0f\x00\x00\x00'
tRp234
sg26
V5
sS'trials.thisRepN'
p235
I0
sg66
Vchair
p236
sg63
V../experiment_stimuli/bw_bc_bl/Nonliving_Things/Furniture/chair_17.jpg
p237
sg21
F0.66168934665620327
sS'trials.thisTrialN'
p238
I13
sa(dp239
g31
g32
sg17
F68.111530490685254
sg24
I0
sg35
g39
sg14
F68.105983246583492
sg16
g36
(g70
S'\x02\x00\x00\x00'
tRp240
sg42
g43
sg46
g47
sg15
g72
sg22
F70.511846046894789
sg64
g183
sg62
g101
sg49
g50
sS'trials.thisN'
p241
I14
sg19
I1
sg27
g36
(g38
S'\x00\x00\x00\x00\x00\x00 @'
tRp242
sg52
g53
sg23
S'3'
sg18
F69.368630626238883
sg33
g34
sg51
g11
sg20
S'2'
sg65
g36
(g77
S'\x00\x00\x00\x00\x00\x00\x00\x00'
tRp243
sg44
g45
sg40
g41
sg25
F0.1104645081795752
sS'trials.thisIndex'
p244
g36
(g80
S'\x0c\x00\x00\x00'
tRp245
sg26
V5
sS'trials.thisRepN'
p246
I0
sg66
Vcastle
p247
sg63
V../experiment_stimuli/bw_bc_bl/Nonliving_Things/Buildings/castle_18.jpg
p248
sg21
F1.1226661172695458
sS'trials.thisTrialN'
p249
I14
sa(dp250
g31
g32
sg17
F72.361323420424014
sg24
I0
sg35
g39
sg14
F72.355221271049231
sg16
g36
(g70
S'\x01\x00\x00\x00'
tRp251
sg42
g43
sg46
g47
sg15
g113
sg22
F75.402501881122589
sg64
g125
sg62
g101
sg49
g50
sS'trials.thisN'
p252
I15
sg19
I0
sg27
g36
(g38
S'\x00\x00\x00\x00\x00\x00\x18@'
tRp253
sg52
g53
sg23
S'3'
sg18
F73.597821144387126
sg33
g34
sg51
g11
sg20
S'2'
sg65
g36
(g77
S'\x00\x00\x00\x00\x00\x00\x00\x00'
tRp254
sg44
g45
sg40
g41
sg25
F0.17058077128604054
sS'trials.thisIndex'
p255
g36
(g80
S'\x00\x00\x00\x00'
tRp256
sg26
V5
sS'trials.thisRepN'
p257
I0
sg66
VChest-of-drawers
p258
sg63
V../experiment_stimuli/bw_bc_bl/Nonliving_Things/Furniture/Chest-of-drawers_12.jpg
p259
sg21
F1.7841074978932738
sS'trials.thisTrialN'
p260
I15
sa(dp261
g31
g32
sg17
F77.310931605752558
sg24
I1
sg35
g39
sg14
F77.305983586702496
sg16
g36
(g70
S'\x02\x00\x00\x00'
tRp262
sg42
g43
sg46
g47
sg15
g113
sg22
F84.05113840661943
sg64
g195
sg62
g74
sg49
g50
sS'trials.thisN'
p263
I16
sg19
I1
sg27
g36
(g38
S'\x00\x00\x00\x00\x00\x00\x1c@'
tRp264
sg52
g53
sg23
S'1'
sg18
F78.53856203565374
sg33
g34
sg51
g11
sg20
S'2'
sg65
g36
(g77
S'\x00\x00\x00\x00\x00\x00\x00\x00'
tRp265
sg44
g45
sg40
g41
sg25
F0.050333880819380283
sS'trials.thisIndex'
p266
g36
(g80
S'3\x00\x00\x00'
tRp267
sg26
V5
sS'trials.thisRepN'
p268
I0
sg66
Vmagpie
p269
sg63
V../experiment_stimuli/bw_bc_bl/Living_Things/Birds/magpie_22.jpg
p270
sg21
F5.4920036848634481
sS'trials.thisTrialN'
p271
I16
sa(dp272
g31
g32
sg17
F85.83937736786902
sg24
I1
sg35
g39
sg14
F85.834524377249181
sg16
g36
(g70
S'\x01\x00\x00\x00'
tRp273
sg42
g43
sg46
g47
sg15
g72
sg22
F88.400750030763447
sg64
g195
sg62
g74
sg49
g50
sS'trials.thisN'
p274
I17
sg19
I0
sg27
g36
(g38
S'\x00\x00\x00\x00\x00\x00\x1a@'
tRp275
sg52
g53
sg23
S'1'
sg18
F87.087147964164615
sg33
g34
sg51
g11
sg20
S'2'
sg65
g36
(g77
S'\x00\x00\x00\x00\x00\x00\x00\x00'
tRp276
sg44
g45
sg40
g41
sg25
F0.050321790855377913
sS'trials.thisIndex'
p277
g36
(g80
S'<\x00\x00\x00'
tRp278
sg26
V5
sS'trials.thisRepN'
p279
I0
sg66
Vpelican
p280
sg63
V../experiment_stimuli/bw_bc_bl/Living_Things/Birds/pelican_13.jpg
p281
sg21
F1.2930518495850265
sS'trials.thisTrialN'
p282
I17
sa(dp283
g31
g32
sg17
F90.189508518204093
sg24
I0
sg35
g39
sg14
F90.183979627676308
sg16
g36
(g70
S'\x01\x00\x00\x00'
tRp284
sg42
g43
sg46
g47
sg15
g113
sg22
F91.948455786332488
sg64
g100
sg62
g101
sg49
g50
sS'trials.thisN'
p285
I18
sg19
I1
sg27
g36
(g38
S'\x00\x00\x00\x00\x00\x00\x1a@'
tRp286
sg52
g53
sg23
S'3'
sg18
F91.456642405129969
sg33
g34
sg51
g11
sg20
S'1'
sg65
g36
(g77
S'\x00\x00\x00\x00\x00\x00\x00\x00'
tRp287
sg44
g45
sg40
g41
sg25
F0.11046260595321655
sS'trials.thisIndex'
p288
g36
(g80
S'G\x00\x00\x00'
tRp289
sg26
V5
sS'trials.thisRepN'
p290
I0
sg66
Vsaucepan
p291
sg63
V../experiment_stimuli/bw_bc_bl/Nonliving_Things/Kitchen_Uten/saucepan_24.jpg
p292
sg21
F0.47125137876719236
sS'trials.thisTrialN'
p293
I18
sa(dp294
g31
g32
sg17
F93.79676502617076
sg24
I0
sg35
g39
sg14
F93.791820627171546
sg16
g36
(g70
S'\x01\x00\x00\x00'
tRp295
sg42
g43
sg46
g47
sg15
g113
sg22
F95.856952431146055
sg64
g159
sg62
g101
sg49
g50
sS'trials.thisN'
p296
I19
sg19
I1
sg27
g36
(g38
S'\x00\x00\x00\x00\x00\x00\x18@'
tRp297
sg52
g53
sg23
S'3'
sg18
F95.044441992416978
sg33
g34
sg51
g11
sg20
S'1'
sg65
g36
(g77
S'\x00\x00\x00\x00\x00\x00\x00\x00'
tRp298
sg44
g45
sg40
g41
sg25
F0.12047752691432834
sS'trials.thisIndex'
p299
g36
(g80
S'V\x00\x00\x00'
tRp300
sg26
V5
sS'trials.thisRepN'
p301
I0
sg66
Vtractor
p302
sg63
V../experiment_stimuli/bw_bc_bl/Nonliving_Things/Vehicles/tractor_23.jpg
p303
sg21
F0.79195023281499743
sS'trials.thisTrialN'
p304
I19
sa(dp305
g31
g32
sg17
F97.715119822882116
sg24
I0
sg35
g39
sg14
F97.710338109638542
sg16
g36
(g70
S'\x02\x00\x00\x00'
tRp306
sg42
g43
sg46
g47
sg15
g113
sg22
F100.24650453217328
sg64
g73
sg62
g74
sg49
g50
sS'trials.thisN'
p307
I20
sg19
I0
sg27
g36
(g38
S'\x00\x00\x00\x00\x00\x00\x18@'
tRp308
sg52
g53
sg23
S'3'
sg18
F98.942918382119387
sg33
g34
sg51
g11
sg20
S'1'
sg65
g36
(g77
S'\x00\x00\x00\x00\x00\x00\x00\x00'
tRp309
sg44
g45
sg40
g41
sg25
F0.14057156583294272
sS'trials.thisIndex'
p310
g36
(g80
S'\n\x00\x00\x00'
tRp311
sg26
V5
sS'trials.thisRepN'
p312
I0
sg66
Vbutterfly
p313
sg63
V../experiment_stimuli/bw_bc_bl/Living_Things/Insects/butterfly_9.jpg
p314
sg21
F1.2830336359329522
sS'trials.thisTrialN'
p315
I20
sa(dp316
g31
g32
sg17
F102.12495303573087
sg24
I0
sg35
g39
sg14
F102.11992365308106
sg16
g36
(g70
S'\x01\x00\x00\x00'
tRp317
sg42
g43
sg46
g47
sg15
g113
sg22
F104.38549062050879
sg64
g125
sg62
g101
sg49
g50
sS'trials.thisN'
p318
I21
sg19
I1
sg27
g36
(g38
S'\x00\x00\x00\x00\x00\x00 @'
tRp319
sg52
g53
sg23
S'2'
sg18
F103.35250525269657
sg33
g34
sg51
g11
sg20
S'1'
sg65
g36
(g77
S'\x00\x00\x00\x00\x00\x00\x00\x00'
tRp320
sg44
g45
sg40
g41
sg25
F0.12115940358489752
sS'trials.thisIndex'
p321
g36
(g80
S'E\x00\x00\x00'
tRp322
sg26
V5
sS'trials.thisRepN'
p323
I0
sg66
Vrocking-chair
p324
sg63
V../experiment_stimuli/bw_bc_bl/Nonliving_Things/Furniture/rocking-chair_25.jpg
p325
sg21
F1.0124290869571269
sS'trials.thisTrialN'
p326
I21
sa(dp327
g31
g32
sg17
F106.24453024426475
sg24
I0
sg35
g39
sg14
F106.23887729877606
sg16
g36
(g70
S'\x01\x00\x00\x00'
tRp328
sg42
g43
sg46
g47
sg15
g72
sg22
F108.5343337552622
sg64
g195
sg62
g74
sg49
g50
sS'trials.thisN'
p329
I22
sg19
I1
sg27
g36
(g38
S'\x00\x00\x00\x00\x00\x00\x18@'
tRp330
sg52
g53
sg23
S'2'
sg18
F107.47145712375641
sg33
g34
sg51
g11
sg20
S'1'
sg65
g36
(g77
S'\x00\x00\x00\x00\x00\x00\x00\x00'
tRp331
sg44
g45
sg40
g41
sg25
F0.10046161012724042
sS'trials.thisIndex'
p332
g36
(g80
S'U\x00\x00\x00'
tRp333
sg26
V5
sS'trials.thisRepN'
p334
I0
sg66
Vtoucan
p335
sg63
V../experiment_stimuli/bw_bc_bl/Living_Things/Birds/toucan_6.jpg
p336
sg21
F1.0423302827402949
sS'trials.thisTrialN'
p337
I22
sa(dp338
g31
g32
sg17
F110.3727961438708
sg24
I0
sg35
g39
sg14
F110.36785163590685
sg16
g36
(g70
S'\x02\x00\x00\x00'
tRp339
sg42
g43
sg46
g47
sg15
g113
sg22
F113.48530615447089
sg64
g195
sg62
g74
sg49
g50
sS'trials.thisN'
p340
I23
sg19
I0
sg27
g36
(g38
S'\x00\x00\x00\x00\x00\x00\x1a@'
tRp341
sg52
g53
sg23
S'2'
sg18
F111.60043119359761
sg33
g34
sg51
g11
sg20
S'1'
sg65
g36
(g77
S'\x00\x00\x00\x00\x00\x00\x00\x00'
tRp342
sg44
g45
sg40
g41
sg25
F0.15056827617809176
sS'trials.thisIndex'
p343
g36
(g80
S'J\x00\x00\x00'
tRp344
sg26
V5
sS'trials.thisRepN'
p345
I0
sg66
Vseagull
p346
sg63
V../experiment_stimuli/bw_bc_bl/Living_Things/Birds/seagull_2.jpg
p347
sg21
F1.8642878155224025
sS'trials.thisTrialN'
p348
I23
sa(dp349
g31
g32
sg17
F115.37465396802872
sg24
I1
sg35
g39
sg14
F115.36872208677232
sg16
g36
(g70
S'\x01\x00\x00\x00'
tRp350
sg42
g43
sg46
g47
sg15
g72
sg22
F118.20554960193112
sg64
g195
sg62
g74
sg49
g50
sS'trials.thisN'
p351
I24
sg19
I0
sg27
g36
(g38
S'\x00\x00\x00\x00\x00\x00\x1e@'
tRp352
sg52
g53
sg23
S'1'
sg18
F116.60130341211334
sg33
g34
sg51
g11
sg20
S'2'
sg65
g36
(g77
S'\x00\x00\x00\x00\x00\x00\x00\x00'
tRp353
sg44
g45
sg40
g41
sg25
F0.12048155628144741
sS'trials.thisIndex'
p354
g36
(g80
S'9\x00\x00\x00'
tRp355
sg26
V5
sS'trials.thisRepN'
p356
I0
sg66
Vowl
p357
sg63
V../experiment_stimuli/bw_bc_bl/Living_Things/Birds/owl_25.jpg
p358
sg21
F1.5836758683435619
sS'trials.thisTrialN'
p359
I24
sa(dp360
g31
g32
sg17
F120.06382787972689
sg24
I0
sg35
g39
sg14
F120.05891485977918
sg16
g36
(g70
S'\x01\x00\x00\x00'
tRp361
sg42
g43
sg46
g47
sg15
g113
sg22
F122.73538238601759
sg64
g159
sg62
g101
sg49
g50
sS'trials.thisN'
p362
I25
sg19
I1
sg27
g36
(g38
S'\x00\x00\x00\x00\x00\x00\x18@'
tRp363
sg52
g53
sg23
S'3'
sg18
F121.31154776597396
sg33
g34
sg51
g11
sg20
S'1'
sg65
g36
(g77
S'\x00\x00\x00\x00\x00\x00\x00\x00'
tRp364
sg44
g45
sg40
g41
sg25
F0.12048488762229681
sS'trials.thisIndex'
p365
g36
(g80
S'[\x00\x00\x00'
tRp366
sg26
V5
sS'trials.thisRepN'
p367
I0
sg66
Vvan
p368
sg63
V../experiment_stimuli/bw_bc_bl/Nonliving_Things/Vehicles/van_23.jpg
p369
sg21
F1.4032768053002656
sS'trials.thisTrialN'
p370
I25
sa(dp371
g31
g32
sg17
F124.59362906217575
sg24
I0
sg35
g39
sg14
F124.58876243699342
sg16
g36
(g70
S'\x02\x00\x00\x00'
tRp372
sg42
g43
sg46
g47
sg15
g113
sg22
F129.36981410020962
sg64
g88
sg62
g74
sg49
g50
sS'trials.thisN'
p373
I26
sg19
I0
sg27
g36
(g38
S'\x00\x00\x00\x00\x00\x00\x18@'
tRp374
sg52
g53
sg23
S'2'
sg18
F125.82134813768789
sg33
g34
sg51
g11
sg20
S'1'
sg65
g36
(g77
S'\x00\x00\x00\x00\x00\x00\x00\x00'
tRp375
sg44
g45
sg40
g41
sg25
F0.14052482228726149
sS'trials.thisIndex'
p376
g36
(g80
S'4\x00\x00\x00'
tRp377
sg26
V5
sS'trials.thisRepN'
p378
I0
sg66
Vmanatee
p379
sg63
V../experiment_stimuli/bw_bc_bl/Living_Things/Marine_creatures/manatee_20.jpg
p380
sg21
F3.5178838330321014
sS'trials.thisTrialN'
p381
I26
sa(dp382
g31
g32
sg17
F131.24816978583112
sg24
I0
sg35
g39
sg14
F131.24322920618579
sg16
g36
(g70
S'\x02\x00\x00\x00'
tRp383
sg42
g43
sg46
g47
sg15
g113
sg22
F134.0299643673934
sg64
g88
sg62
g74
sg49
g50
sS'trials.thisN'
p384
I27
sg19
I0
sg27
g36
(g38
S'\x00\x00\x00\x00\x00\x00\x1a@'
tRp385
sg52
g53
sg23
S'2'
sg18
F132.47580991825089
sg33
g34
sg51
g11
sg20
S'1'
sg65
g36
(g77
S'\x00\x00\x00\x00\x00\x00\x00\x00'
tRp386
sg44
g45
sg40
g41
sg25
F0.12048461614176631
sS'trials.thisIndex'
p387
g36
(g80
S'1\x00\x00\x00'
tRp388
sg26
V5
sS'trials.thisRepN'
p389
I0
sg66
Vlobster
p390
sg63
V../experiment_stimuli/bw_bc_bl/Living_Things/Marine_creatures/lobster_26.jpg
p391
sg21
F1.5335618490353227
sS'trials.thisTrialN'
p392
I27
sa(dp393
g31
g32
sg17
F135.88818782987073
sg24
I1
sg35
g39
sg14
F135.88332148967311
sg16
g36
(g70
S'\x01\x00\x00\x00'
tRp394
sg42
g43
sg46
g47
sg15
g72
sg22
F138.16891770390794
sg64
g207
sg62
g74
sg49
g50
sS'trials.thisN'
p395
I28
sg19
I1
sg27
g36
(g38
S'\x00\x00\x00\x00\x00\x00\x18@'
tRp396
sg52
g53
sg23
S'1'
sg18
F137.11590164946392
sg33
g34
sg51
g11
sg20
S'1'
sg65
g36
(g77
S'\x00\x00\x00\x00\x00\x00\x00\x00'
tRp397
sg44
g45
sg40
g41
sg25
F0.21069684717804193
sS'trials.thisIndex'
p398
g36
(g80
S'R\x00\x00\x00'
tRp399
sg26
V5
sS'trials.thisRepN'
p400
I0
sg66
Vtapir
p401
sg63
V../experiment_stimuli/bw_bc_bl/Living_Things/Animals/tapir_15.jpg
p402
sg21
F1.0324726006947458
sS'trials.thisTrialN'
p403
I28
sa(dp404
g31
g32
sg17
F140.11742703523487
sg24
I0
sg35
g39
sg14
F140.11251449258998
sg16
g36
(g70
S'\x02\x00\x00\x00'
tRp405
sg42
g43
sg46
g47
sg15
g113
sg22
F142.29792303266004
sg64
g88
sg62
g74
sg49
g50
sS'trials.thisN'
p406
I29
sg19
I0
sg27
g36
(g38
S'\x00\x00\x00\x00\x00\x00\x18@'
tRp407
sg52
g53
sg23
S'2'
sg18
F141.36515240650624
sg33
g34
sg51
g11
sg20
S'1'
sg65
g36
(g77
S'\x00\x00\x00\x00\x00\x00\x00\x00'
tRp408
sg44
g45
sg40
g41
sg25
F0.12048655655235052
sS'trials.thisIndex'
p409
g36
(g80
S'\x15\x00\x00\x00'
tRp410
sg26
V5
sS'trials.thisRepN'
p411
I0
sg66
Vcrab
p412
sg63
V../experiment_stimuli/bw_bc_bl/Living_Things/Marine_creatures/crab_7.jpg
p413
sg21
F0.91221303353086114
sS'trials.thisTrialN'
p414
I29
sa(dp415
g31
g32
sg17
F144.15616628434509
sg24
I0
sg35
g39
sg14
F144.15129415504634
sg16
g36
(g70
S'\x02\x00\x00\x00'
tRp416
sg42
g43
sg46
g47
sg15
g113
sg22
F146.29661646811292
sg64
g195
sg62
g74
sg49
g50
sS'trials.thisN'
p417
I30
sg19
I0
sg27
g36
(g38
S'\x00\x00\x00\x00\x00\x00\x1a@'
tRp418
sg52
g53
sg23
S'2'
sg18
F145.39389631384984
sg33
g34
sg51
g11
sg20
S'1'
sg65
g36
(g77
S'\x00\x00\x00\x00\x00\x00\x00\x00'
tRp419
sg44
g45
sg40
g41
sg25
F0.13050499185919762
sS'trials.thisIndex'
p420
g36
(g80
S'8\x00\x00\x00'
tRp421
sg26
V5
sS'trials.thisRepN'
p422
I0
sg66
Vostrich
p423
sg63
V../experiment_stimuli/bw_bc_bl/Living_Things/Birds/ostrich_18.jpg
p424
sg21
F0.88215940725058317
sS'trials.thisTrialN'
p425
I30
sa(dp426
g31
g32
sg17
F148.16489545255899
sg24
I1
sg35
g39
sg14
F148.16000637970865
sg16
g36
(g70
S'\x02\x00\x00\x00'
tRp427
sg42
g43
sg46
g47
sg15
g72
sg22
F149.90446892613545
sg64
g171
sg62
g101
sg49
g50
sS'trials.thisN'
p428
I31
sg19
I1
sg27
g36
(g38
S'\x00\x00\x00\x00\x00\x00\x18@'
tRp429
sg52
g53
sg23
S'1'
sg18
F149.39258571201935
sg33
g34
sg51
g11
sg20
S'2'
sg65
g36
(g77
S'\x00\x00\x00\x00\x00\x00\x00\x00'
tRp430
sg44
g45
sg40
g41
sg25
F0.12048429297283292
sS'trials.thisIndex'
p431
g36
(g80
S'Y\x00\x00\x00'
tRp432
sg26
V5
sS'trials.thisRepN'
p433
I0
sg66
Vtuba
p434
sg63
V../experiment_stimuli/bw_bc_bl/Nonliving_Things/Musical_Inst/tuba_25.jpg
p435
sg21
F0.49130804231390357
sS'trials.thisTrialN'
p436
I31
sa(dp437
g31
g32
sg17
F151.76369138574228
sg24
I0
sg35
g39
sg14
F151.7578370673582
sg16
g36
(g70
S'\x02\x00\x00\x00'
tRp438
sg42
g43
sg46
g47
sg15
g113
sg22
F153.7327951551415
sg64
g88
sg62
g74
sg49
g50
sS'trials.thisN'
p439
I32
sg19
I0
sg27
g36
(g38
S'\x00\x00\x00\x00\x00\x00\x18@'
tRp440
sg52
g53
sg23
S'2'
sg18
F153.00043443311006
sg33
g34
sg51
g11
sg20
S'1'
sg65
g36
(g77
S'\x00\x00\x00\x00\x00\x00\x00\x00'
tRp441
sg44
g45
sg40
g41
sg25
F0.13059635506942868
sS'trials.thisIndex'
p442
g36
(g80
S'^\x00\x00\x00'
tRp443
sg26
V5
sS'trials.thisRepN'
p444
I0
sg66
Vwhale
p445
sg63
V../experiment_stimuli/bw_bc_bl/Living_Things/Marine_creatures/whale_19.jpg
p446
sg21
F0.71179586974903941
sS'trials.thisTrialN'
p447
I32
sa(dp448
g31
g32
sg17
F155.60113250650465
sg24
I1
sg35
g39
sg14
F155.59617180330679
sg16
g36
(g70
S'\x02\x00\x00\x00'
tRp449
sg42
g43
sg46
g47
sg15
g113
sg22
F157.26044330699369
sg64
g207
sg62
g74
sg49
g50
sS'trials.thisN'
p450
I33
sg19
I0
sg27
g36
(g38
S'\x00\x00\x00\x00\x00\x00 @'
tRp451
sg52
g53
sg23
S'1'
sg18
F156.82875225599855
sg33
g34
sg51
g11
sg20
S'1'
sg65
g36
(g77
S'\x00\x00\x00\x00\x00\x00\x00\x00'
tRp452
sg44
g45
sg40
g41
sg25
F0.22070124512538314
sS'trials.thisIndex'
p453
g36
(g80
S'2\x00\x00\x00'
tRp454
sg26
V5
sS'trials.thisRepN'
p455
I0
sg66
Vlynx
p456
sg63
V../experiment_stimuli/bw_bc_bl/Living_Things/Animals/lynx_26.jpg
p457
sg21
F0.41111960494890809
sS'trials.thisTrialN'
p458
I33
sa(dp459
g31
g32
sg17
F159.21891144290566
sg24
I0
sg35
g39
sg14
F159.21403390355408
sg16
g36
(g70
S'\x01\x00\x00\x00'
tRp460
sg42
g43
sg46
g47
sg15
g113
sg22
F160.94847670663148
sg64
g171
sg62
g101
sg49
g50
sS'trials.thisN'
p461
I34
sg19
I1
sg27
g36
(g38
S'\x00\x00\x00\x00\x00\x00\x1e@'
tRp462
sg52
g53
sg23
S'3'
sg18
F160.46666437387466
sg33
g34
sg51
g11
sg20
S'1'
sg65
g36
(g77
S'\x00\x00\x00\x00\x00\x00\x00\x00'
tRp463
sg44
g45
sg40
g41
sg25
F0.0904326974414289
sS'trials.thisIndex'
p464
g36
(g80
S'>\x00\x00\x00'
tRp465
sg26
V5
sS'trials.thisRepN'
p466
I0
sg66
Vpiano
p467
sg63
V../experiment_stimuli/bw_bc_bl/Nonliving_Things/Musical_Inst/piano__19.jpg
p468
sg21
F0.46125052589923143
sS'trials.thisTrialN'
p469
I34
sa(dp470
g31
g32
sg17
F162.77752952324226
sg24
I1
sg35
g39
sg14
F162.77176957577467
sg16
g36
(g70
S'\x02\x00\x00\x00'
tRp471
sg42
g43
sg46
g47
sg15
g72
sg22
F166.53059700271115
sg64
g125
sg62
g101
sg49
g50
sS'trials.thisN'
p472
I35
sg19
I1
sg27
g36
(g38
S'\x00\x00\x00\x00\x00\x00\x18@'
tRp473
sg52
g53
sg23
S'1'
sg18
F164.00436484022066
sg33
g34
sg51
g11
sg20
S'2'
sg65
g36
(g77
S'\x00\x00\x00\x00\x00\x00\x00\x00'
tRp474
sg44
g45
sg40
g41
sg25
F0.090440787374973297
sS'trials.thisIndex'
p475
g36
(g80
S'/\x00\x00\x00'
tRp476
sg26
V5
sS'trials.thisRepN'
p477
I0
sg66
Vlectern
p478
sg63
V../experiment_stimuli/bw_bc_bl/Nonliving_Things/Furniture/lectern_1.jpg
p479
sg21
F2.5056924568489194
sS'trials.thisTrialN'
p480
I35
sa(dp481
g31
g32
sg17
F168.35886900359765
sg24
I0
sg35
g39
sg14
F168.35390104074031
sg16
g36
(g70
S'\x01\x00\x00\x00'
tRp482
sg42
g43
sg46
g47
sg15
g72
sg22
F170.8399286326021
sg64
g88
sg62
g74
sg49
g50
sS'trials.thisN'
p483
I36
sg19
I1
sg27
g36
(g38
S'\x00\x00\x00\x00\x00\x00\x18@'
tRp484
sg52
g53
sg23
S'2'
sg18
F169.60653026634827
sg33
g34
sg51
g11
sg20
S'1'
sg65
g36
(g77
S'\x00\x00\x00\x00\x00\x00\x00\x00'
tRp485
sg44
g45
sg40
g41
sg25
F0.12048651510849595
sS'trials.thisIndex'
p486
g36
(g80
S'\x17\x00\x00\x00'
tRp487
sg26
V5
sS'trials.thisRepN'
p488
I0
sg66
Vdolphin
p489
sg63
V../experiment_stimuli/bw_bc_bl/Living_Things/Marine_creatures/dolphin_23.jpg
p490
sg21
F1.2128633256070316
sS'trials.thisTrialN'
p491
I36
sa(dp492
g31
g32
sg17
F172.69829010032117
sg24
I1
sg35
g39
sg14
F172.69333900231868
sg16
g36
(g70
S'\x01\x00\x00\x00'
tRp493
sg42
g43
sg46
g47
sg15
g72
sg22
F174.71839601546526
sg64
g207
sg62
g74
sg49
g50
sS'trials.thisN'
p494
I37
sg19
I0
sg27
g36
(g38
S'\x00\x00\x00\x00\x00\x00\x18@'
tRp495
sg52
g53
sg23
S'1'
sg18
F173.93594398442656
sg33
g34
sg51
g11
sg20
S'2'
sg65
g36
(g77
S'\x00\x00\x00\x00\x00\x00\x00\x00'
tRp496
sg44
g45
sg40
g41
sg25
F0.070369330234825611
sS'trials.thisIndex'
p497
g36
(g80
S'T\x00\x00\x00'
tRp498
sg26
V5
sS'trials.thisRepN'
p499
I0
sg66
Vtiger
p500
sg63
V../experiment_stimuli/bw_bc_bl/Living_Things/Animals/tiger_2.jpg
p501
sg21
F0.7618814380839467
sS'trials.thisTrialN'
p502
I37
sa(dp503
g31
g32
sg17
F176.52755832346156
sg24
I0
sg35
g39
sg14
F176.52166010765359
sg16
g36
(g70
S'\x01\x00\x00\x00'
tRp504
sg42
g43
sg46
g47
sg15
g113
sg22
F178.76704165292904
sg64
g100
sg62
g101
sg49
g50
sS'trials.thisN'
p505
I38
sg19
I1
sg27
g36
(g38
S'\x00\x00\x00\x00\x00\x00\x1e@'
tRp506
sg52
g53
sg23
S'2'
sg18
F177.79433214012533
sg33
g34
sg51
g11
sg20
S'1'
sg65
g36
(g77
S'\x00\x00\x00\x00\x00\x00\x00\x00'
tRp507
sg44
g45
sg40
g41
sg25
F0.14057482499629259
sS'trials.thisIndex'
p508
g36
(g80
S'M\x00\x00\x00'
tRp509
sg26
V5
sS'trials.thisRepN'
p510
I0
sg66
Vsmall-saucepan
p511
sg63
V../experiment_stimuli/bw_bc_bl/Nonliving_Things/Kitchen_Uten/small-saucepan_7.jpg
p512
sg21
F0.952135119587183
sS'trials.thisTrialN'
p513
I38
sa(dp514
g31
g32
sg17
F180.646491559688
sg24
I0
sg35
g39
sg14
F180.6406310047023
sg16
g36
(g70
S'\x01\x00\x00\x00'
tRp515
sg42
g43
sg46
g47
sg15
g113
sg22
F182.76585212070495
sg64
g100
sg62
g101
sg49
g50
sS'trials.thisN'
p516
I39
sg19
I1
sg27
g36
(g38
S'\x00\x00\x00\x00\x00\x00\x18@'
tRp517
sg52
g53
sg23
S'3'
sg18
F181.90325785800815
sg33
g34
sg51
g11
sg20
S'1'
sg65
g36
(g77
S'\x00\x00\x00\x00\x00\x00\x00\x00'
tRp518
sg44
g45
sg40
g41
sg25
F0.14057723898440599
sS'trials.thisIndex'
p519
g36
(g80
S'\x1f\x00\x00\x00'
tRp520
sg26
V5
sS'trials.thisRepN'
p521
I0
sg66
Vfrying-pan
p522
sg63
V../experiment_stimuli/bw_bc_bl/Nonliving_Things/Kitchen_Uten/frying-pan_12.jpg
p523
sg21
F0.84205581247806549
sS'trials.thisTrialN'
p524
I39
sa(dp525
g31
g32
sg17
F184.64426179463044
sg24
I0
sg35
g39
sg14
F184.63933398155496
sg16
g36
(g70
S'\x02\x00\x00\x00'
tRp526
sg42
g43
sg46
g47
sg15
g72
sg22
F187.29574546776712
sg64
VTools
p527
sg62
g101
sg49
g50
sS'trials.thisN'
p528
I40
sg19
I0
sg27
g36
(g38
S'\x00\x00\x00\x00\x00\x00\x18@'
tRp529
sg52
g53
sg23
S'2'
sg18
F185.88191478746012
sg33
g34
sg51
g11
sg20
S'1'
sg65
g36
(g77
S'\x00\x00\x00\x00\x00\x00\x00\x00'
tRp530
sg44
g45
sg40
g41
sg25
F0.18061695480719209
sS'trials.thisIndex'
p531
g36
(g80
S'%\x00\x00\x00'
tRp532
sg26
V5
sS'trials.thisRepN'
p533
I0
sg66
Vhammer
p534
sg63
V../experiment_stimuli/bw_bc_bl/Nonliving_Things/Tools/hammer_14.jpg
p535
sg21
F1.3932590917684138
sS'trials.thisTrialN'
p536
I40
sa(dp537
g31
g32
sg17
F189.21413567755371
sg24
I0
sg35
g39
sg14
F189.20924768364057
sg16
g36
(g70
S'\x01\x00\x00\x00'
tRp538
sg42
g43
sg46
g47
sg15
g113
sg22
F191.23430891148746
sg64
g527
sg62
g101
sg49
g50
sS'trials.thisN'
p539
I41
sg19
I1
sg27
g36
(g38
S'\x00\x00\x00\x00\x00\x00\x1e@'
tRp540
sg52
g53
sg23
S'2'
sg18
F190.44182322314009
sg33
g34
sg51
g11
sg20
S'1'
sg65
g36
(g77
S'\x00\x00\x00\x00\x00\x00\x00\x00'
tRp541
sg44
g45
sg40
g41
sg25
F0.12053002556785941
sS'trials.thisIndex'
p542
g36
(g80
S'\x03\x00\x00\x00'
tRp543
sg26
V5
sS'trials.thisRepN'
p544
I0
sg66
Vaxe
p545
sg63
V../experiment_stimuli/bw_bc_bl/Nonliving_Things/Tools/axe_11.jpg
p546
sg21
F0.77190363314002752
sS'trials.thisTrialN'
p547
I41
sa(dp548
g31
g32
sg17
F193.09375044656917
sg24
I1
sg35
g39
sg14
F193.08767197327688
sg16
g36
(g70
S'\x01\x00\x00\x00'
tRp549
sg42
g43
sg46
g47
sg15
g72
sg22
F194.79202927881852
sg64
g207
sg62
g74
sg49
g50
sS'trials.thisN'
p550
I42
sg19
I1
sg27
g36
(g38
S'\x00\x00\x00\x00\x00\x00\x18@'
tRp551
sg52
g53
sg23
S'1'
sg18
F194.32025410281494
sg33
g34
sg51
g11
sg20
S'1'
sg65
g36
(g77
S'\x00\x00\x00\x00\x00\x00\x00\x00'
tRp552
sg44
g45
sg40
g41
sg25
F0.22054515732452273
sS'trials.thisIndex'
p553
g36
(g80
S'(\x00\x00\x00'
tRp554
sg26
V5
sS'trials.thisRepN'
p555
I0
sg66
Vhorse
p556
sg63
V../experiment_stimuli/bw_bc_bl/Living_Things/Animals/horse_7.jpg
p557
sg21
F0.45122082345187664
sS'trials.thisTrialN'
p558
I42
sa(dp559
g31
g32
sg17
F196.7505640340969
sg24
I1
sg35
g39
sg14
F196.74562090914696
sg16
g36
(g70
S'\x01\x00\x00\x00'
tRp560
sg42
g43
sg46
g47
sg15
g72
sg22
F199.23167764348909
sg64
g207
sg62
g74
sg49
g50
sS'trials.thisN'
p561
I43
sg19
I1
sg27
g36
(g38
S'\x00\x00\x00\x00\x00\x00\x18@'
tRp562
sg52
g53
sg23
S'1'
sg18
F197.98822670383379
sg33
g34
sg51
g11
sg20
S'1'
sg65
g36
(g77
S'\x00\x00\x00\x00\x00\x00\x00\x00'
tRp563
sg44
g45
sg40
g41
sg25
F0.20067829126492143
sS'trials.thisIndex'
p564
g36
(g80
S'\x1b\x00\x00\x00'
tRp565
sg26
V5
sS'trials.thisRepN'
p566
I0
sg66
Velephant
p567
sg63
V../experiment_stimuli/bw_bc_bl/Living_Things/Animals/elephant_18.jpg
p568
sg21
F1.2229050728492439
sS'trials.thisTrialN'
p569
I43
sa(dp570
g31
g32
sg17
F201.17120054317638
sg24
I0
sg35
g39
sg14
F201.16523129446432
sg16
g36
(g70
S'\x02\x00\x00\x00'
tRp571
sg42
g43
sg46
g47
sg15
g113
sg22
F203.87174468720332
sg64
g195
sg62
g74
sg49
g50
sS'trials.thisN'
p572
I44
sg19
I1
sg27
g36
(g38
S'\x00\x00\x00\x00\x00\x00\x18@'
tRp573
sg52
g53
sg23
S'2'
sg18
F202.43790297023952
sg33
g34
sg51
g11
sg20
S'2'
sg65
g36
(g77
S'\x00\x00\x00\x00\x00\x00\x00\x00'
tRp574
sg44
g45
sg40
g41
sg25
F0.23073314316570759
sS'trials.thisIndex'
p575
g36
(g80
S'*\x00\x00\x00'
tRp576
sg26
V5
sS'trials.thisRepN'
p577
I0
sg66
Vhummingbird
p578
sg63
V../experiment_stimuli/bw_bc_bl/Living_Things/Birds/hummingbird_2.jpg
p579
sg21
F1.4133024550974369
sS'trials.thisTrialN'
p580
I44
sa(dp581
g31
g32
sg17
F205.84030723478645
sg24
I1
sg35
g39
sg14
F205.83538234326988
sg16
g36
(g70
S'\x01\x00\x00\x00'
tRp582
sg42
g43
sg46
g47
sg15
g72
sg22
F209.18333763210103
sg64
g195
sg62
g74
sg49
g50
sS'trials.thisN'
p583
I45
sg19
I0
sg27
g36
(g38
S'\x00\x00\x00\x00\x00\x00\x18@'
tRp584
sg52
g53
sg23
S'1'
sg18
F207.09804144408554
sg33
g34
sg51
g11
sg20
S'2'
sg65
g36
(g77
S'\x00\x00\x00\x00\x00\x00\x00\x00'
tRp585
sg44
g45
sg40
g41
sg25
F0.40109606785699725
sS'trials.thisIndex'
p586
g36
(g80
S'F\x00\x00\x00'
tRp587
sg26
V5
sS'trials.thisRepN'
p588
I0
sg66
Vrooster
p589
sg63
V../experiment_stimuli/bw_bc_bl/Living_Things/Birds/rooster_25.jpg
p590
sg21
F2.0647342004813254
sS'trials.thisTrialN'
p591
I45
sa(dp592
g31
g32
sg17
F211.32220298890024
sg24
I0
sg35
g39
sg14
F211.31730025494471
sg16
g36
(g70
S'\x02\x00\x00\x00'
tRp593
sg42
g43
sg46
g47
sg15
g72
sg22
F213.85344604216516
sg64
g100
sg62
g101
sg49
g50
sS'trials.thisN'
p594
I46
sg19
I1
sg27
g36
(g38
S'\x00\x00\x00\x00\x00\x00\x18@'
tRp595
sg52
g53
sg23
S'3'
sg18
F212.58997017098591
sg33
g34
sg51
g11
sg20
S'2'
sg65
g36
(g77
S'\x00\x00\x00\x00\x00\x00\x00\x00'
tRp596
sg44
g45
sg40
g41
sg25
F0.14053224679082632
sS'trials.thisIndex'
p597
g36
(g80
S'\x16\x00\x00\x00'
tRp598
sg26
V5
sS'trials.thisRepN'
p599
I0
sg66
Vcup
p600
sg63
V../experiment_stimuli/bw_bc_bl/Nonliving_Things/Kitchen_Uten/cup_4.jpg
p601
sg21
F1.2429286879487336
sS'trials.thisTrialN'
p602
I46
sa(dp603
g31
g32
sg17
F215.73407386429608
sg24
I0
sg35
g39
sg14
F215.72688851971179
sg16
g36
(g70
S'\x02\x00\x00\x00'
tRp604
sg42
g43
sg46
g47
sg15
g72
sg22
F220.00688699819148
sg64
g100
sg62
g101
sg49
g50
sS'trials.thisN'
p605
I47
sg19
I1
sg27
g36
(g38
S'\x00\x00\x00\x00\x00\x00\x18@'
tRp606
sg52
g53
sg23
S'2'
sg18
F216.97950905794278
sg33
g34
sg51
g11
sg20
S'2'
sg65
g36
(g77
S'\x00\x00\x00\x00\x00\x00\x00\x00'
tRp607
sg44
g45
sg40
g41
sg25
F0.55141947884112597
sS'trials.thisIndex'
p608
g36
(g80
S'S\x00\x00\x00'
tRp609
sg26
V5
sS'trials.thisRepN'
p610
I0
sg66
Vteapot
p611
sg63
V../experiment_stimuli/bw_bc_bl/Nonliving_Things/Kitchen_Uten/teapot_17.jpg
p612
sg21
F3.0068087158724666
sS'trials.thisTrialN'
p613
I47
sa(dp614
g31
g32
sg17
F222.29608429595828
sg24
I1
sg35
g39
sg14
F222.29115781048313
sg16
g36
(g70
S'\x02\x00\x00\x00'
tRp615
sg42
g43
sg46
g47
sg15
g113
sg22
F227.35282476339489
sg64
g207
sg62
g74
sg49
g50
sS'trials.thisN'
p616
I48
sg19
I0
sg27
g36
(g38
S'\x00\x00\x00\x00\x00\x00\x18@'
tRp617
sg52
g53
sg23
S'1'
sg18
F223.53376434510574
sg33
g34
sg51
g11
sg20
S'1'
sg65
g36
(g77
S'\x00\x00\x00\x00\x00\x00\x00\x00'
tRp618
sg44
g45
sg40
g41
sg25
F1.0324628567323089
sS'trials.thisIndex'
p619
g36
(g80
S'\r\x00\x00\x00'
tRp620
sg26
V5
sS'trials.thisRepN'
p621
I0
sg66
Vcat
p622
sg63
V../experiment_stimuli/bw_bc_bl/Living_Things/Animals/cat_25.jpg
p623
sg21
F3.798490250017494
sS'trials.thisTrialN'
p624
I48
sa(dp625
g31
g32
sg17
F230.12306053284556
sg24
I0
sg35
g39
sg14
F230.11817473452538
sg16
g36
(g70
S'\x02\x00\x00\x00'
tRp626
sg42
g43
sg46
g47
sg15
g72
sg22
F232.30356992129236
sg64
g125
sg62
g101
sg49
g50
sS'trials.thisN'
p627
I49
sg19
I1
sg27
g36
(g38
S'\x00\x00\x00\x00\x00\x00\x1a@'
tRp628
sg52
g53
sg23
S'3'
sg18
F231.38082256121561
sg33
g34
sg51
g11
sg20
S'2'
sg65
g36
(g77
S'\x00\x00\x00\x00\x00\x00\x00\x00'
tRp629
sg44
g45
sg40
g41
sg25
F0.20065812999382615
sS'trials.thisIndex'
p630
g36
(g80
S']\x00\x00\x00'
tRp631
sg26
V5
sS'trials.thisRepN'
p632
I0
sg66
Vwardrobe
p633
sg63
V../experiment_stimuli/bw_bc_bl/Nonliving_Things/Furniture/wardrobe_10.jpg
p634
sg21
F0.90219154534861445
sS'trials.thisTrialN'
p635
I49
sa(dp636
g31
g32
sg17
F234.24207736924291
sg24
I0
sg35
g39
sg14
F234.23712547775358
sg16
g36
(g70
S'\x01\x00\x00\x00'
tRp637
sg42
g43
sg46
g47
sg15
g72
sg22
F237.21424987865612
sg64
g207
sg62
g74
sg49
g50
sS'trials.thisN'
p638
I50
sg19
I0
sg27
g36
(g38
S'\x00\x00\x00\x00\x00\x00\x18@'
tRp639
sg52
g53
sg23
S'2'
sg18
F235.47973727947101
sg33
g34
sg51
g11
sg20
S'2'
sg65
g36
(g77
S'\x00\x00\x00\x00\x00\x00\x00\x00'
tRp640
sg44
g45
sg40
g41
sg25
F0.28085241792723536
sS'trials.thisIndex'
p641
g36
(g80
S'\x14\x00\x00\x00'
tRp642
sg26
V5
sS'trials.thisRepN'
p643
I0
sg66
Vcow
p644
sg63
V../experiment_stimuli/bw_bc_bl/Living_Things/Animals/cow_9.jpg
p645
sg21
F1.7139530102722347
sS'trials.thisTrialN'
p646
I50
sa(dp647
g31
g32
sg17
F239.2327981502749
sg24
I1
sg35
g39
sg14
F239.227975001093
sg16
g36
(g70
S'\x02\x00\x00\x00'
tRp648
sg42
g43
sg46
g47
sg15
g72
sg22
F241.07263240264729
sg64
g159
sg62
g101
sg49
g50
sS'trials.thisN'
p649
I51
sg19
I1
sg27
g36
(g38
S'\x00\x00\x00\x00\x00\x00\x1e@'
tRp650
sg52
g53
sg23
S'1'
sg18
F240.46056255558506
sg33
g34
sg51
g11
sg20
S'2'
sg65
g36
(g77
S'\x00\x00\x00\x00\x00\x00\x00\x00'
tRp651
sg44
g45
sg40
g41
sg25
F0.14054674282670021
sS'trials.thisIndex'
p652
g36
(g80
S'W\x00\x00\x00'
tRp653
sg26
V5
sS'trials.thisRepN'
p654
I0
sg66
Vtrain
p655
sg63
V../experiment_stimuli/bw_bc_bl/Nonliving_Things/Vehicles/train_11.jpg
p656
sg21
F0.59151609241962433
sS'trials.thisTrialN'
p657
I51
sa(dp658
g31
g32
sg17
F242.95091946143657
sg24
I0
sg35
g39
sg14
F242.9460639404133
sg16
g36
(g70
S'\x02\x00\x00\x00'
tRp659
sg42
g43
sg46
g47
sg15
g72
sg22
F244.78068635752425
sg64
g171
sg62
g101
sg49
g50
sS'trials.thisN'
p660
I52
sg19
I1
sg27
g36
(g38
S'\x00\x00\x00\x00\x00\x00\x1e@'
tRp661
sg52
g53
sg23
S'3'
sg18
F244.2087059142068
sg33
g34
sg51
g11
sg20
S'2'
sg65
g36
(g77
S'\x00\x00\x00\x00\x00\x00\x00\x00'
tRp662
sg44
g45
sg40
g41
sg25
F0.13050453690811992
sS'trials.thisIndex'
p663
g36
(g80
S'$\x00\x00\x00'
tRp664
sg26
V5
sS'trials.thisRepN'
p665
I0
sg66
Vguitar
p666
sg63
V../experiment_stimuli/bw_bc_bl/Nonliving_Things/Musical_Inst/guitar_10.jpg
p667
sg21
F0.55142347142100334
sS'trials.thisTrialN'
p668
I52
sa(dp669
g31
g32
sg17
F246.65007575787604
sg24
I0
sg35
g39
sg14
F246.64411109546199
sg16
g36
(g70
S'\x02\x00\x00\x00'
tRp670
sg42
g43
sg46
g47
sg15
g113
sg22
F250.71358406264335
sg64
g195
sg62
g74
sg49
g50
sS'trials.thisN'
p671
I53
sg19
I0
sg27
g36
(g38
S'\x00\x00\x00\x00\x00\x00\x18@'
tRp672
sg52
g53
sg23
S'2'
sg18
F247.87668373994529
sg33
g34
sg51
g11
sg20
S'1'
sg65
g36
(g77
S'\x00\x00\x00\x00\x00\x00\x00\x00'
tRp673
sg44
g45
sg40
g41
sg25
F0.15055662579834461
sS'trials.thisIndex'
p674
g36
(g80
S'"\x00\x00\x00'
tRp675
sg26
V5
sS'trials.thisRepN'
p676
I0
sg66
Vgoose
p677
sg63
V../experiment_stimuli/bw_bc_bl/Living_Things/Birds/goose_22.jpg
p678
sg21
F2.8163466206751764
sS'trials.thisTrialN'
p679
I53
sa(dp680
g31
g32
sg17
F252.60311517072842
sg24
I0
sg35
g39
sg14
F252.59705791156739
sg16
g36
(g70
S'\x02\x00\x00\x00'
tRp681
sg42
g43
sg46
g47
sg15
g113
sg22
F254.35152633395046
sg64
g195
sg62
g74
sg49
g50
sS'trials.thisN'
p682
I54
sg19
I0
sg27
g36
(g38
S'\x00\x00\x00\x00\x00\x00\x18@'
tRp683
sg52
g53
sg23
S'2'
sg18
F253.829624094069
sg33
g34
sg51
g11
sg20
S'1'
sg65
g36
(g77
S'\x00\x00\x00\x00\x00\x00\x00\x00'
tRp684
sg44
g45
sg40
g41
sg25
F0.14052570518106222
sS'trials.thisIndex'
p685
g36
(g80
S'O\x00\x00\x00'
tRp686
sg26
V5
sS'trials.thisRepN'
p687
I0
sg66
Vsparrow
p688
sg63
V../experiment_stimuli/bw_bc_bl/Living_Things/Birds/sparrow_11.jpg
p689
sg21
F0.50133583880960941
sS'trials.thisTrialN'
p690
I54
sa(dp691
g31
g32
sg17
F256.23103726981208
sg24
I0
sg35
g39
sg14
F256.22492596274242
sg16
g36
(g70
S'\x02\x00\x00\x00'
tRp692
sg42
g43
sg46
g47
sg15
g72
sg22
F258.35020158579573
sg64
g125
sg62
g101
sg49
g50
sS'trials.thisN'
p693
I55
sg19
I1
sg27
g36
(g38
S'\x00\x00\x00\x00\x00\x00\x18@'
tRp694
sg52
g53
sg23
S'2'
sg18
F257.45751029159874
sg33
g34
sg51
g11
sg20
S'2'
sg65
g36
(g77
S'\x00\x00\x00\x00\x00\x00\x00\x00'
tRp695
sg44
g45
sg40
g41
sg25
F0.23072266578674316
sS'trials.thisIndex'
p696
g36
(g80
S'\x1d\x00\x00\x00'
tRp697
sg26
V5
sS'trials.thisRepN'
p698
I0
sg66
Vfilling-cabinet
p699
sg63
V../experiment_stimuli/bw_bc_bl/Nonliving_Things/Furniture/filling-cabinet_14.jpg
p700
sg21
F0.87212948314845562
sS'trials.thisTrialN'
p701
I55
sa(dp702
g31
g32
sg17
F260.31876699067652
sg24
I1
sg35
g39
sg14
F260.31382910627872
sg16
g36
(g70
S'\x01\x00\x00\x00'
tRp703
sg42
g43
sg46
g47
sg15
g72
sg22
F262.24869121564552
sg64
g73
sg62
g74
sg49
g50
sS'trials.thisN'
p704
I56
sg19
I0
sg27
g36
(g38
S'\x00\x00\x00\x00\x00\x00\x1e@'
tRp705
sg52
g53
sg23
S'1'
sg18
F261.54639564594254
sg33
g34
sg51
g11
sg20
S'2'
sg65
g36
(g77
S'\x00\x00\x00\x00\x00\x00\x00\x00'
tRp706
sg44
g45
sg40
g41
sg25
F0.13050094293430448
sS'trials.thisIndex'
p707
g36
(g80
S'I\x00\x00\x00'
tRp708
sg26
V5
sS'trials.thisRepN'
p709
I0
sg66
Vscorpion
p710
sg63
V../experiment_stimuli/bw_bc_bl/Living_Things/Insects/scorpion_6.jpg
p711
sg21
F0.68172778561711311
sS'trials.thisTrialN'
p712
I56
sa(dp713
g31
g32
sg17
F264.11695707961917
sg24
I0
sg35
g39
sg14
F264.11207623593509
sg16
g36
(g70
S'\x02\x00\x00\x00'
tRp714
sg42
g43
sg46
g47
sg15
g72
sg22
F266.16720535233617
sg64
g159
sg62
g101
sg49
g50
sS'trials.thisN'
p715
I57
sg19
I1
sg27
g36
(g38
S'\x00\x00\x00\x00\x00\x00\x18@'
tRp716
sg52
g53
sg23
S'3'
sg18
F265.36469565005973
sg33
g34
sg51
g11
sg20
S'2'
sg65
g36
(g77
S'\x00\x00\x00\x00\x00\x00\x00\x00'
tRp717
sg44
g45
sg40
g41
sg25
F0.12049192097038031
sS'trials.thisIndex'
p718
g36
(g80
S'\t\x00\x00\x00'
tRp719
sg26
V5
sS'trials.thisRepN'
p720
I0
sg66
Vbus
p721
sg63
V../experiment_stimuli/bw_bc_bl/Nonliving_Things/Vehicles/bus_18.jpg
p722
sg21
F0.78194186557084322
sS'trials.thisTrialN'
p723
I57
sa(dp724
g31
g32
sg17
F268.02666489081457
sg24
I0
sg35
g39
sg14
F268.02057097107172
sg16
g36
(g70
S'\x02\x00\x00\x00'
tRp725
sg42
g43
sg46
g47
sg15
g72
sg22
F270.25605504959822
sg64
g183
sg62
g101
sg49
g50
sS'trials.thisN'
p726
I58
sg19
I0
sg27
g36
(g38
S'\x00\x00\x00\x00\x00\x00\x1e@'
tRp727
sg52
g53
sg23
S'2'
sg18
F269.26317406632006
sg33
g34
sg51
g11
sg20
S'1'
sg65
g36
(g77
S'\x00\x00\x00\x00\x00\x00\x00\x00'
tRp728
sg44
g45
sg40
g41
sg25
F0.17064189445227385
sS'trials.thisIndex'
p729
g36
(g80
S'5\x00\x00\x00'
tRp730
sg26
V5
sS'trials.thisRepN'
p731
I0
sg66
Vmill
p732
sg63
V../experiment_stimuli/bw_bc_bl/Nonliving_Things/Buildings/mill_8.jpg
p733
sg21
F0.97234188299626112
sS'trials.thisTrialN'
p734
I58
sa(dp735
g31
g32
sg17
F272.16569377947599
sg24
I1
sg35
g39
sg14
F272.1595616908744
sg16
g36
(g70
S'\x01\x00\x00\x00'
tRp736
sg42
g43
sg46
g47
sg15
g113
sg22
F275.00639596069232
sg64
g171
sg62
g101
sg49
g50
sS'trials.thisN'
p737
I59
sg19
I1
sg27
g36
(g38
S'\x00\x00\x00\x00\x00\x00\x1a@'
tRp738
sg52
g53
sg23
S'1'
sg18
F273.39214717363939
sg33
g34
sg51
g11
sg20
S'1'
sg65
g36
(g77
S'\x00\x00\x00\x00\x00\x00\x00\x00'
tRp739
sg44
g45
sg40
g41
sg25
F0.28081820765510201
sS'trials.thisIndex'
p740
g36
(g80
S'\x19\x00\x00\x00'
tRp741
sg26
V5
sS'trials.thisRepN'
p742
I0
sg66
Vdrum
p743
sg63
V../experiment_stimuli/bw_bc_bl/Nonliving_Things/Musical_Inst/drum_11.jpg
p744
sg21
F1.5936972959898412
sS'trials.thisTrialN'
p745
I59
sa(dp746
g31
g32
sg17
F277.02503917505965
sg24
I1
sg35
g39
sg14
F277.02012907993048
sg16
g36
(g70
S'\x02\x00\x00\x00'
tRp747
sg42
g43
sg46
g47
sg15
g113
sg22
F279.38594154361635
sg64
g195
sg62
g74
sg49
g50
sS'trials.thisN'
p748
I60
sg19
I1
sg27
g36
(g38
S'\x00\x00\x00\x00\x00\x00\x1a@'
tRp749
sg52
g53
sg23
S'1'
sg18
F278.27275476465002
sg33
g34
sg51
g11
sg20
S'2'
sg65
g36
(g77
S'\x00\x00\x00\x00\x00\x00\x00\x00'
tRp750
sg44
g45
sg40
g41
sg25
F0.15059775300323963
sS'trials.thisIndex'
p751
g36
(g80
S'?\x00\x00\x00'
tRp752
sg26
V5
sS'trials.thisRepN'
p753
I0
sg66
Vpigeon
p754
sg63
V../experiment_stimuli/bw_bc_bl/Living_Things/Birds/pigeon_2.jpg
p755
sg21
F1.0925999651663005
sS'trials.thisTrialN'
p756
I60
sa(dp757
g31
g32
sg17
F281.27549874549732
sg24
I0
sg35
g39
sg14
F281.26936649112031
sg16
g36
(g70
S'\x02\x00\x00\x00'
tRp758
sg42
g43
sg46
g47
sg15
g72
sg22
F283.69528053794056
sg64
g125
sg62
g101
sg49
g50
sS'trials.thisN'
p759
I61
sg19
I1
sg27
g36
(g38
S'\x00\x00\x00\x00\x00\x00\x1e@'
tRp760
sg52
g53
sg23
S'3'
sg18
F282.54204314062372
sg33
g34
sg51
g11
sg20
S'2'
sg65
g36
(g77
S'\x00\x00\x00\x00\x00\x00\x00\x00'
tRp761
sg44
g45
sg40
g41
sg25
F0.16056523099541664
sS'trials.thisIndex'
p762
g36
(g80
S'\x05\x00\x00\x00'
tRp763
sg26
V5
sS'trials.thisRepN'
p764
I0
sg66
Vbed
p765
sg63
V../experiment_stimuli/bw_bc_bl/Nonliving_Things/Furniture/bed_24.jpg
p766
sg21
F1.1326933754608035
sS'trials.thisTrialN'
p767
I61
sa(dp768
g31
g32
sg17
F285.59353490825742
sg24
I0
sg35
g39
sg14
F285.58876658556983
sg16
g36
(g70
S'\x02\x00\x00\x00'
tRp769
sg42
g43
sg46
g47
sg15
g72
sg22
F287.94451397191733
sg64
g100
sg62
g101
sg49
g50
sS'trials.thisN'
p770
I62
sg19
I1
sg27
g36
(g38
S'\x00\x00\x00\x00\x00\x00\x1a@'
tRp771
sg52
g53
sg23
S'2'
sg18
F286.82133870432153
sg33
g34
sg51
g11
sg20
S'2'
sg65
g36
(g77
S'\x00\x00\x00\x00\x00\x00\x00\x00'
tRp772
sg44
g45
sg40
g41
sg25
F0.23072585696354508
sS'trials.thisIndex'
p773
g36
(g80
S'\x1e\x00\x00\x00'
tRp774
sg26
V5
sS'trials.thisRepN'
p775
I0
sg66
Vfondue
p776
sg63
V../experiment_stimuli/bw_bc_bl/Nonliving_Things/Kitchen_Uten/fondue_15.jpg
p777
sg21
F1.1026233513839543
sS'trials.thisTrialN'
p778
I62
sa(dp779
g31
g32
sg17
F289.91293891239911
sg24
I0
sg35
g39
sg14
F289.90814722562209
sg16
g36
(g70
S'\x02\x00\x00\x00'
tRp780
sg42
g43
sg46
g47
sg15
g113
sg22
F293.83736774278805
sg64
g207
sg62
g74
sg49
g50
sS'trials.thisN'
p781
I63
sg19
I0
sg27
g36
(g38
S'\x00\x00\x00\x00\x00\x00\x1e@'
tRp782
sg52
g53
sg23
S'2'
sg18
F291.14074014080688
sg33
g34
sg51
g11
sg20
S'1'
sg65
g36
(g77
S'\x00\x00\x00\x00\x00\x00\x00\x00'
tRp783
sg44
g45
sg40
g41
sg25
F0.21067800931632519
sS'trials.thisIndex'
p784
g36
(g80
S'0\x00\x00\x00'
tRp785
sg26
V5
sS'trials.thisRepN'
p786
I0
sg66
Vlioness
p787
sg63
V../experiment_stimuli/bw_bc_bl/Living_Things/Animals/lioness_16.jpg
p788
sg21
F2.6760656293481588
sS'trials.thisTrialN'
p789
I63
sa(dp790
g31
g32
sg17
F295.78566446434706
sg24
I0
sg35
g39
sg14
F295.78091129194945
sg16
g36
(g70
S'\x01\x00\x00\x00'
tRp791
sg42
g43
sg46
g47
sg15
g113
sg22
F297.7859415654093
sg64
g125
sg62
g101
sg49
g50
sS'trials.thisN'
p792
I64
sg19
I1
sg27
g36
(g38
S'\x00\x00\x00\x00\x00\x00\x1e@'
tRp793
sg52
g53
sg23
S'3'
sg18
F297.0235202703625
sg33
g34
sg51
g11
sg20
S'1'
sg65
g36
(g77
S'\x00\x00\x00\x00\x00\x00\x00\x00'
tRp794
sg44
g45
sg40
g41
sg25
F0.20070953154936433
sS'trials.thisIndex'
p795
g36
(g80
S'N\x00\x00\x00'
tRp796
sg26
V5
sS'trials.thisRepN'
p797
I0
sg66
Vsofa
p798
sg63
V../experiment_stimuli/bw_bc_bl/Nonliving_Things/Furniture/sofa_22.jpg
p799
sg21
F0.74186240555718541
sS'trials.thisTrialN'
p800
I64
sa(dp801
g31
g32
sg17
F299.72425664775074
sg24
I0
sg35
g39
sg14
F299.71947566373274
sg16
g36
(g70
S'\x01\x00\x00\x00'
tRp802
sg42
g43
sg46
g47
sg15
g113
sg22
F301.63430272927508
sg64
g183
sg62
g101
sg49
g50
sS'trials.thisN'
p803
I65
sg19
I1
sg27
g36
(g38
S'\x00\x00\x00\x00\x00\x00\x1a@'
tRp804
sg52
g53
sg23
S'3'
sg18
F300.9520578798838
sg33
g34
sg51
g11
sg20
S'1'
sg65
g36
(g77
S'\x00\x00\x00\x00\x00\x00\x00\x00'
tRp805
sg44
g45
sg40
g41
sg25
F0.13055477710440755
sS'trials.thisIndex'
p806
g36
(g80
S':\x00\x00\x00'
tRp807
sg26
V5
sS'trials.thisRepN'
p808
I0
sg66
Vpalace
p809
sg63
V../experiment_stimuli/bw_bc_bl/Nonliving_Things/Buildings/palace_11.jpg
p810
sg21
F0.65164233697578311
sS'trials.thisTrialN'
p811
I65
sa(dp812
g31
g32
sg17
F303.50380143243819
sg24
I0
sg35
g39
sg14
F303.4976896555163
sg16
g36
(g70
S'\x01\x00\x00\x00'
tRp813
sg42
g43
sg46
g47
sg15
g113
sg22
F305.65304892277345
sg64
g125
sg62
g101
sg49
g50
sS'trials.thisN'
p814
I66
sg19
I1
sg27
g36
(g38
S'\x00\x00\x00\x00\x00\x00\x1a@'
tRp815
sg52
g53
sg23
S'2'
sg18
F304.7302734577097
sg33
g34
sg51
g11
sg20
S'1'
sg65
g36
(g77
S'\x00\x00\x00\x00\x00\x00\x00\x00'
tRp816
sg44
g45
sg40
g41
sg25
F0.13050075899809599
sS'trials.thisIndex'
p817
g36
(g80
S'\x13\x00\x00\x00'
tRp818
sg26
V5
sS'trials.thisRepN'
p819
I0
sg66
Vcouch
p820
sg63
V../experiment_stimuli/bw_bc_bl/Nonliving_Things/Furniture/couch_14.jpg
p821
sg21
F0.90222102636471391
sS'trials.thisTrialN'
p822
I66
sa(dp823
g31
g32
sg17
F307.52120389742777
sg24
I0
sg35
g39
sg14
F307.51643919106573
sg16
g36
(g70
S'\x01\x00\x00\x00'
tRp824
sg42
g43
sg46
g47
sg15
g72
sg22
F311.11493957228959
sg64
g207
sg62
g74
sg49
g50
sS'trials.thisN'
p825
I67
sg19
I0
sg27
g36
(g38
S'\x00\x00\x00\x00\x00\x00\x18@'
tRp826
sg52
g53
sg23
S'2'
sg18
F308.74901090748608
sg33
g34
sg51
g11
sg20
S'2'
sg65
g36
(g77
S'\x00\x00\x00\x00\x00\x00\x00\x00'
tRp827
sg44
g45
sg40
g41
sg25
F0.2607841263525188
sS'trials.thisIndex'
p828
g36
(g80
S'Z\x00\x00\x00'
tRp829
sg26
V5
sS'trials.thisRepN'
p830
I0
sg66
Vturtle
p831
sg63
V../experiment_stimuli/bw_bc_bl/Living_Things/Animals/turtle_10.jpg
p832
sg21
F2.3453463735058904
sS'trials.thisTrialN'
p833
I67
sa(dp834
g31
g32
sg17
F313.11345272511244
sg24
I1
sg35
g39
sg14
F313.10858697909862
sg16
g36
(g70
S'\x01\x00\x00\x00'
tRp835
sg42
g43
sg46
g47
sg15
g72
sg22
F316.00553160719573
sg64
g207
sg62
g74
sg49
g50
sS'trials.thisN'
p836
I68
sg19
I0
sg27
g36
(g38
S'\x00\x00\x00\x00\x00\x00\x1c@'
tRp837
sg52
g53
sg23
S'1'
sg18
F314.34116828907281
sg33
g34
sg51
g11
sg20
S'2'
sg65
g36
(g77
S'\x00\x00\x00\x00\x00\x00\x00\x00'
tRp838
sg44
g45
sg40
g41
sg25
F0.78193617006763816
sS'trials.thisIndex'
p839
g36
(g80
S'\x10\x00\x00\x00'
tRp840
sg26
V5
sS'trials.thisRepN'
p841
I0
sg66
Vcheetah
p842
sg63
V../experiment_stimuli/bw_bc_bl/Living_Things/Animals/cheetah_7.jpg
p843
sg21
F1.6438089995644987
sS'trials.thisTrialN'
p844
I68
sa(dp845
g31
g32
sg17
F318.52521033305675
sg24
I0
sg35
g39
sg14
F318.52035199711099
sg16
g36
(g70
S'\x01\x00\x00\x00'
tRp846
sg42
g43
sg46
g47
sg15
g113
sg22
F320.32489645015448
sg64
g183
sg62
g101
sg49
g50
sS'trials.thisN'
p847
I69
sg19
I1
sg27
g36
(g38
S'\x00\x00\x00\x00\x00\x00\x18@'
tRp848
sg52
g53
sg23
S'3'
sg18
F319.78299754904583
sg33
g34
sg51
g11
sg20
S'1'
sg65
g36
(g77
S'\x00\x00\x00\x00\x00\x00\x00\x00'
tRp849
sg44
g45
sg40
g41
sg25
F0.14057616330683231
sS'trials.thisIndex'
p850
g36
(g80
S'\x0e\x00\x00\x00'
tRp851
sg26
V5
sS'trials.thisRepN'
p852
I0
sg66
Vcathedral
p853
sg63
V../experiment_stimuli/bw_bc_bl/Nonliving_Things/Buildings/cathedral_4.jpg
p854
sg21
F0.52136029675602913
sS'trials.thisTrialN'
p855
I69
sa(dp856
g31
g32
sg17
F322.20314440410584
sg24
I0
sg35
g39
sg14
F322.1983402473852
sg16
g36
(g70
S'\x02\x00\x00\x00'
tRp857
sg42
g43
sg46
g47
sg15
g113
sg22
F324.77461648266762
sg64
g88
sg62
g74
sg49
g50
sS'trials.thisN'
p858
I70
sg19
I0
sg27
g36
(g38
S'\x00\x00\x00\x00\x00\x00\x1a@'
tRp859
sg52
g53
sg23
S'3'
sg18
F323.44094747398049
sg33
g34
sg51
g11
sg20
S'1'
sg65
g36
(g77
S'\x00\x00\x00\x00\x00\x00\x00\x00'
tRp860
sg44
g45
sg40
g41
sg25
F0.15059524169191718
sS'trials.thisIndex'
p861
g36
(g80
S'K\x00\x00\x00'
tRp862
sg26
V5
sS'trials.thisRepN'
p863
I0
sg66
Vshark
p864
sg63
V../experiment_stimuli/bw_bc_bl/Living_Things/Marine_creatures/shark_10.jpg
p865
sg21
F1.3130781757645309
sS'trials.thisTrialN'
p866
I70
sa(dp867
g31
g32
sg17
F326.67293834825978
sg24
I0
sg35
g39
sg14
F326.66806685831398
sg16
g36
(g70
S'\x02\x00\x00\x00'
tRp868
sg42
g43
sg46
g47
sg15
g72
sg22
F328.63297164253891
sg64
g171
sg62
g101
sg49
g50
sS'trials.thisN'
p869
I71
sg19
I0
sg27
g36
(g38
S'\x00\x00\x00\x00\x00\x00\x1c@'
tRp870
sg52
g53
sg23
S'2'
sg18
F327.91066521266475
sg33
g34
sg51
g11
sg20
S'1'
sg65
g36
(g77
S'\x00\x00\x00\x00\x00\x00\x00\x00'
tRp871
sg44
g45
sg40
g41
sg25
F0.15059730596840382
sS'trials.thisIndex'
p872
g36
(g80
S'H\x00\x00\x00'
tRp873
sg26
V5
sS'trials.thisRepN'
p874
I0
sg66
Vsaxophone
p875
sg63
V../experiment_stimuli/bw_bc_bl/Nonliving_Things/Musical_Inst/saxophone_10.jpg
p876
sg21
F0.70175119023770094
sS'trials.thisTrialN'
p877
I71
sa(dp878
g31
g32
sg17
F330.52119294600561
sg24
I0
sg35
g39
sg14
F330.51642580376938
sg16
g36
(g70
S'\x02\x00\x00\x00'
tRp879
sg42
g43
sg46
g47
sg15
g72
sg22
F332.74189669871703
sg64
g125
sg62
g101
sg49
g50
sS'trials.thisN'
p880
I72
sg19
I1
sg27
g36
(g38
S'\x00\x00\x00\x00\x00\x00\x1e@'
tRp881
sg52
g53
sg23
S'2'
sg18
F331.74901089956984
sg33
g34
sg51
g11
sg20
S'2'
sg65
g36
(g77
S'\x00\x00\x00\x00\x00\x00\x00\x00'
tRp882
sg44
g45
sg40
g41
sg25
F0.20065127639099956
sS'trials.thisIndex'
p883
g36
(g80
S'\x06\x00\x00\x00'
tRp884
sg26
V5
sS'trials.thisRepN'
p885
I0
sg66
Vbedside-table
p886
sg63
V../experiment_stimuli/bw_bc_bl/Nonliving_Things/Furniture/bedside-table_8.jpg
p887
sg21
F0.97234185645356774
sS'trials.thisTrialN'
p888
I72
sa(dp889
g31
g32
sg17
F334.68022191990167
sg24
I1
sg35
g39
sg14
F334.67546604853123
sg16
g36
(g70
S'\x02\x00\x00\x00'
tRp890
sg42
g43
sg46
g47
sg15
g72
sg22
F337.80292272102088
sg64
g159
sg62
g101
sg49
g50
sS'trials.thisN'
p891
I73
sg19
I1
sg27
g36
(g38
S'\x00\x00\x00\x00\x00\x00\x1c@'
tRp892
sg52
g53
sg23
S'1'
sg18
F335.90804701251909
sg33
g34
sg51
g11
sg20
S'2'
sg65
g36
(g77
S'\x00\x00\x00\x00\x00\x00\x00\x00'
tRp893
sg44
g45
sg40
g41
sg25
F0.17065789783373475
sS'trials.thisIndex'
p894
g36
(g80
S'@\x00\x00\x00'
tRp895
sg26
V5
sS'trials.thisRepN'
p896
I0
sg66
Vplane
p897
sg63
V../experiment_stimuli/bw_bc_bl/Nonliving_Things/Vehicles/plane_0.jpg
p898
sg21
F1.8743166346102953
sS'trials.thisTrialN'
p899
I73
sa(dp900
g31
g32
sg17
F339.71117915492505
sg24
I0
sg35
g39
sg14
F339.70640287734568
sg16
g36
(g70
S'\x01\x00\x00\x00'
tRp901
sg42
g43
sg46
g47
sg15
g113
sg22
F342.52315591322258
sg64
g183
sg62
g101
sg49
g50
sS'trials.thisN'
p902
I74
sg19
I1
sg27
g36
(g38
S'\x00\x00\x00\x00\x00\x00\x1e@'
tRp903
sg52
g53
sg23
S'3'
sg18
F340.95902918977663
sg33
g34
sg51
g11
sg20
S'1'
sg65
g36
(g77
S'\x00\x00\x00\x00\x00\x00\x00\x00'
tRp904
sg44
g45
sg40
g41
sg25
F0.50115502951666713
sS'trials.thisIndex'
p905
g36
(g80
S')\x00\x00\x00'
tRp906
sg26
V5
sS'trials.thisRepN'
p907
I0
sg66
Vhouse
p908
sg63
V../experiment_stimuli/bw_bc_bl/Nonliving_Things/Buildings/house_7.jpg
p909
sg21
F1.5435835476964712
sS'trials.thisTrialN'
p910
I74
sa(dp911
g31
g32
sg17
F344.7636109655723
sg24
I1
sg35
g39
sg14
F344.75738553190604
sg16
g36
(g70
S'\x01\x00\x00\x00'
tRp912
sg42
g43
sg46
g47
sg15
g72
sg22
F346.63209957070649
sg64
g195
sg62
g74
sg49
g50
sS'trials.thisN'
p913
I75
sg19
I0
sg27
g36
(g38
S'\x00\x00\x00\x00\x00\x00\x18@'
tRp914
sg52
g53
sg23
S'1'
sg18
F345.99999766098335
sg33
g34
sg51
g11
sg20
S'2'
sg65
g36
(g77
S'\x00\x00\x00\x00\x00\x00\x00\x00'
tRp915
sg44
g45
sg40
g41
sg25
F0.15059615904465318
sS'trials.thisIndex'
p916
g36
(g80
S'\x1a\x00\x00\x00'
tRp917
sg26
V5
sS'trials.thisRepN'
p918
I0
sg66
Vduck
p919
sg63
V../experiment_stimuli/bw_bc_bl/Living_Things/Birds/duck_25.jpg
p920
sg21
F0.61155009130015969
sS'trials.thisTrialN'
p921
I75
sa(dp922
g31
g32
sg17
F348.52042927499861
sg24
I0
sg35
g39
sg14
F348.51558916736394
sg16
g36
(g70
S'\x01\x00\x00\x00'
tRp923
sg42
g43
sg46
g47
sg15
g72
sg22
F350.62076525529847
sg64
g207
sg62
g74
sg49
g50
sS'trials.thisN'
p924
I76
sg19
I0
sg27
g36
(g38
S'\x00\x00\x00\x00\x00\x00\x1a@'
tRp925
sg52
g53
sg23
S'3'
sg18
F349.76817778497934
sg33
g34
sg51
g11
sg20
S'2'
sg65
g36
(g77
S'\x00\x00\x00\x00\x00\x00\x00\x00'
tRp926
sg44
g45
sg40
g41
sg25
F0.12048239493742585
sS'trials.thisIndex'
p927
g36
(g80
S"'\x00\x00\x00"
tRp928
sg26
V5
sS'trials.thisRepN'
p929
I0
sg66
Vhippopotamus
p930
sg63
V../experiment_stimuli/bw_bc_bl/Living_Things/Animals/hippopotamus_18.jpg
p931
sg21
F0.83203313685953617
sS'trials.thisTrialN'
p932
I76
sa(dp933
g31
g32
sg17
F352.47906900569797
sg24
I0
sg35
g39
sg14
F352.47416053479537
sg16
g36
(g70
S'\x01\x00\x00\x00'
tRp934
sg42
g43
sg46
g47
sg15
g113
sg22
F354.78983051050454
sg64
g171
sg62
g101
sg49
g50
sS'trials.thisN'
p935
I77
sg19
I1
sg27
g36
(g38
S'\x00\x00\x00\x00\x00\x00\x1a@'
tRp936
sg52
g53
sg23
S'2'
sg18
F353.70674228854477
sg33
g34
sg51
g11
sg20
S'1'
sg65
g36
(g77
S'\x00\x00\x00\x00\x00\x00\x00\x00'
tRp937
sg44
g45
sg40
g41
sg25
F0.15054548298940063
sS'trials.thisIndex'
p938
g36
(g80
S'X\x00\x00\x00'
tRp939
sg26
V5
sS'trials.thisRepN'
p940
I0
sg66
Vtrumpet
p941
sg63
V../experiment_stimuli/bw_bc_bl/Nonliving_Things/Musical_Inst/trumpet_16.jpg
p942
sg21
F1.0625377190299332
sS'trials.thisTrialN'
p943
I77
sa(dp944
g31
g32
sg17
F356.67807882092893
sg24
I0
sg35
g39
sg14
F356.67330833291635
sg16
g36
(g70
S'\x02\x00\x00\x00'
tRp945
sg42
g43
sg46
g47
sg15
g113
sg22
F359.06912665301934
sg64
g195
sg62
g74
sg49
g50
sS'trials.thisN'
p946
I78
sg19
I0
sg27
g36
(g38
S'\x00\x00\x00\x00\x00\x00\x1a@'
tRp947
sg52
g53
sg23
S'2'
sg18
F357.91590840928257
sg33
g34
sg51
g11
sg20
S'1'
sg65
g36
(g77
S'\x00\x00\x00\x00\x00\x00\x00\x00'
tRp948
sg44
g45
sg40
g41
sg25
F0.1204835525713861
sS'trials.thisIndex'
p949
g36
(g80
S'&\x00\x00\x00'
tRp950
sg26
V5
sS'trials.thisRepN'
p951
I0
sg66
Vhen
p952
sg63
V../experiment_stimuli/bw_bc_bl/Living_Things/Birds/hen_15.jpg
p953
sg21
F1.1326883644796908
sS'trials.thisTrialN'
p954
I78
sa(dp955
g31
g32
sg17
F360.92719630897045
sg24
I0
sg35
g39
sg14
F360.92252076696604
sg16
g36
(g70
S'\x01\x00\x00\x00'
tRp956
sg42
g43
sg46
g47
sg15
g113
sg22
F365.10226719640195
sg64
g159
sg62
g101
sg49
g50
sS'trials.thisN'
p957
I79
sg19
I1
sg27
g36
(g38
S'\x00\x00\x00\x00\x00\x00\x1a@'
tRp958
sg52
g53
sg23
S'3'
sg18
F362.16513140732422
sg33
g34
sg51
g11
sg20
S'1'
sg65
g36
(g77
S'\x00\x00\x00\x00\x00\x00\x00\x00'
tRp959
sg44
g45
sg40
g41
sg25
F0.17064125556498766
sS'trials.thisIndex'
p960
g36
(g80
S'\x07\x00\x00\x00'
tRp961
sg26
V5
sS'trials.thisRepN'
p962
I0
sg66
Vboat
p963
sg63
V../experiment_stimuli/bw_bc_bl/Nonliving_Things/Vehicles/boat_21.jpg
p964
sg21
F2.9165733698755503
sS'trials.thisTrialN'
p965
I79
sa(dp966
g31
g32
sg17
F367.02211749833077
sg24
I0
sg35
g39
sg14
F367.01576754776761
sg16
g36
(g70
S'\x02\x00\x00\x00'
tRp967
sg42
g43
sg46
g47
sg15
g113
sg22
F370.43383687036112
sg64
g207
sg62
g74
sg49
g50
sS'trials.thisN'
p968
I80
sg19
I0
sg27
g36
(g38
S'\x00\x00\x00\x00\x00\x00\x18@'
tRp969
sg52
g53
sg23
S'2'
sg18
F368.25837849266827
sg33
g34
sg51
g11
sg20
S'1'
sg65
g36
(g77
S'\x00\x00\x00\x00\x00\x00\x00\x00'
tRp970
sg44
g45
sg40
g41
sg25
F0.12048499658703804
sS'trials.thisIndex'
p971
g36
(g80
S'D\x00\x00\x00'
tRp972
sg26
V5
sS'trials.thisRepN'
p973
I0
sg66
Vrhino
p974
sg63
V../experiment_stimuli/bw_bc_bl/Living_Things/Animals/rhino_12.jpg
p975
sg21
F2.1549109695479274
sS'trials.thisTrialN'
p976
I80
sa(dp977
g31
g32
sg17
F372.29200486000627
sg24
I1
sg35
g39
sg14
F372.28723037568852
sg16
g36
(g70
S'\x01\x00\x00\x00'
tRp978
sg42
g43
sg46
g47
sg15
g72
sg22
F374.4625959051773
sg64
g207
sg62
g74
sg49
g50
sS'trials.thisN'
p979
I81
sg19
I1
sg27
g36
(g38
S'\x00\x00\x00\x00\x00\x00\x1e@'
tRp980
sg52
g53
sg23
S'1'
sg18
F373.5198118025437
sg33
g34
sg51
g11
sg20
S'1'
sg65
g36
(g77
S'\x00\x00\x00\x00\x00\x00\x00\x00'
tRp981
sg44
g45
sg40
g41
sg25
F0.21068120095878839
sS'trials.thisIndex'
p982
g36
(g80
S'\x01\x00\x00\x00'
tRp983
sg26
V5
sS'trials.thisRepN'
p984
I0
sg66
Varmadillo
p985
sg63
V../experiment_stimuli/bw_bc_bl/Living_Things/Animals/armadillo_7.jpg
p986
sg21
F0.9222406717017293
sS'trials.thisTrialN'
p987
I81
sa(dp988
g31
g32
sg17
F376.41101765912026
sg24
I0
sg35
g39
sg14
F376.40621193079278
sg16
g36
(g70
S'\x01\x00\x00\x00'
tRp989
sg42
g43
sg46
g47
sg15
g113
sg22
F378.71186777111143
sg64
g100
sg62
g101
sg49
g50
sS'trials.thisN'
p990
I82
sg19
I1
sg27
g36
(g38
S'\x00\x00\x00\x00\x00\x00\x1a@'
tRp991
sg52
g53
sg23
S'2'
sg18
F377.6588129689917
sg33
g34
sg51
g11
sg20
S'1'
sg65
g36
(g77
S'\x00\x00\x00\x00\x00\x00\x00\x00'
tRp992
sg44
g45
sg40
g41
sg25
F0.10043992614373565
sS'trials.thisIndex'
p993
g36
(g80
S'\x12\x00\x00\x00'
tRp994
sg26
V5
sS'trials.thisRepN'
p995
I0
sg66
Vcoking-pot
p996
sg63
V../experiment_stimuli/bw_bc_bl/Nonliving_Things/Kitchen_Uten/coking-pot_12.jpg
p997
sg21
F1.0324904760345817
sS'trials.thisTrialN'
p998
I82
sa(dp999
g31
g32
sg17
F380.54991624457762
sg24
I1
sg35
g39
sg14
F380.54518442507833
sg16
g36
(g70
S'\x01\x00\x00\x00'
tRp1000
sg42
g43
sg46
g47
sg15
g113
sg22
F382.57023078808561
sg64
g159
sg62
g101
sg49
g50
sS'trials.thisN'
p1001
I83
sg19
I0
sg27
g36
(g38
S'\x00\x00\x00\x00\x00\x00\x18@'
tRp1002
sg52
g53
sg23
S'1'
sg18
F381.79780945926905
sg33
g34
sg51
g11
sg20
S'2'
sg65
g36
(g77
S'\x00\x00\x00\x00\x00\x00\x00\x00'
tRp1003
sg44
g45
sg40
g41
sg25
F0.17065944336354733
sS'trials.thisIndex'
p1004
g36
(g80
S'\x0b\x00\x00\x00'
tRp1005
sg26
V5
sS'trials.thisRepN'
p1006
I0
sg66
Vcar
p1007
sg63
V../experiment_stimuli/bw_bc_bl/Nonliving_Things/Vehicles/car_17.jpg
p1008
sg21
F0.75185853708535433
sS'trials.thisTrialN'
p1009
I83
sa(dp1010
g31
g32
sg17
F384.4785532397218
sg24
I0
sg35
g39
sg14
F384.47371863992885
sg16
g36
(g70
S'\x02\x00\x00\x00'
tRp1011
sg42
g43
sg46
g47
sg15
g113
sg22
F387.04996052989736
sg64
g73
sg62
g74
sg49
g50
sS'trials.thisN'
p1012
I84
sg19
I0
sg27
g36
(g38
S'\x00\x00\x00\x00\x00\x00\x18@'
tRp1013
sg52
g53
sg23
S'2'
sg18
F385.72635268140584
sg33
g34
sg51
g11
sg20
S'1'
sg65
g36
(g77
S'\x00\x00\x00\x00\x00\x00\x00\x00'
tRp1014
sg44
g45
sg40
g41
sg25
F0.17067557852715254
sS'trials.thisIndex'
p1015
g36
(g80
S'-\x00\x00\x00'
tRp1016
sg26
V5
sS'trials.thisRepN'
p1017
I0
sg66
Vladybird
p1018
sg63
V../experiment_stimuli/bw_bc_bl/Living_Things/Insects/ladybird_6.jpg
p1019
sg21
F1.3030599211342633
sS'trials.thisTrialN'
p1020
I84
sa(dp1021
g31
g32
sg17
F388.95822220807895
sg24
I0
sg35
g39
sg14
F388.95346258860081
sg16
g36
(g70
S'\x02\x00\x00\x00'
tRp1022
sg42
g43
sg46
g47
sg15
g72
sg22
F390.8382396409288
sg64
g183
sg62
g101
sg49
g50
sS'trials.thisN'
p1023
I85
sg19
I1
sg27
g36
(g38
S'\x00\x00\x00\x00\x00\x00\x18@'
tRp1024
sg52
g53
sg23
S'2'
sg18
F390.20608909614384
sg33
g34
sg51
g11
sg20
S'2'
sg65
g36
(g77
S'\x00\x00\x00\x00\x00\x00\x00\x00'
tRp1025
sg44
g45
sg40
g41
sg25
F0.51134277461096644
sS'trials.thisIndex'
p1026
g36
(g80
S'\x1c\x00\x00\x00'
tRp1027
sg26
V5
sS'trials.thisRepN'
p1028
I0
sg66
Vfactory
p1029
sg63
V../experiment_stimuli/bw_bc_bl/Nonliving_Things/Buildings/factory_18.jpg
p1030
sg21
F0.61155962478369474
sS'trials.thisTrialN'
p1031
I85
sa(dp1032
g31
g32
sg17
F393.08719663508236
sg24
I1
sg35
g39
sg14
F393.08243726333603
sg16
g36
(g70
S'\x01\x00\x00\x00'
tRp1033
sg42
g43
sg46
g47
sg15
g72
sg22
F396.46042902488261
sg64
g88
sg62
g74
sg49
g50
sS'trials.thisN'
p1034
I86
sg19
I0
sg27
g36
(g38
S'\x00\x00\x00\x00\x00\x00\x1a@'
tRp1035
sg52
g53
sg23
S'1'
sg18
F394.3250423585996
sg33
g34
sg51
g11
sg20
S'2'
sg65
g36
(g77
S'\x00\x00\x00\x00\x00\x00\x00\x00'
tRp1036
sg44
g45
sg40
g41
sg25
F0.4612205526791513
sS'trials.thisIndex'
p1037
g36
(g80
S'P\x00\x00\x00'
tRp1038
sg26
V5
sS'trials.thisRepN'
p1039
I0
sg66
Vsperm-whale
p1040
sg63
V../experiment_stimuli/bw_bc_bl/Living_Things/Marine_creatures/sperm-whale_13.jpg
p1041
sg21
F2.1148016792722046
sS'trials.thisTrialN'
p1042
I86
sa(dp1043
g31
g32
sg17
F398.65928158629686
sg24
I0
sg35
g39
sg14
F398.65455451887101
sg16
g36
(g70
S'\x02\x00\x00\x00'
tRp1044
sg42
g43
sg46
g47
sg15
g113
sg22
F401.60160511313006
sg64
g88
sg62
g74
sg49
g50
sS'trials.thisN'
p1045
I87
sg19
I1
sg27
g36
(g38
S'\x00\x00\x00\x00\x00\x00\x18@'
tRp1046
sg52
g53
sg23
S'2'
sg18
F399.91721053374931
sg33
g34
sg51
g11
sg20
S'2'
sg65
g36
(g77
S'\x00\x00\x00\x00\x00\x00\x00\x00'
tRp1047
sg44
g45
sg40
g41
sg25
F0.26078476896509528
sS'trials.thisIndex'
p1048
g36
(g80
S'+\x00\x00\x00'
tRp1049
sg26
V5
sS'trials.thisRepN'
p1050
I0
sg66
Vkiller-whale
p1051
sg63
V../experiment_stimuli/bw_bc_bl/Living_Things/Marine_creatures/killer-whale_21.jpg
p1052
sg21
F1.6638464834541082
sS'trials.thisTrialN'
p1053
I87
sa(dp1054
g31
g32
sg17
F403.600025259424
sg24
I0
sg35
g39
sg14
F403.59529319964349
sg16
g36
(g70
S'\x02\x00\x00\x00'
tRp1055
sg42
g43
sg46
g47
sg15
g113
sg22
F405.8007301823236
sg64
g195
sg62
g74
sg49
g50
sS'trials.thisN'
p1056
I88
sg19
I1
sg27
g36
(g38
S'\x00\x00\x00\x00\x00\x00\x1a@'
tRp1057
sg52
g53
sg23
S'2'
sg18
F404.84792102733627
sg33
g34
sg51
g11
sg20
S'2'
sg65
g36
(g77
S'\x00\x00\x00\x00\x00\x00\x00\x00'
tRp1058
sg44
g45
sg40
g41
sg25
F0.37102639302611351
sS'trials.thisIndex'
p1059
g36
(g80
S'C\x00\x00\x00'
tRp1060
sg26
V5
sS'trials.thisRepN'
p1061
I0
sg66
Vraven
p1062
sg63
V../experiment_stimuli/bw_bc_bl/Living_Things/Birds/raven_3.jpg
p1063
sg21
F0.93225612631067634
sS'trials.thisTrialN'
p1064
I88
sa(dp1065
g31
g32
sg17
F407.91948067303747
sg24
I1
sg35
g39
sg14
F407.91468606516719
sg16
g36
(g70
S'\x01\x00\x00\x00'
tRp1066
sg42
g43
sg46
g47
sg15
g72
sg22
F409.76937306718901
sg64
g195
sg62
g74
sg49
g50
sS'trials.thisN'
p1067
I89
sg19
I0
sg27
g36
(g38
S'\x00\x00\x00\x00\x00\x00\x1e@'
tRp1068
sg52
g53
sg23
S'1'
sg18
F409.15728496108204
sg33
g34
sg51
g11
sg20
S'2'
sg65
g36
(g77
S'\x00\x00\x00\x00\x00\x00\x00\x00'
tRp1069
sg44
g45
sg40
g41
sg25
F0.22069951985031366
sS'trials.thisIndex'
p1070
g36
(g80
S',\x00\x00\x00'
tRp1071
sg26
V5
sS'trials.thisRepN'
p1072
I0
sg66
Vkiwi
p1073
sg63
V../experiment_stimuli/bw_bc_bl/Living_Things/Birds/kiwi_8.jpg
p1074
sg21
F0.59152179537340999
sS'trials.thisTrialN'
p1075
I89
sa(dp1076
g31
g32
sg17
F411.73781427461654
sg24
I0
sg35
g39
sg14
F411.73301046714187
sg16
g36
(g70
S'\x01\x00\x00\x00'
tRp1077
sg42
g43
sg46
g47
sg15
g113
sg22
F413.53754970617592
sg64
g159
sg62
g101
sg49
g50
sS'trials.thisN'
p1078
I90
sg19
I1
sg27
g36
(g38
S'\x00\x00\x00\x00\x00\x00\x1a@'
tRp1079
sg52
g53
sg23
S'3'
sg18
F413.00565272616223
sg33
g34
sg51
g11
sg20
S'1'
sg65
g36
(g77
S'\x00\x00\x00\x00\x00\x00\x00\x00'
tRp1080
sg44
g45
sg40
g41
sg25
F0.15061519294977188
sS'trials.thisIndex'
p1081
g36
(g80
S'L\x00\x00\x00'
tRp1082
sg26
V5
sS'trials.thisRepN'
p1083
I0
sg66
Vship
p1084
sg63
V../experiment_stimuli/bw_bc_bl/Nonliving_Things/Vehicles/ship_6.jpg
p1085
sg21
F0.50131551595404744
sS'trials.thisTrialN'
p1086
I90
sa(dp1087
g31
g32
sg17
F415.42585176462308
sg24
I0
sg35
g39
sg14
F415.42100049555302
sg16
g36
(g70
S'\x01\x00\x00\x00'
tRp1088
sg42
g43
sg46
g47
sg15
g113
sg22
F417.41601701779291
sg64
g183
sg62
g101
sg49
g50
sS'trials.thisN'
p1089
I91
sg19
I1
sg27
g36
(g38
S'\x00\x00\x00\x00\x00\x00\x1a@'
tRp1090
sg52
g53
sg23
S'2'
sg18
F416.67362434556708
sg33
g34
sg51
g11
sg20
S'1'
sg65
g36
(g77
S'\x00\x00\x00\x00\x00\x00\x00\x00'
tRp1091
sg44
g45
sg40
g41
sg25
F0.15059664053842425
sS'trials.thisIndex'
p1092
g36
(g80
S'\x11\x00\x00\x00'
tRp1093
sg26
V5
sS'trials.thisRepN'
p1094
I0
sg66
Vchurch
p1095
sg63
V../experiment_stimuli/bw_bc_bl/Nonliving_Things/Buildings/church_4.jpg
p1096
sg21
F0.72181436512619257
sS'trials.thisTrialN'
p1097
I91
sa(dp1098
g31
g32
sg17
F419.30430816253647
sg24
I1
sg35
g39
sg14
F419.299429228995
sg16
g36
(g70
S'\x01\x00\x00\x00'
tRp1099
sg42
g43
sg46
g47
sg15
g72
sg22
F424.19071149779484
sg64
g195
sg62
g74
sg49
g50
sS'trials.thisN'
p1100
I92
sg19
I0
sg27
g36
(g38
S'\x00\x00\x00\x00\x00\x00\x1a@'
tRp1101
sg52
g53
sg23
S'1'
sg18
F420.54203470377252
sg33
g34
sg51
g11
sg20
S'2'
sg65
g36
(g77
S'\x00\x00\x00\x00\x00\x00\x00\x00'
tRp1102
sg44
g45
sg40
g41
sg25
F0.33104794332757592
sS'trials.thisIndex'
p1103
g36
(g80
S'\x04\x00\x00\x00'
tRp1104
sg26
V5
sS'trials.thisRepN'
p1105
I0
sg66
Vbarn-owl
p1106
sg63
V../experiment_stimuli/bw_bc_bl/Living_Things/Birds/barn-owl_10.jpg
p1107
sg21
F3.6281200172379613
sS'trials.thisTrialN'
p1108
I92
sa(dp1109
g31
g32
sg17
F426.25937428465113
sg24
I0
sg35
g39
sg14
F426.25454896315932
sg16
g36
(g70
S'\x01\x00\x00\x00'
tRp1110
sg42
g43
sg46
g47
sg15
g72
sg22
F428.9711090051569
sg64
g195
sg62
g74
sg49
g50
sS'trials.thisN'
p1111
I93
sg19
I0
sg27
g36
(g38
S'\x00\x00\x00\x00\x00\x00\x18@'
tRp1112
sg52
g53
sg23
S'2'
sg18
F427.51719775190577
sg33
g34
sg51
g11
sg20
S'2'
sg65
g36
(g77
S'\x00\x00\x00\x00\x00\x00\x00\x00'
tRp1113
sg44
g45
sg40
g41
sg25
F0.26077898358926177
sS'trials.thisIndex'
p1114
g36
(g80
S'!\x00\x00\x00'
tRp1115
sg26
V5
sS'trials.thisRepN'
p1116
I0
sg66
Vgoldfinch
p1117
sg63
V../experiment_stimuli/bw_bc_bl/Living_Things/Birds/goldfinch_14.jpg
p1118
sg21
F1.4333406453952193
sS'trials.thisTrialN'
p1119
I93
sa(dp1120
g31
g32
sg17
F430.96960511663929
sg24
I0
sg35
g39
sg14
F430.96478540403768
sg16
g36
(g70
S'\x01\x00\x00\x00'
tRp1121
sg42
g43
sg46
g47
sg15
g72
sg22
F432.82947969855741
sg64
g195
sg62
g74
sg49
g50
sS'trials.thisN'
p1122
I94
sg19
I0
sg27
g36
(g38
S'\x00\x00\x00\x00\x00\x00\x1c@'
tRp1123
sg52
g53
sg23
S'2'
sg18
F432.2274605948478
sg33
g34
sg51
g11
sg20
S'2'
sg65
g36
(g77
S'\x00\x00\x00\x00\x00\x00\x00\x00'
tRp1124
sg44
g45
sg40
g41
sg25
F0.34095889516174793
sS'trials.thisIndex'
p1125
g36
(g80
S'=\x00\x00\x00'
tRp1126
sg26
V5
sS'trials.thisRepN'
p1127
I0
sg66
Vpenguin
p1128
sg63
V../experiment_stimuli/bw_bc_bl/Living_Things/Birds/penguin_26.jpg
p1129
sg21
F0.58148934552446008
sS'trials.thisTrialN'
p1130
I94
sa(dp1131
g31
g32
sg17
F434.90811845567077
sg24
I0
sg35
g39
sg14
F434.90334880584851
sg16
g36
(g70
S'\x01\x00\x00\x00'
tRp1132
sg42
g43
sg46
g47
sg15
g113
sg22
F437.23910903092474
sg64
g125
sg62
g101
sg49
g50
sS'trials.thisN'
p1133
I95
sg19
I1
sg27
g36
(g38
S'\x00\x00\x00\x00\x00\x00\x18@'
tRp1134
sg52
g53
sg23
S'2'
sg18
F436.14595817914233
sg33
g34
sg51
g11
sg20
S'1'
sg65
g36
(g77
S'\x00\x00\x00\x00\x00\x00\x00\x00'
tRp1135
sg44
g45
sg40
g41
sg25
F0.14052394265308976
sS'trials.thisIndex'
p1136
g36
(g80
S'Q\x00\x00\x00'
tRp1137
sg26
V5
sS'trials.thisRepN'
p1138
I0
sg66
Vtable
p1139
sg63
V../experiment_stimuli/bw_bc_bl/Nonliving_Things/Furniture/table_1.jpg
p1140
sg21
F1.0725797293707728
sS'trials.thisTrialN'
p1141
I95
sasS'loops'
p1142
(lp1143
g1
(cpsychopy.data
TrialHandler
p1144
g3
NtRp1145
(dp1146
S'origin'
p1147
NsS'thisTrial'
p1148
(lp1149
sS'_exp'
p1150
I97313040
sg10
S'trials'
p1151
sg6
I-1
sS'thisRepN'
p1152
I1
sg28
I01
sg29
g30
sS'data'
p1153
g1
(cpsychopy.data
DataHandler
p1154
c__builtin__
dict
p1155
(dp1156
g20
cnumpy.core.multiarray
_reconstruct
p1157
(cnumpy
ndarray
p1158
(I0
tS'b'
tRp1159
(I1
(I96
I1
tg37
(S'O4'
I0
I1
tRp1160
(I3
S'|'
NNNI-1
I-1
I63
tbI00
(lp1161
S'2'
aS'1'
aS'1'
aS'1'
aS'2'
aS'2'
aS'2'
aS'1'
aS'2'
aS'2'
aS'1'
aS'2'
aS'2'
aS'1'
aS'1'
aS'1'
aS'2'
aS'1'
aS'1'
aS'1'
aS'2'
aS'1'
aS'2'
aS'1'
aS'1'
aS'1'
aS'2'
aS'1'
aS'2'
aS'2'
aS'2'
aS'1'
aS'2'
aS'2'
aS'1'
aS'2'
aS'2'
aS'1'
aS'1'
aS'2'
aS'1'
aS'1'
aS'2'
aS'2'
aS'2'
aS'1'
aS'1'
aS'2'
aS'1'
aS'1'
aS'1'
aS'2'
aS'1'
aS'1'
aS'1'
aS'1'
aS'1'
aS'2'
aS'1'
aS'1'
aS'2'
aS'2'
aS'1'
aS'2'
aS'2'
aS'2'
aS'2'
aS'2'
aS'1'
aS'1'
aS'2'
aS'1'
aS'1'
aS'2'
aS'1'
aS'1'
aS'1'
aS'1'
aS'1'
aS'1'
aS'2'
aS'1'
aS'1'
aS'2'
aS'2'
aS'1'
aS'1'
aS'2'
aS'1'
aS'2'
aS'2'
aS'1'
aS'1'
aS'2'
aS'1'
aS'2'
atbsg17
cnumpy.ma.core
_mareconstruct
p1162
(cnumpy.ma.core
MaskedArray
p1163
g1158
(I0
tp1164
S'b'
tRp1165
(I1
(I96
I1
tg37
(S'f4'
I0
I1
tRp1166
(I3
S'<'
NNNI-1
I-1
I0
tbI00
S'\xff\xb8\x90B`%\xbaC\xbb[\xadA\xd26=C\xf4\xa6\xd1CD\xa3\x8cC\xb6B\xa5C\xaev\xb4C\xe1\xe8\xcdA\xf8\x0e\x84C$n\xc3BdF\xbeC\x1b9\x88B\xccK^C:C\x9fC\xe7q\x80B\x86\x8e\x9cC\x82\xb6\xcfC\x9c4\xbcC}\xc0\x97C\xf9=jC\x10\x1e\x0cC|RSC\xdf[(C\x1dIo@5\x15\x88C\xbea\xacC%\xc0DC\xa7z\xc2C\x93\x1d\x80C\xf9\xcb\x8eC\x80\xa54CE\x83fB3!\xd5Ck\xa6vC5m+Bo\xf3rC\xee\xa48C\xcbV\xb2C\x9dB\xaeC\x00\x18AC\x08\xdb\xa9C\xd4+ICcT\xc7C\xb2\xf5\xcbCA=\xc0CZ\x97\xf3A\x0c\xc7"C\xdb\xf4\x90C\x88?\x03C\xe4\x99\x1bC2\x9f\x9aB\xf0/\xf9Bj\x03\x86C\xe9;\nB!!\x8dA\xfb\'\x10C\xd3\xbf\xe6B\xb4\xdc\x95C\x1e\x1eCB\xc3\xad\xabB\x1c|\xd7C\x0b8\x1fC4\x83\x8aC\x12W\xa7C.\x0f\x07A\xbc\xb8[A\xce\xcc\xc9C\xd5\x82\xb7C\xfa?\xccB\x1e\xd7MC\x07a\xb4B#V\xa3C\xcd(\x82C\xdf\xbe\xdcB\x01\x1a\xa1Cq\xde\xcdC\x0e\x870C\x91\xe4\x93Cf\x9a|C)\x8b\xc4C=t\xd9C`\xe3\x07C\xec\xbbWC\xc3\xb2,C3}\xd4B\xf2\x97\xbbB\x99;oCR=\xb0C7*\x14C\xb7\xc2\x99C\xae \xf0B0\xa2\x1bB\x81\x1ffC\x81\xc3\x17C\xfc1UB'
S'\x00\x00\x00\x00\x00\x00\x00\x00\x00\x00\x00\x00\x00\x00\x00\x00\x00\x00\x00\x00\x00\x00\x00\x00\x00\x00\x00\x00\x00\x00\x00\x00\x00\x00\x00\x00\x00\x00\x00\x00\x00\x00\x00\x00\x00\x00\x00\x00\x00\x00\x00\x00\x00\x00\x00\x00\x00\x00\x00\x00\x00\x00\x00\x00\x00\x00\x00\x00\x00\x00\x00\x00\x00\x00\x00\x00\x00\x00\x00\x00\x00\x00\x00\x00\x00\x00\x00\x00\x00\x00\x00\x00\x00\x00\x00\x00'
NtbsS'ran'
p1167
g1162
(g1163
g1158
g1164
S'b'
tRp1168
(I1
(I96
I1
tg1166
I00
S'\x00\x00\x80?\x00\x00\x80?\x00\x00\x80?\x00\x00\x80?\x00\x00\x80?\x00\x00\x80?\x00\x00\x80?\x00\x00\x80?\x00\x00\x80?\x00\x00\x80?\x00\x00\x80?\x00\x00\x80?\x00\x00\x80?\x00\x00\x80?\x00\x00\x80?\x00\x00\x80?\x00\x00\x80?\x00\x00\x80?\x00\x00\x80?\x00\x00\x80?\x00\x00\x80?\x00\x00\x80?\x00\x00\x80?\x00\x00\x80?\x00\x00\x80?\x00\x00\x80?\x00\x00\x80?\x00\x00\x80?\x00\x00\x80?\x00\x00\x80?\x00\x00\x80?\x00\x00\x80?\x00\x00\x80?\x00\x00\x80?\x00\x00\x80?\x00\x00\x80?\x00\x00\x80?\x00\x00\x80?\x00\x00\x80?\x00\x00\x80?\x00\x00\x80?\x00\x00\x80?\x00\x00\x80?\x00\x00\x80?\x00\x00\x80?\x00\x00\x80?\x00\x00\x80?\x00\x00\x80?\x00\x00\x80?\x00\x00\x80?\x00\x00\x80?\x00\x00\x80?\x00\x00\x80?\x00\x00\x80?\x00\x00\x80?\x00\x00\x80?\x00\x00\x80?\x00\x00\x80?\x00\x00\x80?\x00\x00\x80?\x00\x00\x80?\x00\x00\x80?\x00\x00\x80?\x00\x00\x80?\x00\x00\x80?\x00\x00\x80?\x00\x00\x80?\x00\x00\x80?\x00\x00\x80?\x00\x00\x80?\x00\x00\x80?\x00\x00\x80?\x00\x00\x80?\x00\x00\x80?\x00\x00\x80?\x00\x00\x80?\x00\x00\x80?\x00\x00\x80?\x00\x00\x80?\x00\x00\x80?\x00\x00\x80?\x00\x00\x80?\x00\x00\x80?\x00\x00\x80?\x00\x00\x80?\x00\x00\x80?\x00\x00\x80?\x00\x00\x80?\x00\x00\x80?\x00\x00\x80?\x00\x00\x80?\x00\x00\x80?\x00\x00\x80?\x00\x00\x80?\x00\x00\x80?\x00\x00\x80?'
S'\x00\x00\x00\x00\x00\x00\x00\x00\x00\x00\x00\x00\x00\x00\x00\x00\x00\x00\x00\x00\x00\x00\x00\x00\x00\x00\x00\x00\x00\x00\x00\x00\x00\x00\x00\x00\x00\x00\x00\x00\x00\x00\x00\x00\x00\x00\x00\x00\x00\x00\x00\x00\x00\x00\x00\x00\x00\x00\x00\x00\x00\x00\x00\x00\x00\x00\x00\x00\x00\x00\x00\x00\x00\x00\x00\x00\x00\x00\x00\x00\x00\x00\x00\x00\x00\x00\x00\x00\x00\x00\x00\x00\x00\x00\x00\x00'
Ntbsg24
g1162
(g1163
g1158
g1164
S'b'
tRp1169
(I1
(I96
I1
tg1166
I00
S'\x00\x00\x00\x00\x00\x00\x80?\x00\x00\x00\x00\x00\x00\x00\x00\x00\x00\x80?\x00\x00\x00\x00\x00\x00\x00\x00\x00\x00\x00\x00\x00\x00\x00\x00\x00\x00\x00\x00\x00\x00\x00\x00\x00\x00\x80?\x00\x00\x00\x00\x00\x00\x80?\x00\x00\x00\x00\x00\x00\x80?\x00\x00\x80?\x00\x00\x00\x00\x00\x00\x00\x00\x00\x00\x00\x00\x00\x00\x00\x00\x00\x00\x00\x00\x00\x00\x00\x00\x00\x00\x00\x00\x00\x00\x00\x00\x00\x00\x80?\x00\x00\x80?\x00\x00\x80?\x00\x00\x00\x00\x00\x00\x00\x00\x00\x00\x00\x00\x00\x00\x00\x00\x00\x00\x80?\x00\x00\x00\x00\x00\x00\x00\x00\x00\x00\x00\x00\x00\x00\x00\x00\x00\x00\x00\x00\x00\x00\x00\x00\x00\x00\x00\x00\x00\x00\x80?\x00\x00\x00\x00\x00\x00\x00\x00\x00\x00\x00\x00\x00\x00\x80?\x00\x00\x00\x00\x00\x00\x80?\x00\x00\x80?\x00\x00\x00\x00\x00\x00\x00\x00\x00\x00\x80?\x00\x00\x80?\x00\x00\x00\x00\x00\x00\x00\x00\x00\x00\x00\x00\x00\x00\x80?\x00\x00\x00\x00\x00\x00\x80?\x00\x00\x00\x00\x00\x00\x00\x00\x00\x00\x80?\x00\x00\x00\x00\x00\x00\x00\x00\x00\x00\x80?\x00\x00\x80?\x00\x00\x00\x00\x00\x00\x00\x00\x00\x00\x00\x00\x00\x00\x00\x00\x00\x00\x00\x00\x00\x00\x80?\x00\x00\x00\x00\x00\x00\x00\x00\x00\x00\x80?\x00\x00\x00\x00\x00\x00\x00\x00\x00\x00\x00\x00\x00\x00\x00\x00\x00\x00\x00\x00\x00\x00\x00\x00\x00\x00\x80?\x00\x00\x00\x00\x00\x00\x80?\x00\x00\x00\x00\x00\x00\x80?\x00\x00\x00\x00\x00\x00\x00\x00\x00\x00\x80?\x00\x00\x00\x00\x00\x00\x80?\x00\x00\x00\x00\x00\x00\x00\x00\x00\x00\x80?\x00\x00\x00\x00\x00\x00\x00\x00\x00\x00\x00\x00'
S'\x00\x00\x00\x00\x00\x00\x00\x00\x00\x00\x00\x00\x00\x00\x00\x00\x00\x00\x00\x00\x00\x00\x00\x00\x00\x00\x00\x00\x00\x00\x00\x00\x00\x00\x00\x00\x00\x00\x00\x00\x00\x00\x00\x00\x00\x00\x00\x00\x00\x00\x00\x00\x00\x00\x00\x00\x00\x00\x00\x00\x00\x00\x00\x00\x00\x00\x00\x00\x00\x00\x00\x00\x00\x00\x00\x00\x00\x00\x00\x00\x00\x00\x00\x00\x00\x00\x00\x00\x00\x00\x00\x00\x00\x00\x00\x00'
Ntbsg14
g1162
(g1163
g1158
g1164
S'b'
tRp1170
(I1
(I96
I1
tg1166
I00
S'\xe0\xb5\x90B\xc4$\xbaC\xfeQ\xadA\x915=CT\xa6\xd1C{\xa2\x8cC\x1aB\xa5C\x15v\xb4C\xfa\xde\xcdAY\x0e\x84C\xb1k\xc3B\xc9E\xbeCC6\x88B\x89J^C\x9bB\x9fC`o\x80B\xe6\x8d\x9cC\xe3\xb5\xcfC\xff3\xbcC\xb4\xbf\x97C\xb4<jC\xce\x1c\x0cC;QSC\x99Z(Cc\xd3m@m\x14\x88C\xf2`\xacC\xe1\xbeDC\x0bz\xc2C\xca\x1c\x80C]\xcb\x8eC\x00\xa44C\'~fB\x95 \xd5C\xe4\xa4vC\x82g+B1\xf2rC\xab\xa38C/V\xb2C\xffA\xaeCr\x16ACk\xda\xa9CM*IC\xc8S\xc7C\x14\xf5\xcbC\xa3<\xc0C\x91\x8d\xf3A\x93\xc5"C>\xf4\x90CD>\x03C\x9f\x98\x1bC\xaa\x9c\x9aBr-\xf9B\xa2\x02\x86CQ6\nB\x1b\x17\x8dA\xbb&\x10C\xc9\xbc\xe6B\x18\xdc\x95C\x8a\x18CBG\xab\xabB~{\xd7C\xcb6\x1fC\x94\x82\x8aCvV\xa7C\x00\xfb\x06A\x1a\xa5[A3\xcc\xc9C\x05\x82\xb7Cg=\xccB\xdc\xd5MC3^\xb4B\x83U\xa3C,(\x82CW\xbc\xdcBc\x19\xa1C\xd3\xdd\xcdC\x8c\x850C\xf5\xe3\x93C\xd9\x98|C\x8d\x8a\xc4C\xa1s\xd9C!\xe2\x07C\x15\xbaWC\x7f\xb1,CNz\xd4Bj\x95\xbbB]:oC\xb1<\xb0C\xf6(\x14C\x1b\xc2\x99C*\x1e\xf0B)\x9c\x1bBA\x1efC\x02\xc2\x17C\xd6,UB'
S'\x00\x00\x00\x00\x00\x00\x00\x00\x00\x00\x00\x00\x00\x00\x00\x00\x00\x00\x00\x00\x00\x00\x00\x00\x00\x00\x00\x00\x00\x00\x00\x00\x00\x00\x00\x00\x00\x00\x00\x00\x00\x00\x00\x00\x00\x00\x00\x00\x00\x00\x00\x00\x00\x00\x00\x00\x00\x00\x00\x00\x00\x00\x00\x00\x00\x00\x00\x00\x00\x00\x00\x00\x00\x00\x00\x00\x00\x00\x00\x00\x00\x00\x00\x00\x00\x00\x00\x00\x00\x00\x00\x00\x00\x00\x00\x00'
Ntbsg16
g1157
(g1158
(I0
tS'b'
tRp1171
(I1
(I96
I1
tg1160
I00
(lp1172
g251
ag978
ag124
ag538
ag1099
ag758
ag879
ag956
ag136
ag714
ag306
ag1000
ag240
ag615
ag846
ag229
ag835
ag1088
ag989
ag813
ag637
ag405
ag593
ag482
ag71
ag736
ag912
ag560
ag1022
ag692
ag769
ag515
ag218
ag1110
ag670
ag182
ag659
ag526
ag945
ag923
ag549
ag901
ag571
ag1044
ag1066
ag1011
ag147
ag471
ag780
ag383
ag449
ag262
ag372
ag725
ag158
ag112
ag416
ag350
ag802
ag194
ag273
ag1121
ag460
ag747
ag890
ag87
ag99
ag1055
ag967
ag317
ag582
ag284
ag868
ag703
ag339
ag857
ag1077
ag504
ag791
ag681
ag1033
ag1132
ag394
ag604
ag493
ag328
ag295
ag648
ag934
ag427
ag824
ag361
ag170
ag626
ag438
ag206
atbsg15
g1157
(g1158
(I0
tS'b'
tRp1173
(I1
(I96
I1
tg1160
I00
(lp1174
g113
ag72
ag113
ag113
ag72
ag72
ag72
ag113
ag72
ag72
ag113
ag113
ag72
ag113
ag113
ag72
ag72
ag113
ag113
ag113
ag72
ag113
ag72
ag72
ag72
ag113
ag72
ag72
ag72
ag72
ag72
ag113
ag72
ag72
ag113
ag72
ag72
ag72
ag113
ag72
ag72
ag113
ag113
ag113
ag72
ag113
ag113
ag72
ag113
ag113
ag113
ag113
ag113
ag72
ag113
ag113
ag113
ag72
ag113
ag72
ag72
ag72
ag113
ag113
ag72
ag72
ag72
ag113
ag113
ag113
ag72
ag113
ag72
ag72
ag113
ag113
ag113
ag113
ag113
ag113
ag72
ag113
ag72
ag72
ag72
ag72
ag113
ag72
ag113
ag72
ag72
ag113
ag113
ag72
ag113
ag113
atbsg22
g1162
(g1163
g1158
g1164
S'b'
tRp1175
(I1
(I96
I1
tg1166
I00
S"\x15\xce\x96B6;\xbbC\x9f\xa4\xbeA\xfc;?Ci\x18\xd4C\xff\xd8\x8dC\xf6^\xa6C\x17\x8d\xb6C\x83\xc3\xe3Ag\x15\x85C6~\xc8B\xfdH\xbfC\x11\x06\x8dBSZcC\x96)\xa0C\x08N\x84B\xb5\x00\x9eC@\xb5\xd0C\x1e[\xbdC\x97\xd3\x98C\xd96mCEL\x0eC{\xdaUC\x06\xd7*C@\xfb\xd2@\xd2\x80\x89C\xe9P\xadCO;GCKk\xc3C\xd3,\x81C\xe6\xf8\x8fC\x0f\xc46Cz\xb2yBM|\xd6C\xad\xb6zC\xc4=;B\xdb\xc7tC\xb6K;C\xd9\x88\xb3CuO\xafC\xc2\xcaBC\xf7B\xabC+\xdfKC\x01\xcd\xc8C{\xe2\xccCe\x86\xc1C\x9d\x84\x02B\xd5\x87&C/\xeb\x92C\xac\x07\x06C\xacB\x1dC/\x1a\xa8B\xac^\x01C\xc6 \x87CL2\x14B\x8c\xc5\x9dA\xefK\x12C>i\xecB1\xd1\x96Cs\xaeMB/\xcd\xb0B,j\xd8C\xcf\xf2 Cg\xb1\x8bC\xc6\xe6\xa8C\xfd\x10<Ay\x15{A~\xe6\xcaC\x887\xb9C_\xc5\xd0B\xef.QC\x9c\xe5\xb7B\x05Q\xa4C\xd5\x1f\x83Cz\xf8\xe2B'c\xa2C\xce\xc4\xceC]\xc42C\x9a\xe4\x94C\xfeY~C\xef:\xc6C\x9b\x9e\xdaC>+\nC\xc3\x01\\C\xe9\xb7.C\x94\x11\xd9B\xc2\xb6\xbfB\x98\x12qC\x19e\xb1C\x8b\xe7\x15C\xb6\x8e\x9bC\x84x\xf5B\xa5\xab#B\xb7MhC\x98\xbb\x19C\x18p^B"
S'\x00\x00\x00\x00\x00\x00\x00\x00\x00\x00\x00\x00\x00\x00\x00\x00\x00\x00\x00\x00\x00\x00\x00\x00\x00\x00\x00\x00\x00\x00\x00\x00\x00\x00\x00\x00\x00\x00\x00\x00\x00\x00\x00\x00\x00\x00\x00\x00\x00\x00\x00\x00\x00\x00\x00\x00\x00\x00\x00\x00\x00\x00\x00\x00\x00\x00\x00\x00\x00\x00\x00\x00\x00\x00\x00\x00\x00\x00\x00\x00\x00\x00\x00\x00\x00\x00\x00\x00\x00\x00\x00\x00\x00\x00\x00\x00'
Ntbsg26
g1157
(g1158
(I0
tS'b'
tRp1176
(I1
(I96
I1
tg1160
I00
(lp1177
g36
(g80
S'\x02\x00\x00\x00'
tRp1178
aI1
ag36
(g80
S'\x04\x00\x00\x00'
tRp1179
ag36
(g80
S'\x01\x00\x00\x00'
tRp1180
ag36
(g80
S'\x02\x00\x00\x00'
tRp1181
ag36
(g80
S'\x04\x00\x00\x00'
tRp1182
aI1
aI1
ag36
(g80
S'\x02\x00\x00\x00'
tRp1183
ag36
(g80
S'\x02\x00\x00\x00'
tRp1184
ag36
(g80
S'\x01\x00\x00\x00'
tRp1185
ag36
(g80
S'\x02\x00\x00\x00'
tRp1186
ag36
(g80
S'\x04\x00\x00\x00'
tRp1187
ag36
(g80
S'\x02\x00\x00\x00'
tRp1188
ag36
(g80
S'\x04\x00\x00\x00'
tRp1189
ag36
(g80
S'\x03\x00\x00\x00'
tRp1190
aI1
ag36
(g80
S'\x03\x00\x00\x00'
tRp1191
ag36
(g80
S'\x03\x00\x00\x00'
tRp1192
aI1
ag36
(g80
S'\x02\x00\x00\x00'
tRp1193
ag36
(g80
S'\x03\x00\x00\x00'
tRp1194
ag36
(g80
S'\x05\x00\x00\x00'
tRp1195
ag36
(g80
S'\x03\x00\x00\x00'
tRp1196
aS'5.0'
p1197
aI1
ag36
(g80
S'\x01\x00\x00\x00'
tRp1198
ag36
(g80
S'\x02\x00\x00\x00'
tRp1199
ag36
(g80
S'\x02\x00\x00\x00'
tRp1200
aI1
ag36
(g80
S'\x01\x00\x00\x00'
tRp1201
ag36
(g80
S'\x04\x00\x00\x00'
tRp1202
ag36
(g80
S'\x01\x00\x00\x00'
tRp1203
ag36
(g80
S'\x04\x00\x00\x00'
tRp1204
ag36
(g80
S'\x01\x00\x00\x00'
tRp1205
ag36
(g80
S'\x04\x00\x00\x00'
tRp1206
ag36
(g80
S'\x04\x00\x00\x00'
tRp1207
ag36
(g80
S'\x02\x00\x00\x00'
tRp1208
aI1
ag36
(g80
S'\x03\x00\x00\x00'
tRp1209
aI1
ag36
(g80
S'\x03\x00\x00\x00'
tRp1210
ag36
(g80
S'\x05\x00\x00\x00'
tRp1211
ag36
(g80
S'\x04\x00\x00\x00'
tRp1212
ag36
(g80
S'\x02\x00\x00\x00'
tRp1213
ag36
(g80
S'\x03\x00\x00\x00'
tRp1214
ag36
(g80
S'\x01\x00\x00\x00'
tRp1215
aI1
aI1
aI1
ag36
(g80
S'\x01\x00\x00\x00'
tRp1216
aI1
aI1
aI1
ag36
(g80
S'\x02\x00\x00\x00'
tRp1217
ag36
(g80
S'\x01\x00\x00\x00'
tRp1218
ag36
(g80
S'\x02\x00\x00\x00'
tRp1219
aI1
aI1
ag36
(g80
S'\x03\x00\x00\x00'
tRp1220
ag36
(g80
S'\x03\x00\x00\x00'
tRp1221
ag36
(g80
S'\x03\x00\x00\x00'
tRp1222
ag36
(g80
S'\x03\x00\x00\x00'
tRp1223
ag36
(g80
S'\x03\x00\x00\x00'
tRp1224
aI1
ag36
(g80
S'\x03\x00\x00\x00'
tRp1225
ag36
(g80
S'\x02\x00\x00\x00'
tRp1226
ag36
(g80
S'\x03\x00\x00\x00'
tRp1227
aI1
aI1
ag36
(g80
S'\x04\x00\x00\x00'
tRp1228
ag36
(g80
S'\x05\x00\x00\x00'
tRp1229
aI1
aI1
aI1
ag36
(g80
S'\x02\x00\x00\x00'
tRp1230
ag36
(g80
S'\x05\x00\x00\x00'
tRp1231
ag36
(g80
S'\x05\x00\x00\x00'
tRp1232
aI1
aI1
ag36
(g80
S'\x01\x00\x00\x00'
tRp1233
ag36
(g80
S'\x02\x00\x00\x00'
tRp1234
aI1
ag36
(g80
S'\x03\x00\x00\x00'
tRp1235
ag36
(g80
S'\x02\x00\x00\x00'
tRp1236
aI1
ag36
(g80
S'\x03\x00\x00\x00'
tRp1237
ag36
(g80
S'\x01\x00\x00\x00'
tRp1238
aI1
ag36
(g80
S'\x01\x00\x00\x00'
tRp1239
aI1
ag36
(g80
S'\x03\x00\x00\x00'
tRp1240
ag36
(g80
S'\x01\x00\x00\x00'
tRp1241
ag36
(g80
S'\x04\x00\x00\x00'
tRp1242
ag36
(g80
S'\x02\x00\x00\x00'
tRp1243
ag36
(g80
S'\x02\x00\x00\x00'
tRp1244
atbsg21
g1162
(g1163
g1158
g1164
S'b'
tRp1245
(I1
(I96
I1
tg1166
I00
S'\xa2]\xe4?\xf7\x17l?C\xd4a?z\x9bE?\x1e3h@\x19\xfc\x90?e\xebx?#\xa9:@2\x99\xbc?X-H?r:\xa4?\xcdy@?\x86\xb3\x8f?w\x1as@\xdew\x05?yd)?Uh\xd2?\xd4\xc88?\xa6(\x84?\xf5\xf7f?\xd0b\xdb?\xcb\x86i?J\x18\x9f?\x1b?\x9b?\xee$\xc8?F\xfe\xcb?\x8c\x8e\x1c?\'\x88\x9c?,\x8f\x1c?\xe1C_?\xc3"\x8d?\xf8\x90W?\x94\x11c@\xb5w\xb7?\x06?4@HD+@\x17*\r?PV\xb2?\xef\xfb\x90? \x00U?j\x06\xe7>%\x94\xc5?\x18\xe7\xb4?\xec\xf8\xd4?\xf9m\x17?\xab\xca\xa6?L\xa8n?D] @\xa9D+@\xc1K\xc4?E~\xd2>\x7f\xbe\xaf@\x02%a@f\xebx?\xd0\xcf\x9d?C\x00U?3\xd5a?\xe4\xb5\xca?\x08\xd2&?\x84\xc5\xaf?\xb9\x82\xa5?|\xdc\x14?\x07)\xec>Q\xda\x8b?\x9c\xe9\xef?\xdc\xdb\x02@\x92\xa63?V\xa8n?\x10\xea\t@G\x97\x81?\x9b$\x04@\xdcG\xf1>\xf7\xa53?\xb6\x85.?\xfc\xa0\xee?\xf2\x12\xa8?7V\x00?!\xbfs?\xb2\xea=?\x8cW\x00?\xe9X\x07@KJ\x89?\x10(\x84?\x8eo@@\xa9\nC?\x14k\x85?@\xbdJ?\x99m\x17?<\x01\x88?\xba\x8c\xfb>(\x1a\x16@\x93\x9e\xb3?\x06\x11C?\x06\xf6f?A86?\xab\xb8\x86?'
S'\x00\x00\x00\x00\x00\x00\x00\x00\x00\x00\x00\x00\x00\x00\x00\x00\x00\x00\x00\x00\x00\x00\x00\x00\x00\x00\x00\x00\x00\x00\x00\x00\x00\x00\x00\x00\x00\x00\x00\x00\x00\x00\x00\x00\x00\x00\x00\x00\x00\x00\x00\x00\x00\x00\x00\x00\x00\x00\x00\x00\x00\x00\x00\x00\x00\x00\x00\x00\x00\x00\x00\x00\x00\x00\x00\x00\x00\x00\x00\x00\x00\x00\x00\x00\x00\x00\x00\x00\x00\x00\x00\x00\x00\x00\x00\x00'
NtbsS'order'
p1246
g1162
(g1163
g1158
g1164
S'b'
tRp1247
(I1
(I96
I1
tg1166
I00
S'\x00\x00pA\x00\x00\xa2B\x00\x00\x80@\x00\x00$B\x00\x00\xb8B\x00\x00tB\x00\x00\x90B\x00\x00\x9eB\x00\x00\xa0@\x00\x00dB\x00\x00\xa0A\x00\x00\xa6B\x00\x00`A\x00\x00@B\x00\x00\x8aB\x00\x00PA\x00\x00\x88B\x00\x00\xb6B\x00\x00\xa4B\x00\x00\x84B\x00\x00HB\x00\x00\xe8A\x00\x008B\x00\x00\x10B\x00\x00\x00\x00\x00\x00lB\x00\x00\x96B\x00\x00,B\x00\x00\xaaB\x00\x00\\B\x00\x00xB\x00\x00\x1cB\x00\x00@A\x00\x00\xbaB\x00\x00TB\x00\x00\x10A\x00\x00PB\x00\x00 B\x00\x00\x9cB\x00\x00\x98B\x00\x00(B\x00\x00\x94B\x00\x000B\x00\x00\xaeB\x00\x00\xb2B\x00\x00\xa8B\x00\x00\xc0@\x00\x00\x0cB\x00\x00|B\x00\x00\xd8A\x00\x00\x04B\x00\x00\x80A\x00\x00\xd0A\x00\x00hB\x00\x00\xe0@\x00\x00@@\x00\x00\xf0A\x00\x00\xc0A\x00\x00\x82B\x00\x00 A\x00\x00\x88A\x00\x00\xbcB\x00\x00\x08B\x00\x00pB\x00\x00\x92B\x00\x00\x80?\x00\x00\x00@\x00\x00\xb0B\x00\x00\xa0B\x00\x00\xa8A\x00\x004B\x00\x00\x90A\x00\x00\x8eB\x00\x00`B\x00\x00\xb8A\x00\x00\x8cB\x00\x00\xb4B\x00\x00\x18B\x00\x00\x80B\x00\x00XB\x00\x00\xacB\x00\x00\xbeB\x00\x00\xe0A\x00\x00<B\x00\x00\x14B\x00\x00\xb0A\x00\x00\x98A\x00\x00LB\x00\x00\x9aB\x00\x00\xf8A\x00\x00\x86B\x00\x00\xc8A\x00\x00\x00A\x00\x00DB\x00\x00\x00B\x00\x000A'
S'\x00\x00\x00\x00\x00\x00\x00\x00\x00\x00\x00\x00\x00\x00\x00\x00\x00\x00\x00\x00\x00\x00\x00\x00\x00\x00\x00\x00\x00\x00\x00\x00\x00\x00\x00\x00\x00\x00\x00\x00\x00\x00\x00\x00\x00\x00\x00\x00\x00\x00\x00\x00\x00\x00\x00\x00\x00\x00\x00\x00\x00\x00\x00\x00\x00\x00\x00\x00\x00\x00\x00\x00\x00\x00\x00\x00\x00\x00\x00\x00\x00\x00\x00\x00\x00\x00\x00\x00\x00\x00\x00\x00\x00\x00\x00\x00'
Ntbsg19
g1162
(g1163
g1158
g1164
S'b'
tRp1248
(I1
(I96
I1
tg1166
I00
S'\x00\x00\x00\x00\x00\x00\x80?\x00\x00\x80?\x00\x00\x80?\x00\x00\x00\x00\x00\x00\x80?\x00\x00\x80?\x00\x00\x80?\x00\x00\x80?\x00\x00\x80?\x00\x00\x00\x00\x00\x00\x00\x00\x00\x00\x80?\x00\x00\x00\x00\x00\x00\x80?\x00\x00\x00\x00\x00\x00\x00\x00\x00\x00\x80?\x00\x00\x80?\x00\x00\x80?\x00\x00\x00\x00\x00\x00\x00\x00\x00\x00\x80?\x00\x00\x80?\x00\x00\x80?\x00\x00\x80?\x00\x00\x00\x00\x00\x00\x80?\x00\x00\x80?\x00\x00\x80?\x00\x00\x80?\x00\x00\x80?\x00\x00\x00\x00\x00\x00\x00\x00\x00\x00\x00\x00\x00\x00\x80?\x00\x00\x80?\x00\x00\x00\x00\x00\x00\x00\x00\x00\x00\x00\x00\x00\x00\x80?\x00\x00\x80?\x00\x00\x80?\x00\x00\x80?\x00\x00\x00\x00\x00\x00\x00\x00\x00\x00\x80?\x00\x00\x80?\x00\x00\x00\x00\x00\x00\x00\x00\x00\x00\x00\x00\x00\x00\x80?\x00\x00\x00\x00\x00\x00\x00\x00\x00\x00\x80?\x00\x00\x00\x00\x00\x00\x00\x00\x00\x00\x00\x00\x00\x00\x80?\x00\x00\x80?\x00\x00\x00\x00\x00\x00\x00\x00\x00\x00\x80?\x00\x00\x80?\x00\x00\x80?\x00\x00\x00\x00\x00\x00\x80?\x00\x00\x80?\x00\x00\x00\x00\x00\x00\x80?\x00\x00\x00\x00\x00\x00\x80?\x00\x00\x00\x00\x00\x00\x00\x00\x00\x00\x00\x00\x00\x00\x00\x00\x00\x00\x80?\x00\x00\x80?\x00\x00\x80?\x00\x00\x00\x00\x00\x00\x00\x00\x00\x00\x80?\x00\x00\x80?\x00\x00\x80?\x00\x00\x00\x00\x00\x00\x80?\x00\x00\x80?\x00\x00\x80?\x00\x00\x80?\x00\x00\x80?\x00\x00\x00\x00\x00\x00\x80?\x00\x00\x80?\x00\x00\x80?\x00\x00\x00\x00\x00\x00\x80?'
S'\x00\x00\x00\x00\x00\x00\x00\x00\x00\x00\x00\x00\x00\x00\x00\x00\x00\x00\x00\x00\x00\x00\x00\x00\x00\x00\x00\x00\x00\x00\x00\x00\x00\x00\x00\x00\x00\x00\x00\x00\x00\x00\x00\x00\x00\x00\x00\x00\x00\x00\x00\x00\x00\x00\x00\x00\x00\x00\x00\x00\x00\x00\x00\x00\x00\x00\x00\x00\x00\x00\x00\x00\x00\x00\x00\x00\x00\x00\x00\x00\x00\x00\x00\x00\x00\x00\x00\x00\x00\x00\x00\x00\x00\x00\x00\x00'
Ntbsg27
g1157
(g1158
(I0
tS'b'
tRp1249
(I1
(I96
I1
tg1160
I00
(lp1250
g253
ag980
ag127
ag540
ag1101
ag760
ag881
ag958
ag138
ag716
ag308
ag1002
ag242
ag617
ag848
ag231
ag837
ag1090
ag991
ag815
ag639
ag407
ag595
ag484
ag76
ag738
ag914
ag562
ag1024
ag694
ag771
ag517
ag220
ag1112
ag672
ag185
ag661
ag529
ag947
ag925
ag551
ag903
ag573
ag1046
ag1068
ag1013
ag149
ag473
ag782
ag385
ag451
ag264
ag374
ag727
ag161
ag115
ag418
ag352
ag804
ag197
ag275
ag1123
ag462
ag749
ag892
ag90
ag103
ag1057
ag969
ag319
ag584
ag286
ag870
ag705
ag341
ag859
ag1079
ag506
ag793
ag683
ag1035
ag1134
ag396
ag606
ag495
ag330
ag297
ag650
ag936
ag429
ag826
ag363
ag173
ag628
ag440
ag209
atbsg23
g1157
(g1158
(I0
tS'b'
tRp1251
(I1
(I96
I1
tg1160
I00
(lp1252
S'3'
aS'1'
aS'3'
aS'2'
aS'1'
aS'3'
aS'2'
aS'3'
aS'2'
aS'3'
aS'3'
aS'1'
aS'3'
aS'1'
aS'3'
aS'1'
aS'1'
aS'2'
aS'2'
aS'2'
aS'2'
aS'2'
aS'3'
aS'2'
aS'3'
aS'1'
aS'1'
aS'1'
aS'2'
aS'2'
aS'2'
aS'3'
aS'1'
aS'2'
aS'2'
aS'2'
aS'3'
aS'2'
aS'2'
aS'3'
aS'1'
aS'3'
aS'2'
aS'2'
aS'1'
aS'2'
aS'1'
aS'1'
aS'2'
aS'2'
aS'1'
aS'1'
aS'2'
aS'2'
aS'2'
aS'1'
aS'2'
aS'1'
aS'3'
aS'2'
aS'1'
aS'2'
aS'3'
aS'1'
aS'1'
aS'2'
aS'2'
aS'2'
aS'2'
aS'2'
aS'1'
aS'3'
aS'2'
aS'1'
aS'2'
aS'3'
aS'3'
aS'2'
aS'3'
aS'2'
aS'1'
aS'2'
aS'1'
aS'2'
aS'1'
aS'2'
aS'3'
aS'1'
aS'2'
aS'1'
aS'2'
aS'3'
aS'1'
aS'3'
aS'2'
aS'2'
atbsg18
g1162
(g1163
g1158
g1164
S'b'
tRp1253
(I1
(I96
I1
tg1166
I00
S'\x162\x93B\x89\xc2\xbaC\xe4k\xb7A\x1bq>CaE\xd2CbE\x8dC\xe0\xdf\xa5C#\x15\xb5C\xd4\xcf\xd7A\xae\xae\x84C\xc6\xe2\xc5B\x1f\xe6\xbeC\xbd\xbc\x8aB\xa5\x88_C9\xe4\x9fC\xb9\xf0\x82B\xab+\x9dC9V\xd0CT\xd4\xbcCz]\x98C\xd0zkC{]\rC\x08\x97TCF\x9b)Cp\xf5\x9f@2\xb2\x88C\x00\x00\xadC\xfc\xfcECa\x1a\xc3C\x90\xba\x80C"i\x8fC<\xe75CQlkB4\xc2\xd5Cn\xe0wCxt0Bn5tC\xc5\xe19C<\xf5\xb2CT\xe2\xaeC\xfcQBC\xc1z\xaaC\x1apJCg\xf5\xc7C"\x94\xccC\xf9\xdc\xc0C\xe1i\xfdA\x1e\x01$C\x04\x92\x91C\xcfy\x04C)\xd4\x1cC\xbe\x13\x9dB\x88\xa4\xfbB\xb0\xa1\x86C\xbe.\x0fBu\xf3\x96A\xd6d\x11C\xde3\xe9B\xddy\x96C9\x1bHB\x9f,\xaeB\x1d\x1d\xd8Cww C\xea"\x8bC;\xf4\xa7C\xc9\x05\x1bA\xaf\x86oA\x89l\xcaC\x13!\xb8C|\xb4\xceB\x19\x19OC\xcd\xe9\xb6B\x91\xf4\xa3C\xf0\xc5\x82Cl3\xdfBq\xb8\xa1C\xb9\x80\xceCY\xcb1C\x03\x83\x94Cb\xd4}C\x9b)\xc5C\xaf\x12\xdaC\xac\x1d\tC\xc1\xfaXC\x9a\xef-Cc\xf1\xd6B\xc1\x16\xbeB\xe7upCw\xda\xb0C\x80d\x15C\xe0_\x9aC\x83\x9f\xf2BT\x8a B~agC\x1c\x00\x19CC%ZB'
S'\x00\x00\x00\x00\x00\x00\x00\x00\x00\x00\x00\x00\x00\x00\x00\x00\x00\x00\x00\x00\x00\x00\x00\x00\x00\x00\x00\x00\x00\x00\x00\x00\x00\x00\x00\x00\x00\x00\x00\x00\x00\x00\x00\x00\x00\x00\x00\x00\x00\x00\x00\x00\x00\x00\x00\x00\x00\x00\x00\x00\x00\x00\x00\x00\x00\x00\x00\x00\x00\x00\x00\x00\x00\x00\x00\x00\x00\x00\x00\x00\x00\x00\x00\x00\x00\x00\x00\x00\x00\x00\x00\x00\x00\x00\x00\x00'
Ntbsg25
g1162
(g1163
g1158
g1164
S'b'
tRp1254
(I1
(I96
I1
tg1166
I00
S'\xba\xac.>\xd0\xbcW>`\xc0.>r\xd8\xf6=\x1e\x7f\xa9>6k$>\x87wM>\x95\xbc.>\x06\x86v>x\xc4\xf6=\xfe\xf1\x0f>Y\xc1.>7;\xe2=\xbe\'\x84?3\xf3\x0f>\xa5\xfda>\xf8,H?\x016\x1a>s\xb3\xcd=\xfe\xa1\x05>\xe3\xcb\x8f>\xa8\xc1\xf6=\xaf\xe7\x0f>\xa2\xc1\xf6=\xb8:\xe2=g\xc7\x8f>\xe15\x1a>\x9c~M>\\\xe7\x02?\x90Bl>fCl>{\xf3\x0f> \x95v=\xd3\x84\x85>\x84+\x1a>\xbb@l>\xfb\xa2\x05>\xa7\xf38>\x15\xc0\xf6=y\xbf\xf6=\x97\xd6a>\xb2K\x00?OEl>\x95\x85\x85>\x0e\xffa>\x94\xc5.>T6C>\x059\xb9=\xfa\xbbW>\xa3\xc0\xf6=\x82\xffa>\xe6*N=\xbd\xe5\x0f>\xc0\xbc.>\x89\xc1\xf6=\x8d\xbbW>\x1a\xa3\x05>\t\xbf\xf6=\'\xb0\x05>|\xea\x0f>9\x1eN=*\x92\xae>\xc74\xb9=L6\x1a>\xf2\xc0.>\xff\x84v>\r\xc2W>,\xf7\xbd>\xd6\xc0\xf6=l"\xf8=w\\\xcd>8:\xe2=.6\x1a>\n\xa2\x05>\x92.\x1a>\xa45\x1a>\xde:\x1a>\xd9\xf2\x0f>\xcd\x86M>\xf8\xe5\x0f>\x1a%\xec>\x82\xe5\x0f>\xea\xc0W>\xd4)\r?\xcc\x1d\x90=\xd1\xbe\xcd=\xec\xbc\xf6=|\xeb\x0f>\x98(\x1a>x\xc0\xf6=\x7f\x85\x85>\xc8\xc0\xf6=AzM>SyM>\r\xbb\x05>]\xc8\x8f>'
S'\x00\x00\x00\x00\x00\x00\x00\x00\x00\x00\x00\x00\x00\x00\x00\x00\x00\x00\x00\x00\x00\x00\x00\x00\x00\x00\x00\x00\x00\x00\x00\x00\x00\x00\x00\x00\x00\x00\x00\x00\x00\x00\x00\x00\x00\x00\x00\x00\x00\x00\x00\x00\x00\x00\x00\x00\x00\x00\x00\x00\x00\x00\x00\x00\x00\x00\x00\x00\x00\x00\x00\x00\x00\x00\x00\x00\x00\x00\x00\x00\x00\x00\x00\x00\x00\x00\x00\x00\x00\x00\x00\x00\x00\x00\x00\x00'
NtbstRp1255
(dp1256
S'isNumeric'
p1257
(dp1258
g23
I00
sg20
I00
sg17
I01
sg1167
I01
sg22
I01
sg24
I01
sg14
I01
sg18
I01
sg16
I00
sg19
I01
sg26
I00
sg27
I00
sg15
I00
sg21
I01
sg1246
I01
sg25
I01
ssg1151
g1145
sS'dataTypes'
p1259
(lp1260
g1167
ag1246
ag14
ag15
ag16
ag17
ag18
ag19
ag20
ag21
ag22
ag23
ag24
ag25
ag26
ag27
asS'dataShape'
p1261
(lp1262
I96
aI1
asbsS'method'
p1263
S'random'
p1264
sS'sequenceIndices'
p1265
g1157
(g1158
(I0
tS'b'
tRp1266
(I1
(I96
I1
tg80
I01
S'\x18\x00\x00\x00A\x00\x00\x00B\x00\x00\x007\x00\x00\x00\x02\x00\x00\x00\x08\x00\x00\x00.\x00\x00\x006\x00\x00\x00\\\x00\x00\x00#\x00\x00\x00;\x00\x00\x00_\x00\x00\x00 \x00\x00\x00\x0f\x00\x00\x00\x0c\x00\x00\x00\x00\x00\x00\x003\x00\x00\x00<\x00\x00\x00G\x00\x00\x00V\x00\x00\x00\n\x00\x00\x00E\x00\x00\x00U\x00\x00\x00J\x00\x00\x009\x00\x00\x00[\x00\x00\x004\x00\x00\x001\x00\x00\x00R\x00\x00\x00\x15\x00\x00\x008\x00\x00\x00Y\x00\x00\x00^\x00\x00\x002\x00\x00\x00>\x00\x00\x00/\x00\x00\x00\x17\x00\x00\x00T\x00\x00\x00M\x00\x00\x00\x1f\x00\x00\x00%\x00\x00\x00\x03\x00\x00\x00(\x00\x00\x00\x1b\x00\x00\x00*\x00\x00\x00F\x00\x00\x00\x16\x00\x00\x00S\x00\x00\x00\r\x00\x00\x00]\x00\x00\x00\x14\x00\x00\x00W\x00\x00\x00$\x00\x00\x00"\x00\x00\x00O\x00\x00\x00\x1d\x00\x00\x00I\x00\x00\x00\t\x00\x00\x005\x00\x00\x00\x19\x00\x00\x00?\x00\x00\x00\x05\x00\x00\x00\x1e\x00\x00\x000\x00\x00\x00N\x00\x00\x00:\x00\x00\x00\x13\x00\x00\x00Z\x00\x00\x00\x10\x00\x00\x00\x0e\x00\x00\x00K\x00\x00\x00H\x00\x00\x00\x06\x00\x00\x00@\x00\x00\x00)\x00\x00\x00\x1a\x00\x00\x00\'\x00\x00\x00X\x00\x00\x00&\x00\x00\x00\x07\x00\x00\x00D\x00\x00\x00\x01\x00\x00\x00\x12\x00\x00\x00\x0b\x00\x00\x00-\x00\x00\x00\x1c\x00\x00\x00P\x00\x00\x00+\x00\x00\x00C\x00\x00\x00,\x00\x00\x00L\x00\x00\x00\x11\x00\x00\x00\x04\x00\x00\x00!\x00\x00\x00=\x00\x00\x00Q\x00\x00\x00'
tbsS'finished'
p1267
I01
sS'nReps'
p1268
I1
sS'nRemaining'
p1269
I-1
sS'trialList'
p1270
(lp1271
g1
(cpsychopy.data
TrialType
p1272
g1155
(dp1273
g62
g101
sg63
g259
sg64
g125
sg65
g254
sg66
g258
stRp1274
ag1
(g1272
g1155
(dp1275
g62
g74
sg63
g986
sg64
g207
sg65
g981
sg66
g985
stRp1276
ag1
(g1272
g1155
(dp1277
g62
g101
sg63
g133
sg64
g125
sg65
g128
sg66
g132
stRp1278
ag1
(g1272
g1155
(dp1279
g62
g101
sg63
g546
sg64
g527
sg65
g541
sg66
g545
stRp1280
ag1
(g1272
g1155
(dp1281
g62
g74
sg63
g1107
sg64
g195
sg65
g1102
sg66
g1106
stRp1282
ag1
(g1272
g1155
(dp1283
g62
g101
sg63
g766
sg64
g125
sg65
g761
sg66
g765
stRp1284
ag1
(g1272
g1155
(dp1285
g62
g101
sg63
g887
sg64
g125
sg65
g882
sg66
g886
stRp1286
ag1
(g1272
g1155
(dp1287
g62
g101
sg63
g964
sg64
g159
sg65
g959
sg66
g963
stRp1288
ag1
(g1272
g1155
(dp1289
g62
g101
sg63
g144
sg64
g125
sg65
g139
sg66
g143
stRp1290
ag1
(g1272
g1155
(dp1291
g62
g101
sg63
g722
sg64
g159
sg65
g717
sg66
g721
stRp1292
ag1
(g1272
g1155
(dp1293
g62
g74
sg63
g314
sg64
g73
sg65
g309
sg66
g313
stRp1294
ag1
(g1272
g1155
(dp1295
g62
g101
sg63
g1008
sg64
g159
sg65
g1003
sg66
g1007
stRp1296
ag1
(g1272
g1155
(dp1297
g62
g101
sg63
g248
sg64
g183
sg65
g243
sg66
g247
stRp1298
ag1
(g1272
g1155
(dp1299
g62
g74
sg63
g623
sg64
g207
sg65
g618
sg66
g622
stRp1300
ag1
(g1272
g1155
(dp1301
g62
g101
sg63
g854
sg64
g183
sg65
g849
sg66
g853
stRp1302
ag1
(g1272
g1155
(dp1303
g62
g101
sg63
g237
sg64
g125
sg65
g232
sg66
g236
stRp1304
ag1
(g1272
g1155
(dp1305
g62
g74
sg63
g843
sg64
g207
sg65
g838
sg66
g842
stRp1306
ag1
(g1272
g1155
(dp1307
g62
g101
sg63
g1096
sg64
g183
sg65
g1091
sg66
g1095
stRp1308
ag1
(g1272
g1155
(dp1309
g62
g101
sg63
g997
sg64
g100
sg65
g992
sg66
g996
stRp1310
ag1
(g1272
g1155
(dp1311
g62
g101
sg63
g821
sg64
g125
sg65
g816
sg66
g820
stRp1312
ag1
(g1272
g1155
(dp1313
g62
g74
sg63
g645
sg64
g207
sg65
g640
sg66
g644
stRp1314
ag1
(g1272
g1155
(dp1315
g62
g74
sg63
g413
sg64
g88
sg65
g408
sg66
g412
stRp1316
ag1
(g1272
g1155
(dp1317
g62
g101
sg63
g601
sg64
g100
sg65
g596
sg66
g600
stRp1318
ag1
(g1272
g1155
(dp1319
g62
g74
sg63
g490
sg64
g88
sg65
g485
sg66
g489
stRp1320
ag1
(g1272
g1155
(dp1321
g62
g74
sg63
g84
sg64
g73
sg65
g78
sg66
g83
stRp1322
ag1
(g1272
g1155
(dp1323
g62
g101
sg63
g744
sg64
g171
sg65
g739
sg66
g743
stRp1324
ag1
(g1272
g1155
(dp1325
g62
g74
sg63
g920
sg64
g195
sg65
g915
sg66
g919
stRp1326
ag1
(g1272
g1155
(dp1327
g62
g74
sg63
g568
sg64
g207
sg65
g563
sg66
g567
stRp1328
ag1
(g1272
g1155
(dp1329
g62
g101
sg63
g1030
sg64
g183
sg65
g1025
sg66
g1029
stRp1330
ag1
(g1272
g1155
(dp1331
g62
g101
sg63
g700
sg64
g125
sg65
g695
sg66
g699
stRp1332
ag1
(g1272
g1155
(dp1333
g62
g101
sg63
g777
sg64
g100
sg65
g772
sg66
g776
stRp1334
ag1
(g1272
g1155
(dp1335
g62
g101
sg63
g523
sg64
g100
sg65
g518
sg66
g522
stRp1336
ag1
(g1272
g1155
(dp1337
g62
g74
sg63
g226
sg64
g207
sg65
g221
sg66
g225
stRp1338
ag1
(g1272
g1155
(dp1339
g62
g74
sg63
g1118
sg64
g195
sg65
g1113
sg66
g1117
stRp1340
ag1
(g1272
g1155
(dp1341
g62
g74
sg63
g678
sg64
g195
sg65
g673
sg66
g677
stRp1342
ag1
(g1272
g1155
(dp1343
g62
g101
sg63
g191
sg64
g183
sg65
g186
sg66
g190
stRp1344
ag1
(g1272
g1155
(dp1345
g62
g101
sg63
g667
sg64
g171
sg65
g662
sg66
g666
stRp1346
ag1
(g1272
g1155
(dp1347
g62
g101
sg63
g535
sg64
g527
sg65
g530
sg66
g534
stRp1348
ag1
(g1272
g1155
(dp1349
g62
g74
sg63
g953
sg64
g195
sg65
g948
sg66
g952
stRp1350
ag1
(g1272
g1155
(dp1351
g62
g74
sg63
g931
sg64
g207
sg65
g926
sg66
g930
stRp1352
ag1
(g1272
g1155
(dp1353
g62
g74
sg63
g557
sg64
g207
sg65
g552
sg66
g556
stRp1354
ag1
(g1272
g1155
(dp1355
g62
g101
sg63
g909
sg64
g183
sg65
g904
sg66
g908
stRp1356
ag1
(g1272
g1155
(dp1357
g62
g74
sg63
g579
sg64
g195
sg65
g574
sg66
g578
stRp1358
ag1
(g1272
g1155
(dp1359
g62
g74
sg63
g1052
sg64
g88
sg65
g1047
sg66
g1051
stRp1360
ag1
(g1272
g1155
(dp1361
g62
g74
sg63
g1074
sg64
g195
sg65
g1069
sg66
g1073
stRp1362
ag1
(g1272
g1155
(dp1363
g62
g74
sg63
g1019
sg64
g73
sg65
g1014
sg66
g1018
stRp1364
ag1
(g1272
g1155
(dp1365
g62
g101
sg63
g155
sg64
g125
sg65
g150
sg66
g154
stRp1366
ag1
(g1272
g1155
(dp1367
g62
g101
sg63
g479
sg64
g125
sg65
g474
sg66
g478
stRp1368
ag1
(g1272
g1155
(dp1369
g62
g74
sg63
g788
sg64
g207
sg65
g783
sg66
g787
stRp1370
ag1
(g1272
g1155
(dp1371
g62
g74
sg63
g391
sg64
g88
sg65
g386
sg66
g390
stRp1372
ag1
(g1272
g1155
(dp1373
g62
g74
sg63
g457
sg64
g207
sg65
g452
sg66
g456
stRp1374
ag1
(g1272
g1155
(dp1375
g62
g74
sg63
g270
sg64
g195
sg65
g265
sg66
g269
stRp1376
ag1
(g1272
g1155
(dp1377
g62
g74
sg63
g380
sg64
g88
sg65
g375
sg66
g379
stRp1378
ag1
(g1272
g1155
(dp1379
g62
g101
sg63
g733
sg64
g183
sg65
g728
sg66
g732
stRp1380
ag1
(g1272
g1155
(dp1381
g62
g101
sg63
g167
sg64
g159
sg65
g162
sg66
g166
stRp1382
ag1
(g1272
g1155
(dp1383
g62
g74
sg63
g121
sg64
g88
sg65
g116
sg66
g120
stRp1384
ag1
(g1272
g1155
(dp1385
g62
g74
sg63
g424
sg64
g195
sg65
g419
sg66
g423
stRp1386
ag1
(g1272
g1155
(dp1387
g62
g74
sg63
g358
sg64
g195
sg65
g353
sg66
g357
stRp1388
ag1
(g1272
g1155
(dp1389
g62
g101
sg63
g810
sg64
g183
sg65
g805
sg66
g809
stRp1390
ag1
(g1272
g1155
(dp1391
g62
g74
sg63
g203
sg64
g195
sg65
g198
sg66
g202
stRp1392
ag1
(g1272
g1155
(dp1393
g62
g74
sg63
g281
sg64
g195
sg65
g276
sg66
g280
stRp1394
ag1
(g1272
g1155
(dp1395
g62
g74
sg63
g1129
sg64
g195
sg65
g1124
sg66
g1128
stRp1396
ag1
(g1272
g1155
(dp1397
g62
g101
sg63
g468
sg64
g171
sg65
g463
sg66
g467
stRp1398
ag1
(g1272
g1155
(dp1399
g62
g74
sg63
g755
sg64
g195
sg65
g750
sg66
g754
stRp1400
ag1
(g1272
g1155
(dp1401
g62
g101
sg63
g898
sg64
g159
sg65
g893
sg66
g897
stRp1402
ag1
(g1272
g1155
(dp1403
g62
g74
sg63
g96
sg64
g88
sg65
g91
sg66
g95
stRp1404
ag1
(g1272
g1155
(dp1405
g62
g101
sg63
g109
sg64
g100
sg65
g104
sg66
g108
stRp1406
ag1
(g1272
g1155
(dp1407
g62
g74
sg63
g1063
sg64
g195
sg65
g1058
sg66
g1062
stRp1408
ag1
(g1272
g1155
(dp1409
g62
g74
sg63
g975
sg64
g207
sg65
g970
sg66
g974
stRp1410
ag1
(g1272
g1155
(dp1411
g62
g101
sg63
g325
sg64
g125
sg65
g320
sg66
g324
stRp1412
ag1
(g1272
g1155
(dp1413
g62
g74
sg63
g590
sg64
g195
sg65
g585
sg66
g589
stRp1414
ag1
(g1272
g1155
(dp1415
g62
g101
sg63
g292
sg64
g100
sg65
g287
sg66
g291
stRp1416
ag1
(g1272
g1155
(dp1417
g62
g101
sg63
g876
sg64
g171
sg65
g871
sg66
g875
stRp1418
ag1
(g1272
g1155
(dp1419
g62
g74
sg63
g711
sg64
g73
sg65
g706
sg66
g710
stRp1420
ag1
(g1272
g1155
(dp1421
g62
g74
sg63
g347
sg64
g195
sg65
g342
sg66
g346
stRp1422
ag1
(g1272
g1155
(dp1423
g62
g74
sg63
g865
sg64
g88
sg65
g860
sg66
g864
stRp1424
ag1
(g1272
g1155
(dp1425
g62
g101
sg63
g1085
sg64
g159
sg65
g1080
sg66
g1084
stRp1426
ag1
(g1272
g1155
(dp1427
g62
g101
sg63
g512
sg64
g100
sg65
g507
sg66
g511
stRp1428
ag1
(g1272
g1155
(dp1429
g62
g101
sg63
g799
sg64
g125
sg65
g794
sg66
g798
stRp1430
ag1
(g1272
g1155
(dp1431
g62
g74
sg63
g689
sg64
g195
sg65
g684
sg66
g688
stRp1432
ag1
(g1272
g1155
(dp1433
g62
g74
sg63
g1041
sg64
g88
sg65
g1036
sg66
g1040
stRp1434
ag1
(g1272
g1155
(dp1435
g62
g101
sg63
g1140
sg64
g125
sg65
g1135
sg66
g1139
stRp1436
ag1
(g1272
g1155
(dp1437
g62
g74
sg63
g402
sg64
g207
sg65
g397
sg66
g401
stRp1438
ag1
(g1272
g1155
(dp1439
g62
g101
sg63
g612
sg64
g100
sg65
g607
sg66
g611
stRp1440
ag1
(g1272
g1155
(dp1441
g62
g74
sg63
g501
sg64
g207
sg65
g496
sg66
g500
stRp1442
ag1
(g1272
g1155
(dp1443
g62
g74
sg63
g336
sg64
g195
sg65
g331
sg66
g335
stRp1444
ag1
(g1272
g1155
(dp1445
g62
g101
sg63
g303
sg64
g159
sg65
g298
sg66
g302
stRp1446
ag1
(g1272
g1155
(dp1447
g62
g101
sg63
g656
sg64
g159
sg65
g651
sg66
g655
stRp1448
ag1
(g1272
g1155
(dp1449
g62
g101
sg63
g942
sg64
g171
sg65
g937
sg66
g941
stRp1450
ag1
(g1272
g1155
(dp1451
g62
g101
sg63
g435
sg64
g171
sg65
g430
sg66
g434
stRp1452
ag1
(g1272
g1155
(dp1453
g62
g74
sg63
g832
sg64
g207
sg65
g827
sg66
g831
stRp1454
ag1
(g1272
g1155
(dp1455
g62
g101
sg63
g369
sg64
g159
sg65
g364
sg66
g368
stRp1456
ag1
(g1272
g1155
(dp1457
g62
g101
sg63
g179
sg64
g171
sg65
g174
sg66
g178
stRp1458
ag1
(g1272
g1155
(dp1459
g62
g101
sg63
g634
sg64
g125
sg65
g629
sg66
g633
stRp1460
ag1
(g1272
g1155
(dp1461
g62
g74
sg63
g446
sg64
g88
sg65
g441
sg66
g445
stRp1462
ag1
(g1272
g1155
(dp1463
g62
g74
sg63
g215
sg64
g207
sg65
g210
sg66
g214
stRp1464
asS'seed'
p1465
NsS'thisIndex'
p1466
g1137
sS'thisN'
p1467
I96
sS'thisTrialN'
p1468
I0
sS'nTotal'
p1469
I96
sS'_warnUseOfNext'
p1470
I01
sbasS'savePickle'
p1471
I00
sb.