ccopy_reg
_reconstructor
p1
(cpsychopy.data
ExperimentHandler
p2
c__builtin__
object
p3
NtRp4
(dp5
S'originPath'
p6
NsS'dataFileName'
p7
VC:\u005cDocuments and Settings\u005cExperimental user\u005cMy Documents\u005cconsciousness\u005cuncon_feat\u005cexperiment_scripts\u005cdata/leyre_Experiment_EEG_version_2019_may_13_1557
p8
sS'runtimeInfo'
p9
NsS'name'
p10
VExperiment_EEG_version
p11
sS'dataNames'
p12
(lp13
S'image_onset_time'
p14
aS'response_window'
p15
aS'correctAns'
p16
aS'probe_onset'
p17
aS'discrim_resptime'
p18
aS'response.corr'
p19
aS'response.keys'
p20
aS'response.rt'
p21
aS'visible_resptime'
p22
aS'visible.keys'
p23
aS'visible.corr'
p24
aS'visible.rt'
p25
aS'probeFrames'
p26
aS'jitter2'
p27
asS'autoLog'
p28
I01
sS'extraInfo'
p29
(dp30
Vn_square
p31
V32
p32
sVexperiment_color
p33
Vbw
p34
sS'frameRate'
p35
cnumpy.core.multiarray
scalar
p36
(cnumpy
dtype
p37
(S'f8'
I0
I1
tRp38
(I3
S'<'
NNNI-1
I-1
I0
tbS'\xfd\x8a\xf6\xc2,\xf2X@'
tRp39
sS'date'
p40
V2019_may_13_1557
p41
sVsession
p42
V002
p43
sVimage_size
p44
V256
p45
sVpremask_dur
p46
V20
p47
sVprobeFrames
p48
V5
sVparticipant
p49
Vleyre
p50
sS'expName'
p51
g11
sVpostmask_dur
p52
V20
p53
ssS'loopsUnfinished'
p54
(lp55
sS'saveWideText'
p56
I00
sS'thisEntry'
p57
(dp58
sS'version'
p59
S''
sS'_paramNamesSoFar'
p60
(lp61
S'category'
p62
aS'probe_path'
p63
aS'subcategory'
p64
aS'fixation_duration'
p65
aS'label'
p66
asS'entries'
p67
(lp68
(dp69
g31
g32
sg17
F3.7382065950077958
sg24
I1
sg35
g39
sg14
F3.7163233179599047
sg16
g36
(g37
(S'i4'
I0
I1
tRp70
(I3
S'<'
NNNI-1
I-1
I0
tbS'\x01\x00\x00\x00'
tRp71
sg42
g43
sg46
g47
sg15
S'nV_V'
p72
sg22
F5.6113573701004498
sg64
VFurniture
p73
sg62
VNonliving_Things
p74
sg49
g50
sS'trials.thisN'
p75
I0
sg19
I1
sg27
g36
(g38
S'\x00\x00\x00\x00\x00\x00\x18@'
tRp76
sg52
g53
sg23
S'1'
sg18
F4.9990054292138666
sg33
g34
sg51
g11
sg20
S'1'
sg65
g36
(g37
(S'i8'
I0
I1
tRp77
(I3
S'<'
NNNI-1
I-1
I0
tbS'\x00\x00\x00\x00\x00\x00\x00\x00'
tRp78
sg44
g45
sg40
g41
sg25
F0.31074466241989285
sS'trials.thisIndex'
p79
g36
(g37
(S'i4'
I0
I1
tRp80
(I3
S'<'
NNNI-1
I-1
I0
tbS'E\x00\x00\x00'
tRp81
sg26
V5
sS'trials.thisRepN'
p82
I0
sg66
Vrocking-chair
p83
sg63
V../experiment_stimuli/bw_bc_bl/Nonliving_Things/Furniture/rocking-chair_2.jpg
p84
sg21
F0.58150027750525624
sS'trials.thisTrialN'
p85
I0
sa(dp86
g31
g32
sg17
F7.6599193323636428
sg24
I0
sg35
g39
sg14
F7.6548700473504141
sg16
g36
(g70
S'\x01\x00\x00\x00'
tRp87
sg42
g43
sg46
g47
sg15
g72
sg22
F9.3791023952653632
sg64
VMusical_Inst
p88
sg62
g74
sg49
g50
sS'trials.thisN'
p89
I1
sg19
I1
sg27
g36
(g38
S'\x00\x00\x00\x00\x00\x00\x18@'
tRp90
sg52
g53
sg23
S'2'
sg18
F8.9375662561506033
sg33
g34
sg51
g11
sg20
S'1'
sg65
g36
(g77
S'\x00\x00\x00\x00\x00\x00\x00\x00'
tRp91
sg44
g45
sg40
g41
sg25
F0.29085337230935693
sS'trials.thisIndex'
p92
g36
(g80
S'Y\x00\x00\x00'
tRp93
sg26
V5
sS'trials.thisRepN'
p94
I0
sg66
Vtuba
p95
sg63
V../experiment_stimuli/bw_bc_bl/Nonliving_Things/Musical_Inst/tuba_8.jpg
p96
sg21
F0.42098265868844464
sS'trials.thisTrialN'
p97
I1
sa(dp98
g31
g32
sg17
F11.407949970627669
sg24
I0
sg35
g39
sg14
F11.403020116442349
sg16
g36
(g70
S'\x02\x00\x00\x00'
tRp99
sg42
g43
sg46
g47
sg15
g72
sg22
F13.488186347472947
sg64
VBirds
p100
sg62
VLiving_Things
p101
sg49
g50
sS'trials.thisN'
p102
I2
sg19
I1
sg27
g36
(g38
S'\x00\x00\x00\x00\x00\x00\x1c@'
tRp103
sg52
g53
sg23
S'3'
sg18
F12.675695021171123
sg33
g34
sg51
g11
sg20
S'2'
sg65
g36
(g77
S'\x00\x00\x00\x00\x00\x00\x00\x00'
tRp104
sg44
g45
sg40
g41
sg25
F0.29087688325671479
sS'trials.thisIndex'
p105
g36
(g80
S'U\x00\x00\x00'
tRp106
sg26
V5
sS'trials.thisRepN'
p107
I0
sg66
Vtoucan
p108
sg63
V../experiment_stimuli/bw_bc_bl/Living_Things/Birds/toucan_3.jpg
p109
sg21
F0.79194473725510761
sS'trials.thisTrialN'
p110
I2
sa(dp111
g31
g32
sg17
F15.516873128246516
sg24
I1
sg35
g39
sg14
F15.511951935535762
sg16
g36
(g70
S'\x02\x00\x00\x00'
tRp112
sg42
g43
sg46
g47
sg15
g72
sg22
F17.356591479911003
sg64
g100
sg62
g101
sg49
g50
sS'trials.thisN'
p113
I3
sg19
I0
sg27
g36
(g38
S'\x00\x00\x00\x00\x00\x00\x18@'
tRp114
sg52
g53
sg23
S'1'
sg18
F16.764577263151295
sg33
g34
sg51
g11
sg20
S'1'
sg65
g36
(g77
S'\x00\x00\x00\x00\x00\x00\x00\x00'
tRp115
sg44
g45
sg40
g41
sg25
F0.36102634080452845
sS'trials.thisIndex'
p116
g36
(g80
S'!\x00\x00\x00'
tRp117
sg26
V5
sS'trials.thisRepN'
p118
I0
sg66
Vgoldfinch
p119
sg63
V../experiment_stimuli/bw_bc_bl/Living_Things/Birds/goldfinch_7.jpg
p120
sg21
F0.57147390191676095
sS'trials.thisTrialN'
p121
I3
sa(dp122
g31
g32
sg17
F19.456315423711203
sg24
I0
sg35
g39
sg14
F19.450524311163463
sg16
g36
(g70
S'\x01\x00\x00\x00'
tRp123
sg42
g43
sg46
g47
sg15
S'V_nV'
p124
sg22
F21.064650980290025
sg64
VMarine_creatures
p125
sg62
g101
sg49
g50
sS'trials.thisN'
p126
I4
sg19
I1
sg27
g36
(g38
S'\x00\x00\x00\x00\x00\x00\x18@'
tRp127
sg52
g53
sg23
S'2'
sg18
F20.733203264535405
sg33
g34
sg51
g11
sg20
S'1'
sg65
g36
(g77
S'\x00\x00\x00\x00\x00\x00\x00\x00'
tRp128
sg44
g45
sg40
g41
sg25
F0.30087462690426037
sS'trials.thisIndex'
p129
g36
(g80
S'A\x00\x00\x00'
tRp130
sg26
V5
sS'trials.thisRepN'
p131
I0
sg66
Vpomfret
p132
sg63
V../experiment_stimuli/bw_bc_bl/Living_Things/Marine_creatures/pomfret_14.jpg
p133
sg21
F0.31090549082728103
sS'trials.thisTrialN'
p134
I4
sa(dp135
g31
g32
sg17
F23.103268419392407
sg24
I0
sg35
g39
sg14
F23.098455206491053
sg16
g36
(g70
S'\x02\x00\x00\x00'
tRp136
sg42
g43
sg46
g47
sg15
g72
sg22
F24.722491861204617
sg64
g125
sg62
g101
sg49
g50
sS'trials.thisN'
p137
I5
sg19
I0
sg27
g36
(g38
S'\x00\x00\x00\x00\x00\x00\x1c@'
tRp138
sg52
g53
sg23
S'2'
sg18
F24.371109284518752
sg33
g34
sg51
g11
sg20
S'1'
sg65
g36
(g77
S'\x00\x00\x00\x00\x00\x00\x00\x00'
tRp139
sg44
g45
sg40
g41
sg25
F0.3209432270959951
sS'trials.thisIndex'
p140
g36
(g80
S'\x17\x00\x00\x00'
tRp141
sg26
V5
sS'trials.thisRepN'
p142
I0
sg66
Vdolphin
p143
sg63
V../experiment_stimuli/bw_bc_bl/Living_Things/Marine_creatures/dolphin_17.jpg
p144
sg21
F0.33078788308193907
sS'trials.thisTrialN'
p145
I5
sa(dp146
g31
g32
sg17
F26.781294729385991
sg24
I0
sg35
g39
sg14
F26.776433532300871
sg16
g36
(g70
S'\x01\x00\x00\x00'
tRp147
sg42
g43
sg46
g47
sg15
g124
sg22
F28.420645341626368
sg64
g125
sg62
g101
sg49
g50
sS'trials.thisN'
p148
I6
sg19
I0
sg27
g36
(g38
S'\x00\x00\x00\x00\x00\x00\x1a@'
tRp149
sg52
g53
sg23
S'2'
sg18
F28.039097339787986
sg33
g34
sg51
g11
sg20
S'2'
sg65
g36
(g77
S'\x00\x00\x00\x00\x00\x00\x00\x00'
tRp150
sg44
g45
sg40
g41
sg25
F0.28083463216898963
sS'trials.thisIndex'
p151
g36
(g80
S'P\x00\x00\x00'
tRp152
sg26
V5
sS'trials.thisRepN'
p153
I0
sg66
Vsperm-whale
p154
sg63
V../experiment_stimuli/bw_bc_bl/Living_Things/Marine_creatures/sperm-whale_3.jpg
p155
sg21
F0.36100658564828336
sS'trials.thisTrialN'
p156
I6
sa(dp157
g31
g32
sg17
F30.43930564582115
sg24
I0
sg35
g39
sg14
F30.434389573347289
sg16
g36
(g70
S'\x01\x00\x00\x00'
tRp158
sg42
g43
sg46
g47
sg15
g72
sg22
F32.359199473343324
sg64
VKitchen_Uten
p159
sg62
g74
sg49
g50
sS'trials.thisN'
p160
I7
sg19
I1
sg27
g36
(g38
S'\x00\x00\x00\x00\x00\x00\x18@'
tRp161
sg52
g53
sg23
S'3'
sg18
F31.687014024879318
sg33
g34
sg51
g11
sg20
S'1'
sg65
g36
(g77
S'\x00\x00\x00\x00\x00\x00\x00\x00'
tRp162
sg44
g45
sg40
g41
sg25
F0.32093668187735602
sS'trials.thisIndex'
p163
g36
(g80
S'\x12\x00\x00\x00'
tRp164
sg26
V5
sS'trials.thisRepN'
p165
I0
sg66
Vcoking-pot
p166
sg63
V../experiment_stimuli/bw_bc_bl/Nonliving_Things/Kitchen_Uten/coking-pot_19.jpg
p167
sg21
F0.65164103201823309
sS'trials.thisTrialN'
p168
I7
sa(dp169
g31
g32
sg17
F34.417915936792269
sg24
I1
sg35
g39
sg14
F34.413032946526073
sg16
g36
(g70
S'\x01\x00\x00\x00'
tRp170
sg42
g43
sg46
g47
sg15
g72
sg22
F35.987128436740022
sg64
VBuildings
p171
sg62
g74
sg49
g50
sS'trials.thisN'
p172
I8
sg19
I1
sg27
g36
(g38
S'\x00\x00\x00\x00\x00\x00\x18@'
tRp173
sg52
g53
sg23
S'1'
sg18
F35.645615854067728
sg33
g34
sg51
g11
sg20
S'1'
sg65
g36
(g77
S'\x00\x00\x00\x00\x00\x00\x00\x00'
tRp174
sg44
g45
sg40
g41
sg25
F0.27080122695770115
sS'trials.thisIndex'
p175
g36
(g80
S'#\x00\x00\x00'
tRp176
sg26
V5
sS'trials.thisRepN'
p177
I0
sg66
Vgranary
p178
sg63
V../experiment_stimuli/bw_bc_bl/Nonliving_Things/Buildings/granary_12.jpg
p179
sg21
F0.32091736636357382
sS'trials.thisTrialN'
p180
I8
sa(dp181
g31
g32
sg17
F37.995667096460238
sg24
I1
sg35
g39
sg14
F37.990825364831835
sg16
g36
(g70
S'\x02\x00\x00\x00'
tRp182
sg42
g43
sg46
g47
sg15
g124
sg22
F39.564867081760895
sg64
g171
sg62
g74
sg49
g50
sS'trials.thisN'
p183
I9
sg19
I1
sg27
g36
(g38
S'\x00\x00\x00\x00\x00\x00\x18@'
tRp184
sg52
g53
sg23
S'1'
sg18
F39.24343491072068
sg33
g34
sg51
g11
sg20
S'2'
sg65
g36
(g77
S'\x00\x00\x00\x00\x00\x00\x00\x00'
tRp185
sg44
g45
sg40
g41
sg25
F0.30087611207272857
sS'trials.thisIndex'
p186
g36
(g80
S'\x0e\x00\x00\x00'
tRp187
sg26
V5
sS'trials.thisRepN'
p188
I0
sg66
Vcathedral
p189
sg63
V../experiment_stimuli/bw_bc_bl/Nonliving_Things/Buildings/cathedral_13.jpg
p190
sg21
F0.30088084883755073
sS'trials.thisTrialN'
p191
I9
sa(dp192
g31
g32
sg17
F41.604133255896159
sg24
I0
sg35
g39
sg14
F41.598668420803733
sg16
g36
(g70
S'\x01\x00\x00\x00'
tRp193
sg42
g43
sg46
g47
sg15
g72
sg22
F43.182733072899282
sg64
g171
sg62
g74
sg49
g50
sS'trials.thisN'
p194
I10
sg19
I1
sg27
g36
(g38
S'\x00\x00\x00\x00\x00\x00\x1c@'
tRp195
sg52
g53
sg23
S'2'
sg18
F42.86130098067224
sg33
g34
sg51
g11
sg20
S'1'
sg65
g36
(g77
S'\x00\x00\x00\x00\x00\x00\x00\x00'
tRp196
sg44
g45
sg40
g41
sg25
F0.37102896452415735
sS'trials.thisIndex'
p197
g36
(g80
S')\x00\x00\x00'
tRp198
sg26
V5
sS'trials.thisRepN'
p199
I0
sg66
Vhouse
p200
sg63
V../experiment_stimuli/bw_bc_bl/Nonliving_Things/Buildings/house_24.jpg
p201
sg21
F0.30088394292397425
sS'trials.thisTrialN'
p202
I10
sa(dp203
g31
g32
sg17
F45.291689933219459
sg24
I0
sg35
g39
sg14
F45.286696369526908
sg16
g36
(g70
S'\x02\x00\x00\x00'
tRp204
sg42
g43
sg46
g47
sg15
g124
sg22
F47.371856875310186
sg64
g171
sg62
g74
sg49
g50
sS'trials.thisN'
p205
I11
sg19
I1
sg27
g36
(g38
S'\x00\x00\x00\x00\x00\x00\x1a@'
tRp206
sg52
g53
sg23
S'3'
sg18
F46.539300952746999
sg33
g34
sg51
g11
sg20
S'2'
sg65
g36
(g77
S'\x00\x00\x00\x00\x00\x00\x00\x00'
tRp207
sg44
g45
sg40
g41
sg25
F0.31093101319856942
sS'trials.thisIndex'
p208
g36
(g80
S'\x11\x00\x00\x00'
tRp209
sg26
V5
sS'trials.thisRepN'
p210
I0
sg66
Vchurch
p211
sg63
V../experiment_stimuli/bw_bc_bl/Nonliving_Things/Buildings/church_13.jpg
p212
sg21
F0.81200243858620524
sS'trials.thisTrialN'
p213
I11
sa(dp214
g31
g32
sg17
F49.420495193451643
sg24
I1
sg35
g39
sg14
F49.415646691399161
sg16
g36
(g70
S'\x02\x00\x00\x00'
tRp215
sg42
g43
sg46
g47
sg15
g72
sg22
F50.859430036798585
sg64
g100
sg62
g101
sg49
g50
sS'trials.thisN'
p216
I12
sg19
I0
sg27
g36
(g38
S'\x00\x00\x00\x00\x00\x00 @'
tRp217
sg52
g53
sg23
S'1'
sg18
F50.648235644330271
sg33
g34
sg51
g11
sg20
S'1'
sg65
g36
(g77
S'\x00\x00\x00\x00\x00\x00\x00\x00'
tRp218
sg44
g45
sg40
g41
sg25
F1.3832312917220406
sS'trials.thisIndex'
p219
g36
(g80
S'O\x00\x00\x00'
tRp220
sg26
V5
sS'trials.thisRepN'
p221
I0
sg66
Vsparrow
p222
sg63
V../experiment_stimuli/bw_bc_bl/Living_Things/Birds/sparrow_23.jpg
p223
sg21
F0.19062540167942643
sS'trials.thisTrialN'
p224
I12
sa(dp225
g31
g32
sg17
F53.980410610325634
sg24
I0
sg35
g39
sg14
F53.975557552010287
sg16
g36
(g70
S'\x01\x00\x00\x00'
tRp226
sg42
g43
sg46
g47
sg15
g72
sg22
F55.810211976175196
sg64
VVehicles
p227
sg62
g74
sg49
g50
sS'trials.thisN'
p228
I13
sg19
I1
sg27
g36
(g38
S'\x00\x00\x00\x00\x00\x00\x1e@'
tRp229
sg52
g53
sg23
S'3'
sg18
F55.238217183097731
sg33
g34
sg51
g11
sg20
S'1'
sg65
g36
(g77
S'\x00\x00\x00\x00\x00\x00\x00\x00'
tRp230
sg44
g45
sg40
g41
sg25
F0.31089501368114725
sS'trials.thisIndex'
p231
g36
(g80
S'\t\x00\x00\x00'
tRp232
sg26
V5
sS'trials.thisRepN'
p233
I0
sg66
Vbus
p234
sg63
V../experiment_stimuli/bw_bc_bl/Nonliving_Things/Vehicles/bus_24.jpg
p235
sg21
F0.55142542999237776
sS'trials.thisTrialN'
p236
I13
sa(dp237
g31
g32
sg17
F57.859012495377101
sg24
I0
sg35
g39
sg14
F57.853987194946967
sg16
g36
(g70
S'\x01\x00\x00\x00'
tRp238
sg42
g43
sg46
g47
sg15
g124
sg22
F59.748727533093188
sg64
g100
sg62
g101
sg49
g50
sS'trials.thisN'
p239
I14
sg19
I1
sg27
g36
(g38
S'\x00\x00\x00\x00\x00\x00\x18@'
tRp240
sg52
g53
sg23
S'3'
sg18
F59.096594699658453
sg33
g34
sg51
g11
sg20
S'1'
sg65
g36
(g77
S'\x00\x00\x00\x00\x00\x00\x00\x00'
tRp241
sg44
g45
sg40
g41
sg25
F0.29088151437463239
sS'trials.thisIndex'
p242
g36
(g80
S'C\x00\x00\x00'
tRp243
sg26
V5
sS'trials.thisRepN'
p244
I0
sg66
Vraven
p245
sg63
V../experiment_stimuli/bw_bc_bl/Living_Things/Birds/raven_26.jpg
p246
sg21
F0.63159981917124242
sS'trials.thisTrialN'
p247
I14
sa(dp248
g31
g32
sg17
F61.777345017995685
sg24
I0
sg35
g39
sg14
F61.772504105931148
sg16
g36
(g70
S'\x02\x00\x00\x00'
tRp249
sg42
g43
sg46
g47
sg15
g124
sg22
F63.32655221800087
sg64
g73
sg62
g74
sg49
g50
sS'trials.thisN'
p250
I15
sg19
I0
sg27
g36
(g38
S'\x00\x00\x00\x00\x00\x00\x18@'
tRp251
sg52
g53
sg23
S'2'
sg18
F63.005099953443278
sg33
g34
sg51
g11
sg20
S'1'
sg65
g36
(g77
S'\x00\x00\x00\x00\x00\x00\x00\x00'
tRp252
sg44
g45
sg40
g41
sg25
F0.30091838969383389
sS'trials.thisIndex'
p253
g36
(g80
S'\x06\x00\x00\x00'
tRp254
sg26
V5
sS'trials.thisRepN'
p255
I0
sg66
Vbedside-table
p256
sg63
V../experiment_stimuli/bw_bc_bl/Nonliving_Things/Furniture/bedside-table_20.jpg
p257
sg21
F0.30087964225094765
sS'trials.thisTrialN'
p258
I15
sa(dp259
g31
g32
sg17
F65.365077365539037
sg24
I1
sg35
g39
sg14
F65.360298148239963
sg16
g36
(g70
S'\x02\x00\x00\x00'
tRp260
sg42
g43
sg46
g47
sg15
g124
sg22
F66.643552755063865
sg64
g73
sg62
g74
sg49
g50
sS'trials.thisN'
p261
I16
sg19
I0
sg27
g36
(g38
S'\x00\x00\x00\x00\x00\x00\x1c@'
tRp262
sg52
g53
sg23
S'1'
sg18
F66.592890345258638
sg33
g34
sg51
g11
sg20
S'1'
sg65
g36
(g77
S'\x00\x00\x00\x00\x00\x00\x00\x00'
tRp263
sg44
g45
sg40
g41
sg25
F0.32092235877644271
sS'trials.thisIndex'
p264
g36
(g80
S'\x02\x00\x00\x00'
tRp265
sg26
V5
sS'trials.thisRepN'
p266
I0
sg66
Varmchair
p267
sg63
V../experiment_stimuli/bw_bc_bl/Nonliving_Things/Furniture/armchair_4.jpg
p268
sg21
F0.030131843057461083
sS'trials.thisTrialN'
p269
I16
sa(dp270
g31
g32
sg17
F68.703181882097851
sg24
I1
sg35
g39
sg14
F68.697559733118396
sg16
g36
(g70
S'\x02\x00\x00\x00'
tRp271
sg42
g43
sg46
g47
sg15
g72
sg22
F70.28161959227873
sg64
VAnimals
p272
sg62
g101
sg49
g50
sS'trials.thisN'
p273
I17
sg19
I0
sg27
g36
(g38
S'\x00\x00\x00\x00\x00\x00\x18@'
tRp274
sg52
g53
sg23
S'1'
sg18
F69.940163850842509
sg33
g34
sg51
g11
sg20
S'1'
sg65
g36
(g77
S'\x00\x00\x00\x00\x00\x00\x00\x00'
tRp275
sg44
g45
sg40
g41
sg25
F0.35097747726831585
sS'trials.thisIndex'
p276
g36
(g80
S'_\x00\x00\x00'
tRp277
sg26
V5
sS'trials.thisRepN'
p278
I0
sg66
Vzebra
p279
sg63
V../experiment_stimuli/bw_bc_bl/Living_Things/Animals/zebra_2.jpg
p280
sg21
F0.32092103909235448
sS'trials.thisTrialN'
p281
I17
sa(dp282
g31
g32
sg17
F72.371080468583386
sg24
I0
sg35
g39
sg14
F72.365527702437248
sg16
g36
(g70
S'\x02\x00\x00\x00'
tRp283
sg42
g43
sg46
g47
sg15
g124
sg22
F74.040035017766058
sg64
g159
sg62
g74
sg49
g50
sS'trials.thisN'
p284
I18
sg19
I0
sg27
g36
(g38
S'\x00\x00\x00\x00\x00\x00\x18@'
tRp285
sg52
g53
sg23
S'3'
sg18
F73.628175164340064
sg33
g34
sg51
g11
sg20
S'1'
sg65
g36
(g77
S'\x00\x00\x00\x00\x00\x00\x00\x00'
tRp286
sg44
g45
sg40
g41
sg25
F0.30086696578655392
sS'trials.thisIndex'
p287
g36
(g80
S'\x1e\x00\x00\x00'
tRp288
sg26
V5
sS'trials.thisRepN'
p289
I0
sg66
Vfondue
p290
sg63
V../experiment_stimuli/bw_bc_bl/Nonliving_Things/Kitchen_Uten/fondue_1.jpg
p291
sg21
F0.39130220044171438
sS'trials.thisTrialN'
p292
I18
sa(dp293
g31
g32
sg17
F76.079327018989716
sg24
I0
sg35
g39
sg14
F76.073591206339188
sg16
g36
(g70
S'\x01\x00\x00\x00'
tRp294
sg42
g43
sg46
g47
sg15
g124
sg22
F77.908215676085092
sg64
g100
sg62
g101
sg49
g50
sS'trials.thisN'
p295
I19
sg19
I1
sg27
g36
(g38
S'\x00\x00\x00\x00\x00\x00 @'
tRp296
sg52
g53
sg23
S'2'
sg18
F77.306171640229877
sg33
g34
sg51
g11
sg20
S'1'
sg65
g36
(g77
S'\x00\x00\x00\x00\x00\x00\x00\x00'
tRp297
sg44
g45
sg40
g41
sg25
F0.32091823493828997
sS'trials.thisIndex'
p298
g36
(g80
S'=\x00\x00\x00'
tRp299
sg26
V5
sS'trials.thisRepN'
p300
I0
sg66
Vpenguin
p301
sg63
V../experiment_stimuli/bw_bc_bl/Living_Things/Birds/penguin_25.jpg
p302
sg21
F0.58148864965187386
sS'trials.thisTrialN'
p303
I19
sa(dp304
g31
g32
sg17
F79.967007781146094
sg24
I1
sg35
g39
sg14
F79.962045777007006
sg16
g36
(g70
S'\x02\x00\x00\x00'
tRp305
sg42
g43
sg46
g47
sg15
g124
sg22
F81.546157435979694
sg64
VTools
p306
sg62
g74
sg49
g50
sS'trials.thisN'
p307
I20
sg19
I1
sg27
g36
(g38
S'\x00\x00\x00\x00\x00\x00\x18@'
tRp308
sg52
g53
sg23
S'1'
sg18
F81.194623354123905
sg33
g34
sg51
g11
sg20
S'2'
sg65
g36
(g77
S'\x00\x00\x00\x00\x00\x00\x00\x00'
tRp309
sg44
g45
sg40
g41
sg25
F0.26080549048492685
sS'trials.thisIndex'
p310
g36
(g80
S'%\x00\x00\x00'
tRp311
sg26
V5
sS'trials.thisRepN'
p312
I0
sg66
Vhammer
p313
sg63
V../experiment_stimuli/bw_bc_bl/Nonliving_Things/Tools/hammer_23.jpg
p314
sg21
F0.33096377138281241
sS'trials.thisTrialN'
p315
I20
sa(dp316
g31
g32
sg17
F83.545531711715739
sg24
I1
sg35
g39
sg14
F83.539824631938245
sg16
g36
(g70
S'\x01\x00\x00\x00'
tRp317
sg42
g43
sg46
g47
sg15
g72
sg22
F85.635014896339271
sg64
g159
sg62
g74
sg49
g50
sS'trials.thisN'
p318
I21
sg19
I0
sg27
g36
(g38
S'\x00\x00\x00\x00\x00\x00\x18@'
tRp319
sg52
g53
sg23
S'1'
sg18
F84.792446102073882
sg33
g34
sg51
g11
sg20
S'2'
sg65
g36
(g77
S'\x00\x00\x00\x00\x00\x00\x00\x00'
tRp320
sg44
g45
sg40
g41
sg25
F0.31089073553448543
sS'trials.thisIndex'
p321
g36
(g80
S'M\x00\x00\x00'
tRp322
sg26
V5
sS'trials.thisRepN'
p323
I0
sg66
Vsmall-saucepan
p324
sg63
V../experiment_stimuli/bw_bc_bl/Nonliving_Things/Kitchen_Uten/small-saucepan_6.jpg
p325
sg21
F0.82201822742354125
sS'trials.thisTrialN'
p326
I21
sa(dp327
g31
g32
sg17
F87.683702089823782
sg24
I0
sg35
g39
sg14
F87.678816659608856
sg16
g36
(g70
S'\x01\x00\x00\x00'
tRp328
sg42
g43
sg46
g47
sg15
g72
sg22
F89.463336640386842
sg64
g227
sg62
g74
sg49
g50
sS'trials.thisN'
p329
I22
sg19
I1
sg27
g36
(g38
S'\x00\x00\x00\x00\x00\x00\x18@'
tRp330
sg52
g53
sg23
S'3'
sg18
F88.961507391242776
sg33
g34
sg51
g11
sg20
S'1'
sg65
g36
(g77
S'\x00\x00\x00\x00\x00\x00\x00\x00'
tRp331
sg44
g45
sg40
g41
sg25
F0.31088580685900524
sS'trials.thisIndex'
p332
g36
(g80
S'V\x00\x00\x00'
tRp333
sg26
V5
sS'trials.thisRepN'
p334
I0
sg66
Vtractor
p335
sg63
V../experiment_stimuli/bw_bc_bl/Nonliving_Things/Vehicles/tractor_15.jpg
p336
sg21
F0.48127244575880468
sS'trials.thisTrialN'
p337
I22
sa(dp338
g31
g32
sg17
F91.513604220876005
sg24
I1
sg35
g39
sg14
F91.507136486412492
sg16
g36
(g70
S'\x02\x00\x00\x00'
tRp339
sg42
g43
sg46
g47
sg15
g124
sg22
F93.071174139622599
sg64
g171
sg62
g74
sg49
g50
sS'trials.thisN'
p340
I23
sg19
I1
sg27
g36
(g38
S'\x00\x00\x00\x00\x00\x00\x1c@'
tRp341
sg52
g53
sg23
S'1'
sg18
F92.759762400470208
sg33
g34
sg51
g11
sg20
S'2'
sg65
g36
(g77
S'\x00\x00\x00\x00\x00\x00\x00\x00'
tRp342
sg44
g45
sg40
g41
sg25
F0.31088734819786623
sS'trials.thisIndex'
p343
g36
(g80
S'\x1c\x00\x00\x00'
tRp344
sg26
V5
sS'trials.thisRepN'
p345
I0
sg66
Vfactory
p346
sg63
V../experiment_stimuli/bw_bc_bl/Nonliving_Things/Buildings/factory_19.jpg
p347
sg21
F0.2908552479930222
sS'trials.thisTrialN'
p348
I23
sa(dp349
g31
g32
sg17
F95.119807657261845
sg24
I1
sg35
g39
sg14
F95.114982809056528
sg16
g36
(g70
S'\x02\x00\x00\x00'
tRp350
sg42
g43
sg46
g47
sg15
g124
sg22
F96.699104114493821
sg64
g171
sg62
g74
sg49
g50
sS'trials.thisN'
p351
I24
sg19
I1
sg27
g36
(g38
S'\x00\x00\x00\x00\x00\x00\x1a@'
tRp352
sg52
g53
sg23
S'1'
sg18
F96.397674702107906
sg33
g34
sg51
g11
sg20
S'2'
sg65
g36
(g77
S'\x00\x00\x00\x00\x00\x00\x00\x00'
tRp353
sg44
g45
sg40
g41
sg25
F0.31090802850667387
sS'trials.thisIndex'
p354
g36
(g80
S':\x00\x00\x00'
tRp355
sg26
V5
sS'trials.thisRepN'
p356
I0
sg66
Vpalace
p357
sg63
V../experiment_stimuli/bw_bc_bl/Nonliving_Things/Buildings/palace_5.jpg
p358
sg21
F0.28085334226489067
sS'trials.thisTrialN'
p359
I24
sa(dp360
g31
g32
sg17
F98.747817176277749
sg24
I0
sg35
g39
sg14
F98.742867577995639
sg16
g36
(g70
S'\x02\x00\x00\x00'
tRp361
sg42
g43
sg46
g47
sg15
g72
sg22
F100.61757554492215
sg64
VInsects
p362
sg62
g101
sg49
g50
sS'trials.thisN'
p363
I25
sg19
I1
sg27
g36
(g38
S'\x00\x00\x00\x00\x00\x00\x1e@'
tRp364
sg52
g53
sg23
S'3'
sg18
F100.03559283469804
sg33
g34
sg51
g11
sg20
S'2'
sg65
g36
(g77
S'\x00\x00\x00\x00\x00\x00\x00\x00'
tRp365
sg44
g45
sg40
g41
sg25
F0.28082650084979832
sS'trials.thisIndex'
p366
g36
(g80
S'\x18\x00\x00\x00'
tRp367
sg26
V5
sS'trials.thisRepN'
p368
I0
sg66
Vdragonfly
p369
sg63
V../experiment_stimuli/bw_bc_bl/Living_Things/Insects/dragonfly_3.jpg
p370
sg21
F0.56144466606201604
sS'trials.thisTrialN'
p371
I25
sa(dp372
g31
g32
sg17
F102.63697144010803
sg24
I0
sg35
g39
sg14
F102.63132317119744
sg16
g36
(g70
S'\x02\x00\x00\x00'
tRp373
sg42
g43
sg46
g47
sg15
g72
sg22
F104.21538333105855
sg64
g100
sg62
g101
sg49
g50
sS'trials.thisN'
p374
I26
sg19
I1
sg27
g36
(g38
S'\x00\x00\x00\x00\x00\x00\x18@'
tRp375
sg52
g53
sg23
S'3'
sg18
F103.89396560343448
sg33
g34
sg51
g11
sg20
S'2'
sg65
g36
(g77
S'\x00\x00\x00\x00\x00\x00\x00\x00'
tRp376
sg44
g45
sg40
g41
sg25
F0.25061483937315643
sS'trials.thisIndex'
p377
g36
(g80
S'9\x00\x00\x00'
tRp378
sg26
V5
sS'trials.thisRepN'
p379
I0
sg66
Vowl
p380
sg63
V../experiment_stimuli/bw_bc_bl/Living_Things/Birds/owl_17.jpg
p381
sg21
F0.29085101111559197
sS'trials.thisTrialN'
p382
I26
sa(dp383
g31
g32
sg17
F106.20421321247704
sg24
I1
sg35
g39
sg14
F106.19907023746055
sg16
g36
(g70
S'\x01\x00\x00\x00'
tRp384
sg42
g43
sg46
g47
sg15
g124
sg22
F107.84332902356982
sg64
g272
sg62
g101
sg49
g50
sS'trials.thisN'
p385
I27
sg19
I0
sg27
g36
(g38
S'\x00\x00\x00\x00\x00\x00\x1a@'
tRp386
sg52
g53
sg23
S'1'
sg18
F107.43165734433569
sg33
g34
sg51
g11
sg20
S'2'
sg65
g36
(g77
S'\x00\x00\x00\x00\x00\x00\x00\x00'
tRp387
sg44
g45
sg40
g41
sg25
F0.34096104570198804
sS'trials.thisIndex'
p388
g36
(g80
S'2\x00\x00\x00'
tRp389
sg26
V5
sS'trials.thisRepN'
p390
I0
sg66
Vlynx
p391
sg63
V../experiment_stimuli/bw_bc_bl/Living_Things/Animals/lynx_9.jpg
p392
sg21
F0.39107703435001895
sS'trials.thisTrialN'
p393
I27
sa(dp394
g31
g32
sg17
F109.92380015685922
sg24
I1
sg35
g39
sg14
F109.91715910157654
sg16
g36
(g70
S'\x02\x00\x00\x00'
tRp395
sg42
g43
sg46
g47
sg15
g72
sg22
F111.48123560741078
sg64
g272
sg62
g101
sg49
g50
sS'trials.thisN'
p396
I28
sg19
I1
sg27
g36
(g38
S'\x00\x00\x00\x00\x00\x00\x1c@'
tRp397
sg52
g53
sg23
S'1'
sg18
F111.15976237686118
sg33
g34
sg51
g11
sg20
S'2'
sg65
g36
(g77
S'\x00\x00\x00\x00\x00\x00\x00\x00'
tRp398
sg44
g45
sg40
g41
sg25
F0.31090828776359558
sS'trials.thisIndex'
p399
g36
(g80
S' \x00\x00\x00'
tRp400
sg26
V5
sS'trials.thisRepN'
p401
I0
sg66
Vgiraffe
p402
sg63
V../experiment_stimuli/bw_bc_bl/Living_Things/Animals/giraffe_13.jpg
p403
sg21
F0.30088754440657794
sS'trials.thisTrialN'
p404
I28
sa(dp405
g31
g32
sg17
F113.53030585957458
sg24
I0
sg35
g39
sg14
F113.5249974654871
sg16
g36
(g70
S'\x02\x00\x00\x00'
tRp406
sg42
g43
sg46
g47
sg15
g72
sg22
F115.13914177345578
sg64
g272
sg62
g101
sg49
g50
sS'trials.thisN'
p407
I29
sg19
I1
sg27
g36
(g38
S'\x00\x00\x00\x00\x00\x00\x1e@'
tRp408
sg52
g53
sg23
S'2'
sg18
F114.77762199216522
sg33
g34
sg51
g11
sg20
S'2'
sg65
g36
(g77
S'\x00\x00\x00\x00\x00\x00\x00\x00'
tRp409
sg44
g45
sg40
g41
sg25
F0.27080933208344504
sS'trials.thisIndex'
p410
g36
(g80
S'\x14\x00\x00\x00'
tRp411
sg26
V5
sS'trials.thisRepN'
p412
I0
sg66
Vcow
p413
sg63
V../experiment_stimuli/bw_bc_bl/Living_Things/Animals/cow_25.jpg
p414
sg21
F0.34096361312549561
sS'trials.thisTrialN'
p415
I29
sa(dp416
g31
g32
sg17
F117.14866967819398
sg24
I0
sg35
g39
sg14
F117.14288885478163
sg16
g36
(g70
S'\x01\x00\x00\x00'
tRp417
sg42
g43
sg46
g47
sg15
g124
sg22
F118.93739820731571
sg64
g100
sg62
g101
sg49
g50
sS'trials.thisN'
p418
I30
sg19
I0
sg27
g36
(g38
S'\x00\x00\x00\x00\x00\x00\x18@'
tRp419
sg52
g53
sg23
S'2'
sg18
F118.38546980352839
sg33
g34
sg51
g11
sg20
S'2'
sg65
g36
(g77
S'\x00\x00\x00\x00\x00\x00\x00\x00'
tRp420
sg44
g45
sg40
g41
sg25
F0.32091797539032996
sS'trials.thisIndex'
p421
g36
(g80
S'*\x00\x00\x00'
tRp422
sg26
V5
sS'trials.thisRepN'
p423
I0
sg66
Vhummingbird
p424
sg63
V../experiment_stimuli/bw_bc_bl/Living_Things/Birds/hummingbird_13.jpg
p425
sg21
F0.53137545002391562
sS'trials.thisTrialN'
p426
I30
sa(dp427
g31
g32
sg17
F120.99718325695721
sg24
I1
sg35
g39
sg14
F120.99122635729145
sg16
g36
(g70
S'\x01\x00\x00\x00'
tRp428
sg42
g43
sg46
g47
sg15
g124
sg22
F122.62545335514005
sg64
g272
sg62
g101
sg49
g50
sS'trials.thisN'
p429
I31
sg19
I0
sg27
g36
(g38
S'\x00\x00\x00\x00\x00\x00\x1c@'
tRp430
sg52
g53
sg23
S'1'
sg18
F122.22381440794561
sg33
g34
sg51
g11
sg20
S'2'
sg65
g36
(g77
S'\x00\x00\x00\x00\x00\x00\x00\x00'
tRp431
sg44
g45
sg40
g41
sg25
F0.30090281489538029
sS'trials.thisIndex'
p432
g36
(g80
S'\r\x00\x00\x00'
tRp433
sg26
V5
sS'trials.thisRepN'
p434
I0
sg66
Vcat
p435
sg63
V../experiment_stimuli/bw_bc_bl/Living_Things/Animals/cat_11.jpg
p436
sg21
F0.38108212518272921
sS'trials.thisTrialN'
p437
I31
sa(dp438
g31
g32
sg17
F124.66410368093057
sg24
I1
sg35
g39
sg14
F124.65921313839499
sg16
g36
(g70
S'\x02\x00\x00\x00'
tRp439
sg42
g43
sg46
g47
sg15
g72
sg22
F126.26332570245722
sg64
g272
sg62
g101
sg49
g50
sS'trials.thisN'
p440
I32
sg19
I1
sg27
g36
(g38
S'\x00\x00\x00\x00\x00\x00\x18@'
tRp441
sg52
g53
sg23
S'1'
sg18
F125.90180666942615
sg33
g34
sg51
g11
sg20
S'2'
sg65
g36
(g77
S'\x00\x00\x00\x00\x00\x00\x00\x00'
tRp442
sg44
g45
sg40
g41
sg25
F0.31090064125601202
sS'trials.thisIndex'
p443
g36
(g80
S'Z\x00\x00\x00'
tRp444
sg26
V5
sS'trials.thisRepN'
p445
I0
sg66
Vturtle
p446
sg63
V../experiment_stimuli/bw_bc_bl/Living_Things/Animals/turtle_9.jpg
p447
sg21
F0.33094107994111255
sS'trials.thisTrialN'
p448
I32
sa(dp449
g31
g32
sg17
F128.31218091258779
sg24
I1
sg35
g39
sg14
F128.30713963136077
sg16
g36
(g70
S'\x01\x00\x00\x00'
tRp450
sg42
g43
sg46
g47
sg15
g72
sg22
F130.35220424126601
sg64
g227
sg62
g74
sg49
g50
sS'trials.thisN'
p451
I33
sg19
I1
sg27
g36
(g38
S'\x00\x00\x00\x00\x00\x00\x18@'
tRp452
sg52
g53
sg23
S'1'
sg18
F129.56977792800171
sg33
g34
sg51
g11
sg20
S'1'
sg65
g36
(g77
S'\x00\x00\x00\x00\x00\x00\x00\x00'
tRp453
sg44
g45
sg40
g41
sg25
F0.33093187311897054
sS'trials.thisIndex'
p454
g36
(g80
S'@\x00\x00\x00'
tRp455
sg26
V5
sS'trials.thisRepN'
p456
I0
sg66
Vplane
p457
sg63
V../experiment_stimuli/bw_bc_bl/Nonliving_Things/Vehicles/plane_10.jpg
p458
sg21
F0.76188419392565265
sS'trials.thisTrialN'
p459
I33
sa(dp460
g31
g32
sg17
F132.42195776465815
sg24
I0
sg35
g39
sg14
F132.41606189060258
sg16
g36
(g70
S'\x01\x00\x00\x00'
tRp461
sg42
g43
sg46
g47
sg15
g124
sg22
F134.32086552429246
sg64
g100
sg62
g101
sg49
g50
sS'trials.thisN'
p462
I34
sg19
I1
sg27
g36
(g38
S'\x00\x00\x00\x00\x00\x00\x18@'
tRp463
sg52
g53
sg23
S'3'
sg18
F133.70877718902193
sg33
g34
sg51
g11
sg20
S'1'
sg65
g36
(g77
S'\x00\x00\x00\x00\x00\x00\x00\x00'
tRp464
sg44
g45
sg40
g41
sg25
F0.30072336236480623
sS'trials.thisIndex'
p465
g36
(g80
S'"\x00\x00\x00'
tRp466
sg26
V5
sS'trials.thisRepN'
p467
I0
sg66
Vgoose
p468
sg63
V../experiment_stimuli/bw_bc_bl/Living_Things/Birds/goose_0.jpg
p469
sg21
F0.59152466378873214
sS'trials.thisTrialN'
p470
I34
sa(dp471
g31
g32
sg17
F136.35958043602295
sg24
I0
sg35
g39
sg14
F136.35462600679602
sg16
g36
(g70
S'\x02\x00\x00\x00'
tRp472
sg42
g43
sg46
g47
sg15
g124
sg22
F138.3395772484364
sg64
g73
sg62
g74
sg49
g50
sS'trials.thisN'
p473
I35
sg19
I1
sg27
g36
(g38
S'\x00\x00\x00\x00\x00\x00\x18@'
tRp474
sg52
g53
sg23
S'3'
sg18
F137.61727335234173
sg33
g34
sg51
g11
sg20
S'2'
sg65
g36
(g77
S'\x00\x00\x00\x00\x00\x00\x00\x00'
tRp475
sg44
g45
sg40
g41
sg25
F0.26076816412387416
sS'trials.thisIndex'
p476
g36
(g80
S']\x00\x00\x00'
tRp477
sg26
V5
sS'trials.thisRepN'
p478
I0
sg66
Vwardrobe
p479
sg63
V../experiment_stimuli/bw_bc_bl/Nonliving_Things/Furniture/wardrobe_17.jpg
p480
sg21
F0.70175463397754356
sS'trials.thisTrialN'
p481
I35
sa(dp482
g31
g32
sg17
F140.33808705536649
sg24
I1
sg35
g39
sg14
F140.3332822744851
sg16
g36
(g70
S'\x01\x00\x00\x00'
tRp483
sg42
g43
sg46
g47
sg15
g72
sg22
F141.88728826690931
sg64
g73
sg62
g74
sg49
g50
sS'trials.thisN'
p484
I36
sg19
I0
sg27
g36
(g38
S'\x00\x00\x00\x00\x00\x00\x1e@'
tRp485
sg52
g53
sg23
S'1'
sg18
F141.57588412158657
sg33
g34
sg51
g11
sg20
S'2'
sg65
g36
(g77
S'\x00\x00\x00\x00\x00\x00\x00\x00'
tRp486
sg44
g45
sg40
g41
sg25
F0.31090092693921179
sS'trials.thisIndex'
p487
g36
(g80
S'\x13\x00\x00\x00'
tRp488
sg26
V5
sS'trials.thisRepN'
p489
I0
sg66
Vcouch
p490
sg63
V../experiment_stimuli/bw_bc_bl/Nonliving_Things/Furniture/couch_5.jpg
p491
sg21
F0.29086668754462153
sS'trials.thisTrialN'
p492
I36
sa(dp493
g31
g32
sg17
F143.93609351891791
sg24
I1
sg35
g39
sg14
F143.93109433876816
sg16
g36
(g70
S'\x02\x00\x00\x00'
tRp494
sg42
g43
sg46
g47
sg15
g124
sg22
F145.54527898813831
sg64
g171
sg62
g74
sg49
g50
sS'trials.thisN'
p495
I37
sg19
I1
sg27
g36
(g38
S'\x00\x00\x00\x00\x00\x00\x18@'
tRp496
sg52
g53
sg23
S'1'
sg18
F145.20376592030516
sg33
g34
sg51
g11
sg20
S'2'
sg65
g36
(g77
S'\x00\x00\x00\x00\x00\x00\x00\x00'
tRp497
sg44
g45
sg40
g41
sg25
F0.32092453562654555
sS'trials.thisIndex'
p498
g36
(g80
S'5\x00\x00\x00'
tRp499
sg26
V5
sS'trials.thisRepN'
p500
I0
sg66
Vmill
p501
sg63
V../experiment_stimuli/bw_bc_bl/Nonliving_Things/Buildings/mill_11.jpg
p502
sg21
F0.32094307674560696
sS'trials.thisTrialN'
p503
I37
sa(dp504
g31
g32
sg17
F147.60479695495451
sg24
I0
sg35
g39
sg14
F147.59906636783853
sg16
g36
(g70
S'\x02\x00\x00\x00'
tRp505
sg42
g43
sg46
g47
sg15
g72
sg22
F149.54394953313749
sg64
g362
sg62
g101
sg49
g50
sS'trials.thisN'
p506
I38
sg19
I1
sg27
g36
(g38
S'\x00\x00\x00\x00\x00\x00\x1c@'
tRp507
sg52
g53
sg23
S'3'
sg18
F148.89178215136053
sg33
g34
sg51
g11
sg20
S'2'
sg65
g36
(g77
S'\x00\x00\x00\x00\x00\x00\x00\x00'
tRp508
sg44
g45
sg40
g41
sg25
F0.24074045446468517
sS'trials.thisIndex'
p509
g36
(g80
S'\n\x00\x00\x00'
tRp510
sg26
V5
sS'trials.thisRepN'
p511
I0
sg66
Vbutterfly
p512
sg63
V../experiment_stimuli/bw_bc_bl/Living_Things/Insects/butterfly_7.jpg
p513
sg21
F0.63161748059792444
sS'trials.thisTrialN'
p514
I38
sa(dp515
g31
g32
sg17
F151.52358883188572
sg24
I0
sg35
g39
sg14
F151.51758793677436
sg16
g36
(g70
S'\x01\x00\x00\x00'
tRp516
sg42
g43
sg46
g47
sg15
g124
sg22
F153.54264016804518
sg64
g100
sg62
g101
sg49
g50
sS'trials.thisN'
p517
I39
sg19
I1
sg27
g36
(g38
S'\x00\x00\x00\x00\x00\x00\x18@'
tRp518
sg52
g53
sg23
S'3'
sg18
F152.79025341704255
sg33
g34
sg51
g11
sg20
S'1'
sg65
g36
(g77
S'\x00\x00\x00\x00\x00\x00\x00\x00'
tRp519
sg44
g45
sg40
g41
sg25
F0.34097821440082043
sS'trials.thisIndex'
p520
g36
(g80
S'\x1a\x00\x00\x00'
tRp521
sg26
V5
sS'trials.thisRepN'
p522
I0
sg66
Vduck
p523
sg63
V../experiment_stimuli/bw_bc_bl/Living_Things/Birds/duck_3.jpg
p524
sg21
F0.73182969953631982
sS'trials.thisTrialN'
p525
I39
sa(dp526
g31
g32
sg17
F155.62138833315112
sg24
I1
sg35
g39
sg14
F155.61649402370676
sg16
g36
(g70
S'\x02\x00\x00\x00'
tRp527
sg42
g43
sg46
g47
sg15
g72
sg22
F157.57139389874646
sg64
g272
sg62
g101
sg49
g50
sS'trials.thisN'
p528
I40
sg19
I0
sg27
g36
(g38
S'\x00\x00\x00\x00\x00\x00\x18@'
tRp529
sg52
g53
sg23
S'1'
sg18
F156.8691231328412
sg33
g34
sg51
g11
sg20
S'1'
sg65
g36
(g77
S'\x00\x00\x00\x00\x00\x00\x00\x00'
tRp530
sg44
g45
sg40
g41
sg25
F0.31089041224913672
sS'trials.thisIndex'
p531
g36
(g80
S'T\x00\x00\x00'
tRp532
sg26
V5
sS'trials.thisRepN'
p533
I0
sg66
Vtiger
p534
sg63
V../experiment_stimuli/bw_bc_bl/Living_Things/Animals/tiger_13.jpg
p535
sg21
F0.68171015771804377
sS'trials.thisTrialN'
p536
I40
sa(dp537
g31
g32
sg17
F159.62015528278425
sg24
I0
sg35
g39
sg14
F159.61519555322593
sg16
g36
(g70
S'\x01\x00\x00\x00'
tRp538
sg42
g43
sg46
g47
sg15
g124
sg22
F161.38967959856382
sg64
g100
sg62
g101
sg49
g50
sS'trials.thisN'
p539
I41
sg19
I1
sg27
g36
(g38
S'\x00\x00\x00\x00\x00\x00\x1e@'
tRp540
sg52
g53
sg23
S'3'
sg18
F160.8778388723149
sg33
g34
sg51
g11
sg20
S'1'
sg65
g36
(g77
S'\x00\x00\x00\x00\x00\x00\x00\x00'
tRp541
sg44
g45
sg40
g41
sg25
F0.30087249202188104
sS'trials.thisIndex'
p542
g36
(g80
S'F\x00\x00\x00'
tRp543
sg26
V5
sS'trials.thisRepN'
p544
I0
sg66
Vrooster
p545
sg63
V../experiment_stimuli/bw_bc_bl/Living_Things/Birds/rooster_0.jpg
p546
sg21
F0.49129096034448594
sS'trials.thisTrialN'
p547
I41
sa(dp548
g31
g32
sg17
F163.42831509001553
sg24
I0
sg35
g39
sg14
F163.42347029864322
sg16
g36
(g70
S'\x01\x00\x00\x00'
tRp549
sg42
g43
sg46
g47
sg15
g72
sg22
F165.08772221591789
sg64
g227
sg62
g74
sg49
g50
sS'trials.thisN'
p550
I42
sg19
I1
sg27
g36
(g38
S'\x00\x00\x00\x00\x00\x00\x18@'
tRp551
sg52
g53
sg23
S'2'
sg18
F164.65605052950559
sg33
g34
sg51
g11
sg20
S'1'
sg65
g36
(g77
S'\x00\x00\x00\x00\x00\x00\x00\x00'
tRp552
sg44
g45
sg40
g41
sg25
F0.45119588758097962
sS'trials.thisIndex'
p553
g36
(g80
S'L\x00\x00\x00'
tRp554
sg26
V5
sS'trials.thisRepN'
p555
I0
sg66
Vship
p556
sg63
V../experiment_stimuli/bw_bc_bl/Nonliving_Things/Vehicles/ship_20.jpg
p557
sg21
F0.41111455584177747
sS'trials.thisTrialN'
p558
I42
sa(dp559
g31
g32
sg17
F167.27680122590391
sg24
I1
sg35
g39
sg14
F167.27183318429161
sg16
g36
(g70
S'\x02\x00\x00\x00'
tRp560
sg42
g43
sg46
g47
sg15
g72
sg22
F168.82584137964295
sg64
g272
sg62
g101
sg49
g50
sS'trials.thisN'
p561
I43
sg19
I1
sg27
g36
(g38
S'\x00\x00\x00\x00\x00\x00\x18@'
tRp562
sg52
g53
sg23
S'1'
sg18
F168.50441170088015
sg33
g34
sg51
g11
sg20
S'2'
sg65
g36
(g77
S'\x00\x00\x00\x00\x00\x00\x00\x00'
tRp563
sg44
g45
sg40
g41
sg25
F0.35098858230048791
sS'trials.thisIndex'
p564
g36
(g80
S'\x01\x00\x00\x00'
tRp565
sg26
V5
sS'trials.thisRepN'
p566
I0
sg66
Varmadillo
p567
sg63
V../experiment_stimuli/bw_bc_bl/Living_Things/Animals/armadillo_1.jpg
p568
sg21
F0.30088567943312228
sS'trials.thisTrialN'
p569
I43
sa(dp570
g31
g32
sg17
F170.91574481356656
sg24
I1
sg35
g39
sg14
F170.90974101622123
sg16
g36
(g70
S'\x02\x00\x00\x00'
tRp571
sg42
g43
sg46
g47
sg15
g72
sg22
F172.56398271594662
sg64
g362
sg62
g101
sg49
g50
sS'trials.thisN'
p572
I44
sg19
I1
sg27
g36
(g38
S'\x00\x00\x00\x00\x00\x00\x1a@'
tRp573
sg52
g53
sg23
S'1'
sg18
F172.15235785522964
sg33
g34
sg51
g11
sg20
S'2'
sg65
g36
(g77
S'\x00\x00\x00\x00\x00\x00\x00\x00'
tRp574
sg44
g45
sg40
g41
sg25
F0.32092237385222688
sS'trials.thisIndex'
p575
g36
(g80
S'I\x00\x00\x00'
tRp576
sg26
V5
sS'trials.thisRepN'
p577
I0
sg66
Vscorpion
p578
sg63
V../experiment_stimuli/bw_bc_bl/Living_Things/Insects/scorpion_1.jpg
p579
sg21
F0.39107412099838257
sS'trials.thisTrialN'
p580
I44
sa(dp581
g31
g32
sg17
F174.62481734063476
sg24
I0
sg35
g39
sg14
F174.61779809917789
sg16
g36
(g70
S'\x02\x00\x00\x00'
tRp582
sg42
g43
sg46
g47
sg15
g72
sg22
F176.65288463392062
sg64
g100
sg62
g101
sg49
g50
sS'trials.thisN'
p583
I45
sg19
I1
sg27
g36
(g38
S'\x00\x00\x00\x00\x00\x00\x1c@'
tRp584
sg52
g53
sg23
S'3'
sg18
F175.88045016647084
sg33
g34
sg51
g11
sg20
S'2'
sg65
g36
(g77
S'\x00\x00\x00\x00\x00\x00\x00\x00'
tRp585
sg44
g45
sg40
g41
sg25
F0.31091666745487601
sS'trials.thisIndex'
p586
g36
(g80
S'?\x00\x00\x00'
tRp587
sg26
V5
sS'trials.thisRepN'
p588
I0
sg66
Vpigeon
p589
sg63
V../experiment_stimuli/bw_bc_bl/Living_Things/Birds/pigeon_24.jpg
p590
sg21
F0.75187993474537507
sS'trials.thisTrialN'
p591
I45
sa(dp592
g31
g32
sg17
F178.70158552296925
sg24
I0
sg35
g39
sg14
F178.69667119841324
sg16
g36
(g70
S'\x01\x00\x00\x00'
tRp593
sg42
g43
sg46
g47
sg15
g72
sg22
F180.07028065045597
sg64
g73
sg62
g74
sg49
g50
sS'trials.thisN'
p594
I46
sg19
I0
sg27
g36
(g38
S'\x00\x00\x00\x00\x00\x00\x1a@'
tRp595
sg52
g53
sg23
S'2'
sg18
F179.92925109126372
sg33
g34
sg51
g11
sg20
S'2'
sg65
g36
(g77
S'\x00\x00\x00\x00\x00\x00\x00\x00'
tRp596
sg44
g45
sg40
g41
sg25
F0.39109784999163821
sS'trials.thisIndex'
p597
g36
(g80
S'\x05\x00\x00\x00'
tRp598
sg26
V5
sS'trials.thisRepN'
p599
I0
sg66
Vbed
p600
sg63
V../experiment_stimuli/bw_bc_bl/Nonliving_Things/Furniture/bed_14.jpg
p601
sg21
F0.12048812006833032
sS'trials.thisTrialN'
p602
I46
sa(dp603
g31
g32
sg17
F182.19925898342626
sg24
I1
sg35
g39
sg14
F182.19427149090916
sg16
g36
(g70
S'\x01\x00\x00\x00'
tRp604
sg42
g43
sg46
g47
sg15
g72
sg22
F183.67812663083896
sg64
g88
sg62
g74
sg49
g50
sS'trials.thisN'
p605
I47
sg19
I0
sg27
g36
(g38
S'\x00\x00\x00\x00\x00\x00\x18@'
tRp606
sg52
g53
sg23
S'1'
sg18
F183.4268578272895
sg33
g34
sg51
g11
sg20
S'2'
sg65
g36
(g77
S'\x00\x00\x00\x00\x00\x00\x00\x00'
tRp607
sg44
g45
sg40
g41
sg25
F0.28085061692399904
sS'trials.thisIndex'
p608
g36
(g80
S'X\x00\x00\x00'
tRp609
sg26
V5
sS'trials.thisRepN'
p610
I0
sg66
Vtrumpet
p611
sg63
V../experiment_stimuli/bw_bc_bl/Nonliving_Things/Musical_Inst/trumpet_18.jpg
p612
sg21
F0.23073112417478114
sS'trials.thisTrialN'
p613
I47
sa(dp614
g31
g32
sg17
F185.69783010805259
sg24
I0
sg35
g39
sg14
F185.6918770991615
sg16
g36
(g70
S'\x02\x00\x00\x00'
tRp615
sg42
g43
sg46
g47
sg15
g124
sg22
F186.99536513799103
sg64
g159
sg62
g74
sg49
g50
sS'trials.thisN'
p616
I48
sg19
I0
sg27
g36
(g38
S'\x00\x00\x00\x00\x00\x00\x18@'
tRp617
sg52
g53
sg23
S'2'
sg18
F186.9445023740991
sg33
g34
sg51
g11
sg20
S'1'
sg65
g36
(g77
S'\x00\x00\x00\x00\x00\x00\x00\x00'
tRp618
sg44
g45
sg40
g41
sg25
F0.35099977016216144
sS'trials.thisIndex'
p619
g36
(g80
S'S\x00\x00\x00'
tRp620
sg26
V5
sS'trials.thisRepN'
p621
I0
sg66
Vteapot
p622
sg63
V../experiment_stimuli/bw_bc_bl/Nonliving_Things/Kitchen_Uten/teapot_14.jpg
p623
sg21
F0.030293415766209364
sS'trials.thisTrialN'
p624
I48
sa(dp625
g31
g32
sg17
F189.08522173081292
sg24
I1
sg35
g39
sg14
F189.07924783893395
sg16
g36
(g70
S'\x02\x00\x00\x00'
tRp626
sg42
g43
sg46
g47
sg15
g124
sg22
F190.69339065428358
sg64
g227
sg62
g74
sg49
g50
sS'trials.thisN'
p627
I49
sg19
I0
sg27
g36
(g38
S'\x00\x00\x00\x00\x00\x00\x1a@'
tRp628
sg52
g53
sg23
S'1'
sg18
F190.32184347161092
sg33
g34
sg51
g11
sg20
S'1'
sg65
g36
(g77
S'\x00\x00\x00\x00\x00\x00\x00\x00'
tRp629
sg44
g45
sg40
g41
sg25
F0.69172469852492213
sS'trials.thisIndex'
p630
g36
(g80
S'[\x00\x00\x00'
tRp631
sg26
V5
sS'trials.thisRepN'
p632
I0
sg66
Vvan
p633
sg63
V../experiment_stimuli/bw_bc_bl/Nonliving_Things/Vehicles/van_0.jpg
p634
sg21
F0.35099080787040293
sS'trials.thisTrialN'
p635
I49
sa(dp636
g31
g32
sg17
F193.12296228017658
sg24
I0
sg35
g39
sg14
F193.11801347491564
sg16
g36
(g70
S'\x01\x00\x00\x00'
tRp637
sg42
g43
sg46
g47
sg15
g124
sg22
F194.99273981788429
sg64
g100
sg62
g101
sg49
g50
sS'trials.thisN'
p638
I50
sg19
I1
sg27
g36
(g38
S'\x00\x00\x00\x00\x00\x00\x1a@'
tRp639
sg52
g53
sg23
S'3'
sg18
F194.38066291820724
sg33
g34
sg51
g11
sg20
S'1'
sg65
g36
(g77
S'\x00\x00\x00\x00\x00\x00\x00\x00'
tRp640
sg44
g45
sg40
g41
sg25
F0.34098032361362129
sS'trials.thisIndex'
p641
g36
(g80
S'<\x00\x00\x00'
tRp642
sg26
V5
sS'trials.thisRepN'
p643
I0
sg66
Vpelican
p644
sg63
V../experiment_stimuli/bw_bc_bl/Living_Things/Birds/pelican_25.jpg
p645
sg21
F0.59151834057411179
sS'trials.thisTrialN'
p646
I50
sa(dp647
g31
g32
sg17
F197.07136750745121
sg24
I1
sg35
g39
sg14
F197.0666022223304
sg16
g36
(g70
S'\x02\x00\x00\x00'
tRp648
sg42
g43
sg46
g47
sg15
g124
sg22
F198.70079099870054
sg64
g159
sg62
g74
sg49
g50
sS'trials.thisN'
p649
I51
sg19
I1
sg27
g36
(g38
S'\x00\x00\x00\x00\x00\x00\x18@'
tRp650
sg52
g53
sg23
S'1'
sg18
F198.30920518934727
sg33
g34
sg51
g11
sg20
S'2'
sg65
g36
(g77
S'\x00\x00\x00\x00\x00\x00\x00\x00'
tRp651
sg44
g45
sg40
g41
sg25
F0.37102747225435451
sS'trials.thisIndex'
p652
g36
(g80
S'\x16\x00\x00\x00'
tRp653
sg26
V5
sS'trials.thisRepN'
p654
I0
sg66
Vcup
p655
sg63
V../experiment_stimuli/bw_bc_bl/Nonliving_Things/Kitchen_Uten/cup_10.jpg
p656
sg21
F0.37102771637728438
sS'trials.thisTrialN'
p657
I51
sa(dp658
g31
g32
sg17
F200.80968853295781
sg24
I0
sg35
g39
sg14
F200.80472828814527
sg16
g36
(g70
S'\x01\x00\x00\x00'
tRp659
sg42
g43
sg46
g47
sg15
g72
sg22
F202.77969422168098
sg64
g227
sg62
g74
sg49
g50
sS'trials.thisN'
p660
I52
sg19
I0
sg27
g36
(g38
S'\x00\x00\x00\x00\x00\x00\x1a@'
tRp661
sg52
g53
sg23
S'3'
sg18
F202.06737334054196
sg33
g34
sg51
g11
sg20
S'2'
sg65
g36
(g77
S'\x00\x00\x00\x00\x00\x00\x00\x00'
tRp662
sg44
g45
sg40
g41
sg25
F0.21069956140127033
sS'trials.thisIndex'
p663
g36
(g80
S'W\x00\x00\x00'
tRp664
sg26
V5
sS'trials.thisRepN'
p665
I0
sg66
Vtrain
p666
sg63
V../experiment_stimuli/bw_bc_bl/Nonliving_Things/Vehicles/train_6.jpg
p667
sg21
F0.6917318037012592
sS'trials.thisTrialN'
p668
I52
sa(dp669
g31
g32
sg17
F204.72808718599845
sg24
I1
sg35
g39
sg14
F204.72324309748365
sg16
g36
(g70
S'\x02\x00\x00\x00'
tRp670
sg42
g43
sg46
g47
sg15
g72
sg22
F206.33738803310553
sg64
g362
sg62
g101
sg49
g50
sS'trials.thisN'
p671
I53
sg19
I1
sg27
g36
(g38
S'\x00\x00\x00\x00\x00\x00 @'
tRp672
sg52
g53
sg23
S'1'
sg18
F205.955841666786
sg33
g34
sg51
g11
sg20
S'2'
sg65
g36
(g77
S'\x00\x00\x00\x00\x00\x00\x00\x00'
tRp673
sg44
g45
sg40
g41
sg25
F0.31089790089754388
sS'trials.thisIndex'
p674
g36
(g80
S'-\x00\x00\x00'
tRp675
sg26
V5
sS'trials.thisRepN'
p676
I0
sg66
Vladybird
p677
sg63
V../experiment_stimuli/bw_bc_bl/Living_Things/Insects/ladybird_1.jpg
p678
sg21
F0.36101360025350004
sS'trials.thisTrialN'
p679
I53
sa(dp680
g31
g32
sg17
F208.38853204861516
sg24
I0
sg35
g39
sg14
F208.38119751453632
sg16
g36
(g70
S'\x02\x00\x00\x00'
tRp681
sg42
g43
sg46
g47
sg15
g124
sg22
F210.32610087504145
sg64
g88
sg62
g74
sg49
g50
sS'trials.thisN'
p682
I54
sg19
I0
sg27
g36
(g38
S'\x00\x00\x00\x00\x00\x00\x18@'
tRp683
sg52
g53
sg23
S'2'
sg18
F209.62380006088642
sg33
g34
sg51
g11
sg20
S'1'
sg65
g36
(g77
S'\x00\x00\x00\x00\x00\x00\x00\x00'
tRp684
sg44
g45
sg40
g41
sg25
F0.62141644977964461
sS'trials.thisIndex'
p685
g36
(g80
S'H\x00\x00\x00'
tRp686
sg26
V5
sS'trials.thisRepN'
p687
I0
sg66
Vsaxophone
p688
sg63
V../experiment_stimuli/bw_bc_bl/Nonliving_Things/Musical_Inst/saxophone_15.jpg
p689
sg21
F0.68170864292187616
sS'trials.thisTrialN'
p690
I54
sa(dp691
g31
g32
sg17
F212.68543002574006
sg24
I1
sg35
g39
sg14
F212.6805429753731
sg16
g36
(g70
S'\x01\x00\x00\x00'
tRp692
sg42
g43
sg46
g47
sg15
g72
sg22
F214.30472242896212
sg64
g73
sg62
g74
sg49
g50
sS'trials.thisN'
p693
I55
sg19
I0
sg27
g36
(g38
S'\x00\x00\x00\x00\x00\x00\x18@'
tRp694
sg52
g53
sg23
S'1'
sg18
F213.91312502580695
sg33
g34
sg51
g11
sg20
S'2'
sg65
g36
(g77
S'\x00\x00\x00\x00\x00\x00\x00\x00'
tRp695
sg44
g45
sg40
g41
sg25
F0.39108915091492236
sS'trials.thisIndex'
p696
g36
(g80
S'Q\x00\x00\x00'
tRp697
sg26
V5
sS'trials.thisRepN'
p698
I0
sg66
Vtable
p699
sg63
V../experiment_stimuli/bw_bc_bl/Nonliving_Things/Furniture/table_15.jpg
p700
sg21
F0.37103822751669213
sS'trials.thisTrialN'
p701
I55
sa(dp702
g31
g32
sg17
F216.43362117657671
sg24
I1
sg35
g39
sg14
F216.4286916005658
sg16
g36
(g70
S'\x01\x00\x00\x00'
tRp703
sg42
g43
sg46
g47
sg15
g124
sg22
F218.07290344784269
sg64
g100
sg62
g101
sg49
g50
sS'trials.thisN'
p704
I56
sg19
I1
sg27
g36
(g38
S'\x00\x00\x00\x00\x00\x00\x18@'
tRp705
sg52
g53
sg23
S'1'
sg18
F217.69134110037703
sg33
g34
sg51
g11
sg20
S'1'
sg65
g36
(g77
S'\x00\x00\x00\x00\x00\x00\x00\x00'
tRp706
sg44
g45
sg40
g41
sg25
F0.37103203608421609
sS'trials.thisIndex'
p707
g36
(g80
S'8\x00\x00\x00'
tRp708
sg26
V5
sS'trials.thisRepN'
p709
I0
sg66
Vostrich
p710
sg63
V../experiment_stimuli/bw_bc_bl/Living_Things/Birds/ostrich_3.jpg
p711
sg21
F0.36101248388877138
sS'trials.thisTrialN'
p712
I56
sa(dp713
g31
g32
sg17
F220.18187963118544
sg24
I0
sg35
g39
sg14
F220.17684088769602
sg16
g36
(g70
S'\x02\x00\x00\x00'
tRp714
sg42
g43
sg46
g47
sg15
g124
sg22
F222.32216468220577
sg64
g88
sg62
g74
sg49
g50
sS'trials.thisN'
p715
I57
sg19
I1
sg27
g36
(g38
S'\x00\x00\x00\x00\x00\x00\x18@'
tRp716
sg52
g53
sg23
S'3'
sg18
F221.46955166733824
sg33
g34
sg51
g11
sg20
S'2'
sg65
g36
(g77
S'\x00\x00\x00\x00\x00\x00\x00\x00'
tRp717
sg44
g45
sg40
g41
sg25
F0.31089302484178916
sS'trials.thisIndex'
p718
g36
(g80
S'$\x00\x00\x00'
tRp719
sg26
V5
sS'trials.thisRepN'
p720
I0
sg66
Vguitar
p721
sg63
V../experiment_stimuli/bw_bc_bl/Nonliving_Things/Musical_Inst/guitar_1.jpg
p722
sg21
F0.83203533961204812
sS'trials.thisTrialN'
p723
I57
sa(dp724
g31
g32
sg17
F224.37073045643046
sg24
I0
sg35
g39
sg14
F224.36594189342577
sg16
g36
(g70
S'\x02\x00\x00\x00'
tRp725
sg42
g43
sg46
g47
sg15
g124
sg22
F226.34088160929969
sg64
g159
sg62
g74
sg49
g50
sS'trials.thisN'
p726
I58
sg19
I1
sg27
g36
(g38
S'\x00\x00\x00\x00\x00\x00\x18@'
tRp727
sg52
g53
sg23
S'3'
sg18
F225.62858803203562
sg33
g34
sg51
g11
sg20
S'2'
sg65
g36
(g77
S'\x00\x00\x00\x00\x00\x00\x00\x00'
tRp728
sg44
g45
sg40
g41
sg25
F0.26078991562826559
sS'trials.thisIndex'
p729
g36
(g80
S'G\x00\x00\x00'
tRp730
sg26
V5
sS'trials.thisRepN'
p731
I0
sg66
Vsaucepan
p732
sg63
V../experiment_stimuli/bw_bc_bl/Nonliving_Things/Kitchen_Uten/saucepan_17.jpg
p733
sg21
F0.69173189392313361
sS'trials.thisTrialN'
p734
I58
sa(dp735
g31
g32
sg17
F228.33952687645797
sg24
I0
sg35
g39
sg14
F228.33456884219777
sg16
g36
(g70
S'\x01\x00\x00\x00'
tRp736
sg42
g43
sg46
g47
sg15
g124
sg22
F230.14914733229671
sg64
g100
sg62
g101
sg49
g50
sS'trials.thisN'
p737
I59
sg19
I1
sg27
g36
(g38
S'\x00\x00\x00\x00\x00\x00 @'
tRp738
sg52
g53
sg23
S'2'
sg18
F229.57718728663167
sg33
g34
sg51
g11
sg20
S'1'
sg65
g36
(g77
S'\x00\x00\x00\x00\x00\x00\x00\x00'
tRp739
sg44
g45
sg40
g41
sg25
F0.5614414555602707
sS'trials.thisIndex'
p740
g36
(g80
S',\x00\x00\x00'
tRp741
sg26
V5
sS'trials.thisRepN'
p742
I0
sg66
Vkiwi
p743
sg63
V../experiment_stimuli/bw_bc_bl/Living_Things/Birds/kiwi_23.jpg
p744
sg21
F0.55142135091591626
sS'trials.thisTrialN'
p745
I59
sa(dp746
g31
g32
sg17
F232.44850541703636
sg24
I1
sg35
g39
sg14
F232.44350114284316
sg16
g36
(g70
S'\x02\x00\x00\x00'
tRp747
sg42
g43
sg46
g47
sg15
g124
sg22
F234.03764221456368
sg64
g88
sg62
g74
sg49
g50
sS'trials.thisN'
p748
I60
sg19
I1
sg27
g36
(g38
S'\x00\x00\x00\x00\x00\x00\x18@'
tRp749
sg52
g53
sg23
S'1'
sg18
F233.67608517815825
sg33
g34
sg51
g11
sg20
S'2'
sg65
g36
(g77
S'\x00\x00\x00\x00\x00\x00\x00\x00'
tRp750
sg44
g45
sg40
g41
sg25
F0.26078337046783417
sS'trials.thisIndex'
p751
g36
(g80
S'\x19\x00\x00\x00'
tRp752
sg26
V5
sS'trials.thisRepN'
p753
I0
sg66
Vdrum
p754
sg63
V../experiment_stimuli/bw_bc_bl/Nonliving_Things/Musical_Inst/drum_3.jpg
p755
sg21
F0.34099019563291222
sS'trials.thisTrialN'
p756
I60
sa(dp757
g31
g32
sg17
F236.03625588823343
sg24
I1
sg35
g39
sg14
F236.03135367663344
sg16
g36
(g70
S'\x02\x00\x00\x00'
tRp758
sg42
g43
sg46
g47
sg15
g124
sg22
F237.6053630929091
sg64
g171
sg62
g74
sg49
g50
sS'trials.thisN'
p759
I61
sg19
I1
sg27
g36
(g38
S'\x00\x00\x00\x00\x00\x00\x18@'
tRp760
sg52
g53
sg23
S'1'
sg18
F237.27391119714594
sg33
g34
sg51
g11
sg20
S'2'
sg65
g36
(g77
S'\x00\x00\x00\x00\x00\x00\x00\x00'
tRp761
sg44
g45
sg40
g41
sg25
F0.29085061291698366
sS'trials.thisIndex'
p762
g36
(g80
S'\x0c\x00\x00\x00'
tRp763
sg26
V5
sS'trials.thisRepN'
p764
I0
sg66
Vcastle
p765
sg63
V../experiment_stimuli/bw_bc_bl/Nonliving_Things/Buildings/castle_16.jpg
p766
sg21
F0.31090112990932539
sS'trials.thisTrialN'
p767
I61
sa(dp768
g31
g32
sg17
F239.63401493820129
sg24
I0
sg35
g39
sg14
F239.62912933900952
sg16
g36
(g70
S'\x02\x00\x00\x00'
tRp769
sg42
g43
sg46
g47
sg15
g72
sg22
F241.8948029136518
sg64
g125
sg62
g101
sg49
g50
sS'trials.thisN'
p770
I62
sg19
I1
sg27
g36
(g38
S'\x00\x00\x00\x00\x00\x00\x18@'
tRp771
sg52
g53
sg23
S'3'
sg18
F240.90179313113913
sg33
g34
sg51
g11
sg20
S'2'
sg65
g36
(g77
S'\x00\x00\x00\x00\x00\x00\x00\x00'
tRp772
sg44
g45
sg40
g41
sg25
F0.27065130433766171
sS'trials.thisIndex'
p773
g36
(g80
S'4\x00\x00\x00'
tRp774
sg26
V5
sS'trials.thisRepN'
p775
I0
sg66
Vmanatee
p776
sg63
V../experiment_stimuli/bw_bc_bl/Living_Things/Marine_creatures/manatee_25.jpg
p777
sg21
F0.97244807303650305
sS'trials.thisTrialN'
p778
I62
sa(dp779
g31
g32
sg17
F243.90487760759424
sg24
I0
sg35
g39
sg14
F243.89840459858533
sg16
g36
(g70
S'\x02\x00\x00\x00'
tRp780
sg42
g43
sg46
g47
sg15
g72
sg22
F245.99364921194501
sg64
g272
sg62
g101
sg49
g50
sS'trials.thisN'
p781
I63
sg19
I1
sg27
g36
(g38
S'\x00\x00\x00\x00\x00\x00\x1a@'
tRp782
sg52
g53
sg23
S'2'
sg18
F245.15103030210594
sg33
g34
sg51
g11
sg20
S'2'
sg65
g36
(g77
S'\x00\x00\x00\x00\x00\x00\x00\x00'
tRp783
sg44
g45
sg40
g41
sg25
F0.26078471628716215
sS'trials.thisIndex'
p784
g36
(g80
S'D\x00\x00\x00'
tRp785
sg26
V5
sS'trials.thisRepN'
p786
I0
sg66
Vrhino
p787
sg63
V../experiment_stimuli/bw_bc_bl/Living_Things/Animals/rhino_3.jpg
p788
sg21
F0.82203708036104217
sS'trials.thisTrialN'
p789
I63
sa(dp790
g31
g32
sg17
F247.99372166173998
sg24
I1
sg35
g39
sg14
F247.98729416372953
sg16
g36
(g70
S'\x02\x00\x00\x00'
tRp791
sg42
g43
sg46
g47
sg15
g72
sg22
F249.77181479067076
sg64
g272
sg62
g101
sg49
g50
sS'trials.thisN'
p792
I64
sg19
I0
sg27
g36
(g38
S'\x00\x00\x00\x00\x00\x00\x18@'
tRp793
sg52
g53
sg23
S'1'
sg18
F249.22990375111112
sg33
g34
sg51
g11
sg20
S'1'
sg65
g36
(g77
S'\x00\x00\x00\x00\x00\x00\x00\x00'
tRp794
sg44
g45
sg40
g41
sg25
F0.29084819549461827
sS'trials.thisIndex'
p795
g36
(g80
S'(\x00\x00\x00'
tRp796
sg26
V5
sS'trials.thisRepN'
p797
I0
sg66
Vhorse
p798
sg63
V../experiment_stimuli/bw_bc_bl/Living_Things/Animals/horse_26.jpg
p799
sg21
F0.52135779295349494
sS'trials.thisTrialN'
p800
I64
sa(dp801
g31
g32
sg17
F251.80051126697799
sg24
I1
sg35
g39
sg14
F251.7955801456701
sg16
g36
(g70
S'\x02\x00\x00\x00'
tRp802
sg42
g43
sg46
g47
sg15
g124
sg22
F253.41961030452512
sg64
g227
sg62
g74
sg49
g50
sS'trials.thisN'
p803
I65
sg19
I0
sg27
g36
(g38
S'\x00\x00\x00\x00\x00\x00\x18@'
tRp804
sg52
g53
sg23
S'1'
sg18
F253.05822535586776
sg33
g34
sg51
g11
sg20
S'1'
sg65
g36
(g77
S'\x00\x00\x00\x00\x00\x00\x00\x00'
tRp805
sg44
g45
sg40
g41
sg25
F0.33094445586903021
sS'trials.thisIndex'
p806
g36
(g80
S'\x0b\x00\x00\x00'
tRp807
sg26
V5
sS'trials.thisRepN'
p808
I0
sg66
Vcar
p809
sg63
V../experiment_stimuli/bw_bc_bl/Nonliving_Things/Vehicles/car_24.jpg
p810
sg21
F0.3307860295753926
sS'trials.thisTrialN'
p811
I65
sa(dp812
g31
g32
sg17
F255.48846887837863
sg24
I0
sg35
g39
sg14
F255.48358583159279
sg16
g36
(g70
S'\x01\x00\x00\x00'
tRp813
sg42
g43
sg46
g47
sg15
g72
sg22
F257.50867159618065
sg64
g227
sg62
g74
sg49
g50
sS'trials.thisN'
p814
I66
sg19
I1
sg27
g36
(g38
S'\x00\x00\x00\x00\x00\x00\x18@'
tRp815
sg52
g53
sg23
S'3'
sg18
F256.76628204033477
sg33
g34
sg51
g11
sg20
S'1'
sg65
g36
(g77
S'\x00\x00\x00\x00\x00\x00\x00\x00'
tRp816
sg44
g45
sg40
g41
sg25
F0.28085952298715711
sS'trials.thisIndex'
p817
g36
(g80
S'6\x00\x00\x00'
tRp818
sg26
V5
sS'trials.thisRepN'
p819
I0
sg66
Vmotorbike
p820
sg63
V../experiment_stimuli/bw_bc_bl/Nonliving_Things/Vehicles/motorbike_12.jpg
p821
sg21
F0.7217952377977781
sS'trials.thisTrialN'
p822
I66
sa(dp823
g31
g32
sg17
F259.52723355591297
sg24
I0
sg35
g39
sg14
F259.5223698511254
sg16
g36
(g70
S'\x02\x00\x00\x00'
tRp824
sg42
g43
sg46
g47
sg15
g72
sg22
F261.42715594370384
sg64
g125
sg62
g101
sg49
g50
sS'trials.thisN'
p825
I67
sg19
I0
sg27
g36
(g38
S'\x00\x00\x00\x00\x00\x00\x18@'
tRp826
sg52
g53
sg23
S'3'
sg18
F260.77499452064512
sg33
g34
sg51
g11
sg20
S'1'
sg65
g36
(g77
S'\x00\x00\x00\x00\x00\x00\x00\x00'
tRp827
sg44
g45
sg40
g41
sg25
F0.40111683792201802
sS'trials.thisIndex'
p828
g36
(g80
S'+\x00\x00\x00'
tRp829
sg26
V5
sS'trials.thisRepN'
p830
I0
sg66
Vkiller-whale
p831
sg63
V../experiment_stimuli/bw_bc_bl/Living_Things/Marine_creatures/killer-whale_13.jpg
p832
sg21
F0.6316010823356919
sS'trials.thisTrialN'
p833
I67
sa(dp834
g31
g32
sg17
F263.56603716884274
sg24
I1
sg35
g39
sg14
F263.56115661107469
sg16
g36
(g70
S'\x01\x00\x00\x00'
tRp835
sg42
g43
sg46
g47
sg15
g72
sg22
F265.61625704355538
sg64
g306
sg62
g74
sg49
g50
sS'trials.thisN'
p836
I68
sg19
I1
sg27
g36
(g38
S'\x00\x00\x00\x00\x00\x00\x1e@'
tRp837
sg52
g53
sg23
S'1'
sg18
F264.80375541665126
sg33
g34
sg51
g11
sg20
S'1'
sg65
g36
(g77
S'\x00\x00\x00\x00\x00\x00\x00\x00'
tRp838
sg44
g45
sg40
g41
sg25
F0.39107090694596991
sS'trials.thisIndex'
p839
g36
(g80
S'\x03\x00\x00\x00'
tRp840
sg26
V5
sS'trials.thisRepN'
p841
I0
sg66
Vaxe
p842
sg63
V../experiment_stimuli/bw_bc_bl/Nonliving_Things/Tools/axe_21.jpg
p843
sg21
F0.7819292001076974
sS'trials.thisTrialN'
p844
I68
sa(dp845
g31
g32
sg17
F267.74508449540008
sg24
I0
sg35
g39
sg14
F267.74023226019926
sg16
g36
(g70
S'\x02\x00\x00\x00'
tRp846
sg42
g43
sg46
g47
sg15
g72
sg22
F269.9456948475563
sg64
g125
sg62
g101
sg49
g50
sS'trials.thisN'
p847
I69
sg19
I1
sg27
g36
(g38
S'\x00\x00\x00\x00\x00\x00\x1a@'
tRp848
sg52
g53
sg23
S'2'
sg18
F268.9828538474394
sg33
g34
sg51
g11
sg20
S'2'
sg65
g36
(g77
S'\x00\x00\x00\x00\x00\x00\x00\x00'
tRp849
sg44
g45
sg40
g41
sg25
F0.28083088423591107
sS'trials.thisIndex'
p850
g36
(g80
S'^\x00\x00\x00'
tRp851
sg26
V5
sS'trials.thisRepN'
p852
I0
sg66
Vwhale
p853
sg63
V../experiment_stimuli/bw_bc_bl/Living_Things/Marine_creatures/whale_16.jpg
p854
sg21
F0.94229381321929395
sS'trials.thisTrialN'
p855
I69
sa(dp856
g31
g32
sg17
F271.9655233756057
sg24
I1
sg35
g39
sg14
F271.95939958363306
sg16
g36
(g70
S'\x02\x00\x00\x00'
tRp857
sg42
g43
sg46
g47
sg15
g124
sg22
F273.58358154445887
sg64
g73
sg62
g74
sg49
g50
sS'trials.thisN'
p858
I70
sg19
I1
sg27
g36
(g38
S'\x00\x00\x00\x00\x00\x00\x18@'
tRp859
sg52
g53
sg23
S'1'
sg18
F273.20200700918213
sg33
g34
sg51
g11
sg20
S'2'
sg65
g36
(g77
S'\x00\x00\x00\x00\x00\x00\x00\x00'
tRp860
sg44
g45
sg40
g41
sg25
F0.31089137465460226
sS'trials.thisIndex'
p861
g36
(g80
S'N\x00\x00\x00'
tRp862
sg26
V5
sS'trials.thisRepN'
p863
I0
sg66
Vsofa
p864
sg63
V../experiment_stimuli/bw_bc_bl/Nonliving_Things/Furniture/sofa_20.jpg
p865
sg21
F0.36100828490452841
sS'trials.thisTrialN'
p866
I70
sa(dp867
g31
g32
sg17
F275.6322523211129
sg24
I1
sg35
g39
sg14
F275.62738319142954
sg16
g36
(g70
S'\x01\x00\x00\x00'
tRp868
sg42
g43
sg46
g47
sg15
g124
sg22
F277.47202851407928
sg64
g272
sg62
g101
sg49
g50
sS'trials.thisN'
p869
I71
sg19
I0
sg27
g36
(g38
S'\x00\x00\x00\x00\x00\x00\x18@'
tRp870
sg52
g53
sg23
S'1'
sg18
F276.90005010418827
sg33
g34
sg51
g11
sg20
S'2'
sg65
g36
(g77
S'\x00\x00\x00\x00\x00\x00\x00\x00'
tRp871
sg44
g45
sg40
g41
sg25
F0.33096095942892134
sS'trials.thisIndex'
p872
g36
(g80
S'0\x00\x00\x00'
tRp873
sg26
V5
sS'trials.thisRepN'
p874
I0
sg66
Vlioness
p875
sg63
V../experiment_stimuli/bw_bc_bl/Living_Things/Animals/lioness_6.jpg
p876
sg21
F0.55142623808933422
sS'trials.thisTrialN'
p877
I71
sa(dp878
g31
g32
sg17
F279.54345370136434
sg24
I0
sg35
g39
sg14
F279.53587247908581
sg16
g36
(g70
S'\x02\x00\x00\x00'
tRp879
sg42
g43
sg46
g47
sg15
g72
sg22
F281.52082793123554
sg64
g100
sg62
g101
sg49
g50
sS'trials.thisN'
p880
I72
sg19
I1
sg27
g36
(g38
S'\x00\x00\x00\x00\x00\x00\x1a@'
tRp881
sg52
g53
sg23
S'2'
sg18
F280.8285864542122
sg33
g34
sg51
g11
sg20
S'2'
sg65
g36
(g77
S'\x00\x00\x00\x00\x00\x00\x00\x00'
tRp882
sg44
g45
sg40
g41
sg25
F0.37101849092869088
sS'trials.thisIndex'
p883
g36
(g80
S'\x04\x00\x00\x00'
tRp884
sg26
V5
sS'trials.thisRepN'
p885
I0
sg66
Vbarn-owl
p886
sg63
V../experiment_stimuli/bw_bc_bl/Living_Things/Birds/barn-owl_4.jpg
p887
sg21
F0.6716857940191403
sS'trials.thisTrialN'
p888
I72
sa(dp889
g31
g32
sg17
F283.62952686322387
sg24
I0
sg35
g39
sg14
F283.6247648447752
sg16
g36
(g70
S'\x01\x00\x00\x00'
tRp890
sg42
g43
sg46
g47
sg15
g72
sg22
F285.67989241221221
sg64
g73
sg62
g74
sg49
g50
sS'trials.thisN'
p891
I73
sg19
I1
sg27
g36
(g38
S'\x00\x00\x00\x00\x00\x00 @'
tRp892
sg52
g53
sg23
S'3'
sg18
F284.90745244105347
sg33
g34
sg51
g11
sg20
S'1'
sg65
g36
(g77
S'\x00\x00\x00\x00\x00\x00\x00\x00'
tRp893
sg44
g45
sg40
g41
sg25
F0.31089852849254385
sS'trials.thisIndex'
p894
g36
(g80
S'/\x00\x00\x00'
tRp895
sg26
V5
sS'trials.thisRepN'
p896
I0
sg66
Vlectern
p897
sg63
V../experiment_stimuli/bw_bc_bl/Nonliving_Things/Furniture/lectern_26.jpg
p898
sg21
F0.75185180373955518
sS'trials.thisTrialN'
p899
I73
sa(dp900
g31
g32
sg17
F287.7285718464409
sg24
I0
sg35
g39
sg14
F287.72367446939461
sg16
g36
(g70
S'\x02\x00\x00\x00'
tRp901
sg42
g43
sg46
g47
sg15
g72
sg22
F289.62846206966788
sg64
g100
sg62
g101
sg49
g50
sS'trials.thisN'
p902
I74
sg19
I1
sg27
g36
(g38
S'\x00\x00\x00\x00\x00\x00\x1c@'
tRp903
sg52
g53
sg23
S'3'
sg18
F288.99634746834636
sg33
g34
sg51
g11
sg20
S'2'
sg65
g36
(g77
S'\x00\x00\x00\x00\x00\x00\x00\x00'
tRp904
sg44
g45
sg40
g41
sg25
F0.22069477557670325
sS'trials.thisIndex'
p905
g36
(g80
S';\x00\x00\x00'
tRp906
sg26
V5
sS'trials.thisRepN'
p907
I0
sg66
Vpartridge
p908
sg63
V../experiment_stimuli/bw_bc_bl/Living_Things/Birds/partridge_8.jpg
p909
sg21
F0.61158045928459615
sS'trials.thisTrialN'
p910
I74
sa(dp911
g31
g32
sg17
F291.5871048871777
sg24
I0
sg35
g39
sg14
F291.58205821900629
sg16
g36
(g70
S'\x01\x00\x00\x00'
tRp912
sg42
g43
sg46
g47
sg15
g124
sg22
F293.33655068598455
sg64
g125
sg62
g101
sg49
g50
sS'trials.thisN'
p913
I75
sg19
I1
sg27
g36
(g38
S'\x00\x00\x00\x00\x00\x00\x1e@'
tRp914
sg52
g53
sg23
S'3'
sg18
F292.82466346415458
sg33
g34
sg51
g11
sg20
S'1'
sg65
g36
(g77
S'\x00\x00\x00\x00\x00\x00\x00\x00'
tRp915
sg44
g45
sg40
g41
sg25
F0.29085101501550525
sS'trials.thisIndex'
p916
g36
(g80
S'\x15\x00\x00\x00'
tRp917
sg26
V5
sS'trials.thisRepN'
p918
I0
sg66
Vcrab
p919
sg63
V../experiment_stimuli/bw_bc_bl/Living_Things/Marine_creatures/crab_5.jpg
p920
sg21
F0.49130339594557881
sS'trials.thisTrialN'
p921
I75
sa(dp922
g31
g32
sg17
F295.37506073561963
sg24
I1
sg35
g39
sg14
F295.37029303697636
sg16
g36
(g70
S'\x01\x00\x00\x00'
tRp923
sg42
g43
sg46
g47
sg15
g72
sg22
F297.48552131152246
sg64
g227
sg62
g74
sg49
g50
sS'trials.thisN'
p924
I76
sg19
I1
sg27
g36
(g38
S'\x00\x00\x00\x00\x00\x00\x18@'
tRp925
sg52
g53
sg23
S'1'
sg18
F296.60287536593387
sg33
g34
sg51
g11
sg20
S'1'
sg65
g36
(g77
S'\x00\x00\x00\x00\x00\x00\x00\x00'
tRp926
sg44
g45
sg40
g41
sg25
F0.34106205531861633
sS'trials.thisIndex'
p927
g36
(g80
S'\x07\x00\x00\x00'
tRp928
sg26
V5
sS'trials.thisRepN'
p929
I0
sg66
Vboat
p930
sg63
V../experiment_stimuli/bw_bc_bl/Nonliving_Things/Vehicles/boat_17.jpg
p931
sg21
F0.86209574370877817
sS'trials.thisTrialN'
p932
I76
sa(dp933
g31
g32
sg17
F299.56422317656688
sg24
I0
sg35
g39
sg14
F299.55940942233428
sg16
g36
(g70
S'\x02\x00\x00\x00'
tRp934
sg42
g43
sg46
g47
sg15
g124
sg22
F301.77487004303839
sg64
g159
sg62
g74
sg49
g50
sS'trials.thisN'
p935
I77
sg19
I1
sg27
g36
(g38
S'\x00\x00\x00\x00\x00\x00\x18@'
tRp936
sg52
g53
sg23
S'3'
sg18
F300.8020059383125
sg33
g34
sg51
g11
sg20
S'2'
sg65
g36
(g77
S'\x00\x00\x00\x00\x00\x00\x00\x00'
tRp937
sg44
g45
sg40
g41
sg25
F0.24076628871262074
sS'trials.thisIndex'
p938
g36
(g80
S'\x1f\x00\x00\x00'
tRp939
sg26
V5
sS'trials.thisRepN'
p940
I0
sg66
Vfrying-pan
p941
sg63
V../experiment_stimuli/bw_bc_bl/Nonliving_Things/Kitchen_Uten/frying-pan_4.jpg
p942
sg21
F0.95231855328893289
sS'trials.thisTrialN'
p943
I77
sa(dp944
g31
g32
sg17
F303.7532745814533
sg24
I0
sg35
g39
sg14
F303.74850968370447
sg16
g36
(g70
S'\x01\x00\x00\x00'
tRp945
sg42
g43
sg46
g47
sg15
g124
sg22
F305.80361668003025
sg64
g272
sg62
g101
sg49
g50
sS'trials.thisN'
p946
I78
sg19
I1
sg27
g36
(g38
S'\x00\x00\x00\x00\x00\x00\x18@'
tRp947
sg52
g53
sg23
S'2'
sg18
F304.9911098126322
sg33
g34
sg51
g11
sg20
S'1'
sg65
g36
(g77
S'\x00\x00\x00\x00\x00\x00\x00\x00'
tRp948
sg44
g45
sg40
g41
sg25
F0.26079153217142448
sS'trials.thisIndex'
p949
g36
(g80
S'R\x00\x00\x00'
tRp950
sg26
V5
sS'trials.thisRepN'
p951
I0
sg66
Vtapir
p952
sg63
V../experiment_stimuli/bw_bc_bl/Living_Things/Animals/tapir_22.jpg
p953
sg21
F0.79194815433584154
sS'trials.thisTrialN'
p954
I78
sa(dp955
g31
g32
sg17
F307.80366240086732
sg24
I1
sg35
g39
sg14
F307.79730437550461
sg16
g36
(g70
S'\x01\x00\x00\x00'
tRp956
sg42
g43
sg46
g47
sg15
g124
sg22
F309.37119418091606
sg64
g125
sg62
g101
sg49
g50
sS'trials.thisN'
p957
I79
sg19
I1
sg27
g36
(g38
S'\x00\x00\x00\x00\x00\x00\x1a@'
tRp958
sg52
g53
sg23
S'1'
sg18
F309.02990748966113
sg33
g34
sg51
g11
sg20
S'1'
sg65
g36
(g77
S'\x00\x00\x00\x00\x00\x00\x00\x00'
tRp959
sg44
g45
sg40
g41
sg25
F0.32091711828252301
sS'trials.thisIndex'
p960
g36
(g80
S'7\x00\x00\x00'
tRp961
sg26
V5
sS'trials.thisRepN'
p962
I0
sg66
Vnarwhal
p963
sg63
V../experiment_stimuli/bw_bc_bl/Living_Things/Marine_creatures/narwhal_5.jpg
p964
sg21
F0.32076072198105976
sS'trials.thisTrialN'
p965
I79
sa(dp966
g31
g32
sg17
F311.43016262928722
sg24
I1
sg35
g39
sg14
F311.42519060667837
sg16
g36
(g70
S'\x02\x00\x00\x00'
tRp967
sg42
g43
sg46
g47
sg15
g72
sg22
F313.55044412071584
sg64
g100
sg62
g101
sg49
g50
sS'trials.thisN'
p968
I80
sg19
I0
sg27
g36
(g38
S'\x00\x00\x00\x00\x00\x00\x18@'
tRp969
sg52
g53
sg23
S'1'
sg18
F312.67782190372236
sg33
g34
sg51
g11
sg20
S'1'
sg65
g36
(g77
S'\x00\x00\x00\x00\x00\x00\x00\x00'
tRp970
sg44
g45
sg40
g41
sg25
F0.42116960335988551
sS'trials.thisIndex'
p971
g36
(g80
S'3\x00\x00\x00'
tRp972
sg26
V5
sS'trials.thisRepN'
p973
I0
sg66
Vmagpie
p974
sg63
V../experiment_stimuli/bw_bc_bl/Living_Things/Birds/magpie_23.jpg
p975
sg21
F0.85208155628060922
sS'trials.thisTrialN'
p976
I80
sa(dp977
g31
g32
sg17
F315.70928936073324
sg24
I0
sg35
g39
sg14
F315.70449833548628
sg16
g36
(g70
S'\x02\x00\x00\x00'
tRp978
sg42
g43
sg46
g47
sg15
g124
sg22
F317.81971834669821
sg64
g73
sg62
g74
sg49
g50
sS'trials.thisN'
p979
I81
sg19
I1
sg27
g36
(g38
S'\x00\x00\x00\x00\x00\x00\x18@'
tRp980
sg52
g53
sg23
S'2'
sg18
F316.97716965386644
sg33
g34
sg51
g11
sg20
S'2'
sg65
g36
(g77
S'\x00\x00\x00\x00\x00\x00\x00\x00'
tRp981
sg44
g45
sg40
g41
sg25
F0.3209188511245884
sS'trials.thisIndex'
p982
g36
(g80
S'\x1d\x00\x00\x00'
tRp983
sg26
V5
sS'trials.thisRepN'
p984
I0
sg66
Vfilling-cabinet
p985
sg63
V../experiment_stimuli/bw_bc_bl/Nonliving_Things/Furniture/filling-cabinet_4.jpg
p986
sg21
F0.82201360340695828
sS'trials.thisTrialN'
p987
I81
sa(dp988
g31
g32
sg17
F319.87835149554303
sg24
I0
sg35
g39
sg14
F319.87356900010491
sg16
g36
(g70
S'\x01\x00\x00\x00'
tRp989
sg42
g43
sg46
g47
sg15
g72
sg22
F321.86853871122003
sg64
g73
sg62
g74
sg49
g50
sS'trials.thisN'
p990
I82
sg19
I1
sg27
g36
(g38
S'\x00\x00\x00\x00\x00\x00\x1a@'
tRp991
sg52
g53
sg23
S'3'
sg18
F321.13621092861285
sg33
g34
sg51
g11
sg20
S'1'
sg65
g36
(g77
S'\x00\x00\x00\x00\x00\x00\x00\x00'
tRp992
sg44
g45
sg40
g41
sg25
F0.290853924700059
sS'trials.thisIndex'
p993
g36
(g80
S'\x08\x00\x00\x00'
tRp994
sg26
V5
sS'trials.thisRepN'
p995
I0
sg66
Vbookcase
p996
sg63
V../experiment_stimuli/bw_bc_bl/Nonliving_Things/Furniture/bookcase_16.jpg
p997
sg21
F0.71177421236643568
sS'trials.thisTrialN'
p998
I82
sa(dp999
g31
g32
sg17
F323.8971545191016
sg24
I0
sg35
g39
sg14
F323.89229311898816
sg16
g36
(g70
S'\x02\x00\x00\x00'
tRp1000
sg42
g43
sg46
g47
sg15
g124
sg22
F325.50646489986684
sg64
g73
sg62
g74
sg49
g50
sS'trials.thisN'
p1001
I83
sg19
I1
sg27
g36
(g38
S'\x00\x00\x00\x00\x00\x00\x1a@'
tRp1002
sg52
g53
sg23
S'2'
sg18
F325.12488164292881
sg33
g34
sg51
g11
sg20
S'2'
sg65
g36
(g77
S'\x00\x00\x00\x00\x00\x00\x00\x00'
tRp1003
sg44
g45
sg40
g41
sg25
F0.2506101512699388
sS'trials.thisIndex'
p1004
g36
(g80
S'\x00\x00\x00\x00'
tRp1005
sg26
V5
sS'trials.thisRepN'
p1006
I0
sg66
VChest-of-drawers
p1007
sg63
V../experiment_stimuli/bw_bc_bl/Nonliving_Things/Furniture/Chest-of-drawers_4.jpg
p1008
sg21
F0.36102894227951765
sS'trials.thisTrialN'
p1009
I83
sa(dp1010
g31
g32
sg17
F327.49504710099427
sg24
I1
sg35
g39
sg14
F327.49011693854118
sg16
g36
(g70
S'\x01\x00\x00\x00'
tRp1011
sg42
g43
sg46
g47
sg15
g124
sg22
F329.11431522248313
sg64
g272
sg62
g101
sg49
g50
sS'trials.thisN'
p1012
I84
sg19
I0
sg27
g36
(g38
S'\x00\x00\x00\x00\x00\x00\x18@'
tRp1013
sg52
g53
sg23
S'1'
sg18
F328.72270062443567
sg33
g34
sg51
g11
sg20
S'2'
sg65
g36
(g77
S'\x00\x00\x00\x00\x00\x00\x00\x00'
tRp1014
sg44
g45
sg40
g41
sg25
F0.31091406993800774
sS'trials.thisIndex'
p1015
g36
(g80
S'\x10\x00\x00\x00'
tRp1016
sg26
V5
sS'trials.thisRepN'
p1017
I0
sg66
Vcheetah
p1018
sg63
V../experiment_stimuli/bw_bc_bl/Living_Things/Animals/cheetah_18.jpg
p1019
sg21
F0.37105040421010926
sS'trials.thisTrialN'
p1020
I84
sa(dp1021
g31
g32
sg17
F331.16292083822191
sg24
I0
sg35
g39
sg14
F331.1580927609466
sg16
g36
(g70
S'\x01\x00\x00\x00'
tRp1022
sg42
g43
sg46
g47
sg15
g124
sg22
F333.03300555201713
sg64
g272
sg62
g101
sg49
g50
sS'trials.thisN'
p1023
I85
sg19
I1
sg27
g36
(g38
S'\x00\x00\x00\x00\x00\x00\x18@'
tRp1024
sg52
g53
sg23
S'2'
sg18
F332.41071880637901
sg33
g34
sg51
g11
sg20
S'1'
sg65
g36
(g77
S'\x00\x00\x00\x00\x00\x00\x00\x00'
tRp1025
sg44
g45
sg40
g41
sg25
F0.31087893876247108
sS'trials.thisIndex'
p1026
g36
(g80
S"'\x00\x00\x00"
tRp1027
sg26
V5
sS'trials.thisRepN'
p1028
I0
sg66
Vhippopotamus
p1029
sg63
V../experiment_stimuli/bw_bc_bl/Living_Things/Animals/hippopotamus_21.jpg
p1030
sg21
F0.60172242001863196
sS'trials.thisTrialN'
p1031
I85
sa(dp1032
g31
g32
sg17
F335.08139343047515
sg24
I0
sg35
g39
sg14
F335.07661267544609
sg16
g36
(g70
S'\x02\x00\x00\x00'
tRp1033
sg42
g43
sg46
g47
sg15
g72
sg22
F337.05154995166231
sg64
g100
sg62
g101
sg49
g50
sS'trials.thisN'
p1034
I86
sg19
I1
sg27
g36
(g38
S'\x00\x00\x00\x00\x00\x00\x18@'
tRp1035
sg52
g53
sg23
S'2'
sg18
F336.31922969128937
sg33
g34
sg51
g11
sg20
S'2'
sg65
g36
(g77
S'\x00\x00\x00\x00\x00\x00\x00\x00'
tRp1036
sg44
g45
sg40
g41
sg25
F0.39106609468581155
sS'trials.thisIndex'
p1037
g36
(g80
S'J\x00\x00\x00'
tRp1038
sg26
V5
sS'trials.thisRepN'
p1039
I0
sg66
Vseagull
p1040
sg63
V../experiment_stimuli/bw_bc_bl/Living_Things/Birds/seagull_3.jpg
p1041
sg21
F0.71177940379129723
sS'trials.thisTrialN'
p1042
I86
sa(dp1043
g31
g32
sg17
F339.181987218617
sg24
I0
sg35
g39
sg14
F339.17552048055222
sg16
g36
(g70
S'\x02\x00\x00\x00'
tRp1044
sg42
g43
sg46
g47
sg15
g72
sg22
F340.67943094979273
sg64
g272
sg62
g101
sg49
g50
sS'trials.thisN'
p1045
I87
sg19
I1
sg27
g36
(g38
S'\x00\x00\x00\x00\x00\x00\x1a@'
tRp1046
sg52
g53
sg23
S'2'
sg18
F340.4081011589733
sg33
g34
sg51
g11
sg20
S'2'
sg65
g36
(g77
S'\x00\x00\x00\x00\x00\x00\x00\x00'
tRp1047
sg44
g45
sg40
g41
sg25
F1.242927270650398
sS'trials.thisIndex'
p1048
g36
(g80
S'\x1b\x00\x00\x00'
tRp1049
sg26
V5
sS'trials.thisRepN'
p1050
I0
sg66
Velephant
p1051
sg63
V../experiment_stimuli/bw_bc_bl/Living_Things/Animals/elephant_4.jpg
p1052
sg21
F0.25076570938108489
sS'trials.thisTrialN'
p1053
I87
sa(dp1054
g31
g32
sg17
F343.66016167082125
sg24
I1
sg35
g39
sg14
F343.65527262049727
sg16
g36
(g70
S'\x01\x00\x00\x00'
tRp1055
sg42
g43
sg46
g47
sg15
g72
sg22
F345.45983425405575
sg64
g88
sg62
g74
sg49
g50
sS'trials.thisN'
p1056
I88
sg19
I1
sg27
g36
(g38
S'\x00\x00\x00\x00\x00\x00\x18@'
tRp1057
sg52
g53
sg23
S'1'
sg18
F344.88784150959691
sg33
g34
sg51
g11
sg20
S'1'
sg65
g36
(g77
S'\x00\x00\x00\x00\x00\x00\x00\x00'
tRp1058
sg44
g45
sg40
g41
sg25
F0.29085352265974507
sS'trials.thisIndex'
p1059
g36
(g80
S'>\x00\x00\x00'
tRp1060
sg26
V5
sS'trials.thisRepN'
p1061
I0
sg66
Vpiano
p1062
sg63
V../experiment_stimuli/bw_bc_bl/Nonliving_Things/Musical_Inst/piano__18.jpg
p1063
sg21
F0.55142626812448725
sS'trials.thisTrialN'
p1064
I88
sa(dp1065
g31
g32
sg17
F347.49848391825799
sg24
I1
sg35
g39
sg14
F347.49360269133467
sg16
g36
(g70
S'\x02\x00\x00\x00'
tRp1066
sg42
g43
sg46
g47
sg15
g124
sg22
F349.19795779365813
sg64
g88
sg62
g74
sg49
g50
sS'trials.thisN'
p1067
I89
sg19
I0
sg27
g36
(g38
S'\x00\x00\x00\x00\x00\x00\x1e@'
tRp1068
sg52
g53
sg23
S'1'
sg18
F348.74622755992459
sg33
g34
sg51
g11
sg20
S'1'
sg65
g36
(g77
S'\x00\x00\x00\x00\x00\x00\x00\x00'
tRp1069
sg44
g45
sg40
g41
sg25
F0.35100907826563343
sS'trials.thisIndex'
p1070
g36
(g80
S'\\\x00\x00\x00'
tRp1071
sg26
V5
sS'trials.thisRepN'
p1072
I0
sg66
Vviolin
p1073
sg63
V../experiment_stimuli/bw_bc_bl/Nonliving_Things/Musical_Inst/violin_7.jpg
p1074
sg21
F0.43116049037780613
sS'trials.thisTrialN'
p1075
I89
sa(dp1076
g31
g32
sg17
F351.28989198798081
sg24
I0
sg35
g39
sg14
F351.28183355840156
sg16
g36
(g70
S'\x01\x00\x00\x00'
tRp1077
sg42
g43
sg46
g47
sg15
g72
sg22
F353.33695974602597
sg64
g73
sg62
g74
sg49
g50
sS'trials.thisN'
p1078
I90
sg19
I1
sg27
g36
(g38
S'\x00\x00\x00\x00\x00\x00\x18@'
tRp1079
sg52
g53
sg23
S'3'
sg18
F352.56452837627148
sg33
g34
sg51
g11
sg20
S'1'
sg65
g36
(g77
S'\x00\x00\x00\x00\x00\x00\x00\x00'
tRp1080
sg44
g45
sg40
g41
sg25
F0.29085021803621203
sS'trials.thisIndex'
p1081
g36
(g80
S'\x0f\x00\x00\x00'
tRp1082
sg26
V5
sS'trials.thisRepN'
p1083
I0
sg66
Vchair
p1084
sg63
V../experiment_stimuli/bw_bc_bl/Nonliving_Things/Furniture/chair_9.jpg
p1085
sg21
F0.75186262320494279
sS'trials.thisTrialN'
p1086
I90
sa(dp1087
g31
g32
sg17
F355.36569137964398
sg24
I0
sg35
g39
sg14
F355.36070933821611
sg16
g36
(g70
S'\x01\x00\x00\x00'
tRp1088
sg42
g43
sg46
g47
sg15
g124
sg22
F357.22544556466164
sg64
g125
sg62
g101
sg49
g50
sS'trials.thisN'
p1089
I91
sg19
I1
sg27
g36
(g38
S'\x00\x00\x00\x00\x00\x00\x18@'
tRp1090
sg52
g53
sg23
S'3'
sg18
F356.61332796269562
sg33
g34
sg51
g11
sg20
S'1'
sg65
g36
(g77
S'\x00\x00\x00\x00\x00\x00\x00\x00'
tRp1091
sg44
g45
sg40
g41
sg25
F0.29087656352203339
sS'trials.thisIndex'
p1092
g36
(g80
S'1\x00\x00\x00'
tRp1093
sg26
V5
sS'trials.thisRepN'
p1094
I0
sg66
Vlobster
p1095
sg63
V../experiment_stimuli/bw_bc_bl/Living_Things/Marine_creatures/lobster_14.jpg
p1096
sg21
F0.59153816377511248
sS'trials.thisTrialN'
p1097
I91
sa(dp1098
g31
g32
sg17
F359.26403505681083
sg24
I1
sg35
g39
sg14
F359.25919884035829
sg16
g36
(g70
S'\x02\x00\x00\x00'
tRp1099
sg42
g43
sg46
g47
sg15
g72
sg22
F361.44460041821003
sg64
g125
sg62
g101
sg49
g50
sS'trials.thisN'
p1100
I92
sg19
I1
sg27
g36
(g38
S'\x00\x00\x00\x00\x00\x00\x1c@'
tRp1101
sg52
g53
sg23
S'1'
sg18
F360.49177250021603
sg33
g34
sg51
g11
sg20
S'2'
sg65
g36
(g77
S'\x00\x00\x00\x00\x00\x00\x00\x00'
tRp1102
sg44
g45
sg40
g41
sg25
F0.32092382496921346
sS'trials.thisIndex'
p1103
g36
(g80
S'K\x00\x00\x00'
tRp1104
sg26
V5
sS'trials.thisRepN'
p1105
I0
sg66
Vshark
p1106
sg63
V../experiment_stimuli/bw_bc_bl/Living_Things/Marine_creatures/shark_21.jpg
p1107
sg21
F0.93228289287071675
sS'trials.thisTrialN'
p1108
I92
sa(dp1109
g31
g32
sg17
F363.51322678482393
sg24
I1
sg35
g39
sg14
F363.50841174850939
sg16
g36
(g70
S'\x02\x00\x00\x00'
tRp1110
sg42
g43
sg46
g47
sg15
g72
sg22
F365.11254351923708
sg64
g100
sg62
g101
sg49
g50
sS'trials.thisN'
p1111
I93
sg19
I1
sg27
g36
(g38
S'\x00\x00\x00\x00\x00\x00\x1a@'
tRp1112
sg52
g53
sg23
S'1'
sg18
F364.77106760517927
sg33
g34
sg51
g11
sg20
S'2'
sg65
g36
(g77
S'\x00\x00\x00\x00\x00\x00\x00\x00'
tRp1113
sg44
g45
sg40
g41
sg25
F0.23071725969202816
sS'trials.thisIndex'
p1114
g36
(g80
S'&\x00\x00\x00'
tRp1115
sg26
V5
sS'trials.thisRepN'
p1116
I0
sg66
Vhen
p1117
sg63
V../experiment_stimuli/bw_bc_bl/Living_Things/Birds/hen_8.jpg
p1118
sg21
F0.32092436630045995
sS'trials.thisTrialN'
p1119
I93
sa(dp1120
g31
g32
sg17
F367.08090014499612
sg24
I0
sg35
g39
sg14
F367.07617335946998
sg16
g36
(g70
S'\x01\x00\x00\x00'
tRp1121
sg42
g43
sg46
g47
sg15
g72
sg22
F369.04113054519985
sg64
g73
sg62
g74
sg49
g50
sS'trials.thisN'
p1122
I94
sg19
I1
sg27
g36
(g38
S'\x00\x00\x00\x00\x00\x00\x1a@'
tRp1123
sg52
g53
sg23
S'3'
sg18
F368.34884744865121
sg33
g34
sg51
g11
sg20
S'1'
sg65
g36
(g77
S'\x00\x00\x00\x00\x00\x00\x00\x00'
tRp1124
sg44
g45
sg40
g41
sg25
F0.30089520203182474
sS'trials.thisIndex'
p1125
g36
(g80
S'.\x00\x00\x00'
tRp1126
sg26
V5
sS'trials.thisRepN'
p1127
I0
sg66
Vlamp
p1128
sg63
V../experiment_stimuli/bw_bc_bl/Nonliving_Things/Furniture/lamp_16.jpg
p1129
sg21
F0.67171693639829755
sS'trials.thisTrialN'
p1130
I94
sa(dp1131
g31
g32
sg17
F371.07968781614909
sg24
I0
sg35
g39
sg14
F371.07486900186632
sg16
g36
(g70
S'\x02\x00\x00\x00'
tRp1132
sg42
g43
sg46
g47
sg15
g124
sg22
F372.75919639854692
sg64
g159
sg62
g74
sg49
g50
sS'trials.thisN'
p1133
I95
sg19
I0
sg27
g36
(g38
S'\x00\x00\x00\x00\x00\x00\x1c@'
tRp1134
sg52
g53
sg23
S'2'
sg18
F372.31746990123065
sg33
g34
sg51
g11
sg20
S'1'
sg65
g36
(g77
S'\x00\x00\x00\x00\x00\x00\x00\x00'
tRp1135
sg44
g45
sg40
g41
sg25
F0.30089372082147747
sS'trials.thisIndex'
p1136
g36
(g80
S'B\x00\x00\x00'
tRp1137
sg26
V5
sS'trials.thisRepN'
p1138
I0
sg66
Vpot
p1139
sg63
V../experiment_stimuli/bw_bc_bl/Nonliving_Things/Kitchen_Uten/pot_12.jpg
p1140
sg21
F0.42116920131957158
sS'trials.thisTrialN'
p1141
I95
sasS'loops'
p1142
(lp1143
g1
(cpsychopy.data
TrialHandler
p1144
g3
NtRp1145
(dp1146
S'origin'
p1147
NsS'thisTrial'
p1148
(lp1149
sS'_exp'
p1150
I97820944
sg10
S'trials'
p1151
sg6
I-1
sS'thisRepN'
p1152
I1
sg28
I01
sg29
g30
sS'data'
p1153
g1
(cpsychopy.data
DataHandler
p1154
c__builtin__
dict
p1155
(dp1156
g20
cnumpy.core.multiarray
_reconstruct
p1157
(cnumpy
ndarray
p1158
(I0
tS'b'
tRp1159
(I1
(I96
I1
tg37
(S'O4'
I0
I1
tRp1160
(I3
S'|'
NNNI-1
I-1
I63
tbI00
(lp1161
S'2'
aS'2'
aS'1'
aS'1'
aS'2'
aS'2'
aS'1'
aS'1'
aS'1'
aS'1'
aS'2'
aS'1'
aS'2'
aS'2'
aS'2'
aS'1'
aS'2'
aS'2'
aS'1'
aS'2'
aS'2'
aS'1'
aS'2'
aS'1'
aS'2'
aS'2'
aS'1'
aS'2'
aS'2'
aS'2'
aS'1'
aS'2'
aS'2'
aS'1'
aS'1'
aS'1'
aS'2'
aS'2'
aS'2'
aS'1'
aS'1'
aS'1'
aS'2'
aS'1'
aS'1'
aS'2'
aS'1'
aS'1'
aS'2'
aS'1'
aS'2'
aS'1'
aS'2'
aS'2'
aS'1'
aS'1'
aS'1'
aS'2'
aS'2'
aS'2'
aS'1'
aS'1'
aS'1'
aS'2'
aS'1'
aS'1'
aS'1'
aS'1'
aS'2'
aS'1'
aS'1'
aS'2'
aS'1'
aS'2'
aS'2'
aS'2'
aS'1'
aS'2'
aS'2'
aS'1'
aS'2'
aS'2'
aS'1'
aS'1'
aS'1'
aS'2'
aS'1'
aS'2'
aS'2'
aS'1'
aS'2'
aS'1'
aS'1'
aS'2'
aS'2'
aS'1'
atbsg17
cnumpy.ma.core
_mareconstruct
p1162
(cnumpy.ma.core
MaskedArray
p1163
g1158
(I0
tp1164
S'b'
tRp1165
(I1
(I96
I1
tg37
(S'f4'
I0
I1
tRp1166
(I3
S'<'
NNNI-1
I-1
I0
tbI00
S"\xd6\xf2\xa1C\xdcF'C\xeb\xba\x82Bt\xc8\x83C\x90\xc5\x8bC\x9b\xb32C\x00\x1cwB\x02\xb0\x93Cn\xf0\x9fC\xf1\xebWB\xd4\x9a\x13C\xee\xcc{CH\tlC\x8f\xfe\xf1B\x90\xfb\x17B\x1b\xa5\xafC^\xbf\xa3C\xb1*5B\xb3\x83\xf3A\x8dV\x0cC\x84\x0f\xe3B&\xcb\x91CE\x12EC~\xd3\xb8A\xe2~\xc5B\xd1rhC\n\x86\x17CK\x97\xa9C\xf7\x06\xb7B\xca\xda\x9dC\xfe\xbd\x90B8\xc8\x95C\xfc\xd8\xdbB\x1dExA\x05l\x04C\xf2\xab\tB\x90.\\C\x1c\xef\x9fB\xb1\xc1\xb5C\xdb\x94\xa5Ce\xfewC\xa2j&B\x1eL\xeaB|\xc3\x81C\xebVdCd\xbaLC[\x8a\xb7C\x94\xd0\x8dC\xee\xd0\x89C\xcf\xae\xb1C\x8fh\xd4B\x10\xb7\x9bCO\xa2oC\xa4\xef\x0fC\x0c}\x7fC\xde\xe6\x99C\x02oXC!F\xcdBW=\xbeBB\xdd\x8fCz\x1fAC\x9e(\x98B\x80\xd4\xabC\xf4\x9f.C\xebO\x00C\x89\xa6\x9bA3\x8a\xb9C\xa1ogB\xa6\xe7sC\xc7>o@\xc2\x9e\x1fC\xe8^`CwcPCn\xea*Ck\x8a\xa7C\xcc\xa1\xb3C\xa6m#CP\x17\xa7B\x96\xfb\x87C\x96\xaeEB\x17@\xd6Ax\xafTCk\xe0\x97C\xa5\xb29C\x13\x9f\x1bC\xf7\x866A\x0e^\xafBH\xcfHC\x0336C\x0f\x1e\xf5@\x05T\xf9B\xd1\x15=C\xce\xbf\xadC\r\\\x08C_\xdf\x85C\x07h\x89B"
S'\x00\x00\x00\x00\x00\x00\x00\x00\x00\x00\x00\x00\x00\x00\x00\x00\x00\x00\x00\x00\x00\x00\x00\x00\x00\x00\x00\x00\x00\x00\x00\x00\x00\x00\x00\x00\x00\x00\x00\x00\x00\x00\x00\x00\x00\x00\x00\x00\x00\x00\x00\x00\x00\x00\x00\x00\x00\x00\x00\x00\x00\x00\x00\x00\x00\x00\x00\x00\x00\x00\x00\x00\x00\x00\x00\x00\x00\x00\x00\x00\x00\x00\x00\x00\x00\x00\x00\x00\x00\x00\x00\x00\x00\x00\x00\x00'
NtbsS'ran'
p1167
g1162
(g1163
g1158
g1164
S'b'
tRp1168
(I1
(I96
I1
tg1166
I00
S'\x00\x00\x80?\x00\x00\x80?\x00\x00\x80?\x00\x00\x80?\x00\x00\x80?\x00\x00\x80?\x00\x00\x80?\x00\x00\x80?\x00\x00\x80?\x00\x00\x80?\x00\x00\x80?\x00\x00\x80?\x00\x00\x80?\x00\x00\x80?\x00\x00\x80?\x00\x00\x80?\x00\x00\x80?\x00\x00\x80?\x00\x00\x80?\x00\x00\x80?\x00\x00\x80?\x00\x00\x80?\x00\x00\x80?\x00\x00\x80?\x00\x00\x80?\x00\x00\x80?\x00\x00\x80?\x00\x00\x80?\x00\x00\x80?\x00\x00\x80?\x00\x00\x80?\x00\x00\x80?\x00\x00\x80?\x00\x00\x80?\x00\x00\x80?\x00\x00\x80?\x00\x00\x80?\x00\x00\x80?\x00\x00\x80?\x00\x00\x80?\x00\x00\x80?\x00\x00\x80?\x00\x00\x80?\x00\x00\x80?\x00\x00\x80?\x00\x00\x80?\x00\x00\x80?\x00\x00\x80?\x00\x00\x80?\x00\x00\x80?\x00\x00\x80?\x00\x00\x80?\x00\x00\x80?\x00\x00\x80?\x00\x00\x80?\x00\x00\x80?\x00\x00\x80?\x00\x00\x80?\x00\x00\x80?\x00\x00\x80?\x00\x00\x80?\x00\x00\x80?\x00\x00\x80?\x00\x00\x80?\x00\x00\x80?\x00\x00\x80?\x00\x00\x80?\x00\x00\x80?\x00\x00\x80?\x00\x00\x80?\x00\x00\x80?\x00\x00\x80?\x00\x00\x80?\x00\x00\x80?\x00\x00\x80?\x00\x00\x80?\x00\x00\x80?\x00\x00\x80?\x00\x00\x80?\x00\x00\x80?\x00\x00\x80?\x00\x00\x80?\x00\x00\x80?\x00\x00\x80?\x00\x00\x80?\x00\x00\x80?\x00\x00\x80?\x00\x00\x80?\x00\x00\x80?\x00\x00\x80?\x00\x00\x80?\x00\x00\x80?\x00\x00\x80?\x00\x00\x80?\x00\x00\x80?\x00\x00\x80?'
S'\x00\x00\x00\x00\x00\x00\x00\x00\x00\x00\x00\x00\x00\x00\x00\x00\x00\x00\x00\x00\x00\x00\x00\x00\x00\x00\x00\x00\x00\x00\x00\x00\x00\x00\x00\x00\x00\x00\x00\x00\x00\x00\x00\x00\x00\x00\x00\x00\x00\x00\x00\x00\x00\x00\x00\x00\x00\x00\x00\x00\x00\x00\x00\x00\x00\x00\x00\x00\x00\x00\x00\x00\x00\x00\x00\x00\x00\x00\x00\x00\x00\x00\x00\x00\x00\x00\x00\x00\x00\x00\x00\x00\x00\x00\x00\x00'
Ntbsg24
g1162
(g1163
g1158
g1164
S'b'
tRp1169
(I1
(I96
I1
tg1166
I00
S'\x00\x00\x00\x00\x00\x00\x80?\x00\x00\x80?\x00\x00\x80?\x00\x00\x00\x00\x00\x00\x00\x00\x00\x00\x00\x00\x00\x00\x80?\x00\x00\x00\x00\x00\x00\x00\x00\x00\x00\x00\x00\x00\x00\x80?\x00\x00\x80?\x00\x00\x80?\x00\x00\x80?\x00\x00\x00\x00\x00\x00\x80?\x00\x00\x00\x00\x00\x00\x00\x00\x00\x00\x80?\x00\x00\x00\x00\x00\x00\x00\x00\x00\x00\x80?\x00\x00\x00\x00\x00\x00\x00\x00\x00\x00\x80?\x00\x00\x00\x00\x00\x00\x00\x00\x00\x00\x80?\x00\x00\x00\x00\x00\x00\x00\x00\x00\x00\x00\x00\x00\x00\x80?\x00\x00\x80?\x00\x00\x00\x00\x00\x00\x80?\x00\x00\x00\x00\x00\x00\x80?\x00\x00\x80?\x00\x00\x00\x00\x00\x00\x80?\x00\x00\x00\x00\x00\x00\x00\x00\x00\x00\x00\x00\x00\x00\x00\x00\x00\x00\x80?\x00\x00\x00\x00\x00\x00\x00\x00\x00\x00\x80?\x00\x00\x00\x00\x00\x00\x80?\x00\x00\x80?\x00\x00\x00\x00\x00\x00\x80?\x00\x00\x00\x00\x00\x00\x80?\x00\x00\x80?\x00\x00\x00\x00\x00\x00\x80?\x00\x00\x00\x00\x00\x00\x00\x00\x00\x00\x00\x00\x00\x00\x80?\x00\x00\x00\x00\x00\x00\x80?\x00\x00\x00\x00\x00\x00\x00\x00\x00\x00\x00\x00\x00\x00\x00\x00\x00\x00\x80?\x00\x00\x00\x00\x00\x00\x00\x00\x00\x00\x00\x00\x00\x00\x80?\x00\x00\x00\x00\x00\x00\x80?\x00\x00\x00\x00\x00\x00\x80?\x00\x00\x80?\x00\x00\x80?\x00\x00\x00\x00\x00\x00\x80?\x00\x00\x00\x00\x00\x00\x00\x00\x00\x00\x80?\x00\x00\x00\x00\x00\x00\x00\x00\x00\x00\x00\x00\x00\x00\x80?\x00\x00\x00\x00\x00\x00\x80?\x00\x00\x80?\x00\x00\x80?\x00\x00\x00\x00\x00\x00\x00\x00\x00\x00\x80?'
S'\x00\x00\x00\x00\x00\x00\x00\x00\x00\x00\x00\x00\x00\x00\x00\x00\x00\x00\x00\x00\x00\x00\x00\x00\x00\x00\x00\x00\x00\x00\x00\x00\x00\x00\x00\x00\x00\x00\x00\x00\x00\x00\x00\x00\x00\x00\x00\x00\x00\x00\x00\x00\x00\x00\x00\x00\x00\x00\x00\x00\x00\x00\x00\x00\x00\x00\x00\x00\x00\x00\x00\x00\x00\x00\x00\x00\x00\x00\x00\x00\x00\x00\x00\x00\x00\x00\x00\x00\x00\x00\x00\x00\x00\x00\x00\x00'
Ntbsg14
g1162
(g1163
g1158
g1164
S'b'
tRp1170
(I1
(I96
I1
tg1166
I00
S"7\xf2\xa1C\x97E'Cy\xb8\x82B\xd4\xc7\x83C\x97\xc4\x8bCY\xb22C\x0b\x17wBf\xaf\x93C\xd1\xef\x9fC\xf9\xe6WB\\\x99\x13C\xab\xcb{C\x07\x08lC\x82\xfb\xf1B\x9b\xf6\x17B\x13\xa4\xafC\xbc\xbe\xa3C\x94%5B\xa1y\xf3ARU\x0cC\xcc\x0c\xe3B\x81\xca\x91C\r\x11EC\xa3\xc9\xb8AY|\xc5B\x89qhC\x81\x84\x17Cw\x96\xa9C\xa7\x03\xb7B-\xda\x9dC&\xbb\x90B\x9b\xc7\x95C\x96\xd5\xdbB\xf50xA\x83j\x04C\xf2\xa6\tBE-\\C\x91\xec\x9fB\x14\xc1\xb5C<\x94\xa5C\xbf\xfcwC\te&B)I\xeaB\xdd\xc2\x81C\xa6UdC&\xb9LC\xc0\x89\xb7C\xf8\xcf\x8dCN\xd0\x89C,\xae\xb1C\xede\xd4Bm\xb6\x9bC\x0f\xa1oC\\\xee\x0fC\xcc{\x7fC\x0e\xe6\x99C\xbfmXC=C\xcdB\xdf:\xbeB\xa1\xdc\x8fC6\x1eAC\xae%\x98B\xe0\xd3\xabC(\x9e.C\xa1N\x00C\xac\x9a\x9bA\x95\x89\xb9C|jgB\xfe\xe5sC>\xd8m@}\x9d\x1fC\xae]`C\x96aPC\xe5\xe8*C\xce\x89\xa7C-\xa1\xb3Cil#Cd\x14\xa7B\xce\xfa\x87C\x9f\xa9EB#6\xd6A8\xaeTC\xcf\xdf\x97C\x1f\xb19C\xd3\x9d\x1bC\xc5r6A\x8e[\xafB\x03\xceHC\xbc16C\xb2\xf4\xf4@\x84Q\xf9BJ\x14=C.\xbf\xadC\xc9Z\x08C\xc0\xde\x85C'e\x89B"
S'\x00\x00\x00\x00\x00\x00\x00\x00\x00\x00\x00\x00\x00\x00\x00\x00\x00\x00\x00\x00\x00\x00\x00\x00\x00\x00\x00\x00\x00\x00\x00\x00\x00\x00\x00\x00\x00\x00\x00\x00\x00\x00\x00\x00\x00\x00\x00\x00\x00\x00\x00\x00\x00\x00\x00\x00\x00\x00\x00\x00\x00\x00\x00\x00\x00\x00\x00\x00\x00\x00\x00\x00\x00\x00\x00\x00\x00\x00\x00\x00\x00\x00\x00\x00\x00\x00\x00\x00\x00\x00\x00\x00\x00\x00\x00\x00'
Ntbsg16
g1157
(g1158
(I0
tS'b'
tRp1171
(I1
(I96
I1
tg1160
I00
(lp1172
g1000
ag560
ag260
ag835
ag879
ag593
ag249
ag923
ag989
ag226
ag505
ag802
ag758
ag428
ag182
ag1077
ag1011
ag204
ag158
ag483
ag406
ag912
ag648
ag136
ag361
ag747
ag516
ag1044
ag339
ag978
ag283
ag934
ag395
ag112
ag461
ag170
ag714
ag305
ag1110
ag1022
ag791
ag193
ag417
ag824
ag736
ag670
ag1121
ag890
ag868
ag1088
ag384
ag967
ag769
ag494
ag813
ag956
ag703
ag373
ag350
ag901
ag637
ag294
ag1055
ag582
ag450
ag123
ag1132
ag238
ag780
ag71
ag538
ag725
ag681
ag571
ag1033
ag1099
ag549
ag317
ag857
ag215
ag147
ag692
ag945
ag615
ag527
ag99
ag328
ag659
ag604
ag87
ag439
ag626
ag1066
ag472
ag846
ag271
atbsg15
g1157
(g1158
(I0
tS'b'
tRp1173
(I1
(I96
I1
tg1160
I00
(lp1174
g124
ag72
ag124
ag72
ag72
ag72
ag124
ag72
ag72
ag72
ag72
ag124
ag124
ag124
ag124
ag72
ag124
ag124
ag72
ag72
ag72
ag124
ag124
ag72
ag72
ag124
ag124
ag72
ag124
ag124
ag124
ag124
ag72
ag72
ag124
ag72
ag124
ag124
ag72
ag124
ag72
ag72
ag124
ag72
ag124
ag72
ag72
ag72
ag124
ag124
ag124
ag72
ag72
ag124
ag72
ag124
ag124
ag72
ag124
ag72
ag124
ag124
ag72
ag72
ag72
ag124
ag124
ag124
ag72
ag72
ag124
ag124
ag124
ag72
ag72
ag72
ag72
ag72
ag124
ag72
ag124
ag72
ag124
ag124
ag72
ag72
ag72
ag72
ag72
ag72
ag72
ag124
ag124
ag124
ag72
ag72
atbsg22
g1162
(g1163
g1158
g1164
S'b'
tRp1175
(I1
(I96
I1
tg1166
I00
S'\xd4\xc0\xa2Cj\xd3(C\x80I\x85B\xe2\xce\x84C\xaa\xc2\x8cC\xfe\x114CdN}B&\xbe\x94C,\xef\xa0C\xa8=_B@\x8b\x15Clk}C\xf9\x9amC;@\xf5BmB\x1eB!\xab\xb0C\xa2\x8e\xa4C\xc8|=B\xd2o\x01B%\xe3\rC>G\xe6B\x14\xab\x92Cg\xb3FC\xaa\xc7\xc5A3<\xc9B\xa3\tjC\xea\x8a\x19C\xf8V\xaaCq$\xbaB\xed\xe8\x9eC\x7f\x14\x94B/\xe3\x96Ce\xf6\xdeBM\xda\x8aA$R\x06C\xd2\xf2\x0fByR^C\xa2\x17\xa3Bh\x8e\xb6C:\x84\xa6C\x96\xc5yC\x1e\xbb,B\xf3\xdf\xedB\xad\xb6\x82C/&fC_VNCD\x85\xb8C\x07\xd7\x8eCk\xbc\x8aC\xdb\x9c\xb2C\xc9\xaf\xd7Bu\xc6\x9cC\x12\xe5qC\x97\x8b\x11C\x1c\xc1\x80C\x83\xaf\x9aC\xaa\x12ZCGn\xd0B\xf1e\xc1Bq\xd0\x90C$\xfeBC\x02\xd1\x9bB\xdc\xba\xacC#\xa70C*Z\x02Ch\x84\xa8A-a\xbaC\xb2\xfenB`\xfeuC=\x90\xb3@\xc2c!CDWbC{SRCa\x90,C\x99\x86\xa8C\xe9\xb8\xb4Cu\x16%C!E\xabB\xb3\xca\x88C\x0epKB{]\xe3A\x02NVC\xdd\xe6\x98C\xd0\xfe:CG\x92\x1dC\x9c\xcfWA:\xed\xb2B\x9a\xc7JC\x9a\xad7C\xce\x10\x16A\xd3\x86\xfcB\x82\xb1>CW\x99\xaeC\xefV\nC\r\xf9\x86C0\x90\x8cB'
S'\x00\x00\x00\x00\x00\x00\x00\x00\x00\x00\x00\x00\x00\x00\x00\x00\x00\x00\x00\x00\x00\x00\x00\x00\x00\x00\x00\x00\x00\x00\x00\x00\x00\x00\x00\x00\x00\x00\x00\x00\x00\x00\x00\x00\x00\x00\x00\x00\x00\x00\x00\x00\x00\x00\x00\x00\x00\x00\x00\x00\x00\x00\x00\x00\x00\x00\x00\x00\x00\x00\x00\x00\x00\x00\x00\x00\x00\x00\x00\x00\x00\x00\x00\x00\x00\x00\x00\x00\x00\x00\x00\x00\x00\x00\x00\x00'
Ntbsg26
g1157
(g1158
(I0
tS'b'
tRp1176
(I1
(I96
I1
tg1160
I00
(lp1177
g36
(g80
S'\x01\x00\x00\x00'
tRp1178
aI1
aI1
aI1
ag36
(g80
S'\x07\x00\x00\x00'
tRp1179
ag36
(g80
S'\x01\x00\x00\x00'
tRp1180
aI1
aI1
ag36
(g80
S'\x04\x00\x00\x00'
tRp1181
ag36
(g80
S'\x04\x00\x00\x00'
tRp1182
ag36
(g80
S'\x07\x00\x00\x00'
tRp1183
ag36
(g80
S'\x04\x00\x00\x00'
tRp1184
ag36
(g80
S'\x02\x00\x00\x00'
tRp1185
ag36
(g80
S'\x01\x00\x00\x00'
tRp1186
ag36
(g80
S'\x03\x00\x00\x00'
tRp1187
ag36
(g80
S'\x06\x00\x00\x00'
tRp1188
aI1
ag36
(g80
S'\x03\x00\x00\x00'
tRp1189
ag36
(g80
S'\x03\x00\x00\x00'
tRp1190
ag36
(g80
S'\x02\x00\x00\x00'
tRp1191
ag36
(g80
S'\x03\x00\x00\x00'
tRp1192
ag36
(g80
S'\x01\x00\x00\x00'
tRp1193
ag36
(g80
S'\x02\x00\x00\x00'
tRp1194
ag36
(g80
S'\x05\x00\x00\x00'
tRp1195
ag36
(g80
S'\x07\x00\x00\x00'
tRp1196
ag36
(g80
S'\x01\x00\x00\x00'
tRp1197
ag36
(g80
S'\x05\x00\x00\x00'
tRp1198
aI1
ag36
(g80
S'\x03\x00\x00\x00'
tRp1199
ag36
(g80
S'\x05\x00\x00\x00'
tRp1200
ag36
(g80
S'\x04\x00\x00\x00'
tRp1201
ag36
(g80
S'\x02\x00\x00\x00'
tRp1202
ag36
(g80
S'\x02\x00\x00\x00'
tRp1203
ag36
(g80
S'\x03\x00\x00\x00'
tRp1204
ag36
(g80
S'\x07\x00\x00\x00'
tRp1205
ag36
(g80
S'\x01\x00\x00\x00'
tRp1206
ag36
(g80
S'\x07\x00\x00\x00'
tRp1207
aI1
ag36
(g80
S'\x03\x00\x00\x00'
tRp1208
ag36
(g80
S'\x02\x00\x00\x00'
tRp1209
ag36
(g80
S'\x02\x00\x00\x00'
tRp1210
ag36
(g80
S'\x04\x00\x00\x00'
tRp1211
ag36
(g80
S'\x02\x00\x00\x00'
tRp1212
ag36
(g80
S'\x02\x00\x00\x00'
tRp1213
ag36
(g80
S'\x02\x00\x00\x00'
tRp1214
ag36
(g80
S'\x01\x00\x00\x00'
tRp1215
ag36
(g80
S'\x05\x00\x00\x00'
tRp1216
ag36
(g80
S'\x06\x00\x00\x00'
tRp1217
ag36
(g80
S'\x04\x00\x00\x00'
tRp1218
ag36
(g80
S'\x03\x00\x00\x00'
tRp1219
ag36
(g80
S'\x01\x00\x00\x00'
tRp1220
ag36
(g80
S'\x03\x00\x00\x00'
tRp1221
ag36
(g80
S'\x05\x00\x00\x00'
tRp1222
ag36
(g80
S'\x05\x00\x00\x00'
tRp1223
ag36
(g80
S'\x05\x00\x00\x00'
tRp1224
aI1
ag36
(g80
S'\x04\x00\x00\x00'
tRp1225
ag36
(g80
S'\x04\x00\x00\x00'
tRp1226
ag36
(g80
S'\x06\x00\x00\x00'
tRp1227
ag36
(g80
S'\x04\x00\x00\x00'
tRp1228
ag36
(g80
S'\x04\x00\x00\x00'
tRp1229
ag36
(g80
S'\x01\x00\x00\x00'
tRp1230
aI1
ag36
(g80
S'\x04\x00\x00\x00'
tRp1231
ag36
(g80
S'\x04\x00\x00\x00'
tRp1232
ag36
(g80
S'\x06\x00\x00\x00'
tRp1233
ag36
(g80
S'\x02\x00\x00\x00'
tRp1234
ag36
(g80
S'\x02\x00\x00\x00'
tRp1235
ag36
(g80
S'\x03\x00\x00\x00'
tRp1236
aS'5.0'
p1237
ag36
(g80
S'\x04\x00\x00\x00'
tRp1238
ag36
(g80
S'\x04\x00\x00\x00'
tRp1239
ag36
(g80
S'\x02\x00\x00\x00'
tRp1240
ag36
(g80
S'\x02\x00\x00\x00'
tRp1241
ag36
(g80
S'\x01\x00\x00\x00'
tRp1242
aI1
ag36
(g80
S'\x01\x00\x00\x00'
tRp1243
ag36
(g80
S'\x03\x00\x00\x00'
tRp1244
ag36
(g80
S'\x01\x00\x00\x00'
tRp1245
ag36
(g80
S'\x01\x00\x00\x00'
tRp1246
ag36
(g80
S'\x04\x00\x00\x00'
tRp1247
ag36
(g80
S'\x01\x00\x00\x00'
tRp1248
aI1
ag36
(g80
S'\x03\x00\x00\x00'
tRp1249
ag36
(g80
S'\x03\x00\x00\x00'
tRp1250
ag36
(g80
S'\x05\x00\x00\x00'
tRp1251
ag36
(g80
S'\x06\x00\x00\x00'
tRp1252
ag36
(g80
S'\x04\x00\x00\x00'
tRp1253
aI1
ag36
(g80
S'\x06\x00\x00\x00'
tRp1254
ag36
(g80
S'\x02\x00\x00\x00'
tRp1255
ag36
(g80
S'\x02\x00\x00\x00'
tRp1256
ag36
(g80
S'\x03\x00\x00\x00'
tRp1257
ag36
(g80
S'\x04\x00\x00\x00'
tRp1258
ag36
(g80
S'\x02\x00\x00\x00'
tRp1259
ag36
(g80
S'\x02\x00\x00\x00'
tRp1260
atbsg21
g1162
(g1163
g1158
g1164
S'b'
tRp1261
(I1
(I96
I1
tg1166
I00
S'\xc9\xd8\xb8>\xb0\r\x9a>\x0e\xd7\xf6<\x83,H?\x9a\xf3+?z\xc2\xf6=\xe5\x0c\x9a>O\xb2\\?\xd666?8*\r?\xaf\xb1!?\xc9\\\xa9>o.\x9f>2\x1d\xc3>\x0e\r\x9a>\x12z@?R\xfa\xbd>d\xdfO?\xf2\xd1&?z\xec\x94>\xc8\x92\xae>\x1e\x8c\xfb>X\xf7\xbd>\x08]\xa9>\xd6\xba\x0f?D\x96\xae>1Y;?]d\x80>\xfb\xea\x94>|oR?\xc3X\xc8>&\xcbs?\xef\r\x9a>\x1dL\x12?)n\x17?HO\xa4>E\x00U?\x15t\xa9>3P\xa4>{\n\x1a?\xb4w\x05?v\r\x9a>9\x08\x08?\x9c\xb0!?\xf3)\r?\xc6\xd6\xb8>\xa4\xf5+?\\y@?E*\r?\x0co\x17?@;\xc8>\x04"Z?[\xf2x?\xa7R\xa4>\x93\xc78?\xc0:\xa4>\xa1\xd6\xb8>l\xea\x94>\x02\xcc\x8f>\x89\x90\x1c?\xbfm\x17?q\xdc\x14?F*\r?4{@?\xd8\nC?\x01/\x9f>}\xa3\xd7>\x87\xb0!?\x06qR?4\xdd\x14?}\x8a\xfb>W\x151?u\x84.?\xde:\xc8>-76?\x17\xaan?\x9b}\xd2>\xc9oR?\x14\xd6\xb8>N3C>\xdb\xd5\xb8>\xb9\xf8\xbd>\x1d\xbdJ?\xe6)\xf8<\x8f\x84.?\xe4\xbcJ?Xi\xf6>V\x151?\xc8Dl>\n\x8b\xd7>\x1cq\xa9>\x11\xb5\xb3>\x11\xc1\xdc>1\xa63?+:q?\xc3O\xa4>'
S'\x00\x00\x00\x00\x00\x00\x00\x00\x00\x00\x00\x00\x00\x00\x00\x00\x00\x00\x00\x00\x00\x00\x00\x00\x00\x00\x00\x00\x00\x00\x00\x00\x00\x00\x00\x00\x00\x00\x00\x00\x00\x00\x00\x00\x00\x00\x00\x00\x00\x00\x00\x00\x00\x00\x00\x00\x00\x00\x00\x00\x00\x00\x00\x00\x00\x00\x00\x00\x00\x00\x00\x00\x00\x00\x00\x00\x00\x00\x00\x00\x00\x00\x00\x00\x00\x00\x00\x00\x00\x00\x00\x00\x00\x00\x00\x00'
NtbsS'order'
p1262
g1162
(g1163
g1158
g1164
S'b'
tRp1263
(I1
(I96
I1
tg1166
I00
S'\x00\x00\xa6B\x00\x00,B\x00\x00\x80A\x00\x00\x88B\x00\x00\x90B\x00\x008B\x00\x00pA\x00\x00\x98B\x00\x00\xa4B\x00\x00PA\x00\x00\x18B\x00\x00\x82B\x00\x00tB\x00\x00\xf8A\x00\x00\x10A\x00\x00\xb4B\x00\x00\xa8B\x00\x000A\x00\x00\xe0@\x00\x00\x10B\x00\x00\xe8A\x00\x00\x96B\x00\x00LB\x00\x00\xa0@\x00\x00\xc8A\x00\x00pB\x00\x00\x1cB\x00\x00\xaeB\x00\x00\xb8A\x00\x00\xa2B\x00\x00\x90A\x00\x00\x9aB\x00\x00\xe0A\x00\x00@@\x00\x00\x08B\x00\x00\x00A\x00\x00dB\x00\x00\xa0A\x00\x00\xbaB\x00\x00\xaaB\x00\x00\x80B\x00\x00 A\x00\x00\xf0A\x00\x00\x86B\x00\x00lB\x00\x00TB\x00\x00\xbcB\x00\x00\x92B\x00\x00\x8eB\x00\x00\xb6B\x00\x00\xd8A\x00\x00\xa0B\x00\x00xB\x00\x00\x14B\x00\x00\x84B\x00\x00\x9eB\x00\x00`B\x00\x00\xd0A\x00\x00\xc0A\x00\x00\x94B\x00\x00HB\x00\x00\x98A\x00\x00\xb0B\x00\x004B\x00\x00\x04B\x00\x00\x80@\x00\x00\xbeB\x00\x00`A\x00\x00|B\x00\x00\x00\x00\x00\x00$B\x00\x00hB\x00\x00XB\x00\x000B\x00\x00\xacB\x00\x00\xb8B\x00\x00(B\x00\x00\xa8A\x00\x00\x8cB\x00\x00@A\x00\x00\xc0@\x00\x00\\B\x00\x00\x9cB\x00\x00@B\x00\x00 B\x00\x00\x00@\x00\x00\xb0A\x00\x00PB\x00\x00<B\x00\x00\x80?\x00\x00\x00B\x00\x00DB\x00\x00\xb2B\x00\x00\x0cB\x00\x00\x8aB\x00\x00\x88A'
S'\x00\x00\x00\x00\x00\x00\x00\x00\x00\x00\x00\x00\x00\x00\x00\x00\x00\x00\x00\x00\x00\x00\x00\x00\x00\x00\x00\x00\x00\x00\x00\x00\x00\x00\x00\x00\x00\x00\x00\x00\x00\x00\x00\x00\x00\x00\x00\x00\x00\x00\x00\x00\x00\x00\x00\x00\x00\x00\x00\x00\x00\x00\x00\x00\x00\x00\x00\x00\x00\x00\x00\x00\x00\x00\x00\x00\x00\x00\x00\x00\x00\x00\x00\x00\x00\x00\x00\x00\x00\x00\x00\x00\x00\x00\x00\x00'
Ntbsg19
g1162
(g1163
g1158
g1164
S'b'
tRp1264
(I1
(I96
I1
tg1166
I00
S'\x00\x00\x80?\x00\x00\x80?\x00\x00\x00\x00\x00\x00\x80?\x00\x00\x80?\x00\x00\x00\x00\x00\x00\x00\x00\x00\x00\x80?\x00\x00\x80?\x00\x00\x80?\x00\x00\x80?\x00\x00\x00\x00\x00\x00\x80?\x00\x00\x00\x00\x00\x00\x80?\x00\x00\x80?\x00\x00\x00\x00\x00\x00\x80?\x00\x00\x80?\x00\x00\x00\x00\x00\x00\x80?\x00\x00\x80?\x00\x00\x80?\x00\x00\x00\x00\x00\x00\x80?\x00\x00\x80?\x00\x00\x80?\x00\x00\x80?\x00\x00\x80?\x00\x00\x80?\x00\x00\x00\x00\x00\x00\x80?\x00\x00\x80?\x00\x00\x00\x00\x00\x00\x80?\x00\x00\x80?\x00\x00\x80?\x00\x00\x80?\x00\x00\x80?\x00\x00\x80?\x00\x00\x00\x00\x00\x00\x80?\x00\x00\x00\x00\x00\x00\x00\x00\x00\x00\x80?\x00\x00\x80?\x00\x00\x80?\x00\x00\x80?\x00\x00\x00\x00\x00\x00\x80?\x00\x00\x00\x00\x00\x00\x00\x00\x00\x00\x80?\x00\x00\x80?\x00\x00\x80?\x00\x00\x80?\x00\x00\x80?\x00\x00\x80?\x00\x00\x80?\x00\x00\x80?\x00\x00\x80?\x00\x00\x80?\x00\x00\x80?\x00\x00\x80?\x00\x00\x80?\x00\x00\x80?\x00\x00\x00\x00\x00\x00\x80?\x00\x00\x80?\x00\x00\x80?\x00\x00\x80?\x00\x00\x80?\x00\x00\x00\x00\x00\x00\x80?\x00\x00\x80?\x00\x00\x80?\x00\x00\x80?\x00\x00\x00\x00\x00\x00\x80?\x00\x00\x00\x00\x00\x00\x00\x00\x00\x00\x00\x00\x00\x00\x80?\x00\x00\x00\x00\x00\x00\x00\x00\x00\x00\x80?\x00\x00\x80?\x00\x00\x00\x00\x00\x00\x00\x00\x00\x00\x80?\x00\x00\x80?\x00\x00\x00\x00\x00\x00\x00\x00\x00\x00\x80?\x00\x00\x80?\x00\x00\x00\x00'
S'\x00\x00\x00\x00\x00\x00\x00\x00\x00\x00\x00\x00\x00\x00\x00\x00\x00\x00\x00\x00\x00\x00\x00\x00\x00\x00\x00\x00\x00\x00\x00\x00\x00\x00\x00\x00\x00\x00\x00\x00\x00\x00\x00\x00\x00\x00\x00\x00\x00\x00\x00\x00\x00\x00\x00\x00\x00\x00\x00\x00\x00\x00\x00\x00\x00\x00\x00\x00\x00\x00\x00\x00\x00\x00\x00\x00\x00\x00\x00\x00\x00\x00\x00\x00\x00\x00\x00\x00\x00\x00\x00\x00\x00\x00\x00\x00'
Ntbsg27
g1157
(g1158
(I0
tS'b'
tRp1265
(I1
(I96
I1
tg1160
I00
(lp1266
g1002
ag562
ag262
ag837
ag881
ag595
ag251
ag925
ag991
ag229
ag507
ag804
ag760
ag430
ag184
ag1079
ag1013
ag206
ag161
ag485
ag408
ag914
ag650
ag138
ag364
ag749
ag518
ag1046
ag341
ag980
ag285
ag936
ag397
ag114
ag463
ag173
ag716
ag308
ag1112
ag1024
ag793
ag195
ag419
ag826
ag738
ag672
ag1123
ag892
ag870
ag1090
ag386
ag969
ag771
ag496
ag815
ag958
ag705
ag375
ag352
ag903
ag639
ag296
ag1057
ag584
ag452
ag127
ag1134
ag240
ag782
ag76
ag540
ag727
ag683
ag573
ag1035
ag1101
ag551
ag319
ag859
ag217
ag149
ag694
ag947
ag617
ag529
ag103
ag330
ag661
ag606
ag90
ag441
ag628
ag1068
ag474
ag848
ag274
atbsg23
g1157
(g1158
(I0
tS'b'
tRp1267
(I1
(I96
I1
tg1160
I00
(lp1268
S'2'
aS'1'
aS'1'
aS'1'
aS'2'
aS'2'
aS'2'
aS'1'
aS'3'
aS'3'
aS'3'
aS'1'
aS'1'
aS'1'
aS'1'
aS'3'
aS'1'
aS'3'
aS'3'
aS'1'
aS'2'
aS'3'
aS'1'
aS'2'
aS'3'
aS'1'
aS'3'
aS'2'
aS'1'
aS'2'
aS'3'
aS'3'
aS'1'
aS'1'
aS'3'
aS'1'
aS'3'
aS'1'
aS'1'
aS'2'
aS'1'
aS'2'
aS'2'
aS'3'
aS'2'
aS'1'
aS'3'
aS'3'
aS'1'
aS'3'
aS'1'
aS'1'
aS'3'
aS'1'
aS'3'
aS'1'
aS'1'
aS'3'
aS'1'
aS'3'
aS'3'
aS'2'
aS'1'
aS'3'
aS'1'
aS'2'
aS'2'
aS'3'
aS'2'
aS'1'
aS'3'
aS'3'
aS'2'
aS'1'
aS'2'
aS'1'
aS'2'
aS'1'
aS'1'
aS'1'
aS'2'
aS'1'
aS'2'
aS'2'
aS'1'
aS'3'
aS'3'
aS'3'
aS'1'
aS'2'
aS'1'
aS'1'
aS'1'
aS'3'
aS'2'
aS'1'
atbsg18
g1162
(g1163
g1158
g1164
S'b'
tRp1269
(I1
(I96
I1
tg1166
I00
S"\xfc\x8f\xa2C!\x81(C\x8f/\x85B\xe1f\x84C\x0fj\x8cC\xe3\xed3C9\x05|B+M\x94Co\x91\xa0C\xef\xf3\\BL\xe4\x14C\xe8\x0e}C\x1fFmC\x98r\xf4BG\xf9\x1cBBH\xb0C\x81\\\xa4C?(:B\x01\x7f\xfdAm\x93\rC$\x8e\xe5B\x8fi\x92C(OFC\x08\xf8\xc2A9\x12\xc8B\x14\xadiCN\xca\x18C=4\xaaC\x00\x85\xb9B\x14}\x9eC\xa0A\x93B\xa8f\x96C\xccQ\xdeB\xdb\x1d\x86Ar\xb5\x05C\x1c\x95\x0eB5x]C\xa6c\xa2B\xb2b\xb6C\x924\xa6C\xdb:yC\xf9q+B\\\xc5\xecB3c\x82C\xc3\x93eC\xb2\xf4MC\xa7,\xb8C't\x8eC5s\x8aC\x82N\xb2C\x02\xdd\xd6B\xc3V\x9cC\xdc\xe6pC*4\x11C\x16b\x80C\xd4\x83\x9aC\xfc\xb0YC\xb6\xc9\xcfB\x9c\xcb\xc0B\x88\x7f\x90CsaBC\xc3\x9c\x9aB\xa5q\xacCe\xe1/C\xdd\x91\x01C\x9a\xdd\xa5A\xa3(\xbaC\xeablB\xaa&uC\xda\xf7\x9f@\xba\xe0 C\xeb\xa0aC\xb1\x9fQC\x01',C\xdd(\xa8C\xf2>\xb4C\xf3\xa7$C\xbb\x95\xa9B\xdb\x99\x88C\xcb\x97JB\x12P\xe0A\xc3\xe9UC\xdd~\x98C\xcb\xf1:C\x7f\xde\x1cC\xa6\xcfJAK\xec\xb1B?\x11JCGm7CE\x00\x0fA\xba\xcd\xfbBdR>C\x84_\xaeC\x06\x9e\tC\xce}\x86C]\xe1\x8bB"
S'\x00\x00\x00\x00\x00\x00\x00\x00\x00\x00\x00\x00\x00\x00\x00\x00\x00\x00\x00\x00\x00\x00\x00\x00\x00\x00\x00\x00\x00\x00\x00\x00\x00\x00\x00\x00\x00\x00\x00\x00\x00\x00\x00\x00\x00\x00\x00\x00\x00\x00\x00\x00\x00\x00\x00\x00\x00\x00\x00\x00\x00\x00\x00\x00\x00\x00\x00\x00\x00\x00\x00\x00\x00\x00\x00\x00\x00\x00\x00\x00\x00\x00\x00\x00\x00\x00\x00\x00\x00\x00\x00\x00\x00\x00\x00\x00'
Ntbsg25
g1162
(g1163
g1158
g1164
S'b'
tRp1270
(I1
(I96
I1
tg1166
I00
S"\xf9O\x80>\xc7\xb4\xb3>\xefO\xa4>r:\xc8>#\xf6\xbd>\xfa=\xc8>\xfa\x11\x9a>\xb0\x9f\xae>\xce\xea\x94>\xa2-\x9f>\xaa\x84v>\x8dq\xa9>_\xea\x94>\xef\x0f\x9a>o\x0c\x9a>R\xea\x94>!0\x9f>Z2\x9f>\xd0Q\xa4>h.\x9f>\x85\xa7\x8a>m\xea\x94>P\xf7\xbd>\xacR\xa4>~\xc8\x8f>f\x85\x85>\xb2\x94\xae>>\x18\x9f?\xa0,\x9f>zO\xa4><\x0b\x9a>p\x8bv>_/\x9f>r\xd8\xb8>j\xf8\x99>u\xa6\x8a>_-\x9f>L\x88\x85>%Al>\x86+\x9f>\x0e\xea\x94>\x82\xf7\xbd>\\O\xa4>0_\xcd>\xa1\xba\x0f?\x02.\x9f>\xf0\x0e\x9a>\x18.\x9f>\xb7s\xa9>\xc6\xed\x94>r\x92\xae>\x8b\xa3\xd7>\xcf\x92\x8a>9P\xa4>\xd2\xcc\x8f>@O\xa4>\xe9\xf7\xbd>\x97P\x80>V/\x9f>\xd0\xfda>\xf9\x94\xae>eO\xa4>\xc1\xea\x94>x0\x9f>\xe7o\xa9>=\x0c\x9a>\xbe\x0e\x9a>l\xee\x94>\x93\x85\x85>\xed\x19\x9f>\xf6\x0b\x9a>A\x86\x85>&\x15\x1f?\xf0O\xa4>\xd19\xc8>!P\xa4>&\x03\xe7>\x12-\x9f>'-\x9f>\xb9\r\xb1?\x8f\xc9\x8f>\xd6<\xc8>x\x86\x85>>\xb6\xb3>\x07-\x9f>\xd1\xed\x94>m,\x9f>\xa0\xc1W>\xa7\xcb\x8f>\xbc\xea\x94>^.\x9f>\xdf\x141?v\xb7\xb3>h\x83\x85>\x11\xc9\x8f>R\xb3\xb3>"
S'\x00\x00\x00\x00\x00\x00\x00\x00\x00\x00\x00\x00\x00\x00\x00\x00\x00\x00\x00\x00\x00\x00\x00\x00\x00\x00\x00\x00\x00\x00\x00\x00\x00\x00\x00\x00\x00\x00\x00\x00\x00\x00\x00\x00\x00\x00\x00\x00\x00\x00\x00\x00\x00\x00\x00\x00\x00\x00\x00\x00\x00\x00\x00\x00\x00\x00\x00\x00\x00\x00\x00\x00\x00\x00\x00\x00\x00\x00\x00\x00\x00\x00\x00\x00\x00\x00\x00\x00\x00\x00\x00\x00\x00\x00\x00\x00'
NtbstRp1271
(dp1272
S'isNumeric'
p1273
(dp1274
g23
I00
sg20
I00
sg17
I01
sg1167
I01
sg22
I01
sg24
I01
sg14
I01
sg18
I01
sg16
I00
sg19
I01
sg26
I00
sg27
I00
sg15
I00
sg21
I01
sg1262
I01
sg25
I01
ssg1151
g1145
sS'dataTypes'
p1275
(lp1276
g1167
ag1262
ag14
ag15
ag16
ag17
ag18
ag19
ag20
ag21
ag22
ag23
ag24
ag25
ag26
ag27
asS'dataShape'
p1277
(lp1278
I96
aI1
asbsS'method'
p1279
S'random'
p1280
sS'sequenceIndices'
p1281
g1157
(g1158
(I0
tS'b'
tRp1282
(I1
(I96
I1
tg80
I01
S'E\x00\x00\x00Y\x00\x00\x00U\x00\x00\x00!\x00\x00\x00A\x00\x00\x00\x17\x00\x00\x00P\x00\x00\x00\x12\x00\x00\x00#\x00\x00\x00\x0e\x00\x00\x00)\x00\x00\x00\x11\x00\x00\x00O\x00\x00\x00\t\x00\x00\x00C\x00\x00\x00\x06\x00\x00\x00\x02\x00\x00\x00_\x00\x00\x00\x1e\x00\x00\x00=\x00\x00\x00%\x00\x00\x00M\x00\x00\x00V\x00\x00\x00\x1c\x00\x00\x00:\x00\x00\x00\x18\x00\x00\x009\x00\x00\x002\x00\x00\x00 \x00\x00\x00\x14\x00\x00\x00*\x00\x00\x00\r\x00\x00\x00Z\x00\x00\x00@\x00\x00\x00"\x00\x00\x00]\x00\x00\x00\x13\x00\x00\x005\x00\x00\x00\n\x00\x00\x00\x1a\x00\x00\x00T\x00\x00\x00F\x00\x00\x00L\x00\x00\x00\x01\x00\x00\x00I\x00\x00\x00?\x00\x00\x00\x05\x00\x00\x00X\x00\x00\x00S\x00\x00\x00[\x00\x00\x00<\x00\x00\x00\x16\x00\x00\x00W\x00\x00\x00-\x00\x00\x00H\x00\x00\x00Q\x00\x00\x008\x00\x00\x00$\x00\x00\x00G\x00\x00\x00,\x00\x00\x00\x19\x00\x00\x00\x0c\x00\x00\x004\x00\x00\x00D\x00\x00\x00(\x00\x00\x00\x0b\x00\x00\x006\x00\x00\x00+\x00\x00\x00\x03\x00\x00\x00^\x00\x00\x00N\x00\x00\x000\x00\x00\x00\x04\x00\x00\x00/\x00\x00\x00;\x00\x00\x00\x15\x00\x00\x00\x07\x00\x00\x00\x1f\x00\x00\x00R\x00\x00\x007\x00\x00\x003\x00\x00\x00\x1d\x00\x00\x00\x08\x00\x00\x00\x00\x00\x00\x00\x10\x00\x00\x00\'\x00\x00\x00J\x00\x00\x00\x1b\x00\x00\x00>\x00\x00\x00\\\x00\x00\x00\x0f\x00\x00\x001\x00\x00\x00K\x00\x00\x00&\x00\x00\x00.\x00\x00\x00B\x00\x00\x00'
tbsS'finished'
p1283
I01
sS'nReps'
p1284
I1
sS'nRemaining'
p1285
I-1
sS'trialList'
p1286
(lp1287
g1
(cpsychopy.data
TrialType
p1288
g1155
(dp1289
g62
g74
sg63
g1008
sg64
g73
sg65
g1003
sg66
g1007
stRp1290
ag1
(g1288
g1155
(dp1291
g62
g101
sg63
g568
sg64
g272
sg65
g563
sg66
g567
stRp1292
ag1
(g1288
g1155
(dp1293
g62
g74
sg63
g268
sg64
g73
sg65
g263
sg66
g267
stRp1294
ag1
(g1288
g1155
(dp1295
g62
g74
sg63
g843
sg64
g306
sg65
g838
sg66
g842
stRp1296
ag1
(g1288
g1155
(dp1297
g62
g101
sg63
g887
sg64
g100
sg65
g882
sg66
g886
stRp1298
ag1
(g1288
g1155
(dp1299
g62
g74
sg63
g601
sg64
g73
sg65
g596
sg66
g600
stRp1300
ag1
(g1288
g1155
(dp1301
g62
g74
sg63
g257
sg64
g73
sg65
g252
sg66
g256
stRp1302
ag1
(g1288
g1155
(dp1303
g62
g74
sg63
g931
sg64
g227
sg65
g926
sg66
g930
stRp1304
ag1
(g1288
g1155
(dp1305
g62
g74
sg63
g997
sg64
g73
sg65
g992
sg66
g996
stRp1306
ag1
(g1288
g1155
(dp1307
g62
g74
sg63
g235
sg64
g227
sg65
g230
sg66
g234
stRp1308
ag1
(g1288
g1155
(dp1309
g62
g101
sg63
g513
sg64
g362
sg65
g508
sg66
g512
stRp1310
ag1
(g1288
g1155
(dp1311
g62
g74
sg63
g810
sg64
g227
sg65
g805
sg66
g809
stRp1312
ag1
(g1288
g1155
(dp1313
g62
g74
sg63
g766
sg64
g171
sg65
g761
sg66
g765
stRp1314
ag1
(g1288
g1155
(dp1315
g62
g101
sg63
g436
sg64
g272
sg65
g431
sg66
g435
stRp1316
ag1
(g1288
g1155
(dp1317
g62
g74
sg63
g190
sg64
g171
sg65
g185
sg66
g189
stRp1318
ag1
(g1288
g1155
(dp1319
g62
g74
sg63
g1085
sg64
g73
sg65
g1080
sg66
g1084
stRp1320
ag1
(g1288
g1155
(dp1321
g62
g101
sg63
g1019
sg64
g272
sg65
g1014
sg66
g1018
stRp1322
ag1
(g1288
g1155
(dp1323
g62
g74
sg63
g212
sg64
g171
sg65
g207
sg66
g211
stRp1324
ag1
(g1288
g1155
(dp1325
g62
g74
sg63
g167
sg64
g159
sg65
g162
sg66
g166
stRp1326
ag1
(g1288
g1155
(dp1327
g62
g74
sg63
g491
sg64
g73
sg65
g486
sg66
g490
stRp1328
ag1
(g1288
g1155
(dp1329
g62
g101
sg63
g414
sg64
g272
sg65
g409
sg66
g413
stRp1330
ag1
(g1288
g1155
(dp1331
g62
g101
sg63
g920
sg64
g125
sg65
g915
sg66
g919
stRp1332
ag1
(g1288
g1155
(dp1333
g62
g74
sg63
g656
sg64
g159
sg65
g651
sg66
g655
stRp1334
ag1
(g1288
g1155
(dp1335
g62
g101
sg63
g144
sg64
g125
sg65
g139
sg66
g143
stRp1336
ag1
(g1288
g1155
(dp1337
g62
g101
sg63
g370
sg64
g362
sg65
g365
sg66
g369
stRp1338
ag1
(g1288
g1155
(dp1339
g62
g74
sg63
g755
sg64
g88
sg65
g750
sg66
g754
stRp1340
ag1
(g1288
g1155
(dp1341
g62
g101
sg63
g524
sg64
g100
sg65
g519
sg66
g523
stRp1342
ag1
(g1288
g1155
(dp1343
g62
g101
sg63
g1052
sg64
g272
sg65
g1047
sg66
g1051
stRp1344
ag1
(g1288
g1155
(dp1345
g62
g74
sg63
g347
sg64
g171
sg65
g342
sg66
g346
stRp1346
ag1
(g1288
g1155
(dp1347
g62
g74
sg63
g986
sg64
g73
sg65
g981
sg66
g985
stRp1348
ag1
(g1288
g1155
(dp1349
g62
g74
sg63
g291
sg64
g159
sg65
g286
sg66
g290
stRp1350
ag1
(g1288
g1155
(dp1351
g62
g74
sg63
g942
sg64
g159
sg65
g937
sg66
g941
stRp1352
ag1
(g1288
g1155
(dp1353
g62
g101
sg63
g403
sg64
g272
sg65
g398
sg66
g402
stRp1354
ag1
(g1288
g1155
(dp1355
g62
g101
sg63
g120
sg64
g100
sg65
g115
sg66
g119
stRp1356
ag1
(g1288
g1155
(dp1357
g62
g101
sg63
g469
sg64
g100
sg65
g464
sg66
g468
stRp1358
ag1
(g1288
g1155
(dp1359
g62
g74
sg63
g179
sg64
g171
sg65
g174
sg66
g178
stRp1360
ag1
(g1288
g1155
(dp1361
g62
g74
sg63
g722
sg64
g88
sg65
g717
sg66
g721
stRp1362
ag1
(g1288
g1155
(dp1363
g62
g74
sg63
g314
sg64
g306
sg65
g309
sg66
g313
stRp1364
ag1
(g1288
g1155
(dp1365
g62
g101
sg63
g1118
sg64
g100
sg65
g1113
sg66
g1117
stRp1366
ag1
(g1288
g1155
(dp1367
g62
g101
sg63
g1030
sg64
g272
sg65
g1025
sg66
g1029
stRp1368
ag1
(g1288
g1155
(dp1369
g62
g101
sg63
g799
sg64
g272
sg65
g794
sg66
g798
stRp1370
ag1
(g1288
g1155
(dp1371
g62
g74
sg63
g201
sg64
g171
sg65
g196
sg66
g200
stRp1372
ag1
(g1288
g1155
(dp1373
g62
g101
sg63
g425
sg64
g100
sg65
g420
sg66
g424
stRp1374
ag1
(g1288
g1155
(dp1375
g62
g101
sg63
g832
sg64
g125
sg65
g827
sg66
g831
stRp1376
ag1
(g1288
g1155
(dp1377
g62
g101
sg63
g744
sg64
g100
sg65
g739
sg66
g743
stRp1378
ag1
(g1288
g1155
(dp1379
g62
g101
sg63
g678
sg64
g362
sg65
g673
sg66
g677
stRp1380
ag1
(g1288
g1155
(dp1381
g62
g74
sg63
g1129
sg64
g73
sg65
g1124
sg66
g1128
stRp1382
ag1
(g1288
g1155
(dp1383
g62
g74
sg63
g898
sg64
g73
sg65
g893
sg66
g897
stRp1384
ag1
(g1288
g1155
(dp1385
g62
g101
sg63
g876
sg64
g272
sg65
g871
sg66
g875
stRp1386
ag1
(g1288
g1155
(dp1387
g62
g101
sg63
g1096
sg64
g125
sg65
g1091
sg66
g1095
stRp1388
ag1
(g1288
g1155
(dp1389
g62
g101
sg63
g392
sg64
g272
sg65
g387
sg66
g391
stRp1390
ag1
(g1288
g1155
(dp1391
g62
g101
sg63
g975
sg64
g100
sg65
g970
sg66
g974
stRp1392
ag1
(g1288
g1155
(dp1393
g62
g101
sg63
g777
sg64
g125
sg65
g772
sg66
g776
stRp1394
ag1
(g1288
g1155
(dp1395
g62
g74
sg63
g502
sg64
g171
sg65
g497
sg66
g501
stRp1396
ag1
(g1288
g1155
(dp1397
g62
g74
sg63
g821
sg64
g227
sg65
g816
sg66
g820
stRp1398
ag1
(g1288
g1155
(dp1399
g62
g101
sg63
g964
sg64
g125
sg65
g959
sg66
g963
stRp1400
ag1
(g1288
g1155
(dp1401
g62
g101
sg63
g711
sg64
g100
sg65
g706
sg66
g710
stRp1402
ag1
(g1288
g1155
(dp1403
g62
g101
sg63
g381
sg64
g100
sg65
g376
sg66
g380
stRp1404
ag1
(g1288
g1155
(dp1405
g62
g74
sg63
g358
sg64
g171
sg65
g353
sg66
g357
stRp1406
ag1
(g1288
g1155
(dp1407
g62
g101
sg63
g909
sg64
g100
sg65
g904
sg66
g908
stRp1408
ag1
(g1288
g1155
(dp1409
g62
g101
sg63
g645
sg64
g100
sg65
g640
sg66
g644
stRp1410
ag1
(g1288
g1155
(dp1411
g62
g101
sg63
g302
sg64
g100
sg65
g297
sg66
g301
stRp1412
ag1
(g1288
g1155
(dp1413
g62
g74
sg63
g1063
sg64
g88
sg65
g1058
sg66
g1062
stRp1414
ag1
(g1288
g1155
(dp1415
g62
g101
sg63
g590
sg64
g100
sg65
g585
sg66
g589
stRp1416
ag1
(g1288
g1155
(dp1417
g62
g74
sg63
g458
sg64
g227
sg65
g453
sg66
g457
stRp1418
ag1
(g1288
g1155
(dp1419
g62
g101
sg63
g133
sg64
g125
sg65
g128
sg66
g132
stRp1420
ag1
(g1288
g1155
(dp1421
g62
g74
sg63
g1140
sg64
g159
sg65
g1135
sg66
g1139
stRp1422
ag1
(g1288
g1155
(dp1423
g62
g101
sg63
g246
sg64
g100
sg65
g241
sg66
g245
stRp1424
ag1
(g1288
g1155
(dp1425
g62
g101
sg63
g788
sg64
g272
sg65
g783
sg66
g787
stRp1426
ag1
(g1288
g1155
(dp1427
g62
g74
sg63
g84
sg64
g73
sg65
g78
sg66
g83
stRp1428
ag1
(g1288
g1155
(dp1429
g62
g101
sg63
g546
sg64
g100
sg65
g541
sg66
g545
stRp1430
ag1
(g1288
g1155
(dp1431
g62
g74
sg63
g733
sg64
g159
sg65
g728
sg66
g732
stRp1432
ag1
(g1288
g1155
(dp1433
g62
g74
sg63
g689
sg64
g88
sg65
g684
sg66
g688
stRp1434
ag1
(g1288
g1155
(dp1435
g62
g101
sg63
g579
sg64
g362
sg65
g574
sg66
g578
stRp1436
ag1
(g1288
g1155
(dp1437
g62
g101
sg63
g1041
sg64
g100
sg65
g1036
sg66
g1040
stRp1438
ag1
(g1288
g1155
(dp1439
g62
g101
sg63
g1107
sg64
g125
sg65
g1102
sg66
g1106
stRp1440
ag1
(g1288
g1155
(dp1441
g62
g74
sg63
g557
sg64
g227
sg65
g552
sg66
g556
stRp1442
ag1
(g1288
g1155
(dp1443
g62
g74
sg63
g325
sg64
g159
sg65
g320
sg66
g324
stRp1444
ag1
(g1288
g1155
(dp1445
g62
g74
sg63
g865
sg64
g73
sg65
g860
sg66
g864
stRp1446
ag1
(g1288
g1155
(dp1447
g62
g101
sg63
g223
sg64
g100
sg65
g218
sg66
g222
stRp1448
ag1
(g1288
g1155
(dp1449
g62
g101
sg63
g155
sg64
g125
sg65
g150
sg66
g154
stRp1450
ag1
(g1288
g1155
(dp1451
g62
g74
sg63
g700
sg64
g73
sg65
g695
sg66
g699
stRp1452
ag1
(g1288
g1155
(dp1453
g62
g101
sg63
g953
sg64
g272
sg65
g948
sg66
g952
stRp1454
ag1
(g1288
g1155
(dp1455
g62
g74
sg63
g623
sg64
g159
sg65
g618
sg66
g622
stRp1456
ag1
(g1288
g1155
(dp1457
g62
g101
sg63
g535
sg64
g272
sg65
g530
sg66
g534
stRp1458
ag1
(g1288
g1155
(dp1459
g62
g101
sg63
g109
sg64
g100
sg65
g104
sg66
g108
stRp1460
ag1
(g1288
g1155
(dp1461
g62
g74
sg63
g336
sg64
g227
sg65
g331
sg66
g335
stRp1462
ag1
(g1288
g1155
(dp1463
g62
g74
sg63
g667
sg64
g227
sg65
g662
sg66
g666
stRp1464
ag1
(g1288
g1155
(dp1465
g62
g74
sg63
g612
sg64
g88
sg65
g607
sg66
g611
stRp1466
ag1
(g1288
g1155
(dp1467
g62
g74
sg63
g96
sg64
g88
sg65
g91
sg66
g95
stRp1468
ag1
(g1288
g1155
(dp1469
g62
g101
sg63
g447
sg64
g272
sg65
g442
sg66
g446
stRp1470
ag1
(g1288
g1155
(dp1471
g62
g74
sg63
g634
sg64
g227
sg65
g629
sg66
g633
stRp1472
ag1
(g1288
g1155
(dp1473
g62
g74
sg63
g1074
sg64
g88
sg65
g1069
sg66
g1073
stRp1474
ag1
(g1288
g1155
(dp1475
g62
g74
sg63
g480
sg64
g73
sg65
g475
sg66
g479
stRp1476
ag1
(g1288
g1155
(dp1477
g62
g101
sg63
g854
sg64
g125
sg65
g849
sg66
g853
stRp1478
ag1
(g1288
g1155
(dp1479
g62
g101
sg63
g280
sg64
g272
sg65
g275
sg66
g279
stRp1480
asS'seed'
p1481
NsS'thisIndex'
p1482
g1137
sS'thisN'
p1483
I96
sS'thisTrialN'
p1484
I0
sS'nTotal'
p1485
I96
sS'_warnUseOfNext'
p1486
I01
sbasS'savePickle'
p1487
I00
sb.