ccopy_reg
_reconstructor
p1
(cpsychopy.data
ExperimentHandler
p2
c__builtin__
object
p3
NtRp4
(dp5
S'originPath'
p6
NsS'dataFileName'
p7
VC:\u005cDocuments and Settings\u005cExperimental user\u005cMy Documents\u005cconsciousness\u005cuncon_feat\u005cexperiment_scripts\u005cdata/leyre_Experiment_EEG_version_2019_may_13_1606
p8
sS'runtimeInfo'
p9
NsS'name'
p10
VExperiment_EEG_version
p11
sS'dataNames'
p12
(lp13
S'image_onset_time'
p14
aS'response_window'
p15
aS'correctAns'
p16
aS'probe_onset'
p17
aS'discrim_resptime'
p18
aS'response.corr'
p19
aS'response.keys'
p20
aS'response.rt'
p21
aS'visible_resptime'
p22
aS'visible.keys'
p23
aS'visible.corr'
p24
aS'visible.rt'
p25
aS'probeFrames'
p26
aS'jitter2'
p27
asS'autoLog'
p28
I01
sS'extraInfo'
p29
(dp30
Vn_square
p31
V32
p32
sVexperiment_color
p33
Vbw
p34
sS'frameRate'
p35
cnumpy.core.multiarray
scalar
p36
(cnumpy
dtype
p37
(S'f8'
I0
I1
tRp38
(I3
S'<'
NNNI-1
I-1
I0
tbS'\xf5\xaeb\x81\x02\xf2X@'
tRp39
sS'date'
p40
V2019_may_13_1606
p41
sVsession
p42
V003
p43
sVimage_size
p44
V256
p45
sVpremask_dur
p46
V20
p47
sVprobeFrames
p48
V5
sVparticipant
p49
Vleyre
p50
sS'expName'
p51
g11
sVpostmask_dur
p52
V20
p53
ssS'loopsUnfinished'
p54
(lp55
sS'saveWideText'
p56
I00
sS'thisEntry'
p57
(dp58
sS'version'
p59
S''
sS'_paramNamesSoFar'
p60
(lp61
S'category'
p62
aS'probe_path'
p63
aS'subcategory'
p64
aS'fixation_duration'
p65
aS'label'
p66
asS'entries'
p67
(lp68
(dp69
g31
g32
sg17
F3.741071940981783
sg24
I1
sg35
g39
sg14
F3.7184268066193908
sg16
g36
(g37
(S'i4'
I0
I1
tRp70
(I3
S'<'
NNNI-1
I-1
I0
tbS'\x01\x00\x00\x00'
tRp71
sg42
g43
sg46
g47
sg15
S'nV_V'
p72
sg22
F5.5733576286002062
sg64
VFurniture
p73
sg62
VNonliving_Things
p74
sg49
g50
sS'trials.thisN'
p75
I0
sg19
I1
sg27
g36
(g38
S'\x00\x00\x00\x00\x00\x00\x18@'
tRp76
sg52
g53
sg23
S'1'
sg18
F5.0011162711889483
sg33
g34
sg51
g11
sg20
S'1'
sg65
g36
(g37
(S'i8'
I0
I1
tRp77
(I3
S'<'
NNNI-1
I-1
I0
tbS'\x00\x00\x00\x00\x00\x00\x00\x00'
tRp78
sg44
g45
sg40
g41
sg25
F0.40108509792480618
sS'trials.thisIndex'
p79
g36
(g37
(S'i4'
I0
I1
tRp80
(I3
S'<'
NNNI-1
I-1
I0
tbS'\x0f\x00\x00\x00'
tRp81
sg26
V5
sS'trials.thisRepN'
p82
I0
sg66
Vchair
p83
sg63
V../experiment_stimuli/bw_bc_bl/Nonliving_Things/Furniture/chair_17.jpg
p84
sg21
F0.54140685882885009
sS'trials.thisTrialN'
p85
I0
sa(dp86
g31
g32
sg17
F7.7119784776004963
sg24
I0
sg35
g39
sg14
F7.7071041564340703
sg16
g36
(g70
S'\x01\x00\x00\x00'
tRp87
sg42
g43
sg46
g47
sg15
g72
sg22
F9.5719420470413752
sg64
VVehicles
p88
sg62
g74
sg49
g50
sS'trials.thisN'
p89
I1
sg19
I1
sg27
g36
(g38
S'\x00\x00\x00\x00\x00\x00\x1c@'
tRp90
sg52
g53
sg23
S'3'
sg18
F8.9897924404940568
sg33
g34
sg51
g11
sg20
S'1'
sg65
g36
(g77
S'\x00\x00\x00\x00\x00\x00\x00\x00'
tRp91
sg44
g45
sg40
g41
sg25
F0.27065835328539833
sS'trials.thisIndex'
p92
g36
(g80
S'V\x00\x00\x00'
tRp93
sg26
V5
sS'trials.thisRepN'
p94
I0
sg66
Vtractor
p95
sg63
V../experiment_stimuli/bw_bc_bl/Nonliving_Things/Vehicles/tractor_23.jpg
p96
sg21
F0.56158747954759747
sS'trials.thisTrialN'
p97
I1
sa(dp98
g31
g32
sg17
F11.580362178152427
sg24
I0
sg35
g39
sg14
F11.575494755175896
sg16
g36
(g70
S'\x02\x00\x00\x00'
tRp99
sg42
g43
sg46
g47
sg15
g72
sg22
F13.70075844990788
sg64
VAnimals
p100
sg62
VLiving_Things
p101
sg49
g50
sS'trials.thisN'
p102
I2
sg19
I1
sg27
g36
(g38
S'\x00\x00\x00\x00\x00\x00\x1c@'
tRp103
sg52
g53
sg23
S'3'
sg18
F12.838145788817201
sg33
g34
sg51
g11
sg20
S'2'
sg65
g36
(g77
S'\x00\x00\x00\x00\x00\x00\x00\x00'
tRp104
sg44
g45
sg40
g41
sg25
F0.21069686976261437
sS'trials.thisIndex'
p105
g36
(g80
S'(\x00\x00\x00'
tRp106
sg26
V5
sS'trials.thisRepN'
p107
I0
sg66
Vhorse
p108
sg63
V../experiment_stimuli/bw_bc_bl/Living_Things/Animals/horse_7.jpg
p109
sg21
F0.8420710566570051
sS'trials.thisTrialN'
p110
I2
sa(dp111
g31
g32
sg17
F15.649137895670719
sg24
I1
sg35
g39
sg14
F15.644340456987265
sg16
g36
(g70
S'\x02\x00\x00\x00'
tRp112
sg42
g43
sg46
g47
sg15
g72
sg22
F17.248461915703956
sg64
g100
sg62
g101
sg49
g50
sS'trials.thisN'
p113
I3
sg19
I1
sg27
g36
(g38
S'\x00\x00\x00\x00\x00\x00 @'
tRp114
sg52
g53
sg23
S'1'
sg18
F16.886945781297982
sg33
g34
sg51
g11
sg20
S'2'
sg65
g36
(g77
S'\x00\x00\x00\x00\x00\x00\x00\x00'
tRp115
sg44
g45
sg40
g41
sg25
F0.28084998531267047
sS'trials.thisIndex'
p116
g36
(g80
S'\r\x00\x00\x00'
tRp117
sg26
V5
sS'trials.thisRepN'
p118
I0
sg66
Vcat
p119
sg63
V../experiment_stimuli/bw_bc_bl/Living_Things/Animals/cat_25.jpg
p120
sg21
F0.34097134234616533
sS'trials.thisTrialN'
p121
I3
sa(dp122
g31
g32
sg17
F19.267104167549405
sg24
I0
sg35
g39
sg14
F19.262206143466756
sg16
g36
(g70
S'\x01\x00\x00\x00'
tRp123
sg42
g43
sg46
g47
sg15
S'V_nV'
p124
sg22
F20.876357646891847
sg64
VBirds
p125
sg62
g101
sg49
g50
sS'trials.thisN'
p126
I4
sg19
I1
sg27
g36
(g38
S'\x00\x00\x00\x00\x00\x00\x18@'
tRp127
sg52
g53
sg23
S'2'
sg18
F20.534871529962402
sg33
g34
sg51
g11
sg20
S'1'
sg65
g36
(g77
S'\x00\x00\x00\x00\x00\x00\x00\x00'
tRp128
sg44
g45
sg40
g41
sg25
F0.29085631214547902
sS'trials.thisIndex'
p129
g36
(g80
S'8\x00\x00\x00'
tRp130
sg26
V5
sS'trials.thisRepN'
p131
I0
sg66
Vostrich
p132
sg63
V../experiment_stimuli/bw_bc_bl/Living_Things/Birds/ostrich_18.jpg
p133
sg21
F0.32093044498469681
sS'trials.thisTrialN'
p134
I4
sa(dp135
g31
g32
sg17
F22.904943301226012
sg24
I0
sg35
g39
sg14
F22.90011498297099
sg16
g36
(g70
S'\x01\x00\x00\x00'
tRp136
sg42
g43
sg46
g47
sg15
g124
sg22
F24.654578123474494
sg64
g100
sg62
g101
sg49
g50
sS'trials.thisN'
p137
I5
sg19
I1
sg27
g36
(g38
S'\x00\x00\x00\x00\x00\x00\x18@'
tRp138
sg52
g53
sg23
S'3'
sg18
F24.162757321086247
sg33
g34
sg51
g11
sg20
S'1'
sg65
g36
(g77
S'\x00\x00\x00\x00\x00\x00\x00\x00'
tRp139
sg44
g45
sg40
g41
sg25
F0.31090918282279745
sS'trials.thisIndex'
p140
g36
(g80
S'R\x00\x00\x00'
tRp141
sg26
V5
sS'trials.thisRepN'
p142
I0
sg66
Vtapir
p143
sg63
V../experiment_stimuli/bw_bc_bl/Living_Things/Animals/tapir_15.jpg
p144
sg21
F0.47126913431566209
sS'trials.thisTrialN'
p145
I5
sa(dp146
g31
g32
sg17
F26.703249553916976
sg24
I1
sg35
g39
sg14
F26.698367631353904
sg16
g36
(g70
S'\x01\x00\x00\x00'
tRp147
sg42
g43
sg46
g47
sg15
g72
sg22
F28.532986796810292
sg64
VBuildings
p148
sg62
g74
sg49
g50
sS'trials.thisN'
p149
I6
sg19
I0
sg27
g36
(g38
S'\x00\x00\x00\x00\x00\x00\x18@'
tRp150
sg52
g53
sg23
S'1'
sg18
F27.940971606236417
sg33
g34
sg51
g11
sg20
S'2'
sg65
g36
(g77
S'\x00\x00\x00\x00\x00\x00\x00\x00'
tRp151
sg44
g45
sg40
g41
sg25
F0.23056967929005623
sS'trials.thisIndex'
p152
g36
(g80
S'\x0c\x00\x00\x00'
tRp153
sg26
V5
sS'trials.thisRepN'
p154
I0
sg66
Vcastle
p155
sg63
V../experiment_stimuli/bw_bc_bl/Nonliving_Things/Buildings/castle_18.jpg
p156
sg21
F0.57142528245458379
sS'trials.thisTrialN'
p157
I6
sa(dp158
g31
g32
sg17
F30.501551919791382
sg24
I0
sg35
g39
sg14
F30.496618542878423
sg16
g36
(g70
S'\x01\x00\x00\x00'
tRp159
sg42
g43
sg46
g47
sg15
g72
sg22
F32.361313623492606
sg64
g88
sg62
g74
sg49
g50
sS'trials.thisN'
p160
I7
sg19
I1
sg27
g36
(g38
S'\x00\x00\x00\x00\x00\x00\x18@'
tRp161
sg52
g53
sg23
S'2'
sg18
F31.749264324898832
sg33
g34
sg51
g11
sg20
S'1'
sg65
g36
(g77
S'\x00\x00\x00\x00\x00\x00\x00\x00'
tRp162
sg44
g45
sg40
g41
sg25
F0.26081155054271221
sS'trials.thisIndex'
p163
g36
(g80
S'W\x00\x00\x00'
tRp164
sg26
V5
sS'trials.thisRepN'
p165
I0
sg66
Vtrain
p166
sg63
V../experiment_stimuli/bw_bc_bl/Nonliving_Things/Vehicles/train_11.jpg
p167
sg21
F0.59151281829690561
sS'trials.thisTrialN'
p168
I7
sa(dp169
g31
g32
sg17
F34.360553400998469
sg24
I0
sg35
g39
sg14
F34.35500878863968
sg16
g36
(g70
S'\x02\x00\x00\x00'
tRp170
sg42
g43
sg46
g47
sg15
g72
sg22
F36.510337571613491
sg64
g100
sg62
g101
sg49
g50
sS'trials.thisN'
p171
I8
sg19
I1
sg27
g36
(g38
S'\x00\x00\x00\x00\x00\x00\x18@'
tRp172
sg52
g53
sg23
S'2'
sg18
F35.597611154487822
sg33
g34
sg51
g11
sg20
S'2'
sg65
g36
(g77
S'\x00\x00\x00\x00\x00\x00\x00\x00'
tRp173
sg44
g45
sg40
g41
sg25
F0.22069644834846258
sS'trials.thisIndex'
p174
g36
(g80
S'_\x00\x00\x00'
tRp175
sg26
V5
sS'trials.thisRepN'
p176
I0
sg66
Vzebra
p177
sg63
V../experiment_stimuli/bw_bc_bl/Living_Things/Animals/zebra_18.jpg
p178
sg21
F0.8921680609928444
sS'trials.thisTrialN'
p179
I8
sa(dp180
g31
g32
sg17
F38.468846567906439
sg24
I0
sg35
g39
sg14
F38.463940799643751
sg16
g36
(g70
S'\x01\x00\x00\x00'
tRp181
sg42
g43
sg46
g47
sg15
g72
sg22
F40.027973306481726
sg64
g148
sg62
g74
sg49
g50
sS'trials.thisN'
p182
I9
sg19
I1
sg27
g36
(g38
S'\x00\x00\x00\x00\x00\x00\x18@'
tRp183
sg52
g53
sg23
S'3'
sg18
F39.696519763791002
sg33
g34
sg51
g11
sg20
S'1'
sg65
g36
(g77
S'\x00\x00\x00\x00\x00\x00\x00\x00'
tRp184
sg44
g45
sg40
g41
sg25
F0.31089341221377254
sS'trials.thisIndex'
p185
g36
(g80
S'\x11\x00\x00\x00'
tRp186
sg26
V5
sS'trials.thisRepN'
p187
I0
sg66
Vchurch
p188
sg63
V../experiment_stimuli/bw_bc_bl/Nonliving_Things/Buildings/church_4.jpg
p189
sg21
F0.310896543902345
sS'trials.thisTrialN'
p190
I9
sa(dp191
g31
g32
sg17
F42.076678165060002
sg24
I1
sg35
g39
sg14
F42.071783336810768
sg16
g36
(g70
S'\x02\x00\x00\x00'
tRp192
sg42
g43
sg46
g47
sg15
g124
sg22
F43.485493853280786
sg64
VMusical_Inst
p193
sg62
g74
sg49
g50
sS'trials.thisN'
p194
I10
sg19
I0
sg27
g36
(g38
S'\x00\x00\x00\x00\x00\x00\x18@'
tRp195
sg52
g53
sg23
S'1'
sg18
F43.30435850401409
sg33
g34
sg51
g11
sg20
S'1'
sg65
g36
(g77
S'\x00\x00\x00\x00\x00\x00\x00\x00'
tRp196
sg44
g45
sg40
g41
sg25
F0.30087689403444529
sS'trials.thisIndex'
p197
g36
(g80
S'\x19\x00\x00\x00'
tRp198
sg26
V5
sS'trials.thisRepN'
p199
I0
sg66
Vdrum
p200
sg63
V../experiment_stimuli/bw_bc_bl/Nonliving_Things/Musical_Inst/drum_11.jpg
p201
sg21
F0.16057140717748553
sS'trials.thisTrialN'
p202
I10
sa(dp203
g31
g32
sg17
F45.524142833659425
sg24
I1
sg35
g39
sg14
F45.519283177447505
sg16
g36
(g70
S'\x02\x00\x00\x00'
tRp204
sg42
g43
sg46
g47
sg15
g72
sg22
F47.273800253111403
sg64
g100
sg62
g101
sg49
g50
sS'trials.thisN'
p205
I11
sg19
I0
sg27
g36
(g38
S'\x00\x00\x00\x00\x00\x00\x1a@'
tRp206
sg52
g53
sg23
S'1'
sg18
F46.761876840319019
sg33
g34
sg51
g11
sg20
S'1'
sg65
g36
(g77
S'\x00\x00\x00\x00\x00\x00\x00\x00'
tRp207
sg44
g45
sg40
g41
sg25
F0.31089375802548602
sS'trials.thisIndex'
p208
g36
(g80
S'T\x00\x00\x00'
tRp209
sg26
V5
sS'trials.thisRepN'
p210
I0
sg66
Vtiger
p211
sg63
V../experiment_stimuli/bw_bc_bl/Living_Things/Animals/tiger_2.jpg
p212
sg21
F0.49136788019677624
sS'trials.thisTrialN'
p213
I11
sa(dp214
g31
g32
sg17
F49.322456281690393
sg24
I1
sg35
g39
sg14
F49.317531983775552
sg16
g36
(g70
S'\x01\x00\x00\x00'
tRp215
sg42
g43
sg46
g47
sg15
g124
sg22
F51.232360173482448
sg64
g125
sg62
g101
sg49
g50
sS'trials.thisN'
p216
I12
sg19
I1
sg27
g36
(g38
S'\x00\x00\x00\x00\x00\x00\x1c@'
tRp217
sg52
g53
sg23
S'1'
sg18
F50.590196749777533
sg33
g34
sg51
g11
sg20
S'1'
sg65
g36
(g77
S'\x00\x00\x00\x00\x00\x00\x00\x00'
tRp218
sg44
g45
sg40
g41
sg25
F0.26078225375385955
sS'trials.thisIndex'
p219
g36
(g80
S';\x00\x00\x00'
tRp220
sg26
V5
sS'trials.thisRepN'
p221
I0
sg66
Vpartridge
p222
sg63
V../experiment_stimuli/bw_bc_bl/Living_Things/Birds/partridge_2.jpg
p223
sg21
F0.62159810890443623
sS'trials.thisTrialN'
p224
I12
sa(dp225
g31
g32
sg17
F53.230957212217618
sg24
I0
sg35
g39
sg14
F53.226025767624378
sg16
g36
(g70
S'\x01\x00\x00\x00'
tRp226
sg42
g43
sg46
g47
sg15
g124
sg22
F55.140810724871699
sg64
g125
sg62
g101
sg49
g50
sS'trials.thisN'
p227
I13
sg19
I1
sg27
g36
(g38
S'\x00\x00\x00\x00\x00\x00\x18@'
tRp228
sg52
g53
sg23
S'3'
sg18
F54.528761347522959
sg33
g34
sg51
g11
sg20
S'1'
sg65
g36
(g77
S'\x00\x00\x00\x00\x00\x00\x00\x00'
tRp229
sg44
g45
sg40
g41
sg25
F0.2908490490517579
sS'trials.thisIndex'
p230
g36
(g80
S',\x00\x00\x00'
tRp231
sg26
V5
sS'trials.thisRepN'
p232
I0
sg66
Vkiwi
p233
sg63
V../experiment_stimuli/bw_bc_bl/Living_Things/Birds/kiwi_8.jpg
p234
sg21
F0.5915079572587274
sS'trials.thisTrialN'
p235
I13
sa(dp236
g31
g32
sg17
F57.169447506312281
sg24
I0
sg35
g39
sg14
F57.164585643622559
sg16
g36
(g70
S'\x01\x00\x00\x00'
tRp237
sg42
g43
sg46
g47
sg15
g72
sg22
F59.179723701032344
sg64
VKitchen_Uten
p238
sg62
g74
sg49
g50
sS'trials.thisN'
p239
I14
sg19
I1
sg27
g36
(g38
S'\x00\x00\x00\x00\x00\x00\x1c@'
tRp240
sg52
g53
sg23
S'2'
sg18
F58.437264864100143
sg33
g34
sg51
g11
sg20
S'1'
sg65
g36
(g77
S'\x00\x00\x00\x00\x00\x00\x00\x00'
tRp241
sg44
g45
sg40
g41
sg25
F0.31089444225654006
sS'trials.thisIndex'
p242
g36
(g80
S'\x12\x00\x00\x00'
tRp243
sg26
V5
sS'trials.thisRepN'
p244
I0
sg66
Vcoking-pot
p245
sg63
V../experiment_stimuli/bw_bc_bl/Nonliving_Things/Kitchen_Uten/coking-pot_12.jpg
p246
sg21
F0.72191834880504757
sS'trials.thisTrialN'
p247
I14
sa(dp248
g31
g32
sg17
F61.228247351653408
sg24
I0
sg35
g39
sg14
F61.223404992430005
sg16
g36
(g70
S'\x02\x00\x00\x00'
tRp249
sg42
g43
sg46
g47
sg15
g124
sg22
F63.058038390765432
sg64
g73
sg62
g74
sg49
g50
sS'trials.thisN'
p250
I15
sg19
I1
sg27
g36
(g38
S'\x00\x00\x00\x00\x00\x00\x18@'
tRp251
sg52
g53
sg23
S'3'
sg18
F62.486067307647318
sg33
g34
sg51
g11
sg20
S'2'
sg65
g36
(g77
S'\x00\x00\x00\x00\x00\x00\x00\x00'
tRp252
sg44
g45
sg40
g41
sg25
F0.26078432175563648
sS'trials.thisIndex'
p253
g36
(g80
S'.\x00\x00\x00'
tRp254
sg26
V5
sS'trials.thisRepN'
p255
I0
sg66
Vlamp
p256
sg63
V../experiment_stimuli/bw_bc_bl/Nonliving_Things/Furniture/lamp_13.jpg
p257
sg21
F0.55142427206737921
sS'trials.thisTrialN'
p258
I15
sa(dp259
g31
g32
sg17
F65.056706131319515
sg24
I1
sg35
g39
sg14
F65.051734725246206
sg16
g36
(g70
S'\x02\x00\x00\x00'
tRp260
sg42
g43
sg46
g47
sg15
g124
sg22
F66.876203505846206
sg64
g73
sg62
g74
sg49
g50
sS'trials.thisN'
p261
I16
sg19
I0
sg27
g36
(g38
S'\x00\x00\x00\x00\x00\x00\x18@'
tRp262
sg52
g53
sg23
S'1'
sg18
F66.284321606566664
sg33
g34
sg51
g11
sg20
S'1'
sg65
g36
(g77
S'\x00\x00\x00\x00\x00\x00\x00\x00'
tRp263
sg44
g45
sg40
g41
sg25
F0.30091222433838993
sS'trials.thisIndex'
p264
g36
(g80
S'\x06\x00\x00\x00'
tRp265
sg26
V5
sS'trials.thisRepN'
p266
I0
sg66
Vbedside-table
p267
sg63
V../experiment_stimuli/bw_bc_bl/Nonliving_Things/Furniture/bedside-table_8.jpg
p268
sg21
F0.57131941936677322
sS'trials.thisTrialN'
p269
I16
sa(dp270
g31
g32
sg17
F68.915035299200099
sg24
I0
sg35
g39
sg14
F68.91011682827957
sg16
g36
(g70
S'\x01\x00\x00\x00'
tRp271
sg42
g43
sg46
g47
sg15
g72
sg22
F70.734712001634762
sg64
g193
sg62
g74
sg49
g50
sS'trials.thisN'
p272
I17
sg19
I1
sg27
g36
(g38
S'\x00\x00\x00\x00\x00\x00\x18@'
tRp273
sg52
g53
sg23
S'3'
sg18
F70.172764515737072
sg33
g34
sg51
g11
sg20
S'1'
sg65
g36
(g77
S'\x00\x00\x00\x00\x00\x00\x00\x00'
tRp274
sg44
g45
sg40
g41
sg25
F0.27082818542839959
sS'trials.thisIndex'
p275
g36
(g80
S'$\x00\x00\x00'
tRp276
sg26
V5
sS'trials.thisRepN'
p277
I0
sg66
Vguitar
p278
sg63
V../experiment_stimuli/bw_bc_bl/Nonliving_Things/Musical_Inst/guitar_10.jpg
p279
sg21
F0.54140349081717432
sS'trials.thisTrialN'
p280
I17
sa(dp281
g31
g32
sg17
F72.744644513528328
sg24
I0
sg35
g39
sg14
F72.738437985826749
sg16
g36
(g70
S'\x02\x00\x00\x00'
tRp282
sg42
g43
sg46
g47
sg15
g72
sg22
F74.011860853759572
sg64
VMarine_creatures
p283
sg62
g101
sg49
g50
sS'trials.thisN'
p284
I18
sg19
I0
sg27
g36
(g38
S'\x00\x00\x00\x00\x00\x00\x18@'
tRp285
sg52
g53
sg23
S'2'
sg18
F73.971024818136357
sg33
g34
sg51
g11
sg20
S'1'
sg65
g36
(g77
S'\x00\x00\x00\x00\x00\x00\x00\x00'
tRp286
sg44
g45
sg40
g41
sg25
F0.25061652361182496
sS'trials.thisIndex'
p287
g36
(g80
S'^\x00\x00\x00'
tRp288
sg26
V5
sS'trials.thisRepN'
p289
I0
sg66
Vwhale
p290
sg63
V../experiment_stimuli/bw_bc_bl/Living_Things/Marine_creatures/whale_19.jpg
p291
sg21
F0.020275540242437273
sS'trials.thisTrialN'
p292
I18
sa(dp293
g31
g32
sg17
F76.000418848299887
sg24
I1
sg35
g39
sg14
F75.995513305591885
sg16
g36
(g70
S'\x02\x00\x00\x00'
tRp294
sg42
g43
sg46
g47
sg15
g72
sg22
F77.619688281964045
sg64
g100
sg62
g101
sg49
g50
sS'trials.thisN'
p295
I19
sg19
I0
sg27
g36
(g38
S'\x00\x00\x00\x00\x00\x00\x1c@'
tRp296
sg52
g53
sg23
S'1'
sg18
F77.228101536689792
sg33
g34
sg51
g11
sg20
S'1'
sg65
g36
(g77
S'\x00\x00\x00\x00\x00\x00\x00\x00'
tRp297
sg44
g45
sg40
g41
sg25
F0.42114873544778675
sS'trials.thisIndex'
p298
g36
(g80
S'0\x00\x00\x00'
tRp299
sg26
V5
sS'trials.thisRepN'
p300
I0
sg66
Vlioness
p301
sg63
V../experiment_stimuli/bw_bc_bl/Living_Things/Animals/lioness_16.jpg
p302
sg21
F0.37103404355002567
sS'trials.thisTrialN'
p303
I19
sa(dp304
g31
g32
sg17
F79.778635700931773
sg24
I0
sg35
g39
sg14
F79.773736639297567
sg16
g36
(g70
S'\x01\x00\x00\x00'
tRp305
sg42
g43
sg46
g47
sg15
g72
sg22
F81.578290957142599
sg64
g73
sg62
g74
sg49
g50
sS'trials.thisN'
p306
I20
sg19
I1
sg27
g36
(g38
S'\x00\x00\x00\x00\x00\x00\x1a@'
tRp307
sg52
g53
sg23
S'3'
sg18
F81.036384225415532
sg33
g34
sg51
g11
sg20
S'1'
sg65
g36
(g77
S'\x00\x00\x00\x00\x00\x00\x00\x00'
tRp308
sg44
g45
sg40
g41
sg25
F0.48112071113428101
sS'trials.thisIndex'
p309
g36
(g80
S'\x00\x00\x00\x00'
tRp310
sg26
V5
sS'trials.thisRepN'
p311
I0
sg66
VChest-of-drawers
p312
sg63
V../experiment_stimuli/bw_bc_bl/Nonliving_Things/Furniture/Chest-of-drawers_12.jpg
p313
sg21
F0.52135602216003463
sS'trials.thisTrialN'
p314
I20
sa(dp315
g31
g32
sg17
F83.79748678393662
sg24
I1
sg35
g39
sg14
F83.7924695435795
sg16
g36
(g70
S'\x01\x00\x00\x00'
tRp316
sg42
g43
sg46
g47
sg15
g72
sg22
F85.526862858736422
sg64
g148
sg62
g74
sg49
g50
sS'trials.thisN'
p317
I21
sg19
I0
sg27
g36
(g38
S'\x00\x00\x00\x00\x00\x00\x1a@'
tRp318
sg52
g53
sg23
S'1'
sg18
F85.025050627999008
sg33
g34
sg51
g11
sg20
S'2'
sg65
g36
(g77
S'\x00\x00\x00\x00\x00\x00\x00\x00'
tRp319
sg44
g45
sg40
g41
sg25
F0.29085184598807245
sS'trials.thisIndex'
p320
g36
(g80
S':\x00\x00\x00'
tRp321
sg26
V5
sS'trials.thisRepN'
p322
I0
sg66
Vpalace
p323
sg63
V../experiment_stimuli/bw_bc_bl/Nonliving_Things/Buildings/palace_11.jpg
p324
sg21
F0.48127196106361225
sS'trials.thisTrialN'
p325
I21
sa(dp326
g31
g32
sg17
F87.55554071086226
sg24
I1
sg35
g39
sg14
F87.550636021711398
sg16
g36
(g70
S'\x01\x00\x00\x00'
tRp327
sg42
g43
sg46
g47
sg15
g124
sg22
F89.264996236364823
sg64
g100
sg62
g101
sg49
g50
sS'trials.thisN'
p328
I22
sg19
I0
sg27
g36
(g38
S'\x00\x00\x00\x00\x00\x00\x18@'
tRp329
sg52
g53
sg23
S'1'
sg18
F88.813282160670497
sg33
g34
sg51
g11
sg20
S'2'
sg65
g36
(g77
S'\x00\x00\x00\x00\x00\x00\x00\x00'
tRp330
sg44
g45
sg40
g41
sg25
F0.27080909151118249
sS'trials.thisIndex'
p331
g36
(g80
S'\x1b\x00\x00\x00'
tRp332
sg26
V5
sS'trials.thisRepN'
p333
I0
sg66
Velephant
p334
sg63
V../experiment_stimuli/bw_bc_bl/Living_Things/Animals/elephant_18.jpg
p335
sg21
F0.4311623889952898
sS'trials.thisTrialN'
p336
I22
sa(dp337
g31
g32
sg17
F91.275020848261192
sg24
I1
sg35
g39
sg14
F91.268720017629676
sg16
g36
(g70
S'\x02\x00\x00\x00'
tRp338
sg42
g43
sg46
g47
sg15
g72
sg22
F93.163487201032694
sg64
g283
sg62
g101
sg49
g50
sS'trials.thisN'
p339
I23
sg19
I1
sg27
g36
(g38
S'\x00\x00\x00\x00\x00\x00\x18@'
tRp340
sg52
g53
sg23
S'1'
sg18
F92.551404422090854
sg33
g34
sg51
g11
sg20
S'2'
sg65
g36
(g77
S'\x00\x00\x00\x00\x00\x00\x00\x00'
tRp341
sg44
g45
sg40
g41
sg25
F0.25075885595288128
sS'trials.thisIndex'
p342
g36
(g80
S'P\x00\x00\x00'
tRp343
sg26
V5
sS'trials.thisRepN'
p344
I0
sg66
Vsperm-whale
p345
sg63
V../experiment_stimuli/bw_bc_bl/Living_Things/Marine_creatures/sperm-whale_13.jpg
p346
sg21
F0.59151905128965154
sS'trials.thisTrialN'
p347
I23
sa(dp348
g31
g32
sg17
F95.152110394090414
sg24
I0
sg35
g39
sg14
F95.147152491204906
sg16
g36
(g70
S'\x02\x00\x00\x00'
tRp349
sg42
g43
sg46
g47
sg15
g72
sg22
F97.352587996225338
sg64
g283
sg62
g101
sg49
g50
sS'trials.thisN'
p350
I24
sg19
I1
sg27
g36
(g38
S'\x00\x00\x00\x00\x00\x00 @'
tRp351
sg52
g53
sg23
S'3'
sg18
F96.449889627459925
sg33
g34
sg51
g11
sg20
S'2'
sg65
g36
(g77
S'\x00\x00\x00\x00\x00\x00\x00\x00'
tRp352
sg44
g45
sg40
g41
sg25
F0.23073625547112897
sS'trials.thisIndex'
p353
g36
(g80
S'\x15\x00\x00\x00'
tRp354
sg26
V5
sS'trials.thisRepN'
p355
I0
sg66
Vcrab
p356
sg63
V../experiment_stimuli/bw_bc_bl/Living_Things/Marine_creatures/crab_7.jpg
p357
sg21
F0.88214139646152034
sS'trials.thisTrialN'
p358
I24
sa(dp359
g31
g32
sg17
F99.321148717193864
sg24
I0
sg35
g39
sg14
F99.316216693667229
sg16
g36
(g70
S'\x02\x00\x00\x00'
tRp360
sg42
g43
sg46
g47
sg15
g72
sg22
F101.24107344652293
sg64
g125
sg62
g101
sg49
g50
sS'trials.thisN'
p361
I25
sg19
I1
sg27
g36
(g38
S'\x00\x00\x00\x00\x00\x00\x1a@'
tRp362
sg52
g53
sg23
S'2'
sg18
F100.58887539600255
sg33
g34
sg51
g11
sg20
S'2'
sg65
g36
(g77
S'\x00\x00\x00\x00\x00\x00\x00\x00'
tRp363
sg44
g45
sg40
g41
sg25
F0.33093283593188971
sS'trials.thisIndex'
p364
g36
(g80
S'9\x00\x00\x00'
tRp365
sg26
V5
sS'trials.thisRepN'
p366
I0
sg66
Vowl
p367
sg63
V../experiment_stimuli/bw_bc_bl/Living_Things/Birds/owl_25.jpg
p368
sg21
F0.63164975837571546
sS'trials.thisTrialN'
p369
I25
sa(dp370
g31
g32
sg17
F103.30991515592905
sg24
I0
sg35
g39
sg14
F103.30488524294924
sg16
g36
(g70
S'\x01\x00\x00\x00'
tRp371
sg42
g43
sg46
g47
sg15
g72
sg22
F104.96899224107619
sg64
g148
sg62
g74
sg49
g50
sS'trials.thisN'
p372
I26
sg19
I0
sg27
g36
(g38
S'\x00\x00\x00\x00\x00\x00\x1c@'
tRp373
sg52
g53
sg23
S'3'
sg18
F104.56752808479359
sg33
g34
sg51
g11
sg20
S'2'
sg65
g36
(g77
S'\x00\x00\x00\x00\x00\x00\x00\x00'
tRp374
sg44
g45
sg40
g41
sg25
F0.32092260691570118
sS'trials.thisIndex'
p375
g36
(g80
S'5\x00\x00\x00'
tRp376
sg26
V5
sS'trials.thisRepN'
p377
I0
sg66
Vmill
p378
sg63
V../experiment_stimuli/bw_bc_bl/Nonliving_Things/Buildings/mill_8.jpg
p379
sg21
F0.37087704183068126
sS'trials.thisTrialN'
p380
I26
sa(dp381
g31
g32
sg17
F107.02805330860429
sg24
I1
sg35
g39
sg14
F107.0229661934427
sg16
g36
(g70
S'\x02\x00\x00\x00'
tRp382
sg42
g43
sg46
g47
sg15
g72
sg22
F108.69725806108909
sg64
g283
sg62
g101
sg49
g50
sS'trials.thisN'
p383
I27
sg19
I1
sg27
g36
(g38
S'\x00\x00\x00\x00\x00\x00\x1c@'
tRp384
sg52
g53
sg23
S'1'
sg18
F108.26556490134681
sg33
g34
sg51
g11
sg20
S'2'
sg65
g36
(g77
S'\x00\x00\x00\x00\x00\x00\x00\x00'
tRp385
sg44
g45
sg40
g41
sg25
F0.3109019985422492
sS'trials.thisIndex'
p386
g36
(g80
S'\x17\x00\x00\x00'
tRp387
sg26
V5
sS'trials.thisRepN'
p388
I0
sg66
Vdolphin
p389
sg63
V../experiment_stimuli/bw_bc_bl/Living_Things/Marine_creatures/dolphin_23.jpg
p390
sg21
F0.4111447770264931
sS'trials.thisTrialN'
p391
I27
sa(dp392
g31
g32
sg17
F110.74608669232111
sg24
I0
sg35
g39
sg14
F110.74104730976978
sg16
g36
(g70
S'\x01\x00\x00\x00'
tRp393
sg42
g43
sg46
g47
sg15
g72
sg22
F112.97653657593764
sg64
g193
sg62
g74
sg49
g50
sS'trials.thisN'
p394
I28
sg19
I1
sg27
g36
(g38
S'\x00\x00\x00\x00\x00\x00\x1e@'
tRp395
sg52
g53
sg23
S'2'
sg18
F111.99366846412886
sg33
g34
sg51
g11
sg20
S'1'
sg65
g36
(g77
S'\x00\x00\x00\x00\x00\x00\x00\x00'
tRp396
sg44
g45
sg40
g41
sg25
F0.36102132586529478
sS'trials.thisIndex'
p397
g36
(g80
S'Y\x00\x00\x00'
tRp398
sg26
V5
sS'trials.thisRepN'
p399
I0
sg66
Vtuba
p400
sg63
V../experiment_stimuli/bw_bc_bl/Nonliving_Things/Musical_Inst/tuba_25.jpg
p401
sg21
F0.96231490990612656
sS'trials.thisTrialN'
p402
I28
sa(dp403
g31
g32
sg17
F115.07530310883885
sg24
I1
sg35
g39
sg14
F115.07045485492563
sg16
g36
(g70
S'\x02\x00\x00\x00'
tRp404
sg42
g43
sg46
g47
sg15
g72
sg22
F116.82489552174229
sg64
VInsects
p405
sg62
g101
sg49
g50
sS'trials.thisN'
p406
I29
sg19
I1
sg27
g36
(g38
S'\x00\x00\x00\x00\x00\x00\x18@'
tRp407
sg52
g53
sg23
S'1'
sg18
F116.31305779580725
sg33
g34
sg51
g11
sg20
S'2'
sg65
g36
(g77
S'\x00\x00\x00\x00\x00\x00\x00\x00'
tRp408
sg44
g45
sg40
g41
sg25
F0.5413943967432715
sS'trials.thisIndex'
p409
g36
(g80
S'\n\x00\x00\x00'
tRp410
sg26
V5
sS'trials.thisRepN'
p411
I0
sg66
Vbutterfly
p412
sg63
V../experiment_stimuli/bw_bc_bl/Living_Things/Insects/butterfly_9.jpg
p413
sg21
F0.49128970439778641
sS'trials.thisTrialN'
p414
I29
sa(dp415
g31
g32
sg17
F119.10401690023718
sg24
I0
sg35
g39
sg14
F119.09920910047367
sg16
g36
(g70
S'\x01\x00\x00\x00'
tRp416
sg42
g43
sg46
g47
sg15
g72
sg22
F121.10421184840379
sg64
g238
sg62
g74
sg49
g50
sS'trials.thisN'
p417
I30
sg19
I1
sg27
g36
(g38
S'\x00\x00\x00\x00\x00\x00\x1a@'
tRp418
sg52
g53
sg23
S'3'
sg18
F120.35183870623587
sg33
g34
sg51
g11
sg20
S'1'
sg65
g36
(g77
S'\x00\x00\x00\x00\x00\x00\x00\x00'
tRp419
sg44
g45
sg40
g41
sg25
F0.3209352683625184
sS'trials.thisIndex'
p420
g36
(g80
S'\x1e\x00\x00\x00'
tRp421
sg26
V5
sS'trials.thisRepN'
p422
I0
sg66
Vfondue
p423
sg63
V../experiment_stimuli/bw_bc_bl/Nonliving_Things/Kitchen_Uten/fondue_15.jpg
p424
sg21
F0.73181629768805578
sS'trials.thisTrialN'
p425
I30
sa(dp426
g31
g32
sg17
F123.16388198989443
sg24
I1
sg35
g39
sg14
F123.15804265602492
sg16
g36
(g70
S'\x01\x00\x00\x00'
tRp427
sg42
g43
sg46
g47
sg15
g124
sg22
F124.76215891574975
sg64
g125
sg62
g101
sg49
g50
sS'trials.thisN'
p428
I31
sg19
I0
sg27
g36
(g38
S'\x00\x00\x00\x00\x00\x00\x1a@'
tRp429
sg52
g53
sg23
S'1'
sg18
F124.39062577445293
sg33
g34
sg51
g11
sg20
S'2'
sg65
g36
(g77
S'\x00\x00\x00\x00\x00\x00\x00\x00'
tRp430
sg44
g45
sg40
g41
sg25
F0.29085068416316062
sS'trials.thisIndex'
p431
g36
(g80
S'!\x00\x00\x00'
tRp432
sg26
V5
sS'trials.thisRepN'
p433
I0
sg66
Vgoldfinch
p434
sg63
V../experiment_stimuli/bw_bc_bl/Living_Things/Birds/goldfinch_14.jpg
p435
sg21
F0.35098437545821071
sS'trials.thisTrialN'
p436
I31
sa(dp437
g31
g32
sg17
F126.79089816939086
sg24
I0
sg35
g39
sg14
F126.78592859033961
sg16
g36
(g70
S'\x01\x00\x00\x00'
tRp438
sg42
g43
sg46
g47
sg15
g124
sg22
F128.40006137185264
sg64
g125
sg62
g101
sg49
g50
sS'trials.thisN'
p439
I32
sg19
I1
sg27
g36
(g38
S'\x00\x00\x00\x00\x00\x00\x18@'
tRp440
sg52
g53
sg23
S'2'
sg18
F128.04856818768894
sg33
g34
sg51
g11
sg20
S'1'
sg65
g36
(g77
S'\x00\x00\x00\x00\x00\x00\x00\x00'
tRp441
sg44
g45
sg40
g41
sg25
F0.25079188193194568
sS'trials.thisIndex'
p442
g36
(g80
S'\x1a\x00\x00\x00'
tRp443
sg26
V5
sS'trials.thisRepN'
p444
I0
sg66
Vduck
p445
sg63
V../experiment_stimuli/bw_bc_bl/Living_Things/Birds/duck_25.jpg
p446
sg21
F0.3308899303083308
sS'trials.thisTrialN'
p447
I32
sa(dp448
g31
g32
sg17
F130.38886217889376
sg24
I0
sg35
g39
sg14
F130.38374267681502
sg16
g36
(g70
S'\x01\x00\x00\x00'
tRp449
sg42
g43
sg46
g47
sg15
g124
sg22
F132.07789371116087
sg64
g100
sg62
g101
sg49
g50
sS'trials.thisN'
p450
I33
sg19
I1
sg27
g36
(g38
S'\x00\x00\x00\x00\x00\x00\x18@'
tRp451
sg52
g53
sg23
S'2'
sg18
F131.63636733131716
sg33
g34
sg51
g11
sg20
S'1'
sg65
g36
(g77
S'\x00\x00\x00\x00\x00\x00\x00\x00'
tRp452
sg44
g45
sg40
g41
sg25
F0.27080638834740967
sS'trials.thisIndex'
p453
g36
(g80
S'2\x00\x00\x00'
tRp454
sg26
V5
sS'trials.thisRepN'
p455
I0
sg66
Vlynx
p456
sg63
V../experiment_stimuli/bw_bc_bl/Living_Things/Animals/lynx_26.jpg
p457
sg21
F0.42098311730660498
sS'trials.thisTrialN'
p458
I33
sa(dp459
g31
g32
sg17
F134.08762801502598
sg24
I0
sg35
g39
sg14
F134.08178043708904
sg16
g36
(g70
S'\x01\x00\x00\x00'
tRp460
sg42
g43
sg46
g47
sg15
g72
sg22
F135.86629688402172
sg64
VTools
p461
sg62
g74
sg49
g50
sS'trials.thisN'
p462
I34
sg19
I1
sg27
g36
(g38
S'\x00\x00\x00\x00\x00\x00\x1a@'
tRp463
sg52
g53
sg23
S'2'
sg18
F135.32439543795772
sg33
g34
sg51
g11
sg20
S'1'
sg65
g36
(g77
S'\x00\x00\x00\x00\x00\x00\x00\x00'
tRp464
sg44
g45
sg40
g41
sg25
F0.34096331632463261
sS'trials.thisIndex'
p465
g36
(g80
S'\x03\x00\x00\x00'
tRp466
sg26
V5
sS'trials.thisRepN'
p467
I0
sg66
Vaxe
p468
sg63
V../experiment_stimuli/bw_bc_bl/Nonliving_Things/Tools/axe_11.jpg
p469
sg21
F0.52135829272447154
sS'trials.thisTrialN'
p470
I34
sa(dp471
g31
g32
sg17
F137.94505153776845
sg24
I1
sg35
g39
sg14
F137.94016929942882
sg16
g36
(g70
S'\x02\x00\x00\x00'
tRp472
sg42
g43
sg46
g47
sg15
g72
sg22
F139.71469584433362
sg64
g283
sg62
g101
sg49
g50
sS'trials.thisN'
p473
I35
sg19
I1
sg27
g36
(g38
S'\x00\x00\x00\x00\x00\x00\x1e@'
tRp474
sg52
g53
sg23
S'1'
sg18
F139.17274828249356
sg33
g34
sg51
g11
sg20
S'2'
sg65
g36
(g77
S'\x00\x00\x00\x00\x00\x00\x00\x00'
tRp475
sg44
g45
sg40
g41
sg25
F0.29084636451443657
sS'trials.thisIndex'
p476
g36
(g80
S'A\x00\x00\x00'
tRp477
sg26
V5
sS'trials.thisRepN'
p478
I0
sg66
Vpomfret
p479
sg63
V../experiment_stimuli/bw_bc_bl/Living_Things/Marine_creatures/pomfret_4.jpg
p480
sg21
F0.52137862326344475
sS'trials.thisTrialN'
p481
I35
sa(dp482
g31
g32
sg17
F141.74429945758311
sg24
I1
sg35
g39
sg14
F141.73842612816952
sg16
g36
(g70
S'\x02\x00\x00\x00'
tRp483
sg42
g43
sg46
g47
sg15
g72
sg22
F143.54299659223761
sg64
g283
sg62
g101
sg49
g50
sS'trials.thisN'
p484
I36
sg19
I1
sg27
g36
(g38
S'\x00\x00\x00\x00\x00\x00\x1a@'
tRp485
sg52
g53
sg23
S'1'
sg18
F142.9910494593787
sg33
g34
sg51
g11
sg20
S'2'
sg65
g36
(g77
S'\x00\x00\x00\x00\x00\x00\x00\x00'
tRp486
sg44
g45
sg40
g41
sg25
F0.32092210318660364
sS'trials.thisIndex'
p487
g36
(g80
S'4\x00\x00\x00'
tRp488
sg26
V5
sS'trials.thisRepN'
p489
I0
sg66
Vmanatee
p490
sg63
V../experiment_stimuli/bw_bc_bl/Living_Things/Marine_creatures/manatee_20.jpg
p491
sg21
F0.53139735199511051
sS'trials.thisTrialN'
p492
I36
sa(dp493
g31
g32
sg17
F145.60160561755765
sg24
I0
sg35
g39
sg14
F145.59681285161059
sg16
g36
(g70
S'\x01\x00\x00\x00'
tRp494
sg42
g43
sg46
g47
sg15
g72
sg22
F147.24101808964042
sg64
g238
sg62
g74
sg49
g50
sS'trials.thisN'
p495
I37
sg19
I1
sg27
g36
(g38
S'\x00\x00\x00\x00\x00\x00\x1a@'
tRp496
sg52
g53
sg23
S'3'
sg18
F146.86947866628179
sg33
g34
sg51
g11
sg20
S'1'
sg65
g36
(g77
S'\x00\x00\x00\x00\x00\x00\x00\x00'
tRp497
sg44
g45
sg40
g41
sg25
F0.2507569239824079
sS'trials.thisIndex'
p498
g36
(g80
S'\x16\x00\x00\x00'
tRp499
sg26
V5
sS'trials.thisRepN'
p500
I0
sg66
Vcup
p501
sg63
V../experiment_stimuli/bw_bc_bl/Nonliving_Things/Kitchen_Uten/cup_4.jpg
p502
sg21
F0.35098977386951447
sS'trials.thisTrialN'
p503
I37
sa(dp504
g31
g32
sg17
F149.23047012789175
sg24
I0
sg35
g39
sg14
F149.22470031579724
sg16
g36
(g70
S'\x01\x00\x00\x00'
tRp505
sg42
g43
sg46
g47
sg15
g72
sg22
F150.83883837179746
sg64
g73
sg62
g74
sg49
g50
sS'trials.thisN'
p506
I38
sg19
I1
sg27
g36
(g38
S'\x00\x00\x00\x00\x00\x00\x18@'
tRp507
sg52
g53
sg23
S'2'
sg18
F150.46729838813189
sg33
g34
sg51
g11
sg20
S'1'
sg65
g36
(g77
S'\x00\x00\x00\x00\x00\x00\x00\x00'
tRp508
sg44
g45
sg40
g41
sg25
F0.28082788788015023
sS'trials.thisIndex'
p509
g36
(g80
S'\x05\x00\x00\x00'
tRp510
sg26
V5
sS'trials.thisRepN'
p511
I0
sg66
Vbed
p512
sg63
V../experiment_stimuli/bw_bc_bl/Nonliving_Things/Furniture/bed_24.jpg
p513
sg21
F0.35099396569421515
sS'trials.thisTrialN'
p514
I38
sa(dp515
g31
g32
sg17
F152.85758342634654
sg24
I0
sg35
g39
sg14
F152.85258103569504
sg16
g36
(g70
S'\x01\x00\x00\x00'
tRp516
sg42
g43
sg46
g47
sg15
g72
sg22
F154.46675675286679
sg64
g193
sg62
g74
sg49
g50
sS'trials.thisN'
p517
I39
sg19
I1
sg27
g36
(g38
S'\x00\x00\x00\x00\x00\x00\x18@'
tRp518
sg52
g53
sg23
S'2'
sg18
F154.08516542083817
sg33
g34
sg51
g11
sg20
S'1'
sg65
g36
(g77
S'\x00\x00\x00\x00\x00\x00\x00\x00'
tRp519
sg44
g45
sg40
g41
sg25
F0.32093975704628974
sS'trials.thisIndex'
p520
g36
(g80
S'\\\x00\x00\x00'
tRp521
sg26
V5
sS'trials.thisRepN'
p522
I0
sg66
Vviolin
p523
sg63
V../experiment_stimuli/bw_bc_bl/Nonliving_Things/Musical_Inst/violin_10.jpg
p524
sg21
F0.36101955501362681
sS'trials.thisTrialN'
p525
I39
sa(dp526
g31
g32
sg17
F156.52552742604166
sg24
I1
sg35
g39
sg14
F156.52055273787118
sg16
g36
(g70
S'\x01\x00\x00\x00'
tRp527
sg42
g43
sg46
g47
sg15
g124
sg22
F158.32510479982011
sg64
g405
sg62
g101
sg49
g50
sS'trials.thisN'
p528
I40
sg19
I1
sg27
g36
(g38
S'\x00\x00\x00\x00\x00\x00\x1a@'
tRp529
sg52
g53
sg23
S'1'
sg18
F157.75315489323111
sg33
g34
sg51
g11
sg20
S'1'
sg65
g36
(g77
S'\x00\x00\x00\x00\x00\x00\x00\x00'
tRp530
sg44
g45
sg40
g41
sg25
F0.23072479339316487
sS'trials.thisIndex'
p531
g36
(g80
S'I\x00\x00\x00'
tRp532
sg26
V5
sS'trials.thisRepN'
p533
I0
sg66
Vscorpion
p534
sg63
V../experiment_stimuli/bw_bc_bl/Living_Things/Insects/scorpion_6.jpg
p535
sg21
F0.55142903898376971
sS'trials.thisTrialN'
p536
I40
sa(dp537
g31
g32
sg17
F160.29350567341316
sg24
I1
sg35
g39
sg14
F160.28875268885167
sg16
g36
(g70
S'\x01\x00\x00\x00'
tRp538
sg42
g43
sg46
g47
sg15
g72
sg22
F162.57437578984536
sg64
g73
sg62
g74
sg49
g50
sS'trials.thisN'
p539
I41
sg19
I1
sg27
g36
(g38
S'\x00\x00\x00\x00\x00\x00\x1a@'
tRp540
sg52
g53
sg23
S'1'
sg18
F161.54137533943867
sg33
g34
sg51
g11
sg20
S'1'
sg65
g36
(g77
S'\x00\x00\x00\x00\x00\x00\x00\x00'
tRp541
sg44
g45
sg40
g41
sg25
F0.22069454216398299
sS'trials.thisIndex'
p542
g36
(g80
S'N\x00\x00\x00'
tRp543
sg26
V5
sS'trials.thisRepN'
p544
I0
sg66
Vsofa
p545
sg63
V../experiment_stimuli/bw_bc_bl/Nonliving_Things/Furniture/sofa_22.jpg
p546
sg21
F1.0124507744330913
sS'trials.thisTrialN'
p547
I41
sa(dp548
g31
g32
sg17
F164.53293948818464
sg24
I0
sg35
g39
sg14
F164.52799260051688
sg16
g36
(g70
S'\x02\x00\x00\x00'
tRp549
sg42
g43
sg46
g47
sg15
g124
sg22
F166.24233059352264
sg64
g88
sg62
g74
sg49
g50
sS'trials.thisN'
p550
I42
sg19
I0
sg27
g36
(g38
S'\x00\x00\x00\x00\x00\x00\x18@'
tRp551
sg52
g53
sg23
S'2'
sg18
F165.81065737729659
sg33
g34
sg51
g11
sg20
S'1'
sg65
g36
(g77
S'\x00\x00\x00\x00\x00\x00\x00\x00'
tRp552
sg44
g45
sg40
g41
sg25
F0.26078419393161312
sS'trials.thisIndex'
p553
g36
(g80
S'@\x00\x00\x00'
tRp554
sg26
V5
sS'trials.thisRepN'
p555
I0
sg66
Vplane
p556
sg63
V../experiment_stimuli/bw_bc_bl/Nonliving_Things/Vehicles/plane_0.jpg
p557
sg21
F0.41112203302327543
sS'trials.thisTrialN'
p558
I42
sa(dp559
g31
g32
sg17
F168.2409245611052
sg24
I0
sg35
g39
sg14
F168.23602501465939
sg16
g36
(g70
S'\x01\x00\x00\x00'
tRp560
sg42
g43
sg46
g47
sg15
g124
sg22
F170.23102631146321
sg64
g125
sg62
g101
sg49
g50
sS'trials.thisN'
p561
I43
sg19
I1
sg27
g36
(g38
S'\x00\x00\x00\x00\x00\x00\x1e@'
tRp562
sg52
g53
sg23
S'2'
sg18
F169.50869170151418
sg33
g34
sg51
g11
sg20
S'1'
sg65
g36
(g77
S'\x00\x00\x00\x00\x00\x00\x00\x00'
tRp563
sg44
g45
sg40
g41
sg25
F0.2307184967212379
sS'trials.thisIndex'
p564
g36
(g80
S'&\x00\x00\x00'
tRp565
sg26
V5
sS'trials.thisRepN'
p566
I0
sg66
Vhen
p567
sg63
V../experiment_stimuli/bw_bc_bl/Living_Things/Birds/hen_15.jpg
p568
sg21
F0.70176916371565312
sS'trials.thisTrialN'
p569
I43
sa(dp570
g31
g32
sg17
F172.19958708115155
sg24
I0
sg35
g39
sg14
F172.19463143777102
sg16
g36
(g70
S'\x01\x00\x00\x00'
tRp571
sg42
g43
sg46
g47
sg15
g124
sg22
F173.86893022619188
sg64
g125
sg62
g101
sg49
g50
sS'trials.thisN'
p572
I44
sg19
I1
sg27
g36
(g38
S'\x00\x00\x00\x00\x00\x00\x18@'
tRp573
sg52
g53
sg23
S'3'
sg18
F173.45727287366753
sg33
g34
sg51
g11
sg20
S'1'
sg65
g36
(g77
S'\x00\x00\x00\x00\x00\x00\x00\x00'
tRp574
sg44
g45
sg40
g41
sg25
F0.34095994761446491
sS'trials.thisIndex'
p575
g36
(g80
S'*\x00\x00\x00'
tRp576
sg26
V5
sS'trials.thisRepN'
p577
I0
sg66
Vhummingbird
p578
sg63
V../experiment_stimuli/bw_bc_bl/Living_Things/Birds/hummingbird_2.jpg
p579
sg21
F0.39107325277291238
sS'trials.thisTrialN'
p580
I44
sa(dp581
g31
g32
sg17
F175.94897270004731
sg24
I0
sg35
g39
sg14
F175.94277455209522
sg16
g36
(g70
S'\x01\x00\x00\x00'
tRp582
sg42
g43
sg46
g47
sg15
g72
sg22
F177.77741143124877
sg64
g73
sg62
g74
sg49
g50
sS'trials.thisN'
p583
I45
sg19
I1
sg27
g36
(g38
S'\x00\x00\x00\x00\x00\x00\x18@'
tRp584
sg52
g53
sg23
S'2'
sg18
F177.17535892577143
sg33
g34
sg51
g11
sg20
S'1'
sg65
g36
(g77
S'\x00\x00\x00\x00\x00\x00\x00\x00'
tRp585
sg44
g45
sg40
g41
sg25
F0.41113939008209854
sS'trials.thisIndex'
p586
g36
(g80
S'E\x00\x00\x00'
tRp587
sg26
V5
sS'trials.thisRepN'
p588
I0
sg66
Vrocking-chair
p589
sg63
V../experiment_stimuli/bw_bc_bl/Nonliving_Things/Furniture/rocking-chair_25.jpg
p590
sg21
F0.58149945037439466
sS'trials.thisTrialN'
p591
I45
sa(dp592
g31
g32
sg17
F179.92639229015913
sg24
I1
sg35
g39
sg14
F179.92143312806729
sg16
g36
(g70
S'\x02\x00\x00\x00'
tRp593
sg42
g43
sg46
g47
sg15
g72
sg22
F181.52553848922253
sg64
g283
sg62
g101
sg49
g50
sS'trials.thisN'
p594
I46
sg19
I1
sg27
g36
(g38
S'\x00\x00\x00\x00\x00\x00\x18@'
tRp595
sg52
g53
sg23
S'1'
sg18
F181.15401949419174
sg33
g34
sg51
g11
sg20
S'2'
sg65
g36
(g77
S'\x00\x00\x00\x00\x00\x00\x00\x00'
tRp596
sg44
g45
sg40
g41
sg25
F0.24074354110052809
sS'trials.thisIndex'
p597
g36
(g80
S'1\x00\x00\x00'
tRp598
sg26
V5
sS'trials.thisRepN'
p599
I0
sg66
Vlobster
p600
sg63
V../experiment_stimuli/bw_bc_bl/Living_Things/Marine_creatures/lobster_26.jpg
p601
sg21
F0.35099348810035735
sS'trials.thisTrialN'
p602
I46
sa(dp603
g31
g32
sg17
F183.50417679880047
sg24
I1
sg35
g39
sg14
F183.49920256924815
sg16
g36
(g70
S'\x02\x00\x00\x00'
tRp604
sg42
g43
sg46
g47
sg15
g72
sg22
F185.30376663885545
sg64
g100
sg62
g101
sg49
g50
sS'trials.thisN'
p605
I47
sg19
I0
sg27
g36
(g38
S'\x00\x00\x00\x00\x00\x00\x18@'
tRp606
sg52
g53
sg23
S'1'
sg18
F184.75182821264025
sg33
g34
sg51
g11
sg20
S'1'
sg65
g36
(g77
S'\x00\x00\x00\x00\x00\x00\x00\x00'
tRp607
sg44
g45
sg40
g41
sg25
F0.20064070943044499
sS'trials.thisIndex'
p608
g36
(g80
S'\x10\x00\x00\x00'
tRp609
sg26
V5
sS'trials.thisRepN'
p610
I0
sg66
Vcheetah
p611
sg63
V../experiment_stimuli/bw_bc_bl/Living_Things/Animals/cheetah_7.jpg
p612
sg21
F0.53137363801943138
sS'trials.thisTrialN'
p613
I47
sa(dp614
g31
g32
sg17
F187.24219051288674
sg24
I0
sg35
g39
sg14
F187.23732931574341
sg16
g36
(g70
S'\x02\x00\x00\x00'
tRp615
sg42
g43
sg46
g47
sg15
g124
sg22
F189.13207531545777
sg64
g88
sg62
g74
sg49
g50
sS'trials.thisN'
p616
I48
sg19
I1
sg27
g36
(g38
S'\x00\x00\x00\x00\x00\x00\x1a@'
tRp617
sg52
g53
sg23
S'3'
sg18
F188.49998717597919
sg33
g34
sg51
g11
sg20
S'2'
sg65
g36
(g77
S'\x00\x00\x00\x00\x00\x00\x00\x00'
tRp618
sg44
g45
sg40
g41
sg25
F0.20064652885776013
sS'trials.thisIndex'
p619
g36
(g80
S'\t\x00\x00\x00'
tRp620
sg26
V5
sS'trials.thisRepN'
p621
I0
sg66
Vbus
p622
sg63
V../experiment_stimuli/bw_bc_bl/Nonliving_Things/Vehicles/bus_18.jpg
p623
sg21
F0.61155442602466792
sS'trials.thisTrialN'
p624
I48
sa(dp625
g31
g32
sg17
F191.07059361308347
sg24
I1
sg35
g39
sg14
F191.06565330037847
sg16
g36
(g70
S'\x02\x00\x00\x00'
tRp626
sg42
g43
sg46
g47
sg15
g124
sg22
F192.64977170719067
sg64
g73
sg62
g74
sg49
g50
sS'trials.thisN'
p627
I49
sg19
I1
sg27
g36
(g38
S'\x00\x00\x00\x00\x00\x00\x1e@'
tRp628
sg52
g53
sg23
S'1'
sg18
F192.30826580105349
sg33
g34
sg51
g11
sg20
S'2'
sg65
g36
(g77
S'\x00\x00\x00\x00\x00\x00\x00\x00'
tRp629
sg44
g45
sg40
g41
sg25
F0.23071521066594869
sS'trials.thisIndex'
p630
g36
(g80
S']\x00\x00\x00'
tRp631
sg26
V5
sS'trials.thisRepN'
p632
I0
sg66
Vwardrobe
p633
sg63
V../experiment_stimuli/bw_bc_bl/Nonliving_Things/Furniture/wardrobe_10.jpg
p634
sg21
F0.32094483968103305
sS'trials.thisTrialN'
p635
I49
sa(dp636
g31
g32
sg17
F194.61838344600983
sg24
I0
sg35
g39
sg14
F194.61336471728282
sg16
g36
(g70
S'\x01\x00\x00\x00'
tRp637
sg42
g43
sg46
g47
sg15
g124
sg22
F196.53818889131071
sg64
g100
sg62
g101
sg49
g50
sS'trials.thisN'
p638
I50
sg19
I0
sg27
g36
(g38
S'\x00\x00\x00\x00\x00\x00\x1a@'
tRp639
sg52
g53
sg23
S'3'
sg18
F195.88603071635589
sg33
g34
sg51
g11
sg20
S'2'
sg65
g36
(g77
S'\x00\x00\x00\x00\x00\x00\x00\x00'
tRp640
sg44
g45
sg40
g41
sg25
F0.23072095139650628
sS'trials.thisIndex'
p641
g36
(g80
S'\x14\x00\x00\x00'
tRp642
sg26
V5
sS'trials.thisRepN'
p643
I0
sg66
Vcow
p644
sg63
V../experiment_stimuli/bw_bc_bl/Living_Things/Animals/cow_9.jpg
p645
sg21
F0.63159945077495649
sS'trials.thisTrialN'
p646
I50
sa(dp647
g31
g32
sg17
F198.50659891875694
sg24
I1
sg35
g39
sg14
F198.50181606243132
sg16
g36
(g70
S'\x02\x00\x00\x00'
tRp648
sg42
g43
sg46
g47
sg15
g124
sg22
F200.08592864620732
sg64
g73
sg62
g74
sg49
g50
sS'trials.thisN'
p649
I51
sg19
I1
sg27
g36
(g38
S'\x00\x00\x00\x00\x00\x00\x1c@'
tRp650
sg52
g53
sg23
S'1'
sg18
F199.74443252943456
sg33
g34
sg51
g11
sg20
S'2'
sg65
g36
(g77
S'\x00\x00\x00\x00\x00\x00\x00\x00'
tRp651
sg44
g45
sg40
g41
sg25
F0.25076002924470231
sS'trials.thisIndex'
p652
g36
(g80
S'\x08\x00\x00\x00'
tRp653
sg26
V5
sS'trials.thisRepN'
p654
I0
sg66
Vbookcase
p655
sg63
V../experiment_stimuli/bw_bc_bl/Nonliving_Things/Furniture/bookcase_8.jpg
p656
sg21
F0.32094136963132769
sS'trials.thisTrialN'
p657
I51
sa(dp658
g31
g32
sg17
F202.07448806572938
sg24
I1
sg35
g39
sg14
F202.06957197817974
sg16
g36
(g70
S'\x01\x00\x00\x00'
tRp659
sg42
g43
sg46
g47
sg15
g124
sg22
F203.7238033998874
sg64
g100
sg62
g101
sg49
g50
sS'trials.thisN'
p660
I52
sg19
I0
sg27
g36
(g38
S'\x00\x00\x00\x00\x00\x00\x18@'
tRp661
sg52
g53
sg23
S'1'
sg18
F203.33221496647457
sg33
g34
sg51
g11
sg20
S'2'
sg65
g36
(g77
S'\x00\x00\x00\x00\x00\x00\x00\x00'
tRp662
sg44
g45
sg40
g41
sg25
F0.23072226322256029
sS'trials.thisIndex'
p663
g36
(g80
S'\x01\x00\x00\x00'
tRp664
sg26
V5
sS'trials.thisRepN'
p665
I0
sg66
Varmadillo
p666
sg63
V../experiment_stimuli/bw_bc_bl/Living_Things/Animals/armadillo_7.jpg
p667
sg21
F0.37103546061553061
sS'trials.thisTrialN'
p668
I52
sa(dp669
g31
g32
sg17
F205.69241920992499
sg24
I1
sg35
g39
sg14
F205.68745523231337
sg16
g36
(g70
S'\x01\x00\x00\x00'
tRp670
sg42
g43
sg46
g47
sg15
g72
sg22
F207.41184709279332
sg64
g88
sg62
g74
sg49
g50
sS'trials.thisN'
p671
I53
sg19
I0
sg27
g36
(g38
S'\x00\x00\x00\x00\x00\x00\x18@'
tRp672
sg52
g53
sg23
S'1'
sg18
F206.96010399854276
sg33
g34
sg51
g11
sg20
S'2'
sg65
g36
(g77
S'\x00\x00\x00\x00\x00\x00\x00\x00'
tRp673
sg44
g45
sg40
g41
sg25
F0.36101039370987564
sS'trials.thisIndex'
p674
g36
(g80
S'\x07\x00\x00\x00'
tRp675
sg26
V5
sS'trials.thisRepN'
p676
I0
sg66
Vboat
p677
sg63
V../experiment_stimuli/bw_bc_bl/Nonliving_Things/Vehicles/boat_21.jpg
p678
sg21
F0.43118332099402323
sS'trials.thisTrialN'
p679
I53
sa(dp680
g31
g32
sg17
F209.51185698347399
sg24
I0
sg35
g39
sg14
F209.50573786447058
sg16
g36
(g70
S'\x02\x00\x00\x00'
tRp681
sg42
g43
sg46
g47
sg15
g72
sg22
F211.41050347615965
sg64
g405
sg62
g101
sg49
g50
sS'trials.thisN'
p682
I54
sg19
I1
sg27
g36
(g38
S'\x00\x00\x00\x00\x00\x00\x18@'
tRp683
sg52
g53
sg23
S'3'
sg18
F210.79845768160885
sg33
g34
sg51
g11
sg20
S'2'
sg65
g36
(g77
S'\x00\x00\x00\x00\x00\x00\x00\x00'
tRp684
sg44
g45
sg40
g41
sg25
F0.26095704466570169
sS'trials.thisIndex'
p685
g36
(g80
S'\x18\x00\x00\x00'
tRp686
sg26
V5
sS'trials.thisRepN'
p687
I0
sg66
Vdragonfly
p688
sg63
V../experiment_stimuli/bw_bc_bl/Living_Things/Insects/dragonfly_10.jpg
p689
sg21
F0.59150637837592512
sS'trials.thisTrialN'
p690
I54
sa(dp691
g31
g32
sg17
F213.41025655489648
sg24
I0
sg35
g39
sg14
F213.40420555131277
sg16
g36
(g70
S'\x01\x00\x00\x00'
tRp692
sg42
g43
sg46
g47
sg15
g72
sg22
F215.03841101168655
sg64
g238
sg62
g74
sg49
g50
sS'trials.thisN'
p693
I55
sg19
I1
sg27
g36
(g38
S'\x00\x00\x00\x00\x00\x00 @'
tRp694
sg52
g53
sg23
S'3'
sg18
F214.67687794874655
sg33
g34
sg51
g11
sg20
S'1'
sg65
g36
(g77
S'\x00\x00\x00\x00\x00\x00\x00\x00'
tRp695
sg44
g45
sg40
g41
sg25
F0.2908487178501673
sS'trials.thisIndex'
p696
g36
(g80
S'B\x00\x00\x00'
tRp697
sg26
V5
sS'trials.thisRepN'
p698
I0
sg66
Vpot
p699
sg63
V../experiment_stimuli/bw_bc_bl/Nonliving_Things/Kitchen_Uten/pot_24.jpg
p700
sg21
F0.34097455284791067
sS'trials.thisTrialN'
p701
I55
sa(dp702
g31
g32
sg17
F217.06703519180883
sg24
I1
sg35
g39
sg14
F217.06218141521094
sg16
g36
(g70
S'\x02\x00\x00\x00'
tRp703
sg42
g43
sg46
g47
sg15
g72
sg22
F218.69637701107422
sg64
g100
sg62
g101
sg49
g50
sS'trials.thisN'
p704
I56
sg19
I1
sg27
g36
(g38
S'\x00\x00\x00\x00\x00\x00\x18@'
tRp705
sg52
g53
sg23
S'1'
sg18
F218.3147848143708
sg33
g34
sg51
g11
sg20
S'2'
sg65
g36
(g77
S'\x00\x00\x00\x00\x00\x00\x00\x00'
tRp706
sg44
g45
sg40
g41
sg25
F0.26077492302283645
sS'trials.thisIndex'
p707
g36
(g80
S'D\x00\x00\x00'
tRp708
sg26
V5
sS'trials.thisRepN'
p709
I0
sg66
Vrhino
p710
sg63
V../experiment_stimuli/bw_bc_bl/Living_Things/Animals/rhino_12.jpg
p711
sg21
F0.36102760396897793
sS'trials.thisTrialN'
p712
I56
sa(dp713
g31
g32
sg17
F220.69628355378518
sg24
I0
sg35
g39
sg14
F220.69006353366422
sg16
g36
(g70
S'\x01\x00\x00\x00'
tRp714
sg42
g43
sg46
g47
sg15
g124
sg22
F222.75517289049458
sg64
g125
sg62
g101
sg49
g50
sS'trials.thisN'
p715
I57
sg19
I1
sg27
g36
(g38
S'\x00\x00\x00\x00\x00\x00\x18@'
tRp716
sg52
g53
sg23
S'2'
sg18
F221.97273872414371
sg33
g34
sg51
g11
sg20
S'1'
sg65
g36
(g77
S'\x00\x00\x00\x00\x00\x00\x00\x00'
tRp717
sg44
g45
sg40
g41
sg25
F0.2006524195894599
sS'trials.thisIndex'
p718
g36
(g80
S'<\x00\x00\x00'
tRp719
sg26
V5
sS'trials.thisRepN'
p720
I0
sg66
Vpelican
p721
sg63
V../experiment_stimuli/bw_bc_bl/Living_Things/Birds/pelican_13.jpg
p722
sg21
F0.76188258489128202
sS'trials.thisTrialN'
p723
I57
sa(dp724
g31
g32
sg17
F224.69363853475079
sg24
I0
sg35
g39
sg14
F224.68874611606589
sg16
g36
(g70
S'\x02\x00\x00\x00'
tRp725
sg42
g43
sg46
g47
sg15
g72
sg22
F226.47325157822343
sg64
g125
sg62
g101
sg49
g50
sS'trials.thisN'
p726
I58
sg19
I1
sg27
g36
(g38
S'\x00\x00\x00\x00\x00\x00\x18@'
tRp727
sg52
g53
sg23
S'2'
sg18
F225.96141314518172
sg33
g34
sg51
g11
sg20
S'2'
sg65
g36
(g77
S'\x00\x00\x00\x00\x00\x00\x00\x00'
tRp728
sg44
g45
sg40
g41
sg25
F0.3409603915642947
sS'trials.thisIndex'
p729
g36
(g80
S'U\x00\x00\x00'
tRp730
sg26
V5
sS'trials.thisRepN'
p731
I0
sg66
Vtoucan
p732
sg63
V../experiment_stimuli/bw_bc_bl/Living_Things/Birds/toucan_6.jpg
p733
sg21
F0.49130054278066382
sS'trials.thisTrialN'
p734
I58
sa(dp735
g31
g32
sg17
F228.55200490111019
sg24
I1
sg35
g39
sg14
F228.54713123408146
sg16
g36
(g70
S'\x01\x00\x00\x00'
tRp736
sg42
g43
sg46
g47
sg15
g72
sg22
F230.24144720198819
sg64
g238
sg62
g74
sg49
g50
sS'trials.thisN'
p737
I59
sg19
I1
sg27
g36
(g38
S'\x00\x00\x00\x00\x00\x00\x18@'
tRp738
sg52
g53
sg23
S'1'
sg18
F229.80977698956849
sg33
g34
sg51
g11
sg20
S'1'
sg65
g36
(g77
S'\x00\x00\x00\x00\x00\x00\x00\x00'
tRp739
sg44
g45
sg40
g41
sg25
F0.20065649115713313
sS'trials.thisIndex'
p740
g36
(g80
S'S\x00\x00\x00'
tRp741
sg26
V5
sS'trials.thisRepN'
p742
I0
sg66
Vteapot
p743
sg63
V../experiment_stimuli/bw_bc_bl/Nonliving_Things/Kitchen_Uten/teapot_17.jpg
p744
sg21
F0.41112174367299303
sS'trials.thisTrialN'
p745
I59
sa(dp746
g31
g32
sg17
F232.1802713899524
sg24
I0
sg35
g39
sg14
F232.17501492780866
sg16
g36
(g70
S'\x02\x00\x00\x00'
tRp747
sg42
g43
sg46
g47
sg15
g72
sg22
F234.08983818133129
sg64
g283
sg62
g101
sg49
g50
sS'trials.thisN'
p748
I60
sg19
I1
sg27
g36
(g38
S'\x00\x00\x00\x00\x00\x00\x1e@'
tRp749
sg52
g53
sg23
S'3'
sg18
F233.46772463229718
sg33
g34
sg51
g11
sg20
S'2'
sg65
g36
(g77
S'\x00\x00\x00\x00\x00\x00\x00\x00'
tRp750
sg44
g45
sg40
g41
sg25
F0.1806166012538597
sS'trials.thisIndex'
p751
g36
(g80
S'+\x00\x00\x00'
tRp752
sg26
V5
sS'trials.thisRepN'
p753
I0
sg66
Vkiller-whale
p754
sg63
V../experiment_stimuli/bw_bc_bl/Living_Things/Marine_creatures/killer-whale_21.jpg
p755
sg21
F0.60153456911211833
sS'trials.thisTrialN'
p756
I60
sa(dp757
g31
g32
sg17
F236.00949933554512
sg24
I0
sg35
g39
sg14
F236.00333722430514
sg16
g36
(g70
S'\x01\x00\x00\x00'
tRp758
sg42
g43
sg46
g47
sg15
g72
sg22
F237.64755545859225
sg64
g88
sg62
g74
sg49
g50
sS'trials.thisN'
p759
I61
sg19
I1
sg27
g36
(g38
S'\x00\x00\x00\x00\x00\x00\x18@'
tRp760
sg52
g53
sg23
S'3'
sg18
F237.26600246829912
sg33
g34
sg51
g11
sg20
S'1'
sg65
g36
(g77
S'\x00\x00\x00\x00\x00\x00\x00\x00'
tRp761
sg44
g45
sg40
g41
sg25
F0.25075743527850136
sS'trials.thisIndex'
p762
g36
(g80
S'[\x00\x00\x00'
tRp763
sg26
V5
sS'trials.thisRepN'
p764
I0
sg66
Vvan
p765
sg63
V../experiment_stimuli/bw_bc_bl/Nonliving_Things/Vehicles/van_23.jpg
p766
sg21
F0.36101073957979679
sS'trials.thisTrialN'
p767
I61
sa(dp768
g31
g32
sg17
F239.63608093478251
sg24
I1
sg35
g39
sg14
F239.63122156827012
sg16
g36
(g70
S'\x01\x00\x00\x00'
tRp769
sg42
g43
sg46
g47
sg15
g72
sg22
F241.36563354480313
sg64
g238
sg62
g74
sg49
g50
sS'trials.thisN'
p770
I62
sg19
I1
sg27
g36
(g38
S'\x00\x00\x00\x00\x00\x00\x18@'
tRp771
sg52
g53
sg23
S'1'
sg18
F240.87384226074209
sg33
g34
sg51
g11
sg20
S'1'
sg65
g36
(g77
S'\x00\x00\x00\x00\x00\x00\x00\x00'
tRp772
sg44
g45
sg40
g41
sg25
F0.18095870915567502
sS'trials.thisIndex'
p773
g36
(g80
S'G\x00\x00\x00'
tRp774
sg26
V5
sS'trials.thisRepN'
p775
I0
sg66
Vsaucepan
p776
sg63
V../experiment_stimuli/bw_bc_bl/Nonliving_Things/Kitchen_Uten/saucepan_24.jpg
p777
sg21
F0.47125283378409222
sS'trials.thisTrialN'
p778
I62
sa(dp779
g31
g32
sg17
F243.28408182912972
sg24
I0
sg35
g39
sg14
F243.27918490674347
sg16
g36
(g70
S'\x01\x00\x00\x00'
tRp780
sg42
g43
sg46
g47
sg15
g124
sg22
F245.25409798393957
sg64
g283
sg62
g101
sg49
g50
sS'trials.thisN'
p781
I63
sg19
I1
sg27
g36
(g38
S'\x00\x00\x00\x00\x00\x00\x18@'
tRp782
sg52
g53
sg23
S'2'
sg18
F244.55181754898513
sg33
g34
sg51
g11
sg20
S'1'
sg65
g36
(g77
S'\x00\x00\x00\x00\x00\x00\x00\x00'
tRp783
sg44
g45
sg40
g41
sg25
F0.2207053053425625
sS'trials.thisIndex'
p784
g36
(g80
S'7\x00\x00\x00'
tRp785
sg26
V5
sS'trials.thisRepN'
p786
I0
sg66
Vnarwhal
p787
sg63
V../experiment_stimuli/bw_bc_bl/Living_Things/Marine_creatures/narwhal_15.jpg
p788
sg21
F0.67170610587345436
sS'trials.thisTrialN'
p789
I63
sa(dp790
g31
g32
sg17
F247.21291467506671
sg24
I0
sg35
g39
sg14
F247.20769106171792
sg16
g36
(g70
S'\x02\x00\x00\x00'
tRp791
sg42
g43
sg46
g47
sg15
g72
sg22
F248.86210028931964
sg64
g125
sg62
g101
sg49
g50
sS'trials.thisN'
p792
I64
sg19
I0
sg27
g36
(g38
S'\x00\x00\x00\x00\x00\x00\x18@'
tRp793
sg52
g53
sg23
S'2'
sg18
F248.47033769689733
sg33
g34
sg51
g11
sg20
S'1'
sg65
g36
(g77
S'\x00\x00\x00\x00\x00\x00\x00\x00'
tRp794
sg44
g45
sg40
g41
sg25
F0.44117765518603846
sS'trials.thisIndex'
p795
g36
(g80
S'?\x00\x00\x00'
tRp796
sg26
V5
sS'trials.thisRepN'
p797
I0
sg66
Vpigeon
p798
sg63
V../experiment_stimuli/bw_bc_bl/Living_Things/Birds/pigeon_2.jpg
p799
sg21
F0.3711889095720835
sS'trials.thisTrialN'
p800
I64
sa(dp801
g31
g32
sg17
F251.04108691751026
sg24
I0
sg35
g39
sg14
F251.03601027198602
sg16
g36
(g70
S'\x02\x00\x00\x00'
tRp802
sg42
g43
sg46
g47
sg15
g124
sg22
F252.93077435053419
sg64
g193
sg62
g74
sg49
g50
sS'trials.thisN'
p803
I65
sg19
I0
sg27
g36
(g38
S'\x00\x00\x00\x00\x00\x00\x18@'
tRp804
sg52
g53
sg23
S'2'
sg18
F252.28864050534321
sg33
g34
sg51
g11
sg20
S'1'
sg65
g36
(g77
S'\x00\x00\x00\x00\x00\x00\x00\x00'
tRp805
sg44
g45
sg40
g41
sg25
F0.29087558609899133
sS'trials.thisIndex'
p806
g36
(g80
S'H\x00\x00\x00'
tRp807
sg26
V5
sS'trials.thisRepN'
p808
I0
sg66
Vsaxophone
p809
sg63
V../experiment_stimuli/bw_bc_bl/Nonliving_Things/Musical_Inst/saxophone_10.jpg
p810
sg21
F0.61155620397767052
sS'trials.thisTrialN'
p811
I65
sa(dp812
g31
g32
sg17
F254.95935422659386
sg24
I0
sg35
g39
sg14
F254.95452981448034
sg16
g36
(g70
S'\x02\x00\x00\x00'
tRp813
sg42
g43
sg46
g47
sg15
g124
sg22
F256.5186126625631
sg64
g148
sg62
g74
sg49
g50
sS'trials.thisN'
p814
I66
sg19
I0
sg27
g36
(g38
S'\x00\x00\x00\x00\x00\x00\x1a@'
tRp815
sg52
g53
sg23
S'2'
sg18
F256.19713883043732
sg33
g34
sg51
g11
sg20
S'1'
sg65
g36
(g77
S'\x00\x00\x00\x00\x00\x00\x00\x00'
tRp816
sg44
g45
sg40
g41
sg25
F0.20067884383024648
sS'trials.thisIndex'
p817
g36
(g80
S')\x00\x00\x00'
tRp818
sg26
V5
sS'trials.thisRepN'
p819
I0
sg66
Vhouse
p820
sg63
V../experiment_stimuli/bw_bc_bl/Nonliving_Things/Buildings/house_7.jpg
p821
sg21
F0.30090294982073829
sS'trials.thisTrialN'
p822
I66
sa(dp823
g31
g32
sg17
F258.45694210968213
sg24
I1
sg35
g39
sg14
F258.45215354271932
sg16
g36
(g70
S'\x01\x00\x00\x00'
tRp824
sg42
g43
sg46
g47
sg15
g72
sg22
F260.05627173115499
sg64
g73
sg62
g74
sg49
g50
sS'trials.thisN'
p825
I67
sg19
I1
sg27
g36
(g38
S'\x00\x00\x00\x00\x00\x00\x18@'
tRp826
sg52
g53
sg23
S'1'
sg18
F259.68473645061022
sg33
g34
sg51
g11
sg20
S'1'
sg65
g36
(g77
S'\x00\x00\x00\x00\x00\x00\x00\x00'
tRp827
sg44
g45
sg40
g41
sg25
F0.24074410105822608
sS'trials.thisIndex'
p828
g36
(g80
S'/\x00\x00\x00'
tRp829
sg26
V5
sS'trials.thisRepN'
p830
I0
sg66
Vlectern
p831
sg63
V../experiment_stimuli/bw_bc_bl/Nonliving_Things/Furniture/lectern_1.jpg
p832
sg21
F0.35099147702567279
sS'trials.thisTrialN'
p833
I67
sa(dp834
g31
g32
sg17
F262.03462595451856
sg24
I0
sg35
g39
sg14
F262.02991733024828
sg16
g36
(g70
S'\x01\x00\x00\x00'
tRp835
sg42
g43
sg46
g47
sg15
g72
sg22
F263.88458280975465
sg64
g238
sg62
g74
sg49
g50
sS'trials.thisN'
p836
I68
sg19
I1
sg27
g36
(g38
S'\x00\x00\x00\x00\x00\x00\x1a@'
tRp837
sg52
g53
sg23
S'2'
sg18
F263.28253393579507
sg33
g34
sg51
g11
sg20
S'1'
sg65
g36
(g77
S'\x00\x00\x00\x00\x00\x00\x00\x00'
tRp838
sg44
g45
sg40
g41
sg25
F0.24074794305488467
sS'trials.thisIndex'
p839
g36
(g80
S'\x1f\x00\x00\x00'
tRp840
sg26
V5
sS'trials.thisRepN'
p841
I0
sg66
Vfrying-pan
p842
sg63
V../experiment_stimuli/bw_bc_bl/Nonliving_Things/Kitchen_Uten/frying-pan_12.jpg
p843
sg21
F0.58148463862016797
sS'trials.thisTrialN'
p844
I68
sa(dp845
g31
g32
sg17
F265.86309256119421
sg24
I1
sg35
g39
sg14
F265.85823492752388
sg16
g36
(g70
S'\x01\x00\x00\x00'
tRp846
sg42
g43
sg46
g47
sg15
g72
sg22
F267.43229533947306
sg64
g88
sg62
g74
sg49
g50
sS'trials.thisN'
p847
I69
sg19
I1
sg27
g36
(g38
S'\x00\x00\x00\x00\x00\x00\x18@'
tRp848
sg52
g53
sg23
S'1'
sg18
F267.09081945189973
sg33
g34
sg51
g11
sg20
S'1'
sg65
g36
(g77
S'\x00\x00\x00\x00\x00\x00\x00\x00'
tRp849
sg44
g45
sg40
g41
sg25
F0.18060905247693881
sS'trials.thisIndex'
p850
g36
(g80
S'6\x00\x00\x00'
tRp851
sg26
V5
sS'trials.thisRepN'
p852
I0
sg66
Vmotorbike
p853
sg63
V../experiment_stimuli/bw_bc_bl/Nonliving_Things/Vehicles/motorbike_16.jpg
p854
sg21
F0.32092537771677598
sS'trials.thisTrialN'
p855
I69
sa(dp856
g31
g32
sg17
F269.35077064239886
sg24
I1
sg35
g39
sg14
F269.3458294274169
sg16
g36
(g70
S'\x02\x00\x00\x00'
tRp857
sg42
g43
sg46
g47
sg15
g72
sg22
F271.36090620007599
sg64
g125
sg62
g101
sg49
g50
sS'trials.thisN'
p858
I70
sg19
I1
sg27
g36
(g38
S'\x00\x00\x00\x00\x00\x00\x18@'
tRp859
sg52
g53
sg23
S'1'
sg18
F270.60846520529594
sg33
g34
sg51
g11
sg20
S'2'
sg65
g36
(g77
S'\x00\x00\x00\x00\x00\x00\x00\x00'
tRp860
sg44
g45
sg40
g41
sg25
F0.23090280982432887
sS'trials.thisIndex'
p861
g36
(g80
S'\x04\x00\x00\x00'
tRp862
sg26
V5
sS'trials.thisRepN'
p863
I0
sg66
Vbarn-owl
p864
sg63
V../experiment_stimuli/bw_bc_bl/Living_Things/Birds/barn-owl_10.jpg
p865
sg21
F0.731813523278106
sS'trials.thisTrialN'
p866
I70
sa(dp867
g31
g32
sg17
F273.32930527278222
sg24
I0
sg35
g39
sg14
F273.32446256373078
sg16
g36
(g70
S'\x02\x00\x00\x00'
tRp868
sg42
g43
sg46
g47
sg15
g124
sg22
F275.22927780268947
sg64
g88
sg62
g74
sg49
g50
sS'trials.thisN'
p869
I71
sg19
I1
sg27
g36
(g38
S'\x00\x00\x00\x00\x00\x00\x18@'
tRp870
sg52
g53
sg23
S'3'
sg18
F274.60715666727629
sg33
g34
sg51
g11
sg20
S'2'
sg65
g36
(g77
S'\x00\x00\x00\x00\x00\x00\x00\x00'
tRp871
sg44
g45
sg40
g41
sg25
F0.21069202019134536
sS'trials.thisIndex'
p872
g36
(g80
S'\x0b\x00\x00\x00'
tRp873
sg26
V5
sS'trials.thisRepN'
p874
I0
sg66
Vcar
p875
sg63
V../experiment_stimuli/bw_bc_bl/Nonliving_Things/Vehicles/car_17.jpg
p876
sg21
F0.60155383596429601
sS'trials.thisTrialN'
p877
I71
sa(dp878
g31
g32
sg17
F277.17764301196439
sg24
I0
sg35
g39
sg14
F277.17282683280064
sg16
g36
(g70
S'\x01\x00\x00\x00'
tRp879
sg42
g43
sg46
g47
sg15
g124
sg22
F279.20790231542196
sg64
g125
sg62
g101
sg49
g50
sS'trials.thisN'
p880
I72
sg19
I1
sg27
g36
(g38
S'\x00\x00\x00\x00\x00\x00\x18@'
tRp881
sg52
g53
sg23
S'2'
sg18
F278.43547975720139
sg33
g34
sg51
g11
sg20
S'1'
sg65
g36
(g77
S'\x00\x00\x00\x00\x00\x00\x00\x00'
tRp882
sg44
g45
sg40
g41
sg25
F0.26080890389857814
sS'trials.thisIndex'
p883
g36
(g80
S'F\x00\x00\x00'
tRp884
sg26
V5
sS'trials.thisRepN'
p885
I0
sg66
Vrooster
p886
sg63
V../experiment_stimuli/bw_bc_bl/Living_Things/Birds/rooster_25.jpg
p887
sg21
F0.75186055910307914
sS'trials.thisTrialN'
p888
I72
sa(dp889
g31
g32
sg17
F281.20644594886107
sg24
I0
sg35
g39
sg14
F281.20159905584296
sg16
g36
(g70
S'\x01\x00\x00\x00'
tRp890
sg42
g43
sg46
g47
sg15
g124
sg22
F282.81573669839418
sg64
g100
sg62
g101
sg49
g50
sS'trials.thisN'
p891
I73
sg19
I0
sg27
g36
(g38
S'\x00\x00\x00\x00\x00\x00\x1e@'
tRp892
sg52
g53
sg23
S'3'
sg18
F282.44422779337037
sg33
g34
sg51
g11
sg20
S'2'
sg65
g36
(g77
S'\x00\x00\x00\x00\x00\x00\x00\x00'
tRp893
sg44
g45
sg40
g41
sg25
F0.220694737683516
sS'trials.thisIndex'
p894
g36
(g80
S'Z\x00\x00\x00'
tRp895
sg26
V5
sS'trials.thisRepN'
p896
I0
sg66
Vturtle
p897
sg63
V../experiment_stimuli/bw_bc_bl/Living_Things/Animals/turtle_10.jpg
p898
sg21
F0.35098747711163014
sS'trials.thisTrialN'
p899
I73
sa(dp900
g31
g32
sg17
F284.77412987285061
sg24
I1
sg35
g39
sg14
F284.76934443006758
sg16
g36
(g70
S'\x01\x00\x00\x00'
tRp901
sg42
g43
sg46
g47
sg15
g72
sg22
F286.4737049046671
sg64
g88
sg62
g74
sg49
g50
sS'trials.thisN'
p902
I74
sg19
I0
sg27
g36
(g38
S'\x00\x00\x00\x00\x00\x00\x1e@'
tRp903
sg52
g53
sg23
S'1'
sg18
F286.00192294310546
sg33
g34
sg51
g11
sg20
S'2'
sg65
g36
(g77
S'\x00\x00\x00\x00\x00\x00\x00\x00'
tRp904
sg44
g45
sg40
g41
sg25
F0.8721279573510401
sS'trials.thisIndex'
p905
g36
(g80
S'L\x00\x00\x00'
tRp906
sg26
V5
sS'trials.thisRepN'
p907
I0
sg66
Vship
p908
sg63
V../experiment_stimuli/bw_bc_bl/Nonliving_Things/Vehicles/ship_6.jpg
p909
sg21
F0.4512096171383746
sS'trials.thisTrialN'
p910
I74
sa(dp911
g31
g32
sg17
F289.08355901634786
sg24
I0
sg35
g39
sg14
F289.07871202920796
sg16
g36
(g70
S'\x01\x00\x00\x00'
tRp912
sg42
g43
sg46
g47
sg15
g124
sg22
F290.92350236087805
sg64
g125
sg62
g101
sg49
g50
sS'trials.thisN'
p913
I75
sg19
I0
sg27
g36
(g38
S'\x00\x00\x00\x00\x00\x00\x18@'
tRp914
sg52
g53
sg23
S'2'
sg18
F290.34135691612028
sg33
g34
sg51
g11
sg20
S'2'
sg65
g36
(g77
S'\x00\x00\x00\x00\x00\x00\x00\x00'
tRp915
sg44
g45
sg40
g41
sg25
F0.22070689924294129
sS'trials.thisIndex'
p916
g36
(g80
S'C\x00\x00\x00'
tRp917
sg26
V5
sS'trials.thisRepN'
p918
I0
sg66
Vraven
p919
sg63
V../experiment_stimuli/bw_bc_bl/Living_Things/Birds/raven_3.jpg
p920
sg21
F0.56157445005374029
sS'trials.thisTrialN'
p921
I75
sa(dp922
g31
g32
sg17
F292.88321164465742
sg24
I1
sg35
g39
sg14
F292.87696827150648
sg16
g36
(g70
S'\x01\x00\x00\x00'
tRp923
sg42
g43
sg46
g47
sg15
g72
sg22
F294.46107684029266
sg64
g148
sg62
g74
sg49
g50
sS'trials.thisN'
p924
I76
sg19
I0
sg27
g36
(g38
S'\x00\x00\x00\x00\x00\x00\x18@'
tRp925
sg52
g53
sg23
S'1'
sg18
F294.11957251705462
sg33
g34
sg51
g11
sg20
S'2'
sg65
g36
(g77
S'\x00\x00\x00\x00\x00\x00\x00\x00'
tRp926
sg44
g45
sg40
g41
sg25
F0.24074473261134699
sS'trials.thisIndex'
p927
g36
(g80
S'\x1c\x00\x00\x00'
tRp928
sg26
V5
sS'trials.thisRepN'
p929
I0
sg66
Vfactory
p930
sg63
V../experiment_stimuli/bw_bc_bl/Nonliving_Things/Buildings/factory_18.jpg
p931
sg21
F0.32092579483287409
sS'trials.thisTrialN'
p932
I76
sa(dp933
g31
g32
sg17
F296.4394567249692
sg24
I0
sg35
g39
sg14
F296.43472892441787
sg16
g36
(g70
S'\x02\x00\x00\x00'
tRp934
sg42
g43
sg46
g47
sg15
g124
sg22
F298.48980967298849
sg64
g73
sg62
g74
sg49
g50
sS'trials.thisN'
p935
I77
sg19
I1
sg27
g36
(g38
S'\x00\x00\x00\x00\x00\x00\x18@'
tRp936
sg52
g53
sg23
S'2'
sg18
F297.69735227030469
sg33
g34
sg51
g11
sg20
S'2'
sg65
g36
(g77
S'\x00\x00\x00\x00\x00\x00\x00\x00'
tRp937
sg44
g45
sg40
g41
sg25
F0.25075779220787808
sS'trials.thisIndex'
p938
g36
(g80
S'\x02\x00\x00\x00'
tRp939
sg26
V5
sS'trials.thisRepN'
p940
I0
sg66
Varmchair
p941
sg63
V../experiment_stimuli/bw_bc_bl/Nonliving_Things/Furniture/armchair_8.jpg
p942
sg21
F0.77190256171161309
sS'trials.thisTrialN'
p943
I77
sa(dp944
g31
g32
sg17
F300.47841992991744
sg24
I0
sg35
g39
sg14
F300.47348395548761
sg16
g36
(g70
S'\x02\x00\x00\x00'
tRp945
sg42
g43
sg46
g47
sg15
g72
sg22
F302.58854294638149
sg64
g125
sg62
g101
sg49
g50
sS'trials.thisN'
p946
I78
sg19
I1
sg27
g36
(g38
S'\x00\x00\x00\x00\x00\x00 @'
tRp947
sg52
g53
sg23
S'2'
sg18
F301.72610837296816
sg33
g34
sg51
g11
sg20
S'2'
sg65
g36
(g77
S'\x00\x00\x00\x00\x00\x00\x00\x00'
tRp948
sg44
g45
sg40
g41
sg25
F0.24074136785930023
sS'trials.thisIndex'
p949
g36
(g80
S'O\x00\x00\x00'
tRp950
sg26
V5
sS'trials.thisRepN'
p951
I0
sg66
Vsparrow
p952
sg63
V../experiment_stimuli/bw_bc_bl/Living_Things/Birds/sparrow_11.jpg
p953
sg21
F0.84189612680347636
sS'trials.thisTrialN'
p954
I78
sa(dp955
g31
g32
sg17
F304.56722203729441
sg24
I0
sg35
g39
sg14
F304.56236999790417
sg16
g36
(g70
S'\x01\x00\x00\x00'
tRp956
sg42
g43
sg46
g47
sg15
g72
sg22
F306.37695108912885
sg64
g193
sg62
g74
sg49
g50
sS'trials.thisN'
p957
I79
sg19
I0
sg27
g36
(g38
S'\x00\x00\x00\x00\x00\x00\x1c@'
tRp958
sg52
g53
sg23
S'2'
sg18
F305.81499399832683
sg33
g34
sg51
g11
sg20
S'2'
sg65
g36
(g77
S'\x00\x00\x00\x00\x00\x00\x00\x00'
tRp959
sg44
g45
sg40
g41
sg25
F0.26077629532665014
sS'trials.thisIndex'
p960
g36
(g80
S'>\x00\x00\x00'
tRp961
sg26
V5
sS'trials.thisRepN'
p962
I0
sg66
Vpiano
p963
sg63
V../experiment_stimuli/bw_bc_bl/Nonliving_Things/Musical_Inst/piano__19.jpg
p964
sg21
F0.54140102822566405
sS'trials.thisTrialN'
p965
I79
sa(dp966
g31
g32
sg17
F308.37547235452803
sg24
I1
sg35
g39
sg14
F308.37064925458981
sg16
g36
(g70
S'\x02\x00\x00\x00'
tRp967
sg42
g43
sg46
g47
sg15
g72
sg22
F310.20529082935536
sg64
g405
sg62
g101
sg49
g50
sS'trials.thisN'
p968
I80
sg19
I0
sg27
g36
(g38
S'\x00\x00\x00\x00\x00\x00\x18@'
tRp969
sg52
g53
sg23
S'1'
sg18
F309.60323117359076
sg33
g34
sg51
g11
sg20
S'1'
sg65
g36
(g77
S'\x00\x00\x00\x00\x00\x00\x00\x00'
tRp970
sg44
g45
sg40
g41
sg25
F0.26078441913705319
sS'trials.thisIndex'
p971
g36
(g80
S'-\x00\x00\x00'
tRp972
sg26
V5
sS'trials.thisRepN'
p973
I0
sg66
Vladybird
p974
sg63
V../experiment_stimuli/bw_bc_bl/Living_Things/Insects/ladybird_6.jpg
p975
sg21
F0.5814934050431475
sS'trials.thisTrialN'
p976
I80
sa(dp977
g31
g32
sg17
F312.20384063175879
sg24
I1
sg35
g39
sg14
F312.19897570891771
sg16
g36
(g70
S'\x02\x00\x00\x00'
tRp978
sg42
g43
sg46
g47
sg15
g124
sg22
F314.02359026583144
sg64
g193
sg62
g74
sg49
g50
sS'trials.thisN'
p979
I81
sg19
I1
sg27
g36
(g38
S'\x00\x00\x00\x00\x00\x00\x1a@'
tRp980
sg52
g53
sg23
S'1'
sg18
F313.46161692315945
sg33
g34
sg51
g11
sg20
S'2'
sg65
g36
(g77
S'\x00\x00\x00\x00\x00\x00\x00\x00'
tRp981
sg44
g45
sg40
g41
sg25
F0.29085932316957042
sS'trials.thisIndex'
p982
g36
(g80
S'X\x00\x00\x00'
tRp983
sg26
V5
sS'trials.thisRepN'
p984
I0
sg66
Vtrumpet
p985
sg63
V../experiment_stimuli/bw_bc_bl/Nonliving_Things/Musical_Inst/trumpet_16.jpg
p986
sg21
F0.54140784777700901
sS'trials.thisTrialN'
p987
I81
sa(dp988
g31
g32
sg17
F316.05216640152503
sg24
I0
sg35
g39
sg14
F316.04733269236749
sg16
g36
(g70
S'\x02\x00\x00\x00'
tRp989
sg42
g43
sg46
g47
sg15
g72
sg22
F318.07237444253406
sg64
g125
sg62
g101
sg49
g50
sS'trials.thisN'
p990
I82
sg19
I1
sg27
g36
(g38
S'\x00\x00\x00\x00\x00\x00\x1c@'
tRp991
sg52
g53
sg23
S'3'
sg18
F317.35007092991145
sg33
g34
sg51
g11
sg20
S'2'
sg65
g36
(g77
S'\x00\x00\x00\x00\x00\x00\x00\x00'
tRp992
sg44
g45
sg40
g41
sg25
F0.2407443942502141
sS'trials.thisIndex'
p993
g36
(g80
S'"\x00\x00\x00'
tRp994
sg26
V5
sS'trials.thisRepN'
p995
I0
sg66
Vgoose
p996
sg63
V../experiment_stimuli/bw_bc_bl/Living_Things/Birds/goose_22.jpg
p997
sg21
F0.70175035228021443
sS'trials.thisTrialN'
p998
I82
sa(dp999
g31
g32
sg17
F320.05088720895583
sg24
I1
sg35
g39
sg14
F320.04602431220701
sg16
g36
(g70
S'\x02\x00\x00\x00'
tRp1000
sg42
g43
sg46
g47
sg15
g72
sg22
F321.82053247391013
sg64
g125
sg62
g101
sg49
g50
sS'trials.thisN'
p1001
I83
sg19
I1
sg27
g36
(g38
S'\x00\x00\x00\x00\x00\x00\x1a@'
tRp1002
sg52
g53
sg23
S'1'
sg18
F321.31869672867469
sg33
g34
sg51
g11
sg20
S'2'
sg65
g36
(g77
S'\x00\x00\x00\x00\x00\x00\x00\x00'
tRp1003
sg44
g45
sg40
g41
sg25
F0.27080258028581738
sS'trials.thisIndex'
p1004
g36
(g80
S'3\x00\x00\x00'
tRp1005
sg26
V5
sS'trials.thisRepN'
p1006
I0
sg66
Vmagpie
p1007
sg63
V../experiment_stimuli/bw_bc_bl/Living_Things/Birds/magpie_22.jpg
p1008
sg21
F0.4812911071931012
sS'trials.thisTrialN'
p1009
I83
sa(dp1010
g31
g32
sg17
F323.83202330901986
sg24
I1
sg35
g39
sg14
F323.82423803705024
sg16
g36
(g70
S'\x02\x00\x00\x00'
tRp1011
sg42
g43
sg46
g47
sg15
g124
sg22
F326.04971738287713
sg64
g461
sg62
g74
sg49
g50
sS'trials.thisN'
p1012
I84
sg19
I0
sg27
g36
(g38
S'\x00\x00\x00\x00\x00\x00\x1c@'
tRp1013
sg52
g53
sg23
S'1'
sg18
F325.11695968871936
sg33
g34
sg51
g11
sg20
S'1'
sg65
g36
(g77
S'\x00\x00\x00\x00\x00\x00\x00\x00'
tRp1014
sg44
g45
sg40
g41
sg25
F0.45121480105444789
sS'trials.thisIndex'
p1015
g36
(g80
S'%\x00\x00\x00'
tRp1016
sg26
V5
sS'trials.thisRepN'
p1017
I0
sg66
Vhammer
p1018
sg63
V../experiment_stimuli/bw_bc_bl/Nonliving_Things/Tools/hammer_14.jpg
p1019
sg21
F0.91220827022334561
sS'trials.thisTrialN'
p1020
I84
sa(dp1021
g31
g32
sg17
F328.24017775652464
sg24
I0
sg35
g39
sg14
F328.23382517474238
sg16
g36
(g70
S'\x01\x00\x00\x00'
tRp1022
sg42
g43
sg46
g47
sg15
g72
sg22
F330.17870558425784
sg64
g73
sg62
g74
sg49
g50
sS'trials.thisN'
p1023
I85
sg19
I1
sg27
g36
(g38
S'\x00\x00\x00\x00\x00\x00\x1a@'
tRp1024
sg52
g53
sg23
S'3'
sg18
F329.53656275063986
sg33
g34
sg51
g11
sg20
S'1'
sg65
g36
(g77
S'\x00\x00\x00\x00\x00\x00\x00\x00'
tRp1025
sg44
g45
sg40
g41
sg25
F0.2608117459458299
sS'trials.thisIndex'
p1026
g36
(g80
S'Q\x00\x00\x00'
tRp1027
sg26
V5
sS'trials.thisRepN'
p1028
I0
sg66
Vtable
p1029
sg63
V../experiment_stimuli/bw_bc_bl/Nonliving_Things/Furniture/table_1.jpg
p1030
sg21
F0.62157884601037949
sS'trials.thisTrialN'
p1031
I85
sa(dp1032
g31
g32
sg17
F332.17734511464369
sg24
I0
sg35
g39
sg14
F332.17238607682521
sg16
g36
(g70
S'\x02\x00\x00\x00'
tRp1033
sg42
g43
sg46
g47
sg15
g72
sg22
F334.15737383672968
sg64
g100
sg62
g101
sg49
g50
sS'trials.thisN'
p1034
I86
sg19
I1
sg27
g36
(g38
S'\x00\x00\x00\x00\x00\x00\x1a@'
tRp1035
sg52
g53
sg23
S'3'
sg18
F333.45507761649787
sg33
g34
sg51
g11
sg20
S'2'
sg65
g36
(g77
S'\x00\x00\x00\x00\x00\x00\x00\x00'
tRp1036
sg44
g45
sg40
g41
sg25
F0.19062546151690185
sS'trials.thisIndex'
p1037
g36
(g80
S' \x00\x00\x00'
tRp1038
sg26
V5
sS'trials.thisRepN'
p1039
I0
sg66
Vgiraffe
p1040
sg63
V../experiment_stimuli/bw_bc_bl/Living_Things/Animals/giraffe_3.jpg
p1041
sg21
F0.68171324831200764
sS'trials.thisTrialN'
p1042
I86
sa(dp1043
g31
g32
sg17
F336.08725560753373
sg24
I0
sg35
g39
sg14
F336.0808813944459
sg16
g36
(g70
S'\x02\x00\x00\x00'
tRp1044
sg42
g43
sg46
g47
sg15
g124
sg22
F338.02560239634477
sg64
g148
sg62
g74
sg49
g50
sS'trials.thisN'
p1045
I87
sg19
I1
sg27
g36
(g38
S'\x00\x00\x00\x00\x00\x00\x18@'
tRp1046
sg52
g53
sg23
S'3'
sg18
F337.34353325876873
sg33
g34
sg51
g11
sg20
S'2'
sg65
g36
(g77
S'\x00\x00\x00\x00\x00\x00\x00\x00'
tRp1047
sg44
g45
sg40
g41
sg25
F0.24074235669104382
sS'trials.thisIndex'
p1048
g36
(g80
S'\x0e\x00\x00\x00'
tRp1049
sg26
V5
sS'trials.thisRepN'
p1050
I0
sg66
Vcathedral
p1051
sg63
V../experiment_stimuli/bw_bc_bl/Nonliving_Things/Buildings/cathedral_4.jpg
p1052
sg21
F0.66150592075427994
sS'trials.thisTrialN'
p1053
I87
sa(dp1054
g31
g32
sg17
F340.00427412282443
sg24
I0
sg35
g39
sg14
F339.99940415855963
sg16
g36
(g70
S'\x01\x00\x00\x00'
tRp1055
sg42
g43
sg46
g47
sg15
g124
sg22
F341.64361888554413
sg64
g283
sg62
g101
sg49
g50
sS'trials.thisN'
p1056
I88
sg19
I1
sg27
g36
(g38
S'\x00\x00\x00\x00\x00\x00\x18@'
tRp1057
sg52
g53
sg23
S'2'
sg18
F341.24200963717885
sg33
g34
sg51
g11
sg20
S'1'
sg65
g36
(g77
S'\x00\x00\x00\x00\x00\x00\x00\x00'
tRp1058
sg44
g45
sg40
g41
sg25
F0.23072297032922506
sS'trials.thisIndex'
p1059
g36
(g80
S'K\x00\x00\x00'
tRp1060
sg26
V5
sS'trials.thisRepN'
p1061
I0
sg66
Vshark
p1062
sg63
V../experiment_stimuli/bw_bc_bl/Living_Things/Marine_creatures/shark_10.jpg
p1063
sg21
F0.38105713273398578
sS'trials.thisTrialN'
p1064
I88
sa(dp1065
g31
g32
sg17
F343.61213747889269
sg24
I1
sg35
g39
sg14
F343.60724665416637
sg16
g36
(g70
S'\x01\x00\x00\x00'
tRp1066
sg42
g43
sg46
g47
sg15
g72
sg22
F345.11117411206942
sg64
g148
sg62
g74
sg49
g50
sS'trials.thisN'
p1067
I89
sg19
I0
sg27
g36
(g38
S'\x00\x00\x00\x00\x00\x00\x1e@'
tRp1068
sg52
g53
sg23
S'1'
sg18
F344.84985164768295
sg33
g34
sg51
g11
sg20
S'2'
sg65
g36
(g77
S'\x00\x00\x00\x00\x00\x00\x00\x00'
tRp1069
sg44
g45
sg40
g41
sg25
F0.22069429798284546
sS'trials.thisIndex'
p1070
g36
(g80
S'#\x00\x00\x00'
tRp1071
sg26
V5
sS'trials.thisRepN'
p1072
I0
sg66
Vgranary
p1073
sg63
V../experiment_stimuli/bw_bc_bl/Nonliving_Things/Buildings/granary_17.jpg
p1074
sg21
F0.240768292627763
sS'trials.thisTrialN'
p1075
I89
sa(dp1076
g31
g32
sg17
F347.06963946990436
sg24
I1
sg35
g39
sg14
F347.06476540042786
sg16
g36
(g70
S'\x02\x00\x00\x00'
tRp1077
sg42
g43
sg46
g47
sg15
g124
sg22
F348.89939340791898
sg64
g238
sg62
g74
sg49
g50
sS'trials.thisN'
p1078
I90
sg19
I1
sg27
g36
(g38
S'\x00\x00\x00\x00\x00\x00\x1a@'
tRp1079
sg52
g53
sg23
S'1'
sg18
F348.33743072277866
sg33
g34
sg51
g11
sg20
S'2'
sg65
g36
(g77
S'\x00\x00\x00\x00\x00\x00\x00\x00'
tRp1080
sg44
g45
sg40
g41
sg25
F0.26078792283078656
sS'trials.thisIndex'
p1081
g36
(g80
S'M\x00\x00\x00'
tRp1082
sg26
V5
sS'trials.thisRepN'
p1083
I0
sg66
Vsmall-saucepan
p1084
sg63
V../experiment_stimuli/bw_bc_bl/Nonliving_Things/Kitchen_Uten/small-saucepan_7.jpg
p1085
sg21
F0.54140020121121779
sS'trials.thisTrialN'
p1086
I90
sa(dp1087
g31
g32
sg17
F350.90126465144567
sg24
I0
sg35
g39
sg14
F350.89307910343632
sg16
g36
(g70
S'\x02\x00\x00\x00'
tRp1088
sg42
g43
sg46
g47
sg15
g72
sg22
F352.75779967202106
sg64
g125
sg62
g101
sg49
g50
sS'trials.thisN'
p1089
I91
sg19
I1
sg27
g36
(g38
S'\x00\x00\x00\x00\x00\x00\x18@'
tRp1090
sg52
g53
sg23
S'3'
sg18
F352.17577387217898
sg33
g34
sg51
g11
sg20
S'2'
sg65
g36
(g77
S'\x00\x00\x00\x00\x00\x00\x00\x00'
tRp1091
sg44
g45
sg40
g41
sg25
F0.23071928223362193
sS'trials.thisIndex'
p1092
g36
(g80
S'J\x00\x00\x00'
tRp1093
sg26
V5
sS'trials.thisRepN'
p1094
I0
sg66
Vseagull
p1095
sg63
V../experiment_stimuli/bw_bc_bl/Living_Things/Birds/seagull_2.jpg
p1096
sg21
F0.56144529761513695
sS'trials.thisTrialN'
p1097
I91
sa(dp1098
g31
g32
sg17
F354.72624437964987
sg24
I1
sg35
g39
sg14
F354.72140333219431
sg16
g36
(g70
S'\x02\x00\x00\x00'
tRp1099
sg42
g43
sg46
g47
sg15
g72
sg22
F356.55587524420116
sg64
g100
sg62
g101
sg49
g50
sS'trials.thisN'
p1100
I92
sg19
I1
sg27
g36
(g38
S'\x00\x00\x00\x00\x00\x00\x1a@'
tRp1101
sg52
g53
sg23
S'1'
sg18
F355.96401040087221
sg33
g34
sg51
g11
sg20
S'2'
sg65
g36
(g77
S'\x00\x00\x00\x00\x00\x00\x00\x00'
tRp1102
sg44
g45
sg40
g41
sg25
F0.2908523307996802
sS'trials.thisIndex'
p1103
g36
(g80
S"'\x00\x00\x00"
tRp1104
sg26
V5
sS'trials.thisRepN'
p1105
I0
sg66
Vhippopotamus
p1106
sg63
V../experiment_stimuli/bw_bc_bl/Living_Things/Animals/hippopotamus_18.jpg
p1107
sg21
F0.57131303241476417
sS'trials.thisTrialN'
p1108
I92
sa(dp1109
g31
g32
sg17
F358.58454159664689
sg24
I0
sg35
g39
sg14
F358.57978956296574
sg16
g36
(g70
S'\x02\x00\x00\x00'
tRp1110
sg42
g43
sg46
g47
sg15
g124
sg22
F360.61485783127137
sg64
g73
sg62
g74
sg49
g50
sS'trials.thisN'
p1111
I93
sg19
I1
sg27
g36
(g38
S'\x00\x00\x00\x00\x00\x00\x1a@'
tRp1112
sg52
g53
sg23
S'2'
sg18
F359.85246187023586
sg33
g34
sg51
g11
sg20
S'2'
sg65
g36
(g77
S'\x00\x00\x00\x00\x00\x00\x00\x00'
tRp1113
sg44
g45
sg40
g41
sg25
F0.43115588533692062
sS'trials.thisIndex'
p1114
g36
(g80
S'\x13\x00\x00\x00'
tRp1115
sg26
V5
sS'trials.thisRepN'
p1116
I0
sg66
Vcouch
p1117
sg63
V../experiment_stimuli/bw_bc_bl/Nonliving_Things/Furniture/couch_14.jpg
p1118
sg21
F0.7418363195611164
sS'trials.thisTrialN'
p1119
I93
sa(dp1120
g31
g32
sg17
F362.78379946801579
sg24
I0
sg35
g39
sg14
F362.7789233122603
sg16
g36
(g70
S'\x01\x00\x00\x00'
tRp1121
sg42
g43
sg46
g47
sg15
g124
sg22
F364.67367127072066
sg64
g125
sg62
g101
sg49
g50
sS'trials.thisN'
p1122
I94
sg19
I1
sg27
g36
(g38
S'\x00\x00\x00\x00\x00\x00\x18@'
tRp1123
sg52
g53
sg23
S'2'
sg18
F364.04157712782035
sg33
g34
sg51
g11
sg20
S'1'
sg65
g36
(g77
S'\x00\x00\x00\x00\x00\x00\x00\x00'
tRp1124
sg44
g45
sg40
g41
sg25
F0.4211213713278994
sS'trials.thisIndex'
p1125
g36
(g80
S'=\x00\x00\x00'
tRp1126
sg26
V5
sS'trials.thisRepN'
p1127
I0
sg66
Vpenguin
p1128
sg63
V../experiment_stimuli/bw_bc_bl/Living_Things/Birds/penguin_26.jpg
p1129
sg21
F0.61089372832793742
sS'trials.thisTrialN'
p1130
I94
sa(dp1131
g31
g32
sg17
F366.83283764502266
sg24
I1
sg35
g39
sg14
F366.82772184250643
sg16
g36
(g70
S'\x02\x00\x00\x00'
tRp1132
sg42
g43
sg46
g47
sg15
g124
sg22
F368.72249195462791
sg64
g73
sg62
g74
sg49
g50
sS'trials.thisN'
p1133
I95
sg19
I1
sg27
g36
(g38
S'\x00\x00\x00\x00\x00\x00\x18@'
tRp1134
sg52
g53
sg23
S'1'
sg18
F368.0803467486985
sg33
g34
sg51
g11
sg20
S'2'
sg65
g36
(g77
S'\x00\x00\x00\x00\x00\x00\x00\x00'
tRp1135
sg44
g45
sg40
g41
sg25
F0.32093920063925907
sS'trials.thisIndex'
p1136
g36
(g80
S'\x1d\x00\x00\x00'
tRp1137
sg26
V5
sS'trials.thisRepN'
p1138
I0
sg66
Vfilling-cabinet
p1139
sg63
V../experiment_stimuli/bw_bc_bl/Nonliving_Things/Furniture/filling-cabinet_14.jpg
p1140
sg21
F0.6215754589647986
sS'trials.thisTrialN'
p1141
I95
sasS'loops'
p1142
(lp1143
g1
(cpsychopy.data
TrialHandler
p1144
g3
NtRp1145
(dp1146
S'origin'
p1147
NsS'thisTrial'
p1148
(lp1149
sS'_exp'
p1150
I97820944
sg10
S'trials'
p1151
sg6
I-1
sS'thisRepN'
p1152
I1
sg28
I01
sg29
g30
sS'data'
p1153
g1
(cpsychopy.data
DataHandler
p1154
c__builtin__
dict
p1155
(dp1156
g20
cnumpy.core.multiarray
_reconstruct
p1157
(cnumpy
ndarray
p1158
(I0
tS'b'
tRp1159
(I1
(I96
I1
tg37
(S'O4'
I0
I1
tRp1160
(I3
S'|'
NNNI-1
I-1
I63
tbI00
(lp1161
S'1'
aS'2'
aS'2'
aS'1'
aS'2'
aS'1'
aS'1'
aS'2'
aS'2'
aS'2'
aS'2'
aS'2'
aS'2'
aS'2'
aS'2'
aS'1'
aS'1'
aS'1'
aS'1'
aS'2'
aS'2'
aS'2'
aS'1'
aS'2'
aS'2'
aS'1'
aS'1'
aS'2'
aS'2'
aS'2'
aS'1'
aS'1'
aS'2'
aS'2'
aS'2'
aS'2'
aS'1'
aS'1'
aS'1'
aS'2'
aS'2'
aS'1'
aS'1'
aS'2'
aS'1'
aS'1'
aS'2'
aS'1'
aS'1'
aS'2'
aS'1'
aS'2'
aS'2'
aS'2'
aS'1'
aS'1'
aS'1'
aS'2'
aS'2'
aS'1'
aS'1'
aS'1'
aS'2'
aS'1'
aS'1'
aS'2'
aS'1'
aS'2'
aS'2'
aS'1'
aS'1'
aS'1'
aS'1'
aS'1'
aS'2'
aS'1'
aS'2'
aS'2'
aS'1'
aS'2'
aS'2'
aS'1'
aS'1'
aS'1'
aS'1'
aS'2'
aS'1'
aS'1'
aS'2'
aS'1'
aS'2'
aS'1'
aS'1'
aS'2'
aS'1'
aS'2'
atbsg17
cnumpy.ma.core
_mareconstruct
p1162
(cnumpy.ma.core
MaskedArray
p1163
g1158
(I0
tp1164
S'b'
tRp1165
(I1
(I96
I1
tg37
(S'f4'
I0
I1
tRp1166
(I3
S'<'
NNNI-1
I-1
I0
tbI00
S"\xa9\x8e\x9fB\x12\x13JC@8\x94Co\x16\x06C\xe6\xac\x86C\x00;\x15C\t\x1d\x82BB\xb1MC\xb0\x81FC\x00>;C\x8e&\xe6B'\xaa\x88CA\xa0\xd5A\xdebzA+\x0b\xa8C\xb9mo@\x12\x817C\x19\xe0\x19B\x84\xaddB\xd2J\xb3CN\x9eBC\xe1M\xbeB\x03\x9a\x11C]\x0e\xd6B\t\x83QC\x85N(B\xf1\x94\xfdBp\x1c\xafB\rq\x92C\x9aj\xb7CB5\xeeBo\x04\x83C\xb3\x16\xa6C\xe8S\xf6B\xad\x06\x9eC[\xce\xabC\x80\xd4\x89B\x80\xea\xa1C\xad=(C\xf6\\\xb1C*I9A\x98\xf5~C\x183,C&.hC\x80\xecTB\x0f0\x9aC\xba\xe9tB}:\x81C7\x00\x98B(\xed3C\x8cc\x02C\x83\x06\xa0C\x8a\xbe\rC\xad\x9e\xceBz\xee\x84C\xbaHsC\x08#\x9aAn\xa4\xc6BP\x98\xa7B2JEB@\xb2\\CTd\xb5C\x9bH\x98C\x826wCo\x88$C\xef\xf1\tC\x07iUC\xb2\x8a\x90C)\x11YC\xf0\xf2/C\xbd\x96\x8aC\xd6\xa2oC\x85\n{C\x89\x86\x1cC]s\xafC\x8c\x00\xaaC\x17c\x8eC\xea\x88\xadC#K C==\x96C\xd0\x8c\xb6B\xbe\x1e\xa4CS=\xb7AP\x8ddC\xb9\x186B\x92\xb1`C\x87\xc8\xf6@.\x03\xf4A\x17\x1a\x9cC\xff}\xddBm\x9a\x8cCo\x02lC\x8b\xdb\x18C\x12\x12?CB}\x91B5q\tB"
S'\x00\x00\x00\x00\x00\x00\x00\x00\x00\x00\x00\x00\x00\x00\x00\x00\x00\x00\x00\x00\x00\x00\x00\x00\x00\x00\x00\x00\x00\x00\x00\x00\x00\x00\x00\x00\x00\x00\x00\x00\x00\x00\x00\x00\x00\x00\x00\x00\x00\x00\x00\x00\x00\x00\x00\x00\x00\x00\x00\x00\x00\x00\x00\x00\x00\x00\x00\x00\x00\x00\x00\x00\x00\x00\x00\x00\x00\x00\x00\x00\x00\x00\x00\x00\x00\x00\x00\x00\x00\x00\x00\x00\x00\x00\x00\x00'
NtbsS'ran'
p1167
g1162
(g1163
g1158
g1164
S'b'
tRp1168
(I1
(I96
I1
tg1166
I00
S'\x00\x00\x80?\x00\x00\x80?\x00\x00\x80?\x00\x00\x80?\x00\x00\x80?\x00\x00\x80?\x00\x00\x80?\x00\x00\x80?\x00\x00\x80?\x00\x00\x80?\x00\x00\x80?\x00\x00\x80?\x00\x00\x80?\x00\x00\x80?\x00\x00\x80?\x00\x00\x80?\x00\x00\x80?\x00\x00\x80?\x00\x00\x80?\x00\x00\x80?\x00\x00\x80?\x00\x00\x80?\x00\x00\x80?\x00\x00\x80?\x00\x00\x80?\x00\x00\x80?\x00\x00\x80?\x00\x00\x80?\x00\x00\x80?\x00\x00\x80?\x00\x00\x80?\x00\x00\x80?\x00\x00\x80?\x00\x00\x80?\x00\x00\x80?\x00\x00\x80?\x00\x00\x80?\x00\x00\x80?\x00\x00\x80?\x00\x00\x80?\x00\x00\x80?\x00\x00\x80?\x00\x00\x80?\x00\x00\x80?\x00\x00\x80?\x00\x00\x80?\x00\x00\x80?\x00\x00\x80?\x00\x00\x80?\x00\x00\x80?\x00\x00\x80?\x00\x00\x80?\x00\x00\x80?\x00\x00\x80?\x00\x00\x80?\x00\x00\x80?\x00\x00\x80?\x00\x00\x80?\x00\x00\x80?\x00\x00\x80?\x00\x00\x80?\x00\x00\x80?\x00\x00\x80?\x00\x00\x80?\x00\x00\x80?\x00\x00\x80?\x00\x00\x80?\x00\x00\x80?\x00\x00\x80?\x00\x00\x80?\x00\x00\x80?\x00\x00\x80?\x00\x00\x80?\x00\x00\x80?\x00\x00\x80?\x00\x00\x80?\x00\x00\x80?\x00\x00\x80?\x00\x00\x80?\x00\x00\x80?\x00\x00\x80?\x00\x00\x80?\x00\x00\x80?\x00\x00\x80?\x00\x00\x80?\x00\x00\x80?\x00\x00\x80?\x00\x00\x80?\x00\x00\x80?\x00\x00\x80?\x00\x00\x80?\x00\x00\x80?\x00\x00\x80?\x00\x00\x80?\x00\x00\x80?\x00\x00\x80?'
S'\x00\x00\x00\x00\x00\x00\x00\x00\x00\x00\x00\x00\x00\x00\x00\x00\x00\x00\x00\x00\x00\x00\x00\x00\x00\x00\x00\x00\x00\x00\x00\x00\x00\x00\x00\x00\x00\x00\x00\x00\x00\x00\x00\x00\x00\x00\x00\x00\x00\x00\x00\x00\x00\x00\x00\x00\x00\x00\x00\x00\x00\x00\x00\x00\x00\x00\x00\x00\x00\x00\x00\x00\x00\x00\x00\x00\x00\x00\x00\x00\x00\x00\x00\x00\x00\x00\x00\x00\x00\x00\x00\x00\x00\x00\x00\x00'
Ntbsg24
g1162
(g1163
g1158
g1164
S'b'
tRp1169
(I1
(I96
I1
tg1166
I00
S'\x00\x00\x00\x00\x00\x00\x80?\x00\x00\x00\x00\x00\x00\x00\x00\x00\x00\x80?\x00\x00\x00\x00\x00\x00\x80?\x00\x00\x80?\x00\x00\x80?\x00\x00\x00\x00\x00\x00\x80?\x00\x00\x00\x00\x00\x00\x80?\x00\x00\x80?\x00\x00\x00\x00\x00\x00\x80?\x00\x00\x80?\x00\x00\x00\x00\x00\x00\x00\x00\x00\x00\x00\x00\x00\x00\x00\x00\x00\x00\x00\x00\x00\x00\x00\x00\x00\x00\x80?\x00\x00\x00\x00\x00\x00\x80?\x00\x00\x00\x00\x00\x00\x80?\x00\x00\x80?\x00\x00\x80?\x00\x00\x00\x00\x00\x00\x00\x00\x00\x00\x00\x00\x00\x00\x80?\x00\x00\x00\x00\x00\x00\x80?\x00\x00\x00\x00\x00\x00\x80?\x00\x00\x00\x00\x00\x00\x80?\x00\x00\x00\x00\x00\x00\x00\x00\x00\x00\x00\x00\x00\x00\x00\x00\x00\x00\x00\x00\x00\x00\x80?\x00\x00\x00\x00\x00\x00\x80?\x00\x00\x80?\x00\x00\x80?\x00\x00\x00\x00\x00\x00\x80?\x00\x00\x80?\x00\x00\x00\x00\x00\x00\x80?\x00\x00\x00\x00\x00\x00\x00\x00\x00\x00\x00\x00\x00\x00\x80?\x00\x00\x80?\x00\x00\x00\x00\x00\x00\x00\x00\x00\x00\x00\x00\x00\x00\x00\x00\x00\x00\x00\x00\x00\x00\x80?\x00\x00\x00\x00\x00\x00\x00\x00\x00\x00\x80?\x00\x00\x00\x00\x00\x00\x00\x00\x00\x00\x80?\x00\x00\x00\x00\x00\x00\x80?\x00\x00\x00\x00\x00\x00\x00\x00\x00\x00\x80?\x00\x00\x80?\x00\x00\x80?\x00\x00\x00\x00\x00\x00\x80?\x00\x00\x00\x00\x00\x00\x00\x00\x00\x00\x80?\x00\x00\x80?\x00\x00\x00\x00\x00\x00\x00\x00\x00\x00\x00\x00\x00\x00\x80?\x00\x00\x00\x00\x00\x00\x00\x00\x00\x00\x00\x00\x00\x00\x00\x00\x00\x00\x80?\x00\x00\x00\x00\x00\x00\x00\x00'
S'\x00\x00\x00\x00\x00\x00\x00\x00\x00\x00\x00\x00\x00\x00\x00\x00\x00\x00\x00\x00\x00\x00\x00\x00\x00\x00\x00\x00\x00\x00\x00\x00\x00\x00\x00\x00\x00\x00\x00\x00\x00\x00\x00\x00\x00\x00\x00\x00\x00\x00\x00\x00\x00\x00\x00\x00\x00\x00\x00\x00\x00\x00\x00\x00\x00\x00\x00\x00\x00\x00\x00\x00\x00\x00\x00\x00\x00\x00\x00\x00\x00\x00\x00\x00\x00\x00\x00\x00\x00\x00\x00\x00\x00\x00\x00\x00'
Ntbsg14
g1162
(g1163
g1158
g1164
S'b'
tRp1170
(I1
(I96
I1
tg1166
I00
S"'\x8c\x9fB\xcf\x11JC\xa57\x94C\xf0\x14\x06CD\xac\x86C\x869\x15C}\x1a\x82B\xfd\xafMCw\x80FC\xc2<;C\x13$\xe6B\x88\xa9\x88CB\x96\xd5A8OzAZ\n\xa8C\xb4\xfam@\xcc\x7f7C\x13\xdb\x19B\x89\xa8dB7J\xb3C\x05\x9dBCXK\xbeB\xc9\x98\x11C\xc2\x0b\xd6Bx\x81QC\x82I(Be\x92\xfdB\xed\x19\xafB@p\x92C\xf3i\xb7C\xcc2\xeeB\xd4\x03\x83C\x11\x16\xa6C\xebP\xf6B\x0f\x06\x9eC\xba\xcd\xabC\xfb\xd1\x89B\x81\xe9\xa1Cl<(CW\\\xb1C:59A\\\xf4~C\xd31,C\xce,hCs\xe7TBq/\x9aC\xc4\xe4tB\xe09\x81C\xb4\xfd\x97B\xe3\xeb3C=b\x02C\xe4\x05\xa0C\t\xbd\rC\x1a\x9c\xceB\xdb\xed\x84CyGsC\x00\x19\x9aA\xe7\xa1\xc6B\xbf\x95\xa7B'EEB\xa8\xb0\\C\xb4c\xb5C\xfcG\x98C+5wC+\x87$C\xaf\xf0\tCzgUC\x13\x8a\x90C\xeb\x0fYCZ\xf1/C\x1f\x96\x8aC\x98\xa1oC8\t{CC\x85\x1cCPr\xafC\xec\xff\xa9Czb\x8eCJ\x88\xadC\xecI C\x9b<\x96C\x96\x89\xb6B\xee\x1d\xa4Co3\xb7A\x11\x8cdC\xbf\x136BR\xb0`C\x99\xa0\xf6@\x13\xf9\xf3Ax\x19\x9cCk{\xddB\xce\x99\x8cC\xdb\x00lCC\xda\x18C\xcf\x10?C\x15z\x91B\x87k\tB"
S'\x00\x00\x00\x00\x00\x00\x00\x00\x00\x00\x00\x00\x00\x00\x00\x00\x00\x00\x00\x00\x00\x00\x00\x00\x00\x00\x00\x00\x00\x00\x00\x00\x00\x00\x00\x00\x00\x00\x00\x00\x00\x00\x00\x00\x00\x00\x00\x00\x00\x00\x00\x00\x00\x00\x00\x00\x00\x00\x00\x00\x00\x00\x00\x00\x00\x00\x00\x00\x00\x00\x00\x00\x00\x00\x00\x00\x00\x00\x00\x00\x00\x00\x00\x00\x00\x00\x00\x00\x00\x00\x00\x00\x00\x00\x00\x00'
Ntbsg16
g1157
(g1158
(I0
tS'b'
tRp1171
(I1
(I96
I1
tg1160
I00
(lp1172
g305
ag659
ag934
ag460
ag857
ag505
ag260
ag670
ag648
ag615
ag404
ag868
ag147
ag112
ag1044
ag71
ag604
ag181
ag237
ag1110
ag637
ag349
ag494
ag382
ag681
ag192
ag438
ag327
ag923
ag1132
ag416
ag835
ag1033
ag427
ag989
ag1066
ag271
ag1011
ag560
ag1099
ag99
ag813
ag571
ag747
ag226
ag967
ag249
ag824
ag294
ag593
ag449
ag1000
ag483
ag371
ag846
ag780
ag123
ag360
ag316
ag215
ag714
ag1121
ag956
ag791
ag549
ag472
ag692
ag912
ag703
ag582
ag879
ag769
ag802
ag527
ag1088
ag1055
ag901
ag1077
ag538
ag945
ag338
ag1022
ag136
ag736
ag204
ag725
ag87
ag159
ag978
ag393
ag890
ag758
ag516
ag626
ag282
ag170
atbsg15
g1157
(g1158
(I0
tS'b'
tRp1173
(I1
(I96
I1
tg1160
I00
(lp1174
g72
ag124
ag124
ag72
ag72
ag72
ag124
ag72
ag124
ag124
ag72
ag124
ag72
ag72
ag124
ag72
ag72
ag72
ag72
ag124
ag124
ag72
ag72
ag72
ag72
ag124
ag124
ag124
ag72
ag124
ag72
ag72
ag72
ag124
ag72
ag72
ag72
ag124
ag124
ag72
ag72
ag124
ag124
ag72
ag124
ag72
ag124
ag72
ag72
ag72
ag124
ag72
ag72
ag72
ag72
ag124
ag124
ag72
ag72
ag124
ag124
ag124
ag72
ag72
ag124
ag72
ag72
ag124
ag72
ag72
ag124
ag72
ag124
ag124
ag72
ag124
ag72
ag124
ag72
ag72
ag72
ag72
ag124
ag72
ag72
ag72
ag72
ag72
ag124
ag72
ag124
ag72
ag72
ag124
ag72
ag72
atbsg22
g1162
(g1163
g1158
g1164
S'b'
tRp1175
(I1
(I96
I1
tg1166
I00
S'\x16(\xa3BK\xb9KC\xb2>\x95C\xc6\xdd\x07C2\xae\x87C\xbe\xd6\x16C\x9e\xc0\x85BoiOC\xff\x15HC\xd0!=CY\xa6\xe9BY\x9d\x89C\x8fC\xe4A\xda\xfc\x89AG\x03\xa9C\xf2X\xb2@\xc4M9C\xa5\x1c B\t\xb8lB\xb4N\xb4C\xc7\x89DC\x86\xb4\xc2B\xb3=\x13C\xffd\xd9B\x17iSC%\xf1-Bjf\x00C\xae\x87\xb2B\x05;\x93C{\\\xb8C[5\xf2B:\xf1\x83C%\x14\xa7C:\x86\xf9BD\t\x9fC;\x8e\xacC,x\x8dB]\x06\xa3C%;*C\'G\xb2CN6[AbB\x80Cr\xde-C\x00\x17jC1\x90\\BG\x1a\x9bCn;|B4\x07\x82CH=\x9bB\x8a\x865C\xf1\x13\x04C\x07\xe9\xa0C\x02\x8b\x0fC \xf0\xd1BU\xb7\x85C\rAuC\xc8\x02\xa7An{\xcaB\xc1\r\xabB\xf0\xedLBS\xc1^C;V\xb6C@0\x99C\xb3\xdcxC\t>&C\xf6\xb6\x0bC\xd5\tWC5v\x91CF\xb2ZC\x04\xc71C\x9d\x9a\x8bC\x9a]qCG\xee|C:S\x1eC\x00a\xb0Cb\xd2\xaaC\xa2<\x8fC\x1fs\xaeC\n\x93"CUK\x97C\xb5S\xbaB\xe0\x16\xa5C\x93<\xc5A\xcf=fC_\x18=B\'ybC\xad&\x19A\xfcq\x01B\x05\x03\x9dC\xfd\xf3\xe1Bjh\x8dC\xc6\xa5mC}w\x1aCW\xa6@C\x13\x06\x94B\x96\n\x12B'
S'\x00\x00\x00\x00\x00\x00\x00\x00\x00\x00\x00\x00\x00\x00\x00\x00\x00\x00\x00\x00\x00\x00\x00\x00\x00\x00\x00\x00\x00\x00\x00\x00\x00\x00\x00\x00\x00\x00\x00\x00\x00\x00\x00\x00\x00\x00\x00\x00\x00\x00\x00\x00\x00\x00\x00\x00\x00\x00\x00\x00\x00\x00\x00\x00\x00\x00\x00\x00\x00\x00\x00\x00\x00\x00\x00\x00\x00\x00\x00\x00\x00\x00\x00\x00\x00\x00\x00\x00\x00\x00\x00\x00\x00\x00\x00\x00'
Ntbsg26
g1157
(g1158
(I0
tS'b'
tRp1176
(I1
(I96
I1
tg1160
I00
(lp1177
g36
(g80
S'\x04\x00\x00\x00'
tRp1178
ag36
(g80
S'\x04\x00\x00\x00'
tRp1179
ag36
(g80
S'\x04\x00\x00\x00'
tRp1180
ag36
(g80
S'\x02\x00\x00\x00'
tRp1181
ag36
(g80
S'\x04\x00\x00\x00'
tRp1182
ag36
(g80
S'\x02\x00\x00\x00'
tRp1183
ag36
(g80
S'\x01\x00\x00\x00'
tRp1184
ag36
(g80
S'\x05\x00\x00\x00'
tRp1185
ag36
(g80
S'\x02\x00\x00\x00'
tRp1186
ag36
(g80
S'\x04\x00\x00\x00'
tRp1187
ag36
(g80
S'\x02\x00\x00\x00'
tRp1188
ag36
(g80
S'\x06\x00\x00\x00'
tRp1189
ag36
(g80
S'\x02\x00\x00\x00'
tRp1190
ag36
(g80
S'\x02\x00\x00\x00'
tRp1191
ag36
(g80
S'\x03\x00\x00\x00'
tRp1192
aS'5.0'
p1193
ag36
(g80
S'\x03\x00\x00\x00'
tRp1194
ag36
(g80
S'\x01\x00\x00\x00'
tRp1195
ag36
(g80
S'\x05\x00\x00\x00'
tRp1196
ag36
(g80
S'\x05\x00\x00\x00'
tRp1197
ag36
(g80
S'\x05\x00\x00\x00'
tRp1198
ag36
(g80
S'\x08\x00\x00\x00'
tRp1199
ag36
(g80
S'\x05\x00\x00\x00'
tRp1200
ag36
(g80
S'\x02\x00\x00\x00'
tRp1201
ag36
(g80
S'\x07\x00\x00\x00'
tRp1202
aI1
ag36
(g80
S'\x04\x00\x00\x00'
tRp1203
ag36
(g80
S'\x04\x00\x00\x00'
tRp1204
ag36
(g80
S'\x02\x00\x00\x00'
tRp1205
ag36
(g80
S'\x03\x00\x00\x00'
tRp1206
ag36
(g80
S'\x03\x00\x00\x00'
tRp1207
ag36
(g80
S'\x02\x00\x00\x00'
tRp1208
ag36
(g80
S'\x05\x00\x00\x00'
tRp1209
ag36
(g80
S'\x01\x00\x00\x00'
tRp1210
ag36
(g80
S'\x07\x00\x00\x00'
tRp1211
aI1
ag36
(g80
S'\x04\x00\x00\x00'
tRp1212
ag36
(g80
S'\x06\x00\x00\x00'
tRp1213
ag36
(g80
S'\x05\x00\x00\x00'
tRp1214
ag36
(g80
S'\x02\x00\x00\x00'
tRp1215
ag36
(g80
S'\x04\x00\x00\x00'
tRp1216
ag36
(g80
S'\x02\x00\x00\x00'
tRp1217
ag36
(g80
S'\x04\x00\x00\x00'
tRp1218
ag36
(g80
S'\x07\x00\x00\x00'
tRp1219
ag36
(g80
S'\x08\x00\x00\x00'
tRp1220
ag36
(g80
S'\x01\x00\x00\x00'
tRp1221
ag36
(g80
S'\x04\x00\x00\x00'
tRp1222
ag36
(g80
S'\x01\x00\x00\x00'
tRp1223
aI1
aI1
ag36
(g80
S'\x03\x00\x00\x00'
tRp1224
ag36
(g80
S'\x05\x00\x00\x00'
tRp1225
ag36
(g80
S'\x03\x00\x00\x00'
tRp1226
ag36
(g80
S'\x04\x00\x00\x00'
tRp1227
ag36
(g80
S'\x01\x00\x00\x00'
tRp1228
ag36
(g80
S'\x05\x00\x00\x00'
tRp1229
ag36
(g80
S'\x05\x00\x00\x00'
tRp1230
ag36
(g80
S'\x05\x00\x00\x00'
tRp1231
ag36
(g80
S'\x01\x00\x00\x00'
tRp1232
ag36
(g80
S'\x05\x00\x00\x00'
tRp1233
ag36
(g80
S'\x06\x00\x00\x00'
tRp1234
ag36
(g80
S'\x04\x00\x00\x00'
tRp1235
ag36
(g80
S'\x02\x00\x00\x00'
tRp1236
ag36
(g80
S'\x04\x00\x00\x00'
tRp1237
ag36
(g80
S'\x06\x00\x00\x00'
tRp1238
ag36
(g80
S'\x01\x00\x00\x00'
tRp1239
ag36
(g80
S'\x05\x00\x00\x00'
tRp1240
ag36
(g80
S'\x03\x00\x00\x00'
tRp1241
ag36
(g80
S'\x03\x00\x00\x00'
tRp1242
ag36
(g80
S'\x01\x00\x00\x00'
tRp1243
ag36
(g80
S'\x03\x00\x00\x00'
tRp1244
ag36
(g80
S'\x02\x00\x00\x00'
tRp1245
ag36
(g80
S'\x03\x00\x00\x00'
tRp1246
aI1
ag36
(g80
S'\x05\x00\x00\x00'
tRp1247
aI1
aI1
ag36
(g80
S'\x04\x00\x00\x00'
tRp1248
ag36
(g80
S'\x03\x00\x00\x00'
tRp1249
ag36
(g80
S'\x03\x00\x00\x00'
tRp1250
ag36
(g80
S'\x06\x00\x00\x00'
tRp1251
ag36
(g80
S'\x08\x00\x00\x00'
tRp1252
ag36
(g80
S'\x04\x00\x00\x00'
tRp1253
ag36
(g80
S'\x04\x00\x00\x00'
tRp1254
ag36
(g80
S'\x02\x00\x00\x00'
tRp1255
ag36
(g80
S'\x05\x00\x00\x00'
tRp1256
ag36
(g80
S'\x06\x00\x00\x00'
tRp1257
ag36
(g80
S'\x03\x00\x00\x00'
tRp1258
ag36
(g80
S'\x04\x00\x00\x00'
tRp1259
ag36
(g80
S'\x03\x00\x00\x00'
tRp1260
ag36
(g80
S'\x02\x00\x00\x00'
tRp1261
ag36
(g80
S'\x04\x00\x00\x00'
tRp1262
ag36
(g80
S'\x01\x00\x00\x00'
tRp1263
ag36
(g80
S'\x02\x00\x00\x00'
tRp1264
ag36
(g80
S'\x01\x00\x00\x00'
tRp1265
ag36
(g80
S'\x02\x00\x00\x00'
tRp1266
atbsg21
g1162
(g1163
g1158
g1164
S'b'
tRp1267
(I1
(I96
I1
tg1166
I00
S'\x97w\x05?\\\xf8\xbd>h\x9bE?\xbdw\x05?"X;?{\xb5\xb3>\xfdA\x12?\x0f\xc4\xdc>mR\xa4>\xd5\x8e\x1c?S\x8a\xfb>o\xff\x19?\xedH\x12?\xcc\x93\xae>tX)?\xa4\x99\n?\x1a\x08\x08?\xd5-\x9f>\xa4\xcf8?\xfc\xe8=?\x80\xb0!?\x05\xd4a?\xee\xb4\xb3>\x91\x81\xd2>\xf6l\x17?\xd5l$>hj\xa9>Q\xc1\xdc>cP\xa4>\x92\x1f\x1f?PX;?-\xdc\x14?\xc2\x84.?9\xb4\xb3>\xe9\xa53?\xf7\x8bv>k\x99\n?{\x86i?%\xa73?\x92A\x12?\xf8\x91W?\xf4\x0f\x9a>\xc1:\xc8>+\xfe\x19?\x11m\x17?\xc0\xdc\x14?$*\r?(\xb5\xb3>-\xf8\xbd>k\xb5\xb3>\x19\x8b\xd7>\xcak\xf6>\xa8\t\x08?\x98\xe3\xbd>UP\xa4>\xee\xf4+?\xffP\xa4>\xcc\xb3!?Gi\xf6>\x0e!\x1f?\xbd\nC?\x88c\x1c?B\x99\n?y\x0c\xbe>\x96~\xd2>\x12y\x05?7\x94\xae>X\xc3\x0f?\x9c\xd8\xb8>&\xdd\x14?\xefy@?\rH\xf1>\xf3\x8e\x1c?t*\r?\xe1\xba\x0f?\xec\x19\xc3>\xf2\x04\xe7>4\x99\n?\xfd\x97\x81?\x81\x86W?\xcbm\x17?\xcb\x1f\x1f?0J\xf1>\x8d~\xd2>\x92\x94\xfb>\xbf\x8b\xfb>2\xc4\x0f?bm\x17?\xb4\x99\n?EZv?\xa1\xb4\xb3>f\xd6\xb8>\x8e\xd7\xb8>\xe2R\xa4>\xe4\x18\xa6< ed?'
S'\x00\x00\x00\x00\x00\x00\x00\x00\x00\x00\x00\x00\x00\x00\x00\x00\x00\x00\x00\x00\x00\x00\x00\x00\x00\x00\x00\x00\x00\x00\x00\x00\x00\x00\x00\x00\x00\x00\x00\x00\x00\x00\x00\x00\x00\x00\x00\x00\x00\x00\x00\x00\x00\x00\x00\x00\x00\x00\x00\x00\x00\x00\x00\x00\x00\x00\x00\x00\x00\x00\x00\x00\x00\x00\x00\x00\x00\x00\x00\x00\x00\x00\x00\x00\x00\x00\x00\x00\x00\x00\x00\x00\x00\x00\x00\x00'
NtbsS'order'
p1268
g1162
(g1163
g1158
g1164
S'b'
tRp1269
(I1
(I96
I1
tg1166
I00
S'\x00\x00\xa0A\x00\x00PB\x00\x00\x9aB\x00\x00\x08B\x00\x00\x8cB\x00\x00\x18B\x00\x00\x80A\x00\x00TB\x00\x00LB\x00\x00@B\x00\x00\xe8A\x00\x00\x8eB\x00\x00\xc0@\x00\x00@@\x00\x00\xaeB\x00\x00\x00\x00\x00\x00<B\x00\x00\x10A\x00\x00`A\x00\x00\xbaB\x00\x00HB\x00\x00\xc0A\x00\x00\x14B\x00\x00\xd8A\x00\x00XB\x00\x00 A\x00\x00\x00B\x00\x00\xb0A\x00\x00\x98B\x00\x00\xbeB\x00\x00\xf0A\x00\x00\x88B\x00\x00\xacB\x00\x00\xf8A\x00\x00\xa4B\x00\x00\xb2B\x00\x00\x88A\x00\x00\xa8B\x00\x00,B\x00\x00\xb8B\x00\x00\x00@\x00\x00\x84B\x00\x000B\x00\x00pB\x00\x00PA\x00\x00\xa0B\x00\x00pA\x00\x00\x86B\x00\x00\x98A\x00\x008B\x00\x00\x04B\x00\x00\xa6B\x00\x00\x10B\x00\x00\xd0A\x00\x00\x8aB\x00\x00|B\x00\x00\x80@\x00\x00\xc8A\x00\x00\xa8A\x00\x00@A\x00\x00dB\x00\x00\xbcB\x00\x00\x9eB\x00\x00\x80B\x00\x00(B\x00\x00\x0cB\x00\x00\\B\x00\x00\x96B\x00\x00`B\x00\x004B\x00\x00\x90B\x00\x00xB\x00\x00\x82B\x00\x00 B\x00\x00\xb6B\x00\x00\xb0B\x00\x00\x94B\x00\x00\xb4B\x00\x00$B\x00\x00\x9cB\x00\x00\xb8A\x00\x00\xaaB\x00\x00\xa0@\x00\x00lB\x00\x000A\x00\x00hB\x00\x00\x80?\x00\x00\xe0@\x00\x00\xa2B\x00\x00\xe0A\x00\x00\x92B\x00\x00tB\x00\x00\x1cB\x00\x00DB\x00\x00\x90A\x00\x00\x00A'
S'\x00\x00\x00\x00\x00\x00\x00\x00\x00\x00\x00\x00\x00\x00\x00\x00\x00\x00\x00\x00\x00\x00\x00\x00\x00\x00\x00\x00\x00\x00\x00\x00\x00\x00\x00\x00\x00\x00\x00\x00\x00\x00\x00\x00\x00\x00\x00\x00\x00\x00\x00\x00\x00\x00\x00\x00\x00\x00\x00\x00\x00\x00\x00\x00\x00\x00\x00\x00\x00\x00\x00\x00\x00\x00\x00\x00\x00\x00\x00\x00\x00\x00\x00\x00\x00\x00\x00\x00\x00\x00\x00\x00\x00\x00\x00\x00'
Ntbsg19
g1162
(g1163
g1158
g1164
S'b'
tRp1270
(I1
(I96
I1
tg1166
I00
S'\x00\x00\x80?\x00\x00\x00\x00\x00\x00\x80?\x00\x00\x80?\x00\x00\x80?\x00\x00\x80?\x00\x00\x00\x00\x00\x00\x00\x00\x00\x00\x80?\x00\x00\x80?\x00\x00\x80?\x00\x00\x80?\x00\x00\x00\x00\x00\x00\x80?\x00\x00\x80?\x00\x00\x80?\x00\x00\x00\x00\x00\x00\x80?\x00\x00\x80?\x00\x00\x80?\x00\x00\x00\x00\x00\x00\x80?\x00\x00\x80?\x00\x00\x80?\x00\x00\x80?\x00\x00\x00\x00\x00\x00\x80?\x00\x00\x00\x00\x00\x00\x00\x00\x00\x00\x80?\x00\x00\x80?\x00\x00\x80?\x00\x00\x80?\x00\x00\x00\x00\x00\x00\x80?\x00\x00\x00\x00\x00\x00\x80?\x00\x00\x00\x00\x00\x00\x80?\x00\x00\x80?\x00\x00\x80?\x00\x00\x00\x00\x00\x00\x80?\x00\x00\x80?\x00\x00\x80?\x00\x00\x00\x00\x00\x00\x80?\x00\x00\x80?\x00\x00\x00\x00\x00\x00\x80?\x00\x00\x80?\x00\x00\x80?\x00\x00\x80?\x00\x00\x00\x00\x00\x00\x80?\x00\x00\x80?\x00\x00\x80?\x00\x00\x80?\x00\x00\x00\x00\x00\x00\x80?\x00\x00\x80?\x00\x00\x80?\x00\x00\x00\x00\x00\x00\x00\x00\x00\x00\x00\x00\x00\x00\x80?\x00\x00\x80?\x00\x00\x00\x00\x00\x00\x80?\x00\x00\x80?\x00\x00\x80?\x00\x00\x80?\x00\x00\x00\x00\x00\x00\x80?\x00\x00\x80?\x00\x00\x80?\x00\x00\x00\x00\x00\x00\x80?\x00\x00\x80?\x00\x00\x80?\x00\x00\x80?\x00\x00\x80?\x00\x00\x80?\x00\x00\x80?\x00\x00\x00\x00\x00\x00\x80?\x00\x00\x80?\x00\x00\x80?\x00\x00\x80?\x00\x00\x80?\x00\x00\x00\x00\x00\x00\x80?\x00\x00\x80?\x00\x00\x80?\x00\x00\x00\x00\x00\x00\x80?'
S'\x00\x00\x00\x00\x00\x00\x00\x00\x00\x00\x00\x00\x00\x00\x00\x00\x00\x00\x00\x00\x00\x00\x00\x00\x00\x00\x00\x00\x00\x00\x00\x00\x00\x00\x00\x00\x00\x00\x00\x00\x00\x00\x00\x00\x00\x00\x00\x00\x00\x00\x00\x00\x00\x00\x00\x00\x00\x00\x00\x00\x00\x00\x00\x00\x00\x00\x00\x00\x00\x00\x00\x00\x00\x00\x00\x00\x00\x00\x00\x00\x00\x00\x00\x00\x00\x00\x00\x00\x00\x00\x00\x00\x00\x00\x00\x00'
Ntbsg27
g1157
(g1158
(I0
tS'b'
tRp1271
(I1
(I96
I1
tg1160
I00
(lp1272
g307
ag661
ag936
ag463
ag859
ag507
ag262
ag672
ag650
ag617
ag407
ag870
ag150
ag114
ag1046
ag76
ag606
ag183
ag240
ag1112
ag639
ag351
ag496
ag384
ag683
ag195
ag440
ag329
ag925
ag1134
ag418
ag837
ag1035
ag429
ag991
ag1068
ag273
ag1013
ag562
ag1101
ag103
ag815
ag573
ag749
ag228
ag969
ag251
ag826
ag296
ag595
ag451
ag1002
ag485
ag373
ag848
ag782
ag127
ag362
ag318
ag217
ag716
ag1123
ag958
ag793
ag551
ag474
ag694
ag914
ag705
ag584
ag881
ag771
ag804
ag529
ag1090
ag1057
ag903
ag1079
ag540
ag947
ag340
ag1024
ag138
ag738
ag206
ag727
ag90
ag161
ag980
ag395
ag892
ag760
ag518
ag628
ag285
ag172
atbsg23
g1157
(g1158
(I0
tS'b'
tRp1273
(I1
(I96
I1
tg1160
I00
(lp1274
S'3'
aS'1'
aS'2'
aS'2'
aS'1'
aS'2'
aS'1'
aS'1'
aS'1'
aS'3'
aS'1'
aS'3'
aS'1'
aS'1'
aS'3'
aS'1'
aS'1'
aS'3'
aS'2'
aS'2'
aS'3'
aS'3'
aS'3'
aS'1'
aS'3'
aS'1'
aS'2'
aS'1'
aS'1'
aS'1'
aS'3'
aS'2'
aS'3'
aS'1'
aS'3'
aS'1'
aS'3'
aS'1'
aS'2'
aS'1'
aS'3'
aS'2'
aS'3'
aS'3'
aS'3'
aS'1'
aS'3'
aS'1'
aS'1'
aS'1'
aS'2'
aS'1'
aS'1'
aS'3'
aS'1'
aS'2'
aS'2'
aS'2'
aS'1'
aS'1'
aS'2'
aS'2'
aS'2'
aS'2'
aS'2'
aS'1'
aS'3'
aS'2'
aS'1'
aS'2'
aS'2'
aS'1'
aS'2'
aS'1'
aS'3'
aS'2'
aS'1'
aS'1'
aS'1'
aS'2'
aS'1'
aS'3'
aS'3'
aS'1'
aS'1'
aS'2'
aS'3'
aS'2'
aS'1'
aS'2'
aS'3'
aS'3'
aS'2'
aS'1'
aS'2'
aS'2'
atbsg18
g1162
(g1163
g1158
g1164
S'b'
tRp1275
(I1
(I96
I1
tg1166
I00
S'\xa1\x12\xa2B\x0cUKCC\xd9\x94C\x0cS\x07C\xe2M\x87C\xa1w\x16C\x93\x91\x84B\xc9\xf5NC\x93\xbeGC\xff\x7f<CI\xa0\xe8B\xb7M\x89C\x1c\x87\xdfAw\x18\x87A\xf9\xab\xa8C%\t\xa0@x\xc08C<\xc9\x1eB\xc2\xbfiB\x1d\xed\xb3C\xd3\xe2CCX\xe6\xc0B\x96\xde\x12C\xf8\x87\xd8Bh\xccRC\xaa7-Bo\x0c\x00Cg\xa0\xb1BN\x0f\x93CI\n\xb8C$\xb4\xf0B*\xa4\x83C@\xba\xa6C\x00\xc8\xf8B\xcf\xac\x9eC\xc8l\xacCuX\x8cB\xf9\x8e\xa2C:\x82)Ce\xfb\xb1C\x0ciMA<\x19\x80C\x10u-C\xbdwiCt\x1dZB7\xcd\x9aC\xbc\xf1yB\xa5\xd7\x81C\xcat\x9aBn\'5C\xe9\xa2\x03C\xcb\xa8\xa0C\xb5\xfd\x0eC\x93"\xd1B\xa0\x8b\x85CD\x8dtCkG\xa4A\x81-\xc9B\xd3\x0c\xaaB]\\JB\x05\xf9]CR\x05\xb6CR\xe8\x98ChxxC\x87\xcf%C9,\x0bCH\xadVC\xb2+\x91C\x96PZC\xe4,1C\xbe7\x8bC\xb4\xdfpC\xe4I|C\xcf\xc0\x1dC\x80\x16\xb0C\xfa\x9e\xaaC?\x00\x8fC1+\xaeC\x98\x8a!C\xf1\xdc\x96CR\x1a\xb9B\xae\xc4\xa4CTM\xc1AN\xcfeC)\x0c;B\x1f\xf6aC1\xd6\x0fA~\xfe\xfdA\x16\xbb\x9cC\xc2\xfc\xdfB\xdc8\x8dC\x19DmC\xcd\x15\x1aC\xebN@C*\xf1\x93B\xf4c\x0eB'
S'\x00\x00\x00\x00\x00\x00\x00\x00\x00\x00\x00\x00\x00\x00\x00\x00\x00\x00\x00\x00\x00\x00\x00\x00\x00\x00\x00\x00\x00\x00\x00\x00\x00\x00\x00\x00\x00\x00\x00\x00\x00\x00\x00\x00\x00\x00\x00\x00\x00\x00\x00\x00\x00\x00\x00\x00\x00\x00\x00\x00\x00\x00\x00\x00\x00\x00\x00\x00\x00\x00\x00\x00\x00\x00\x00\x00\x00\x00\x00\x00\x00\x00\x00\x00\x00\x00\x00\x00\x00\x00\x00\x00\x00\x00\x00\x00'
Ntbsg25
g1162
(g1163
g1158
g1164
S'b'
tRp1276
(I1
(I96
I1
tg1166
I00
S'tU\xf6>uBl>Sc\x80>\xbe\x92\xae>\xc9ql>\xac\xc8\x8f>+\x11\x9a>[\xd6\xb8>\x9ec\x80>IvM>\xd3\x98\n?\xa6\xbfW>u\x1al>\x92\xcb\x8f>*\x85v>\x07[\xcd>\xc2tM>l-\x9f>\x8e-\x9f>w\xc0\xdc>\x1dBl> Fl>6c\x80>\x8c.\x9f>)\x9c\x85>\x89\x0c\x9a>\xcbg\x80>}\xa7\x8a>\xca\x85v>%R\xa4>\xa1Q\xa4>\xa1\x86v>R3C>b\xea\x94>\xb3\x85v>\xb0\xfda>\xfe\xa9\x8a>\xa0\x05\xe7>xAl>\x99\xea\x94>\xec\xc0W>\xc1~M>M\x92\xae>\x8f\xf38>+\xea\x94>\x89\x85\x85>\x86\x85\x85>\x9f\x85v>\xcf\xa0\xd7>z\x85v>#\xa7\x8a>\xa3\xa6\x8a>\xe7O\xa4>\xf8O\xa4>\x94\xf18>\x92\x00b>\x1e\xeb\x94>\x07p\xa9>\x88\xea\x94>@\x85\x85>\xd4wM>8\x9d\xd7>x\x84\x85>\n\xe2\xe1>\x82\x85\x85>\xd1\xe9\x94> \xea\x94>\xfd\x00b>J\x84\x85>\xdd\x80\xd2>\xbf\x88\x85>=M9>\xa5\xed\x94>\x1fCl>\xadAl>\xa4Bl>\xc7C_?\xff\x85\x85>\xc0\xfda>\xe8\x84v>wc\x80>\x1e\x89\x85>}/\x9f>\xe5xM>w-\x9f>\\\x92\xae>\xbb\x93\x8a>\x17\x89\x85>\x83\xeb\x94>\xca\xd7\xb8>\xcd\xfda>Gc\x80>7R\xa4>\x9c@l>\xcfP\x80>@\xfea>'
S'\x00\x00\x00\x00\x00\x00\x00\x00\x00\x00\x00\x00\x00\x00\x00\x00\x00\x00\x00\x00\x00\x00\x00\x00\x00\x00\x00\x00\x00\x00\x00\x00\x00\x00\x00\x00\x00\x00\x00\x00\x00\x00\x00\x00\x00\x00\x00\x00\x00\x00\x00\x00\x00\x00\x00\x00\x00\x00\x00\x00\x00\x00\x00\x00\x00\x00\x00\x00\x00\x00\x00\x00\x00\x00\x00\x00\x00\x00\x00\x00\x00\x00\x00\x00\x00\x00\x00\x00\x00\x00\x00\x00\x00\x00\x00\x00'
NtbstRp1277
(dp1278
S'isNumeric'
p1279
(dp1280
g23
I00
sg20
I00
sg17
I01
sg1167
I01
sg22
I01
sg24
I01
sg14
I01
sg18
I01
sg16
I00
sg19
I01
sg26
I00
sg27
I00
sg15
I00
sg21
I01
sg1268
I01
sg25
I01
ssg1151
g1145
sS'dataTypes'
p1281
(lp1282
g1167
ag1268
ag14
ag15
ag16
ag17
ag18
ag19
ag20
ag21
ag22
ag23
ag24
ag25
ag26
ag27
asS'dataShape'
p1283
(lp1284
I96
aI1
asbsS'method'
p1285
S'random'
p1286
sS'sequenceIndices'
p1287
g1157
(g1158
(I0
tS'b'
tRp1288
(I1
(I96
I1
tg80
I01
S'\x0f\x00\x00\x00V\x00\x00\x00(\x00\x00\x00\r\x00\x00\x008\x00\x00\x00R\x00\x00\x00\x0c\x00\x00\x00W\x00\x00\x00_\x00\x00\x00\x11\x00\x00\x00\x19\x00\x00\x00T\x00\x00\x00;\x00\x00\x00,\x00\x00\x00\x12\x00\x00\x00.\x00\x00\x00\x06\x00\x00\x00$\x00\x00\x00^\x00\x00\x000\x00\x00\x00\x00\x00\x00\x00:\x00\x00\x00\x1b\x00\x00\x00P\x00\x00\x00\x15\x00\x00\x009\x00\x00\x005\x00\x00\x00\x17\x00\x00\x00Y\x00\x00\x00\n\x00\x00\x00\x1e\x00\x00\x00!\x00\x00\x00\x1a\x00\x00\x002\x00\x00\x00\x03\x00\x00\x00A\x00\x00\x004\x00\x00\x00\x16\x00\x00\x00\x05\x00\x00\x00\\\x00\x00\x00I\x00\x00\x00N\x00\x00\x00@\x00\x00\x00&\x00\x00\x00*\x00\x00\x00E\x00\x00\x001\x00\x00\x00\x10\x00\x00\x00\t\x00\x00\x00]\x00\x00\x00\x14\x00\x00\x00\x08\x00\x00\x00\x01\x00\x00\x00\x07\x00\x00\x00\x18\x00\x00\x00B\x00\x00\x00D\x00\x00\x00<\x00\x00\x00U\x00\x00\x00S\x00\x00\x00+\x00\x00\x00[\x00\x00\x00G\x00\x00\x007\x00\x00\x00?\x00\x00\x00H\x00\x00\x00)\x00\x00\x00/\x00\x00\x00\x1f\x00\x00\x006\x00\x00\x00\x04\x00\x00\x00\x0b\x00\x00\x00F\x00\x00\x00Z\x00\x00\x00L\x00\x00\x00C\x00\x00\x00\x1c\x00\x00\x00\x02\x00\x00\x00O\x00\x00\x00>\x00\x00\x00-\x00\x00\x00X\x00\x00\x00"\x00\x00\x003\x00\x00\x00%\x00\x00\x00Q\x00\x00\x00 \x00\x00\x00\x0e\x00\x00\x00K\x00\x00\x00#\x00\x00\x00M\x00\x00\x00J\x00\x00\x00\'\x00\x00\x00\x13\x00\x00\x00=\x00\x00\x00\x1d\x00\x00\x00'
tbsS'finished'
p1289
I01
sS'nReps'
p1290
I1
sS'nRemaining'
p1291
I-1
sS'trialList'
p1292
(lp1293
g1
(cpsychopy.data
TrialType
p1294
g1155
(dp1295
g62
g74
sg63
g313
sg64
g73
sg65
g308
sg66
g312
stRp1296
ag1
(g1294
g1155
(dp1297
g62
g101
sg63
g667
sg64
g100
sg65
g662
sg66
g666
stRp1298
ag1
(g1294
g1155
(dp1299
g62
g74
sg63
g942
sg64
g73
sg65
g937
sg66
g941
stRp1300
ag1
(g1294
g1155
(dp1301
g62
g74
sg63
g469
sg64
g461
sg65
g464
sg66
g468
stRp1302
ag1
(g1294
g1155
(dp1303
g62
g101
sg63
g865
sg64
g125
sg65
g860
sg66
g864
stRp1304
ag1
(g1294
g1155
(dp1305
g62
g74
sg63
g513
sg64
g73
sg65
g508
sg66
g512
stRp1306
ag1
(g1294
g1155
(dp1307
g62
g74
sg63
g268
sg64
g73
sg65
g263
sg66
g267
stRp1308
ag1
(g1294
g1155
(dp1309
g62
g74
sg63
g678
sg64
g88
sg65
g673
sg66
g677
stRp1310
ag1
(g1294
g1155
(dp1311
g62
g74
sg63
g656
sg64
g73
sg65
g651
sg66
g655
stRp1312
ag1
(g1294
g1155
(dp1313
g62
g74
sg63
g623
sg64
g88
sg65
g618
sg66
g622
stRp1314
ag1
(g1294
g1155
(dp1315
g62
g101
sg63
g413
sg64
g405
sg65
g408
sg66
g412
stRp1316
ag1
(g1294
g1155
(dp1317
g62
g74
sg63
g876
sg64
g88
sg65
g871
sg66
g875
stRp1318
ag1
(g1294
g1155
(dp1319
g62
g74
sg63
g156
sg64
g148
sg65
g151
sg66
g155
stRp1320
ag1
(g1294
g1155
(dp1321
g62
g101
sg63
g120
sg64
g100
sg65
g115
sg66
g119
stRp1322
ag1
(g1294
g1155
(dp1323
g62
g74
sg63
g1052
sg64
g148
sg65
g1047
sg66
g1051
stRp1324
ag1
(g1294
g1155
(dp1325
g62
g74
sg63
g84
sg64
g73
sg65
g78
sg66
g83
stRp1326
ag1
(g1294
g1155
(dp1327
g62
g101
sg63
g612
sg64
g100
sg65
g607
sg66
g611
stRp1328
ag1
(g1294
g1155
(dp1329
g62
g74
sg63
g189
sg64
g148
sg65
g184
sg66
g188
stRp1330
ag1
(g1294
g1155
(dp1331
g62
g74
sg63
g246
sg64
g238
sg65
g241
sg66
g245
stRp1332
ag1
(g1294
g1155
(dp1333
g62
g74
sg63
g1118
sg64
g73
sg65
g1113
sg66
g1117
stRp1334
ag1
(g1294
g1155
(dp1335
g62
g101
sg63
g645
sg64
g100
sg65
g640
sg66
g644
stRp1336
ag1
(g1294
g1155
(dp1337
g62
g101
sg63
g357
sg64
g283
sg65
g352
sg66
g356
stRp1338
ag1
(g1294
g1155
(dp1339
g62
g74
sg63
g502
sg64
g238
sg65
g497
sg66
g501
stRp1340
ag1
(g1294
g1155
(dp1341
g62
g101
sg63
g390
sg64
g283
sg65
g385
sg66
g389
stRp1342
ag1
(g1294
g1155
(dp1343
g62
g101
sg63
g689
sg64
g405
sg65
g684
sg66
g688
stRp1344
ag1
(g1294
g1155
(dp1345
g62
g74
sg63
g201
sg64
g193
sg65
g196
sg66
g200
stRp1346
ag1
(g1294
g1155
(dp1347
g62
g101
sg63
g446
sg64
g125
sg65
g441
sg66
g445
stRp1348
ag1
(g1294
g1155
(dp1349
g62
g101
sg63
g335
sg64
g100
sg65
g330
sg66
g334
stRp1350
ag1
(g1294
g1155
(dp1351
g62
g74
sg63
g931
sg64
g148
sg65
g926
sg66
g930
stRp1352
ag1
(g1294
g1155
(dp1353
g62
g74
sg63
g1140
sg64
g73
sg65
g1135
sg66
g1139
stRp1354
ag1
(g1294
g1155
(dp1355
g62
g74
sg63
g424
sg64
g238
sg65
g419
sg66
g423
stRp1356
ag1
(g1294
g1155
(dp1357
g62
g74
sg63
g843
sg64
g238
sg65
g838
sg66
g842
stRp1358
ag1
(g1294
g1155
(dp1359
g62
g101
sg63
g1041
sg64
g100
sg65
g1036
sg66
g1040
stRp1360
ag1
(g1294
g1155
(dp1361
g62
g101
sg63
g435
sg64
g125
sg65
g430
sg66
g434
stRp1362
ag1
(g1294
g1155
(dp1363
g62
g101
sg63
g997
sg64
g125
sg65
g992
sg66
g996
stRp1364
ag1
(g1294
g1155
(dp1365
g62
g74
sg63
g1074
sg64
g148
sg65
g1069
sg66
g1073
stRp1366
ag1
(g1294
g1155
(dp1367
g62
g74
sg63
g279
sg64
g193
sg65
g274
sg66
g278
stRp1368
ag1
(g1294
g1155
(dp1369
g62
g74
sg63
g1019
sg64
g461
sg65
g1014
sg66
g1018
stRp1370
ag1
(g1294
g1155
(dp1371
g62
g101
sg63
g568
sg64
g125
sg65
g563
sg66
g567
stRp1372
ag1
(g1294
g1155
(dp1373
g62
g101
sg63
g1107
sg64
g100
sg65
g1102
sg66
g1106
stRp1374
ag1
(g1294
g1155
(dp1375
g62
g101
sg63
g109
sg64
g100
sg65
g104
sg66
g108
stRp1376
ag1
(g1294
g1155
(dp1377
g62
g74
sg63
g821
sg64
g148
sg65
g816
sg66
g820
stRp1378
ag1
(g1294
g1155
(dp1379
g62
g101
sg63
g579
sg64
g125
sg65
g574
sg66
g578
stRp1380
ag1
(g1294
g1155
(dp1381
g62
g101
sg63
g755
sg64
g283
sg65
g750
sg66
g754
stRp1382
ag1
(g1294
g1155
(dp1383
g62
g101
sg63
g234
sg64
g125
sg65
g229
sg66
g233
stRp1384
ag1
(g1294
g1155
(dp1385
g62
g101
sg63
g975
sg64
g405
sg65
g970
sg66
g974
stRp1386
ag1
(g1294
g1155
(dp1387
g62
g74
sg63
g257
sg64
g73
sg65
g252
sg66
g256
stRp1388
ag1
(g1294
g1155
(dp1389
g62
g74
sg63
g832
sg64
g73
sg65
g827
sg66
g831
stRp1390
ag1
(g1294
g1155
(dp1391
g62
g101
sg63
g302
sg64
g100
sg65
g297
sg66
g301
stRp1392
ag1
(g1294
g1155
(dp1393
g62
g101
sg63
g601
sg64
g283
sg65
g596
sg66
g600
stRp1394
ag1
(g1294
g1155
(dp1395
g62
g101
sg63
g457
sg64
g100
sg65
g452
sg66
g456
stRp1396
ag1
(g1294
g1155
(dp1397
g62
g101
sg63
g1008
sg64
g125
sg65
g1003
sg66
g1007
stRp1398
ag1
(g1294
g1155
(dp1399
g62
g101
sg63
g491
sg64
g283
sg65
g486
sg66
g490
stRp1400
ag1
(g1294
g1155
(dp1401
g62
g74
sg63
g379
sg64
g148
sg65
g374
sg66
g378
stRp1402
ag1
(g1294
g1155
(dp1403
g62
g74
sg63
g854
sg64
g88
sg65
g849
sg66
g853
stRp1404
ag1
(g1294
g1155
(dp1405
g62
g101
sg63
g788
sg64
g283
sg65
g783
sg66
g787
stRp1406
ag1
(g1294
g1155
(dp1407
g62
g101
sg63
g133
sg64
g125
sg65
g128
sg66
g132
stRp1408
ag1
(g1294
g1155
(dp1409
g62
g101
sg63
g368
sg64
g125
sg65
g363
sg66
g367
stRp1410
ag1
(g1294
g1155
(dp1411
g62
g74
sg63
g324
sg64
g148
sg65
g319
sg66
g323
stRp1412
ag1
(g1294
g1155
(dp1413
g62
g101
sg63
g223
sg64
g125
sg65
g218
sg66
g222
stRp1414
ag1
(g1294
g1155
(dp1415
g62
g101
sg63
g722
sg64
g125
sg65
g717
sg66
g721
stRp1416
ag1
(g1294
g1155
(dp1417
g62
g101
sg63
g1129
sg64
g125
sg65
g1124
sg66
g1128
stRp1418
ag1
(g1294
g1155
(dp1419
g62
g74
sg63
g964
sg64
g193
sg65
g959
sg66
g963
stRp1420
ag1
(g1294
g1155
(dp1421
g62
g101
sg63
g799
sg64
g125
sg65
g794
sg66
g798
stRp1422
ag1
(g1294
g1155
(dp1423
g62
g74
sg63
g557
sg64
g88
sg65
g552
sg66
g556
stRp1424
ag1
(g1294
g1155
(dp1425
g62
g101
sg63
g480
sg64
g283
sg65
g475
sg66
g479
stRp1426
ag1
(g1294
g1155
(dp1427
g62
g74
sg63
g700
sg64
g238
sg65
g695
sg66
g699
stRp1428
ag1
(g1294
g1155
(dp1429
g62
g101
sg63
g920
sg64
g125
sg65
g915
sg66
g919
stRp1430
ag1
(g1294
g1155
(dp1431
g62
g101
sg63
g711
sg64
g100
sg65
g706
sg66
g710
stRp1432
ag1
(g1294
g1155
(dp1433
g62
g74
sg63
g590
sg64
g73
sg65
g585
sg66
g589
stRp1434
ag1
(g1294
g1155
(dp1435
g62
g101
sg63
g887
sg64
g125
sg65
g882
sg66
g886
stRp1436
ag1
(g1294
g1155
(dp1437
g62
g74
sg63
g777
sg64
g238
sg65
g772
sg66
g776
stRp1438
ag1
(g1294
g1155
(dp1439
g62
g74
sg63
g810
sg64
g193
sg65
g805
sg66
g809
stRp1440
ag1
(g1294
g1155
(dp1441
g62
g101
sg63
g535
sg64
g405
sg65
g530
sg66
g534
stRp1442
ag1
(g1294
g1155
(dp1443
g62
g101
sg63
g1096
sg64
g125
sg65
g1091
sg66
g1095
stRp1444
ag1
(g1294
g1155
(dp1445
g62
g101
sg63
g1063
sg64
g283
sg65
g1058
sg66
g1062
stRp1446
ag1
(g1294
g1155
(dp1447
g62
g74
sg63
g909
sg64
g88
sg65
g904
sg66
g908
stRp1448
ag1
(g1294
g1155
(dp1449
g62
g74
sg63
g1085
sg64
g238
sg65
g1080
sg66
g1084
stRp1450
ag1
(g1294
g1155
(dp1451
g62
g74
sg63
g546
sg64
g73
sg65
g541
sg66
g545
stRp1452
ag1
(g1294
g1155
(dp1453
g62
g101
sg63
g953
sg64
g125
sg65
g948
sg66
g952
stRp1454
ag1
(g1294
g1155
(dp1455
g62
g101
sg63
g346
sg64
g283
sg65
g341
sg66
g345
stRp1456
ag1
(g1294
g1155
(dp1457
g62
g74
sg63
g1030
sg64
g73
sg65
g1025
sg66
g1029
stRp1458
ag1
(g1294
g1155
(dp1459
g62
g101
sg63
g144
sg64
g100
sg65
g139
sg66
g143
stRp1460
ag1
(g1294
g1155
(dp1461
g62
g74
sg63
g744
sg64
g238
sg65
g739
sg66
g743
stRp1462
ag1
(g1294
g1155
(dp1463
g62
g101
sg63
g212
sg64
g100
sg65
g207
sg66
g211
stRp1464
ag1
(g1294
g1155
(dp1465
g62
g101
sg63
g733
sg64
g125
sg65
g728
sg66
g732
stRp1466
ag1
(g1294
g1155
(dp1467
g62
g74
sg63
g96
sg64
g88
sg65
g91
sg66
g95
stRp1468
ag1
(g1294
g1155
(dp1469
g62
g74
sg63
g167
sg64
g88
sg65
g162
sg66
g166
stRp1470
ag1
(g1294
g1155
(dp1471
g62
g74
sg63
g986
sg64
g193
sg65
g981
sg66
g985
stRp1472
ag1
(g1294
g1155
(dp1473
g62
g74
sg63
g401
sg64
g193
sg65
g396
sg66
g400
stRp1474
ag1
(g1294
g1155
(dp1475
g62
g101
sg63
g898
sg64
g100
sg65
g893
sg66
g897
stRp1476
ag1
(g1294
g1155
(dp1477
g62
g74
sg63
g766
sg64
g88
sg65
g761
sg66
g765
stRp1478
ag1
(g1294
g1155
(dp1479
g62
g74
sg63
g524
sg64
g193
sg65
g519
sg66
g523
stRp1480
ag1
(g1294
g1155
(dp1481
g62
g74
sg63
g634
sg64
g73
sg65
g629
sg66
g633
stRp1482
ag1
(g1294
g1155
(dp1483
g62
g101
sg63
g291
sg64
g283
sg65
g286
sg66
g290
stRp1484
ag1
(g1294
g1155
(dp1485
g62
g101
sg63
g178
sg64
g100
sg65
g173
sg66
g177
stRp1486
asS'seed'
p1487
NsS'thisIndex'
p1488
g1137
sS'thisN'
p1489
I96
sS'thisTrialN'
p1490
I0
sS'nTotal'
p1491
I96
sS'_warnUseOfNext'
p1492
I01
sbasS'savePickle'
p1493
I00
sb.