ccopy_reg
_reconstructor
p1
(cpsychopy.data
ExperimentHandler
p2
c__builtin__
object
p3
NtRp4
(dp5
S'originPath'
p6
NsS'dataFileName'
p7
VC:\u005cDocuments and Settings\u005cExperimental user\u005cMy Documents\u005cconsciousness\u005cuncon_feat\u005cexperiment_scripts\u005cdata/leyre_Experiment_EEG_version_2019_may_13_1630
p8
sS'runtimeInfo'
p9
NsS'name'
p10
VExperiment_EEG_version
p11
sS'dataNames'
p12
(lp13
S'image_onset_time'
p14
aS'response_window'
p15
aS'correctAns'
p16
aS'probe_onset'
p17
aS'discrim_resptime'
p18
aS'response.corr'
p19
aS'response.keys'
p20
aS'response.rt'
p21
aS'visible_resptime'
p22
aS'visible.keys'
p23
aS'visible.corr'
p24
aS'visible.rt'
p25
aS'probeFrames'
p26
aS'jitter2'
p27
asS'autoLog'
p28
I01
sS'extraInfo'
p29
(dp30
Vn_square
p31
V32
p32
sVexperiment_color
p33
Vbw
p34
sS'frameRate'
p35
cnumpy.core.multiarray
scalar
p36
(cnumpy
dtype
p37
(S'f8'
I0
I1
tRp38
(I3
S'<'
NNNI-1
I-1
I0
tbS'\xc4\xaer\x17\x01\xf2X@'
tRp39
sS'date'
p40
V2019_may_13_1630
p41
sVsession
p42
V006
p43
sVimage_size
p44
V256
p45
sVpremask_dur
p46
V20
p47
sVprobeFrames
p48
V5
sVparticipant
p49
Vleyre
p50
sS'expName'
p51
g11
sVpostmask_dur
p52
V20
p53
ssS'loopsUnfinished'
p54
(lp55
sS'saveWideText'
p56
I00
sS'thisEntry'
p57
(dp58
sS'version'
p59
S''
sS'_paramNamesSoFar'
p60
(lp61
S'category'
p62
aS'probe_path'
p63
aS'subcategory'
p64
aS'fixation_duration'
p65
aS'label'
p66
asS'entries'
p67
(lp68
(dp69
g31
g32
sg17
F3.7446827052626759
sg24
I1
sg35
g39
sg14
F3.72288087423658
sg16
g36
(g37
(S'i4'
I0
I1
tRp70
(I3
S'<'
NNNI-1
I-1
I0
tbS'\x01\x00\x00\x00'
tRp71
sg42
g43
sg46
g47
sg15
S'V_nV'
p72
sg22
F5.9486640467075631
sg64
VMarine_creatures
p73
sg62
VLiving_Things
p74
sg49
g50
sS'trials.thisN'
p75
I0
sg19
I1
sg27
g36
(g38
S'\x00\x00\x00\x00\x00\x00\x1c@'
tRp76
sg52
g53
sg23
S'1'
sg18
F5.0055705382255837
sg33
g34
sg51
g11
sg20
S'1'
sg65
g36
(g37
(S'i8'
I0
I1
tRp77
(I3
S'<'
NNNI-1
I-1
I0
tbS'\x00\x00\x00\x00\x00\x00\x00\x00'
tRp78
sg44
g45
sg40
g41
sg25
F0.16056103492155671
sS'trials.thisIndex'
p79
g36
(g37
(S'i4'
I0
I1
tRp80
(I3
S'<'
NNNI-1
I-1
I0
tbS'+\x00\x00\x00'
tRp81
sg26
V5
sS'trials.thisRepN'
p82
I0
sg66
Vkiller-whale
p83
sg63
V../experiment_stimuli/bw_bc_bl/Living_Things/Marine_creatures/killer-whale_19.jpg
p84
sg21
F0.91223254444776103
sS'trials.thisTrialN'
p85
I0
sa(dp86
g31
g32
sg17
F7.8467447394505143
sg24
I0
sg35
g39
sg14
F7.8418392493622378
sg16
g36
(g70
S'\x01\x00\x00\x00'
tRp87
sg42
g43
sg46
g47
sg15
g72
sg22
F9.6664543923689052
sg64
VBirds
p88
sg62
g74
sg49
g50
sS'trials.thisN'
p89
I1
sg19
I1
sg27
g36
(g38
S'\x00\x00\x00\x00\x00\x00\x18@'
tRp90
sg52
g53
sg23
S'2'
sg18
F9.1445687236846425
sg33
g34
sg51
g11
sg20
S'1'
sg65
g36
(g77
S'\x00\x00\x00\x00\x00\x00\x00\x00'
tRp91
sg44
g45
sg40
g41
sg25
F0.19088908965932205
sS'trials.thisIndex'
p92
g36
(g80
S'!\x00\x00\x00'
tRp93
sg26
V5
sS'trials.thisRepN'
p94
I0
sg66
Vgoldfinch
p95
sg63
V../experiment_stimuli/bw_bc_bl/Living_Things/Birds/goldfinch_12.jpg
p96
sg21
F0.50133322976762429
sS'trials.thisTrialN'
p97
I1
sa(dp98
g31
g32
sg17
F11.594979551329743
sg24
I0
sg35
g39
sg14
F11.589993077446707
sg16
g36
(g70
S'\x02\x00\x00\x00'
tRp99
sg42
g43
sg46
g47
sg15
g72
sg22
F13.334404621156864
sg64
VMusical_Inst
p100
sg62
VNonliving_Things
p101
sg49
g50
sS'trials.thisN'
p102
I2
sg19
I1
sg27
g36
(g38
S'\x00\x00\x00\x00\x00\x00\x1c@'
tRp103
sg52
g53
sg23
S'3'
sg18
F12.882691214617807
sg33
g34
sg51
g11
sg20
S'2'
sg65
g36
(g77
S'\x00\x00\x00\x00\x00\x00\x00\x00'
tRp104
sg44
g45
sg40
g41
sg25
F0.17059885000344366
sS'trials.thisIndex'
p105
g36
(g80
S'Y\x00\x00\x00'
tRp106
sg26
V5
sS'trials.thisRepN'
p107
I0
sg66
Vtuba
p108
sg63
V../experiment_stimuli/bw_bc_bl/Nonliving_Things/Musical_Inst/tuba_6.jpg
p109
sg21
F0.43115908827167004
sS'trials.thisTrialN'
p110
I2
sa(dp111
g31
g32
sg17
F15.24328316678293
sg24
I0
sg35
g39
sg14
F15.23791492782766
sg16
g36
(g70
S'\x01\x00\x00\x00'
tRp112
sg42
g43
sg46
g47
sg15
g72
sg22
F16.912180167855695
sg64
VInsects
p113
sg62
g74
sg49
g50
sS'trials.thisN'
p114
I3
sg19
I1
sg27
g36
(g38
S'\x00\x00\x00\x00\x00\x00\x18@'
tRp115
sg52
g53
sg23
S'3'
sg18
F16.500556126644369
sg33
g34
sg51
g11
sg20
S'1'
sg65
g36
(g77
S'\x00\x00\x00\x00\x00\x00\x00\x00'
tRp116
sg44
g45
sg40
g41
sg25
F0.15061201987555251
sS'trials.thisIndex'
p117
g36
(g80
S'\x18\x00\x00\x00'
tRp118
sg26
V5
sS'trials.thisRepN'
p119
I0
sg66
Vdragonfly
p120
sg63
V../experiment_stimuli/bw_bc_bl/Living_Things/Insects/dragonfly_23.jpg
p121
sg21
F0.39107473759213462
sS'trials.thisTrialN'
p122
I3
sa(dp123
g31
g32
sg17
F18.800509970169514
sg24
I1
sg35
g39
sg14
F18.795640163763892
sg16
g36
(g70
S'\x02\x00\x00\x00'
tRp124
sg42
g43
sg46
g47
sg15
S'nV_V'
p125
sg22
F20.329758143809158
sg64
g73
sg62
g74
sg49
g50
sS'trials.thisN'
p126
I4
sg19
I1
sg27
g36
(g38
S'\x00\x00\x00\x00\x00\x00\x18@'
tRp127
sg52
g53
sg23
S'1'
sg18
F20.028221928456333
sg33
g34
sg51
g11
sg20
S'2'
sg65
g36
(g77
S'\x00\x00\x00\x00\x00\x00\x00\x00'
tRp128
sg44
g45
sg40
g41
sg25
F0.14054271654458717
sS'trials.thisIndex'
p129
g36
(g80
S'K\x00\x00\x00'
tRp130
sg26
V5
sS'trials.thisRepN'
p131
I0
sg66
Vshark
p132
sg63
V../experiment_stimuli/bw_bc_bl/Living_Things/Marine_creatures/shark_25.jpg
p133
sg21
F0.28097652486758307
sS'trials.thisTrialN'
p134
I4
sa(dp135
g31
g32
sg17
F22.207956598955207
sg24
I1
sg35
g39
sg14
F22.203045206668321
sg16
g36
(g70
S'\x02\x00\x00\x00'
tRp136
sg42
g43
sg46
g47
sg15
g125
sg22
F23.506562940368894
sg64
VAnimals
p137
sg62
g74
sg49
g50
sS'trials.thisN'
p138
I5
sg19
I1
sg27
g36
(g38
S'\x00\x00\x00\x00\x00\x00\x18@'
tRp139
sg52
g53
sg23
S'1'
sg18
F23.455672770913225
sg33
g34
sg51
g11
sg20
S'2'
sg65
g36
(g77
S'\x00\x00\x00\x00\x00\x00\x00\x00'
tRp140
sg44
g45
sg40
g41
sg25
F0.18061417271383107
sS'trials.thisIndex'
p141
g36
(g80
S'2\x00\x00\x00'
tRp142
sg26
V5
sS'trials.thisRepN'
p143
I0
sg66
Vlynx
p144
sg63
V../experiment_stimuli/bw_bc_bl/Living_Things/Animals/lynx_1.jpg
p145
sg21
F0.030289280461147428
sS'trials.thisTrialN'
p146
I5
sa(dp147
g31
g32
sg17
F25.424896666372661
sg24
I0
sg35
g39
sg14
F25.420051799505018
sg16
g36
(g70
S'\x01\x00\x00\x00'
tRp148
sg42
g43
sg46
g47
sg15
g125
sg22
F27.254653186886571
sg64
VFurniture
p149
sg62
g101
sg49
g50
sS'trials.thisN'
p150
I6
sg19
I1
sg27
g36
(g38
S'\x00\x00\x00\x00\x00\x00\x18@'
tRp151
sg52
g53
sg23
S'3'
sg18
F26.692704836314078
sg33
g34
sg51
g11
sg20
S'1'
sg65
g36
(g77
S'\x00\x00\x00\x00\x00\x00\x00\x00'
tRp152
sg44
g45
sg40
g41
sg25
F0.23071438755141571
sS'trials.thisIndex'
p153
g36
(g80
S'N\x00\x00\x00'
tRp154
sg26
V5
sS'trials.thisRepN'
p155
I0
sg66
Vsofa
p156
sg63
V../experiment_stimuli/bw_bc_bl/Nonliving_Things/Furniture/sofa_14.jpg
p157
sg21
F0.54139994911383837
sS'trials.thisTrialN'
p158
I6
sa(dp159
g31
g32
sg17
F29.223223009379581
sg24
I0
sg35
g39
sg14
F29.21829307207372
sg16
g36
(g70
S'\x01\x00\x00\x00'
tRp160
sg42
g43
sg46
g47
sg15
g125
sg22
F31.082992374256719
sg64
g100
sg62
g101
sg49
g50
sS'trials.thisN'
p161
I7
sg19
I1
sg27
g36
(g38
S'\x00\x00\x00\x00\x00\x00\x1a@'
tRp162
sg52
g53
sg23
S'2'
sg18
F30.470918410748709
sg33
g34
sg51
g11
sg20
S'1'
sg65
g36
(g77
S'\x00\x00\x00\x00\x00\x00\x00\x00'
tRp163
sg44
g45
sg40
g41
sg25
F0.37101859622634947
sS'trials.thisIndex'
p164
g36
(g80
S'X\x00\x00\x00'
tRp165
sg26
V5
sS'trials.thisRepN'
p166
I0
sg66
Vtrumpet
p167
sg63
V../experiment_stimuli/bw_bc_bl/Nonliving_Things/Musical_Inst/trumpet_15.jpg
p168
sg21
F0.59152453596470878
sS'trials.thisTrialN'
p169
I7
sa(dp170
g31
g32
sg17
F33.191691637097392
sg24
I0
sg35
g39
sg14
F33.186916728038341
sg16
g36
(g70
S'\x01\x00\x00\x00'
tRp171
sg42
g43
sg46
g47
sg15
g72
sg22
F34.791039077856112
sg64
g73
sg62
g74
sg49
g50
sS'trials.thisN'
p172
I8
sg19
I1
sg27
g36
(g38
S'\x00\x00\x00\x00\x00\x00\x1c@'
tRp173
sg52
g53
sg23
S'2'
sg18
F34.429521360609215
sg33
g34
sg51
g11
sg20
S'1'
sg65
g36
(g77
S'\x00\x00\x00\x00\x00\x00\x00\x00'
tRp174
sg44
g45
sg40
g41
sg25
F0.16056643729098141
sS'trials.thisIndex'
p175
g36
(g80
S'4\x00\x00\x00'
tRp176
sg26
V5
sS'trials.thisRepN'
p177
I0
sg66
Vmanatee
p178
sg63
V../experiment_stimuli/bw_bc_bl/Living_Things/Marine_creatures/manatee_24.jpg
p179
sg21
F0.34096184268128127
sS'trials.thisTrialN'
p180
I8
sa(dp181
g31
g32
sg17
F36.689439239737112
sg24
I1
sg35
g39
sg14
F36.684525693184696
sg16
g36
(g70
S'\x02\x00\x00\x00'
tRp182
sg42
g43
sg46
g47
sg15
g125
sg22
F38.238541125436313
sg64
g88
sg62
g74
sg49
g50
sS'trials.thisN'
p183
I9
sg19
I1
sg27
g36
(g38
S'\x00\x00\x00\x00\x00\x00\x18@'
tRp184
sg52
g53
sg23
S'1'
sg18
F37.917103642306756
sg33
g34
sg51
g11
sg20
S'2'
sg65
g36
(g77
S'\x00\x00\x00\x00\x00\x00\x00\x00'
tRp185
sg44
g45
sg40
g41
sg25
F0.18061822920572013
sS'trials.thisIndex'
p186
g36
(g80
S'3\x00\x00\x00'
tRp187
sg26
V5
sS'trials.thisRepN'
p188
I0
sg66
Vmagpie
p189
sg63
V../experiment_stimuli/bw_bc_bl/Living_Things/Birds/magpie_14.jpg
p190
sg21
F0.30087854055454955
sS'trials.thisTrialN'
p191
I9
sa(dp192
g31
g32
sg17
F40.157635235111229
sg24
I1
sg35
g39
sg14
F40.15207059297245
sg16
g36
(g70
S'\x01\x00\x00\x00'
tRp193
sg42
g43
sg46
g47
sg15
g125
sg22
F41.736142286215909
sg64
VBuildings
p194
sg62
g101
sg49
g50
sS'trials.thisN'
p195
I10
sg19
I0
sg27
g36
(g38
S'\x00\x00\x00\x00\x00\x00\x18@'
tRp196
sg52
g53
sg23
S'1'
sg18
F41.404682458203752
sg33
g34
sg51
g11
sg20
S'2'
sg65
g36
(g77
S'\x00\x00\x00\x00\x00\x00\x00\x00'
tRp197
sg44
g45
sg40
g41
sg25
F0.12048315419815481
sS'trials.thisIndex'
p198
g36
(g80
S'#\x00\x00\x00'
tRp199
sg26
V5
sS'trials.thisRepN'
p200
I0
sg66
Vgranary
p201
sg63
V../experiment_stimuli/bw_bc_bl/Nonliving_Things/Buildings/granary_2.jpg
p202
sg21
F0.3108975324430503
sS'trials.thisTrialN'
p203
I10
sa(dp204
g31
g32
sg17
F43.594357625057455
sg24
I0
sg35
g39
sg14
F43.589547013281845
sg16
g36
(g70
S'\x01\x00\x00\x00'
tRp205
sg42
g43
sg46
g47
sg15
g125
sg22
F45.283832793647889
sg64
VVehicles
p206
sg62
g101
sg49
g50
sS'trials.thisN'
p207
I11
sg19
I1
sg27
g36
(g38
S'\x00\x00\x00\x00\x00\x00\x18@'
tRp208
sg52
g53
sg23
S'2'
sg18
F44.862198952410836
sg33
g34
sg51
g11
sg20
S'1'
sg65
g36
(g77
S'\x00\x00\x00\x00\x00\x00\x00\x00'
tRp209
sg44
g45
sg40
g41
sg25
F0.28085116576403379
sS'trials.thisIndex'
p210
g36
(g80
S'L\x00\x00\x00'
tRp211
sg26
V5
sS'trials.thisRepN'
p212
I0
sg66
Vship
p213
sg63
V../experiment_stimuli/bw_bc_bl/Nonliving_Things/Vehicles/ship_7.jpg
p214
sg21
F0.40109748125541955
sS'trials.thisTrialN'
p215
I11
sa(dp216
g31
g32
sg17
F47.302408336079679
sg24
I0
sg35
g39
sg14
F47.29758868686622
sg16
g36
(g70
S'\x01\x00\x00\x00'
tRp217
sg42
g43
sg46
g47
sg15
g125
sg22
F49.001918488822412
sg64
g149
sg62
g101
sg49
g50
sS'trials.thisN'
p218
I12
sg19
I1
sg27
g36
(g38
S'\x00\x00\x00\x00\x00\x00\x18@'
tRp219
sg52
g53
sg23
S'3'
sg18
F48.560236438468564
sg33
g34
sg51
g11
sg20
S'1'
sg65
g36
(g77
S'\x00\x00\x00\x00\x00\x00\x00\x00'
tRp220
sg44
g45
sg40
g41
sg25
F0.2307337707024999
sS'trials.thisIndex'
p221
g36
(g80
S'.\x00\x00\x00'
tRp222
sg26
V5
sS'trials.thisRepN'
p223
I0
sg66
Vlamp
p224
sg63
V../experiment_stimuli/bw_bc_bl/Nonliving_Things/Furniture/lamp_6.jpg
p225
sg21
F0.42113661533221602
sS'trials.thisTrialN'
p226
I12
sa(dp227
g31
g32
sg17
F50.970492258260492
sg24
I1
sg35
g39
sg14
F50.965560437762178
sg16
g36
(g70
S'\x01\x00\x00\x00'
tRp228
sg42
g43
sg46
g47
sg15
g125
sg22
F52.860387590597384
sg64
VKitchen_Uten
p229
sg62
g101
sg49
g50
sS'trials.thisN'
p230
I13
sg19
I1
sg27
g36
(g38
S'\x00\x00\x00\x00\x00\x00\x18@'
tRp231
sg52
g53
sg23
S'1'
sg18
F52.208167450153269
sg33
g34
sg51
g11
sg20
S'1'
sg65
g36
(g77
S'\x00\x00\x00\x00\x00\x00\x00\x00'
tRp232
sg44
g45
sg40
g41
sg25
F0.39106106857070699
sS'trials.thisIndex'
p233
g36
(g80
S'\x16\x00\x00\x00'
tRp234
sg26
V5
sS'trials.thisRepN'
p235
I0
sg66
Vcup
p236
sg63
V../experiment_stimuli/bw_bc_bl/Nonliving_Things/Kitchen_Uten/cup_17.jpg
p237
sg21
F0.63166942720999941
sS'trials.thisTrialN'
p238
I13
sa(dp239
g31
g32
sg17
F54.989224004675634
sg24
I0
sg35
g39
sg14
F54.984302533790469
sg16
g36
(g70
S'\x02\x00\x00\x00'
tRp240
sg42
g43
sg46
g47
sg15
g72
sg22
F57.009359535528347
sg64
g149
sg62
g101
sg49
g50
sS'trials.thisN'
p241
I14
sg19
I1
sg27
g36
(g38
S'\x00\x00\x00\x00\x00\x00\x18@'
tRp242
sg52
g53
sg23
S'3'
sg18
F56.246962646080647
sg33
g34
sg51
g11
sg20
S'2'
sg65
g36
(g77
S'\x00\x00\x00\x00\x00\x00\x00\x00'
tRp243
sg44
g45
sg40
g41
sg25
F0.21069265529513359
sS'trials.thisIndex'
p244
g36
(g80
S'E\x00\x00\x00'
tRp245
sg26
V5
sS'trials.thisRepN'
p246
I0
sg66
Vrocking-chair
p247
sg63
V../experiment_stimuli/bw_bc_bl/Nonliving_Things/Furniture/rocking-chair_13.jpg
p248
sg21
F0.74183385702781379
sS'trials.thisTrialN'
p249
I14
sa(dp250
g31
g32
sg17
F58.957756639400031
sg24
I1
sg35
g39
sg14
F58.952930437459145
sg16
g36
(g70
S'\x02\x00\x00\x00'
tRp251
sg42
g43
sg46
g47
sg15
g72
sg22
F60.486887453822419
sg64
g194
sg62
g101
sg49
g50
sS'trials.thisN'
p252
I15
sg19
I0
sg27
g36
(g38
S'\x00\x00\x00\x00\x00\x00\x18@'
tRp253
sg52
g53
sg23
S'1'
sg18
F60.185515803925227
sg33
g34
sg51
g11
sg20
S'1'
sg65
g36
(g77
S'\x00\x00\x00\x00\x00\x00\x00\x00'
tRp254
sg44
g45
sg40
g41
sg25
F0.20065058500040323
sS'trials.thisIndex'
p255
g36
(g80
S'\x1c\x00\x00\x00'
tRp256
sg26
V5
sS'trials.thisRepN'
p257
I0
sg66
Vfactory
p258
sg63
V../experiment_stimuli/bw_bc_bl/Nonliving_Things/Buildings/factory_6.jpg
p259
sg21
F0.28083383123157546
sS'trials.thisTrialN'
p260
I15
sa(dp261
g31
g32
sg17
F62.425327136414126
sg24
I1
sg35
g39
sg14
F62.420466450217646
sg16
g36
(g70
S'\x01\x00\x00\x00'
tRp262
sg42
g43
sg46
g47
sg15
g125
sg22
F64.094745705078822
sg64
g149
sg62
g101
sg49
g50
sS'trials.thisN'
p263
I16
sg19
I0
sg27
g36
(g38
S'\x00\x00\x00\x00\x00\x00\x18@'
tRp264
sg52
g53
sg23
S'1'
sg18
F63.683121084934101
sg33
g34
sg51
g11
sg20
S'2'
sg65
g36
(g77
S'\x00\x00\x00\x00\x00\x00\x00\x00'
tRp265
sg44
g45
sg40
g41
sg25
F0.16061103815445676
sS'trials.thisIndex'
p266
g36
(g80
S'\x05\x00\x00\x00'
tRp267
sg26
V5
sS'trials.thisRepN'
p268
I0
sg66
Vbed
p269
sg63
V../experiment_stimuli/bw_bc_bl/Nonliving_Things/Furniture/bed_4.jpg
p270
sg21
F0.39108038053382188
sS'trials.thisTrialN'
p271
I16
sa(dp272
g31
g32
sg17
F65.993769530730788
sg24
I1
sg35
g39
sg14
F65.988223756547086
sg16
g36
(g70
S'\x02\x00\x00\x00'
tRp273
sg42
g43
sg46
g47
sg15
g125
sg22
F67.552266458806116
sg64
g88
sg62
g74
sg49
g50
sS'trials.thisN'
p274
I17
sg19
I1
sg27
g36
(g38
S'\x00\x00\x00\x00\x00\x00\x18@'
tRp275
sg52
g53
sg23
S'1'
sg18
F67.280925919825677
sg33
g34
sg51
g11
sg20
S'2'
sg65
g36
(g77
S'\x00\x00\x00\x00\x00\x00\x00\x00'
tRp276
sg44
g45
sg40
g41
sg25
F0.16061320353765041
sS'trials.thisIndex'
p277
g36
(g80
S'C\x00\x00\x00'
tRp278
sg26
V5
sS'trials.thisRepN'
p279
I0
sg66
Vraven
p280
sg63
V../experiment_stimuli/bw_bc_bl/Living_Things/Birds/raven_9.jpg
p281
sg21
F0.25076758151408285
sS'trials.thisTrialN'
p282
I17
sa(dp283
g31
g32
sg17
F69.451302844623569
sg24
I0
sg35
g39
sg14
F69.445735679764766
sg16
g36
(g70
S'\x01\x00\x00\x00'
tRp284
sg42
g43
sg46
g47
sg15
g125
sg22
F71.400453177571762
sg64
g206
sg62
g101
sg49
g50
sS'trials.thisN'
p285
I18
sg19
I1
sg27
g36
(g38
S'\x00\x00\x00\x00\x00\x00\x1a@'
tRp286
sg52
g53
sg23
S'3'
sg18
F70.758489912783261
sg33
g34
sg51
g11
sg20
S'1'
sg65
g36
(g77
S'\x00\x00\x00\x00\x00\x00\x00\x00'
tRp287
sg44
g45
sg40
g41
sg25
F0.21068275714060292
sS'trials.thisIndex'
p288
g36
(g80
S'[\x00\x00\x00'
tRp289
sg26
V5
sS'trials.thisRepN'
p290
I0
sg66
Vvan
p291
sg63
V../experiment_stimuli/bw_bc_bl/Nonliving_Things/Vehicles/van_11.jpg
p292
sg21
F0.62141861557029188
sS'trials.thisTrialN'
p293
I18
sa(dp294
g31
g32
sg17
F73.349083142762538
sg24
I0
sg35
g39
sg14
F73.344210486800876
sg16
g36
(g70
S'\x02\x00\x00\x00'
tRp295
sg42
g43
sg46
g47
sg15
g125
sg22
F75.329160739551298
sg64
g73
sg62
g74
sg49
g50
sS'trials.thisN'
p296
I19
sg19
I0
sg27
g36
(g38
S'\x00\x00\x00\x00\x00\x00\x18@'
tRp297
sg52
g53
sg23
S'2'
sg18
F74.636917898082174
sg33
g34
sg51
g11
sg20
S'1'
sg65
g36
(g77
S'\x00\x00\x00\x00\x00\x00\x00\x00'
tRp298
sg44
g45
sg40
g41
sg25
F0.22069689945783466
sS'trials.thisIndex'
p299
g36
(g80
S'A\x00\x00\x00'
tRp300
sg26
V5
sS'trials.thisRepN'
p301
I0
sg66
Vpomfret
p302
sg63
V../experiment_stimuli/bw_bc_bl/Living_Things/Marine_creatures/pomfret_19.jpg
p303
sg21
F0.67168035794747993
sS'trials.thisTrialN'
p304
I19
sa(dp305
g31
g32
sg17
F77.28837371111149
sg24
I0
sg35
g39
sg14
F77.282764309842605
sg16
g36
(g70
S'\x02\x00\x00\x00'
tRp306
sg42
g43
sg46
g47
sg15
g125
sg22
F79.317855566681828
sg64
g137
sg62
g74
sg49
g50
sS'trials.thisN'
p307
I20
sg19
I0
sg27
g36
(g38
S'\x00\x00\x00\x00\x00\x00\x18@'
tRp308
sg52
g53
sg23
S'2'
sg18
F78.565456932235975
sg33
g34
sg51
g11
sg20
S'1'
sg65
g36
(g77
S'\x00\x00\x00\x00\x00\x00\x00\x00'
tRp309
sg44
g45
sg40
g41
sg25
F0.15054821985540912
sS'trials.thisIndex'
p310
g36
(g80
S'T\x00\x00\x00'
tRp311
sg26
V5
sS'trials.thisRepN'
p312
I0
sg66
Vtiger
p313
sg63
V../experiment_stimuli/bw_bc_bl/Living_Things/Animals/tiger_16.jpg
p314
sg21
F0.73181562055833638
sS'trials.thisTrialN'
p315
I20
sa(dp316
g31
g32
sg17
F81.207516695838422
sg24
I0
sg35
g39
sg14
F81.201290502853226
sg16
g36
(g70
S'\x01\x00\x00\x00'
tRp317
sg42
g43
sg46
g47
sg15
g125
sg22
F82.945717903436162
sg64
g149
sg62
g101
sg49
g50
sS'trials.thisN'
p318
I21
sg19
I1
sg27
g36
(g38
S'\x00\x00\x00\x00\x00\x00\x18@'
tRp319
sg52
g53
sg23
S'3'
sg18
F82.47395132901147
sg33
g34
sg51
g11
sg20
S'1'
sg65
g36
(g77
S'\x00\x00\x00\x00\x00\x00\x00\x00'
tRp320
sg44
g45
sg40
g41
sg25
F0.23071339115267619
sS'trials.thisIndex'
p321
g36
(g80
S']\x00\x00\x00'
tRp322
sg26
V5
sS'trials.thisRepN'
p323
I0
sg66
Vwardrobe
p324
sg63
V../experiment_stimuli/bw_bc_bl/Nonliving_Things/Furniture/wardrobe_23.jpg
p325
sg21
F0.45122083107708022
sS'trials.thisTrialN'
p326
I21
sa(dp327
g31
g32
sg17
F84.914954550622497
sg24
I1
sg35
g39
sg14
F84.909348769811913
sg16
g36
(g70
S'\x01\x00\x00\x00'
tRp328
sg42
g43
sg46
g47
sg15
g72
sg22
F86.834167034481652
sg64
g137
sg62
g74
sg49
g50
sS'trials.thisN'
p329
I22
sg19
I0
sg27
g36
(g38
S'\x00\x00\x00\x00\x00\x00 @'
tRp330
sg52
g53
sg23
S'1'
sg18
F86.161966488522012
sg33
g34
sg51
g11
sg20
S'2'
sg65
g36
(g77
S'\x00\x00\x00\x00\x00\x00\x00\x00'
tRp331
sg44
g45
sg40
g41
sg25
F0.20065110019640997
sS'trials.thisIndex'
p332
g36
(g80
S"'\x00\x00\x00"
tRp333
sg26
V5
sS'trials.thisRepN'
p334
I0
sg66
Vhippopotamus
p335
sg63
V../experiment_stimuli/bw_bc_bl/Living_Things/Animals/hippopotamus_7.jpg
p336
sg21
F0.65163788560312241
sS'trials.thisTrialN'
p337
I22
sa(dp338
g31
g32
sg17
F88.772578431409784
sg24
I0
sg35
g39
sg14
F88.767732218664605
sg16
g36
(g70
S'\x01\x00\x00\x00'
tRp339
sg42
g43
sg46
g47
sg15
g72
sg22
F90.973163498216309
sg64
g88
sg62
g74
sg49
g50
sS'trials.thisN'
p340
I23
sg19
I1
sg27
g36
(g38
S'\x00\x00\x00\x00\x00\x00\x1e@'
tRp341
sg52
g53
sg23
S'2'
sg18
F90.050422333762981
sg33
g34
sg51
g11
sg20
S'1'
sg65
g36
(g77
S'\x00\x00\x00\x00\x00\x00\x00\x00'
tRp342
sg44
g45
sg40
g41
sg25
F0.26080843416275457
sS'trials.thisIndex'
p343
g36
(g80
S'&\x00\x00\x00'
tRp344
sg26
V5
sS'trials.thisRepN'
p345
I0
sg66
Vhen
p346
sg63
V../experiment_stimuli/bw_bc_bl/Living_Things/Birds/hen_0.jpg
p347
sg21
F0.90218025591457263
sS'trials.thisTrialN'
p348
I23
sa(dp349
g31
g32
sg17
F92.971798017970286
sg24
I0
sg35
g39
sg14
F92.966863659676164
sg16
g36
(g70
S'\x01\x00\x00\x00'
tRp350
sg42
g43
sg46
g47
sg15
g125
sg22
F94.881692653871141
sg64
g194
sg62
g101
sg49
g50
sS'trials.thisN'
p351
I24
sg19
I1
sg27
g36
(g38
S'\x00\x00\x00\x00\x00\x00\x18@'
tRp352
sg52
g53
sg23
S'2'
sg18
F94.239525805576704
sg33
g34
sg51
g11
sg20
S'1'
sg65
g36
(g77
S'\x00\x00\x00\x00\x00\x00\x00\x00'
tRp353
sg44
g45
sg40
g41
sg25
F0.40111040585907176
sS'trials.thisIndex'
p354
g36
(g80
S'5\x00\x00\x00'
tRp355
sg26
V5
sS'trials.thisRepN'
p356
I0
sg66
Vmill
p357
sg63
V../experiment_stimuli/bw_bc_bl/Nonliving_Things/Buildings/mill_7.jpg
p358
sg21
F0.62157993263099343
sS'trials.thisTrialN'
p359
I24
sa(dp360
g31
g32
sg17
F97.020853450405411
sg24
I0
sg35
g39
sg14
F97.01566106575774
sg16
g36
(g70
S'\x02\x00\x00\x00'
tRp361
sg42
g43
sg46
g47
sg15
g125
sg22
F98.990625097067095
sg64
g73
sg62
g74
sg49
g50
sS'trials.thisN'
p362
I25
sg19
I1
sg27
g36
(g38
S'\x00\x00\x00\x00\x00\x00\x1a@'
tRp363
sg52
g53
sg23
S'3'
sg18
F98.278307798667811
sg33
g34
sg51
g11
sg20
S'2'
sg65
g36
(g77
S'\x00\x00\x00\x00\x00\x00\x00\x00'
tRp364
sg44
g45
sg40
g41
sg25
F0.18061170302098617
sS'trials.thisIndex'
p365
g36
(g80
S'1\x00\x00\x00'
tRp366
sg26
V5
sS'trials.thisRepN'
p367
I0
sg66
Vlobster
p368
sg63
V../experiment_stimuli/bw_bc_bl/Living_Things/Marine_creatures/lobster_2.jpg
p369
sg21
F0.69176110794069245
sS'trials.thisTrialN'
p370
I25
sa(dp371
g31
g32
sg17
F100.91058516816702
sg24
I1
sg35
g39
sg14
F100.90411588089773
sg16
g36
(g70
S'\x02\x00\x00\x00'
tRp372
sg42
g43
sg46
g47
sg15
g125
sg22
F103.00917034235317
sg64
g88
sg62
g74
sg49
g50
sS'trials.thisN'
p373
I26
sg19
I1
sg27
g36
(g38
S'\x00\x00\x00\x00\x00\x00\x18@'
tRp374
sg52
g53
sg23
S'1'
sg18
F102.14672082179459
sg33
g34
sg51
g11
sg20
S'2'
sg65
g36
(g77
S'\x00\x00\x00\x00\x00\x00\x00\x00'
tRp375
sg44
g45
sg40
g41
sg25
F0.18060130078811198
sS'trials.thisIndex'
p376
g36
(g80
S';\x00\x00\x00'
tRp377
sg26
V5
sS'trials.thisRepN'
p378
I0
sg66
Vpartridge
p379
sg63
V../experiment_stimuli/bw_bc_bl/Living_Things/Birds/partridge_20.jpg
p380
sg21
F0.83187941345386207
sS'trials.thisTrialN'
p381
I26
sa(dp382
g31
g32
sg17
F104.92771806527162
sg24
I1
sg35
g39
sg14
F104.92285505577456
sg16
g36
(g70
S'\x02\x00\x00\x00'
tRp383
sg42
g43
sg46
g47
sg15
g125
sg22
F106.68729587295093
sg64
g137
sg62
g74
sg49
g50
sS'trials.thisN'
p384
I27
sg19
I1
sg27
g36
(g38
S'\x00\x00\x00\x00\x00\x00 @'
tRp385
sg52
g53
sg23
S'1'
sg18
F106.17546713544289
sg33
g34
sg51
g11
sg20
S'2'
sg65
g36
(g77
S'\x00\x00\x00\x00\x00\x00\x00\x00'
tRp386
sg44
g45
sg40
g41
sg25
F0.17058920749695972
sS'trials.thisIndex'
p387
g36
(g80
S'Z\x00\x00\x00'
tRp388
sg26
V5
sS'trials.thisRepN'
p389
I0
sg66
Vturtle
p390
sg63
V../experiment_stimuli/bw_bc_bl/Living_Things/Animals/turtle_12.jpg
p391
sg21
F0.49128788884263486
sS'trials.thisTrialN'
p392
I27
sa(dp393
g31
g32
sg17
F108.59562146017561
sg24
I0
sg35
g39
sg14
F108.5908228145563
sg16
g36
(g70
S'\x02\x00\x00\x00'
tRp394
sg42
g43
sg46
g47
sg15
g72
sg22
F110.45550603035372
sg64
g194
sg62
g101
sg49
g50
sS'trials.thisN'
p395
I28
sg19
I0
sg27
g36
(g38
S'\x00\x00\x00\x00\x00\x00\x18@'
tRp396
sg52
g53
sg23
S'2'
sg18
F109.87351162103005
sg33
g34
sg51
g11
sg20
S'1'
sg65
g36
(g77
S'\x00\x00\x00\x00\x00\x00\x00\x00'
tRp397
sg44
g45
sg40
g41
sg25
F0.15059045236557722
sS'trials.thisIndex'
p398
g36
(g80
S'\x0c\x00\x00\x00'
tRp399
sg26
V5
sS'trials.thisRepN'
p400
I0
sg66
Vcastle
p401
sg63
V../experiment_stimuli/bw_bc_bl/Nonliving_Things/Buildings/castle_9.jpg
p402
sg21
F0.56144050066359341
sS'trials.thisTrialN'
p403
I28
sa(dp404
g31
g32
sg17
F112.34387083217734
sg24
I0
sg35
g39
sg14
F112.33897500357125
sg16
g36
(g70
S'\x02\x00\x00\x00'
tRp405
sg42
g43
sg46
g47
sg15
g125
sg22
F114.16356518096291
sg64
g88
sg62
g74
sg49
g50
sS'trials.thisN'
p406
I29
sg19
I1
sg27
g36
(g38
S'\x00\x00\x00\x00\x00\x00 @'
tRp407
sg52
g53
sg23
S'2'
sg18
F113.611632446351
sg33
g34
sg51
g11
sg20
S'2'
sg65
g36
(g77
S'\x00\x00\x00\x00\x00\x00\x00\x00'
tRp408
sg44
g45
sg40
g41
sg25
F0.441178880748339
sS'trials.thisIndex'
p409
g36
(g80
S',\x00\x00\x00'
tRp410
sg26
V5
sS'trials.thisRepN'
p411
I0
sg66
Vkiwi
p412
sg63
V../experiment_stimuli/bw_bc_bl/Living_Things/Birds/kiwi_14.jpg
p413
sg21
F0.53137724701082334
sS'trials.thisTrialN'
p414
I29
sa(dp415
g31
g32
sg17
F116.34357775724493
sg24
I1
sg35
g39
sg14
F116.33766633778578
sg16
g36
(g70
S'\x02\x00\x00\x00'
tRp416
sg42
g43
sg46
g47
sg15
g72
sg22
F118.27251727436669
sg64
g149
sg62
g101
sg49
g50
sS'trials.thisN'
p417
I30
sg19
I1
sg27
g36
(g38
S'\x00\x00\x00\x00\x00\x00\x18@'
tRp418
sg52
g53
sg23
S'1'
sg18
F117.60031651036115
sg33
g34
sg51
g11
sg20
S'2'
sg65
g36
(g77
S'\x00\x00\x00\x00\x00\x00\x00\x00'
tRp419
sg44
g45
sg40
g41
sg25
F0.62157811672659591
sS'trials.thisIndex'
p420
g36
(g80
S'\x0f\x00\x00\x00'
tRp421
sg26
V5
sS'trials.thisRepN'
p422
I0
sg66
Vchair
p423
sg63
V../experiment_stimuli/bw_bc_bl/Nonliving_Things/Furniture/chair_25.jpg
p424
sg21
F0.65166502806823701
sS'trials.thisTrialN'
p425
I30
sa(dp426
g31
g32
sg17
F120.632018155884
sg24
I0
sg35
g39
sg14
F120.62699757365044
sg16
g36
(g70
S'\x02\x00\x00\x00'
tRp427
sg42
g43
sg46
g47
sg15
g72
sg22
F122.50169581139926
sg64
g206
sg62
g101
sg49
g50
sS'trials.thisN'
p428
I31
sg19
I1
sg27
g36
(g38
S'\x00\x00\x00\x00\x00\x00\x1a@'
tRp429
sg52
g53
sg23
S'3'
sg18
F121.90967125247698
sg33
g34
sg51
g11
sg20
S'2'
sg65
g36
(g77
S'\x00\x00\x00\x00\x00\x00\x00\x00'
tRp430
sg44
g45
sg40
g41
sg25
F0.23073523689527065
sS'trials.thisIndex'
p431
g36
(g80
S'6\x00\x00\x00'
tRp432
sg26
V5
sS'trials.thisRepN'
p433
I0
sg66
Vmotorbike
p434
sg63
V../experiment_stimuli/bw_bc_bl/Nonliving_Things/Vehicles/motorbike_9.jpg
p435
sg21
F0.57146319921594113
sS'trials.thisTrialN'
p436
I31
sa(dp437
g31
g32
sg17
F124.47016568045365
sg24
I0
sg35
g39
sg14
F124.46533190720947
sg16
g36
(g70
S'\x02\x00\x00\x00'
tRp438
sg42
g43
sg46
g47
sg15
g72
sg22
F126.17967939667869
sg64
g206
sg62
g101
sg49
g50
sS'trials.thisN'
p439
I32
sg19
I1
sg27
g36
(g38
S'\x00\x00\x00\x00\x00\x00\x1a@'
tRp440
sg52
g53
sg23
S'3'
sg18
F125.71794856572524
sg33
g34
sg51
g11
sg20
S'2'
sg65
g36
(g77
S'\x00\x00\x00\x00\x00\x00\x00\x00'
tRp441
sg44
g45
sg40
g41
sg25
F0.26078383665299043
sS'trials.thisIndex'
p442
g36
(g80
S'\x07\x00\x00\x00'
tRp443
sg26
V5
sS'trials.thisRepN'
p444
I0
sg66
Vboat
p445
sg63
V../experiment_stimuli/bw_bc_bl/Nonliving_Things/Vehicles/boat_24.jpg
p446
sg21
F0.44118040736066177
sS'trials.thisTrialN'
p447
I32
sa(dp448
g31
g32
sg17
F128.17932581884088
sg24
I1
sg35
g39
sg14
F128.17339083971456
sg16
g36
(g70
S'\x02\x00\x00\x00'
tRp449
sg42
g43
sg46
g47
sg15
g72
sg22
F129.71748377109179
sg64
g100
sg62
g101
sg49
g50
sS'trials.thisN'
p450
I33
sg19
I1
sg27
g36
(g38
S'\x00\x00\x00\x00\x00\x00\x18@'
tRp451
sg52
g53
sg23
S'1'
sg18
F129.40596454474144
sg33
g34
sg51
g11
sg20
S'2'
sg65
g36
(g77
S'\x00\x00\x00\x00\x00\x00\x00\x00'
tRp452
sg44
g45
sg40
g41
sg25
F0.19067621655995026
sS'trials.thisIndex'
p453
g36
(g80
S'H\x00\x00\x00'
tRp454
sg26
V5
sS'trials.thisRepN'
p455
I0
sg66
Vsaxophone
p456
sg63
V../experiment_stimuli/bw_bc_bl/Nonliving_Things/Musical_Inst/saxophone_26.jpg
p457
sg21
F0.29095833323663101
sS'trials.thisTrialN'
p458
I33
sa(dp459
g31
g32
sg17
F131.64585574070225
sg24
I1
sg35
g39
sg14
F131.64092555531533
sg16
g36
(g70
S'\x02\x00\x00\x00'
tRp460
sg42
g43
sg46
g47
sg15
g125
sg22
F132.97445478045847
sg64
g73
sg62
g74
sg49
g50
sS'trials.thisN'
p461
I34
sg19
I1
sg27
g36
(g38
S'\x00\x00\x00\x00\x00\x00\x1e@'
tRp462
sg52
g53
sg23
S'1'
sg18
F132.89354612358147
sg33
g34
sg51
g11
sg20
S'2'
sg65
g36
(g77
S'\x00\x00\x00\x00\x00\x00\x00\x00'
tRp463
sg44
g45
sg40
g41
sg25
F0.21067920833593234
sS'trials.thisIndex'
p464
g36
(g80
S'7\x00\x00\x00'
tRp465
sg26
V5
sS'trials.thisRepN'
p466
I0
sg66
Vnarwhal
p467
sg63
V../experiment_stimuli/bw_bc_bl/Living_Things/Marine_creatures/narwhal_14.jpg
p468
sg21
F0.060358522634487599
sS'trials.thisTrialN'
p469
I34
sa(dp470
g31
g32
sg17
F134.92392814322375
sg24
I0
sg35
g39
sg14
F134.91804423101712
sg16
g36
(g70
S'\x02\x00\x00\x00'
tRp471
sg42
g43
sg46
g47
sg15
g125
sg22
F137.48426621960243
sg64
g88
sg62
g74
sg49
g50
sS'trials.thisN'
p472
I35
sg19
I0
sg27
g36
(g38
S'\x00\x00\x00\x00\x00\x00\x18@'
tRp473
sg52
g53
sg23
S'2'
sg18
F136.20074211288011
sg33
g34
sg51
g11
sg20
S'1'
sg65
g36
(g77
S'\x00\x00\x00\x00\x00\x00\x00\x00'
tRp474
sg44
g45
sg40
g41
sg25
F0.98235151771223173
sS'trials.thisIndex'
p475
g36
(g80
S'9\x00\x00\x00'
tRp476
sg26
V5
sS'trials.thisRepN'
p477
I0
sg66
Vowl
p478
sg63
V../experiment_stimuli/bw_bc_bl/Living_Things/Birds/owl_23.jpg
p479
sg21
F1.2629775925306603
sS'trials.thisTrialN'
p480
I35
sa(dp481
g31
g32
sg17
F140.20443713123677
sg24
I0
sg35
g39
sg14
F140.19953125016764
sg16
g36
(g70
S'\x02\x00\x00\x00'
tRp482
sg42
g43
sg46
g47
sg15
g125
sg22
F142.37487924983725
sg64
g137
sg62
g74
sg49
g50
sS'trials.thisN'
p483
I36
sg19
I1
sg27
g36
(g38
S'\x00\x00\x00\x00\x00\x00\x1a@'
tRp484
sg52
g53
sg23
S'2'
sg18
F141.47219562518876
sg33
g34
sg51
g11
sg20
S'2'
sg65
g36
(g77
S'\x00\x00\x00\x00\x00\x00\x00\x00'
tRp485
sg44
g45
sg40
g41
sg25
F0.50130400492344052
sS'trials.thisIndex'
p486
g36
(g80
S'_\x00\x00\x00'
tRp487
sg26
V5
sS'trials.thisRepN'
p488
I0
sg66
Vzebra
p489
sg63
V../experiment_stimuli/bw_bc_bl/Living_Things/Animals/zebra_3.jpg
p490
sg21
F0.88214378379052505
sS'trials.thisTrialN'
p491
I36
sa(dp492
g31
g32
sg17
F144.6150442615035
sg24
I0
sg35
g39
sg14
F144.60911426367238
sg16
g36
(g70
S'\x01\x00\x00\x00'
tRp493
sg42
g43
sg46
g47
sg15
g72
sg22
F146.83460219186964
sg64
g113
sg62
g74
sg49
g50
sS'trials.thisN'
p494
I37
sg19
I1
sg27
g36
(g38
S'\x00\x00\x00\x00\x00\x00\x18@'
tRp495
sg52
g53
sg23
S'2'
sg18
F145.8717610038002
sg33
g34
sg51
g11
sg20
S'1'
sg65
g36
(g77
S'\x00\x00\x00\x00\x00\x00\x00\x00'
tRp496
sg44
g45
sg40
g41
sg25
F0.2607837273972109
sS'trials.thisIndex'
p497
g36
(g80
S'I\x00\x00\x00'
tRp498
sg26
V5
sS'trials.thisRepN'
p499
I0
sg66
Vscorpion
p500
sg63
V../experiment_stimuli/bw_bc_bl/Living_Things/Insects/scorpion_22.jpg
p501
sg21
F0.94227626064093783
sS'trials.thisTrialN'
p502
I37
sa(dp503
g31
g32
sg17
F148.83318091544788
sg24
I0
sg35
g39
sg14
F148.82828485738719
sg16
g36
(g70
S'\x01\x00\x00\x00'
tRp504
sg42
g43
sg46
g47
sg15
g72
sg22
F150.58275880222209
sg64
g137
sg62
g74
sg49
g50
sS'trials.thisN'
p505
I38
sg19
I1
sg27
g36
(g38
S'\x00\x00\x00\x00\x00\x00\x18@'
tRp506
sg52
g53
sg23
S'3'
sg18
F150.08091227518162
sg33
g34
sg51
g11
sg20
S'1'
sg65
g36
(g77
S'\x00\x00\x00\x00\x00\x00\x00\x00'
tRp507
sg44
g45
sg40
g41
sg25
F0.21067316690459847
sS'trials.thisIndex'
p508
g36
(g80
S'D\x00\x00\x00'
tRp509
sg26
V5
sS'trials.thisRepN'
p510
I0
sg66
Vrhino
p511
sg63
V../experiment_stimuli/bw_bc_bl/Living_Things/Animals/rhino_11.jpg
p512
sg21
F0.48129600187530741
sS'trials.thisTrialN'
p513
I38
sa(dp514
g31
g32
sg17
F152.53128619713243
sg24
I0
sg35
g39
sg14
F152.52639179356629
sg16
g36
(g70
S'\x02\x00\x00\x00'
tRp515
sg42
g43
sg46
g47
sg15
g72
sg22
F154.19058197486447
sg64
g100
sg62
g101
sg49
g50
sS'trials.thisN'
p516
I39
sg19
I0
sg27
g36
(g38
S'\x00\x00\x00\x00\x00\x00\x18@'
tRp517
sg52
g53
sg23
S'2'
sg18
F153.75890209304634
sg33
g34
sg51
g11
sg20
S'1'
sg65
g36
(g77
S'\x00\x00\x00\x00\x00\x00\x00\x00'
tRp518
sg44
g45
sg40
g41
sg25
F0.04032988497056067
sS'trials.thisIndex'
p519
g36
(g80
S'>\x00\x00\x00'
tRp520
sg26
V5
sS'trials.thisRepN'
p521
I0
sg66
Vpiano
p522
sg63
V../experiment_stimuli/bw_bc_bl/Nonliving_Things/Musical_Inst/piano__17.jpg
p523
sg21
F0.41111636423738673
sS'trials.thisTrialN'
p524
I39
sa(dp525
g31
g32
sg17
F155.96865466446616
sg24
I1
sg35
g39
sg14
F155.96379098581383
sg16
g36
(g70
S'\x02\x00\x00\x00'
tRp526
sg42
g43
sg46
g47
sg15
g72
sg22
F157.53790261113318
sg64
g194
sg62
g101
sg49
g50
sS'trials.thisN'
p527
I40
sg19
I0
sg27
g36
(g38
S'\x00\x00\x00\x00\x00\x00\x1e@'
tRp528
sg52
g53
sg23
S'1'
sg18
F157.19638694578316
sg33
g34
sg51
g11
sg20
S'1'
sg65
g36
(g77
S'\x00\x00\x00\x00\x00\x00\x00\x00'
tRp529
sg44
g45
sg40
g41
sg25
F0.18060572171816602
sS'trials.thisIndex'
p530
g36
(g80
S':\x00\x00\x00'
tRp531
sg26
V5
sS'trials.thisRepN'
p532
I0
sg66
Vpalace
p533
sg63
V../experiment_stimuli/bw_bc_bl/Nonliving_Things/Buildings/palace_24.jpg
p534
sg21
F0.32095264765666798
sS'trials.thisTrialN'
p535
I40
sa(dp536
g31
g32
sg17
F159.45634890336078
sg24
I0
sg35
g39
sg14
F159.45138306828449
sg16
g36
(g70
S'\x01\x00\x00\x00'
tRp537
sg42
g43
sg46
g47
sg15
g72
sg22
F161.15571321966127
sg64
g88
sg62
g74
sg49
g50
sS'trials.thisN'
p538
I41
sg19
I1
sg27
g36
(g38
S'\x00\x00\x00\x00\x00\x00\x18@'
tRp539
sg52
g53
sg23
S'2'
sg18
F160.69399117055582
sg33
g34
sg51
g11
sg20
S'1'
sg65
g36
(g77
S'\x00\x00\x00\x00\x00\x00\x00\x00'
tRp540
sg44
g45
sg40
g41
sg25
F0.17059655289631337
sS'trials.thisIndex'
p541
g36
(g80
S'"\x00\x00\x00'
tRp542
sg26
V5
sS'trials.thisRepN'
p543
I0
sg66
Vgoose
p544
sg63
V../experiment_stimuli/bw_bc_bl/Living_Things/Birds/goose_21.jpg
p545
sg21
F0.44118619279470295
sS'trials.thisTrialN'
p546
I41
sa(dp547
g31
g32
sg17
F163.06404552137246
sg24
I1
sg35
g39
sg14
F163.05921640613815
sg16
g36
(g70
S'\x02\x00\x00\x00'
tRp548
sg42
g43
sg46
g47
sg15
g72
sg22
F164.5831882157363
sg64
g194
sg62
g101
sg49
g50
sS'trials.thisN'
p549
I42
sg19
I1
sg27
g36
(g38
S'\x00\x00\x00\x00\x00\x00\x18@'
tRp550
sg52
g53
sg23
S'1'
sg18
F164.29179925349308
sg33
g34
sg51
g11
sg20
S'2'
sg65
g36
(g77
S'\x00\x00\x00\x00\x00\x00\x00\x00'
tRp551
sg44
g45
sg40
g41
sg25
F0.16061606421135366
sS'trials.thisIndex'
p552
g36
(g80
S'\x0e\x00\x00\x00'
tRp553
sg26
V5
sS'trials.thisRepN'
p554
I0
sg66
Vcathedral
p555
sg63
V../experiment_stimuli/bw_bc_bl/Nonliving_Things/Buildings/cathedral_26.jpg
p556
sg21
F0.27083429059712216
sS'trials.thisTrialN'
p557
I42
sa(dp558
g31
g32
sg17
F166.48157167853788
sg24
I1
sg35
g39
sg14
F166.47665209486149
sg16
g36
(g70
S'\x01\x00\x00\x00'
tRp559
sg42
g43
sg46
g47
sg15
g72
sg22
F168.2310830024071
sg64
g73
sg62
g74
sg49
g50
sS'trials.thisN'
p560
I43
sg19
I1
sg27
g36
(g38
S'\x00\x00\x00\x00\x00\x00\x18@'
tRp561
sg52
g53
sg23
S'1'
sg18
F167.73929204558954
sg33
g34
sg51
g11
sg20
S'1'
sg65
g36
(g77
S'\x00\x00\x00\x00\x00\x00\x00\x00'
tRp562
sg44
g45
sg40
g41
sg25
F0.17059252317994833
sS'trials.thisIndex'
p563
g36
(g80
S'P\x00\x00\x00'
tRp564
sg26
V5
sS'trials.thisRepN'
p565
I0
sg66
Vsperm-whale
p566
sg63
V../experiment_stimuli/bw_bc_bl/Living_Things/Marine_creatures/sperm-whale_14.jpg
p567
sg21
F0.47125128854531795
sS'trials.thisTrialN'
p568
I43
sa(dp569
g31
g32
sg17
F170.14159711106913
sg24
I0
sg35
g39
sg14
F170.13460021879291
sg16
g36
(g70
S'\x02\x00\x00\x00'
tRp570
sg42
g43
sg46
g47
sg15
g125
sg22
F172.16966567112831
sg64
g88
sg62
g74
sg49
g50
sS'trials.thisN'
p571
I44
sg19
I1
sg27
g36
(g38
S'\x00\x00\x00\x00\x00\x00\x1c@'
tRp572
sg52
g53
sg23
S'2'
sg18
F171.41730308911065
sg33
g34
sg51
g11
sg20
S'2'
sg65
g36
(g77
S'\x00\x00\x00\x00\x00\x00\x00\x00'
tRp573
sg44
g45
sg40
g41
sg25
F0.15058723045513034
sS'trials.thisIndex'
p574
g36
(g80
S'?\x00\x00\x00'
tRp575
sg26
V5
sS'trials.thisRepN'
p576
I0
sg66
Vpigeon
p577
sg63
V../experiment_stimuli/bw_bc_bl/Living_Things/Birds/pigeon_20.jpg
p578
sg21
F0.73181444051442668
sS'trials.thisTrialN'
p579
I44
sa(dp580
g31
g32
sg17
F174.05800963111687
sg24
I0
sg35
g39
sg14
F174.05312135879649
sg16
g36
(g70
S'\x01\x00\x00\x00'
tRp581
sg42
g43
sg46
g47
sg15
g125
sg22
F176.07817040610826
sg64
g206
sg62
g101
sg49
g50
sS'trials.thisN'
p582
I45
sg19
I1
sg27
g36
(g38
S'\x00\x00\x00\x00\x00\x00\x18@'
tRp583
sg52
g53
sg23
S'3'
sg18
F175.32578322652262
sg33
g34
sg51
g11
sg20
S'1'
sg65
g36
(g77
S'\x00\x00\x00\x00\x00\x00\x00\x00'
tRp584
sg44
g45
sg40
g41
sg25
F0.14056025404715911
sS'trials.thisIndex'
p585
g36
(g80
S'W\x00\x00\x00'
tRp586
sg26
V5
sS'trials.thisRepN'
p587
I0
sg66
Vtrain
p588
sg63
V../experiment_stimuli/bw_bc_bl/Nonliving_Things/Vehicles/train_7.jpg
p589
sg21
F0.73183051910018548
sS'trials.thisTrialN'
p590
I45
sa(dp591
g31
g32
sg17
F177.95648639299907
sg24
I0
sg35
g39
sg14
F177.95159147056984
sg16
g36
(g70
S'\x01\x00\x00\x00'
tRp592
sg42
g43
sg46
g47
sg15
g72
sg22
F179.45548621827038
sg64
g113
sg62
g74
sg49
g50
sS'trials.thisN'
p593
I46
sg19
I0
sg27
g36
(g38
S'\x00\x00\x00\x00\x00\x00\x18@'
tRp594
sg52
g53
sg23
S'2'
sg18
F179.19419764453778
sg33
g34
sg51
g11
sg20
S'2'
sg65
g36
(g77
S'\x00\x00\x00\x00\x00\x00\x00\x00'
tRp595
sg44
g45
sg40
g41
sg25
F0.23072226322256029
sS'trials.thisIndex'
p596
g36
(g80
S'\n\x00\x00\x00'
tRp597
sg26
V5
sS'trials.thisRepN'
p598
I0
sg66
Vbutterfly
p599
sg63
V../experiment_stimuli/bw_bc_bl/Living_Things/Insects/butterfly_8.jpg
p600
sg21
F0.24074833048507571
sS'trials.thisTrialN'
p601
I46
sa(dp602
g31
g32
sg17
F181.42402942816261
sg24
I1
sg35
g39
sg14
F181.41912599070929
sg16
g36
(g70
S'\x01\x00\x00\x00'
tRp603
sg42
g43
sg46
g47
sg15
g72
sg22
F183.00324555538828
sg64
g88
sg62
g74
sg49
g50
sS'trials.thisN'
p604
I47
sg19
I0
sg27
g36
(g38
S'\x00\x00\x00\x00\x00\x00\x18@'
tRp605
sg52
g53
sg23
S'1'
sg18
F182.65171263139928
sg33
g34
sg51
g11
sg20
S'2'
sg65
g36
(g77
S'\x00\x00\x00\x00\x00\x00\x00\x00'
tRp606
sg44
g45
sg40
g41
sg25
F0.15054941142443568
sS'trials.thisIndex'
p607
g36
(g80
S'=\x00\x00\x00'
tRp608
sg26
V5
sS'trials.thisRepN'
p609
I0
sg66
Vpenguin
p610
sg63
V../experiment_stimuli/bw_bc_bl/Living_Things/Birds/penguin_2.jpg
p611
sg21
F0.33094410609919578
sS'trials.thisTrialN'
p612
I47
sa(dp613
g31
g32
sg17
F184.89154655003222
sg24
I0
sg35
g39
sg14
F184.88666474737693
sg16
g36
(g70
S'\x01\x00\x00\x00'
tRp614
sg42
g43
sg46
g47
sg15
g125
sg22
F186.70123024878558
sg64
g229
sg62
g101
sg49
g50
sS'trials.thisN'
p615
I48
sg19
I1
sg27
g36
(g38
S'\x00\x00\x00\x00\x00\x00\x1a@'
tRp616
sg52
g53
sg23
S'3'
sg18
F186.14931511541363
sg33
g34
sg51
g11
sg20
S'1'
sg65
g36
(g77
S'\x00\x00\x00\x00\x00\x00\x00\x00'
tRp617
sg44
g45
sg40
g41
sg25
F0.19062882236903533
sS'trials.thisIndex'
p618
g36
(g80
S'\x1f\x00\x00\x00'
tRp619
sg26
V5
sS'trials.thisRepN'
p620
I0
sg66
Vfrying-pan
p621
sg63
V../experiment_stimuli/bw_bc_bl/Nonliving_Things/Kitchen_Uten/frying-pan_0.jpg
p622
sg21
F0.5313775212271139
sS'trials.thisTrialN'
p623
I48
sa(dp624
g31
g32
sg17
F188.62974267505342
sg24
I0
sg35
g39
sg14
F188.62479547876865
sg16
g36
(g70
S'\x02\x00\x00\x00'
tRp625
sg42
g43
sg46
g47
sg15
g72
sg22
F190.45941438828595
sg64
g149
sg62
g101
sg49
g50
sS'trials.thisN'
p626
I49
sg19
I0
sg27
g36
(g38
S'\x00\x00\x00\x00\x00\x00\x18@'
tRp627
sg52
g53
sg23
S'2'
sg18
F189.8674001264153
sg33
g34
sg51
g11
sg20
S'1'
sg65
g36
(g77
S'\x00\x00\x00\x00\x00\x00\x00\x00'
tRp628
sg44
g45
sg40
g41
sg25
F0.2106802158523351
sS'trials.thisIndex'
p629
g36
(g80
S'\x1d\x00\x00\x00'
tRp630
sg26
V5
sS'trials.thisRepN'
p631
I0
sg66
Vfilling-cabinet
p632
sg63
V../experiment_stimuli/bw_bc_bl/Nonliving_Things/Furniture/filling-cabinet_11.jpg
p633
sg21
F0.57147418044041842
sS'trials.thisTrialN'
p634
I49
sa(dp635
g31
g32
sg17
F192.40785670559853
sg24
I1
sg35
g39
sg14
F192.40300107590156
sg16
g36
(g70
S'\x02\x00\x00\x00'
tRp636
sg42
g43
sg46
g47
sg15
g72
sg22
F193.92696247209096
sg64
g100
sg62
g101
sg49
g50
sS'trials.thisN'
p637
I50
sg19
I1
sg27
g36
(g38
S'\x00\x00\x00\x00\x00\x00\x18@'
tRp638
sg52
g53
sg23
S'1'
sg18
F193.63558634824585
sg33
g34
sg51
g11
sg20
S'2'
sg65
g36
(g77
S'\x00\x00\x00\x00\x00\x00\x00\x00'
tRp639
sg44
g45
sg40
g41
sg25
F0.16061723715392873
sS'trials.thisIndex'
p640
g36
(g80
S'$\x00\x00\x00'
tRp641
sg26
V5
sS'trials.thisRepN'
p642
I0
sg66
Vguitar
p643
sg63
V../experiment_stimuli/bw_bc_bl/Nonliving_Things/Musical_Inst/guitar_6.jpg
p644
sg21
F0.27081492211436853
sS'trials.thisTrialN'
p645
I50
sa(dp646
g31
g32
sg17
F195.82531617238419
sg24
I0
sg35
g39
sg14
F195.82043741876259
sg16
g36
(g70
S'\x02\x00\x00\x00'
tRp647
sg42
g43
sg46
g47
sg15
g72
sg22
F197.70516339258756
sg64
g229
sg62
g101
sg49
g50
sS'trials.thisN'
p648
I51
sg19
I1
sg27
g36
(g38
S'\x00\x00\x00\x00\x00\x00\x1c@'
tRp649
sg52
g53
sg23
S'2'
sg18
F197.08308429812314
sg33
g34
sg51
g11
sg20
S'2'
sg65
g36
(g77
S'\x00\x00\x00\x00\x00\x00\x00\x00'
tRp650
sg44
g45
sg40
g41
sg25
F0.20065667515154928
sS'trials.thisIndex'
p651
g36
(g80
S'\x1e\x00\x00\x00'
tRp652
sg26
V5
sS'trials.thisRepN'
p653
I0
sg66
Vfondue
p654
sg63
V../experiment_stimuli/bw_bc_bl/Nonliving_Things/Kitchen_Uten/fondue_5.jpg
p655
sg21
F0.60153227235423401
sS'trials.thisTrialN'
p656
I51
sa(dp657
g31
g32
sg17
F199.64359395502834
sg24
I1
sg35
g39
sg14
F199.6387371183373
sg16
g36
(g70
S'\x02\x00\x00\x00'
tRp658
sg42
g43
sg46
g47
sg15
g72
sg22
F201.22282249556156
sg64
g149
sg62
g101
sg49
g50
sS'trials.thisN'
p659
I52
sg19
I0
sg27
g36
(g38
S'\x00\x00\x00\x00\x00\x00\x18@'
tRp660
sg52
g53
sg23
S'1'
sg18
F200.8913571073208
sg33
g34
sg51
g11
sg20
S'1'
sg65
g36
(g77
S'\x00\x00\x00\x00\x00\x00\x00\x00'
tRp661
sg44
g45
sg40
g41
sg25
F0.18061642081011087
sS'trials.thisIndex'
p662
g36
(g80
S'/\x00\x00\x00'
tRp663
sg26
V5
sS'trials.thisRepN'
p664
I0
sg66
Vlectern
p665
sg63
V../experiment_stimuli/bw_bc_bl/Nonliving_Things/Furniture/lectern_17.jpg
p666
sg21
F0.31090419040992856
sS'trials.thisTrialN'
p667
I52
sa(dp668
g31
g32
sg17
F203.14249777019722
sg24
I0
sg35
g39
sg14
F203.13634811353404
sg16
g36
(g70
S'\x01\x00\x00\x00'
tRp669
sg42
g43
sg46
g47
sg15
g72
sg22
F204.91082782455487
sg64
g88
sg62
g74
sg49
g50
sS'trials.thisN'
p670
I53
sg19
I1
sg27
g36
(g38
S'\x00\x00\x00\x00\x00\x00\x1a@'
tRp671
sg52
g53
sg23
S'2'
sg18
F204.41902730002766
sg33
g34
sg51
g11
sg20
S'1'
sg65
g36
(g77
S'\x00\x00\x00\x00\x00\x00\x00\x00'
tRp672
sg44
g45
sg40
g41
sg25
F0.26078705850522965
sS'trials.thisIndex'
p673
g36
(g80
S'<\x00\x00\x00'
tRp674
sg26
V5
sS'trials.thisRepN'
p675
I0
sg66
Vpelican
p676
sg63
V../experiment_stimuli/bw_bc_bl/Living_Things/Birds/pelican_11.jpg
p677
sg21
F0.47125562326982617
sS'trials.thisTrialN'
p678
I53
sa(dp679
g31
g32
sg17
F206.90954201197019
sg24
I0
sg35
g39
sg14
F206.90454549307469
sg16
g36
(g70
S'\x02\x00\x00\x00'
tRp680
sg42
g43
sg46
g47
sg15
g125
sg22
F208.96964359085541
sg64
g88
sg62
g74
sg49
g50
sS'trials.thisN'
p681
I54
sg19
I1
sg27
g36
(g38
S'\x00\x00\x00\x00\x00\x00\x1c@'
tRp682
sg52
g53
sg23
S'2'
sg18
F208.17719470290467
sg33
g34
sg51
g11
sg20
S'2'
sg65
g36
(g77
S'\x00\x00\x00\x00\x00\x00\x00\x00'
tRp683
sg44
g45
sg40
g41
sg25
F0.1706175904837437
sS'trials.thisIndex'
p684
g36
(g80
S'J\x00\x00\x00'
tRp685
sg26
V5
sS'trials.thisRepN'
p686
I0
sg66
Vseagull
p687
sg63
V../experiment_stimuli/bw_bc_bl/Living_Things/Birds/seagull_26.jpg
p688
sg21
F0.77190065948525444
sS'trials.thisTrialN'
p689
I54
sa(dp690
g31
g32
sg17
F210.87798080587527
sg24
I0
sg35
g39
sg14
F210.87315387860872
sg16
g36
(g70
S'\x02\x00\x00\x00'
tRp691
sg42
g43
sg46
g47
sg15
g72
sg22
F212.98842065240024
sg64
g149
sg62
g101
sg49
g50
sS'trials.thisN'
p692
I55
sg19
I0
sg27
g36
(g38
S'\x00\x00\x00\x00\x00\x00\x1a@'
tRp693
sg52
g53
sg23
S'2'
sg18
F212.1358039007755
sg33
g34
sg51
g11
sg20
S'1'
sg65
g36
(g77
S'\x00\x00\x00\x00\x00\x00\x00\x00'
tRp694
sg44
g45
sg40
g41
sg25
F0.26078391930786893
sS'trials.thisIndex'
p695
g36
(g80
S'\x13\x00\x00\x00'
tRp696
sg26
V5
sS'trials.thisRepN'
p697
I0
sg66
Vcouch
p698
sg63
V../experiment_stimuli/bw_bc_bl/Nonliving_Things/Furniture/couch_0.jpg
p699
sg21
F0.83205673779593781
sS'trials.thisTrialN'
p700
I55
sa(dp701
g31
g32
sg17
F214.98700231540715
sg24
I1
sg35
g39
sg14
F214.98208823148161
sg16
g36
(g70
S'\x02\x00\x00\x00'
tRp702
sg42
g43
sg46
g47
sg15
g125
sg22
F216.65634752064943
sg64
g137
sg62
g74
sg49
g50
sS'trials.thisN'
p703
I56
sg19
I1
sg27
g36
(g38
S'\x00\x00\x00\x00\x00\x00\x1a@'
tRp704
sg52
g53
sg23
S'1'
sg18
F216.2347093973076
sg33
g34
sg51
g11
sg20
S'2'
sg65
g36
(g77
S'\x00\x00\x00\x00\x00\x00\x00\x00'
tRp705
sg44
g45
sg40
g41
sg25
F0.15055174607550725
sS'trials.thisIndex'
p706
g36
(g80
S'R\x00\x00\x00'
tRp707
sg26
V5
sS'trials.thisRepN'
p708
I0
sg66
Vtapir
p709
sg63
V../experiment_stimuli/bw_bc_bl/Living_Things/Animals/tapir_17.jpg
p710
sg21
F0.40109719551401213
sS'trials.thisTrialN'
p711
I56
sa(dp712
g31
g32
sg17
F218.54467392805964
sg24
I1
sg35
g39
sg14
F218.53982146730414
sg16
g36
(g70
S'\x01\x00\x00\x00'
tRp713
sg42
g43
sg46
g47
sg15
g72
sg22
F220.40450699918438
sg64
g88
sg62
g74
sg49
g50
sS'trials.thisN'
p714
I57
sg19
I0
sg27
g36
(g38
S'\x00\x00\x00\x00\x00\x00\x18@'
tRp715
sg52
g53
sg23
S'1'
sg18
F219.81248672201764
sg33
g34
sg51
g11
sg20
S'2'
sg65
g36
(g77
S'\x00\x00\x00\x00\x00\x00\x00\x00'
tRp716
sg44
g45
sg40
g41
sg25
F0.17063521791715175
sS'trials.thisIndex'
p717
g36
(g80
S'\x04\x00\x00\x00'
tRp718
sg26
V5
sS'trials.thisRepN'
p719
I0
sg66
Vbarn-owl
p720
sg63
V../experiment_stimuli/bw_bc_bl/Living_Things/Birds/barn-owl_9.jpg
p721
sg21
F0.57146730448585004
sS'trials.thisTrialN'
p722
I57
sa(dp723
g31
g32
sg17
F222.3128759842366
sg24
I0
sg35
g39
sg14
F222.30800697876839
sg16
g36
(g70
S'\x02\x00\x00\x00'
tRp724
sg42
g43
sg46
g47
sg15
g125
sg22
F224.06244269828312
sg64
g137
sg62
g74
sg49
g50
sS'trials.thisN'
p725
I58
sg19
I0
sg27
g36
(g38
S'\x00\x00\x00\x00\x00\x00\x18@'
tRp726
sg52
g53
sg23
S'2'
sg18
F223.61074165604077
sg33
g34
sg51
g11
sg20
S'1'
sg65
g36
(g77
S'\x00\x00\x00\x00\x00\x00\x00\x00'
tRp727
sg44
g45
sg40
g41
sg25
F0.010239560098852962
sS'trials.thisIndex'
p728
g36
(g80
S'\x1b\x00\x00\x00'
tRp729
sg26
V5
sS'trials.thisRepN'
p730
I0
sg66
Velephant
p731
sg63
V../experiment_stimuli/bw_bc_bl/Living_Things/Animals/elephant_11.jpg
p732
sg21
F0.43115991138620302
sS'trials.thisTrialN'
p733
I58
sa(dp734
g31
g32
sg17
F225.81053632101975
sg24
I0
sg35
g39
sg14
F225.80561606062111
sg16
g36
(g70
S'\x02\x00\x00\x00'
tRp735
sg42
g43
sg46
g47
sg15
g125
sg22
F227.48975795623846
sg64
g88
sg62
g74
sg49
g50
sS'trials.thisN'
p736
I59
sg19
I1
sg27
g36
(g38
S'\x00\x00\x00\x00\x00\x00\x18@'
tRp737
sg52
g53
sg23
S'2'
sg18
F227.09832413715776
sg33
g34
sg51
g11
sg20
S'2'
sg65
g36
(g77
S'\x00\x00\x00\x00\x00\x00\x00\x00'
tRp738
sg44
g45
sg40
g41
sg25
F0.22073488030582666
sS'trials.thisIndex'
p739
g36
(g80
S'*\x00\x00\x00'
tRp740
sg26
V5
sS'trials.thisRepN'
p741
I0
sg66
Vhummingbird
p742
sg63
V../experiment_stimuli/bw_bc_bl/Living_Things/Birds/hummingbird_24.jpg
p743
sg21
F0.37087019986938685
sS'trials.thisTrialN'
p744
I59
sa(dp745
g31
g32
sg17
F229.44843224732904
sg24
I0
sg35
g39
sg14
F229.44352928712033
sg16
g36
(g70
S'\x01\x00\x00\x00'
tRp746
sg42
g43
sg46
g47
sg15
g125
sg22
F231.16788747889223
sg64
g206
sg62
g101
sg49
g50
sS'trials.thisN'
p747
I60
sg19
I1
sg27
g36
(g38
S'\x00\x00\x00\x00\x00\x00\x1a@'
tRp748
sg52
g53
sg23
S'3'
sg18
F230.72621043986874
sg33
g34
sg51
g11
sg20
S'1'
sg65
g36
(g77
S'\x00\x00\x00\x00\x00\x00\x00\x00'
tRp749
sg44
g45
sg40
g41
sg25
F0.25076735240872949
sS'trials.thisIndex'
p750
g36
(g80
S'V\x00\x00\x00'
tRp751
sg26
V5
sS'trials.thisRepN'
p752
I0
sg66
Vtractor
p753
sg63
V../experiment_stimuli/bw_bc_bl/Nonliving_Things/Vehicles/tractor_5.jpg
p754
sg21
F0.42113828443689272
sS'trials.thisTrialN'
p755
I60
sa(dp756
g31
g32
sg17
F233.15650739771081
sg24
I0
sg35
g39
sg14
F233.15157800569432
sg16
g36
(g70
S'\x01\x00\x00\x00'
tRp757
sg42
g43
sg46
g47
sg15
g125
sg22
F235.18665231502382
sg64
VTools
p758
sg62
g101
sg49
g50
sS'trials.thisN'
p759
I61
sg19
I0
sg27
g36
(g38
S'\x00\x00\x00\x00\x00\x00\x18@'
tRp760
sg52
g53
sg23
S'2'
sg18
F234.41424915147945
sg33
g34
sg51
g11
sg20
S'2'
sg65
g36
(g77
S'\x00\x00\x00\x00\x00\x00\x00\x00'
tRp761
sg44
g45
sg40
g41
sg25
F0.25076284835813567
sS'trials.thisIndex'
p762
g36
(g80
S'\x03\x00\x00\x00'
tRp763
sg26
V5
sS'trials.thisRepN'
p764
I0
sg66
Vaxe
p765
sg63
V../experiment_stimuli/bw_bc_bl/Nonliving_Things/Tools/axe_10.jpg
p766
sg21
F0.75187291979091242
sS'trials.thisTrialN'
p767
I61
sa(dp768
g31
g32
sg17
F237.17520901671378
sg24
I1
sg35
g39
sg14
F237.17032392485999
sg16
g36
(g70
S'\x02\x00\x00\x00'
tRp769
sg42
g43
sg46
g47
sg15
g125
sg22
F238.72417711099843
sg64
g137
sg62
g74
sg49
g50
sS'trials.thisN'
p770
I62
sg19
I1
sg27
g36
(g38
S'\x00\x00\x00\x00\x00\x00\x1a@'
tRp771
sg52
g53
sg23
S'1'
sg18
F238.422941038094
sg33
g34
sg51
g11
sg20
S'2'
sg65
g36
(g77
S'\x00\x00\x00\x00\x00\x00\x00\x00'
tRp772
sg44
g45
sg40
g41
sg25
F0.6514918576576747
sS'trials.thisIndex'
p773
g36
(g80
S'0\x00\x00\x00'
tRp774
sg26
V5
sS'trials.thisRepN'
p775
I0
sg66
Vlioness
p776
sg63
V../experiment_stimuli/bw_bc_bl/Living_Things/Animals/lioness_7.jpg
p777
sg21
F0.28067934868158773
sS'trials.thisTrialN'
p778
I62
sa(dp779
g31
g32
sg17
F241.11495401069988
sg24
I0
sg35
g39
sg14
F241.10887884208933
sg16
g36
(g70
S'\x01\x00\x00\x00'
tRp780
sg42
g43
sg46
g47
sg15
g125
sg22
F243.18403474672232
sg64
g206
sg62
g101
sg49
g50
sS'trials.thisN'
p781
I63
sg19
I1
sg27
g36
(g38
S'\x00\x00\x00\x00\x00\x00\x1a@'
tRp782
sg52
g53
sg23
S'3'
sg18
F242.39157929888461
sg33
g34
sg51
g11
sg20
S'1'
sg65
g36
(g77
S'\x00\x00\x00\x00\x00\x00\x00\x00'
tRp783
sg44
g45
sg40
g41
sg25
F2.1447272280347534
sS'trials.thisIndex'
p784
g36
(g80
S'\t\x00\x00\x00'
tRp785
sg26
V5
sS'trials.thisRepN'
p786
I0
sg66
Vbus
p787
sg63
V../experiment_stimuli/bw_bc_bl/Nonliving_Things/Vehicles/bus_5.jpg
p788
sg21
F0.77190598665038124
sS'trials.thisTrialN'
p789
I63
sa(dp790
g31
g32
sg17
F247.068016197416
sg24
I0
sg35
g39
sg14
F247.06181861308869
sg16
g36
(g70
S'\x02\x00\x00\x00'
tRp791
sg42
g43
sg46
g47
sg15
g72
sg22
F248.85639114514925
sg64
g206
sg62
g101
sg49
g50
sS'trials.thisN'
p792
I64
sg19
I1
sg27
g36
(g38
S'\x00\x00\x00\x00\x00\x00\x1e@'
tRp793
sg52
g53
sg23
S'3'
sg18
F248.32446483831154
sg33
g34
sg51
g11
sg20
S'2'
sg65
g36
(g77
S'\x00\x00\x00\x00\x00\x00\x00\x00'
tRp794
sg44
g45
sg40
g41
sg25
F0.23071568075101823
sS'trials.thisIndex'
p795
g36
(g80
S'\x0b\x00\x00\x00'
tRp796
sg26
V5
sS'trials.thisRepN'
p797
I0
sg66
Vcar
p798
sg63
V../experiment_stimuli/bw_bc_bl/Nonliving_Things/Vehicles/car_23.jpg
p799
sg21
F0.51135399244958535
sS'trials.thisTrialN'
p800
I64
sa(dp801
g31
g32
sg17
F250.82493754691677
sg24
I0
sg35
g39
sg14
F250.82001640653471
sg16
g36
(g70
S'\x02\x00\x00\x00'
tRp802
sg42
g43
sg46
g47
sg15
g125
sg22
F252.92519865557551
sg64
g73
sg62
g74
sg49
g50
sS'trials.thisN'
p803
I65
sg19
I1
sg27
g36
(g38
S'\x00\x00\x00\x00\x00\x00\x18@'
tRp804
sg52
g53
sg23
S'2'
sg18
F252.06258907355368
sg33
g34
sg51
g11
sg20
S'2'
sg65
g36
(g77
S'\x00\x00\x00\x00\x00\x00\x00\x00'
tRp805
sg44
g45
sg40
g41
sg25
F0.24074599932646379
sS'trials.thisIndex'
p806
g36
(g80
S'^\x00\x00\x00'
tRp807
sg26
V5
sS'trials.thisRepN'
p808
I0
sg66
Vwhale
p809
sg63
V../experiment_stimuli/bw_bc_bl/Living_Things/Marine_creatures/whale_21.jpg
p810
sg21
F0.83202817034907639
sS'trials.thisTrialN'
p811
I65
sa(dp812
g31
g32
sg17
F254.90366555441869
sg24
I0
sg35
g39
sg14
F254.89885380736087
sg16
g36
(g70
S'\x01\x00\x00\x00'
tRp813
sg42
g43
sg46
g47
sg15
g125
sg22
F256.73350412992295
sg64
g194
sg62
g101
sg49
g50
sS'trials.thisN'
p814
I66
sg19
I1
sg27
g36
(g38
S'\x00\x00\x00\x00\x00\x00\x1a@'
tRp815
sg52
g53
sg23
S'2'
sg18
F256.14146097371122
sg33
g34
sg51
g11
sg20
S'1'
sg65
g36
(g77
S'\x00\x00\x00\x00\x00\x00\x00\x00'
tRp816
sg44
g45
sg40
g41
sg25
F0.36085282452404499
sS'trials.thisIndex'
p817
g36
(g80
S'\x11\x00\x00\x00'
tRp818
sg26
V5
sS'trials.thisRepN'
p819
I0
sg66
Vchurch
p820
sg63
V../experiment_stimuli/bw_bc_bl/Nonliving_Things/Buildings/church_1.jpg
p821
sg21
F0.57149055611807853
sS'trials.thisTrialN'
p822
I66
sa(dp823
g31
g32
sg17
F258.83228608366335
sg24
I0
sg35
g39
sg14
F258.8273998037912
sg16
g36
(g70
S'\x01\x00\x00\x00'
tRp824
sg42
g43
sg46
g47
sg15
g72
sg22
F260.76222567312652
sg64
g73
sg62
g74
sg49
g50
sS'trials.thisN'
p825
I67
sg19
I0
sg27
g36
(g38
S'\x00\x00\x00\x00\x00\x00\x18@'
tRp826
sg52
g53
sg23
S'2'
sg18
F260.07000561326277
sg33
g34
sg51
g11
sg20
S'2'
sg65
g36
(g77
S'\x00\x00\x00\x00\x00\x00\x00\x00'
tRp827
sg44
g45
sg40
g41
sg25
F0.34095606434857473
sS'trials.thisIndex'
p828
g36
(g80
S'\x15\x00\x00\x00'
tRp829
sg26
V5
sS'trials.thisRepN'
p830
I0
sg66
Vcrab
p831
sg63
V../experiment_stimuli/bw_bc_bl/Living_Things/Marine_creatures/crab_23.jpg
p832
sg21
F0.67167845572112128
sS'trials.thisTrialN'
p833
I67
sa(dp834
g31
g32
sg17
F262.84100096992915
sg24
I0
sg35
g39
sg14
F262.83612004341558
sg16
g36
(g70
S'\x01\x00\x00\x00'
tRp835
sg42
g43
sg46
g47
sg15
g125
sg22
F264.73086736997357
sg64
g206
sg62
g101
sg49
g50
sS'trials.thisN'
p836
I68
sg19
I0
sg27
g36
(g38
S'\x00\x00\x00\x00\x00\x00\x18@'
tRp837
sg52
g53
sg23
S'3'
sg18
F264.07871634530602
sg33
g34
sg51
g11
sg20
S'2'
sg65
g36
(g77
S'\x00\x00\x00\x00\x00\x00\x00\x00'
tRp838
sg44
g45
sg40
g41
sg25
F0.37103074643528089
sS'trials.thisIndex'
p839
g36
(g80
S'@\x00\x00\x00'
tRp840
sg26
V5
sS'trials.thisRepN'
p841
I0
sg66
Vplane
p842
sg63
V../experiment_stimuli/bw_bc_bl/Nonliving_Things/Vehicles/plane_17.jpg
p843
sg21
F0.63160194305237383
sS'trials.thisTrialN'
p844
I68
sa(dp845
g31
g32
sg17
F266.83959243335994
sg24
I1
sg35
g39
sg14
F266.83480459178099
sg16
g36
(g70
S'\x02\x00\x00\x00'
tRp846
sg42
g43
sg46
g47
sg15
g125
sg22
F269.25066961697303
sg64
g137
sg62
g74
sg49
g50
sS'trials.thisN'
p847
I69
sg19
I1
sg27
g36
(g38
S'\x00\x00\x00\x00\x00\x00\x1a@'
tRp848
sg52
g53
sg23
S'1'
sg18
F268.07740593870403
sg33
g34
sg51
g11
sg20
S'2'
sg65
g36
(g77
S'\x00\x00\x00\x00\x00\x00\x00\x00'
tRp849
sg44
g45
sg40
g41
sg25
F0.45120064337970689
sS'trials.thisIndex'
p850
g36
(g80
S'(\x00\x00\x00'
tRp851
sg26
V5
sS'trials.thisRepN'
p852
I0
sg66
Vhorse
p853
sg63
V../experiment_stimuli/bw_bc_bl/Living_Things/Animals/horse_13.jpg
p854
sg21
F1.152731288166251
sS'trials.thisTrialN'
p855
I69
sa(dp856
g31
g32
sg17
F271.44060928415274
sg24
I0
sg35
g39
sg14
F271.4347951640375
sg16
g36
(g70
S'\x01\x00\x00\x00'
tRp857
sg42
g43
sg46
g47
sg15
g125
sg22
F273.47986424789997
sg64
g229
sg62
g101
sg49
g50
sS'trials.thisN'
p858
I70
sg19
I1
sg27
g36
(g38
S'\x00\x00\x00\x00\x00\x00\x1a@'
tRp859
sg52
g53
sg23
S'2'
sg18
F272.68745881441282
sg33
g34
sg51
g11
sg20
S'1'
sg65
g36
(g77
S'\x00\x00\x00\x00\x00\x00\x00\x00'
tRp860
sg44
g45
sg40
g41
sg25
F0.14052254782291129
sS'trials.thisIndex'
p861
g36
(g80
S'G\x00\x00\x00'
tRp862
sg26
V5
sS'trials.thisRepN'
p863
I0
sg66
Vsaucepan
p864
sg63
V../experiment_stimuli/bw_bc_bl/Nonliving_Things/Kitchen_Uten/saucepan_5.jpg
p865
sg21
F0.77190354274353012
sS'trials.thisTrialN'
p866
I70
sa(dp867
g31
g32
sg17
F275.35814806626877
sg24
I1
sg35
g39
sg14
F275.3533174584154
sg16
g36
(g70
S'\x02\x00\x00\x00'
tRp868
sg42
g43
sg46
g47
sg15
g72
sg22
F276.7670250730589
sg64
g229
sg62
g101
sg49
g50
sS'trials.thisN'
p869
I71
sg19
I0
sg27
g36
(g38
S'\x00\x00\x00\x00\x00\x00\x1a@'
tRp870
sg52
g53
sg23
S'1'
sg18
F276.58590362186078
sg33
g34
sg51
g11
sg20
S'1'
sg65
g36
(g77
S'\x00\x00\x00\x00\x00\x00\x00\x00'
tRp871
sg44
g45
sg40
g41
sg25
F0.21066984394565225
sS'trials.thisIndex'
p872
g36
(g80
S'B\x00\x00\x00'
tRp873
sg26
V5
sS'trials.thisRepN'
p874
I0
sg66
Vpot
p875
sg63
V../experiment_stimuli/bw_bc_bl/Nonliving_Things/Kitchen_Uten/pot_15.jpg
p876
sg21
F0.16056986222974956
sS'trials.thisTrialN'
p877
I71
sa(dp878
g31
g32
sg17
F278.71543207118521
sg24
I0
sg35
g39
sg14
F278.71064124110853
sg16
g36
(g70
S'\x02\x00\x00\x00'
tRp879
sg42
g43
sg46
g47
sg15
g72
sg22
F280.76571819273522
sg64
g149
sg62
g101
sg49
g50
sS'trials.thisN'
p880
I72
sg19
I1
sg27
g36
(g38
S'\x00\x00\x00\x00\x00\x00\x18@'
tRp881
sg52
g53
sg23
S'2'
sg18
F279.96323947492056
sg33
g34
sg51
g11
sg20
S'2'
sg65
g36
(g77
S'\x00\x00\x00\x00\x00\x00\x00\x00'
tRp882
sg44
g45
sg40
g41
sg25
F0.48126495716860518
sS'trials.thisIndex'
p883
g36
(g80
S'\x00\x00\x00\x00'
tRp884
sg26
V5
sS'trials.thisRepN'
p885
I0
sg66
VChest-of-drawers
p886
sg63
V../experiment_stimuli/bw_bc_bl/Nonliving_Things/Furniture/Chest-of-drawers_15.jpg
p887
sg21
F0.78192541818134487
sS'trials.thisTrialN'
p888
I72
sa(dp889
g31
g32
sg17
F282.984738195315
sg24
I0
sg35
g39
sg14
F282.97990264015971
sg16
g36
(g70
S'\x02\x00\x00\x00'
tRp890
sg42
g43
sg46
g47
sg15
g125
sg22
F284.76441911718575
sg64
g88
sg62
g74
sg49
g50
sS'trials.thisN'
p891
I73
sg19
I1
sg27
g36
(g38
S'\x00\x00\x00\x00\x00\x00\x18@'
tRp892
sg52
g53
sg23
S'2'
sg18
F284.22250334045384
sg33
g34
sg51
g11
sg20
S'2'
sg65
g36
(g77
S'\x00\x00\x00\x00\x00\x00\x00\x00'
tRp893
sg44
g45
sg40
g41
sg25
F0.37102069036336616
sS'trials.thisIndex'
p894
g36
(g80
S'F\x00\x00\x00'
tRp895
sg26
V5
sS'trials.thisRepN'
p896
I0
sg66
Vrooster
p897
sg63
V../experiment_stimuli/bw_bc_bl/Living_Things/Birds/rooster_18.jpg
p898
sg21
F0.52135704859392717
sS'trials.thisTrialN'
p899
I73
sa(dp900
g31
g32
sg17
F286.87452179956017
sg24
I1
sg35
g39
sg14
F286.86835476366105
sg16
g36
(g70
S'\x02\x00\x00\x00'
tRp901
sg42
g43
sg46
g47
sg15
g72
sg22
F288.15178493183339
sg64
g229
sg62
g101
sg49
g50
sS'trials.thisN'
p902
I74
sg19
I1
sg27
g36
(g38
S'\x00\x00\x00\x00\x00\x00\x1e@'
tRp903
sg52
g53
sg23
S'1'
sg18
F288.11096687731333
sg33
g34
sg51
g11
sg20
S'2'
sg65
g36
(g77
S'\x00\x00\x00\x00\x00\x00\x00\x00'
tRp904
sg44
g45
sg40
g41
sg25
F0.19064289378002286
sS'trials.thisIndex'
p905
g36
(g80
S'M\x00\x00\x00'
tRp906
sg26
V5
sS'trials.thisRepN'
p907
I0
sg66
Vsmall-saucepan
p908
sg63
V../experiment_stimuli/bw_bc_bl/Nonliving_Things/Kitchen_Uten/small-saucepan_12.jpg
p909
sg21
F0.020278623269405216
sS'trials.thisTrialN'
p910
I74
sa(dp911
g31
g32
sg17
F290.08025065198308
sg24
I0
sg35
g39
sg14
F290.07532221847214
sg16
g36
(g70
S'\x02\x00\x00\x00'
tRp912
sg42
g43
sg46
g47
sg15
g72
sg22
F291.91996672912501
sg64
g149
sg62
g101
sg49
g50
sS'trials.thisN'
p913
I75
sg19
I1
sg27
g36
(g38
S'\x00\x00\x00\x00\x00\x00\x1c@'
tRp914
sg52
g53
sg23
S'3'
sg18
F291.33796709787566
sg33
g34
sg51
g11
sg20
S'2'
sg65
g36
(g77
S'\x00\x00\x00\x00\x00\x00\x00\x00'
tRp915
sg44
g45
sg40
g41
sg25
F0.150545479147695
sS'trials.thisIndex'
p916
g36
(g80
S'\x06\x00\x00\x00'
tRp917
sg26
V5
sS'trials.thisRepN'
p918
I0
sg66
Vbedside-table
p919
sg63
V../experiment_stimuli/bw_bc_bl/Nonliving_Things/Furniture/bedside-table_3.jpg
p920
sg21
F0.56144552706973627
sS'trials.thisTrialN'
p921
I75
sa(dp922
g31
g32
sg17
F293.80834310216596
sg24
I1
sg35
g39
sg14
F293.80345561180729
sg16
g36
(g70
S'\x01\x00\x00\x00'
tRp923
sg42
g43
sg46
g47
sg15
g125
sg22
F295.32747516897507
sg64
g758
sg62
g101
sg49
g50
sS'trials.thisN'
p924
I76
sg19
I1
sg27
g36
(g38
S'\x00\x00\x00\x00\x00\x00\x1c@'
tRp925
sg52
g53
sg23
S'1'
sg18
F295.03600550116971
sg33
g34
sg51
g11
sg20
S'1'
sg65
g36
(g77
S'\x00\x00\x00\x00\x00\x00\x00\x00'
tRp926
sg44
g45
sg40
g41
sg25
F0.23074628179892898
sS'trials.thisIndex'
p927
g36
(g80
S'%\x00\x00\x00'
tRp928
sg26
V5
sS'trials.thisRepN'
p929
I0
sg66
Vhammer
p930
sg63
V../experiment_stimuli/bw_bc_bl/Nonliving_Things/Tools/hammer_5.jpg
p931
sg21
F0.27080982440384105
sS'trials.thisTrialN'
p932
I76
sa(dp933
g31
g32
sg17
F297.29576077358797
sg24
I1
sg35
g39
sg14
F297.29100166488206
sg16
g36
(g70
S'\x02\x00\x00\x00'
tRp934
sg42
g43
sg46
g47
sg15
g125
sg22
F298.87509057228453
sg64
g137
sg62
g74
sg49
g50
sS'trials.thisN'
p935
I77
sg19
I1
sg27
g36
(g38
S'\x00\x00\x00\x00\x00\x00\x18@'
tRp936
sg52
g53
sg23
S'1'
sg18
F298.55365144251846
sg33
g34
sg51
g11
sg20
S'2'
sg65
g36
(g77
S'\x00\x00\x00\x00\x00\x00\x00\x00'
tRp937
sg44
g45
sg40
g41
sg25
F0.20067273505264893
sS'trials.thisIndex'
p938
g36
(g80
S'\x14\x00\x00\x00'
tRp939
sg26
V5
sS'trials.thisRepN'
p940
I0
sg66
Vcow
p941
sg63
V../experiment_stimuli/bw_bc_bl/Living_Things/Animals/cow_2.jpg
p942
sg21
F0.30088452156633139
sS'trials.thisTrialN'
p943
I77
sa(dp944
g31
g32
sg17
F300.81353882222902
sg24
I0
sg35
g39
sg14
F300.80866535427049
sg16
g36
(g70
S'\x02\x00\x00\x00'
tRp945
sg42
g43
sg46
g47
sg15
g125
sg22
F302.89384296501521
sg64
g137
sg62
g74
sg49
g50
sS'trials.thisN'
p946
I78
sg19
I1
sg27
g36
(g38
S'\x00\x00\x00\x00\x00\x00\x1c@'
tRp947
sg52
g53
sg23
S'2'
sg18
F302.11140203900868
sg33
g34
sg51
g11
sg20
S'2'
sg65
g36
(g77
S'\x00\x00\x00\x00\x00\x00\x00\x00'
tRp948
sg44
g45
sg40
g41
sg25
F0.43115188897354528
sS'trials.thisIndex'
p949
g36
(g80
S' \x00\x00\x00'
tRp950
sg26
V5
sS'trials.thisRepN'
p951
I0
sg66
Vgiraffe
p952
sg63
V../experiment_stimuli/bw_bc_bl/Living_Things/Animals/giraffe_4.jpg
p953
sg21
F0.76189677265938371
sS'trials.thisTrialN'
p954
I78
sa(dp955
g31
g32
sg17
F305.06301725649973
sg24
I0
sg35
g39
sg14
F305.05789295356954
sg16
g36
(g70
S'\x02\x00\x00\x00'
tRp956
sg42
g43
sg46
g47
sg15
g72
sg22
F306.82239810423926
sg64
g100
sg62
g101
sg49
g50
sS'trials.thisN'
p957
I79
sg19
I1
sg27
g36
(g38
S'\x00\x00\x00\x00\x00\x00\x18@'
tRp958
sg52
g53
sg23
S'3'
sg18
F306.35060334618902
sg33
g34
sg51
g11
sg20
S'2'
sg65
g36
(g77
S'\x00\x00\x00\x00\x00\x00\x00\x00'
tRp959
sg44
g45
sg40
g41
sg25
F0.17058697046013549
sS'trials.thisIndex'
p960
g36
(g80
S'\x19\x00\x00\x00'
tRp961
sg26
V5
sS'trials.thisRepN'
p962
I0
sg66
Vdrum
p963
sg63
V../experiment_stimuli/bw_bc_bl/Nonliving_Things/Musical_Inst/drum_17.jpg
p964
sg21
F0.45123647747095674
sS'trials.thisTrialN'
p965
I79
sa(dp966
g31
g32
sg17
F308.73060562188039
sg24
I0
sg35
g39
sg14
F308.72585857706144
sg16
g36
(g70
S'\x01\x00\x00\x00'
tRp967
sg42
g43
sg46
g47
sg15
g72
sg22
F310.61058764107293
sg64
g73
sg62
g74
sg49
g50
sS'trials.thisN'
p968
I80
sg19
I1
sg27
g36
(g38
S'\x00\x00\x00\x00\x00\x00\x1a@'
tRp969
sg52
g53
sg23
S'2'
sg18
F309.97848555841483
sg33
g34
sg51
g11
sg20
S'1'
sg65
g36
(g77
S'\x00\x00\x00\x00\x00\x00\x00\x00'
tRp970
sg44
g45
sg40
g41
sg25
F0.23072180099552497
sS'trials.thisIndex'
p971
g36
(g80
S'\x17\x00\x00\x00'
tRp972
sg26
V5
sS'trials.thisRepN'
p973
I0
sg66
Vdolphin
p974
sg63
V../experiment_stimuli/bw_bc_bl/Living_Things/Marine_creatures/dolphin_10.jpg
p975
sg21
F0.61155424162279814
sS'trials.thisTrialN'
p976
I80
sa(dp977
g31
g32
sg17
F312.58905542315915
sg24
I0
sg35
g39
sg14
F312.58425471349619
sg16
g36
(g70
S'\x01\x00\x00\x00'
tRp978
sg42
g43
sg46
g47
sg15
g72
sg22
F313.96795633685542
sg64
g113
sg62
g74
sg49
g50
sS'trials.thisN'
p979
I81
sg19
I0
sg27
g36
(g38
S'\x00\x00\x00\x00\x00\x00\x1a@'
tRp980
sg52
g53
sg23
S'2'
sg18
F313.82685778615996
sg33
g34
sg51
g11
sg20
S'2'
sg65
g36
(g77
S'\x00\x00\x00\x00\x00\x00\x00\x00'
tRp981
sg44
g45
sg40
g41
sg25
F0.40109362412476912
sS'trials.thisIndex'
p982
g36
(g80
S'-\x00\x00\x00'
tRp983
sg26
V5
sS'trials.thisRepN'
p984
I0
sg66
Vladybird
p985
sg63
V../experiment_stimuli/bw_bc_bl/Living_Things/Insects/ladybird_18.jpg
p986
sg21
F0.12049122533062473
sS'trials.thisTrialN'
p987
I81
sa(dp988
g31
g32
sg17
F316.10668425232871
sg24
I1
sg35
g39
sg14
F316.10189353110036
sg16
g36
(g70
S'\x02\x00\x00\x00'
tRp989
sg42
g43
sg46
g47
sg15
g125
sg22
F317.72608396946453
sg64
g137
sg62
g74
sg49
g50
sS'trials.thisN'
p990
I82
sg19
I0
sg27
g36
(g38
S'\x00\x00\x00\x00\x00\x00\x18@'
tRp991
sg52
g53
sg23
S'1'
sg18
F317.34449859615415
sg33
g34
sg51
g11
sg20
S'1'
sg65
g36
(g77
S'\x00\x00\x00\x00\x00\x00\x00\x00'
tRp992
sg44
g45
sg40
g41
sg25
F0.27080691466107965
sS'trials.thisIndex'
p993
g36
(g80
S'\x01\x00\x00\x00'
tRp994
sg26
V5
sS'trials.thisRepN'
p995
I0
sg66
Varmadillo
p996
sg63
V../experiment_stimuli/bw_bc_bl/Living_Things/Animals/armadillo_13.jpg
p997
sg21
F0.36100732610793784
sS'trials.thisTrialN'
p998
I82
sa(dp999
g31
g32
sg17
F319.73457259975839
sg24
I1
sg35
g39
sg14
F319.72978108550888
sg16
g36
(g70
S'\x01\x00\x00\x00'
tRp1000
sg42
g43
sg46
g47
sg15
g125
sg22
F321.26376088743564
sg64
g149
sg62
g101
sg49
g50
sS'trials.thisN'
p1001
I83
sg19
I1
sg27
g36
(g38
S'\x00\x00\x00\x00\x00\x00\x1a@'
tRp1002
sg52
g53
sg23
S'1'
sg18
F320.99242837086786
sg33
g34
sg51
g11
sg20
S'1'
sg65
g36
(g77
S'\x00\x00\x00\x00\x00\x00\x00\x00'
tRp1003
sg44
g45
sg40
g41
sg25
F0.31092004699166864
sS'trials.thisIndex'
p1004
g36
(g80
S'\x08\x00\x00\x00'
tRp1005
sg26
V5
sS'trials.thisRepN'
p1006
I0
sg66
Vbookcase
p1007
sg63
V../experiment_stimuli/bw_bc_bl/Nonliving_Things/Furniture/bookcase_7.jpg
p1008
sg21
F0.25078549108002335
sS'trials.thisTrialN'
p1009
I83
sa(dp1010
g31
g32
sg17
F323.31244540825719
sg24
I0
sg35
g39
sg14
F323.30757420341251
sg16
g36
(g70
S'\x02\x00\x00\x00'
tRp1011
sg42
g43
sg46
g47
sg15
g125
sg22
F325.23236273525981
sg64
g88
sg62
g74
sg49
g50
sS'trials.thisN'
p1012
I84
sg19
I1
sg27
g36
(g38
S'\x00\x00\x00\x00\x00\x00\x1a@'
tRp1013
sg52
g53
sg23
S'2'
sg18
F324.58023600309389
sg33
g34
sg51
g11
sg20
S'2'
sg65
g36
(g77
S'\x00\x00\x00\x00\x00\x00\x00\x00'
tRp1014
sg44
g45
sg40
g41
sg25
F0.2307186130201444
sS'trials.thisIndex'
p1015
g36
(g80
S'O\x00\x00\x00'
tRp1016
sg26
V5
sS'trials.thisRepN'
p1017
I0
sg66
Vsparrow
p1018
sg63
V../experiment_stimuli/bw_bc_bl/Living_Things/Birds/sparrow_25.jpg
p1019
sg21
F0.63159535313025117
sS'trials.thisTrialN'
p1020
I84
sa(dp1021
g31
g32
sg17
F327.20080954802688
sg24
I0
sg35
g39
sg14
F327.19600938336225
sg16
g36
(g70
S'\x02\x00\x00\x00'
tRp1022
sg42
g43
sg46
g47
sg15
g125
sg22
F328.99054316408001
sg64
g88
sg62
g74
sg49
g50
sS'trials.thisN'
p1023
I85
sg19
I1
sg27
g36
(g38
S'\x00\x00\x00\x00\x00\x00\x18@'
tRp1024
sg52
g53
sg23
S'2'
sg18
F328.46869394247187
sg33
g34
sg51
g11
sg20
S'2'
sg65
g36
(g77
S'\x00\x00\x00\x00\x00\x00\x00\x00'
tRp1025
sg44
g45
sg40
g41
sg25
F0.27080218936316669
sS'trials.thisIndex'
p1026
g36
(g80
S'U\x00\x00\x00'
tRp1027
sg26
V5
sS'trials.thisRepN'
p1028
I0
sg66
Vtoucan
p1029
sg63
V../experiment_stimuli/bw_bc_bl/Living_Things/Birds/toucan_12.jpg
p1030
sg21
F0.50131423003040254
sS'trials.thisTrialN'
p1031
I85
sa(dp1032
g31
g32
sg17
F331.00904291064944
sg24
I1
sg35
g39
sg14
F331.00429464742774
sg16
g36
(g70
S'\x01\x00\x00\x00'
tRp1033
sg42
g43
sg46
g47
sg15
g72
sg22
F333.3399957343936
sg64
g137
sg62
g74
sg49
g50
sS'trials.thisN'
p1034
I86
sg19
I1
sg27
g36
(g38
S'\x00\x00\x00\x00\x00\x00\x18@'
tRp1035
sg52
g53
sg23
S'1'
sg18
F332.25691932445625
sg33
g34
sg51
g11
sg20
S'1'
sg65
g36
(g77
S'\x00\x00\x00\x00\x00\x00\x00\x00'
tRp1036
sg44
g45
sg40
g41
sg25
F0.26080567837925628
sS'trials.thisIndex'
p1037
g36
(g80
S'\r\x00\x00\x00'
tRp1038
sg26
V5
sS'trials.thisRepN'
p1039
I0
sg66
Vcat
p1040
sg63
V../experiment_stimuli/bw_bc_bl/Living_Things/Animals/cat_20.jpg
p1041
sg21
F1.062534689088352
sS'trials.thisTrialN'
p1042
I86
sa(dp1043
g31
g32
sg17
F335.33867633587215
sg24
I1
sg35
g39
sg14
F335.33371130918385
sg16
g36
(g70
S'\x01\x00\x00\x00'
tRp1044
sg42
g43
sg46
g47
sg15
g72
sg22
F337.32869826030219
sg64
g137
sg62
g74
sg49
g50
sS'trials.thisN'
p1045
I87
sg19
I1
sg27
g36
(g38
S'\x00\x00\x00\x00\x00\x00\x1c@'
tRp1046
sg52
g53
sg23
S'1'
sg18
F336.60636904876446
sg33
g34
sg51
g11
sg20
S'1'
sg65
g36
(g77
S'\x00\x00\x00\x00\x00\x00\x00\x00'
tRp1047
sg44
g45
sg40
g41
sg25
F0.23074321780586615
sS'trials.thisIndex'
p1048
g36
(g80
S'\x10\x00\x00\x00'
tRp1049
sg26
V5
sS'trials.thisRepN'
p1050
I0
sg66
Vcheetah
p1051
sg63
V../experiment_stimuli/bw_bc_bl/Living_Things/Animals/cheetah_17.jpg
p1052
sg21
F0.7017499273060821
sS'trials.thisTrialN'
p1053
I87
sa(dp1054
g31
g32
sg17
F339.29711235576542
sg24
I0
sg35
g39
sg14
F339.29230792040471
sg16
g36
(g70
S'\x01\x00\x00\x00'
tRp1055
sg42
g43
sg46
g47
sg15
g125
sg22
F341.37735080771381
sg64
g194
sg62
g101
sg49
g50
sS'trials.thisN'
p1056
I88
sg19
I1
sg27
g36
(g38
S'\x00\x00\x00\x00\x00\x00\x18@'
tRp1057
sg52
g53
sg23
S'3'
sg18
F340.57499774586176
sg33
g34
sg51
g11
sg20
S'1'
sg65
g36
(g77
S'\x00\x00\x00\x00\x00\x00\x00\x00'
tRp1058
sg44
g45
sg40
g41
sg25
F0.080394453718326986
sS'trials.thisIndex'
p1059
g36
(g80
S')\x00\x00\x00'
tRp1060
sg26
V5
sS'trials.thisRepN'
p1061
I0
sg66
Vhouse
p1062
sg63
V../experiment_stimuli/bw_bc_bl/Nonliving_Things/Buildings/house_20.jpg
p1063
sg21
F0.78176633775001392
sS'trials.thisTrialN'
p1064
I88
sa(dp1065
g31
g32
sg17
F343.19562538777245
sg24
I0
sg35
g39
sg14
F343.19079222745495
sg16
g36
(g70
S'\x01\x00\x00\x00'
tRp1066
sg42
g43
sg46
g47
sg15
g125
sg22
F345.37625685310923
sg64
g229
sg62
g101
sg49
g50
sS'trials.thisN'
p1067
I89
sg19
I1
sg27
g36
(g38
S'\x00\x00\x00\x00\x00\x00\x1a@'
tRp1068
sg52
g53
sg23
S'2'
sg18
F344.45343053160468
sg33
g34
sg51
g11
sg20
S'1'
sg65
g36
(g77
S'\x00\x00\x00\x00\x00\x00\x00\x00'
tRp1069
sg44
g45
sg40
g41
sg25
F1.3832271825522184
sS'trials.thisIndex'
p1070
g36
(g80
S'S\x00\x00\x00'
tRp1071
sg26
V5
sS'trials.thisRepN'
p1072
I0
sg66
Vteapot
p1073
sg63
V../experiment_stimuli/bw_bc_bl/Nonliving_Things/Kitchen_Uten/teapot_1.jpg
p1074
sg21
F0.90227235632482916
sS'trials.thisTrialN'
p1075
I89
sa(dp1076
g31
g32
sg17
F348.49707378988387
sg24
I0
sg35
g39
sg14
F348.49230712879216
sg16
g36
(g70
S'\x02\x00\x00\x00'
tRp1077
sg42
g43
sg46
g47
sg15
g125
sg22
F350.21670389146311
sg64
g88
sg62
g74
sg49
g50
sS'trials.thisN'
p1078
I90
sg19
I0
sg27
g36
(g38
S'\x00\x00\x00\x00\x00\x00\x18@'
tRp1079
sg52
g53
sg23
S'2'
sg18
F349.74493080191314
sg33
g34
sg51
g11
sg20
S'1'
sg65
g36
(g77
S'\x00\x00\x00\x00\x00\x00\x00\x00'
tRp1080
sg44
g45
sg40
g41
sg25
F0.15055072359973565
sS'trials.thisIndex'
p1081
g36
(g80
S'\x1a\x00\x00\x00'
tRp1082
sg26
V5
sS'trials.thisRepN'
p1083
I0
sg66
Vduck
p1084
sg63
V../experiment_stimuli/bw_bc_bl/Living_Things/Birds/duck_23.jpg
p1085
sg21
F0.45120930095436051
sS'trials.thisTrialN'
p1086
I90
sa(dp1087
g31
g32
sg17
F352.10492985672317
sg24
I1
sg35
g39
sg14
F352.10015394014772
sg16
g36
(g70
S'\x02\x00\x00\x00'
tRp1088
sg42
g43
sg46
g47
sg15
g72
sg22
F353.49381616484607
sg64
g149
sg62
g101
sg49
g50
sS'trials.thisN'
p1089
I91
sg19
I1
sg27
g36
(g38
S'\x00\x00\x00\x00\x00\x00\x18@'
tRp1090
sg52
g53
sg23
S'1'
sg18
F353.34275313280523
sg33
g34
sg51
g11
sg20
S'2'
sg65
g36
(g77
S'\x00\x00\x00\x00\x00\x00\x00\x00'
tRp1091
sg44
g45
sg40
g41
sg25
F0.75183463463326916
sS'trials.thisIndex'
p1092
g36
(g80
S'\x02\x00\x00\x00'
tRp1093
sg26
V5
sS'trials.thisRepN'
p1094
I0
sg66
Varmchair
p1095
sg63
V../experiment_stimuli/bw_bc_bl/Nonliving_Things/Furniture/armchair_3.jpg
p1096
sg21
F0.13050468731671572
sS'trials.thisTrialN'
p1097
I91
sa(dp1098
g31
g32
sg17
F355.98337499966146
sg24
I1
sg35
g39
sg14
F355.97857979370747
sg16
g36
(g70
S'\x01\x00\x00\x00'
tRp1099
sg42
g43
sg46
g47
sg15
g125
sg22
F357.85328558419133
sg64
g149
sg62
g101
sg49
g50
sS'trials.thisN'
p1100
I92
sg19
I1
sg27
g36
(g38
S'\x00\x00\x00\x00\x00\x00\x1a@'
tRp1101
sg52
g53
sg23
S'1'
sg18
F357.2512496910058
sg33
g34
sg51
g11
sg20
S'1'
sg65
g36
(g77
S'\x00\x00\x00\x00\x00\x00\x00\x00'
tRp1102
sg44
g45
sg40
g41
sg25
F0.28094585973303765
sS'trials.thisIndex'
p1103
g36
(g80
S'Q\x00\x00\x00'
tRp1104
sg26
V5
sS'trials.thisRepN'
p1105
I0
sg66
Vtable
p1106
sg63
V../experiment_stimuli/bw_bc_bl/Nonliving_Things/Furniture/table_21.jpg
p1107
sg21
F0.58148748025996611
sS'trials.thisTrialN'
p1108
I92
sa(dp1109
g31
g32
sg17
F359.8717898906325
sg24
I1
sg35
g39
sg14
F359.86704165389528
sg16
g36
(g70
S'\x02\x00\x00\x00'
tRp1110
sg42
g43
sg46
g47
sg15
g125
sg22
F361.68159517052118
sg64
g88
sg62
g74
sg49
g50
sS'trials.thisN'
p1111
I93
sg19
I1
sg27
g36
(g38
S'\x00\x00\x00\x00\x00\x00\x1a@'
tRp1112
sg52
g53
sg23
S'1'
sg18
F361.15974194498267
sg33
g34
sg51
g11
sg20
S'2'
sg65
g36
(g77
S'\x00\x00\x00\x00\x00\x00\x00\x00'
tRp1113
sg44
g45
sg40
g41
sg25
F0.23071921453811228
sS'trials.thisIndex'
p1114
g36
(g80
S'8\x00\x00\x00'
tRp1115
sg26
V5
sS'trials.thisRepN'
p1116
I0
sg66
Vostrich
p1117
sg63
V../experiment_stimuli/bw_bc_bl/Living_Things/Birds/ostrich_23.jpg
p1118
sg21
F0.5013072716537863
sS'trials.thisTrialN'
p1119
I93
sa(dp1120
g31
g32
sg17
F363.65005378768547
sg24
I0
sg35
g39
sg14
F363.64524015696952
sg16
g36
(g70
S'\x02\x00\x00\x00'
tRp1121
sg42
g43
sg46
g47
sg15
g72
sg22
F365.6201614595484
sg64
g100
sg62
g101
sg49
g50
sS'trials.thisN'
p1122
I94
sg19
I1
sg27
g36
(g38
S'\x00\x00\x00\x00\x00\x00\x1c@'
tRp1123
sg52
g53
sg23
S'3'
sg18
F364.95799911208451
sg33
g34
sg51
g11
sg20
S'2'
sg65
g36
(g77
S'\x00\x00\x00\x00\x00\x00\x00\x00'
tRp1124
sg44
g45
sg40
g41
sg25
F1.1727526329923421
sS'trials.thisIndex'
p1125
g36
(g80
S'\\\x00\x00\x00'
tRp1126
sg26
V5
sS'trials.thisRepN'
p1127
I0
sg66
Vviolin
p1128
sg63
V../experiment_stimuli/bw_bc_bl/Nonliving_Things/Musical_Inst/violin_14.jpg
p1129
sg21
F0.64161518350010738
sS'trials.thisTrialN'
p1130
I94
sa(dp1131
g31
g32
sg17
F368.53070637804922
sg24
I0
sg35
g39
sg14
F368.52585350727895
sg16
g36
(g70
S'\x01\x00\x00\x00'
tRp1132
sg42
g43
sg46
g47
sg15
g125
sg22
F371.04198005149374
sg64
g229
sg62
g101
sg49
g50
sS'trials.thisN'
p1133
I95
sg19
I1
sg27
g36
(g38
S'\x00\x00\x00\x00\x00\x00\x1c@'
tRp1134
sg52
g53
sg23
S'3'
sg18
F369.81857668526936
sg33
g34
sg51
g11
sg20
S'1'
sg65
g36
(g77
S'\x00\x00\x00\x00\x00\x00\x00\x00'
tRp1135
sg44
g45
sg40
g41
sg25
F0.090477061516139656
sS'trials.thisIndex'
p1136
g36
(g80
S'\x12\x00\x00\x00'
tRp1137
sg26
V5
sS'trials.thisRepN'
p1138
I0
sg66
Vcoking-pot
p1139
sg63
V../experiment_stimuli/bw_bc_bl/Nonliving_Things/Kitchen_Uten/coking-pot_26.jpg
p1140
sg21
F1.2028486570343375
sS'trials.thisTrialN'
p1141
I95
sasS'loops'
p1142
(lp1143
g1
(cpsychopy.data
TrialHandler
p1144
g3
NtRp1145
(dp1146
S'origin'
p1147
NsS'thisTrial'
p1148
(lp1149
sS'_exp'
p1150
I98337040
sg10
S'trials'
p1151
sg6
I-1
sS'thisRepN'
p1152
I1
sg28
I01
sg29
g30
sS'data'
p1153
g1
(cpsychopy.data
DataHandler
p1154
c__builtin__
dict
p1155
(dp1156
g20
cnumpy.core.multiarray
_reconstruct
p1157
(cnumpy
ndarray
p1158
(I0
tS'b'
tRp1159
(I1
(I96
I1
tg37
(S'O4'
I0
I1
tRp1160
(I3
S'|'
NNNI-1
I-1
I63
tbI00
(lp1161
S'2'
aS'1'
aS'2'
aS'2'
aS'2'
aS'2'
aS'2'
aS'2'
aS'1'
aS'1'
aS'2'
aS'2'
aS'1'
aS'1'
aS'2'
aS'2'
aS'1'
aS'1'
aS'1'
aS'1'
aS'2'
aS'2'
aS'1'
aS'1'
aS'1'
aS'2'
aS'1'
aS'1'
aS'1'
aS'1'
aS'2'
aS'1'
aS'2'
aS'1'
aS'1'
aS'2'
aS'2'
aS'1'
aS'1'
aS'2'
aS'2'
aS'1'
aS'2'
aS'1'
aS'2'
aS'2'
aS'1'
aS'1'
aS'2'
aS'2'
aS'2'
aS'2'
aS'1'
aS'1'
aS'2'
aS'2'
aS'2'
aS'1'
aS'1'
aS'2'
aS'1'
aS'2'
aS'1'
aS'2'
aS'2'
aS'1'
aS'1'
aS'2'
aS'1'
aS'2'
aS'2'
aS'1'
aS'2'
aS'1'
aS'2'
aS'2'
aS'1'
aS'2'
aS'1'
aS'2'
aS'1'
aS'1'
aS'2'
aS'1'
aS'1'
aS'2'
aS'1'
aS'1'
aS'1'
aS'2'
aS'2'
aS'1'
aS'2'
aS'1'
aS'2'
aS'2'
atbsg17
cnumpy.ma.core
_mareconstruct
p1162
(cnumpy.ma.core
MaskedArray
p1163
g1158
(I0
tp1164
S'b'
tRp1165
(I1
(I96
I1
tg37
(S'f4'
I0
I1
tRp1166
(I3
S'<'
NNNI-1
I-1
I0
tbI00
S'\x93[\x8bC\xa8\r\x9eCn\r\xb0C\x11(iCp\x8bZC\x89\xb3yBF\n\x91C\xba\xf0\xf8B\x06\xde\x9fCn\x1dqC\xdc\xf41Cj\x11wC\xf50\xd9B(\x81\xa5Ce\x10#C\xe9\xaf\xe8BZ\xab\xa7CW\xe7~C\xeeC\xb8C\xc3\xe0RC\xdb\xa5\x94C\x88j\x81C\xc9\xe1KB\x84]\x9aC}\xe4sA\x11\x88\x98C\xa0?\xaeC\x19P^C\xbe\xd4kB7\xa1<CH\xd3CC<\xe48C"h\x96C\x88\x18\xfb@\xd3t\x1fCk\xa1 Bih@Cx\xe7\x92C\x8f\x8b\xb1Bu\xd4\xa9Bxk\x85C\x08\xa6\xa9C\x7f\xcfaC\xe2\xa8o@\x10\xb0\xe0BfK\x9cC\xab5=B\xc3\xa4GC\xda,mC\xad\n\xc2B\xe5\xa9\xb1A\xfc\xc1\x12BK\xc4\x04B\x90\xf1\xb9B\x98C\xf1BW\xa5\x03C\x97\xef\xb3C\x87\xec\x06C\xfa\xf7\x1bC8\xd2\xc9B{$KC\x8dl5C\x02\x88\x18C@$*C\xa6k\x83C\xbb\xb2\x92B\xd8\xad\x89C\xcf\xfc\x83BK\xd5\x14C\xf7\xf4[B\x0c~\x8dCf\xb8\x87C\xe8-\x00Ct\x9d\x10C\xd8\xe8NCrg\x96A\x9f`.B\xf0o\x8fC0f\xcbA\xfe\xa7\xa1CH{&C\xdf\xfd\xb1C\xac\xfcVC\n\x99\xabC\xa6\x93\x9aB\xb4\x99\xa3C\xccreC\xda\x0e.C)\xc9\xe9A\t\x859A\xfe\xda\xd1B\x11\xe7\x8aB5\xd3\xb5C@j\xa2B/\xd3zCV4\x0cC'
S'\x00\x00\x00\x00\x00\x00\x00\x00\x00\x00\x00\x00\x00\x00\x00\x00\x00\x00\x00\x00\x00\x00\x00\x00\x00\x00\x00\x00\x00\x00\x00\x00\x00\x00\x00\x00\x00\x00\x00\x00\x00\x00\x00\x00\x00\x00\x00\x00\x00\x00\x00\x00\x00\x00\x00\x00\x00\x00\x00\x00\x00\x00\x00\x00\x00\x00\x00\x00\x00\x00\x00\x00\x00\x00\x00\x00\x00\x00\x00\x00\x00\x00\x00\x00\x00\x00\x00\x00\x00\x00\x00\x00\x00\x00\x00\x00'
NtbsS'ran'
p1167
g1162
(g1163
g1158
g1164
S'b'
tRp1168
(I1
(I96
I1
tg1166
I00
S'\x00\x00\x80?\x00\x00\x80?\x00\x00\x80?\x00\x00\x80?\x00\x00\x80?\x00\x00\x80?\x00\x00\x80?\x00\x00\x80?\x00\x00\x80?\x00\x00\x80?\x00\x00\x80?\x00\x00\x80?\x00\x00\x80?\x00\x00\x80?\x00\x00\x80?\x00\x00\x80?\x00\x00\x80?\x00\x00\x80?\x00\x00\x80?\x00\x00\x80?\x00\x00\x80?\x00\x00\x80?\x00\x00\x80?\x00\x00\x80?\x00\x00\x80?\x00\x00\x80?\x00\x00\x80?\x00\x00\x80?\x00\x00\x80?\x00\x00\x80?\x00\x00\x80?\x00\x00\x80?\x00\x00\x80?\x00\x00\x80?\x00\x00\x80?\x00\x00\x80?\x00\x00\x80?\x00\x00\x80?\x00\x00\x80?\x00\x00\x80?\x00\x00\x80?\x00\x00\x80?\x00\x00\x80?\x00\x00\x80?\x00\x00\x80?\x00\x00\x80?\x00\x00\x80?\x00\x00\x80?\x00\x00\x80?\x00\x00\x80?\x00\x00\x80?\x00\x00\x80?\x00\x00\x80?\x00\x00\x80?\x00\x00\x80?\x00\x00\x80?\x00\x00\x80?\x00\x00\x80?\x00\x00\x80?\x00\x00\x80?\x00\x00\x80?\x00\x00\x80?\x00\x00\x80?\x00\x00\x80?\x00\x00\x80?\x00\x00\x80?\x00\x00\x80?\x00\x00\x80?\x00\x00\x80?\x00\x00\x80?\x00\x00\x80?\x00\x00\x80?\x00\x00\x80?\x00\x00\x80?\x00\x00\x80?\x00\x00\x80?\x00\x00\x80?\x00\x00\x80?\x00\x00\x80?\x00\x00\x80?\x00\x00\x80?\x00\x00\x80?\x00\x00\x80?\x00\x00\x80?\x00\x00\x80?\x00\x00\x80?\x00\x00\x80?\x00\x00\x80?\x00\x00\x80?\x00\x00\x80?\x00\x00\x80?\x00\x00\x80?\x00\x00\x80?\x00\x00\x80?\x00\x00\x80?\x00\x00\x80?'
S'\x00\x00\x00\x00\x00\x00\x00\x00\x00\x00\x00\x00\x00\x00\x00\x00\x00\x00\x00\x00\x00\x00\x00\x00\x00\x00\x00\x00\x00\x00\x00\x00\x00\x00\x00\x00\x00\x00\x00\x00\x00\x00\x00\x00\x00\x00\x00\x00\x00\x00\x00\x00\x00\x00\x00\x00\x00\x00\x00\x00\x00\x00\x00\x00\x00\x00\x00\x00\x00\x00\x00\x00\x00\x00\x00\x00\x00\x00\x00\x00\x00\x00\x00\x00\x00\x00\x00\x00\x00\x00\x00\x00\x00\x00\x00\x00'
Ntbsg24
g1162
(g1163
g1158
g1164
S'b'
tRp1169
(I1
(I96
I1
tg1166
I00
S'\x00\x00\x00\x00\x00\x00\x80?\x00\x00\x80?\x00\x00\x00\x00\x00\x00\x80?\x00\x00\x80?\x00\x00\x00\x00\x00\x00\x00\x00\x00\x00\x80?\x00\x00\x00\x00\x00\x00\x00\x00\x00\x00\x00\x00\x00\x00\x00\x00\x00\x00\x80?\x00\x00\x80?\x00\x00\x80?\x00\x00\x80?\x00\x00\x00\x00\x00\x00\x00\x00\x00\x00\x00\x00\x00\x00\x80?\x00\x00\x00\x00\x00\x00\x80?\x00\x00\x00\x00\x00\x00\x00\x00\x00\x00\x00\x00\x00\x00\x00\x00\x00\x00\x00\x00\x00\x00\x80?\x00\x00\x00\x00\x00\x00\x00\x00\x00\x00\x00\x00\x00\x00\x00\x00\x00\x00\x00\x00\x00\x00\x00\x00\x00\x00\x80?\x00\x00\x80?\x00\x00\x80?\x00\x00\x00\x00\x00\x00\x80?\x00\x00\x80?\x00\x00\x00\x00\x00\x00\x00\x00\x00\x00\x80?\x00\x00\x00\x00\x00\x00\x00\x00\x00\x00\x00\x00\x00\x00\x80?\x00\x00\x80?\x00\x00\x00\x00\x00\x00\x80?\x00\x00\x80?\x00\x00\x00\x00\x00\x00\x00\x00\x00\x00\x00\x00\x00\x00\x80?\x00\x00\x80?\x00\x00\x00\x00\x00\x00\x80?\x00\x00\x80?\x00\x00\x00\x00\x00\x00\x80?\x00\x00\x00\x00\x00\x00\x00\x00\x00\x00\x00\x00\x00\x00\x00\x00\x00\x00\x80?\x00\x00\x80?\x00\x00\x00\x00\x00\x00\x00\x00\x00\x00\x00\x00\x00\x00\x00\x00\x00\x00\x80?\x00\x00\x00\x00\x00\x00\x00\x00\x00\x00\x80?\x00\x00\x00\x00\x00\x00\x80?\x00\x00\x00\x00\x00\x00\x00\x00\x00\x00\x80?\x00\x00\x80?\x00\x00\x80?\x00\x00\x00\x00\x00\x00\x00\x00\x00\x00\x00\x00\x00\x00\x00\x00\x00\x00\x00\x00\x00\x00\x00\x00\x00\x00\x00\x00\x00\x00\x80?\x00\x00\x00\x00\x00\x00\x00\x00\x00\x00\x00\x00\x00\x00\x00\x00\x00\x00\x00\x00'
S'\x00\x00\x00\x00\x00\x00\x00\x00\x00\x00\x00\x00\x00\x00\x00\x00\x00\x00\x00\x00\x00\x00\x00\x00\x00\x00\x00\x00\x00\x00\x00\x00\x00\x00\x00\x00\x00\x00\x00\x00\x00\x00\x00\x00\x00\x00\x00\x00\x00\x00\x00\x00\x00\x00\x00\x00\x00\x00\x00\x00\x00\x00\x00\x00\x00\x00\x00\x00\x00\x00\x00\x00\x00\x00\x00\x00\x00\x00\x00\x00\x00\x00\x00\x00\x00\x00\x00\x00\x00\x00\x00\x00\x00\x00\x00\x00'
Ntbsg14
g1162
(g1163
g1158
g1164
S'b'
tRp1170
(I1
(I96
I1
tg1166
I00
S'\xf6Z\x8bC\x0b\r\x9eC\xd2\x0c\xb0C\xce&iC2\x8aZC\x8f\xaeyB\xa4\t\x91C@\xee\xf8Bi\xdd\x9fC\xdf\x1bqC\x9b\xf31C\xd3\x0fwC\x80.\xd9B\x8d\x80\xa5C)\x0f#C\xe3\xac\xe8B\xb7\xaa\xa7C\x1b\xe6~COC\xb8C\x87\xdfRC@\xa5\x94C\xe8i\x81C\xbc\xdcKB\xe9\\\x9aC\x80\xcesAi\x87\x98C\x04?\xaeC\xdaN^C\xcd\xcfkB\xf3\x9f<C\x08\xd2CC\xfc\xe28C\x82g\x96CY\xf0\xfa@\x8es\x1fC\xb8\x9b B+g@C\xd8\xe6\x92C\x14\x89\xb1B\x96\xd1\xa9B\xdbj\x85Cj\xa5\xa9C=\xceaC\xaeCn@\x8e\xad\xe0B\xc9J\x9cC\xbb0=B\x84\xa3GC\x9a+mC\x05\x08\xc2B\xd6\x9f\xb1A\xf4\xbc\x12Bg\xbf\x04B\t\xef\xb9B\x06A\xf1B\x14\xa4\x03C\xfb\xee\xb3C\x05\xeb\x06C\xbb\xf6\x1bC\xe8\xce\xc9B\xe8"KCLk5C\xc2\x86\x18Cu"*C\x06k\x83C<\xb0\x92B:\xad\x89C\xf8\xf9\x83B\n\xd4\x14C\xed\xef[Bm}\x8dC\xa7\xb7\x87Cc,\x00C\xef\x9b\x10C\x90\xe7NCy]\x96A\xb2[.B&o\x8fCD\\\xcbA_\xa7\xa1C\x06z&CB\xfd\xb1Cj\xfbVCl\x98\xabC\xc6\x90\x9aB\x17\x99\xa3C\x8bqeC\x99\r.C\x10\xbf\xe9A\x9dp9A\x80\xd8\xd1B7\xe4\x8aB\x97\xd2\xb5C\x10g\xa2B\xed\xd1zC\x143\x0cC'
S'\x00\x00\x00\x00\x00\x00\x00\x00\x00\x00\x00\x00\x00\x00\x00\x00\x00\x00\x00\x00\x00\x00\x00\x00\x00\x00\x00\x00\x00\x00\x00\x00\x00\x00\x00\x00\x00\x00\x00\x00\x00\x00\x00\x00\x00\x00\x00\x00\x00\x00\x00\x00\x00\x00\x00\x00\x00\x00\x00\x00\x00\x00\x00\x00\x00\x00\x00\x00\x00\x00\x00\x00\x00\x00\x00\x00\x00\x00\x00\x00\x00\x00\x00\x00\x00\x00\x00\x00\x00\x00\x00\x00\x00\x00\x00\x00'
Ntbsg16
g1157
(g1158
(I0
tS'b'
tRp1171
(I1
(I96
I1
tg1160
I00
(lp1172
g879
ag989
ag1088
ag757
ag713
ag262
ag912
ag438
ag1000
ag780
ag592
ag791
ag394
ag1033
ag548
ag416
ag1044
ag813
ag1132
ag691
ag934
ag824
ag228
ag967
ag112
ag956
ag1077
ag724
ag251
ag625
ag647
ag614
ag945
ag87
ag537
ag193
ag636
ag923
ag339
ag328
ag846
ag1055
ag735
ag71
ag405
ag978
ag217
ag658
ag769
ag361
ag136
ag182
ag171
ag350
ag427
ag460
ag1110
ag471
ag526
ag372
ag669
ag603
ag515
ag570
ag835
ag295
ag868
ag273
ag504
ag240
ag890
ag857
ag449
ag493
ag680
ag124
ag205
ag901
ag148
ag1011
ag559
ag1099
ag702
ag1066
ag306
ag1022
ag746
ag581
ag160
ag99
ag383
ag284
ag1121
ag317
ag802
ag482
atbsg15
g1157
(g1158
(I0
tS'b'
tRp1173
(I1
(I96
I1
tg1160
I00
(lp1174
g72
ag125
ag72
ag125
ag72
ag125
ag72
ag72
ag125
ag125
ag72
ag72
ag72
ag72
ag72
ag72
ag72
ag125
ag125
ag72
ag125
ag72
ag125
ag72
ag72
ag72
ag125
ag125
ag72
ag72
ag72
ag125
ag125
ag72
ag72
ag125
ag72
ag125
ag72
ag72
ag125
ag125
ag125
ag72
ag125
ag72
ag125
ag72
ag125
ag125
ag125
ag125
ag72
ag125
ag72
ag125
ag125
ag125
ag72
ag125
ag72
ag72
ag72
ag125
ag125
ag125
ag72
ag125
ag72
ag72
ag125
ag125
ag72
ag72
ag125
ag125
ag125
ag72
ag125
ag125
ag72
ag125
ag125
ag125
ag125
ag125
ag125
ag125
ag125
ag72
ag125
ag125
ag72
ag125
ag125
ag125
atbsg22
g1162
(g1163
g1158
g1164
S'b'
tRp1175
(I1
(I96
I1
tg1166
I00
S'\x03b\x8cC\xf0\xdc\x9eC5\xbf\xb0C\xc8/kC\x8eg\\C\x830\x80B\xc1\xf5\x91C\xff[\xfcB\xc3\xa1\xa0C\x1d/sC\x9bt3C<\xdbxC8\xe9\xdcB\x85\xab\xa6CL\x95$C\x87\x8b\xecB\x13\xaa\xa8C\xe3]\x80C`\x85\xb9C\t\xfdTC\x03p\x95C\x91a\x82C\tqSB(N\x9bC%L\x87ADi\x99C\xbd\x1b\xafC\xfc\x0f`C\x93\xf2qB\x9cu>C\x86\xb4EC\x84\xb3:Cir\x97C\xcc\xa9\x1aA\xdd\'!C\xcf\xf1&BM\xedAC\xeb\xa9\x93CB\xf2\xb5B\x18\xab\xadB\x16\xa0\x86CM\xb0\xaaCa}cCu[\xbe@\xbfS\xe4B\xe6\xfb\x9cC\xf7\x01DB\x0b9ICd\xb9nC3\xfb\xc5Bq\r\xbcAD\xf4\x18B\x06*\x0bBm\xc3\xbdB\xde\x00\xf5Bv\xf9\x04C?\xd7\xb4C\xf9{\tC\xb4\x89\x1dC\xb2\x04\xceB,\xe9LC\xd5\x007C\xca0\x1aCo+,C\x8d]\x84C\x88\xa8\x96B.b\x8aC\xc3\x1a\x87B0\x95\x16C\x96\tdB\xd8a\x8eCl\xbd\x88C\xad\xb7\x01C\xa8\xd5\x12C;\xf8PCX\xa3\xa2A\xa5"5Bn\x13\x90C\x88\t\xdaA\xbe\x9d\xa2C(;(C8\xed\xb2C\x06\xa8XC)\xb0\xacC\xbe\xa2\x9eB\xca~\xa4C\xfb*gC\x03\x140C\xf8\xa9\xf8A\xb9YUA\xe5_\xd5B\x08\xcd\x8eBa\xcf\xb6C5\xe4\xa5B\xda\xec|C\xf8_\x0eC'
S'\x00\x00\x00\x00\x00\x00\x00\x00\x00\x00\x00\x00\x00\x00\x00\x00\x00\x00\x00\x00\x00\x00\x00\x00\x00\x00\x00\x00\x00\x00\x00\x00\x00\x00\x00\x00\x00\x00\x00\x00\x00\x00\x00\x00\x00\x00\x00\x00\x00\x00\x00\x00\x00\x00\x00\x00\x00\x00\x00\x00\x00\x00\x00\x00\x00\x00\x00\x00\x00\x00\x00\x00\x00\x00\x00\x00\x00\x00\x00\x00\x00\x00\x00\x00\x00\x00\x00\x00\x00\x00\x00\x00\x00\x00\x00\x00'
Ntbsg26
g1157
(g1158
(I0
tS'b'
tRp1176
(I1
(I96
I1
tg1160
I00
(lp1177
g36
(g80
S'\x03\x00\x00\x00'
tRp1178
ag36
(g80
S'\x01\x00\x00\x00'
tRp1179
ag36
(g80
S'\x02\x00\x00\x00'
tRp1180
ag36
(g80
S'\x04\x00\x00\x00'
tRp1181
ag36
(g80
S'\x05\x00\x00\x00'
tRp1182
ag36
(g80
S'\x04\x00\x00\x00'
tRp1183
ag36
(g80
S'\x03\x00\x00\x00'
tRp1184
ag36
(g80
S'\x03\x00\x00\x00'
tRp1185
ag36
(g80
S'\x04\x00\x00\x00'
tRp1186
ag36
(g80
S'\x06\x00\x00\x00'
tRp1187
ag36
(g80
S'\x02\x00\x00\x00'
tRp1188
ag36
(g80
S'\x04\x00\x00\x00'
tRp1189
ag36
(g80
S'\x06\x00\x00\x00'
tRp1190
ag36
(g80
S'\x03\x00\x00\x00'
tRp1191
ag36
(g80
S'\x01\x00\x00\x00'
tRp1192
ag36
(g80
S'\x04\x00\x00\x00'
tRp1193
ag36
(g80
S'\x05\x00\x00\x00'
tRp1194
aI1
ag36
(g80
S'\x07\x00\x00\x00'
tRp1195
ag36
(g80
S'\x04\x00\x00\x00'
tRp1196
ag36
(g80
S'\x04\x00\x00\x00'
tRp1197
aI1
ag36
(g80
S'\x02\x00\x00\x00'
tRp1198
ag36
(g80
S'\x03\x00\x00\x00'
tRp1199
ag36
(g80
S'\x04\x00\x00\x00'
tRp1200
ag36
(g80
S'\x06\x00\x00\x00'
tRp1201
ag36
(g80
S'\x03\x00\x00\x00'
tRp1202
ag36
(g80
S'\x08\x00\x00\x00'
tRp1203
ag36
(g80
S'\x01\x00\x00\x00'
tRp1204
ag36
(g80
S'\x02\x00\x00\x00'
tRp1205
ag36
(g80
S'\x04\x00\x00\x00'
tRp1206
ag36
(g80
S'\x04\x00\x00\x00'
tRp1207
ag36
(g80
S'\x07\x00\x00\x00'
tRp1208
ag36
(g80
S'\x08\x00\x00\x00'
tRp1209
ag36
(g80
S'\x02\x00\x00\x00'
tRp1210
ag36
(g80
S'\x03\x00\x00\x00'
tRp1211
ag36
(g80
S'\x01\x00\x00\x00'
tRp1212
aI1
ag36
(g80
S'\x06\x00\x00\x00'
tRp1213
ag36
(g80
S'\x03\x00\x00\x00'
tRp1214
aI1
ag36
(g80
S'\x06\x00\x00\x00'
tRp1215
ag36
(g80
S'\x07\x00\x00\x00'
tRp1216
aS'5.0'
p1217
ag36
(g80
S'\x05\x00\x00\x00'
tRp1218
ag36
(g80
S'\x02\x00\x00\x00'
tRp1219
ag36
(g80
S'\x04\x00\x00\x00'
tRp1220
ag36
(g80
S'\x03\x00\x00\x00'
tRp1221
ag36
(g80
S'\x03\x00\x00\x00'
tRp1222
ag36
(g80
S'\x04\x00\x00\x00'
tRp1223
ag36
(g80
S'\x03\x00\x00\x00'
tRp1224
ag36
(g80
S'\x01\x00\x00\x00'
tRp1225
ag36
(g80
S'\x02\x00\x00\x00'
tRp1226
ag36
(g80
S'\x05\x00\x00\x00'
tRp1227
ag36
(g80
S'\x06\x00\x00\x00'
tRp1228
ag36
(g80
S'\x03\x00\x00\x00'
tRp1229
ag36
(g80
S'\x07\x00\x00\x00'
tRp1230
ag36
(g80
S'\x06\x00\x00\x00'
tRp1231
aI1
ag36
(g80
S'\x02\x00\x00\x00'
tRp1232
ag36
(g80
S'\x06\x00\x00\x00'
tRp1233
ag36
(g80
S'\x01\x00\x00\x00'
tRp1234
aI1
ag36
(g80
S'\x06\x00\x00\x00'
tRp1235
aI1
ag36
(g80
S'\x07\x00\x00\x00'
tRp1236
ag36
(g80
S'\x01\x00\x00\x00'
tRp1237
ag36
(g80
S'\x07\x00\x00\x00'
tRp1238
ag36
(g80
S'\x03\x00\x00\x00'
tRp1239
ag36
(g80
S'\x04\x00\x00\x00'
tRp1240
ag36
(g80
S'\x02\x00\x00\x00'
tRp1241
ag36
(g80
S'\x02\x00\x00\x00'
tRp1242
ag36
(g80
S'\x01\x00\x00\x00'
tRp1243
ag36
(g80
S'\x04\x00\x00\x00'
tRp1244
ag36
(g80
S'\x05\x00\x00\x00'
tRp1245
ag36
(g80
S'\x01\x00\x00\x00'
tRp1246
ag36
(g80
S'\x05\x00\x00\x00'
tRp1247
ag36
(g80
S'\x01\x00\x00\x00'
tRp1248
ag36
(g80
S'\x05\x00\x00\x00'
tRp1249
ag36
(g80
S'\x05\x00\x00\x00'
tRp1250
ag36
(g80
S'\x04\x00\x00\x00'
tRp1251
ag36
(g80
S'\x05\x00\x00\x00'
tRp1252
ag36
(g80
S'\x03\x00\x00\x00'
tRp1253
ag36
(g80
S'\x04\x00\x00\x00'
tRp1254
ag36
(g80
S'\x06\x00\x00\x00'
tRp1255
ag36
(g80
S'\x04\x00\x00\x00'
tRp1256
ag36
(g80
S'\x06\x00\x00\x00'
tRp1257
ag36
(g80
S'\x05\x00\x00\x00'
tRp1258
ag36
(g80
S'\x03\x00\x00\x00'
tRp1259
ag36
(g80
S'\x07\x00\x00\x00'
tRp1260
ag36
(g80
S'\x03\x00\x00\x00'
tRp1261
ag36
(g80
S'\t\x00\x00\x00'
tRp1262
ag36
(g80
S'\t\x00\x00\x00'
tRp1263
ag36
(g80
S'\x05\x00\x00\x00'
tRp1264
ag36
(g80
S'\x01\x00\x00\x00'
tRp1265
ag36
(g80
S'\x05\x00\x00\x00'
tRp1266
atbsg21
g1162
(g1163
g1158
g1164
S'b'
tRp1267
(I1
(I96
I1
tg1166
I00
S'D,H?\xf4\xd5\xb8>\x05\xa3\x05>\xbez@?\xaeK\x12?\xb0;\xc8>\xe5\xba\x0f?f\xe2\xe1>\xf5f\x80>\xa1\x9bE?\xbb\x86v>\x18\xe8\x02?\x91\xba\x0f?#\x01\x88?\xcb\xaa\x8a>\x85\xd3&?\xe2\xa53?5M\x12?\xf2\xf6\x99?\xac\x01U?\x89\r\x9a>\x1f\xf3+?\x16\xb5!?\xd2\x8e\x1c?\xf3:\xc8>x\x08\xe7>\xe8\x04\xe7>\xfe\xc0\xdc>t\xc9\x8f>"L\x12?\x05\xfe\x19?[\x08\x08?\xab\x0bC?`W\x00?(\xe3\xe1>\xf6-\x9f>A\xa8\x8a>\x96\xa7\x8a>I\xf5f?\xbe\xd1&?\xb3\x8c\x93?\xd7!H?\xb3\xe2\xbd>\x12\x88i?W\x08\x08?\x1b\xc4\xf6=8\x9f\xd7>\xd6.\x9f>4\xb5\x8f>B\x171?:!\xf8<\xc1\x0c\x9a>\x8d\x92\xae>\xdd\x1f\x1f?jK\x12?\x80:w=\xacU\x00?@\xa9\xa1?\xe8S\xa4>\r\xf6T?kH\xf1>\x82q\xa9>\xd8}\xd2>1X;?\xaa\xb0!?>\xf3+?ml$>\x9cd\x80>nl\xf6>\xd3\xe8=?\xa8w\x05?x\x9bE?~\xf8\x94>\x049q?H\x9bE?(\xdc\x8f>\xa6\\\xcd>[\x1f\xa6<0\x99\n?<\xb0!?\xd9G\xf1>]\xdc\x14?\x9d\\\xcd>R\xfbf?EX;?!V\x00?p\x9f\xd7>?Y;?\'n\x17?\xe2\xc0\xdc>\x16\x8a\xfb>J\x15\x1f?\xe5@$?k\x06\xe7>\xcc\xffT?-\xd4a?'
S'\x00\x00\x00\x00\x00\x00\x00\x00\x00\x00\x00\x00\x00\x00\x00\x00\x00\x00\x00\x00\x00\x00\x00\x00\x00\x00\x00\x00\x00\x00\x00\x00\x00\x00\x00\x00\x00\x00\x00\x00\x00\x00\x00\x00\x00\x00\x00\x00\x00\x00\x00\x00\x00\x00\x00\x00\x00\x00\x00\x00\x00\x00\x00\x00\x00\x00\x00\x00\x00\x00\x00\x00\x00\x00\x00\x00\x00\x00\x00\x00\x00\x00\x00\x00\x00\x00\x00\x00\x00\x00\x00\x00\x00\x00\x00\x00'
NtbsS'order'
p1268
g1162
(g1163
g1158
g1164
S'b'
tRp1269
(I1
(I96
I1
tg1166
I00
S'\x00\x00\x90B\x00\x00\xa4B\x00\x00\xb6B\x00\x00tB\x00\x00dB\x00\x00\x80A\x00\x00\x96B\x00\x00\x00B\x00\x00\xa6B\x00\x00|B\x00\x008B\x00\x00\x80B\x00\x00\xe0A\x00\x00\xacB\x00\x00(B\x00\x00\xf0A\x00\x00\xaeB\x00\x00\x84B\x00\x00\xbeB\x00\x00\\B\x00\x00\x9aB\x00\x00\x86B\x00\x00PA\x00\x00\xa0B\x00\x00@@\x00\x00\x9eB\x00\x00\xb4B\x00\x00hB\x00\x00pA\x00\x00DB\x00\x00LB\x00\x00@B\x00\x00\x9cB\x00\x00\x80?\x00\x00$B\x00\x00 A\x00\x00HB\x00\x00\x98B\x00\x00\xb8A\x00\x00\xb0A\x00\x00\x8aB\x00\x00\xb0B\x00\x00lB\x00\x00\x00\x00\x00\x00\xe8A\x00\x00\xa2B\x00\x00@A\x00\x00PB\x00\x00xB\x00\x00\xc8A\x00\x00\xa0@\x00\x00\x10A\x00\x00\x00A\x00\x00\xc0A\x00\x00\xf8A\x00\x00\x08B\x00\x00\xbaB\x00\x00\x0cB\x00\x00 B\x00\x00\xd0A\x00\x00TB\x00\x00<B\x00\x00\x1cB\x00\x000B\x00\x00\x88B\x00\x00\x98A\x00\x00\x8eB\x00\x00\x88A\x00\x00\x18B\x00\x00`A\x00\x00\x92B\x00\x00\x8cB\x00\x00\x04B\x00\x00\x14B\x00\x00XB\x00\x00\x80@\x00\x000A\x00\x00\x94B\x00\x00\xc0@\x00\x00\xa8B\x00\x00,B\x00\x00\xb8B\x00\x00`B\x00\x00\xb2B\x00\x00\xa0A\x00\x00\xaaB\x00\x00pB\x00\x004B\x00\x00\xe0@\x00\x00\x00@\x00\x00\xd8A\x00\x00\x90A\x00\x00\xbcB\x00\x00\xa8A\x00\x00\x82B\x00\x00\x10B'
S'\x00\x00\x00\x00\x00\x00\x00\x00\x00\x00\x00\x00\x00\x00\x00\x00\x00\x00\x00\x00\x00\x00\x00\x00\x00\x00\x00\x00\x00\x00\x00\x00\x00\x00\x00\x00\x00\x00\x00\x00\x00\x00\x00\x00\x00\x00\x00\x00\x00\x00\x00\x00\x00\x00\x00\x00\x00\x00\x00\x00\x00\x00\x00\x00\x00\x00\x00\x00\x00\x00\x00\x00\x00\x00\x00\x00\x00\x00\x00\x00\x00\x00\x00\x00\x00\x00\x00\x00\x00\x00\x00\x00\x00\x00\x00\x00'
Ntbsg19
g1162
(g1163
g1158
g1164
S'b'
tRp1270
(I1
(I96
I1
tg1166
I00
S'\x00\x00\x80?\x00\x00\x00\x00\x00\x00\x80?\x00\x00\x00\x00\x00\x00\x00\x00\x00\x00\x00\x00\x00\x00\x80?\x00\x00\x80?\x00\x00\x80?\x00\x00\x80?\x00\x00\x00\x00\x00\x00\x80?\x00\x00\x00\x00\x00\x00\x80?\x00\x00\x80?\x00\x00\x80?\x00\x00\x80?\x00\x00\x80?\x00\x00\x80?\x00\x00\x00\x00\x00\x00\x80?\x00\x00\x00\x00\x00\x00\x80?\x00\x00\x80?\x00\x00\x80?\x00\x00\x80?\x00\x00\x00\x00\x00\x00\x00\x00\x00\x00\x00\x00\x00\x00\x00\x00\x00\x00\x80?\x00\x00\x80?\x00\x00\x80?\x00\x00\x80?\x00\x00\x80?\x00\x00\x00\x00\x00\x00\x80?\x00\x00\x80?\x00\x00\x80?\x00\x00\x00\x00\x00\x00\x80?\x00\x00\x80?\x00\x00\x80?\x00\x00\x80?\x00\x00\x80?\x00\x00\x00\x00\x00\x00\x80?\x00\x00\x00\x00\x00\x00\x80?\x00\x00\x80?\x00\x00\x80?\x00\x00\x80?\x00\x00\x80?\x00\x00\x80?\x00\x00\x80?\x00\x00\x80?\x00\x00\x80?\x00\x00\x00\x00\x00\x00\x00\x00\x00\x00\x80?\x00\x00\x80?\x00\x00\x00\x00\x00\x00\x00\x00\x00\x00\x80?\x00\x00\x00\x00\x00\x00\x00\x00\x00\x00\x00\x00\x00\x00\x80?\x00\x00\x80?\x00\x00\x80?\x00\x00\x80?\x00\x00\x80?\x00\x00\x80?\x00\x00\x80?\x00\x00\x80?\x00\x00\x80?\x00\x00\x80?\x00\x00\x80?\x00\x00\x80?\x00\x00\x80?\x00\x00\x80?\x00\x00\x80?\x00\x00\x80?\x00\x00\x80?\x00\x00\x00\x00\x00\x00\x80?\x00\x00\x80?\x00\x00\x80?\x00\x00\x80?\x00\x00\x80?\x00\x00\x80?\x00\x00\x80?\x00\x00\x80?\x00\x00\x80?\x00\x00\x80?\x00\x00\x80?'
S'\x00\x00\x00\x00\x00\x00\x00\x00\x00\x00\x00\x00\x00\x00\x00\x00\x00\x00\x00\x00\x00\x00\x00\x00\x00\x00\x00\x00\x00\x00\x00\x00\x00\x00\x00\x00\x00\x00\x00\x00\x00\x00\x00\x00\x00\x00\x00\x00\x00\x00\x00\x00\x00\x00\x00\x00\x00\x00\x00\x00\x00\x00\x00\x00\x00\x00\x00\x00\x00\x00\x00\x00\x00\x00\x00\x00\x00\x00\x00\x00\x00\x00\x00\x00\x00\x00\x00\x00\x00\x00\x00\x00\x00\x00\x00\x00'
Ntbsg27
g1157
(g1158
(I0
tS'b'
tRp1271
(I1
(I96
I1
tg1160
I00
(lp1272
g881
ag991
ag1090
ag760
ag715
ag264
ag914
ag440
ag1002
ag782
ag594
ag793
ag396
ag1035
ag550
ag418
ag1046
ag815
ag1134
ag693
ag936
ag826
ag231
ag969
ag115
ag958
ag1079
ag726
ag253
ag627
ag649
ag616
ag947
ag90
ag539
ag196
ag638
ag925
ag341
ag330
ag848
ag1057
ag737
ag76
ag407
ag980
ag219
ag660
ag771
ag363
ag139
ag184
ag173
ag352
ag429
ag462
ag1112
ag473
ag528
ag374
ag671
ag605
ag517
ag572
ag837
ag297
ag870
ag275
ag506
ag242
ag892
ag859
ag451
ag495
ag682
ag127
ag208
ag903
ag151
ag1013
ag561
ag1101
ag704
ag1068
ag308
ag1024
ag748
ag583
ag162
ag103
ag385
ag286
ag1123
ag319
ag804
ag484
atbsg23
g1157
(g1158
(I0
tS'b'
tRp1273
(I1
(I96
I1
tg1160
I00
(lp1274
S'2'
aS'1'
aS'1'
aS'2'
aS'1'
aS'1'
aS'3'
aS'3'
aS'1'
aS'3'
aS'2'
aS'3'
aS'2'
aS'1'
aS'1'
aS'1'
aS'1'
aS'2'
aS'3'
aS'2'
aS'1'
aS'2'
aS'1'
aS'2'
aS'3'
aS'3'
aS'2'
aS'2'
aS'1'
aS'2'
aS'2'
aS'3'
aS'2'
aS'2'
aS'2'
aS'1'
aS'1'
aS'1'
aS'2'
aS'1'
aS'1'
aS'3'
aS'2'
aS'1'
aS'2'
aS'2'
aS'3'
aS'1'
aS'1'
aS'3'
aS'1'
aS'1'
aS'2'
aS'2'
aS'3'
aS'1'
aS'1'
aS'2'
aS'1'
aS'1'
aS'2'
aS'1'
aS'2'
aS'2'
aS'3'
aS'2'
aS'1'
aS'1'
aS'3'
aS'3'
aS'2'
aS'2'
aS'1'
aS'2'
aS'2'
aS'1'
aS'2'
aS'1'
aS'3'
aS'2'
aS'1'
aS'1'
aS'1'
aS'2'
aS'2'
aS'2'
aS'3'
aS'3'
aS'2'
aS'3'
aS'1'
aS'3'
aS'3'
aS'3'
aS'2'
aS'2'
atbsg18
g1162
(g1163
g1158
g1164
S'b'
tRp1275
(I1
(I96
I1
tg1166
I00
S'K\xfb\x8bC\x19\xac\x9eC\xdf\xab\xb0C\x0cjjC\xff\xcf[C\x84\xbb~BC\xab\x91C\x97o\xfbB\x08\x7f\xa0C?drC\xb713C\x10SxC=\xbf\xdbB\xe3 \xa6C\xb3J$C]3\xebB\x9eM\xa8C\x1b\x12\x80C\xc7\xe8\xb8C\xc4"TC\xdeF\x95C\xf6\x08\x82C*\xd5PB?\xfd\x9aC$\x01\x84A\xe1,\x99CZ\xdf\xaeCZ\x9c_C\xf8\xbdpB\x0e\xde=CE\x15EC:&:CB\x0e\x97C\'P\x12A\xa9\xb1 Ce\x9e%B\xb6\xa2AC\x9c\x84\x93C\xd1\x19\xb4B\xedR\xacB\xe8\t\x86C\x9aI\xaaC,\x19cC\xa2-\xa0@(9\xe3B\xd6\xe9\x9cC\xaf=BB0\xe4HCFlnC~\x8e\xc4B8\xa5\xbbA\x1d\xab\x17B\xd4\xb7\tB\xa3z\xbcB\xc0\xd1\xf3B\xbf\xe4\x04Cr\x94\xb4Cd3\x08CF2\x1dC\x1fK\xccBEkLC\xd7\xa66CG\xc2\x19C\xd4j+C\x13\n\x84C\x1aF\x95B\xffJ\x8aC\xd6\x8f\x86B\xb7\x14\x16C\xe4\xfc`B{\x1c\x8eC\xffW\x88C\xedg\x01C,\xdf\x11C]-PC\xcc9\xa0A\xe4r3B4\x0e\x90C\xa9\x8a\xd5AEJ\xa2CB\xbd\'C)\xa0\xb2C\x16<XC\n:\xacC\x84!\x9dB\xfe;\xa4C\xe9\xb9fCgS/Cq\xc4\xf3A\x81\x1fNA\xd7Y\xd4BY\x84\x8dB\xa0z\xb6C\xaa\xf2\xa4B\x06\x10|C\xe2x\rC'
S'\x00\x00\x00\x00\x00\x00\x00\x00\x00\x00\x00\x00\x00\x00\x00\x00\x00\x00\x00\x00\x00\x00\x00\x00\x00\x00\x00\x00\x00\x00\x00\x00\x00\x00\x00\x00\x00\x00\x00\x00\x00\x00\x00\x00\x00\x00\x00\x00\x00\x00\x00\x00\x00\x00\x00\x00\x00\x00\x00\x00\x00\x00\x00\x00\x00\x00\x00\x00\x00\x00\x00\x00\x00\x00\x00\x00\x00\x00\x00\x00\x00\x00\x00\x00\x00\x00\x00\x00\x00\x00\x00\x00\x00\x00\x00\x00'
Ntbsg25
g1162
(g1163
g1158
g1164
S'b'
tRp1276
(I1
(I96
I1
tg1166
I00
S'\\h\xf6>4\xa7\x8a><x@?\xfdc\x80>\x00\xbb.>8w$>\x98(\x1a>v\x85\x85>\xea0\x9f>6C\t@uBl>\xbb@l>b4\x1a>R\x88\x85>\x8ax$>\xbe\x1f\x1f?\xf3Gl>\xb4\xc1\xb8>\nL\xb9=x\x85\x85>\'}M>\xcb\x91\xae>(9\xc8>VBl>\n:\x1a>Z\xae.>\xf8)\x1a>\xd4\xc3\'<YwM>\x8e\xbcW>\xf2xM>44C>\xf1\xbf\xdc>nxC>\xdd\xb0.>\xdf\xbf\xf6=\xd8x$>\xc1Hl>\xaf\x88\x85>{wM>\xc5\x03\xe7>\xd9\xa5\xa4=S\x08b>\x1dj$>3\xe2\xe1>%\\\xcd>yEl>\x83\xf38>,\xc8&?F\xf28>\xec\xf28>\xfc\xf38>\x87k$>X^\xcd>\xdcEl>J\xbcW>\xa8Al>d{{?\xb5\xf08>\x8c\xef8>\xe2\x85\x85>\xa0)\x1a>\xf30%=\x8a3\x1a>\xbe\xf7\xbd>^\xfea>\xd6\xb9W>\xcaw$>\xb5\xbaW>\xd1\xbfW>m\xf6\xbd>%\xe5\x0f>\xa0@C>r\x85\x85>a\xb6.>n\xea\x0f>\xb9\xcb\x8f>\xe47C>d@l>\x80Al>\xce\xaf.>#\xd8\x8f>=*\x1a>\x97\r\xb1?P)\x1a>\x96\xa6\x8a>\x94d\x80>\x07\xef\x0f>&\xf6\xbd>w\xb1.>\xf0\xae.>8\xbdW>\xc2\x1c\x96?"@l>\x1f\x86v>vU\x00?'
S'\x00\x00\x00\x00\x00\x00\x00\x00\x00\x00\x00\x00\x00\x00\x00\x00\x00\x00\x00\x00\x00\x00\x00\x00\x00\x00\x00\x00\x00\x00\x00\x00\x00\x00\x00\x00\x00\x00\x00\x00\x00\x00\x00\x00\x00\x00\x00\x00\x00\x00\x00\x00\x00\x00\x00\x00\x00\x00\x00\x00\x00\x00\x00\x00\x00\x00\x00\x00\x00\x00\x00\x00\x00\x00\x00\x00\x00\x00\x00\x00\x00\x00\x00\x00\x00\x00\x00\x00\x00\x00\x00\x00\x00\x00\x00\x00'
NtbstRp1277
(dp1278
S'isNumeric'
p1279
(dp1280
g23
I00
sg20
I00
sg17
I01
sg1167
I01
sg22
I01
sg24
I01
sg14
I01
sg18
I01
sg16
I00
sg19
I01
sg26
I00
sg27
I00
sg15
I00
sg21
I01
sg1268
I01
sg25
I01
ssg1151
g1145
sS'dataTypes'
p1281
(lp1282
g1167
ag1268
ag14
ag15
ag16
ag17
ag18
ag19
ag20
ag21
ag22
ag23
ag24
ag25
ag26
ag27
asS'dataShape'
p1283
(lp1284
I96
aI1
asbsS'method'
p1285
S'random'
p1286
sS'sequenceIndices'
p1287
g1157
(g1158
(I0
tS'b'
tRp1288
(I1
(I96
I1
tg80
I01
S'+\x00\x00\x00!\x00\x00\x00Y\x00\x00\x00\x18\x00\x00\x00K\x00\x00\x002\x00\x00\x00N\x00\x00\x00X\x00\x00\x004\x00\x00\x003\x00\x00\x00#\x00\x00\x00L\x00\x00\x00.\x00\x00\x00\x16\x00\x00\x00E\x00\x00\x00\x1c\x00\x00\x00\x05\x00\x00\x00C\x00\x00\x00[\x00\x00\x00A\x00\x00\x00T\x00\x00\x00]\x00\x00\x00\'\x00\x00\x00&\x00\x00\x005\x00\x00\x001\x00\x00\x00;\x00\x00\x00Z\x00\x00\x00\x0c\x00\x00\x00,\x00\x00\x00\x0f\x00\x00\x006\x00\x00\x00\x07\x00\x00\x00H\x00\x00\x007\x00\x00\x009\x00\x00\x00_\x00\x00\x00I\x00\x00\x00D\x00\x00\x00>\x00\x00\x00:\x00\x00\x00"\x00\x00\x00\x0e\x00\x00\x00P\x00\x00\x00?\x00\x00\x00W\x00\x00\x00\n\x00\x00\x00=\x00\x00\x00\x1f\x00\x00\x00\x1d\x00\x00\x00$\x00\x00\x00\x1e\x00\x00\x00/\x00\x00\x00<\x00\x00\x00J\x00\x00\x00\x13\x00\x00\x00R\x00\x00\x00\x04\x00\x00\x00\x1b\x00\x00\x00*\x00\x00\x00V\x00\x00\x00\x03\x00\x00\x000\x00\x00\x00\t\x00\x00\x00\x0b\x00\x00\x00^\x00\x00\x00\x11\x00\x00\x00\x15\x00\x00\x00@\x00\x00\x00(\x00\x00\x00G\x00\x00\x00B\x00\x00\x00\x00\x00\x00\x00F\x00\x00\x00M\x00\x00\x00\x06\x00\x00\x00%\x00\x00\x00\x14\x00\x00\x00 \x00\x00\x00\x19\x00\x00\x00\x17\x00\x00\x00-\x00\x00\x00\x01\x00\x00\x00\x08\x00\x00\x00O\x00\x00\x00U\x00\x00\x00\r\x00\x00\x00\x10\x00\x00\x00)\x00\x00\x00S\x00\x00\x00\x1a\x00\x00\x00\x02\x00\x00\x00Q\x00\x00\x008\x00\x00\x00\\\x00\x00\x00\x12\x00\x00\x00'
tbsS'finished'
p1289
I01
sS'nReps'
p1290
I1
sS'nRemaining'
p1291
I-1
sS'trialList'
p1292
(lp1293
g1
(cpsychopy.data
TrialType
p1294
g1155
(dp1295
g62
g101
sg63
g887
sg64
g149
sg65
g882
sg66
g886
stRp1296
ag1
(g1294
g1155
(dp1297
g62
g74
sg63
g997
sg64
g137
sg65
g992
sg66
g996
stRp1298
ag1
(g1294
g1155
(dp1299
g62
g101
sg63
g1096
sg64
g149
sg65
g1091
sg66
g1095
stRp1300
ag1
(g1294
g1155
(dp1301
g62
g101
sg63
g766
sg64
g758
sg65
g761
sg66
g765
stRp1302
ag1
(g1294
g1155
(dp1303
g62
g74
sg63
g721
sg64
g88
sg65
g716
sg66
g720
stRp1304
ag1
(g1294
g1155
(dp1305
g62
g101
sg63
g270
sg64
g149
sg65
g265
sg66
g269
stRp1306
ag1
(g1294
g1155
(dp1307
g62
g101
sg63
g920
sg64
g149
sg65
g915
sg66
g919
stRp1308
ag1
(g1294
g1155
(dp1309
g62
g101
sg63
g446
sg64
g206
sg65
g441
sg66
g445
stRp1310
ag1
(g1294
g1155
(dp1311
g62
g101
sg63
g1008
sg64
g149
sg65
g1003
sg66
g1007
stRp1312
ag1
(g1294
g1155
(dp1313
g62
g101
sg63
g788
sg64
g206
sg65
g783
sg66
g787
stRp1314
ag1
(g1294
g1155
(dp1315
g62
g74
sg63
g600
sg64
g113
sg65
g595
sg66
g599
stRp1316
ag1
(g1294
g1155
(dp1317
g62
g101
sg63
g799
sg64
g206
sg65
g794
sg66
g798
stRp1318
ag1
(g1294
g1155
(dp1319
g62
g101
sg63
g402
sg64
g194
sg65
g397
sg66
g401
stRp1320
ag1
(g1294
g1155
(dp1321
g62
g74
sg63
g1041
sg64
g137
sg65
g1036
sg66
g1040
stRp1322
ag1
(g1294
g1155
(dp1323
g62
g101
sg63
g556
sg64
g194
sg65
g551
sg66
g555
stRp1324
ag1
(g1294
g1155
(dp1325
g62
g101
sg63
g424
sg64
g149
sg65
g419
sg66
g423
stRp1326
ag1
(g1294
g1155
(dp1327
g62
g74
sg63
g1052
sg64
g137
sg65
g1047
sg66
g1051
stRp1328
ag1
(g1294
g1155
(dp1329
g62
g101
sg63
g821
sg64
g194
sg65
g816
sg66
g820
stRp1330
ag1
(g1294
g1155
(dp1331
g62
g101
sg63
g1140
sg64
g229
sg65
g1135
sg66
g1139
stRp1332
ag1
(g1294
g1155
(dp1333
g62
g101
sg63
g699
sg64
g149
sg65
g694
sg66
g698
stRp1334
ag1
(g1294
g1155
(dp1335
g62
g74
sg63
g942
sg64
g137
sg65
g937
sg66
g941
stRp1336
ag1
(g1294
g1155
(dp1337
g62
g74
sg63
g832
sg64
g73
sg65
g827
sg66
g831
stRp1338
ag1
(g1294
g1155
(dp1339
g62
g101
sg63
g237
sg64
g229
sg65
g232
sg66
g236
stRp1340
ag1
(g1294
g1155
(dp1341
g62
g74
sg63
g975
sg64
g73
sg65
g970
sg66
g974
stRp1342
ag1
(g1294
g1155
(dp1343
g62
g74
sg63
g121
sg64
g113
sg65
g116
sg66
g120
stRp1344
ag1
(g1294
g1155
(dp1345
g62
g101
sg63
g964
sg64
g100
sg65
g959
sg66
g963
stRp1346
ag1
(g1294
g1155
(dp1347
g62
g74
sg63
g1085
sg64
g88
sg65
g1080
sg66
g1084
stRp1348
ag1
(g1294
g1155
(dp1349
g62
g74
sg63
g732
sg64
g137
sg65
g727
sg66
g731
stRp1350
ag1
(g1294
g1155
(dp1351
g62
g101
sg63
g259
sg64
g194
sg65
g254
sg66
g258
stRp1352
ag1
(g1294
g1155
(dp1353
g62
g101
sg63
g633
sg64
g149
sg65
g628
sg66
g632
stRp1354
ag1
(g1294
g1155
(dp1355
g62
g101
sg63
g655
sg64
g229
sg65
g650
sg66
g654
stRp1356
ag1
(g1294
g1155
(dp1357
g62
g101
sg63
g622
sg64
g229
sg65
g617
sg66
g621
stRp1358
ag1
(g1294
g1155
(dp1359
g62
g74
sg63
g953
sg64
g137
sg65
g948
sg66
g952
stRp1360
ag1
(g1294
g1155
(dp1361
g62
g74
sg63
g96
sg64
g88
sg65
g91
sg66
g95
stRp1362
ag1
(g1294
g1155
(dp1363
g62
g74
sg63
g545
sg64
g88
sg65
g540
sg66
g544
stRp1364
ag1
(g1294
g1155
(dp1365
g62
g101
sg63
g202
sg64
g194
sg65
g197
sg66
g201
stRp1366
ag1
(g1294
g1155
(dp1367
g62
g101
sg63
g644
sg64
g100
sg65
g639
sg66
g643
stRp1368
ag1
(g1294
g1155
(dp1369
g62
g101
sg63
g931
sg64
g758
sg65
g926
sg66
g930
stRp1370
ag1
(g1294
g1155
(dp1371
g62
g74
sg63
g347
sg64
g88
sg65
g342
sg66
g346
stRp1372
ag1
(g1294
g1155
(dp1373
g62
g74
sg63
g336
sg64
g137
sg65
g331
sg66
g335
stRp1374
ag1
(g1294
g1155
(dp1375
g62
g74
sg63
g854
sg64
g137
sg65
g849
sg66
g853
stRp1376
ag1
(g1294
g1155
(dp1377
g62
g101
sg63
g1063
sg64
g194
sg65
g1058
sg66
g1062
stRp1378
ag1
(g1294
g1155
(dp1379
g62
g74
sg63
g743
sg64
g88
sg65
g738
sg66
g742
stRp1380
ag1
(g1294
g1155
(dp1381
g62
g74
sg63
g84
sg64
g73
sg65
g78
sg66
g83
stRp1382
ag1
(g1294
g1155
(dp1383
g62
g74
sg63
g413
sg64
g88
sg65
g408
sg66
g412
stRp1384
ag1
(g1294
g1155
(dp1385
g62
g74
sg63
g986
sg64
g113
sg65
g981
sg66
g985
stRp1386
ag1
(g1294
g1155
(dp1387
g62
g101
sg63
g225
sg64
g149
sg65
g220
sg66
g224
stRp1388
ag1
(g1294
g1155
(dp1389
g62
g101
sg63
g666
sg64
g149
sg65
g661
sg66
g665
stRp1390
ag1
(g1294
g1155
(dp1391
g62
g74
sg63
g777
sg64
g137
sg65
g772
sg66
g776
stRp1392
ag1
(g1294
g1155
(dp1393
g62
g74
sg63
g369
sg64
g73
sg65
g364
sg66
g368
stRp1394
ag1
(g1294
g1155
(dp1395
g62
g74
sg63
g145
sg64
g137
sg65
g140
sg66
g144
stRp1396
ag1
(g1294
g1155
(dp1397
g62
g74
sg63
g190
sg64
g88
sg65
g185
sg66
g189
stRp1398
ag1
(g1294
g1155
(dp1399
g62
g74
sg63
g179
sg64
g73
sg65
g174
sg66
g178
stRp1400
ag1
(g1294
g1155
(dp1401
g62
g101
sg63
g358
sg64
g194
sg65
g353
sg66
g357
stRp1402
ag1
(g1294
g1155
(dp1403
g62
g101
sg63
g435
sg64
g206
sg65
g430
sg66
g434
stRp1404
ag1
(g1294
g1155
(dp1405
g62
g74
sg63
g468
sg64
g73
sg65
g463
sg66
g467
stRp1406
ag1
(g1294
g1155
(dp1407
g62
g74
sg63
g1118
sg64
g88
sg65
g1113
sg66
g1117
stRp1408
ag1
(g1294
g1155
(dp1409
g62
g74
sg63
g479
sg64
g88
sg65
g474
sg66
g478
stRp1410
ag1
(g1294
g1155
(dp1411
g62
g101
sg63
g534
sg64
g194
sg65
g529
sg66
g533
stRp1412
ag1
(g1294
g1155
(dp1413
g62
g74
sg63
g380
sg64
g88
sg65
g375
sg66
g379
stRp1414
ag1
(g1294
g1155
(dp1415
g62
g74
sg63
g677
sg64
g88
sg65
g672
sg66
g676
stRp1416
ag1
(g1294
g1155
(dp1417
g62
g74
sg63
g611
sg64
g88
sg65
g606
sg66
g610
stRp1418
ag1
(g1294
g1155
(dp1419
g62
g101
sg63
g523
sg64
g100
sg65
g518
sg66
g522
stRp1420
ag1
(g1294
g1155
(dp1421
g62
g74
sg63
g578
sg64
g88
sg65
g573
sg66
g577
stRp1422
ag1
(g1294
g1155
(dp1423
g62
g101
sg63
g843
sg64
g206
sg65
g838
sg66
g842
stRp1424
ag1
(g1294
g1155
(dp1425
g62
g74
sg63
g303
sg64
g73
sg65
g298
sg66
g302
stRp1426
ag1
(g1294
g1155
(dp1427
g62
g101
sg63
g876
sg64
g229
sg65
g871
sg66
g875
stRp1428
ag1
(g1294
g1155
(dp1429
g62
g74
sg63
g281
sg64
g88
sg65
g276
sg66
g280
stRp1430
ag1
(g1294
g1155
(dp1431
g62
g74
sg63
g512
sg64
g137
sg65
g507
sg66
g511
stRp1432
ag1
(g1294
g1155
(dp1433
g62
g101
sg63
g248
sg64
g149
sg65
g243
sg66
g247
stRp1434
ag1
(g1294
g1155
(dp1435
g62
g74
sg63
g898
sg64
g88
sg65
g893
sg66
g897
stRp1436
ag1
(g1294
g1155
(dp1437
g62
g101
sg63
g865
sg64
g229
sg65
g860
sg66
g864
stRp1438
ag1
(g1294
g1155
(dp1439
g62
g101
sg63
g457
sg64
g100
sg65
g452
sg66
g456
stRp1440
ag1
(g1294
g1155
(dp1441
g62
g74
sg63
g501
sg64
g113
sg65
g496
sg66
g500
stRp1442
ag1
(g1294
g1155
(dp1443
g62
g74
sg63
g688
sg64
g88
sg65
g683
sg66
g687
stRp1444
ag1
(g1294
g1155
(dp1445
g62
g74
sg63
g133
sg64
g73
sg65
g128
sg66
g132
stRp1446
ag1
(g1294
g1155
(dp1447
g62
g101
sg63
g214
sg64
g206
sg65
g209
sg66
g213
stRp1448
ag1
(g1294
g1155
(dp1449
g62
g101
sg63
g909
sg64
g229
sg65
g904
sg66
g908
stRp1450
ag1
(g1294
g1155
(dp1451
g62
g101
sg63
g157
sg64
g149
sg65
g152
sg66
g156
stRp1452
ag1
(g1294
g1155
(dp1453
g62
g74
sg63
g1019
sg64
g88
sg65
g1014
sg66
g1018
stRp1454
ag1
(g1294
g1155
(dp1455
g62
g74
sg63
g567
sg64
g73
sg65
g562
sg66
g566
stRp1456
ag1
(g1294
g1155
(dp1457
g62
g101
sg63
g1107
sg64
g149
sg65
g1102
sg66
g1106
stRp1458
ag1
(g1294
g1155
(dp1459
g62
g74
sg63
g710
sg64
g137
sg65
g705
sg66
g709
stRp1460
ag1
(g1294
g1155
(dp1461
g62
g101
sg63
g1074
sg64
g229
sg65
g1069
sg66
g1073
stRp1462
ag1
(g1294
g1155
(dp1463
g62
g74
sg63
g314
sg64
g137
sg65
g309
sg66
g313
stRp1464
ag1
(g1294
g1155
(dp1465
g62
g74
sg63
g1030
sg64
g88
sg65
g1025
sg66
g1029
stRp1466
ag1
(g1294
g1155
(dp1467
g62
g101
sg63
g754
sg64
g206
sg65
g749
sg66
g753
stRp1468
ag1
(g1294
g1155
(dp1469
g62
g101
sg63
g589
sg64
g206
sg65
g584
sg66
g588
stRp1470
ag1
(g1294
g1155
(dp1471
g62
g101
sg63
g168
sg64
g100
sg65
g163
sg66
g167
stRp1472
ag1
(g1294
g1155
(dp1473
g62
g101
sg63
g109
sg64
g100
sg65
g104
sg66
g108
stRp1474
ag1
(g1294
g1155
(dp1475
g62
g74
sg63
g391
sg64
g137
sg65
g386
sg66
g390
stRp1476
ag1
(g1294
g1155
(dp1477
g62
g101
sg63
g292
sg64
g206
sg65
g287
sg66
g291
stRp1478
ag1
(g1294
g1155
(dp1479
g62
g101
sg63
g1129
sg64
g100
sg65
g1124
sg66
g1128
stRp1480
ag1
(g1294
g1155
(dp1481
g62
g101
sg63
g325
sg64
g149
sg65
g320
sg66
g324
stRp1482
ag1
(g1294
g1155
(dp1483
g62
g74
sg63
g810
sg64
g73
sg65
g805
sg66
g809
stRp1484
ag1
(g1294
g1155
(dp1485
g62
g74
sg63
g490
sg64
g137
sg65
g485
sg66
g489
stRp1486
asS'seed'
p1487
NsS'thisIndex'
p1488
g1137
sS'thisN'
p1489
I96
sS'thisTrialN'
p1490
I0
sS'nTotal'
p1491
I96
sS'_warnUseOfNext'
p1492
I01
sbasS'savePickle'
p1493
I00
sb.